; Listing generated by Microsoft (R) Optimizing Compiler Version 16.00.30319.01 

	TITLE	E:\work\tranet_version\GS\GameServer\SearchEvent.cpp
	.686P
	.XMM
	include listing.inc
	.model	flat

INCLUDELIB LIBCMT
INCLUDELIB OLDNAMES

PUBLIC	??_H@YGXPAXIHP6EPAX0@Z@Z			; `vector constructor iterator'
; Function compile flags: /Ogtp
;	COMDAT ??_H@YGXPAXIHP6EPAX0@Z@Z
_TEXT	SEGMENT
___t$ = 8						; size = 4
___s$ = 12						; size = 4
___n$ = 16						; size = 4
___f$ = 20						; size = 4
??_H@YGXPAXIHP6EPAX0@Z@Z PROC				; `vector constructor iterator', COMDAT
  00000	55		 push	 ebp
  00001	8b ec		 mov	 ebp, esp
  00003	57		 push	 edi
  00004	8b 7d 10	 mov	 edi, DWORD PTR ___n$[ebp]
  00007	4f		 dec	 edi
  00008	78 14		 js	 SHORT $LN1@vector
  0000a	53		 push	 ebx
  0000b	8b 5d 14	 mov	 ebx, DWORD PTR ___f$[ebp]
  0000e	56		 push	 esi
  0000f	8b 75 08	 mov	 esi, DWORD PTR ___t$[ebp]
$LL2@vector:
  00012	8b ce		 mov	 ecx, esi
  00014	ff d3		 call	 ebx
  00016	03 75 0c	 add	 esi, DWORD PTR ___s$[ebp]
  00019	4f		 dec	 edi
  0001a	79 f6		 jns	 SHORT $LL2@vector
  0001c	5e		 pop	 esi
  0001d	5b		 pop	 ebx
$LN1@vector:
  0001e	5f		 pop	 edi
  0001f	5d		 pop	 ebp
  00020	c2 10 00	 ret	 16			; 00000010H
??_H@YGXPAXIHP6EPAX0@Z@Z ENDP				; `vector constructor iterator'
_TEXT	ENDS
PUBLIC	??0cSearchEvent@@QAE@XZ				; cSearchEvent::cSearchEvent
; Function compile flags: /Ogtp
; File e:\work\tranet_version\gs\gameserver\searchevent.cpp
;	COMDAT ??0cSearchEvent@@QAE@XZ
_TEXT	SEGMENT
??0cSearchEvent@@QAE@XZ PROC				; cSearchEvent::cSearchEvent, COMDAT
; _this$ = ecx

; 19   : {

  00000	8b c1		 mov	 eax, ecx

; 20   : 	this->Start = false;

  00002	c6 40 1c 00	 mov	 BYTE PTR [eax+28], 0

; 21   : }

  00006	c3		 ret	 0
??0cSearchEvent@@QAE@XZ ENDP				; cSearchEvent::cSearchEvent
_TEXT	ENDS
PUBLIC	??1cSearchEvent@@QAE@XZ				; cSearchEvent::~cSearchEvent
; Function compile flags: /Ogtp
;	COMDAT ??1cSearchEvent@@QAE@XZ
_TEXT	SEGMENT
??1cSearchEvent@@QAE@XZ PROC				; cSearchEvent::~cSearchEvent, COMDAT
; _this$ = ecx

; 25   : 
; 26   : }

  00000	c3		 ret	 0
??1cSearchEvent@@QAE@XZ ENDP				; cSearchEvent::~cSearchEvent
_TEXT	ENDS
PUBLIC	??_C@_0BI@HDMMBKBM@?$CFd?5?$CFd?5?$CFd?5?$CFd?5?$CFd?5?$CFd?5?$CFd?5?$CFd?$AA@ ; `string'
PUBLIC	??_C@_05OKMLJOMC@?$CFd?5?$CFd?$AA@		; `string'
PUBLIC	??_C@_0L@DBBEOKP@LOAD?5ERROR?$AA@		; `string'
PUBLIC	??_C@_01KDCPPGHE@r?$AA@				; `string'
PUBLIC	??_C@_0BC@IGHAMHGJ@BonusGoblinPoints?$AA@	; `string'
PUBLIC	??_C@_0M@BDHBPIN@BonusWcoinP?$AA@		; `string'
PUBLIC	??_C@_0M@GANIFOBP@BonusWcoinC?$AA@		; `string'
PUBLIC	??_C@_0N@FFNKHLEO@BonusCredits?$AA@		; `string'
PUBLIC	??_C@_09GGKKDIOI@ItemCount?$AA@			; `string'
PUBLIC	??_C@_04OKOFBOPB@Time?$AA@			; `string'
PUBLIC	??_C@_03NBOPHIOC@Map?$AA@			; `string'
PUBLIC	??_C@_09COJLPKPK@PresWcoin?$AA@			; `string'
PUBLIC	??_C@_03BCJIDNJL@NPC?$AA@			; `string'
PUBLIC	??_C@_06POMJKEPM@Common?$AA@			; `string'
PUBLIC	??_C@_06CKGENIKG@Enable?$AA@			; `string'
PUBLIC	??_C@_0CG@IPHIFIDI@?4?4?2Data?2ZtData?2Events?2SearchEven@ ; `string'
PUBLIC	__$ArrayPad$
PUBLIC	?LoadingEvent@cSearchEvent@@QAEXXZ		; cSearchEvent::LoadingEvent
EXTRN	_fclose:PROC
EXTRN	_sscanf:PROC
EXTRN	?Zt_IsBadFileLine@@YA_NPADAAH@Z:PROC		; Zt_IsBadFileLine
EXTRN	_fgets:PROC
EXTRN	_feof:PROC
EXTRN	__imp__ExitProcess@4:PROC
EXTRN	__imp__MessageBoxA@16:PROC
EXTRN	_fopen:PROC
EXTRN	__imp__GetPrivateProfileIntA@16:PROC
EXTRN	___security_cookie:DWORD
EXTRN	@__security_check_cookie@4:PROC
;	COMDAT ??_C@_0BI@HDMMBKBM@?$CFd?5?$CFd?5?$CFd?5?$CFd?5?$CFd?5?$CFd?5?$CFd?5?$CFd?$AA@
CONST	SEGMENT
??_C@_0BI@HDMMBKBM@?$CFd?5?$CFd?5?$CFd?5?$CFd?5?$CFd?5?$CFd?5?$CFd?5?$CFd?$AA@ DB '%'
	DB	'd %d %d %d %d %d %d %d', 00H		; `string'
CONST	ENDS
;	COMDAT ??_C@_05OKMLJOMC@?$CFd?5?$CFd?$AA@
CONST	SEGMENT
??_C@_05OKMLJOMC@?$CFd?5?$CFd?$AA@ DB '%d %d', 00H	; `string'
CONST	ENDS
;	COMDAT ??_C@_0L@DBBEOKP@LOAD?5ERROR?$AA@
CONST	SEGMENT
??_C@_0L@DBBEOKP@LOAD?5ERROR?$AA@ DB 'LOAD ERROR', 00H	; `string'
CONST	ENDS
;	COMDAT ??_C@_01KDCPPGHE@r?$AA@
CONST	SEGMENT
??_C@_01KDCPPGHE@r?$AA@ DB 'r', 00H			; `string'
CONST	ENDS
;	COMDAT ??_C@_0BC@IGHAMHGJ@BonusGoblinPoints?$AA@
CONST	SEGMENT
??_C@_0BC@IGHAMHGJ@BonusGoblinPoints?$AA@ DB 'BonusGoblinPoints', 00H ; `string'
CONST	ENDS
;	COMDAT ??_C@_0M@BDHBPIN@BonusWcoinP?$AA@
CONST	SEGMENT
??_C@_0M@BDHBPIN@BonusWcoinP?$AA@ DB 'BonusWcoinP', 00H	; `string'
CONST	ENDS
;	COMDAT ??_C@_0M@GANIFOBP@BonusWcoinC?$AA@
CONST	SEGMENT
??_C@_0M@GANIFOBP@BonusWcoinC?$AA@ DB 'BonusWcoinC', 00H ; `string'
CONST	ENDS
;	COMDAT ??_C@_0N@FFNKHLEO@BonusCredits?$AA@
CONST	SEGMENT
??_C@_0N@FFNKHLEO@BonusCredits?$AA@ DB 'BonusCredits', 00H ; `string'
CONST	ENDS
;	COMDAT ??_C@_09GGKKDIOI@ItemCount?$AA@
CONST	SEGMENT
??_C@_09GGKKDIOI@ItemCount?$AA@ DB 'ItemCount', 00H	; `string'
CONST	ENDS
;	COMDAT ??_C@_04OKOFBOPB@Time?$AA@
CONST	SEGMENT
??_C@_04OKOFBOPB@Time?$AA@ DB 'Time', 00H		; `string'
CONST	ENDS
;	COMDAT ??_C@_03NBOPHIOC@Map?$AA@
CONST	SEGMENT
??_C@_03NBOPHIOC@Map?$AA@ DB 'Map', 00H			; `string'
CONST	ENDS
;	COMDAT ??_C@_09COJLPKPK@PresWcoin?$AA@
CONST	SEGMENT
??_C@_09COJLPKPK@PresWcoin?$AA@ DB 'PresWcoin', 00H	; `string'
CONST	ENDS
;	COMDAT ??_C@_03BCJIDNJL@NPC?$AA@
CONST	SEGMENT
??_C@_03BCJIDNJL@NPC?$AA@ DB 'NPC', 00H			; `string'
CONST	ENDS
;	COMDAT ??_C@_06POMJKEPM@Common?$AA@
CONST	SEGMENT
??_C@_06POMJKEPM@Common?$AA@ DB 'Common', 00H		; `string'
CONST	ENDS
;	COMDAT ??_C@_06CKGENIKG@Enable?$AA@
CONST	SEGMENT
??_C@_06CKGENIKG@Enable?$AA@ DB 'Enable', 00H		; `string'
CONST	ENDS
;	COMDAT ??_C@_0CG@IPHIFIDI@?4?4?2Data?2ZtData?2Events?2SearchEven@
CONST	SEGMENT
??_C@_0CG@IPHIFIDI@?4?4?2Data?2ZtData?2Events?2SearchEven@ DB '..\Data\Zt'
	DB	'Data\Events\SearchEvent.ini', 00H		; `string'
; Function compile flags: /Ogtp
CONST	ENDS
;	COMDAT ?LoadingEvent@cSearchEvent@@QAEXXZ
_TEXT	SEGMENT
_Flag$ = -352						; size = 4
_n$204113 = -348					; size = 12
_n$204107 = -336					; size = 12
_n$204117 = -324					; size = 12
_n$204115 = -312					; size = 12
_n$204110 = -300					; size = 40
_Buff$ = -260						; size = 256
__$ArrayPad$ = -4					; size = 4
?LoadingEvent@cSearchEvent@@QAEXXZ PROC			; cSearchEvent::LoadingEvent, COMDAT
; _this$ = ecx

; 29   : {

  00000	55		 push	 ebp
  00001	8b ec		 mov	 ebp, esp
  00003	81 ec 60 01 00
	00		 sub	 esp, 352		; 00000160H
  00009	a1 00 00 00 00	 mov	 eax, DWORD PTR ___security_cookie
  0000e	33 c5		 xor	 eax, ebp
  00010	89 45 fc	 mov	 DWORD PTR __$ArrayPad$[ebp], eax
  00013	53		 push	 ebx

; 30   : 
; 31   : 	this->Enable = GetPrivateProfileInt("Common","Enable",1,SEARCH_EVENT_DIR);

  00014	8b 1d 00 00 00
	00		 mov	 ebx, DWORD PTR __imp__GetPrivateProfileIntA@16
  0001a	56		 push	 esi
  0001b	57		 push	 edi
  0001c	68 00 00 00 00	 push	 OFFSET ??_C@_0CG@IPHIFIDI@?4?4?2Data?2ZtData?2Events?2SearchEven@
  00021	6a 01		 push	 1
  00023	68 00 00 00 00	 push	 OFFSET ??_C@_06CKGENIKG@Enable?$AA@
  00028	68 00 00 00 00	 push	 OFFSET ??_C@_06POMJKEPM@Common?$AA@
  0002d	8b f1		 mov	 esi, ecx
  0002f	ff d3		 call	 ebx

; 32   : 	this->NPC = GetPrivateProfileInt("Common","NPC",258,SEARCH_EVENT_DIR);

  00031	68 00 00 00 00	 push	 OFFSET ??_C@_0CG@IPHIFIDI@?4?4?2Data?2ZtData?2Events?2SearchEven@
  00036	68 02 01 00 00	 push	 258			; 00000102H
  0003b	68 00 00 00 00	 push	 OFFSET ??_C@_03BCJIDNJL@NPC?$AA@
  00040	68 00 00 00 00	 push	 OFFSET ??_C@_06POMJKEPM@Common?$AA@
  00045	89 06		 mov	 DWORD PTR [esi], eax
  00047	ff d3		 call	 ebx

; 33   : 	this->PresWcoin = GetPrivateProfileInt("Common","PresWcoin",10,SEARCH_EVENT_DIR);

  00049	68 00 00 00 00	 push	 OFFSET ??_C@_0CG@IPHIFIDI@?4?4?2Data?2ZtData?2Events?2SearchEven@
  0004e	6a 0a		 push	 10			; 0000000aH
  00050	68 00 00 00 00	 push	 OFFSET ??_C@_09COJLPKPK@PresWcoin?$AA@
  00055	68 00 00 00 00	 push	 OFFSET ??_C@_06POMJKEPM@Common?$AA@
  0005a	89 46 08	 mov	 DWORD PTR [esi+8], eax
  0005d	ff d3		 call	 ebx

; 34   : 	this->Map = GetPrivateProfileInt("Common","Map",0,SEARCH_EVENT_DIR);

  0005f	68 00 00 00 00	 push	 OFFSET ??_C@_0CG@IPHIFIDI@?4?4?2Data?2ZtData?2Events?2SearchEven@
  00064	33 ff		 xor	 edi, edi
  00066	57		 push	 edi
  00067	68 00 00 00 00	 push	 OFFSET ??_C@_03NBOPHIOC@Map?$AA@
  0006c	68 00 00 00 00	 push	 OFFSET ??_C@_06POMJKEPM@Common?$AA@
  00071	89 46 10	 mov	 DWORD PTR [esi+16], eax
  00074	ff d3		 call	 ebx

; 35   : 	this->Time = GetPrivateProfileInt("Common","Time",60,SEARCH_EVENT_DIR) * 60;

  00076	68 00 00 00 00	 push	 OFFSET ??_C@_0CG@IPHIFIDI@?4?4?2Data?2ZtData?2Events?2SearchEven@
  0007b	6a 3c		 push	 60			; 0000003cH
  0007d	68 00 00 00 00	 push	 OFFSET ??_C@_04OKOFBOPB@Time?$AA@
  00082	68 00 00 00 00	 push	 OFFSET ??_C@_06POMJKEPM@Common?$AA@
  00087	89 46 0c	 mov	 DWORD PTR [esi+12], eax
  0008a	ff d3		 call	 ebx
  0008c	8b c8		 mov	 ecx, eax
  0008e	c1 e1 04	 shl	 ecx, 4

; 36   : 	this->ItemCount = GetPrivateProfileInt("Common","ItemCount",5,SEARCH_EVENT_DIR);

  00091	68 00 00 00 00	 push	 OFFSET ??_C@_0CG@IPHIFIDI@?4?4?2Data?2ZtData?2Events?2SearchEven@
  00096	2b c8		 sub	 ecx, eax
  00098	6a 05		 push	 5
  0009a	03 c9		 add	 ecx, ecx
  0009c	68 00 00 00 00	 push	 OFFSET ??_C@_09GGKKDIOI@ItemCount?$AA@
  000a1	03 c9		 add	 ecx, ecx
  000a3	68 00 00 00 00	 push	 OFFSET ??_C@_06POMJKEPM@Common?$AA@
  000a8	89 4e 14	 mov	 DWORD PTR [esi+20], ecx
  000ab	ff d3		 call	 ebx

; 37   : 
; 38   : 	this->BonusCredits = GetPrivateProfileInt("Common","BonusCredits",10,SEARCH_EVENT_DIR);

  000ad	68 00 00 00 00	 push	 OFFSET ??_C@_0CG@IPHIFIDI@?4?4?2Data?2ZtData?2Events?2SearchEven@
  000b2	6a 0a		 push	 10			; 0000000aH
  000b4	68 00 00 00 00	 push	 OFFSET ??_C@_0N@FFNKHLEO@BonusCredits?$AA@
  000b9	68 00 00 00 00	 push	 OFFSET ??_C@_06POMJKEPM@Common?$AA@
  000be	89 46 18	 mov	 DWORD PTR [esi+24], eax
  000c1	ff d3		 call	 ebx

; 39   : 	this->BonusWcoinC = GetPrivateProfileInt("Common","BonusWcoinC",10,SEARCH_EVENT_DIR);

  000c3	68 00 00 00 00	 push	 OFFSET ??_C@_0CG@IPHIFIDI@?4?4?2Data?2ZtData?2Events?2SearchEven@
  000c8	6a 0a		 push	 10			; 0000000aH
  000ca	68 00 00 00 00	 push	 OFFSET ??_C@_0M@GANIFOBP@BonusWcoinC?$AA@
  000cf	68 00 00 00 00	 push	 OFFSET ??_C@_06POMJKEPM@Common?$AA@
  000d4	89 46 28	 mov	 DWORD PTR [esi+40], eax
  000d7	ff d3		 call	 ebx

; 40   : 	this->BonusWcoinP = GetPrivateProfileInt("Common","BonusWcoinP",10,SEARCH_EVENT_DIR);

  000d9	68 00 00 00 00	 push	 OFFSET ??_C@_0CG@IPHIFIDI@?4?4?2Data?2ZtData?2Events?2SearchEven@
  000de	6a 0a		 push	 10			; 0000000aH
  000e0	68 00 00 00 00	 push	 OFFSET ??_C@_0M@BDHBPIN@BonusWcoinP?$AA@
  000e5	68 00 00 00 00	 push	 OFFSET ??_C@_06POMJKEPM@Common?$AA@
  000ea	89 46 2c	 mov	 DWORD PTR [esi+44], eax
  000ed	ff d3		 call	 ebx

; 41   : 	this->BonusGoblinPoints = GetPrivateProfileInt("Common","BonusGoblinPoints",10,SEARCH_EVENT_DIR);

  000ef	68 00 00 00 00	 push	 OFFSET ??_C@_0CG@IPHIFIDI@?4?4?2Data?2ZtData?2Events?2SearchEven@
  000f4	6a 0a		 push	 10			; 0000000aH
  000f6	68 00 00 00 00	 push	 OFFSET ??_C@_0BC@IGHAMHGJ@BonusGoblinPoints?$AA@
  000fb	68 00 00 00 00	 push	 OFFSET ??_C@_06POMJKEPM@Common?$AA@
  00100	89 46 30	 mov	 DWORD PTR [esi+48], eax
  00103	ff d3		 call	 ebx
  00105	89 46 34	 mov	 DWORD PTR [esi+52], eax

; 42   : 
; 43   : 	for(int i=0;i<10;i++)
; 44   : 	{
; 45   : 		this->TickTime[i].Hour = 0;

  00108	89 7e 6c	 mov	 DWORD PTR [esi+108], edi

; 46   : 		this->TickTime[i].Min = 0;

  0010b	89 7e 70	 mov	 DWORD PTR [esi+112], edi
  0010e	89 7e 74	 mov	 DWORD PTR [esi+116], edi
  00111	89 7e 78	 mov	 DWORD PTR [esi+120], edi
  00114	89 7e 7c	 mov	 DWORD PTR [esi+124], edi
  00117	89 be 80 00 00
	00		 mov	 DWORD PTR [esi+128], edi
  0011d	89 be 84 00 00
	00		 mov	 DWORD PTR [esi+132], edi
  00123	89 be 88 00 00
	00		 mov	 DWORD PTR [esi+136], edi
  00129	89 be 8c 00 00
	00		 mov	 DWORD PTR [esi+140], edi
  0012f	89 be 90 00 00
	00		 mov	 DWORD PTR [esi+144], edi
  00135	89 be 94 00 00
	00		 mov	 DWORD PTR [esi+148], edi
  0013b	89 be 98 00 00
	00		 mov	 DWORD PTR [esi+152], edi
  00141	89 be 9c 00 00
	00		 mov	 DWORD PTR [esi+156], edi
  00147	89 be a0 00 00
	00		 mov	 DWORD PTR [esi+160], edi
  0014d	89 be a4 00 00
	00		 mov	 DWORD PTR [esi+164], edi
  00153	89 be a8 00 00
	00		 mov	 DWORD PTR [esi+168], edi
  00159	89 be ac 00 00
	00		 mov	 DWORD PTR [esi+172], edi
  0015f	89 be b0 00 00
	00		 mov	 DWORD PTR [esi+176], edi
  00165	89 be b4 00 00
	00		 mov	 DWORD PTR [esi+180], edi
  0016b	89 be b8 00 00
	00		 mov	 DWORD PTR [esi+184], edi

; 47   : 	}
; 48   : 
; 49   : 	for(int i(0);i < 255; i++)

  00171	8d 86 c0 00 00
	00		 lea	 eax, DWORD PTR [esi+192]
  00177	b9 ff 00 00 00	 mov	 ecx, 255		; 000000ffH
  0017c	8d 64 24 00	 npad	 4
$LL18@LoadingEve:

; 50   : 	{
; 51   : 		this->Item[i].Index = 0;

  00180	89 78 fc	 mov	 DWORD PTR [eax-4], edi

; 52   : 		this->Item[i].Type  = 0;

  00183	89 38		 mov	 DWORD PTR [eax], edi

; 53   : 		this->Item[i].Level = 0;

  00185	89 78 04	 mov	 DWORD PTR [eax+4], edi

; 54   : 		this->Item[i].Skill = 0;

  00188	89 78 08	 mov	 DWORD PTR [eax+8], edi

; 55   : 		this->Item[i].Luck  = 0;

  0018b	89 78 0c	 mov	 DWORD PTR [eax+12], edi

; 56   : 		this->Item[i].Opt   = 0;

  0018e	89 78 10	 mov	 DWORD PTR [eax+16], edi

; 57   : 		this->Item[i].Exl	= 0;

  00191	89 78 14	 mov	 DWORD PTR [eax+20], edi

; 58   : 		this->Item[i].Anc   = 0;

  00194	89 78 18	 mov	 DWORD PTR [eax+24], edi
  00197	83 c0 20	 add	 eax, 32			; 00000020H
  0019a	49		 dec	 ecx
  0019b	75 e3		 jne	 SHORT $LL18@LoadingEve

; 59   : 	}
; 60   : 
; 61   : 	for(int i=0;i<3;i++)

  0019d	8d 86 a0 20 00
	00		 lea	 eax, DWORD PTR [esi+8352]
  001a3	8d 51 03	 lea	 edx, DWORD PTR [ecx+3]
$LL15@LoadingEve:

; 62   : 	{
; 63   : 		for(int l=0;l<100;l++)

  001a6	b9 64 00 00 00	 mov	 ecx, 100		; 00000064H
  001ab	eb 03 8d 49 00	 npad	 5
$LL12@LoadingEve:

; 64   : 		{
; 65   : 			this->Cord[i][l].X = 0;

  001b0	89 78 fc	 mov	 DWORD PTR [eax-4], edi

; 66   : 			this->Cord[i][l].Y = 0;

  001b3	89 38		 mov	 DWORD PTR [eax], edi
  001b5	83 c0 08	 add	 eax, 8
  001b8	49		 dec	 ecx
  001b9	75 f5		 jne	 SHORT $LL12@LoadingEve

; 59   : 	}
; 60   : 
; 61   : 	for(int i=0;i<3;i++)

  001bb	4a		 dec	 edx
  001bc	75 e8		 jne	 SHORT $LL15@LoadingEve

; 67   : 		}
; 68   : 	}
; 69   : 
; 70   : 	FILE *file = fopen(SEARCH_EVENT_DIR,"r");

  001be	68 00 00 00 00	 push	 OFFSET ??_C@_01KDCPPGHE@r?$AA@
  001c3	68 00 00 00 00	 push	 OFFSET ??_C@_0CG@IPHIFIDI@?4?4?2Data?2ZtData?2Events?2SearchEven@
  001c8	e8 00 00 00 00	 call	 _fopen
  001cd	8b d8		 mov	 ebx, eax
  001cf	83 c4 08	 add	 esp, 8

; 71   : 
; 72   : 	if(file == NULL)

  001d2	3b df		 cmp	 ebx, edi
  001d4	75 1a		 jne	 SHORT $LN9@LoadingEve

; 73   : 	{
; 74   : 		MessageBoxA(0,SEARCH_EVENT_DIR,"LOAD ERROR",0);

  001d6	57		 push	 edi
  001d7	68 00 00 00 00	 push	 OFFSET ??_C@_0L@DBBEOKP@LOAD?5ERROR?$AA@
  001dc	68 00 00 00 00	 push	 OFFSET ??_C@_0CG@IPHIFIDI@?4?4?2Data?2ZtData?2Events?2SearchEven@
  001e1	57		 push	 edi
  001e2	ff 15 00 00 00
	00		 call	 DWORD PTR __imp__MessageBoxA@16

; 75   : 		ExitProcess(1);

  001e8	6a 01		 push	 1
  001ea	ff 15 00 00 00
	00		 call	 DWORD PTR __imp__ExitProcess@4
$LN46@LoadingEve:
$LN9@LoadingEve:

; 76   : 		return;
; 77   : 	}
; 78   : 
; 79   : 	char Buff[256];
; 80   : 	int Flag = 0;
; 81   : 
; 82   : 	this->Count = 0;
; 83   : 	this->Count2 = 0;
; 84   : 
; 85   : 	this->CountCord[1] = 0;
; 86   : 	this->CountCord[2] = 0;
; 87   : 	this->CountCord[3] = 0;
; 88   : 
; 89   : 	while(!feof(file)) 

  001f0	53		 push	 ebx
  001f1	89 bd a0 fe ff
	ff		 mov	 DWORD PTR _Flag$[ebp], edi
  001f7	89 be 1c 2d 00
	00		 mov	 DWORD PTR [esi+11548], edi
  001fd	89 be 20 2d 00
	00		 mov	 DWORD PTR [esi+11552], edi
  00203	89 be 28 2d 00
	00		 mov	 DWORD PTR [esi+11560], edi
  00209	89 be 2c 2d 00
	00		 mov	 DWORD PTR [esi+11564], edi
  0020f	89 be 30 2d 00
	00		 mov	 DWORD PTR [esi+11568], edi
  00215	e8 00 00 00 00	 call	 _feof
  0021a	83 c4 04	 add	 esp, 4
  0021d	85 c0		 test	 eax, eax
  0021f	0f 85 b4 02 00
	00		 jne	 $LN7@LoadingEve
  00225	eb 09 8d a4 24
	00 00 00 00 8b
	ff		 npad	 11
$LL8@LoadingEve:

; 90   : 	{
; 91   : 		fgets(Buff,256,file);

  00230	53		 push	 ebx
  00231	8d 95 fc fe ff
	ff		 lea	 edx, DWORD PTR _Buff$[ebp]
  00237	68 00 01 00 00	 push	 256			; 00000100H
  0023c	52		 push	 edx
  0023d	e8 00 00 00 00	 call	 _fgets

; 92   : 		if(Zt_IsBadFileLine(Buff, Flag))

  00242	8d 85 a0 fe ff
	ff		 lea	 eax, DWORD PTR _Flag$[ebp]
  00248	50		 push	 eax
  00249	8d 8d fc fe ff
	ff		 lea	 ecx, DWORD PTR _Buff$[ebp]
  0024f	51		 push	 ecx
  00250	e8 00 00 00 00	 call	 ?Zt_IsBadFileLine@@YA_NPADAAH@Z ; Zt_IsBadFileLine
  00255	83 c4 14	 add	 esp, 20			; 00000014H
  00258	84 c0		 test	 al, al
  0025a	0f 85 68 02 00
	00		 jne	 $LN1@LoadingEve

; 93   : 			continue;
; 94   : 
; 95   : 		if(Flag == 1)

  00260	bf 01 00 00 00	 mov	 edi, 1
  00265	39 bd a0 fe ff
	ff		 cmp	 DWORD PTR _Flag$[ebp], edi
  0026b	75 48		 jne	 SHORT $LN5@LoadingEve

; 96   : 		{
; 97   : 			int n[3];
; 98   : 			sscanf(Buff, "%d %d", &n[0], &n[1]);

  0026d	8d 95 b4 fe ff
	ff		 lea	 edx, DWORD PTR _n$204107[ebp+4]
  00273	52		 push	 edx
  00274	8d 85 b0 fe ff
	ff		 lea	 eax, DWORD PTR _n$204107[ebp]
  0027a	50		 push	 eax
  0027b	8d 8d fc fe ff
	ff		 lea	 ecx, DWORD PTR _Buff$[ebp]
  00281	68 00 00 00 00	 push	 OFFSET ??_C@_05OKMLJOMC@?$CFd?5?$CFd?$AA@
  00286	51		 push	 ecx
  00287	e8 00 00 00 00	 call	 _sscanf

; 99   : 			this->TickTime[this->Count].Hour  = n[0];

  0028c	8b 96 1c 2d 00
	00		 mov	 edx, DWORD PTR [esi+11548]
  00292	8b 85 b0 fe ff
	ff		 mov	 eax, DWORD PTR _n$204107[ebp]
  00298	89 44 d6 6c	 mov	 DWORD PTR [esi+edx*8+108], eax

; 100  : 			this->TickTime[this->Count].Min   = n[1];

  0029c	8b 8e 1c 2d 00
	00		 mov	 ecx, DWORD PTR [esi+11548]
  002a2	8b 95 b4 fe ff
	ff		 mov	 edx, DWORD PTR _n$204107[ebp+4]
  002a8	83 c4 10	 add	 esp, 16			; 00000010H
  002ab	89 54 ce 70	 mov	 DWORD PTR [esi+ecx*8+112], edx

; 101  : 			this->Count++;

  002af	01 be 1c 2d 00
	00		 add	 DWORD PTR [esi+11548], edi
$LN5@LoadingEve:

; 102  : 		}
; 103  : 		if(Flag == 2)

  002b5	83 bd a0 fe ff
	ff 02		 cmp	 DWORD PTR _Flag$[ebp], 2
  002bc	0f 85 01 01 00
	00		 jne	 $LN4@LoadingEve

; 104  : 		{
; 105  : 			int n[10];
; 106  : 			sscanf(Buff, "%d %d %d %d %d %d %d %d", &n[0], &n[1], &n[2], &n[3], &n[4], &n[5], &n[6], &n[7]);

  002c2	8d 85 f0 fe ff
	ff		 lea	 eax, DWORD PTR _n$204110[ebp+28]
  002c8	50		 push	 eax
  002c9	8d 8d ec fe ff
	ff		 lea	 ecx, DWORD PTR _n$204110[ebp+24]
  002cf	51		 push	 ecx
  002d0	8d 95 e8 fe ff
	ff		 lea	 edx, DWORD PTR _n$204110[ebp+20]
  002d6	52		 push	 edx
  002d7	8d 85 e4 fe ff
	ff		 lea	 eax, DWORD PTR _n$204110[ebp+16]
  002dd	50		 push	 eax
  002de	8d 8d e0 fe ff
	ff		 lea	 ecx, DWORD PTR _n$204110[ebp+12]
  002e4	51		 push	 ecx
  002e5	8d 95 dc fe ff
	ff		 lea	 edx, DWORD PTR _n$204110[ebp+8]
  002eb	52		 push	 edx
  002ec	8d 85 d8 fe ff
	ff		 lea	 eax, DWORD PTR _n$204110[ebp+4]
  002f2	50		 push	 eax
  002f3	8d 8d d4 fe ff
	ff		 lea	 ecx, DWORD PTR _n$204110[ebp]
  002f9	51		 push	 ecx
  002fa	8d 95 fc fe ff
	ff		 lea	 edx, DWORD PTR _Buff$[ebp]
  00300	68 00 00 00 00	 push	 OFFSET ??_C@_0BI@HDMMBKBM@?$CFd?5?$CFd?5?$CFd?5?$CFd?5?$CFd?5?$CFd?5?$CFd?5?$CFd?$AA@
  00305	52		 push	 edx
  00306	e8 00 00 00 00	 call	 _sscanf

; 107  : 
; 108  : 			this->Item[this->Count2].Type  = n[0];

  0030b	8b 86 20 2d 00
	00		 mov	 eax, DWORD PTR [esi+11552]
  00311	8b 8d d4 fe ff
	ff		 mov	 ecx, DWORD PTR _n$204110[ebp]
  00317	83 c0 06	 add	 eax, 6
  0031a	c1 e0 05	 shl	 eax, 5
  0031d	89 0c 30	 mov	 DWORD PTR [eax+esi], ecx

; 109  : 			this->Item[this->Count2].Index = n[1];

  00320	8b 96 20 2d 00
	00		 mov	 edx, DWORD PTR [esi+11552]
  00326	8b 85 d8 fe ff
	ff		 mov	 eax, DWORD PTR _n$204110[ebp+4]
  0032c	c1 e2 05	 shl	 edx, 5
  0032f	89 84 32 bc 00
	00 00		 mov	 DWORD PTR [edx+esi+188], eax

; 110  : 			this->Item[this->Count2].Level = n[2];

  00336	8b 8e 20 2d 00
	00		 mov	 ecx, DWORD PTR [esi+11552]
  0033c	8b 95 dc fe ff
	ff		 mov	 edx, DWORD PTR _n$204110[ebp+8]
  00342	c1 e1 05	 shl	 ecx, 5
  00345	89 94 31 c4 00
	00 00		 mov	 DWORD PTR [ecx+esi+196], edx

; 111  : 			this->Item[this->Count2].Skill = n[3];

  0034c	8b 86 20 2d 00
	00		 mov	 eax, DWORD PTR [esi+11552]
  00352	8b 8d e0 fe ff
	ff		 mov	 ecx, DWORD PTR _n$204110[ebp+12]
  00358	c1 e0 05	 shl	 eax, 5
  0035b	89 8c 30 c8 00
	00 00		 mov	 DWORD PTR [eax+esi+200], ecx

; 112  : 			this->Item[this->Count2].Luck  = n[4];

  00362	8b 96 20 2d 00
	00		 mov	 edx, DWORD PTR [esi+11552]
  00368	8b 85 e4 fe ff
	ff		 mov	 eax, DWORD PTR _n$204110[ebp+16]
  0036e	c1 e2 05	 shl	 edx, 5
  00371	89 84 32 cc 00
	00 00		 mov	 DWORD PTR [edx+esi+204], eax

; 113  : 			this->Item[this->Count2].Opt   = n[5];

  00378	8b 8e 20 2d 00
	00		 mov	 ecx, DWORD PTR [esi+11552]
  0037e	8b 95 e8 fe ff
	ff		 mov	 edx, DWORD PTR _n$204110[ebp+20]
  00384	c1 e1 05	 shl	 ecx, 5
  00387	89 94 31 d0 00
	00 00		 mov	 DWORD PTR [ecx+esi+208], edx

; 114  : 			this->Item[this->Count2].Exl   = n[6];

  0038e	8b 86 20 2d 00
	00		 mov	 eax, DWORD PTR [esi+11552]
  00394	8b 8d ec fe ff
	ff		 mov	 ecx, DWORD PTR _n$204110[ebp+24]
  0039a	c1 e0 05	 shl	 eax, 5
  0039d	89 8c 30 d4 00
	00 00		 mov	 DWORD PTR [eax+esi+212], ecx

; 115  : 			this->Item[this->Count2].Anc   = n[7];

  003a4	8b 96 20 2d 00
	00		 mov	 edx, DWORD PTR [esi+11552]
  003aa	8b 85 f0 fe ff
	ff		 mov	 eax, DWORD PTR _n$204110[ebp+28]
  003b0	c1 e2 05	 shl	 edx, 5
  003b3	83 c4 28	 add	 esp, 40			; 00000028H
  003b6	89 84 32 d8 00
	00 00		 mov	 DWORD PTR [edx+esi+216], eax

; 116  : 			this->Count2++;

  003bd	01 be 20 2d 00
	00		 add	 DWORD PTR [esi+11552], edi
$LN4@LoadingEve:

; 117  : 		}
; 118  : 		//----------------------------------------
; 119  : 		//Lorencia
; 120  : 		if(Flag == 3)

  003c3	83 bd a0 fe ff
	ff 03		 cmp	 DWORD PTR _Flag$[ebp], 3
  003ca	75 4e		 jne	 SHORT $LN3@LoadingEve

; 121  : 		{
; 122  : 			int n[3];
; 123  : 			sscanf(Buff, "%d %d", &n[0], &n[1]);

  003cc	8d 8d a8 fe ff
	ff		 lea	 ecx, DWORD PTR _n$204113[ebp+4]
  003d2	51		 push	 ecx
  003d3	8d 95 a4 fe ff
	ff		 lea	 edx, DWORD PTR _n$204113[ebp]
  003d9	52		 push	 edx
  003da	8d 85 fc fe ff
	ff		 lea	 eax, DWORD PTR _Buff$[ebp]
  003e0	68 00 00 00 00	 push	 OFFSET ??_C@_05OKMLJOMC@?$CFd?5?$CFd?$AA@
  003e5	50		 push	 eax
  003e6	e8 00 00 00 00	 call	 _sscanf

; 124  : 			this->Cord[1][this->CountCord[1]].X  = n[0];

  003eb	8b 8e 28 2d 00
	00		 mov	 ecx, DWORD PTR [esi+11560]
  003f1	8b 95 a4 fe ff
	ff		 mov	 edx, DWORD PTR _n$204113[ebp]
  003f7	89 94 ce bc 23
	00 00		 mov	 DWORD PTR [esi+ecx*8+9148], edx

; 125  : 			this->Cord[1][this->CountCord[1]].Y   = n[1];

  003fe	8b 86 28 2d 00
	00		 mov	 eax, DWORD PTR [esi+11560]
  00404	8b 8d a8 fe ff
	ff		 mov	 ecx, DWORD PTR _n$204113[ebp+4]
  0040a	83 c4 10	 add	 esp, 16			; 00000010H
  0040d	89 8c c6 c0 23
	00 00		 mov	 DWORD PTR [esi+eax*8+9152], ecx

; 126  : 			this->CountCord[1]++;

  00414	01 be 28 2d 00
	00		 add	 DWORD PTR [esi+11560], edi
$LN3@LoadingEve:

; 127  : 		}
; 128  : 		//Noria
; 129  : 		if(Flag == 4)

  0041a	83 bd a0 fe ff
	ff 04		 cmp	 DWORD PTR _Flag$[ebp], 4
  00421	75 4e		 jne	 SHORT $LN2@LoadingEve

; 130  : 		{
; 131  : 			int n[3];
; 132  : 			sscanf(Buff, "%d %d", &n[0], &n[1]);

  00423	8d 95 cc fe ff
	ff		 lea	 edx, DWORD PTR _n$204115[ebp+4]
  00429	52		 push	 edx
  0042a	8d 85 c8 fe ff
	ff		 lea	 eax, DWORD PTR _n$204115[ebp]
  00430	50		 push	 eax
  00431	8d 8d fc fe ff
	ff		 lea	 ecx, DWORD PTR _Buff$[ebp]
  00437	68 00 00 00 00	 push	 OFFSET ??_C@_05OKMLJOMC@?$CFd?5?$CFd?$AA@
  0043c	51		 push	 ecx
  0043d	e8 00 00 00 00	 call	 _sscanf

; 133  : 			this->Cord[2][this->CountCord[2]].X  = n[0];

  00442	8b 96 2c 2d 00
	00		 mov	 edx, DWORD PTR [esi+11564]
  00448	8b 85 c8 fe ff
	ff		 mov	 eax, DWORD PTR _n$204115[ebp]
  0044e	89 84 d6 dc 26
	00 00		 mov	 DWORD PTR [esi+edx*8+9948], eax

; 134  : 			this->Cord[2][this->CountCord[2]].Y   = n[1];

  00455	8b 8e 2c 2d 00
	00		 mov	 ecx, DWORD PTR [esi+11564]
  0045b	8b 95 cc fe ff
	ff		 mov	 edx, DWORD PTR _n$204115[ebp+4]
  00461	83 c4 10	 add	 esp, 16			; 00000010H
  00464	89 94 ce e0 26
	00 00		 mov	 DWORD PTR [esi+ecx*8+9952], edx

; 135  : 			this->CountCord[2]++;

  0046b	01 be 2c 2d 00
	00		 add	 DWORD PTR [esi+11564], edi
$LN2@LoadingEve:

; 136  : 		}
; 137  : 		//Devias
; 138  : 		if(Flag == 5)

  00471	83 bd a0 fe ff
	ff 05		 cmp	 DWORD PTR _Flag$[ebp], 5
  00478	75 4e		 jne	 SHORT $LN1@LoadingEve

; 139  : 		{
; 140  : 			int n[3];
; 141  : 			sscanf(Buff, "%d %d", &n[0], &n[1]);

  0047a	8d 85 c0 fe ff
	ff		 lea	 eax, DWORD PTR _n$204117[ebp+4]
  00480	50		 push	 eax
  00481	8d 8d bc fe ff
	ff		 lea	 ecx, DWORD PTR _n$204117[ebp]
  00487	51		 push	 ecx
  00488	8d 95 fc fe ff
	ff		 lea	 edx, DWORD PTR _Buff$[ebp]
  0048e	68 00 00 00 00	 push	 OFFSET ??_C@_05OKMLJOMC@?$CFd?5?$CFd?$AA@
  00493	52		 push	 edx
  00494	e8 00 00 00 00	 call	 _sscanf

; 142  : 			this->Cord[3][this->CountCord[3]].X  = n[0];

  00499	8b 86 30 2d 00
	00		 mov	 eax, DWORD PTR [esi+11568]
  0049f	8b 8d bc fe ff
	ff		 mov	 ecx, DWORD PTR _n$204117[ebp]
  004a5	89 8c c6 fc 29
	00 00		 mov	 DWORD PTR [esi+eax*8+10748], ecx

; 143  : 			this->Cord[3][this->CountCord[3]].Y   = n[1];

  004ac	8b 96 30 2d 00
	00		 mov	 edx, DWORD PTR [esi+11568]
  004b2	8b 85 c0 fe ff
	ff		 mov	 eax, DWORD PTR _n$204117[ebp+4]
  004b8	83 c4 10	 add	 esp, 16			; 00000010H
  004bb	89 84 d6 00 2a
	00 00		 mov	 DWORD PTR [esi+edx*8+10752], eax

; 144  : 			this->CountCord[3]++;

  004c2	01 be 30 2d 00
	00		 add	 DWORD PTR [esi+11568], edi
$LN1@LoadingEve:

; 76   : 		return;
; 77   : 	}
; 78   : 
; 79   : 	char Buff[256];
; 80   : 	int Flag = 0;
; 81   : 
; 82   : 	this->Count = 0;
; 83   : 	this->Count2 = 0;
; 84   : 
; 85   : 	this->CountCord[1] = 0;
; 86   : 	this->CountCord[2] = 0;
; 87   : 	this->CountCord[3] = 0;
; 88   : 
; 89   : 	while(!feof(file)) 

  004c8	53		 push	 ebx
  004c9	e8 00 00 00 00	 call	 _feof
  004ce	83 c4 04	 add	 esp, 4
  004d1	85 c0		 test	 eax, eax
  004d3	0f 84 57 fd ff
	ff		 je	 $LL8@LoadingEve
$LN7@LoadingEve:

; 145  : 		}
; 146  : 	}
; 147  : 	fclose(file);

  004d9	53		 push	 ebx
  004da	e8 00 00 00 00	 call	 _fclose

; 148  : }

  004df	8b 4d fc	 mov	 ecx, DWORD PTR __$ArrayPad$[ebp]
  004e2	83 c4 04	 add	 esp, 4
  004e5	5f		 pop	 edi
  004e6	5e		 pop	 esi
  004e7	33 cd		 xor	 ecx, ebp
  004e9	5b		 pop	 ebx
  004ea	e8 00 00 00 00	 call	 @__security_check_cookie@4
  004ef	8b e5		 mov	 esp, ebp
  004f1	5d		 pop	 ebp
  004f2	c3		 ret	 0
$LN45@LoadingEve:
?LoadingEvent@cSearchEvent@@QAEXXZ ENDP			; cSearchEvent::LoadingEvent
_TEXT	ENDS
EXTRN	__time64:PROC
; Function compile flags: /Ogtp
; File d:\program files (x86)\microsoft visual studio 10.0\vc\include\time.inl
;	COMDAT _time
_TEXT	SEGMENT
_time	PROC						; COMDAT
; __Time$ = eax

; 133  :     return _time64(_Time);

  00000	50		 push	 eax
  00001	e8 00 00 00 00	 call	 __time64
  00006	83 c4 04	 add	 esp, 4

; 134  : }

  00009	c3		 ret	 0
_time	ENDP
_TEXT	ENDS
PUBLIC	?SearchIndexNPC@cSearchEvent@@QAEXXZ		; cSearchEvent::SearchIndexNPC
; Function compile flags: /Ogtp
; File e:\work\tranet_version\gs\gameserver\searchevent.cpp
;	COMDAT ?SearchIndexNPC@cSearchEvent@@QAEXXZ
_TEXT	SEGMENT
?SearchIndexNPC@cSearchEvent@@QAEXXZ PROC		; cSearchEvent::SearchIndexNPC, COMDAT
; _this$ = ecx

; 152  : }

  00000	c3		 ret	 0
?SearchIndexNPC@cSearchEvent@@QAEXXZ ENDP		; cSearchEvent::SearchIndexNPC
_TEXT	ENDS
PUBLIC	?Present@cSearchEvent@@QAEXH@Z			; cSearchEvent::Present
EXTRN	?GDSaveUserInfo@GameShop@@QAEXH@Z:PROC		; GameShop::GDSaveUserInfo
EXTRN	?gGameShop@@3VGameShop@@A:BYTE			; gGameShop
EXTRN	?ItemSerialCreateSend@@YAXHEEEHEEEEEHEE@Z:PROC	; ItemSerialCreateSend
EXTRN	?GenExcOpt@@YAHH@Z:PROC				; GenExcOpt
EXTRN	_rand:PROC
EXTRN	?gObj@@3PAUOBJECTSTRUCT@@A:DWORD		; gObj
EXTRN	__fltused:DWORD
; Function compile flags: /Ogtp
;	COMDAT ?Present@cSearchEvent@@QAEXH@Z
_TEXT	SEGMENT
_lpObj$ = -12						; size = 4
_i$204222 = -8						; size = 4
_NewAnc$204228 = -4					; size = 4
tv345 = 8						; size = 4
tv336 = 8						; size = 4
tv327 = 8						; size = 4
tv315 = 8						; size = 4
_aIndex$ = 8						; size = 4
?Present@cSearchEvent@@QAEXH@Z PROC			; cSearchEvent::Present, COMDAT
; _this$ = ecx

; 438  : {

  00000	55		 push	 ebp
  00001	8b ec		 mov	 ebp, esp
  00003	83 ec 0c	 sub	 esp, 12			; 0000000cH

; 439  : 	//OBJECTSTRUCT *gObj = (OBJECTSTRUCT*)OBJECT_POINTER(aIndex);	
; 440  : 	LPOBJ lpObj = &gObj[aIndex];

  00006	8b 45 08	 mov	 eax, DWORD PTR _aIndex$[ebp]
  00009	69 c0 50 2b 00
	00		 imul	 eax, 11088		; 00002b50H
  0000f	03 05 00 00 00
	00		 add	 eax, DWORD PTR ?gObj@@3PAUOBJECTSTRUCT@@A ; gObj
  00015	57		 push	 edi
  00016	8b f9		 mov	 edi, ecx

; 441  : 	if(this->ItemCount > 0)

  00018	8b 4f 18	 mov	 ecx, DWORD PTR [edi+24]
  0001b	89 45 f4	 mov	 DWORD PTR _lpObj$[ebp], eax
  0001e	85 c9		 test	 ecx, ecx
  00020	0f 8e c3 00 00
	00		 jle	 $LN10@Present

; 442  : 	{
; 443  : 		for(int i=0;i<this->ItemCount;i++)

  00026	53		 push	 ebx
  00027	c7 45 f8 00 00
	00 00		 mov	 DWORD PTR _i$204222[ebp], 0
  0002e	56		 push	 esi
  0002f	90		 npad	 1
$LL18@Present:

; 444  : 		{
; 445  : 			int Ran = rand()%Count2;

  00030	e8 00 00 00 00	 call	 _rand
  00035	99		 cdq
  00036	f7 bf 20 2d 00
	00		 idiv	 DWORD PTR [edi+11552]

; 446  : 
; 447  : 			int NewExl = 0;

  0003c	33 c0		 xor	 eax, eax

; 448  : 			int NewAnc = 0;

  0003e	89 45 fc	 mov	 DWORD PTR _NewAnc$204228[ebp], eax

; 449  : 
; 450  : 			int DropItem = ITEMGET(this->Item[Ran].Type,this->Item[Ran].Index);

  00041	8b f2		 mov	 esi, edx
  00043	83 c2 06	 add	 edx, 6
  00046	c1 e2 05	 shl	 edx, 5
  00049	8b 1c 3a	 mov	 ebx, DWORD PTR [edx+edi]
  0004c	c1 e6 05	 shl	 esi, 5
  0004f	03 f7		 add	 esi, edi
  00051	c1 e3 09	 shl	 ebx, 9
  00054	03 9e bc 00 00
	00		 add	 ebx, DWORD PTR [esi+188]

; 451  : 
; 452  : 			if(Item[Ran].Exl > 0)

  0005a	39 86 d4 00 00
	00		 cmp	 DWORD PTR [esi+212], eax
  00060	7e 0f		 jle	 SHORT $LN9@Present

; 453  : 				NewExl = GenExcOpt(Item[Ran].Exl);

  00062	8b 96 d4 00 00
	00		 mov	 edx, DWORD PTR [esi+212]
  00068	52		 push	 edx
  00069	e8 00 00 00 00	 call	 ?GenExcOpt@@YAHH@Z	; GenExcOpt
  0006e	83 c4 04	 add	 esp, 4
$LN9@Present:

; 454  : 
; 455  : 			if(Item[Ran].Anc == 5 || Item[Ran].Anc == 10)

  00071	8b 8e d8 00 00
	00		 mov	 ecx, DWORD PTR [esi+216]
  00077	83 f9 05	 cmp	 ecx, 5
  0007a	74 05		 je	 SHORT $LN7@Present
  0007c	83 f9 0a	 cmp	 ecx, 10			; 0000000aH
  0007f	75 03		 jne	 SHORT $LN8@Present
$LN7@Present:

; 456  : 				NewAnc = Item[Ran].Anc;

  00081	89 4d fc	 mov	 DWORD PTR _NewAnc$204228[ebp], ecx
$LN8@Present:

; 457  : 
; 458  : 			ItemSerialCreateSend(aIndex,lpObj->MapNumber,lpObj->X,lpObj->Y,DropItem,this->Item[Ran].Level,0,
; 459  : 				this->Item[Ran].Skill,this->Item[Ran].Luck,this->Item[Ran].Opt,aIndex,NewExl,NewAnc);

  00084	8b 4d fc	 mov	 ecx, DWORD PTR _NewAnc$204228[ebp]
  00087	0f b6 96 d0 00
	00 00		 movzx	 edx, BYTE PTR [esi+208]
  0008e	51		 push	 ecx
  0008f	8b 4d 08	 mov	 ecx, DWORD PTR _aIndex$[ebp]
  00092	50		 push	 eax
  00093	0f b6 86 cc 00
	00 00		 movzx	 eax, BYTE PTR [esi+204]
  0009a	51		 push	 ecx
  0009b	52		 push	 edx
  0009c	0f b6 96 c8 00
	00 00		 movzx	 edx, BYTE PTR [esi+200]
  000a3	50		 push	 eax
  000a4	0f b6 86 c4 00
	00 00		 movzx	 eax, BYTE PTR [esi+196]
  000ab	52		 push	 edx
  000ac	6a 00		 push	 0
  000ae	50		 push	 eax
  000af	8b 45 f4	 mov	 eax, DWORD PTR _lpObj$[ebp]
  000b2	0f b6 90 46 01
	00 00		 movzx	 edx, BYTE PTR [eax+326]
  000b9	53		 push	 ebx
  000ba	52		 push	 edx
  000bb	0f b6 90 44 01
	00 00		 movzx	 edx, BYTE PTR [eax+324]
  000c2	0f b6 80 49 01
	00 00		 movzx	 eax, BYTE PTR [eax+329]
  000c9	52		 push	 edx
  000ca	50		 push	 eax
  000cb	51		 push	 ecx
  000cc	e8 00 00 00 00	 call	 ?ItemSerialCreateSend@@YAXHEEEHEEEEEHEE@Z ; ItemSerialCreateSend
  000d1	8b 45 f8	 mov	 eax, DWORD PTR _i$204222[ebp]
  000d4	40		 inc	 eax
  000d5	83 c4 34	 add	 esp, 52			; 00000034H
  000d8	89 45 f8	 mov	 DWORD PTR _i$204222[ebp], eax
  000db	3b 47 18	 cmp	 eax, DWORD PTR [edi+24]
  000de	0f 8c 4c ff ff
	ff		 jl	 $LL18@Present

; 442  : 	{
; 443  : 		for(int i=0;i<this->ItemCount;i++)

  000e4	8b 45 f4	 mov	 eax, DWORD PTR _lpObj$[ebp]
  000e7	5e		 pop	 esi
  000e8	5b		 pop	 ebx
$LN10@Present:

; 460  : 		}
; 461  : 	}
; 462  : 
; 463  : 	if(this->BonusCredits > 0)

  000e9	8b 4f 28	 mov	 ecx, DWORD PTR [edi+40]
  000ec	89 4d 08	 mov	 DWORD PTR tv315[ebp], ecx
  000ef	85 c9		 test	 ecx, ecx
  000f1	7e 0f		 jle	 SHORT $LN6@Present

; 464  : 	{
; 465  : 		lpObj->ZtCred += this->BonusCredits;

  000f3	db 45 08	 fild	 DWORD PTR tv315[ebp]
  000f6	d8 80 a8 22 00
	00		 fadd	 DWORD PTR [eax+8872]
  000fc	d9 98 a8 22 00
	00		 fstp	 DWORD PTR [eax+8872]
$LN6@Present:

; 466  : 	}
; 467  : 
; 468  : 	if(this->BonusWcoinC > 0)

  00102	8b 4f 2c	 mov	 ecx, DWORD PTR [edi+44]
  00105	89 4d 08	 mov	 DWORD PTR tv327[ebp], ecx
  00108	85 c9		 test	 ecx, ecx
  0010a	7e 0f		 jle	 SHORT $LN5@Present

; 469  : 	{
; 470  : 		lpObj->GameShop.WCoinC += this->BonusWcoinC;

  0010c	db 45 08	 fild	 DWORD PTR tv327[ebp]
  0010f	dc 80 00 23 00
	00		 fadd	 QWORD PTR [eax+8960]
  00115	dd 98 00 23 00
	00		 fstp	 QWORD PTR [eax+8960]
$LN5@Present:

; 471  : 	}
; 472  : 	if(this->BonusWcoinP > 0)

  0011b	8b 4f 30	 mov	 ecx, DWORD PTR [edi+48]
  0011e	89 4d 08	 mov	 DWORD PTR tv336[ebp], ecx
  00121	85 c9		 test	 ecx, ecx
  00123	7e 0f		 jle	 SHORT $LN4@Present

; 473  : 	{
; 474  : 		lpObj->GameShop.WCoinP += this->BonusWcoinP;

  00125	db 45 08	 fild	 DWORD PTR tv336[ebp]
  00128	dc 80 f8 22 00
	00		 fadd	 QWORD PTR [eax+8952]
  0012e	dd 98 f8 22 00
	00		 fstp	 QWORD PTR [eax+8952]
$LN4@Present:

; 475  : 	}
; 476  : 	if(this->BonusGoblinPoints > 0)

  00134	8b 4f 34	 mov	 ecx, DWORD PTR [edi+52]
  00137	89 4d 08	 mov	 DWORD PTR tv345[ebp], ecx
  0013a	85 c9		 test	 ecx, ecx
  0013c	7e 0f		 jle	 SHORT $LN3@Present

; 477  : 	{
; 478  : 		lpObj->GameShop.GoblinPoint += this->BonusGoblinPoints;

  0013e	db 45 08	 fild	 DWORD PTR tv345[ebp]
  00141	dc 80 08 23 00
	00		 fadd	 QWORD PTR [eax+8968]
  00147	dd 98 08 23 00
	00		 fstp	 QWORD PTR [eax+8968]
$LN3@Present:

; 479  : 	}
; 480  : 
; 481  : 	if(this->BonusWcoinC > 0 || this->BonusWcoinP > 0 || this->BonusGoblinPoints > 0)

  0014d	83 7f 2c 00	 cmp	 DWORD PTR [edi+44], 0
  00151	7f 0c		 jg	 SHORT $LN1@Present
  00153	83 7f 30 00	 cmp	 DWORD PTR [edi+48], 0
  00157	7f 06		 jg	 SHORT $LN1@Present
  00159	83 7f 34 00	 cmp	 DWORD PTR [edi+52], 0
  0015d	7e 0d		 jle	 SHORT $LN2@Present
$LN1@Present:

; 482  : 	{
; 483  : 		gGameShop.GDSaveUserInfo(lpObj->m_Index);

  0015f	8b 08		 mov	 ecx, DWORD PTR [eax]
  00161	51		 push	 ecx
  00162	b9 00 00 00 00	 mov	 ecx, OFFSET ?gGameShop@@3VGameShop@@A ; gGameShop
  00167	e8 00 00 00 00	 call	 ?GDSaveUserInfo@GameShop@@QAEXH@Z ; GameShop::GDSaveUserInfo
$LN2@Present:
  0016c	5f		 pop	 edi

; 484  : 	}
; 485  : }

  0016d	8b e5		 mov	 esp, ebp
  0016f	5d		 pop	 ebp
  00170	c2 04 00	 ret	 4
?Present@cSearchEvent@@QAEXH@Z ENDP			; cSearchEvent::Present
_TEXT	ENDS
PUBLIC	?EventEnd@cSearchEvent@@QAEXXZ			; cSearchEvent::EventEnd
EXTRN	?MessaageAllGlobal@@YAXPADZZ:PROC		; MessaageAllGlobal
EXTRN	?GetText@CZtText@@QAEPADH@Z:PROC		; CZtText::GetText
EXTRN	?g_ZtText@@3VCZtText@@A:BYTE			; g_ZtText
EXTRN	?gObjDel@@YAFH@Z:PROC				; gObjDel
; Function compile flags: /Ogtp
;	COMDAT ?EventEnd@cSearchEvent@@QAEXXZ
_TEXT	SEGMENT
?EventEnd@cSearchEvent@@QAEXXZ PROC			; cSearchEvent::EventEnd, COMDAT
; _this$ = ecx

; 489  : 	this->Start = false;

  00000	33 c0		 xor	 eax, eax
  00002	56		 push	 esi
  00003	8b f1		 mov	 esi, ecx
  00005	88 46 1c	 mov	 BYTE PTR [esi+28], al

; 490  : 	this->Tick = 0;

  00008	89 46 20	 mov	 DWORD PTR [esi+32], eax

; 491  : 	//OBJECTSTRUCT *gObjNPC = (OBJECTSTRUCT*) OBJECT_POINTER (this->IndexNPC);
; 492  : 	//gObjNPC->MapNumber = DEF_MAP;
; 493  : 	//gObjNPC->X = DEF_X;
; 494  : 	//gObjNPC->Y = DEF_Y;
; 495  : 
; 496  : 	gObjDel(this->IndexNPC);

  0000b	8b 46 04	 mov	 eax, DWORD PTR [esi+4]
  0000e	50		 push	 eax
  0000f	e8 00 00 00 00	 call	 ?gObjDel@@YAFH@Z	; gObjDel
  00014	83 c4 04	 add	 esp, 4

; 497  : 	this->IndexNPC = -1;
; 498  : 
; 499  : 	MessaageAllGlobal(g_ZtText.GetText(98));

  00017	6a 62		 push	 98			; 00000062H
  00019	b9 00 00 00 00	 mov	 ecx, OFFSET ?g_ZtText@@3VCZtText@@A ; g_ZtText
  0001e	c7 46 04 ff ff
	ff ff		 mov	 DWORD PTR [esi+4], -1
  00025	e8 00 00 00 00	 call	 ?GetText@CZtText@@QAEPADH@Z ; CZtText::GetText
  0002a	50		 push	 eax
  0002b	e8 00 00 00 00	 call	 ?MessaageAllGlobal@@YAXPADZZ ; MessaageAllGlobal
  00030	83 c4 04	 add	 esp, 4
  00033	5e		 pop	 esi

; 500  : }

  00034	c3		 ret	 0
?EventEnd@cSearchEvent@@QAEXXZ ENDP			; cSearchEvent::EventEnd
_TEXT	ENDS
PUBLIC	?NPCClick@cSearchEvent@@QAEXHH@Z		; cSearchEvent::NPCClick
; Function compile flags: /Ogtp
;	COMDAT ?NPCClick@cSearchEvent@@QAEXHH@Z
_TEXT	SEGMENT
_aIndex$ = 8						; size = 4
_aNPC$ = 12						; size = 4
?NPCClick@cSearchEvent@@QAEXHH@Z PROC			; cSearchEvent::NPCClick, COMDAT
; _this$ = ecx

; 155  : {

  00000	55		 push	 ebp
  00001	8b ec		 mov	 ebp, esp
  00003	56		 push	 esi
  00004	8b f1		 mov	 esi, ecx

; 156  : 	if(!this->Enable)

  00006	83 3e 00	 cmp	 DWORD PTR [esi], 0
  00009	0f 84 82 01 00
	00		 je	 $LN1@NPCClick

; 157  : 		return;
; 158  : 	if(this->Start == false)

  0000f	80 7e 1c 00	 cmp	 BYTE PTR [esi+28], 0
  00013	0f 84 78 01 00
	00		 je	 $LN1@NPCClick

; 159  : 		return;
; 160  : 	LPOBJ lpObj = &gObj[aIndex];

  00019	8b 4d 08	 mov	 ecx, DWORD PTR _aIndex$[ebp]
  0001c	a1 00 00 00 00	 mov	 eax, DWORD PTR ?gObj@@3PAUOBJECTSTRUCT@@A ; gObj
  00021	53		 push	 ebx
  00022	57		 push	 edi

; 161  : 
; 162  : 	LPOBJ NpcObj = &gObj[aNPC];

  00023	8b 7d 0c	 mov	 edi, DWORD PTR _aNPC$[ebp]
  00026	8b d9		 mov	 ebx, ecx
  00028	69 ff 50 2b 00
	00		 imul	 edi, 11088		; 00002b50H
  0002e	69 db 50 2b 00
	00		 imul	 ebx, 11088		; 00002b50H
  00034	03 f8		 add	 edi, eax
  00036	03 d8		 add	 ebx, eax

; 163  : 
; 164  : 	if(NpcObj->Class == this->NPC && this->IndexNPC == NpcObj->m_Index)

  00038	0f b7 87 b8 00
	00 00		 movzx	 eax, WORD PTR [edi+184]
  0003f	3b 46 08	 cmp	 eax, DWORD PTR [esi+8]
  00042	0f 85 47 01 00
	00		 jne	 $LN21@NPCClick
  00048	8b 56 04	 mov	 edx, DWORD PTR [esi+4]
  0004b	3b 17		 cmp	 edx, DWORD PTR [edi]
  0004d	0f 85 3c 01 00
	00		 jne	 $LN21@NPCClick

; 165  : 	{
; 166  : 
; 167  : 		if(this->Stage == 1)

  00053	8b 46 24	 mov	 eax, DWORD PTR [esi+36]
  00056	83 f8 01	 cmp	 eax, 1
  00059	75 09		 jne	 SHORT $LN15@NPCClick

; 168  : 		{
; 169  : 			if(lpObj->MapNumber != 0)

  0005b	80 bb 49 01 00
	00 00		 cmp	 BYTE PTR [ebx+329], 0

; 170  : 				return;
; 171  : 		}

  00062	eb 1a		 jmp	 SHORT $LN23@NPCClick
$LN15@NPCClick:

; 172  : 		else if(this->Stage == 2)

  00064	83 f8 02	 cmp	 eax, 2
  00067	75 09		 jne	 SHORT $LN12@NPCClick

; 173  : 		{
; 174  : 			if(lpObj->MapNumber != 3)

  00069	80 bb 49 01 00
	00 03		 cmp	 BYTE PTR [ebx+329], 3

; 175  : 				return;
; 176  : 		}

  00070	eb 0c		 jmp	 SHORT $LN23@NPCClick
$LN12@NPCClick:

; 177  : 		else if(this->Stage == 3)

  00072	83 f8 03	 cmp	 eax, 3
  00075	75 0d		 jne	 SHORT $LN8@NPCClick

; 178  : 		{
; 179  : 			if(lpObj->MapNumber != 2)

  00077	80 bb 49 01 00
	00 02		 cmp	 BYTE PTR [ebx+329], 2
$LN23@NPCClick:
  0007e	0f 85 0b 01 00
	00		 jne	 $LN21@NPCClick
$LN8@NPCClick:

; 180  : 				return;
; 181  : 		}
; 182  : 
; 183  : 		this->Present(aIndex);

  00084	51		 push	 ecx
  00085	8b ce		 mov	 ecx, esi
  00087	e8 00 00 00 00	 call	 ?Present@cSearchEvent@@QAEXH@Z ; cSearchEvent::Present

; 184  : 
; 185  : 		if(this->Stage == 1)

  0008c	8b 46 24	 mov	 eax, DWORD PTR [esi+36]
  0008f	83 f8 01	 cmp	 eax, 1
  00092	75 59		 jne	 SHORT $LN7@NPCClick

; 186  : 		{
; 187  : 
; 188  : 			MessaageAllGlobal(g_ZtText.GetText(92), lpObj->Name);

  00094	83 c3 77	 add	 ebx, 119		; 00000077H
  00097	53		 push	 ebx
  00098	6a 5c		 push	 92			; 0000005cH
  0009a	b9 00 00 00 00	 mov	 ecx, OFFSET ?g_ZtText@@3VCZtText@@A ; g_ZtText
  0009f	e8 00 00 00 00	 call	 ?GetText@CZtText@@QAEPADH@Z ; CZtText::GetText
  000a4	50		 push	 eax
  000a5	e8 00 00 00 00	 call	 ?MessaageAllGlobal@@YAXPADZZ ; MessaageAllGlobal
  000aa	83 c4 08	 add	 esp, 8

; 189  : 
; 190  : 			if(CountCord[2] == 0)

  000ad	83 be 2c 2d 00
	00 00		 cmp	 DWORD PTR [esi+11564], 0

; 191  : 			{
; 192  : 				this->EventEnd();
; 193  : 				this->Stage = 0;
; 194  : 				return;

  000b4	0f 84 c7 00 00
	00		 je	 $LN24@NPCClick

; 195  : 			}
; 196  : 
; 197  : 			//To Noria
; 198  : 			int Num = rand()%CountCord[2];

  000ba	e8 00 00 00 00	 call	 _rand
  000bf	99		 cdq
  000c0	f7 be 2c 2d 00
	00		 idiv	 DWORD PTR [esi+11564]

; 199  : 			int X = Cord[2][Num].X;
; 200  : 			int Y = Cord[2][Num].Y;
; 201  : 
; 202  : 			NpcObj->MapNumber = 3;	//noria
; 203  : 			NpcObj->X = X;
; 204  : 			NpcObj->Y = Y;
; 205  : 
; 206  : 			MessaageAllGlobal(g_ZtText.GetText(93));

  000c6	6a 5d		 push	 93			; 0000005dH
  000c8	8b 84 d6 dc 26
	00 00		 mov	 eax, DWORD PTR [esi+edx*8+9948]
  000cf	8b 94 d6 e0 26
	00 00		 mov	 edx, DWORD PTR [esi+edx*8+9952]
  000d6	c6 87 49 01 00
	00 03		 mov	 BYTE PTR [edi+329], 3
  000dd	66 89 87 44 01
	00 00		 mov	 WORD PTR [edi+324], ax
  000e4	66 89 97 46 01
	00 00		 mov	 WORD PTR [edi+326], dx

; 207  : 
; 208  : 			this->Stage++;

  000eb	eb 59		 jmp	 SHORT $LN25@NPCClick
$LN7@NPCClick:

; 209  : 		}
; 210  : 		else if(this->Stage == 2)

  000ed	83 f8 02	 cmp	 eax, 2
  000f0	75 71		 jne	 SHORT $LN4@NPCClick

; 211  : 		{
; 212  : 
; 213  : 			MessaageAllGlobal(g_ZtText.GetText(94),lpObj->Name);

  000f2	83 c3 77	 add	 ebx, 119		; 00000077H
  000f5	53		 push	 ebx
  000f6	6a 5e		 push	 94			; 0000005eH
  000f8	b9 00 00 00 00	 mov	 ecx, OFFSET ?g_ZtText@@3VCZtText@@A ; g_ZtText
  000fd	e8 00 00 00 00	 call	 ?GetText@CZtText@@QAEPADH@Z ; CZtText::GetText
  00102	50		 push	 eax
  00103	e8 00 00 00 00	 call	 ?MessaageAllGlobal@@YAXPADZZ ; MessaageAllGlobal
  00108	83 c4 08	 add	 esp, 8

; 214  : 
; 215  : 			if(CountCord[3] == 0)

  0010b	83 be 30 2d 00
	00 00		 cmp	 DWORD PTR [esi+11568], 0

; 216  : 			{
; 217  : 				this->EventEnd();
; 218  : 				this->Stage = 0;
; 219  : 				return;

  00112	74 6d		 je	 SHORT $LN24@NPCClick

; 220  : 			}
; 221  : 
; 222  : 			//To Devias
; 223  : 			int Num = rand()%CountCord[3];

  00114	e8 00 00 00 00	 call	 _rand
  00119	99		 cdq
  0011a	f7 be 30 2d 00
	00		 idiv	 DWORD PTR [esi+11568]

; 224  : 
; 225  : 			NpcObj->MapNumber = 2;	//Devias

  00120	c6 87 49 01 00
	00 02		 mov	 BYTE PTR [edi+329], 2

; 226  : 			int X = Cord[3][Num].X;
; 227  : 			int Y = Cord[3][Num].Y;
; 228  : 
; 229  : 			NpcObj->X = X;
; 230  : 			NpcObj->Y = Y;
; 231  : #ifdef PRIVATE_MODULE
; 232  : 			/*if(g_ZtLicense.CheckUser(Encode))
; 233  : 			{
; 234  : 				MessaageAllGlobal("[Evangelion] In Elysea!");
; 235  : 			}
; 236  : 			else if(g_ZtLicense.CheckUser(eZtUB::MU2Play))
; 237  : 			{
; 238  : 				MessaageAllGlobal("[Evangelion] In Arkania!");
; 239  : 			}
; 240  : 			else*/
; 241  : 			{
; 242  : 				MessaageAllGlobal(g_ZtText.GetText(95));

  00127	6a 5f		 push	 95			; 0000005fH
  00129	8b 84 d6 00 2a
	00 00		 mov	 eax, DWORD PTR [esi+edx*8+10752]
  00130	66 8b 8c d6 fc
	29 00 00	 mov	 cx, WORD PTR [esi+edx*8+10748]
  00138	66 89 8f 44 01
	00 00		 mov	 WORD PTR [edi+324], cx
  0013f	66 89 87 46 01
	00 00		 mov	 WORD PTR [edi+326], ax
$LN25@NPCClick:
  00146	b9 00 00 00 00	 mov	 ecx, OFFSET ?g_ZtText@@3VCZtText@@A ; g_ZtText
  0014b	e8 00 00 00 00	 call	 ?GetText@CZtText@@QAEPADH@Z ; CZtText::GetText
  00150	50		 push	 eax
  00151	e8 00 00 00 00	 call	 ?MessaageAllGlobal@@YAXPADZZ ; MessaageAllGlobal
  00156	83 c4 04	 add	 esp, 4

; 243  : 			}
; 244  : #else
; 245  : 			MessaageAllGlobal("[Evangelion] In Devias!");
; 246  : #endif
; 247  : 			this->Stage++;

  00159	ff 46 24	 inc	 DWORD PTR [esi+36]
  0015c	5f		 pop	 edi
  0015d	5b		 pop	 ebx
  0015e	5e		 pop	 esi

; 270  : 		}
; 271  : 	}
; 272  : }

  0015f	5d		 pop	 ebp
  00160	c2 08 00	 ret	 8
$LN4@NPCClick:

; 248  : 		}
; 249  : 		else if(this->Stage == 3)

  00163	83 f8 03	 cmp	 eax, 3
  00166	75 27		 jne	 SHORT $LN21@NPCClick

; 250  : 		{
; 251  : #ifdef PRIVATE_MODULE
; 252  : 			/*if(g_ZtLicense.CheckUser(Encode))
; 253  : 			{
; 254  : 				MessaageAllGlobal("[Evangelion] Elysea Win %s!",lpObj->Name);
; 255  : 			}
; 256  : 			else if(g_ZtLicense.CheckUser(Encode))
; 257  : 			{
; 258  : 				MessaageAllGlobal("[Evangelion] Arkania Win %s!",lpObj->Name);
; 259  : 			}
; 260  : 			else*/
; 261  : 			{
; 262  : 				MessaageAllGlobal(g_ZtText.GetText(96), lpObj->Name);

  00168	83 c3 77	 add	 ebx, 119		; 00000077H
  0016b	53		 push	 ebx
  0016c	6a 60		 push	 96			; 00000060H
  0016e	b9 00 00 00 00	 mov	 ecx, OFFSET ?g_ZtText@@3VCZtText@@A ; g_ZtText
  00173	e8 00 00 00 00	 call	 ?GetText@CZtText@@QAEPADH@Z ; CZtText::GetText
  00178	50		 push	 eax
  00179	e8 00 00 00 00	 call	 ?MessaageAllGlobal@@YAXPADZZ ; MessaageAllGlobal
  0017e	83 c4 08	 add	 esp, 8
$LN24@NPCClick:

; 263  : 			}
; 264  : #else
; 265  : 			MessaageAllGlobal("[Evangelion] Devias Win %s!",lpObj->Name);
; 266  : #endif
; 267  : 			//To End
; 268  : 			this->EventEnd();

  00181	8b ce		 mov	 ecx, esi
  00183	e8 00 00 00 00	 call	 ?EventEnd@cSearchEvent@@QAEXXZ ; cSearchEvent::EventEnd

; 269  : 			this->Stage = 0;

  00188	c7 46 24 00 00
	00 00		 mov	 DWORD PTR [esi+36], 0
$LN21@NPCClick:
  0018f	5f		 pop	 edi
  00190	5b		 pop	 ebx
$LN1@NPCClick:
  00191	5e		 pop	 esi

; 270  : 		}
; 271  : 	}
; 272  : }

  00192	5d		 pop	 ebp
  00193	c2 08 00	 ret	 8
?NPCClick@cSearchEvent@@QAEXHH@Z ENDP			; cSearchEvent::NPCClick
_TEXT	ENDS
PUBLIC	?EventStart@cSearchEvent@@QAEXXZ		; cSearchEvent::EventStart
EXTRN	?gObjSetMonster@@YAHHH@Z:PROC			; gObjSetMonster
EXTRN	__imp__GetTickCount@0:PROC
EXTRN	?gObjAddMonster@@YAFH@Z:PROC			; gObjAddMonster
EXTRN	_srand:PROC
; Function compile flags: /Ogtp
;	COMDAT ?EventStart@cSearchEvent@@QAEXXZ
_TEXT	SEGMENT
_result$ = -8						; size = 4
_Y$ = -4						; size = 4
?EventStart@cSearchEvent@@QAEXXZ PROC			; cSearchEvent::EventStart, COMDAT
; _this$ = ecx

; 275  : {

  00000	55		 push	 ebp
  00001	8b ec		 mov	 ebp, esp
  00003	83 ec 08	 sub	 esp, 8
  00006	57		 push	 edi

; 276  : 	srand(time(NULL));

  00007	6a 00		 push	 0
  00009	8b f9		 mov	 edi, ecx
  0000b	e8 00 00 00 00	 call	 __time64
  00010	50		 push	 eax
  00011	e8 00 00 00 00	 call	 _srand
  00016	83 c4 08	 add	 esp, 8

; 277  : 
; 278  : 	if(CountCord[1] == 0)

  00019	83 bf 28 2d 00
	00 00		 cmp	 DWORD PTR [edi+11560], 0
  00020	75 13		 jne	 SHORT $LN2@EventStart

; 279  : 	{
; 280  : 		this->EventEnd();

  00022	8b cf		 mov	 ecx, edi
  00024	e8 00 00 00 00	 call	 ?EventEnd@cSearchEvent@@QAEXXZ ; cSearchEvent::EventEnd

; 281  : 		this->Stage = 0;

  00029	c7 47 24 00 00
	00 00		 mov	 DWORD PTR [edi+36], 0
  00030	5f		 pop	 edi

; 318  : }

  00031	8b e5		 mov	 esp, ebp
  00033	5d		 pop	 ebp
  00034	c3		 ret	 0
$LN2@EventStart:
  00035	53		 push	 ebx
  00036	56		 push	 esi

; 282  : 		return;
; 283  : 	}
; 284  : 
; 285  : 	int Num = rand()%CountCord[1];

  00037	e8 00 00 00 00	 call	 _rand
  0003c	99		 cdq
  0003d	f7 bf 28 2d 00
	00		 idiv	 DWORD PTR [edi+11560]

; 286  : 	int X = Cord[1][Num].X;
; 287  : 	int Y = Cord[1][Num].Y;
; 288  : 
; 289  : 	int result = gObjAddMonster(this->Map);

  00043	8b 4f 0c	 mov	 ecx, DWORD PTR [edi+12]
  00046	51		 push	 ecx
  00047	8b 84 d7 c0 23
	00 00		 mov	 eax, DWORD PTR [edi+edx*8+9152]
  0004e	8b 9c d7 bc 23
	00 00		 mov	 ebx, DWORD PTR [edi+edx*8+9148]
  00055	89 45 fc	 mov	 DWORD PTR _Y$[ebp], eax
  00058	e8 00 00 00 00	 call	 ?gObjAddMonster@@YAFH@Z	; gObjAddMonster
  0005d	0f bf f0	 movsx	 esi, ax
  00060	83 c4 04	 add	 esp, 4
  00063	89 75 f8	 mov	 DWORD PTR _result$[ebp], esi

; 290  : 
; 291  : 	if(result >= 0 && result < OBJ_MAXMONSTER)

  00066	81 fe c7 32 00
	00		 cmp	 esi, 12999		; 000032c7H
  0006c	0f 87 15 01 00
	00		 ja	 $LN1@EventStart

; 292  : 	{
; 293  : 		gObj[result].m_PosNum = (WORD)-1;

  00072	a1 00 00 00 00	 mov	 eax, DWORD PTR ?gObj@@3PAUOBJECTSTRUCT@@A ; gObj
  00077	69 f6 50 2b 00
	00		 imul	 esi, 11088		; 00002b50H
  0007d	83 ca ff	 or	 edx, -1
  00080	66 89 94 06 b0
	03 00 00	 mov	 WORD PTR [esi+eax+944], dx

; 294  : 		gObj[result].MapNumber = this->Map;

  00088	8a 4f 0c	 mov	 cl, BYTE PTR [edi+12]
  0008b	8b 15 00 00 00
	00		 mov	 edx, DWORD PTR ?gObj@@3PAUOBJECTSTRUCT@@A ; gObj
  00091	88 8c 16 49 01
	00 00		 mov	 BYTE PTR [esi+edx+329], cl

; 295  : 		gObj[result].X = X;

  00098	a1 00 00 00 00	 mov	 eax, DWORD PTR ?gObj@@3PAUOBJECTSTRUCT@@A ; gObj
  0009d	66 89 9c 06 44
	01 00 00	 mov	 WORD PTR [esi+eax+324], bx

; 296  : 		gObj[result].Y = Y;

  000a5	8b 0d 00 00 00
	00		 mov	 ecx, DWORD PTR ?gObj@@3PAUOBJECTSTRUCT@@A ; gObj
  000ab	8b 45 fc	 mov	 eax, DWORD PTR _Y$[ebp]
  000ae	66 89 84 0e 46
	01 00 00	 mov	 WORD PTR [esi+ecx+326], ax

; 297  : 		gObj[result].TX = X;

  000b6	8b 15 00 00 00
	00		 mov	 edx, DWORD PTR ?gObj@@3PAUOBJECTSTRUCT@@A ; gObj
  000bc	66 89 9c 16 7c
	01 00 00	 mov	 WORD PTR [esi+edx+380], bx

; 298  : 		gObj[result].TY = Y;

  000c4	8b 0d 00 00 00
	00		 mov	 ecx, DWORD PTR ?gObj@@3PAUOBJECTSTRUCT@@A ; gObj
  000ca	66 89 84 0e 7e
	01 00 00	 mov	 WORD PTR [esi+ecx+382], ax

; 299  : 		gObj[result].m_OldX = X;

  000d2	8b 15 00 00 00
	00		 mov	 edx, DWORD PTR ?gObj@@3PAUOBJECTSTRUCT@@A ; gObj
  000d8	66 89 9c 16 78
	01 00 00	 mov	 WORD PTR [esi+edx+376], bx

; 300  : 		gObj[result].m_OldY = Y;

  000e0	8b 0d 00 00 00
	00		 mov	 ecx, DWORD PTR ?gObj@@3PAUOBJECTSTRUCT@@A ; gObj
  000e6	66 89 84 0e 7a
	01 00 00	 mov	 WORD PTR [esi+ecx+378], ax

; 301  : 		gObj[result].StartX = X;

  000ee	8b 15 00 00 00
	00		 mov	 edx, DWORD PTR ?gObj@@3PAUOBJECTSTRUCT@@A ; gObj
  000f4	88 9c 16 76 01
	00 00		 mov	 BYTE PTR [esi+edx+374], bl

; 302  : 		gObj[result].StartY = Y;

  000fb	8b 0d 00 00 00
	00		 mov	 ecx, DWORD PTR ?gObj@@3PAUOBJECTSTRUCT@@A ; gObj
  00101	88 84 0e 77 01
	00 00		 mov	 BYTE PTR [esi+ecx+375], al

; 303  : 		gObj[result].MaxRegenTime = 0;

  00108	8b 15 00 00 00
	00		 mov	 edx, DWORD PTR ?gObj@@3PAUOBJECTSTRUCT@@A ; gObj
  0010e	c7 84 16 ac 03
	00 00 00 00 00
	00		 mov	 DWORD PTR [esi+edx+940], 0

; 304  : 		gObj[result].Dir = rand()%8;

  00119	e8 00 00 00 00	 call	 _rand
  0011e	25 07 00 00 80	 and	 eax, -2147483641	; 80000007H
  00123	79 05		 jns	 SHORT $LN7@EventStart
  00125	48		 dec	 eax
  00126	83 c8 f8	 or	 eax, -8			; fffffff8H
  00129	40		 inc	 eax
$LN7@EventStart:
  0012a	8b 0d 00 00 00
	00		 mov	 ecx, DWORD PTR ?gObj@@3PAUOBJECTSTRUCT@@A ; gObj
  00130	88 84 0e 48 01
	00 00		 mov	 BYTE PTR [esi+ecx+328], al

; 305  : 		gObj[result].RegenTime = GetTickCount();

  00137	ff 15 00 00 00
	00		 call	 DWORD PTR __imp__GetTickCount@0
  0013d	8b 15 00 00 00
	00		 mov	 edx, DWORD PTR ?gObj@@3PAUOBJECTSTRUCT@@A ; gObj
  00143	89 84 16 a8 03
	00 00		 mov	 DWORD PTR [esi+edx+936], eax

; 306  : 
; 307  : 		gObj[result].m_ActState.Emotion       = 1;

  0014a	a1 00 00 00 00	 mov	 eax, DWORD PTR ?gObj@@3PAUOBJECTSTRUCT@@A ; gObj
  0014f	8b 8c 06 18 02
	00 00		 mov	 ecx, DWORD PTR [esi+eax+536]
  00156	81 e1 1f ff ff
	ff		 and	 ecx, -225		; ffffff1fH
  0015c	83 c9 10	 or	 ecx, 16			; 00000010H
  0015f	89 8c 06 18 02
	00 00		 mov	 DWORD PTR [esi+eax+536], ecx

; 308  : 		gObj[result].m_ActState.EmotionCount  = 15;

  00166	8b 15 00 00 00
	00		 mov	 edx, DWORD PTR ?gObj@@3PAUOBJECTSTRUCT@@A ; gObj
  0016c	c6 84 16 19 02
	00 00 0f	 mov	 BYTE PTR [esi+edx+537], 15 ; 0000000fH

; 309  : 
; 310  : 		gObjSetMonster(result,this->NPC);

  00174	8b 47 08	 mov	 eax, DWORD PTR [edi+8]
  00177	8b 75 f8	 mov	 esi, DWORD PTR _result$[ebp]
  0017a	50		 push	 eax
  0017b	56		 push	 esi
  0017c	e8 00 00 00 00	 call	 ?gObjSetMonster@@YAHHH@Z ; gObjSetMonster
  00181	83 c4 08	 add	 esp, 8

; 311  : 
; 312  : 		this->IndexNPC = result;

  00184	89 77 04	 mov	 DWORD PTR [edi+4], esi
$LN1@EventStart:

; 313  : 	}
; 314  : 
; 315  : 	MessaageAllGlobal(g_ZtText.GetText(97));

  00187	6a 61		 push	 97			; 00000061H
  00189	b9 00 00 00 00	 mov	 ecx, OFFSET ?g_ZtText@@3VCZtText@@A ; g_ZtText
  0018e	e8 00 00 00 00	 call	 ?GetText@CZtText@@QAEPADH@Z ; CZtText::GetText
  00193	50		 push	 eax
  00194	e8 00 00 00 00	 call	 ?MessaageAllGlobal@@YAXPADZZ ; MessaageAllGlobal
  00199	83 c4 04	 add	 esp, 4
  0019c	5e		 pop	 esi

; 316  : 	this->Start = true;

  0019d	b8 01 00 00 00	 mov	 eax, 1
  001a2	5b		 pop	 ebx
  001a3	88 47 1c	 mov	 BYTE PTR [edi+28], al

; 317  : 	this->Stage = 1;

  001a6	89 47 24	 mov	 DWORD PTR [edi+36], eax
  001a9	5f		 pop	 edi

; 318  : }

  001aa	8b e5		 mov	 esp, ebp
  001ac	5d		 pop	 ebp
  001ad	c3		 ret	 0
?EventStart@cSearchEvent@@QAEXXZ ENDP			; cSearchEvent::EventStart
_TEXT	ENDS
PUBLIC	_this$GSCopy$
PUBLIC	__$ArrayPad$
PUBLIC	?StartNPC@cSearchEvent@@QAEXXZ			; cSearchEvent::StartNPC
EXTRN	?ZtConfig@@3VcZtConfigs@@A:BYTE			; ZtConfig
EXTRN	?GetSecond@CTimerZt@@QAEHXZ:PROC		; CTimerZt::GetSecond
EXTRN	?g_TimerZt@@3VCTimerZt@@A:DWORD			; g_TimerZt
EXTRN	__imp__GetLocalTime@4:PROC
; Function compile flags: /Ogtp
;	COMDAT ?StartNPC@cSearchEvent@@QAEXXZ
_TEXT	SEGMENT
_this$GSCopy$ = -28					; size = 4
_i$204170 = -24						; size = 4
_t$ = -20						; size = 16
__$ArrayPad$ = -4					; size = 4
?StartNPC@cSearchEvent@@QAEXXZ PROC			; cSearchEvent::StartNPC, COMDAT
; _this$ = ecx

; 321  : {

  00000	55		 push	 ebp
  00001	8b ec		 mov	 ebp, esp
  00003	83 ec 1c	 sub	 esp, 28			; 0000001cH
  00006	a1 00 00 00 00	 mov	 eax, DWORD PTR ___security_cookie
  0000b	33 c5		 xor	 eax, ebp
  0000d	89 45 fc	 mov	 DWORD PTR __$ArrayPad$[ebp], eax
  00010	53		 push	 ebx
  00011	8b d9		 mov	 ebx, ecx

; 322  : 	if(!this->Enable)

  00013	83 3b 00	 cmp	 DWORD PTR [ebx], 0

; 342  : #else
; 343  : 	if(t.wSecond == 00)
; 344  : #endif
; 345  : 	{
; 346  : 		for(int i = 0; i < this->Count; i++)

  00016	89 5d e4	 mov	 DWORD PTR _this$GSCopy$[ebp], ebx
  00019	0f 84 cf 04 00
	00		 je	 $LN42@StartNPC

; 323  : 		return;
; 324  : 
; 325  : 	if(this->Start == true)

  0001f	80 7b 1c 01	 cmp	 BYTE PTR [ebx+28], 1
  00023	75 1f		 jne	 SHORT $LN46@StartNPC

; 326  : 	{
; 327  : 		this->Tick++;

  00025	ff 43 20	 inc	 DWORD PTR [ebx+32]
  00028	8b 43 20	 mov	 eax, DWORD PTR [ebx+32]

; 328  : 		if(this->Tick >= this->Time)

  0002b	3b 43 14	 cmp	 eax, DWORD PTR [ebx+20]
  0002e	7c 14		 jl	 SHORT $LN46@StartNPC

; 329  : 		{
; 330  : 			this->EventEnd();

  00030	e8 00 00 00 00	 call	 ?EventEnd@cSearchEvent@@QAEXXZ ; cSearchEvent::EventEnd
  00035	5b		 pop	 ebx

; 431  : 				return;
; 432  : 			}
; 433  : 		}
; 434  : 	}
; 435  : }

  00036	8b 4d fc	 mov	 ecx, DWORD PTR __$ArrayPad$[ebp]
  00039	33 cd		 xor	 ecx, ebp
  0003b	e8 00 00 00 00	 call	 @__security_check_cookie@4
  00040	8b e5		 mov	 esp, ebp
  00042	5d		 pop	 ebp
  00043	c3		 ret	 0
$LN46@StartNPC:

; 331  : 			return;
; 332  : 		}
; 333  : 	}
; 334  : 
; 335  : 	SYSTEMTIME t;
; 336  : 	GetLocalTime(&t);

  00044	8d 45 ec	 lea	 eax, DWORD PTR _t$[ebp]
  00047	50		 push	 eax
  00048	ff 15 00 00 00
	00		 call	 DWORD PTR __imp__GetLocalTime@4

; 337  : 
; 338  : 	//LogAddC(2, "[DEBUG] ms: %d sec: %d :: tick: %d", t.wMilliseconds, t.wSecond, g_TimerZt.GetSecond());
; 339  : 
; 340  : #if(NEWTIMEREX)
; 341  : 	if(g_TimerZt.GetSecond() == 00)

  0004e	b9 00 00 00 00	 mov	 ecx, OFFSET ?g_TimerZt@@3VCTimerZt@@A ; g_TimerZt
  00053	e8 00 00 00 00	 call	 ?GetSecond@CTimerZt@@QAEHXZ ; CTimerZt::GetSecond
  00058	85 c0		 test	 eax, eax
  0005a	0f 85 8e 04 00
	00		 jne	 $LN42@StartNPC

; 342  : #else
; 343  : 	if(t.wSecond == 00)
; 344  : #endif
; 345  : 	{
; 346  : 		for(int i = 0; i < this->Count; i++)

  00060	89 45 e8	 mov	 DWORD PTR _i$204170[ebp], eax
  00063	39 83 1c 2d 00
	00		 cmp	 DWORD PTR [ebx+11548], eax
  00069	0f 8e 7f 04 00
	00		 jle	 $LN42@StartNPC
  0006f	66 8b 55 f6	 mov	 dx, WORD PTR _t$[ebp+10]
  00073	66 8b 45 f4	 mov	 ax, WORD PTR _t$[ebp+8]
  00077	57		 push	 edi
  00078	8d 7b 6c	 lea	 edi, DWORD PTR [ebx+108]
  0007b	56		 push	 esi
  0007c	8d 64 24 00	 npad	 4
$LL76@StartNPC:

; 347  : 		{
; 348  : 			
; 349  : #ifdef _MESSAGE_CONFIG_
; 350  : 			if(TickTime[i].Min > 5)

  00080	8b 4f 04	 mov	 ecx, DWORD PTR [edi+4]
  00083	83 f9 05	 cmp	 ecx, 5
  00086	7e 3f		 jle	 SHORT $LN41@StartNPC

; 351  : 			{
; 352  : 				for(int j=1; j <= 5; j++)

  00088	be 01 00 00 00	 mov	 esi, 1
  0008d	8d 49 00	 npad	 3
$LL40@StartNPC:

; 353  : 				{
; 354  : 			
; 355  : 					if(TickTime[i].Hour == t.wHour && (TickTime[i].Min-j) == t.wMinute)

  00090	0f b7 c8	 movzx	 ecx, ax
  00093	39 0f		 cmp	 DWORD PTR [edi], ecx
  00095	75 25		 jne	 SHORT $LN39@StartNPC
  00097	8b 4f 04	 mov	 ecx, DWORD PTR [edi+4]
  0009a	0f b7 da	 movzx	 ebx, dx
  0009d	2b ce		 sub	 ecx, esi
  0009f	3b cb		 cmp	 ecx, ebx
  000a1	75 16		 jne	 SHORT $LN56@StartNPC

; 356  : 						MessaageAllGlobal(ZtConfig.MessageConfig.SearchEvent, j);

  000a3	56		 push	 esi
  000a4	68 30 0b 00 00	 push	 OFFSET ?ZtConfig@@3VcZtConfigs@@A+2864
  000a9	e8 00 00 00 00	 call	 ?MessaageAllGlobal@@YAXPADZZ ; MessaageAllGlobal
  000ae	66 8b 55 f6	 mov	 dx, WORD PTR _t$[ebp+10]
  000b2	66 8b 45 f4	 mov	 ax, WORD PTR _t$[ebp+8]
  000b6	83 c4 08	 add	 esp, 8
$LN56@StartNPC:
  000b9	8b 5d e4	 mov	 ebx, DWORD PTR _this$GSCopy$[ebp]
$LN39@StartNPC:

; 351  : 			{
; 352  : 				for(int j=1; j <= 5; j++)

  000bc	46		 inc	 esi
  000bd	83 fe 05	 cmp	 esi, 5
  000c0	7e ce		 jle	 SHORT $LL40@StartNPC

; 357  : 				}
; 358  : 			}
; 359  : 			else if(TickTime[i].Min == 4)

  000c2	e9 e8 03 00 00	 jmp	 $LN70@StartNPC
$LN41@StartNPC:
  000c7	83 f9 04	 cmp	 ecx, 4
  000ca	0f 85 b4 00 00
	00		 jne	 $LN35@StartNPC

; 360  : 			{
; 361  : 					if(TickTime[i].Hour-1 == t.wHour && 59 == t.wMinute)

  000d0	8b 0f		 mov	 ecx, DWORD PTR [edi]
  000d2	0f b7 f0	 movzx	 esi, ax
  000d5	49		 dec	 ecx
  000d6	3b ce		 cmp	 ecx, esi
  000d8	75 21		 jne	 SHORT $LN58@StartNPC
  000da	b9 3b 00 00 00	 mov	 ecx, 59			; 0000003bH
  000df	66 3b ca	 cmp	 cx, dx
  000e2	75 17		 jne	 SHORT $LN58@StartNPC

; 362  : 						MessaageAllGlobal(ZtConfig.MessageConfig.SearchEvent, 5);

  000e4	6a 05		 push	 5
  000e6	68 30 0b 00 00	 push	 OFFSET ?ZtConfig@@3VcZtConfigs@@A+2864
  000eb	e8 00 00 00 00	 call	 ?MessaageAllGlobal@@YAXPADZZ ; MessaageAllGlobal
  000f0	66 8b 55 f6	 mov	 dx, WORD PTR _t$[ebp+10]
  000f4	66 8b 45 f4	 mov	 ax, WORD PTR _t$[ebp+8]
  000f8	83 c4 08	 add	 esp, 8
$LN58@StartNPC:

; 363  : 					if(TickTime[i].Hour == t.wHour && 0 == t.wMinute)

  000fb	0f b7 c8	 movzx	 ecx, ax
  000fe	39 0f		 cmp	 DWORD PTR [edi], ecx
  00100	75 1e		 jne	 SHORT $LN59@StartNPC
  00102	33 c9		 xor	 ecx, ecx
  00104	66 3b ca	 cmp	 cx, dx
  00107	75 17		 jne	 SHORT $LN59@StartNPC

; 364  : 						MessaageAllGlobal(ZtConfig.MessageConfig.SearchEvent, 4);

  00109	6a 04		 push	 4
  0010b	68 30 0b 00 00	 push	 OFFSET ?ZtConfig@@3VcZtConfigs@@A+2864
  00110	e8 00 00 00 00	 call	 ?MessaageAllGlobal@@YAXPADZZ ; MessaageAllGlobal
  00115	66 8b 55 f6	 mov	 dx, WORD PTR _t$[ebp+10]
  00119	66 8b 45 f4	 mov	 ax, WORD PTR _t$[ebp+8]
  0011d	83 c4 08	 add	 esp, 8
$LN59@StartNPC:

; 365  : 					if(TickTime[i].Hour == t.wHour && 1 == t.wMinute)

  00120	0f b7 c8	 movzx	 ecx, ax
  00123	39 0f		 cmp	 DWORD PTR [edi], ecx
  00125	75 21		 jne	 SHORT $LN60@StartNPC
  00127	b9 01 00 00 00	 mov	 ecx, 1
  0012c	66 3b ca	 cmp	 cx, dx
  0012f	75 17		 jne	 SHORT $LN60@StartNPC

; 366  : 						MessaageAllGlobal(ZtConfig.MessageConfig.SearchEvent, 3);

  00131	6a 03		 push	 3
  00133	68 30 0b 00 00	 push	 OFFSET ?ZtConfig@@3VcZtConfigs@@A+2864
  00138	e8 00 00 00 00	 call	 ?MessaageAllGlobal@@YAXPADZZ ; MessaageAllGlobal
  0013d	66 8b 55 f6	 mov	 dx, WORD PTR _t$[ebp+10]
  00141	66 8b 45 f4	 mov	 ax, WORD PTR _t$[ebp+8]
  00145	83 c4 08	 add	 esp, 8
$LN60@StartNPC:

; 367  : 					if(TickTime[i].Hour == t.wHour && 2 == t.wMinute)

  00148	0f b7 c8	 movzx	 ecx, ax
  0014b	39 0f		 cmp	 DWORD PTR [edi], ecx
  0014d	75 20		 jne	 SHORT $LN62@StartNPC
  0014f	b9 02 00 00 00	 mov	 ecx, 2
  00154	66 3b ca	 cmp	 cx, dx
  00157	75 16		 jne	 SHORT $LN62@StartNPC

; 368  : 						MessaageAllGlobal(ZtConfig.MessageConfig.SearchEvent, 2);

  00159	51		 push	 ecx
  0015a	68 30 0b 00 00	 push	 OFFSET ?ZtConfig@@3VcZtConfigs@@A+2864
  0015f	e8 00 00 00 00	 call	 ?MessaageAllGlobal@@YAXPADZZ ; MessaageAllGlobal
  00164	66 8b 55 f6	 mov	 dx, WORD PTR _t$[ebp+10]
  00168	66 8b 45 f4	 mov	 ax, WORD PTR _t$[ebp+8]
  0016c	83 c4 08	 add	 esp, 8
$LN62@StartNPC:

; 369  : 					if(TickTime[i].Hour == t.wHour && 3 == t.wMinute)

  0016f	0f b7 c8	 movzx	 ecx, ax
  00172	39 0f		 cmp	 DWORD PTR [edi], ecx
  00174	0f 85 35 03 00
	00		 jne	 $LN70@StartNPC
  0017a	b9 03 00 00 00	 mov	 ecx, 3

; 370  : 						MessaageAllGlobal(ZtConfig.MessageConfig.SearchEvent, 1);
; 371  : 
; 372  : 			}

  0017f	e9 0f 03 00 00	 jmp	 $LN81@StartNPC
$LN35@StartNPC:

; 373  : 			else if(TickTime[i].Min == 3)

  00184	83 f9 03	 cmp	 ecx, 3
  00187	0f 85 b8 00 00
	00		 jne	 $LN28@StartNPC

; 374  : 			{
; 375  : 					if(TickTime[i].Hour-1 == t.wHour && 58 == t.wMinute)

  0018d	8b 0f		 mov	 ecx, DWORD PTR [edi]
  0018f	0f b7 f0	 movzx	 esi, ax
  00192	49		 dec	 ecx
  00193	3b ce		 cmp	 ecx, esi
  00195	75 21		 jne	 SHORT $LN27@StartNPC
  00197	b9 3a 00 00 00	 mov	 ecx, 58			; 0000003aH
  0019c	66 3b ca	 cmp	 cx, dx
  0019f	75 17		 jne	 SHORT $LN27@StartNPC

; 376  : 						MessaageAllGlobal(ZtConfig.MessageConfig.SearchEvent, 5);

  001a1	6a 05		 push	 5
  001a3	68 30 0b 00 00	 push	 OFFSET ?ZtConfig@@3VcZtConfigs@@A+2864
  001a8	e8 00 00 00 00	 call	 ?MessaageAllGlobal@@YAXPADZZ ; MessaageAllGlobal
  001ad	66 8b 55 f6	 mov	 dx, WORD PTR _t$[ebp+10]
  001b1	66 8b 45 f4	 mov	 ax, WORD PTR _t$[ebp+8]
  001b5	83 c4 08	 add	 esp, 8
$LN27@StartNPC:

; 377  : 					if(TickTime[i].Hour-1 == t.wHour && 59 == t.wMinute)

  001b8	8b 0f		 mov	 ecx, DWORD PTR [edi]
  001ba	0f b7 f0	 movzx	 esi, ax
  001bd	49		 dec	 ecx
  001be	3b ce		 cmp	 ecx, esi
  001c0	75 21		 jne	 SHORT $LN63@StartNPC
  001c2	b9 3b 00 00 00	 mov	 ecx, 59			; 0000003bH
  001c7	66 3b ca	 cmp	 cx, dx
  001ca	75 17		 jne	 SHORT $LN63@StartNPC

; 378  : 						MessaageAllGlobal(ZtConfig.MessageConfig.SearchEvent, 4);

  001cc	6a 04		 push	 4
  001ce	68 30 0b 00 00	 push	 OFFSET ?ZtConfig@@3VcZtConfigs@@A+2864
  001d3	e8 00 00 00 00	 call	 ?MessaageAllGlobal@@YAXPADZZ ; MessaageAllGlobal
  001d8	66 8b 55 f6	 mov	 dx, WORD PTR _t$[ebp+10]
  001dc	66 8b 45 f4	 mov	 ax, WORD PTR _t$[ebp+8]
  001e0	83 c4 08	 add	 esp, 8
$LN63@StartNPC:

; 379  : 					if(TickTime[i].Hour == t.wHour && 0 == t.wMinute)

  001e3	0f b7 c8	 movzx	 ecx, ax
  001e6	39 0f		 cmp	 DWORD PTR [edi], ecx
  001e8	75 1e		 jne	 SHORT $LN64@StartNPC
  001ea	33 c9		 xor	 ecx, ecx
  001ec	66 3b ca	 cmp	 cx, dx
  001ef	75 17		 jne	 SHORT $LN64@StartNPC

; 380  : 						MessaageAllGlobal(ZtConfig.MessageConfig.SearchEvent, 3);

  001f1	6a 03		 push	 3
  001f3	68 30 0b 00 00	 push	 OFFSET ?ZtConfig@@3VcZtConfigs@@A+2864
  001f8	e8 00 00 00 00	 call	 ?MessaageAllGlobal@@YAXPADZZ ; MessaageAllGlobal
  001fd	66 8b 55 f6	 mov	 dx, WORD PTR _t$[ebp+10]
  00201	66 8b 45 f4	 mov	 ax, WORD PTR _t$[ebp+8]
  00205	83 c4 08	 add	 esp, 8
$LN64@StartNPC:

; 381  : 					if(TickTime[i].Hour == t.wHour && 1 == t.wMinute)

  00208	0f b7 c8	 movzx	 ecx, ax
  0020b	39 0f		 cmp	 DWORD PTR [edi], ecx
  0020d	75 21		 jne	 SHORT $LN65@StartNPC
  0020f	b9 01 00 00 00	 mov	 ecx, 1
  00214	66 3b ca	 cmp	 cx, dx
  00217	75 17		 jne	 SHORT $LN65@StartNPC

; 382  : 						MessaageAllGlobal(ZtConfig.MessageConfig.SearchEvent, 2);

  00219	6a 02		 push	 2
  0021b	68 30 0b 00 00	 push	 OFFSET ?ZtConfig@@3VcZtConfigs@@A+2864
  00220	e8 00 00 00 00	 call	 ?MessaageAllGlobal@@YAXPADZZ ; MessaageAllGlobal
  00225	66 8b 55 f6	 mov	 dx, WORD PTR _t$[ebp+10]
  00229	66 8b 45 f4	 mov	 ax, WORD PTR _t$[ebp+8]
  0022d	83 c4 08	 add	 esp, 8
$LN65@StartNPC:

; 383  : 					if(TickTime[i].Hour == t.wHour && 2 == t.wMinute)

  00230	0f b7 c8	 movzx	 ecx, ax
  00233	39 0f		 cmp	 DWORD PTR [edi], ecx
  00235	0f 85 74 02 00
	00		 jne	 $LN70@StartNPC
  0023b	b9 02 00 00 00	 mov	 ecx, 2

; 384  : 						MessaageAllGlobal(ZtConfig.MessageConfig.SearchEvent, 1);
; 385  : 			}

  00240	e9 4e 02 00 00	 jmp	 $LN81@StartNPC
$LN28@StartNPC:

; 386  : 			else if(TickTime[i].Min == 2)

  00245	83 f9 02	 cmp	 ecx, 2
  00248	0f 85 bb 00 00
	00		 jne	 $LN21@StartNPC

; 387  : 			{
; 388  : 					if(TickTime[i].Hour-1 == t.wHour && 57 == t.wMinute)

  0024e	8b 0f		 mov	 ecx, DWORD PTR [edi]
  00250	0f b7 f0	 movzx	 esi, ax
  00253	49		 dec	 ecx
  00254	3b ce		 cmp	 ecx, esi
  00256	75 21		 jne	 SHORT $LN20@StartNPC
  00258	b9 39 00 00 00	 mov	 ecx, 57			; 00000039H
  0025d	66 3b ca	 cmp	 cx, dx
  00260	75 17		 jne	 SHORT $LN20@StartNPC

; 389  : 						MessaageAllGlobal(ZtConfig.MessageConfig.SearchEvent, 5);

  00262	6a 05		 push	 5
  00264	68 30 0b 00 00	 push	 OFFSET ?ZtConfig@@3VcZtConfigs@@A+2864
  00269	e8 00 00 00 00	 call	 ?MessaageAllGlobal@@YAXPADZZ ; MessaageAllGlobal
  0026e	66 8b 55 f6	 mov	 dx, WORD PTR _t$[ebp+10]
  00272	66 8b 45 f4	 mov	 ax, WORD PTR _t$[ebp+8]
  00276	83 c4 08	 add	 esp, 8
$LN20@StartNPC:

; 390  : 					if(TickTime[i].Hour-1 == t.wHour && 58 == t.wMinute)

  00279	8b 0f		 mov	 ecx, DWORD PTR [edi]
  0027b	0f b7 f0	 movzx	 esi, ax
  0027e	49		 dec	 ecx
  0027f	3b ce		 cmp	 ecx, esi
  00281	75 21		 jne	 SHORT $LN19@StartNPC
  00283	b9 3a 00 00 00	 mov	 ecx, 58			; 0000003aH
  00288	66 3b ca	 cmp	 cx, dx
  0028b	75 17		 jne	 SHORT $LN19@StartNPC

; 391  : 						MessaageAllGlobal(ZtConfig.MessageConfig.SearchEvent, 4);

  0028d	6a 04		 push	 4
  0028f	68 30 0b 00 00	 push	 OFFSET ?ZtConfig@@3VcZtConfigs@@A+2864
  00294	e8 00 00 00 00	 call	 ?MessaageAllGlobal@@YAXPADZZ ; MessaageAllGlobal
  00299	66 8b 55 f6	 mov	 dx, WORD PTR _t$[ebp+10]
  0029d	66 8b 45 f4	 mov	 ax, WORD PTR _t$[ebp+8]
  002a1	83 c4 08	 add	 esp, 8
$LN19@StartNPC:

; 392  : 					if(TickTime[i].Hour-1 == t.wHour && 59 == t.wMinute)

  002a4	8b 0f		 mov	 ecx, DWORD PTR [edi]
  002a6	0f b7 f0	 movzx	 esi, ax
  002a9	49		 dec	 ecx
  002aa	3b ce		 cmp	 ecx, esi
  002ac	75 21		 jne	 SHORT $LN67@StartNPC
  002ae	b9 3b 00 00 00	 mov	 ecx, 59			; 0000003bH
  002b3	66 3b ca	 cmp	 cx, dx
  002b6	75 17		 jne	 SHORT $LN67@StartNPC

; 393  : 						MessaageAllGlobal(ZtConfig.MessageConfig.SearchEvent, 3);

  002b8	6a 03		 push	 3
  002ba	68 30 0b 00 00	 push	 OFFSET ?ZtConfig@@3VcZtConfigs@@A+2864
  002bf	e8 00 00 00 00	 call	 ?MessaageAllGlobal@@YAXPADZZ ; MessaageAllGlobal
  002c4	66 8b 55 f6	 mov	 dx, WORD PTR _t$[ebp+10]
  002c8	66 8b 45 f4	 mov	 ax, WORD PTR _t$[ebp+8]
  002cc	83 c4 08	 add	 esp, 8
$LN67@StartNPC:

; 394  : 					if(TickTime[i].Hour == t.wHour && 0 == t.wMinute)

  002cf	0f b7 c8	 movzx	 ecx, ax
  002d2	39 0f		 cmp	 DWORD PTR [edi], ecx
  002d4	75 1e		 jne	 SHORT $LN68@StartNPC
  002d6	33 c9		 xor	 ecx, ecx
  002d8	66 3b ca	 cmp	 cx, dx
  002db	75 17		 jne	 SHORT $LN68@StartNPC

; 395  : 						MessaageAllGlobal(ZtConfig.MessageConfig.SearchEvent, 2);

  002dd	6a 02		 push	 2
  002df	68 30 0b 00 00	 push	 OFFSET ?ZtConfig@@3VcZtConfigs@@A+2864
  002e4	e8 00 00 00 00	 call	 ?MessaageAllGlobal@@YAXPADZZ ; MessaageAllGlobal
  002e9	66 8b 55 f6	 mov	 dx, WORD PTR _t$[ebp+10]
  002ed	66 8b 45 f4	 mov	 ax, WORD PTR _t$[ebp+8]
  002f1	83 c4 08	 add	 esp, 8
$LN68@StartNPC:

; 396  : 					if(TickTime[i].Hour == t.wHour && 1 == t.wMinute)

  002f4	0f b7 c8	 movzx	 ecx, ax
  002f7	39 0f		 cmp	 DWORD PTR [edi], ecx
  002f9	0f 85 b0 01 00
	00		 jne	 $LN70@StartNPC
  002ff	b9 01 00 00 00	 mov	 ecx, 1

; 397  : 						MessaageAllGlobal(ZtConfig.MessageConfig.SearchEvent, 1);
; 398  : 			}

  00304	e9 8a 01 00 00	 jmp	 $LN81@StartNPC
$LN21@StartNPC:

; 399  : 			else if(TickTime[i].Min == 1)

  00309	83 f9 01	 cmp	 ecx, 1
  0030c	0f 85 be 00 00
	00		 jne	 $LN14@StartNPC

; 400  : 			{
; 401  : 					if(TickTime[i].Hour-1 == t.wHour && 56 == t.wMinute)

  00312	8b 0f		 mov	 ecx, DWORD PTR [edi]
  00314	0f b7 f0	 movzx	 esi, ax
  00317	49		 dec	 ecx
  00318	3b ce		 cmp	 ecx, esi
  0031a	75 21		 jne	 SHORT $LN13@StartNPC
  0031c	b9 38 00 00 00	 mov	 ecx, 56			; 00000038H
  00321	66 3b ca	 cmp	 cx, dx
  00324	75 17		 jne	 SHORT $LN13@StartNPC

; 402  : 						MessaageAllGlobal(ZtConfig.MessageConfig.SearchEvent, 5);

  00326	6a 05		 push	 5
  00328	68 30 0b 00 00	 push	 OFFSET ?ZtConfig@@3VcZtConfigs@@A+2864
  0032d	e8 00 00 00 00	 call	 ?MessaageAllGlobal@@YAXPADZZ ; MessaageAllGlobal
  00332	66 8b 55 f6	 mov	 dx, WORD PTR _t$[ebp+10]
  00336	66 8b 45 f4	 mov	 ax, WORD PTR _t$[ebp+8]
  0033a	83 c4 08	 add	 esp, 8
$LN13@StartNPC:

; 403  : 					if(TickTime[i].Hour-1 == t.wHour && 57 == t.wMinute)

  0033d	8b 0f		 mov	 ecx, DWORD PTR [edi]
  0033f	0f b7 f0	 movzx	 esi, ax
  00342	49		 dec	 ecx
  00343	3b ce		 cmp	 ecx, esi
  00345	75 21		 jne	 SHORT $LN12@StartNPC
  00347	b9 39 00 00 00	 mov	 ecx, 57			; 00000039H
  0034c	66 3b ca	 cmp	 cx, dx
  0034f	75 17		 jne	 SHORT $LN12@StartNPC

; 404  : 						MessaageAllGlobal(ZtConfig.MessageConfig.SearchEvent, 4);

  00351	6a 04		 push	 4
  00353	68 30 0b 00 00	 push	 OFFSET ?ZtConfig@@3VcZtConfigs@@A+2864
  00358	e8 00 00 00 00	 call	 ?MessaageAllGlobal@@YAXPADZZ ; MessaageAllGlobal
  0035d	66 8b 55 f6	 mov	 dx, WORD PTR _t$[ebp+10]
  00361	66 8b 45 f4	 mov	 ax, WORD PTR _t$[ebp+8]
  00365	83 c4 08	 add	 esp, 8
$LN12@StartNPC:

; 405  : 					if(TickTime[i].Hour-1 == t.wHour && 58 == t.wMinute)

  00368	8b 0f		 mov	 ecx, DWORD PTR [edi]
  0036a	0f b7 f0	 movzx	 esi, ax
  0036d	49		 dec	 ecx
  0036e	3b ce		 cmp	 ecx, esi
  00370	75 21		 jne	 SHORT $LN11@StartNPC
  00372	b9 3a 00 00 00	 mov	 ecx, 58			; 0000003aH
  00377	66 3b ca	 cmp	 cx, dx
  0037a	75 17		 jne	 SHORT $LN11@StartNPC

; 406  : 						MessaageAllGlobal(ZtConfig.MessageConfig.SearchEvent, 3);

  0037c	6a 03		 push	 3
  0037e	68 30 0b 00 00	 push	 OFFSET ?ZtConfig@@3VcZtConfigs@@A+2864
  00383	e8 00 00 00 00	 call	 ?MessaageAllGlobal@@YAXPADZZ ; MessaageAllGlobal
  00388	66 8b 55 f6	 mov	 dx, WORD PTR _t$[ebp+10]
  0038c	66 8b 45 f4	 mov	 ax, WORD PTR _t$[ebp+8]
  00390	83 c4 08	 add	 esp, 8
$LN11@StartNPC:

; 407  : 					if(TickTime[i].Hour-1 == t.wHour && 59 == t.wMinute)

  00393	8b 0f		 mov	 ecx, DWORD PTR [edi]
  00395	0f b7 f0	 movzx	 esi, ax
  00398	49		 dec	 ecx
  00399	3b ce		 cmp	 ecx, esi
  0039b	75 21		 jne	 SHORT $LN69@StartNPC
  0039d	b9 3b 00 00 00	 mov	 ecx, 59			; 0000003bH
  003a2	66 3b ca	 cmp	 cx, dx
  003a5	75 17		 jne	 SHORT $LN69@StartNPC

; 408  : 						MessaageAllGlobal(ZtConfig.MessageConfig.SearchEvent, 2);

  003a7	6a 02		 push	 2
  003a9	68 30 0b 00 00	 push	 OFFSET ?ZtConfig@@3VcZtConfigs@@A+2864
  003ae	e8 00 00 00 00	 call	 ?MessaageAllGlobal@@YAXPADZZ ; MessaageAllGlobal
  003b3	66 8b 55 f6	 mov	 dx, WORD PTR _t$[ebp+10]
  003b7	66 8b 45 f4	 mov	 ax, WORD PTR _t$[ebp+8]
  003bb	83 c4 08	 add	 esp, 8
$LN69@StartNPC:

; 409  : 					if(TickTime[i].Hour == t.wHour && 0 == t.wMinute)

  003be	0f b7 c8	 movzx	 ecx, ax
  003c1	39 0f		 cmp	 DWORD PTR [edi], ecx
  003c3	0f 85 e6 00 00
	00		 jne	 $LN70@StartNPC
  003c9	33 c9		 xor	 ecx, ecx

; 410  : 						MessaageAllGlobal(ZtConfig.MessageConfig.SearchEvent, 1);
; 411  : 			}

  003cb	e9 c3 00 00 00	 jmp	 $LN81@StartNPC
$LN14@StartNPC:

; 412  : 			else if(TickTime[i].Min == 0)

  003d0	85 c9		 test	 ecx, ecx
  003d2	0f 85 d7 00 00
	00		 jne	 $LN70@StartNPC

; 413  : 			{
; 414  : 					if(TickTime[i].Hour-1 == t.wHour && 55 == t.wMinute)

  003d8	8b 0f		 mov	 ecx, DWORD PTR [edi]
  003da	0f b7 f0	 movzx	 esi, ax
  003dd	49		 dec	 ecx
  003de	3b ce		 cmp	 ecx, esi
  003e0	75 21		 jne	 SHORT $LN6@StartNPC
  003e2	b9 37 00 00 00	 mov	 ecx, 55			; 00000037H
  003e7	66 3b ca	 cmp	 cx, dx
  003ea	75 17		 jne	 SHORT $LN6@StartNPC

; 415  : 						MessaageAllGlobal(ZtConfig.MessageConfig.SearchEvent, 5);

  003ec	6a 05		 push	 5
  003ee	68 30 0b 00 00	 push	 OFFSET ?ZtConfig@@3VcZtConfigs@@A+2864
  003f3	e8 00 00 00 00	 call	 ?MessaageAllGlobal@@YAXPADZZ ; MessaageAllGlobal
  003f8	66 8b 55 f6	 mov	 dx, WORD PTR _t$[ebp+10]
  003fc	66 8b 45 f4	 mov	 ax, WORD PTR _t$[ebp+8]
  00400	83 c4 08	 add	 esp, 8
$LN6@StartNPC:

; 416  : 					if(TickTime[i].Hour-1 == t.wHour && 56 == t.wMinute)

  00403	8b 0f		 mov	 ecx, DWORD PTR [edi]
  00405	0f b7 f0	 movzx	 esi, ax
  00408	49		 dec	 ecx
  00409	3b ce		 cmp	 ecx, esi
  0040b	75 21		 jne	 SHORT $LN5@StartNPC
  0040d	b9 38 00 00 00	 mov	 ecx, 56			; 00000038H
  00412	66 3b ca	 cmp	 cx, dx
  00415	75 17		 jne	 SHORT $LN5@StartNPC

; 417  : 						MessaageAllGlobal(ZtConfig.MessageConfig.SearchEvent, 4);

  00417	6a 04		 push	 4
  00419	68 30 0b 00 00	 push	 OFFSET ?ZtConfig@@3VcZtConfigs@@A+2864
  0041e	e8 00 00 00 00	 call	 ?MessaageAllGlobal@@YAXPADZZ ; MessaageAllGlobal
  00423	66 8b 55 f6	 mov	 dx, WORD PTR _t$[ebp+10]
  00427	66 8b 45 f4	 mov	 ax, WORD PTR _t$[ebp+8]
  0042b	83 c4 08	 add	 esp, 8
$LN5@StartNPC:

; 418  : 					if(TickTime[i].Hour-1 == t.wHour && 57 == t.wMinute)

  0042e	8b 0f		 mov	 ecx, DWORD PTR [edi]
  00430	0f b7 f0	 movzx	 esi, ax
  00433	49		 dec	 ecx
  00434	3b ce		 cmp	 ecx, esi
  00436	75 21		 jne	 SHORT $LN4@StartNPC
  00438	b9 39 00 00 00	 mov	 ecx, 57			; 00000039H
  0043d	66 3b ca	 cmp	 cx, dx
  00440	75 17		 jne	 SHORT $LN4@StartNPC

; 419  : 						MessaageAllGlobal(ZtConfig.MessageConfig.SearchEvent, 3);

  00442	6a 03		 push	 3
  00444	68 30 0b 00 00	 push	 OFFSET ?ZtConfig@@3VcZtConfigs@@A+2864
  00449	e8 00 00 00 00	 call	 ?MessaageAllGlobal@@YAXPADZZ ; MessaageAllGlobal
  0044e	66 8b 55 f6	 mov	 dx, WORD PTR _t$[ebp+10]
  00452	66 8b 45 f4	 mov	 ax, WORD PTR _t$[ebp+8]
  00456	83 c4 08	 add	 esp, 8
$LN4@StartNPC:

; 420  : 					if(TickTime[i].Hour-1 == t.wHour && 58 == t.wMinute)

  00459	8b 0f		 mov	 ecx, DWORD PTR [edi]
  0045b	0f b7 f0	 movzx	 esi, ax
  0045e	49		 dec	 ecx
  0045f	3b ce		 cmp	 ecx, esi
  00461	75 21		 jne	 SHORT $LN3@StartNPC
  00463	b9 3a 00 00 00	 mov	 ecx, 58			; 0000003aH
  00468	66 3b ca	 cmp	 cx, dx
  0046b	75 17		 jne	 SHORT $LN3@StartNPC

; 421  : 						MessaageAllGlobal(ZtConfig.MessageConfig.SearchEvent, 2);

  0046d	6a 02		 push	 2
  0046f	68 30 0b 00 00	 push	 OFFSET ?ZtConfig@@3VcZtConfigs@@A+2864
  00474	e8 00 00 00 00	 call	 ?MessaageAllGlobal@@YAXPADZZ ; MessaageAllGlobal
  00479	66 8b 55 f6	 mov	 dx, WORD PTR _t$[ebp+10]
  0047d	66 8b 45 f4	 mov	 ax, WORD PTR _t$[ebp+8]
  00481	83 c4 08	 add	 esp, 8
$LN3@StartNPC:

; 422  : 					if(TickTime[i].Hour-1 == t.wHour && 59 == t.wMinute)

  00484	8b 0f		 mov	 ecx, DWORD PTR [edi]
  00486	0f b7 f0	 movzx	 esi, ax
  00489	49		 dec	 ecx
  0048a	3b ce		 cmp	 ecx, esi
  0048c	75 21		 jne	 SHORT $LN70@StartNPC
  0048e	b9 3b 00 00 00	 mov	 ecx, 59			; 0000003bH
$LN81@StartNPC:
  00493	66 3b ca	 cmp	 cx, dx
  00496	75 17		 jne	 SHORT $LN70@StartNPC

; 423  : 						MessaageAllGlobal(ZtConfig.MessageConfig.SearchEvent, 1);

  00498	6a 01		 push	 1
  0049a	68 30 0b 00 00	 push	 OFFSET ?ZtConfig@@3VcZtConfigs@@A+2864
  0049f	e8 00 00 00 00	 call	 ?MessaageAllGlobal@@YAXPADZZ ; MessaageAllGlobal
  004a4	66 8b 55 f6	 mov	 dx, WORD PTR _t$[ebp+10]
  004a8	66 8b 45 f4	 mov	 ax, WORD PTR _t$[ebp+8]
  004ac	83 c4 08	 add	 esp, 8
$LN70@StartNPC:

; 424  : 			
; 425  : 			}
; 426  : #endif
; 427  : 
; 428  : 			if(this->TickTime[i].Hour == t.wHour && this->TickTime[i].Min == t.wMinute)

  004af	0f b7 c8	 movzx	 ecx, ax
  004b2	39 0f		 cmp	 DWORD PTR [edi], ecx
  004b4	75 08		 jne	 SHORT $LN43@StartNPC
  004b6	0f b7 ca	 movzx	 ecx, dx
  004b9	39 4f 04	 cmp	 DWORD PTR [edi+4], ecx
  004bc	74 27		 je	 SHORT $LN53@StartNPC
$LN43@StartNPC:

; 342  : #else
; 343  : 	if(t.wSecond == 00)
; 344  : #endif
; 345  : 	{
; 346  : 		for(int i = 0; i < this->Count; i++)

  004be	8b 4d e8	 mov	 ecx, DWORD PTR _i$204170[ebp]
  004c1	41		 inc	 ecx
  004c2	83 c7 08	 add	 edi, 8
  004c5	89 4d e8	 mov	 DWORD PTR _i$204170[ebp], ecx
  004c8	3b 8b 1c 2d 00
	00		 cmp	 ecx, DWORD PTR [ebx+11548]
  004ce	0f 8c ac fb ff
	ff		 jl	 $LL76@StartNPC
  004d4	5e		 pop	 esi
  004d5	5f		 pop	 edi
  004d6	5b		 pop	 ebx

; 431  : 				return;
; 432  : 			}
; 433  : 		}
; 434  : 	}
; 435  : }

  004d7	8b 4d fc	 mov	 ecx, DWORD PTR __$ArrayPad$[ebp]
  004da	33 cd		 xor	 ecx, ebp
  004dc	e8 00 00 00 00	 call	 @__security_check_cookie@4
  004e1	8b e5		 mov	 esp, ebp
  004e3	5d		 pop	 ebp
  004e4	c3		 ret	 0
$LN53@StartNPC:

; 429  : 			{
; 430  : 				this->EventStart();

  004e5	8b cb		 mov	 ecx, ebx
  004e7	e8 00 00 00 00	 call	 ?EventStart@cSearchEvent@@QAEXXZ ; cSearchEvent::EventStart
  004ec	5e		 pop	 esi
  004ed	5f		 pop	 edi
$LN42@StartNPC:

; 431  : 				return;
; 432  : 			}
; 433  : 		}
; 434  : 	}
; 435  : }

  004ee	8b 4d fc	 mov	 ecx, DWORD PTR __$ArrayPad$[ebp]
  004f1	33 cd		 xor	 ecx, ebp
  004f3	5b		 pop	 ebx
  004f4	e8 00 00 00 00	 call	 @__security_check_cookie@4
  004f9	8b e5		 mov	 esp, ebp
  004fb	5d		 pop	 ebp
  004fc	c3		 ret	 0
?StartNPC@cSearchEvent@@QAEXXZ ENDP			; cSearchEvent::StartNPC
_TEXT	ENDS
EXTRN	_atexit:PROC
; Function compile flags: /Ogtp
;	COMDAT ??__ESearchEvent@@YAXXZ
text$yc	SEGMENT
??__ESearchEvent@@YAXXZ PROC				; `dynamic initializer for 'SearchEvent'', COMDAT

; 16   : cSearchEvent SearchEvent;

  00000	b9 00 00 00 00	 mov	 ecx, OFFSET ?SearchEvent@@3VcSearchEvent@@A ; SearchEvent
  00005	e8 00 00 00 00	 call	 ??0cSearchEvent@@QAE@XZ	; cSearchEvent::cSearchEvent
  0000a	68 00 00 00 00	 push	 OFFSET ??__FSearchEvent@@YAXXZ ; `dynamic atexit destructor for 'SearchEvent''
  0000f	e8 00 00 00 00	 call	 _atexit
  00014	59		 pop	 ecx
  00015	c3		 ret	 0
??__ESearchEvent@@YAXXZ ENDP				; `dynamic initializer for 'SearchEvent''
; Function compile flags: /Ogtp
text$yc	ENDS
;	COMDAT ??__FSearchEvent@@YAXXZ
text$yd	SEGMENT
??__FSearchEvent@@YAXXZ PROC				; `dynamic atexit destructor for 'SearchEvent'', COMDAT
  00000	c3		 ret	 0
??__FSearchEvent@@YAXXZ ENDP				; `dynamic atexit destructor for 'SearchEvent''
text$yd	ENDS
PUBLIC	?SearchEvent@@3VcSearchEvent@@A			; SearchEvent
_BSS	SEGMENT
?SearchEvent@@3VcSearchEvent@@A DB 02d34H DUP (?)	; SearchEvent
_BSS	ENDS
CRT$XCU	SEGMENT
_SearchEvent$initializer$ DD FLAT:??__ESearchEvent@@YAXXZ
CRT$XCU	ENDS
END
