; Listing generated by Microsoft (R) Optimizing Compiler Version 16.00.30319.01 

	TITLE	E:\work\tranet_version\GS\GameServer\SendHackLog.cpp
	.686P
	.XMM
	include listing.inc
	.model	flat

INCLUDELIB LIBCMT
INCLUDELIB OLDNAMES

_DATA	SEGMENT
_g_iNpcUpDfLevel_CGATE DD 01H
	DD	02H
	DD	02dc6c0H
	DD	02H
	DD	03H
	DD	02dc6c0H
	DD	03H
	DD	04H
	DD	02dc6c0H
_g_iNpcUpDfLevel_CSTATUE DD 01H
	DD	03H
	DD	02dc6c0H
	DD	02H
	DD	05H
	DD	02dc6c0H
	DD	03H
	DD	07H
	DD	02dc6c0H
_g_iNpcUpMaxHP_CGATE DD 02625a0H
	DD	02H
	DD	0f4240H
	DD	03567e0H
	DD	03H
	DD	0f4240H
	DD	04f5880H
	DD	04H
	DD	0f4240H
_g_iNpcUpMaxHP_CSTATUE DD 02191c0H
	DD	03H
	DD	0f4240H
	DD	033e140H
	DD	05H
	DD	0f4240H
	DD	04c4b40H
	DD	07H
	DD	0f4240H
_g_iNpcUpRgLevel_CSTATUE DD 01H
	DD	03H
	DD	04c4b40H
	DD	02H
	DD	05H
	DD	04c4b40H
	DD	03H
	DD	07H
	DD	04c4b40H
_g_iCsUserReSpawnArea DD 023H
	DD	011H
	DD	090H
	DD	030H
	DD	04aH
	DD	090H
	DD	073H
	DD	09aH
	DD	023H
	DD	011H
	DD	090H
	DD	030H
_g_iNpcDefense_CGATE DD 064H
	DD	0b4H
	DD	012cH
	DD	0208H
_g_iNpcDefense_CSTATUE DD 050H
	DD	0b4H
	DD	0154H
	DD	0226H
_g_iCastleWallStepAxisY DD 071H
	DD	0a0H
	DD	0cbH
_DATA	ENDS
PUBLIC	??_H@YGXPAXIHP6EPAX0@Z@Z			; `vector constructor iterator'
; Function compile flags: /Ogtp
;	COMDAT ??_H@YGXPAXIHP6EPAX0@Z@Z
_TEXT	SEGMENT
___t$ = 8						; size = 4
___s$ = 12						; size = 4
___n$ = 16						; size = 4
___f$ = 20						; size = 4
??_H@YGXPAXIHP6EPAX0@Z@Z PROC				; `vector constructor iterator', COMDAT
  00000	55		 push	 ebp
  00001	8b ec		 mov	 ebp, esp
  00003	57		 push	 edi
  00004	8b 7d 10	 mov	 edi, DWORD PTR ___n$[ebp]
  00007	4f		 dec	 edi
  00008	78 14		 js	 SHORT $LN1@vector
  0000a	53		 push	 ebx
  0000b	8b 5d 14	 mov	 ebx, DWORD PTR ___f$[ebp]
  0000e	56		 push	 esi
  0000f	8b 75 08	 mov	 esi, DWORD PTR ___t$[ebp]
$LL2@vector:
  00012	8b ce		 mov	 ecx, esi
  00014	ff d3		 call	 ebx
  00016	03 75 0c	 add	 esi, DWORD PTR ___s$[ebp]
  00019	4f		 dec	 edi
  0001a	79 f6		 jns	 SHORT $LL2@vector
  0001c	5e		 pop	 esi
  0001d	5b		 pop	 ebx
$LN1@vector:
  0001e	5f		 pop	 edi
  0001f	5d		 pop	 ebp
  00020	c2 10 00	 ret	 16			; 00000010H
??_H@YGXPAXIHP6EPAX0@Z@Z ENDP				; `vector constructor iterator'
_TEXT	ENDS
PUBLIC	??_7CSendHackLog@@6B@				; CSendHackLog::`vftable'
PUBLIC	??0CSendHackLog@@QAE@XZ				; CSendHackLog::CSendHackLog
PUBLIC	??_R4CSendHackLog@@6B@				; CSendHackLog::`RTTI Complete Object Locator'
PUBLIC	??_R0?AVCSendHackLog@@@8			; CSendHackLog `RTTI Type Descriptor'
PUBLIC	??_R3CSendHackLog@@8				; CSendHackLog::`RTTI Class Hierarchy Descriptor'
PUBLIC	??_R2CSendHackLog@@8				; CSendHackLog::`RTTI Base Class Array'
PUBLIC	??_R1A@?0A@EA@CSendHackLog@@8			; CSendHackLog::`RTTI Base Class Descriptor at (0,-1,0,64)'
EXTRN	??0WzUdp@@QAE@XZ:PROC				; WzUdp::WzUdp
EXTRN	??_7type_info@@6B@:QWORD			; type_info::`vftable'
EXTRN	??_ECSendHackLog@@UAEPAXI@Z:PROC		; CSendHackLog::`vector deleting destructor'
;	COMDAT ??_R1A@?0A@EA@CSendHackLog@@8
; File e:\work\tranet_version\gs\gameserver\sendhacklog.cpp
rdata$r	SEGMENT
??_R1A@?0A@EA@CSendHackLog@@8 DD FLAT:??_R0?AVCSendHackLog@@@8 ; CSendHackLog::`RTTI Base Class Descriptor at (0,-1,0,64)'
	DD	00H
	DD	00H
	DD	0ffffffffH
	DD	00H
	DD	040H
	DD	FLAT:??_R3CSendHackLog@@8
rdata$r	ENDS
;	COMDAT ??_R2CSendHackLog@@8
rdata$r	SEGMENT
??_R2CSendHackLog@@8 DD FLAT:??_R1A@?0A@EA@CSendHackLog@@8 ; CSendHackLog::`RTTI Base Class Array'
rdata$r	ENDS
;	COMDAT ??_R3CSendHackLog@@8
rdata$r	SEGMENT
??_R3CSendHackLog@@8 DD 00H				; CSendHackLog::`RTTI Class Hierarchy Descriptor'
	DD	00H
	DD	01H
	DD	FLAT:??_R2CSendHackLog@@8
rdata$r	ENDS
;	COMDAT ??_R0?AVCSendHackLog@@@8
_DATA	SEGMENT
??_R0?AVCSendHackLog@@@8 DD FLAT:??_7type_info@@6B@	; CSendHackLog `RTTI Type Descriptor'
	DD	00H
	DB	'.?AVCSendHackLog@@', 00H
_DATA	ENDS
;	COMDAT ??_R4CSendHackLog@@6B@
rdata$r	SEGMENT
??_R4CSendHackLog@@6B@ DD 00H				; CSendHackLog::`RTTI Complete Object Locator'
	DD	00H
	DD	00H
	DD	FLAT:??_R0?AVCSendHackLog@@@8
	DD	FLAT:??_R3CSendHackLog@@8
rdata$r	ENDS
;	COMDAT ??_7CSendHackLog@@6B@
CONST	SEGMENT
??_7CSendHackLog@@6B@ DD FLAT:??_R4CSendHackLog@@6B@	; CSendHackLog::`vftable'
	DD	FLAT:??_ECSendHackLog@@UAEPAXI@Z
; Function compile flags: /Ogtp
CONST	ENDS
;	COMDAT ??0CSendHackLog@@QAE@XZ
_TEXT	SEGMENT
??0CSendHackLog@@QAE@XZ PROC				; CSendHackLog::CSendHackLog, COMDAT
; _this$ = ecx

; 12   : {

  00000	56		 push	 esi
  00001	8b f1		 mov	 esi, ecx
  00003	8d 4e 04	 lea	 ecx, DWORD PTR [esi+4]
  00006	c7 06 00 00 00
	00		 mov	 DWORD PTR [esi], OFFSET ??_7CSendHackLog@@6B@
  0000c	e8 00 00 00 00	 call	 ??0WzUdp@@QAE@XZ	; WzUdp::WzUdp

; 13   : 	return;
; 14   : }

  00011	8b c6		 mov	 eax, esi
  00013	5e		 pop	 esi
  00014	c3		 ret	 0
??0CSendHackLog@@QAE@XZ ENDP				; CSendHackLog::CSendHackLog
_TEXT	ENDS
PUBLIC	??1CSendHackLog@@UAE@XZ				; CSendHackLog::~CSendHackLog
EXTRN	??1WzUdp@@UAE@XZ:PROC				; WzUdp::~WzUdp
; Function compile flags: /Ogtp
;	COMDAT ??1CSendHackLog@@UAE@XZ
_TEXT	SEGMENT
??1CSendHackLog@@UAE@XZ PROC				; CSendHackLog::~CSendHackLog, COMDAT
; _this$ = ecx

; 18   : {

  00000	c7 01 00 00 00
	00		 mov	 DWORD PTR [ecx], OFFSET ??_7CSendHackLog@@6B@

; 19   : 	return;
; 20   : }

  00006	83 c1 04	 add	 ecx, 4
  00009	e9 00 00 00 00	 jmp	 ??1WzUdp@@UAE@XZ	; WzUdp::~WzUdp
??1CSendHackLog@@UAE@XZ ENDP				; CSendHackLog::~CSendHackLog
_TEXT	ENDS
PUBLIC	?SendSet@CSendHackLog@@QAEXPADH@Z		; CSendHackLog::SendSet
EXTRN	?SendSet@WzUdp@@QAEHPADH@Z:PROC			; WzUdp::SendSet
EXTRN	?CreateSocket@WzUdp@@QAEHXZ:PROC		; WzUdp::CreateSocket
; Function compile flags: /Ogtp
;	COMDAT ?SendSet@CSendHackLog@@QAEXPADH@Z
_TEXT	SEGMENT
_ip$ = 8						; size = 4
_port$ = 12						; size = 4
?SendSet@CSendHackLog@@QAEXPADH@Z PROC			; CSendHackLog::SendSet, COMDAT
; _this$ = ecx

; 24   : {

  00000	55		 push	 ebp
  00001	8b ec		 mov	 ebp, esp
  00003	56		 push	 esi

; 25   : 	this->m_UdpSocCHackLog.CreateSocket();

  00004	8d 71 04	 lea	 esi, DWORD PTR [ecx+4]
  00007	8b ce		 mov	 ecx, esi
  00009	e8 00 00 00 00	 call	 ?CreateSocket@WzUdp@@QAEHXZ ; WzUdp::CreateSocket

; 26   : 	this->m_UdpSocCHackLog.SendSet(ip, port);

  0000e	8b 45 0c	 mov	 eax, DWORD PTR _port$[ebp]
  00011	8b 4d 08	 mov	 ecx, DWORD PTR _ip$[ebp]
  00014	50		 push	 eax
  00015	51		 push	 ecx
  00016	8b ce		 mov	 ecx, esi
  00018	e8 00 00 00 00	 call	 ?SendSet@WzUdp@@QAEHPADH@Z ; WzUdp::SendSet
  0001d	5e		 pop	 esi

; 27   : }

  0001e	5d		 pop	 ebp
  0001f	c2 08 00	 ret	 8
?SendSet@CSendHackLog@@QAEXPADH@Z ENDP			; CSendHackLog::SendSet
_TEXT	ENDS
PUBLIC	__$ArrayPad$
PUBLIC	?Send@CSendHackLog@@QAEXHEPAD@Z			; CSendHackLog::Send
EXTRN	?SendData@WzUdp@@QAEHPAEK@Z:PROC		; WzUdp::SendData
EXTRN	?gObj@@3PAUOBJECTSTRUCT@@A:DWORD		; gObj
EXTRN	?gGameServerCode@@3FA:WORD			; gGameServerCode
EXTRN	?PHeadSetB@@YAXPAEEH@Z:PROC			; PHeadSetB
EXTRN	___security_cookie:DWORD
EXTRN	@__security_check_cookie@4:PROC
; Function compile flags: /Ogtp
;	COMDAT ?Send@CSendHackLog@@QAEXHEPAD@Z
_TEXT	SEGMENT
_Msg$ = -84						; size = 80
__$ArrayPad$ = -4					; size = 4
_aIndex$ = 8						; size = 4
_type$ = 12						; size = 1
_Context$ = 16						; size = 4
?Send@CSendHackLog@@QAEXHEPAD@Z PROC			; CSendHackLog::Send, COMDAT
; _this$ = ecx

; 40   : {

  00000	55		 push	 ebp
  00001	8b ec		 mov	 ebp, esp
  00003	83 ec 54	 sub	 esp, 84			; 00000054H
  00006	a1 00 00 00 00	 mov	 eax, DWORD PTR ___security_cookie
  0000b	33 c5		 xor	 eax, ebp
  0000d	89 45 fc	 mov	 DWORD PTR __$ArrayPad$[ebp], eax
  00010	53		 push	 ebx
  00011	56		 push	 esi
  00012	8b 75 10	 mov	 esi, DWORD PTR _Context$[ebp]
  00015	57		 push	 edi
  00016	8b 7d 08	 mov	 edi, DWORD PTR _aIndex$[ebp]

; 41   : 	PMSG_HACK_LOG Msg;
; 42   : 	
; 43   : 	PHeadSetB((LPBYTE)&Msg, 0x01, sizeof(Msg) );

  00019	6a 50		 push	 80			; 00000050H
  0001b	8d 45 ac	 lea	 eax, DWORD PTR _Msg$[ebp]
  0001e	6a 01		 push	 1
  00020	50		 push	 eax
  00021	8b d9		 mov	 ebx, ecx
  00023	e8 00 00 00 00	 call	 ?PHeadSetB@@YAXPAEEH@Z	; PHeadSetB

; 44   : 	Msg.wServer = gGameServerCode;
; 45   : 	memcpy(Msg.AccountID, gObj[aIndex].AccountID , MAX_ACCOUNT_LEN );

  00028	69 ff 50 2b 00
	00		 imul	 edi, 11088		; 00002b50H
  0002e	0f b7 0d 00 00
	00 00		 movzx	 ecx, WORD PTR ?gGameServerCode@@3FA ; gGameServerCode
  00035	8b 15 00 00 00
	00		 mov	 edx, DWORD PTR ?gObj@@3PAUOBJECTSTRUCT@@A ; gObj
  0003b	8d 04 17	 lea	 eax, DWORD PTR [edi+edx]
  0003e	66 89 4d b0	 mov	 WORD PTR _Msg$[ebp+4], cx
  00042	8b 48 6c	 mov	 ecx, DWORD PTR [eax+108]
  00045	89 4d b2	 mov	 DWORD PTR _Msg$[ebp+6], ecx
  00048	8b 50 70	 mov	 edx, DWORD PTR [eax+112]
  0004b	89 55 b6	 mov	 DWORD PTR _Msg$[ebp+10], edx
  0004e	0f b7 48 74	 movzx	 ecx, WORD PTR [eax+116]
  00052	66 89 4d ba	 mov	 WORD PTR _Msg$[ebp+14], cx

; 46   : 	memcpy(Msg.Name, gObj[aIndex].Name, MAX_ACCOUNT_LEN );

  00056	8b 50 77	 mov	 edx, DWORD PTR [eax+119]
  00059	89 55 bd	 mov	 DWORD PTR _Msg$[ebp+17], edx
  0005c	8b 48 7b	 mov	 ecx, DWORD PTR [eax+123]
  0005f	89 4d c1	 mov	 DWORD PTR _Msg$[ebp+21], ecx
  00062	66 8b 50 7f	 mov	 dx, WORD PTR [eax+127]

; 47   : 	Msg.AccountID[MAX_ACCOUNT_LEN] = 0;

  00066	32 c0		 xor	 al, al
  00068	88 45 bc	 mov	 BYTE PTR _Msg$[ebp+16], al

; 48   : 	Msg.Name[MAX_ACCOUNT_LEN] = 0;

  0006b	88 45 c7	 mov	 BYTE PTR _Msg$[ebp+27], al

; 49   : 	Msg.btType = type;

  0006e	8a 45 0c	 mov	 al, BYTE PTR _type$[ebp]
  00071	66 89 55 c5	 mov	 WORD PTR _Msg$[ebp+25], dx
  00075	88 45 c8	 mov	 BYTE PTR _Msg$[ebp+28], al

; 50   : 	memcpy(Msg.szPacketContext, Context, sizeof(Msg.szPacketContext) );

  00078	b9 0c 00 00 00	 mov	 ecx, 12			; 0000000cH
  0007d	8d 7d c9	 lea	 edi, DWORD PTR _Msg$[ebp+29]
  00080	f3 a5		 rep movsd
  00082	83 c4 0c	 add	 esp, 12			; 0000000cH

; 51   : 
; 52   : 	this->m_UdpSocCHackLog.SendData((LPBYTE)&Msg, sizeof(Msg) );

  00085	6a 50		 push	 80			; 00000050H
  00087	8d 4d ac	 lea	 ecx, DWORD PTR _Msg$[ebp]
  0008a	51		 push	 ecx
  0008b	8d 4b 04	 lea	 ecx, DWORD PTR [ebx+4]
  0008e	66 a5		 movsw
  00090	e8 00 00 00 00	 call	 ?SendData@WzUdp@@QAEHPAEK@Z ; WzUdp::SendData

; 53   : }

  00095	8b 4d fc	 mov	 ecx, DWORD PTR __$ArrayPad$[ebp]
  00098	5f		 pop	 edi
  00099	5e		 pop	 esi
  0009a	33 cd		 xor	 ecx, ebp
  0009c	5b		 pop	 ebx
  0009d	e8 00 00 00 00	 call	 @__security_check_cookie@4
  000a2	8b e5		 mov	 esp, ebp
  000a4	5d		 pop	 ebp
  000a5	c2 0c 00	 ret	 12			; 0000000cH
?Send@CSendHackLog@@QAEXHEPAD@Z ENDP			; CSendHackLog::Send
_TEXT	ENDS
PUBLIC	?SendData@CSendHackLog@@QAEHPAEK@Z		; CSendHackLog::SendData
; Function compile flags: /Ogtp
;	COMDAT ?SendData@CSendHackLog@@QAEHPAEK@Z
_TEXT	SEGMENT
_SendData$ = 8						; size = 4
_nSendDataLen$ = 12					; size = 4
?SendData@CSendHackLog@@QAEHPAEK@Z PROC			; CSendHackLog::SendData, COMDAT
; _this$ = ecx

; 57   : {

  00000	55		 push	 ebp
  00001	8b ec		 mov	 ebp, esp

; 58   : 	return this->m_UdpSocCHackLog.SendData(SendData, nSendDataLen);

  00003	83 c1 04	 add	 ecx, 4

; 59   : }

  00006	5d		 pop	 ebp

; 58   : 	return this->m_UdpSocCHackLog.SendData(SendData, nSendDataLen);

  00007	e9 00 00 00 00	 jmp	 ?SendData@WzUdp@@QAEHPAEK@Z ; WzUdp::SendData
?SendData@CSendHackLog@@QAEHPAEK@Z ENDP			; CSendHackLog::SendData
_TEXT	ENDS
EXTRN	??3@YAXPAX@Z:PROC				; operator delete
; Function compile flags: /Ogtp
;	COMDAT ??_GCSendHackLog@@UAEPAXI@Z
_TEXT	SEGMENT
___flags$ = 8						; size = 4
??_GCSendHackLog@@UAEPAXI@Z PROC			; CSendHackLog::`scalar deleting destructor', COMDAT
; _this$ = ecx
  00000	55		 push	 ebp
  00001	8b ec		 mov	 ebp, esp
  00003	56		 push	 esi
  00004	8b f1		 mov	 esi, ecx
  00006	e8 00 00 00 00	 call	 ??1CSendHackLog@@UAE@XZ	; CSendHackLog::~CSendHackLog
  0000b	f6 45 08 01	 test	 BYTE PTR ___flags$[ebp], 1
  0000f	74 09		 je	 SHORT $LN4@scalar
  00011	56		 push	 esi
  00012	e8 00 00 00 00	 call	 ??3@YAXPAX@Z		; operator delete
  00017	83 c4 04	 add	 esp, 4
$LN4@scalar:
  0001a	8b c6		 mov	 eax, esi
  0001c	5e		 pop	 esi
  0001d	5d		 pop	 ebp
  0001e	c2 04 00	 ret	 4
??_GCSendHackLog@@UAEPAXI@Z ENDP			; CSendHackLog::`scalar deleting destructor'
_TEXT	ENDS
EXTRN	_atexit:PROC
; Function compile flags: /Ogtp
;	COMDAT ??__EgSendHackLog@@YAXXZ
text$yc	SEGMENT
??__EgSendHackLog@@YAXXZ PROC				; `dynamic initializer for 'gSendHackLog'', COMDAT

; 8    : CSendHackLog gSendHackLog;

  00000	b9 00 00 00 00	 mov	 ecx, OFFSET ?gSendHackLog@@3VCSendHackLog@@A ; gSendHackLog
  00005	e8 00 00 00 00	 call	 ??0CSendHackLog@@QAE@XZ	; CSendHackLog::CSendHackLog
  0000a	68 00 00 00 00	 push	 OFFSET ??__FgSendHackLog@@YAXXZ ; `dynamic atexit destructor for 'gSendHackLog''
  0000f	e8 00 00 00 00	 call	 _atexit
  00014	59		 pop	 ecx
  00015	c3		 ret	 0
??__EgSendHackLog@@YAXXZ ENDP				; `dynamic initializer for 'gSendHackLog''
; Function compile flags: /Ogtp
text$yc	ENDS
;	COMDAT ??__FgSendHackLog@@YAXXZ
text$yd	SEGMENT
??__FgSendHackLog@@YAXXZ PROC				; `dynamic atexit destructor for 'gSendHackLog'', COMDAT
  00000	b9 00 00 00 00	 mov	 ecx, OFFSET ?gSendHackLog@@3VCSendHackLog@@A ; gSendHackLog
  00005	e9 00 00 00 00	 jmp	 ??1CSendHackLog@@UAE@XZ	; CSendHackLog::~CSendHackLog
??__FgSendHackLog@@YAXXZ ENDP				; `dynamic atexit destructor for 'gSendHackLog''
text$yd	ENDS
PUBLIC	?gSendHackLog@@3VCSendHackLog@@A		; gSendHackLog
_BSS	SEGMENT
?gSendHackLog@@3VCSendHackLog@@A DB 0864H DUP (?)	; gSendHackLog
_BSS	ENDS
CRT$XCU	SEGMENT
_gSendHackLog$initializer$ DD FLAT:??__EgSendHackLog@@YAXXZ
CRT$XCU	ENDS
END
