; Listing generated by Microsoft (R) Optimizing Compiler Version 16.00.30319.01 

	TITLE	E:\work\tranet_version\GS\GameServer\SetItemMacro.cpp
	.686P
	.XMM
	include listing.inc
	.model	flat

INCLUDELIB LIBCMT
INCLUDELIB OLDNAMES

PUBLIC	__$ArrayPad$
EXTRN	_isalnum:PROC
EXTRN	_isalpha:PROC
EXTRN	_atof:PROC
EXTRN	_isdigit:PROC
EXTRN	_getc:PROC
EXTRN	_ungetc:PROC
EXTRN	_isspace:PROC
EXTRN	_fgetc:PROC
EXTRN	___security_cookie:DWORD
EXTRN	__fltused:DWORD
EXTRN	@__security_check_cookie@4:PROC
_BSS	SEGMENT
_CurrentToken DD 01H DUP (?)
_TokenNumber DD	01H DUP (?)
_SMDFile DD	01H DUP (?)
_TokenString DB	064H DUP (?)
; Function compile flags: /Ogtp
; File e:\work\tranet_version\gs\include\readscript.h
_BSS	ENDS
;	COMDAT ?GetToken@@YA?AW4SMDToken@@XZ
_TEXT	SEGMENT
_TempString$ = -104					; size = 100
__$ArrayPad$ = -4					; size = 4
?GetToken@@YA?AW4SMDToken@@XZ PROC			; GetToken, COMDAT

; 24   : {

  00000	55		 push	 ebp
  00001	8b ec		 mov	 ebp, esp
  00003	83 ec 68	 sub	 esp, 104		; 00000068H
  00006	a1 00 00 00 00	 mov	 eax, DWORD PTR ___security_cookie
  0000b	33 c5		 xor	 eax, ebp
  0000d	89 45 fc	 mov	 DWORD PTR __$ArrayPad$[ebp], eax

; 25   : 	char ch;
; 26   : 	char* p;
; 27   : 	char TempString[100];
; 28   : 
; 29   : 	TokenString[0]=0;

  00010	c6 05 00 00 00
	00 00		 mov	 BYTE PTR _TokenString, 0
  00017	53		 push	 ebx
  00018	eb 06 8d 9b 00
	00 00 00	 npad	 8
$LL31@GetToken:

; 30   : 
; 31   : 	do
; 32   : 	{
; 33   : 		if ((ch=fgetc(SMDFile)) == -1)

  00020	a1 00 00 00 00	 mov	 eax, DWORD PTR _SMDFile
  00025	50		 push	 eax
  00026	e8 00 00 00 00	 call	 _fgetc
  0002b	8a d8		 mov	 bl, al
  0002d	83 c4 04	 add	 esp, 4
  00030	80 fb ff	 cmp	 bl, -1
  00033	74 64		 je	 SHORT $LN39@GetToken

; 36   : 		}
; 37   : 		else
; 38   : 		{	
; 39   : 			if (ch=='/')		// this is /

  00035	80 fb 2f	 cmp	 bl, 47			; 0000002fH
  00038	75 31		 jne	 SHORT $LN30@GetToken

; 40   : 			{
; 41   : 				if((ch=fgetc(SMDFile)) == '/')

  0003a	8b 0d 00 00 00
	00		 mov	 ecx, DWORD PTR _SMDFile
  00040	51		 push	 ecx
  00041	e8 00 00 00 00	 call	 _fgetc
  00046	8a d8		 mov	 bl, al
  00048	83 c4 04	 add	 esp, 4
  0004b	80 fb 2f	 cmp	 bl, 47			; 0000002fH
  0004e	75 1b		 jne	 SHORT $LN30@GetToken
$LL24@GetToken:

; 42   : 				{
; 43   : 					while ((ch != '\n') && (ch != -1))	// End of Line (EOL)

  00050	80 fb ff	 cmp	 bl, -1
  00053	74 44		 je	 SHORT $LN39@GetToken

; 44   : 					{
; 45   : 						ch=fgetc(SMDFile);

  00055	8b 15 00 00 00
	00		 mov	 edx, DWORD PTR _SMDFile
  0005b	52		 push	 edx
  0005c	e8 00 00 00 00	 call	 _fgetc
  00061	8a d8		 mov	 bl, al
  00063	83 c4 04	 add	 esp, 4
  00066	80 fb 0a	 cmp	 bl, 10			; 0000000aH
  00069	75 e5		 jne	 SHORT $LL24@GetToken
$LN30@GetToken:

; 46   : 					}
; 47   : 	
; 48   : 					if (ch == -1)
; 49   : 					{
; 50   : 						return END;	// End of FILE
; 51   : 					}
; 52   : 				}
; 53   : 			}
; 54   : 		}
; 55   : 	}
; 56   : 	while (isspace(ch) != 0);

  0006b	0f be c3	 movsx	 eax, bl
  0006e	50		 push	 eax
  0006f	e8 00 00 00 00	 call	 _isspace
  00074	83 c4 04	 add	 esp, 4
  00077	85 c0		 test	 eax, eax
  00079	75 a5		 jne	 SHORT $LL31@GetToken

; 57   : 
; 58   : 	
; 59   : 	switch(ch)

  0007b	0f be c3	 movsx	 eax, bl
  0007e	8d 48 de	 lea	 ecx, DWORD PTR [eax-34]
  00081	56		 push	 esi
  00082	83 f9 5b	 cmp	 ecx, 91			; 0000005bH
  00085	0f 87 2b 01 00
	00		 ja	 $LN6@GetToken
  0008b	0f b6 89 00 00
	00 00		 movzx	 ecx, BYTE PTR $LN46@GetToken[ecx]
  00092	ff 24 8d 00 00
	00 00		 jmp	 DWORD PTR $LN50@GetToken[ecx*4]
$LN39@GetToken:

; 34   : 		{
; 35   : 			return END;	// End of FILE (EOF)

  00099	b8 02 00 00 00	 mov	 eax, 2
  0009e	5b		 pop	 ebx

; 147  : 		}
; 148  : 		break;
; 149  : 
; 150  : 	}
; 151  : 
; 152  : 	return NAME;
; 153  : }

  0009f	8b 4d fc	 mov	 ecx, DWORD PTR __$ArrayPad$[ebp]
  000a2	33 cd		 xor	 ecx, ebp
  000a4	e8 00 00 00 00	 call	 @__security_check_cookie@4
  000a9	8b e5		 mov	 esp, ebp
  000ab	5d		 pop	 ebp
  000ac	c3		 ret	 0
$LN19@GetToken:

; 60   : 	{
; 61   : 
; 62   : 	case 0x23:	// #
; 63   : 		return CurrentToken=COMMAND;

  000ad	b8 23 00 00 00	 mov	 eax, 35			; 00000023H
  000b2	e9 99 01 00 00	 jmp	 $LN48@GetToken
$LN18@GetToken:

; 64   : 		break;
; 65   : 	
; 66   : 	case 0x3B:	// ;
; 67   : 		return CurrentToken=SEMICOLON;

  000b7	b8 3b 00 00 00	 mov	 eax, 59			; 0000003bH
  000bc	e9 8f 01 00 00	 jmp	 $LN48@GetToken
$LN17@GetToken:

; 68   : 		break;
; 69   : 	
; 70   : 	case 0x2C:	// ,
; 71   : 
; 72   : 		return CurrentToken=COMMA;

  000c1	b8 2c 00 00 00	 mov	 eax, 44			; 0000002cH
  000c6	e9 85 01 00 00	 jmp	 $LN48@GetToken
$LN16@GetToken:

; 73   : 		break;
; 74   : 	
; 75   : 	case 0x7B:	// {
; 76   : 		return CurrentToken = LP;

  000cb	b8 7b 00 00 00	 mov	 eax, 123		; 0000007bH
  000d0	e9 7b 01 00 00	 jmp	 $LN48@GetToken
$LN15@GetToken:

; 77   : 		break;
; 78   : 
; 79   : 	case 0x7D:	// }
; 80   : 		return CurrentToken = RP;

  000d5	b8 7d 00 00 00	 mov	 eax, 125		; 0000007dH
  000da	e9 71 01 00 00	 jmp	 $LN48@GetToken
$LN14@GetToken:

; 81   : 		break;
; 82   : 	// Nice Index Table :)	by Deathway
; 83   : 	// Numbers Case
; 84   : 	case 0x2D:	//-
; 85   : 	case 0x2E:	//.
; 86   : 	case '0':	//0
; 87   : 	case '1':	//1
; 88   : 	case '2':	//2
; 89   : 	case '3':	//3
; 90   : 	case '4':	//4		
; 91   : 	case '5':	//5
; 92   : 	case '6':	//6
; 93   : 	case '7':	//7
; 94   : 	case '8':	//8
; 95   : 	case '9':	//9
; 96   : 		ungetc(ch, SMDFile);

  000df	8b 15 00 00 00
	00		 mov	 edx, DWORD PTR _SMDFile
  000e5	52		 push	 edx
  000e6	50		 push	 eax
  000e7	e8 00 00 00 00	 call	 _ungetc

; 97   : 		p = TempString;
; 98   : 		
; 99   : 		while (((ch=getc(SMDFile)) != -1) && ((ch == 0x2E) || (isdigit(ch) != 0) || (ch == 0x2D)))  // 2e '.'  2D '-'

  000ec	a1 00 00 00 00	 mov	 eax, DWORD PTR _SMDFile
  000f1	50		 push	 eax
  000f2	8d 75 98	 lea	 esi, DWORD PTR _TempString$[ebp]
  000f5	e8 00 00 00 00	 call	 _getc
  000fa	8a d8		 mov	 bl, al
  000fc	83 c4 0c	 add	 esp, 12			; 0000000cH
  000ff	80 fb ff	 cmp	 bl, -1
  00102	74 33		 je	 SHORT $LN12@GetToken
$LL13@GetToken:
  00104	80 fb 2e	 cmp	 bl, 46			; 0000002eH
  00107	74 15		 je	 SHORT $LN11@GetToken
  00109	0f be cb	 movsx	 ecx, bl
  0010c	51		 push	 ecx
  0010d	e8 00 00 00 00	 call	 _isdigit
  00112	83 c4 04	 add	 esp, 4
  00115	85 c0		 test	 eax, eax
  00117	75 05		 jne	 SHORT $LN11@GetToken
  00119	80 fb 2d	 cmp	 bl, 45			; 0000002dH
  0011c	75 19		 jne	 SHORT $LN12@GetToken
$LN11@GetToken:
  0011e	8b 15 00 00 00
	00		 mov	 edx, DWORD PTR _SMDFile

; 100  : 		{
; 101  : 			*p = ch;	// Construct a String

  00124	88 1e		 mov	 BYTE PTR [esi], bl
  00126	52		 push	 edx

; 102  : 			p++;

  00127	46		 inc	 esi
  00128	e8 00 00 00 00	 call	 _getc
  0012d	8a d8		 mov	 bl, al
  0012f	83 c4 04	 add	 esp, 4
  00132	80 fb ff	 cmp	 bl, -1
  00135	75 cd		 jne	 SHORT $LL13@GetToken
$LN12@GetToken:

; 103  : 		}		
; 104  : 		*p = 0;
; 105  : 		TokenNumber = atof( TempString);	// Select the first Byte as Main ID

  00137	8d 45 98	 lea	 eax, DWORD PTR _TempString$[ebp]
  0013a	50		 push	 eax
  0013b	c6 06 00	 mov	 BYTE PTR [esi], 0
  0013e	e8 00 00 00 00	 call	 _atof
  00143	d9 1d 00 00 00
	00		 fstp	 DWORD PTR _TokenNumber
  00149	83 c4 04	 add	 esp, 4
  0014c	5e		 pop	 esi

; 106  : 		return CurrentToken  = NUMBER ;

  0014d	c7 05 00 00 00
	00 01 00 00 00	 mov	 DWORD PTR _CurrentToken, 1
  00157	b8 01 00 00 00	 mov	 eax, 1
  0015c	5b		 pop	 ebx

; 147  : 		}
; 148  : 		break;
; 149  : 
; 150  : 	}
; 151  : 
; 152  : 	return NAME;
; 153  : }

  0015d	8b 4d fc	 mov	 ecx, DWORD PTR __$ArrayPad$[ebp]
  00160	33 cd		 xor	 ecx, ebp
  00162	e8 00 00 00 00	 call	 @__security_check_cookie@4
  00167	8b e5		 mov	 esp, ebp
  00169	5d		 pop	 ebp
  0016a	c3		 ret	 0
$LN10@GetToken:

; 107  : 		break;
; 108  : 
; 109  : 	case '\"':	// "	String Case
; 110  : 		p=&TokenString[0];
; 111  : 		
; 112  : 		while (((ch=getc(SMDFile)) != -1 ) && (ch != 0x22))	// nice

  0016b	8b 0d 00 00 00
	00		 mov	 ecx, DWORD PTR _SMDFile
  00171	51		 push	 ecx
  00172	be 00 00 00 00	 mov	 esi, OFFSET _TokenString
  00177	e8 00 00 00 00	 call	 _getc
  0017c	83 c4 04	 add	 esp, 4
  0017f	3c ff		 cmp	 al, -1
  00181	74 1e		 je	 SHORT $LN8@GetToken
$LL9@GetToken:
  00183	3c 22		 cmp	 al, 34			; 00000022H
  00185	0f 84 a1 00 00
	00		 je	 $LN7@GetToken
  0018b	8b 15 00 00 00
	00		 mov	 edx, DWORD PTR _SMDFile

; 113  : 		{
; 114  : 			*p = ch;

  00191	88 06		 mov	 BYTE PTR [esi], al
  00193	52		 push	 edx

; 115  : 			p++;

  00194	46		 inc	 esi
  00195	e8 00 00 00 00	 call	 _getc
  0019a	83 c4 04	 add	 esp, 4
  0019d	3c ff		 cmp	 al, -1
  0019f	75 e2		 jne	 SHORT $LL9@GetToken
$LN8@GetToken:

; 116  : 		}
; 117  : 		if (ch != 0x22 )

  001a1	3c 22		 cmp	 al, 34			; 00000022H
  001a3	0f 84 83 00 00
	00		 je	 $LN7@GetToken

; 118  : 		{
; 119  : 			ungetc(ch, SMDFile);

  001a9	8b 0d 00 00 00
	00		 mov	 ecx, DWORD PTR _SMDFile
  001af	0f be d0	 movsx	 edx, al
  001b2	51		 push	 ecx
  001b3	52		 push	 edx

; 120  : 		}
; 121  : 		*p = 0;
; 122  : 		return CurrentToken = NAME;

  001b4	eb 6e		 jmp	 SHORT $LN49@GetToken
$LN6@GetToken:

; 123  : 		break;
; 124  : 
; 125  : 	default:	// Others
; 126  : 		if (isalpha(ch))

  001b6	50		 push	 eax
  001b7	e8 00 00 00 00	 call	 _isalpha
  001bc	83 c4 04	 add	 esp, 4
  001bf	85 c0		 test	 eax, eax
  001c1	0f 84 84 00 00
	00		 je	 $LN5@GetToken

; 127  : 		{
; 128  : 			p=&TokenString[0];
; 129  : 			*p=ch;
; 130  : 			p++;
; 131  : 
; 132  : 			while ( ((ch=getc(SMDFile)) != -1) && ( (ch == 0x2E) || (ch == 0x5F) || (isalnum(ch) != 0) ) )

  001c7	a1 00 00 00 00	 mov	 eax, DWORD PTR _SMDFile
  001cc	50		 push	 eax
  001cd	88 1d 00 00 00
	00		 mov	 BYTE PTR _TokenString, bl
  001d3	be 01 00 00 00	 mov	 esi, OFFSET _TokenString+1
  001d8	e8 00 00 00 00	 call	 _getc
  001dd	8a d8		 mov	 bl, al
  001df	83 c4 04	 add	 esp, 4
  001e2	80 fb ff	 cmp	 bl, -1
  001e5	74 33		 je	 SHORT $LN3@GetToken
$LL4@GetToken:
  001e7	80 fb 2e	 cmp	 bl, 46			; 0000002eH
  001ea	74 15		 je	 SHORT $LN2@GetToken
  001ec	80 fb 5f	 cmp	 bl, 95			; 0000005fH
  001ef	74 10		 je	 SHORT $LN2@GetToken
  001f1	0f be cb	 movsx	 ecx, bl
  001f4	51		 push	 ecx
  001f5	e8 00 00 00 00	 call	 _isalnum
  001fa	83 c4 04	 add	 esp, 4
  001fd	85 c0		 test	 eax, eax
  001ff	74 19		 je	 SHORT $LN3@GetToken
$LN2@GetToken:
  00201	8b 15 00 00 00
	00		 mov	 edx, DWORD PTR _SMDFile

; 133  : 			{
; 134  : 				*p=ch;

  00207	88 1e		 mov	 BYTE PTR [esi], bl
  00209	52		 push	 edx

; 135  : 				p++;

  0020a	46		 inc	 esi
  0020b	e8 00 00 00 00	 call	 _getc
  00210	8a d8		 mov	 bl, al
  00212	83 c4 04	 add	 esp, 4
  00215	80 fb ff	 cmp	 bl, -1
  00218	75 cd		 jne	 SHORT $LL4@GetToken
$LN3@GetToken:

; 136  : 				
; 137  : 			}
; 138  : 
; 139  : 			ungetc(ch, SMDFile);

  0021a	a1 00 00 00 00	 mov	 eax, DWORD PTR _SMDFile
  0021f	0f be cb	 movsx	 ecx, bl
  00222	50		 push	 eax
  00223	51		 push	 ecx
$LN49@GetToken:
  00224	e8 00 00 00 00	 call	 _ungetc
  00229	83 c4 08	 add	 esp, 8
$LN7@GetToken:

; 140  : 			*p=0;

  0022c	c6 06 00	 mov	 BYTE PTR [esi], 0
  0022f	5e		 pop	 esi

; 141  : 			CurrentToken=NAME;

  00230	c7 05 00 00 00
	00 00 00 00 00	 mov	 DWORD PTR _CurrentToken, 0

; 142  : 			return CurrentToken;

  0023a	33 c0		 xor	 eax, eax
  0023c	5b		 pop	 ebx

; 147  : 		}
; 148  : 		break;
; 149  : 
; 150  : 	}
; 151  : 
; 152  : 	return NAME;
; 153  : }

  0023d	8b 4d fc	 mov	 ecx, DWORD PTR __$ArrayPad$[ebp]
  00240	33 cd		 xor	 ecx, ebp
  00242	e8 00 00 00 00	 call	 @__security_check_cookie@4
  00247	8b e5		 mov	 esp, ebp
  00249	5d		 pop	 ebp
  0024a	c3		 ret	 0
$LN5@GetToken:

; 143  : 		}
; 144  : 		else
; 145  : 		{
; 146  : 			return CurrentToken = SMD_ERROR; // '<'

  0024b	b8 3c 00 00 00	 mov	 eax, 60			; 0000003cH
$LN48@GetToken:

; 147  : 		}
; 148  : 		break;
; 149  : 
; 150  : 	}
; 151  : 
; 152  : 	return NAME;
; 153  : }

  00250	8b 4d fc	 mov	 ecx, DWORD PTR __$ArrayPad$[ebp]
  00253	5e		 pop	 esi
  00254	33 cd		 xor	 ecx, ebp
  00256	a3 00 00 00 00	 mov	 DWORD PTR _CurrentToken, eax
  0025b	5b		 pop	 ebx
  0025c	e8 00 00 00 00	 call	 @__security_check_cookie@4
  00261	8b e5		 mov	 esp, ebp
  00263	5d		 pop	 ebp
  00264	c3		 ret	 0
  00265	8d 49 00	 npad	 3
$LN50@GetToken:
  00268	00 00 00 00	 DD	 $LN10@GetToken
  0026c	00 00 00 00	 DD	 $LN19@GetToken
  00270	00 00 00 00	 DD	 $LN17@GetToken
  00274	00 00 00 00	 DD	 $LN14@GetToken
  00278	00 00 00 00	 DD	 $LN18@GetToken
  0027c	00 00 00 00	 DD	 $LN16@GetToken
  00280	00 00 00 00	 DD	 $LN15@GetToken
  00284	00 00 00 00	 DD	 $LN6@GetToken
$LN46@GetToken:
  00288	00		 DB	 0
  00289	01		 DB	 1
  0028a	07		 DB	 7
  0028b	07		 DB	 7
  0028c	07		 DB	 7
  0028d	07		 DB	 7
  0028e	07		 DB	 7
  0028f	07		 DB	 7
  00290	07		 DB	 7
  00291	07		 DB	 7
  00292	02		 DB	 2
  00293	03		 DB	 3
  00294	03		 DB	 3
  00295	07		 DB	 7
  00296	03		 DB	 3
  00297	03		 DB	 3
  00298	03		 DB	 3
  00299	03		 DB	 3
  0029a	03		 DB	 3
  0029b	03		 DB	 3
  0029c	03		 DB	 3
  0029d	03		 DB	 3
  0029e	03		 DB	 3
  0029f	03		 DB	 3
  002a0	07		 DB	 7
  002a1	04		 DB	 4
  002a2	07		 DB	 7
  002a3	07		 DB	 7
  002a4	07		 DB	 7
  002a5	07		 DB	 7
  002a6	07		 DB	 7
  002a7	07		 DB	 7
  002a8	07		 DB	 7
  002a9	07		 DB	 7
  002aa	07		 DB	 7
  002ab	07		 DB	 7
  002ac	07		 DB	 7
  002ad	07		 DB	 7
  002ae	07		 DB	 7
  002af	07		 DB	 7
  002b0	07		 DB	 7
  002b1	07		 DB	 7
  002b2	07		 DB	 7
  002b3	07		 DB	 7
  002b4	07		 DB	 7
  002b5	07		 DB	 7
  002b6	07		 DB	 7
  002b7	07		 DB	 7
  002b8	07		 DB	 7
  002b9	07		 DB	 7
  002ba	07		 DB	 7
  002bb	07		 DB	 7
  002bc	07		 DB	 7
  002bd	07		 DB	 7
  002be	07		 DB	 7
  002bf	07		 DB	 7
  002c0	07		 DB	 7
  002c1	07		 DB	 7
  002c2	07		 DB	 7
  002c3	07		 DB	 7
  002c4	07		 DB	 7
  002c5	07		 DB	 7
  002c6	07		 DB	 7
  002c7	07		 DB	 7
  002c8	07		 DB	 7
  002c9	07		 DB	 7
  002ca	07		 DB	 7
  002cb	07		 DB	 7
  002cc	07		 DB	 7
  002cd	07		 DB	 7
  002ce	07		 DB	 7
  002cf	07		 DB	 7
  002d0	07		 DB	 7
  002d1	07		 DB	 7
  002d2	07		 DB	 7
  002d3	07		 DB	 7
  002d4	07		 DB	 7
  002d5	07		 DB	 7
  002d6	07		 DB	 7
  002d7	07		 DB	 7
  002d8	07		 DB	 7
  002d9	07		 DB	 7
  002da	07		 DB	 7
  002db	07		 DB	 7
  002dc	07		 DB	 7
  002dd	07		 DB	 7
  002de	07		 DB	 7
  002df	07		 DB	 7
  002e0	07		 DB	 7
  002e1	05		 DB	 5
  002e2	07		 DB	 7
  002e3	06		 DB	 6
?GetToken@@YA?AW4SMDToken@@XZ ENDP			; GetToken
_TEXT	ENDS
PUBLIC	??_H@YGXPAXIHP6EPAX0@Z@Z			; `vector constructor iterator'
; Function compile flags: /Ogtp
;	COMDAT ??_H@YGXPAXIHP6EPAX0@Z@Z
_TEXT	SEGMENT
___t$ = 8						; size = 4
___s$ = 12						; size = 4
___n$ = 16						; size = 4
___f$ = 20						; size = 4
??_H@YGXPAXIHP6EPAX0@Z@Z PROC				; `vector constructor iterator', COMDAT
  00000	55		 push	 ebp
  00001	8b ec		 mov	 ebp, esp
  00003	57		 push	 edi
  00004	8b 7d 10	 mov	 edi, DWORD PTR ___n$[ebp]
  00007	4f		 dec	 edi
  00008	78 14		 js	 SHORT $LN1@vector
  0000a	53		 push	 ebx
  0000b	8b 5d 14	 mov	 ebx, DWORD PTR ___f$[ebp]
  0000e	56		 push	 esi
  0000f	8b 75 08	 mov	 esi, DWORD PTR ___t$[ebp]
$LL2@vector:
  00012	8b ce		 mov	 ecx, esi
  00014	ff d3		 call	 ebx
  00016	03 75 0c	 add	 esi, DWORD PTR ___s$[ebp]
  00019	4f		 dec	 edi
  0001a	79 f6		 jns	 SHORT $LL2@vector
  0001c	5e		 pop	 esi
  0001d	5b		 pop	 ebx
$LN1@vector:
  0001e	5f		 pop	 edi
  0001f	5d		 pop	 ebp
  00020	c2 10 00	 ret	 16			; 00000010H
??_H@YGXPAXIHP6EPAX0@Z@Z ENDP				; `vector constructor iterator'
_TEXT	ENDS
PUBLIC	??0CSetItemMacro@@QAE@XZ			; CSetItemMacro::CSetItemMacro
; Function compile flags: /Ogtp
; File e:\work\tranet_version\gs\gameserver\setitemmacro.cpp
;	COMDAT ??0CSetItemMacro@@QAE@XZ
_TEXT	SEGMENT
??0CSetItemMacro@@QAE@XZ PROC				; CSetItemMacro::CSetItemMacro, COMDAT
; _this$ = ecx

; 21   : {

  00000	8b c1		 mov	 eax, ecx

; 22   : 
; 23   : }

  00002	c3		 ret	 0
??0CSetItemMacro@@QAE@XZ ENDP				; CSetItemMacro::CSetItemMacro
_TEXT	ENDS
PUBLIC	??1CSetItemMacro@@QAE@XZ			; CSetItemMacro::~CSetItemMacro
; Function compile flags: /Ogtp
;	COMDAT ??1CSetItemMacro@@QAE@XZ
_TEXT	SEGMENT
??1CSetItemMacro@@QAE@XZ PROC				; CSetItemMacro::~CSetItemMacro, COMDAT
; _this$ = ecx

; 27   : 
; 28   : }

  00000	c3		 ret	 0
??1CSetItemMacro@@QAE@XZ ENDP				; CSetItemMacro::~CSetItemMacro
_TEXT	ENDS
PUBLIC	??_C@_0EB@LJEKOAMO@?$FL?$CFd?$FN?5?$CFs?5level?3?$CFd?5skill?3?$CFd?5luck?3?$CF@ ; `string'
PUBLIC	??_C@_08LMLODAD@?$CFd?5?9?5?$CFs?6?$AA@		; `string'
PUBLIC	??_C@_0DB@PKKGPJJC@?$KB?Z?5For?5BroadCasting?5Server?5Set?5I@ ; `string'
PUBLIC	??_C@_01KDCPPGHE@r?$AA@				; `string'
PUBLIC	__$ArrayPad$
PUBLIC	?Load@CSetItemMacro@@QAEHPAD@Z			; CSetItemMacro::Load
EXTRN	_fclose:PROC
EXTRN	__imp__wsprintfA:PROC
EXTRN	?ItemAttribute@@3PAUITEM_ATTRIBUTE@@A:BYTE	; ItemAttribute
EXTRN	__imp__OutputDebugStringA@4:PROC
EXTRN	_sprintf:PROC
EXTRN	?LogAdd@@3P6AXPADZZA:DWORD			; LogAdd
EXTRN	_fopen:PROC
EXTRN	__ftol2_sse:PROC
;	COMDAT ??_C@_0EB@LJEKOAMO@?$FL?$CFd?$FN?5?$CFs?5level?3?$CFd?5skill?3?$CFd?5luck?3?$CF@
CONST	SEGMENT
??_C@_0EB@LJEKOAMO@?$FL?$CFd?$FN?5?$CFs?5level?3?$CFd?5skill?3?$CFd?5luck?3?$CF@ DB '['
	DB	'%d] %s level:%d skill:%d luck:%d option:%d [%d,%d,%d,%d,%d,%d'
	DB	']', 0aH, 00H				; `string'
CONST	ENDS
;	COMDAT ??_C@_08LMLODAD@?$CFd?5?9?5?$CFs?6?$AA@
CONST	SEGMENT
??_C@_08LMLODAD@?$CFd?5?9?5?$CFs?6?$AA@ DB '%d - %s', 0aH, 00H ; `string'
CONST	ENDS
;	COMDAT ??_C@_0DB@PKKGPJJC@?$KB?Z?5For?5BroadCasting?5Server?5Set?5I@
CONST	SEGMENT
??_C@_0DB@PKKGPJJC@?$KB?Z?5For?5BroadCasting?5Server?5Set?5I@ DB 0a1H, 0daH
	DB	' For BroadCasting Server Set Item Macro Load!!', 00H ; `string'
CONST	ENDS
;	COMDAT ??_C@_01KDCPPGHE@r?$AA@
CONST	SEGMENT
??_C@_01KDCPPGHE@r?$AA@ DB 'r', 00H			; `string'
; Function compile flags: /Ogtp
CONST	ENDS
;	COMDAT ?Load@CSetItemMacro@@QAEHPAD@Z
_TEXT	SEGMENT
_iSkill$ = -576						; size = 4
_iExOption5$ = -572					; size = 4
_iIndex$ = -568						; size = 4
_iSetIndex$ = -564					; size = 4
_iExOption3$ = -560					; size = 4
_iExOption2$ = -556					; size = 4
_iExOption1$ = -552					; size = 4
_iExOption4$ = -548					; size = 4
_i$ = -544						; size = 4
_iLuck$ = -540						; size = 4
_iOption$ = -536					; size = 4
tv1033 = -532						; size = 4
tv1029 = -528						; size = 4
_iName$ = -524						; size = 4
tv1042 = -520						; size = 4
_szLog$ = -516						; size = 255
_szName$ = -260						; size = 255
__$ArrayPad$ = -4					; size = 4
_szFileName$ = 8					; size = 4
?Load@CSetItemMacro@@QAEHPAD@Z PROC			; CSetItemMacro::Load, COMDAT
; _this$ = ecx

; 32   : {

  00000	55		 push	 ebp
  00001	8b ec		 mov	 ebp, esp
  00003	81 ec 40 02 00
	00		 sub	 esp, 576		; 00000240H
  00009	a1 00 00 00 00	 mov	 eax, DWORD PTR ___security_cookie
  0000e	33 c5		 xor	 eax, ebp
  00010	89 45 fc	 mov	 DWORD PTR __$ArrayPad$[ebp], eax
  00013	8b 45 08	 mov	 eax, DWORD PTR _szFileName$[ebp]
  00016	56		 push	 esi

; 33   : 	SMDFile = fopen(szFileName, "r");

  00017	68 00 00 00 00	 push	 OFFSET ??_C@_01KDCPPGHE@r?$AA@
  0001c	50		 push	 eax
  0001d	8b f1		 mov	 esi, ecx
  0001f	e8 00 00 00 00	 call	 _fopen
  00024	83 c4 08	 add	 esp, 8
  00027	a3 00 00 00 00	 mov	 DWORD PTR _SMDFile, eax

; 34   : 	if ( SMDFile == NULL )

  0002c	85 c0		 test	 eax, eax
  0002e	75 21		 jne	 SHORT $LN10@Load

; 35   : 	{
; 36   : 		LogAdd("¡Ú For BroadCasting Server Set Item Macro Load!!");

  00030	68 00 00 00 00	 push	 OFFSET ??_C@_0DB@PKKGPJJC@?$KB?Z?5For?5BroadCasting?5Server?5Set?5I@
  00035	ff 15 00 00 00
	00		 call	 DWORD PTR ?LogAdd@@3P6AXPADZZA ; LogAdd
  0003b	83 c4 04	 add	 esp, 4

; 37   : 		return FALSE;

  0003e	33 c0		 xor	 eax, eax
  00040	5e		 pop	 esi

; 160  : }

  00041	8b 4d fc	 mov	 ecx, DWORD PTR __$ArrayPad$[ebp]
  00044	33 cd		 xor	 ecx, ebp
  00046	e8 00 00 00 00	 call	 @__security_check_cookie@4
  0004b	8b e5		 mov	 esp, ebp
  0004d	5d		 pop	 ebp
  0004e	c2 04 00	 ret	 4
$LN10@Load:
  00051	53		 push	 ebx
  00052	57		 push	 edi

; 38   : 	}
; 39   : 
; 40   : 	SMDToken Token;
; 41   : 	int n = 0;
; 42   : 	char szName[255];
; 43   : 	char szLog[255];
; 44   : 	int iSetIndex;
; 45   : 	int iType;
; 46   : 	int iIndex;
; 47   : 	int iLevel;
; 48   : 	int iSkill;
; 49   : 	int iLuck;
; 50   : 	int iOption;
; 51   : 	int iExOption1;
; 52   : 	int iExOption2;
; 53   : 	int iExOption3;
; 54   : 	int iExOption4;
; 55   : 	int iExOption5;
; 56   : 	int iExOption6;
; 57   : 	int i = 0;
; 58   : 	int iName = 0;

  00053	c7 85 f4 fd ff
	ff 00 00 00 00	 mov	 DWORD PTR _iName$[ebp], 0

; 59   : 
; 60   : 	Token = GetToken();

  0005d	e8 00 00 00 00	 call	 ?GetToken@@YA?AW4SMDToken@@XZ ; GetToken

; 61   : 
; 62   : 	while ( true )
; 63   : 	{
; 64   : 		if ( Token == END )

  00062	83 f8 02	 cmp	 eax, 2
  00065	0f 84 d8 02 00
	00		 je	 $LN22@Load

; 38   : 	}
; 39   : 
; 40   : 	SMDToken Token;
; 41   : 	int n = 0;
; 42   : 	char szName[255];
; 43   : 	char szLog[255];
; 44   : 	int iSetIndex;
; 45   : 	int iType;
; 46   : 	int iIndex;
; 47   : 	int iLevel;
; 48   : 	int iSkill;
; 49   : 	int iLuck;
; 50   : 	int iOption;
; 51   : 	int iExOption1;
; 52   : 	int iExOption2;
; 53   : 	int iExOption3;
; 54   : 	int iExOption4;
; 55   : 	int iExOption5;
; 56   : 	int iExOption6;
; 57   : 	int i = 0;
; 58   : 	int iName = 0;

  0006b	8d 4e 08	 lea	 ecx, DWORD PTR [esi+8]
  0006e	89 8d f0 fd ff
	ff		 mov	 DWORD PTR tv1029[ebp], ecx
  00074	8d 96 a0 8c 00
	00		 lea	 edx, DWORD PTR [esi+36000]
  0007a	8d 8d fc fe ff
	ff		 lea	 ecx, DWORD PTR _szName$[ebp]
  00080	2b f1		 sub	 esi, ecx
  00082	81 c6 68 8d 00
	00		 add	 esi, 36200		; 00008d68H
  00088	89 95 ec fd ff
	ff		 mov	 DWORD PTR tv1033[ebp], edx
  0008e	89 b5 f8 fd ff
	ff		 mov	 DWORD PTR tv1042[ebp], esi
  00094	eb 10		 jmp	 SHORT $LN9@Load
  00096	eb 08 8d a4 24
	00 00 00 00 90	 npad	 10
$LL21@Load:
  000a0	8b b5 f8 fd ff
	ff		 mov	 esi, DWORD PTR tv1042[ebp]
$LN9@Load:

; 65   : 			break;
; 66   : 
; 67   : 		if ( Token == NAME )

  000a6	85 c0		 test	 eax, eax
  000a8	0f 85 bb 02 00
	00		 jne	 $LN6@Load
  000ae	8b ff		 npad	 2
$LL13@Load:

; 68   : 		{
; 69   : 			strcpy(szName, TokenString);

  000b0	8a 88 00 00 00
	00		 mov	 cl, BYTE PTR _TokenString[eax]
  000b6	88 8c 05 fc fe
	ff ff		 mov	 BYTE PTR _szName$[ebp+eax], cl
  000bd	40		 inc	 eax
  000be	84 c9		 test	 cl, cl
  000c0	75 ee		 jne	 SHORT $LL13@Load

; 70   : 
; 71   : 			sprintf(szLog, "%d - %s\n", iName, szName);

  000c2	8b 85 f4 fd ff
	ff		 mov	 eax, DWORD PTR _iName$[ebp]
  000c8	8d 95 fc fe ff
	ff		 lea	 edx, DWORD PTR _szName$[ebp]
  000ce	52		 push	 edx
  000cf	50		 push	 eax
  000d0	8d 8d fc fd ff
	ff		 lea	 ecx, DWORD PTR _szLog$[ebp]
  000d6	68 00 00 00 00	 push	 OFFSET ??_C@_08LMLODAD@?$CFd?5?9?5?$CFs?6?$AA@
  000db	51		 push	 ecx
  000dc	e8 00 00 00 00	 call	 _sprintf

; 72   : 
; 73   : 			this->bLoadItemName[iName] = TRUE;

  000e1	8b 95 ec fd ff
	ff		 mov	 edx, DWORD PTR tv1033[ebp]
  000e7	83 c4 10	 add	 esp, 16			; 00000010H
  000ea	c7 02 01 00 00
	00		 mov	 DWORD PTR [edx], 1

; 74   : 
; 75   : 			strcpy(this->sMakeItemName[iName], szName);

  000f0	8d 85 fc fe ff
	ff		 lea	 eax, DWORD PTR _szName$[ebp]
$LL14@Load:
  000f6	8a 08		 mov	 cl, BYTE PTR [eax]
  000f8	88 0c 30	 mov	 BYTE PTR [eax+esi], cl
  000fb	40		 inc	 eax
  000fc	84 c9		 test	 cl, cl
  000fe	75 f6		 jne	 SHORT $LL14@Load

; 76   : 
; 77   : 			OutputDebugString(szLog);

  00100	8d 85 fc fd ff
	ff		 lea	 eax, DWORD PTR _szLog$[ebp]
  00106	50		 push	 eax
  00107	ff 15 00 00 00
	00		 call	 DWORD PTR __imp__OutputDebugStringA@4

; 78   : 
; 79   : 			Token = GetToken();
; 80   : 			i = 0;

  0010d	c7 85 e0 fd ff
	ff 00 00 00 00	 mov	 DWORD PTR _i$[ebp], 0
  00117	e8 00 00 00 00	 call	 ?GetToken@@YA?AW4SMDToken@@XZ ; GetToken

; 81   : 
; 82   : 			if ( Token == END )

  0011c	83 f8 02	 cmp	 eax, 2
  0011f	0f 84 1e 02 00
	00		 je	 $LN22@Load

; 76   : 
; 77   : 			OutputDebugString(szLog);

  00125	8b b5 f0 fd ff
	ff		 mov	 esi, DWORD PTR tv1029[ebp]
  0012b	eb 03 8d 49 00	 npad	 5
$LL4@Load:

; 83   : 				break;
; 84   : 
; 85   : 			do
; 86   : 			{
; 87   : 				iSetIndex = (int)TokenNumber;

  00130	d9 05 00 00 00
	00		 fld	 DWORD PTR _TokenNumber
  00136	e8 00 00 00 00	 call	 __ftol2_sse
  0013b	89 85 cc fd ff
	ff		 mov	 DWORD PTR _iSetIndex$[ebp], eax

; 88   : 
; 89   : 				Token = GetToken();

  00141	e8 00 00 00 00	 call	 ?GetToken@@YA?AW4SMDToken@@XZ ; GetToken

; 90   : 				iType = (int)TokenNumber;

  00146	d9 05 00 00 00
	00		 fld	 DWORD PTR _TokenNumber
  0014c	e8 00 00 00 00	 call	 __ftol2_sse
  00151	8b f8		 mov	 edi, eax

; 91   : 
; 92   : 				Token = GetToken();

  00153	e8 00 00 00 00	 call	 ?GetToken@@YA?AW4SMDToken@@XZ ; GetToken

; 93   : 				iIndex = (int)TokenNumber;

  00158	d9 05 00 00 00
	00		 fld	 DWORD PTR _TokenNumber
  0015e	e8 00 00 00 00	 call	 __ftol2_sse
  00163	89 85 c8 fd ff
	ff		 mov	 DWORD PTR _iIndex$[ebp], eax

; 94   : 
; 95   : 				Token = GetToken();

  00169	e8 00 00 00 00	 call	 ?GetToken@@YA?AW4SMDToken@@XZ ; GetToken

; 96   : 				iLevel = (int)TokenNumber;

  0016e	d9 05 00 00 00
	00		 fld	 DWORD PTR _TokenNumber
  00174	e8 00 00 00 00	 call	 __ftol2_sse
  00179	8b d8		 mov	 ebx, eax

; 97   : 
; 98   : 				Token = GetToken();

  0017b	e8 00 00 00 00	 call	 ?GetToken@@YA?AW4SMDToken@@XZ ; GetToken

; 99   : 				iSkill = (int)TokenNumber;

  00180	d9 05 00 00 00
	00		 fld	 DWORD PTR _TokenNumber
  00186	e8 00 00 00 00	 call	 __ftol2_sse
  0018b	89 85 c0 fd ff
	ff		 mov	 DWORD PTR _iSkill$[ebp], eax

; 100  : 
; 101  : 				Token = GetToken();

  00191	e8 00 00 00 00	 call	 ?GetToken@@YA?AW4SMDToken@@XZ ; GetToken

; 102  : 				iLuck = (int)TokenNumber;

  00196	d9 05 00 00 00
	00		 fld	 DWORD PTR _TokenNumber
  0019c	e8 00 00 00 00	 call	 __ftol2_sse
  001a1	89 85 e4 fd ff
	ff		 mov	 DWORD PTR _iLuck$[ebp], eax

; 103  : 
; 104  : 				Token = GetToken();

  001a7	e8 00 00 00 00	 call	 ?GetToken@@YA?AW4SMDToken@@XZ ; GetToken

; 105  : 				iOption = (int)TokenNumber;

  001ac	d9 05 00 00 00
	00		 fld	 DWORD PTR _TokenNumber
  001b2	e8 00 00 00 00	 call	 __ftol2_sse
  001b7	89 85 e8 fd ff
	ff		 mov	 DWORD PTR _iOption$[ebp], eax

; 106  : 
; 107  : 				Token = GetToken();

  001bd	e8 00 00 00 00	 call	 ?GetToken@@YA?AW4SMDToken@@XZ ; GetToken

; 108  : 				iExOption1 = (int)TokenNumber;

  001c2	d9 05 00 00 00
	00		 fld	 DWORD PTR _TokenNumber
  001c8	e8 00 00 00 00	 call	 __ftol2_sse
  001cd	89 85 d8 fd ff
	ff		 mov	 DWORD PTR _iExOption1$[ebp], eax

; 109  : 
; 110  : 				Token = GetToken();

  001d3	e8 00 00 00 00	 call	 ?GetToken@@YA?AW4SMDToken@@XZ ; GetToken

; 111  : 				iExOption2 = (int)TokenNumber;

  001d8	d9 05 00 00 00
	00		 fld	 DWORD PTR _TokenNumber
  001de	e8 00 00 00 00	 call	 __ftol2_sse
  001e3	89 85 d4 fd ff
	ff		 mov	 DWORD PTR _iExOption2$[ebp], eax

; 112  : 
; 113  : 				Token = GetToken();

  001e9	e8 00 00 00 00	 call	 ?GetToken@@YA?AW4SMDToken@@XZ ; GetToken

; 114  : 				iExOption3 = (int)TokenNumber;

  001ee	d9 05 00 00 00
	00		 fld	 DWORD PTR _TokenNumber
  001f4	e8 00 00 00 00	 call	 __ftol2_sse
  001f9	89 85 d0 fd ff
	ff		 mov	 DWORD PTR _iExOption3$[ebp], eax

; 115  : 
; 116  : 				Token = GetToken();

  001ff	e8 00 00 00 00	 call	 ?GetToken@@YA?AW4SMDToken@@XZ ; GetToken

; 117  : 				iExOption4 = (int)TokenNumber;

  00204	d9 05 00 00 00
	00		 fld	 DWORD PTR _TokenNumber
  0020a	e8 00 00 00 00	 call	 __ftol2_sse
  0020f	89 85 dc fd ff
	ff		 mov	 DWORD PTR _iExOption4$[ebp], eax

; 118  : 
; 119  : 				Token = GetToken();

  00215	e8 00 00 00 00	 call	 ?GetToken@@YA?AW4SMDToken@@XZ ; GetToken

; 120  : 				iExOption5 = (int)TokenNumber;

  0021a	d9 05 00 00 00
	00		 fld	 DWORD PTR _TokenNumber
  00220	e8 00 00 00 00	 call	 __ftol2_sse
  00225	89 85 c4 fd ff
	ff		 mov	 DWORD PTR _iExOption5$[ebp], eax

; 121  : 
; 122  : 				Token = GetToken();

  0022b	e8 00 00 00 00	 call	 ?GetToken@@YA?AW4SMDToken@@XZ ; GetToken

; 123  : 				iExOption6 = (int)TokenNumber;

  00230	d9 05 00 00 00
	00		 fld	 DWORD PTR _TokenNumber
  00236	e8 00 00 00 00	 call	 __ftol2_sse

; 124  : 		
; 125  : 				this->SubItemList[iName][i].SetIndex = iSetIndex;

  0023b	8b 8d cc fd ff
	ff		 mov	 ecx, DWORD PTR _iSetIndex$[ebp]

; 126  : 				this->SubItemList[iName][i].ItemIndex = ITEMGET(iType,iIndex);

  00241	8b 95 c8 fd ff
	ff		 mov	 edx, DWORD PTR _iIndex$[ebp]
  00247	c1 e7 09	 shl	 edi, 9
  0024a	89 4e f8	 mov	 DWORD PTR [esi-8], ecx
  0024d	8d 0c 17	 lea	 ecx, DWORD PTR [edi+edx]

; 127  : 				this->SubItemList[iName][i].Level = iLevel;
; 128  : 				this->SubItemList[iName][i].Skill = iSkill;
; 129  : 				this->SubItemList[iName][i].Luck = iLuck;

  00250	8b bd e4 fd ff
	ff		 mov	 edi, DWORD PTR _iLuck$[ebp]
  00256	8b 95 c0 fd ff
	ff		 mov	 edx, DWORD PTR _iSkill$[ebp]
  0025c	89 7e 08	 mov	 DWORD PTR [esi+8], edi

; 130  : 				this->SubItemList[iName][i].Option = iOption;

  0025f	8b bd e8 fd ff
	ff		 mov	 edi, DWORD PTR _iOption$[ebp]
  00265	89 7e 0c	 mov	 DWORD PTR [esi+12], edi

; 131  : 
; 132  : 				this->SubItemList[iName][i].Ex1 = iExOption1;

  00268	8b bd d8 fd ff
	ff		 mov	 edi, DWORD PTR _iExOption1$[ebp]
  0026e	89 7e 10	 mov	 DWORD PTR [esi+16], edi

; 133  : 				this->SubItemList[iName][i].Ex2 = iExOption2;

  00271	8b bd d4 fd ff
	ff		 mov	 edi, DWORD PTR _iExOption2$[ebp]
  00277	89 7e 14	 mov	 DWORD PTR [esi+20], edi

; 134  : 				this->SubItemList[iName][i].Ex3 = iExOption3;

  0027a	8b bd d0 fd ff
	ff		 mov	 edi, DWORD PTR _iExOption3$[ebp]
  00280	89 7e 18	 mov	 DWORD PTR [esi+24], edi

; 135  : 				this->SubItemList[iName][i].Ex4 = iExOption4;

  00283	8b bd dc fd ff
	ff		 mov	 edi, DWORD PTR _iExOption4$[ebp]

; 136  : 				this->SubItemList[iName][i].Ex5 = iExOption5;
; 137  : 				this->SubItemList[iName][i].Ex6 = iExOption6;
; 138  : 
; 139  : 				wsprintf(szLog, "[%d] %s level:%d skill:%d luck:%d option:%d [%d,%d,%d,%d,%d,%d]\n",
; 140  : 					i, ItemAttribute[ITEMGET(iType,iIndex)].Name, iLevel,iSkill,iLuck,iOption,
; 141  : 					iExOption1,iExOption2,iExOption3,iExOption4,iExOption5,iExOption6);

  00289	50		 push	 eax
  0028a	89 7e 1c	 mov	 DWORD PTR [esi+28], edi
  0028d	8b bd c4 fd ff
	ff		 mov	 edi, DWORD PTR _iExOption5$[ebp]
  00293	89 46 24	 mov	 DWORD PTR [esi+36], eax
  00296	8b 85 dc fd ff
	ff		 mov	 eax, DWORD PTR _iExOption4$[ebp]
  0029c	57		 push	 edi
  0029d	50		 push	 eax
  0029e	8b 85 d0 fd ff
	ff		 mov	 eax, DWORD PTR _iExOption3$[ebp]
  002a4	50		 push	 eax
  002a5	8b 85 d4 fd ff
	ff		 mov	 eax, DWORD PTR _iExOption2$[ebp]
  002ab	89 4e fc	 mov	 DWORD PTR [esi-4], ecx
  002ae	89 1e		 mov	 DWORD PTR [esi], ebx
  002b0	89 56 04	 mov	 DWORD PTR [esi+4], edx
  002b3	89 7e 20	 mov	 DWORD PTR [esi+32], edi
  002b6	8b bd e0 fd ff
	ff		 mov	 edi, DWORD PTR _i$[ebp]
  002bc	6b c9 70	 imul	 ecx, 112		; 00000070H
  002bf	50		 push	 eax
  002c0	8b 85 d8 fd ff
	ff		 mov	 eax, DWORD PTR _iExOption1$[ebp]
  002c6	50		 push	 eax
  002c7	8b 85 e8 fd ff
	ff		 mov	 eax, DWORD PTR _iOption$[ebp]
  002cd	50		 push	 eax
  002ce	8b 85 e4 fd ff
	ff		 mov	 eax, DWORD PTR _iLuck$[ebp]
  002d4	50		 push	 eax
  002d5	52		 push	 edx
  002d6	53		 push	 ebx
  002d7	81 c1 00 00 00
	00		 add	 ecx, OFFSET ?ItemAttribute@@3PAUITEM_ATTRIBUTE@@A ; ItemAttribute
  002dd	51		 push	 ecx
  002de	57		 push	 edi
  002df	8d 8d fc fd ff
	ff		 lea	 ecx, DWORD PTR _szLog$[ebp]
  002e5	68 00 00 00 00	 push	 OFFSET ??_C@_0EB@LJEKOAMO@?$FL?$CFd?$FN?5?$CFs?5level?3?$CFd?5skill?3?$CFd?5luck?3?$CF@
  002ea	51		 push	 ecx
  002eb	ff 15 00 00 00
	00		 call	 DWORD PTR __imp__wsprintfA
  002f1	83 c4 38	 add	 esp, 56			; 00000038H

; 142  : 
; 143  : 				OutputDebugString(szLog);

  002f4	8d 95 fc fd ff
	ff		 lea	 edx, DWORD PTR _szLog$[ebp]
  002fa	52		 push	 edx
  002fb	ff 15 00 00 00
	00		 call	 DWORD PTR __imp__OutputDebugStringA@4

; 144  : 				i++;

  00301	47		 inc	 edi
  00302	89 bd e0 fd ff
	ff		 mov	 DWORD PTR _i$[ebp], edi
  00308	83 c6 30	 add	 esi, 48			; 00000030H

; 145  : 
; 146  : 				Token = GetToken();

  0030b	e8 00 00 00 00	 call	 ?GetToken@@YA?AW4SMDToken@@XZ ; GetToken

; 147  : 			}
; 148  : 			while ( Token == NUMBER );

  00310	83 f8 01	 cmp	 eax, 1
  00313	0f 84 17 fe ff
	ff		 je	 $LL4@Load

; 149  : 	
; 150  : 			iName++;

  00319	ff 85 f4 fd ff
	ff		 inc	 DWORD PTR _iName$[ebp]
  0031f	83 85 ec fd ff
	ff 04		 add	 DWORD PTR tv1033[ebp], 4
  00326	81 85 f8 fd ff
	ff ff 00 00 00	 add	 DWORD PTR tv1042[ebp], 255 ; 000000ffH
  00330	81 85 f0 fd ff
	ff d0 02 00 00	 add	 DWORD PTR tv1029[ebp], 720 ; 000002d0H
  0033a	83 f8 02	 cmp	 eax, 2
  0033d	0f 85 5d fd ff
	ff		 jne	 $LL21@Load
$LN22@Load:

; 155  : 			return FALSE;
; 156  : 		}
; 157  : 	}
; 158  : 	fclose(SMDFile);

  00343	a1 00 00 00 00	 mov	 eax, DWORD PTR _SMDFile
  00348	50		 push	 eax
  00349	e8 00 00 00 00	 call	 _fclose
  0034e	83 c4 04	 add	 esp, 4
  00351	5f		 pop	 edi
  00352	5b		 pop	 ebx

; 159  : 	return TRUE;

  00353	b8 01 00 00 00	 mov	 eax, 1
  00358	5e		 pop	 esi

; 160  : }

  00359	8b 4d fc	 mov	 ecx, DWORD PTR __$ArrayPad$[ebp]
  0035c	33 cd		 xor	 ecx, ebp
  0035e	e8 00 00 00 00	 call	 @__security_check_cookie@4
  00363	8b e5		 mov	 esp, ebp
  00365	5d		 pop	 ebp
  00366	c2 04 00	 ret	 4
$LN6@Load:

; 151  : 		}
; 152  : 		else
; 153  : 		{
; 154  : 			LogAdd("¡Ú For BroadCasting Server Set Item Macro Load!!");

  00369	68 00 00 00 00	 push	 OFFSET ??_C@_0DB@PKKGPJJC@?$KB?Z?5For?5BroadCasting?5Server?5Set?5I@
  0036e	ff 15 00 00 00
	00		 call	 DWORD PTR ?LogAdd@@3P6AXPADZZA ; LogAdd

; 160  : }

  00374	8b 4d fc	 mov	 ecx, DWORD PTR __$ArrayPad$[ebp]
  00377	83 c4 04	 add	 esp, 4
  0037a	5f		 pop	 edi
  0037b	5b		 pop	 ebx
  0037c	33 cd		 xor	 ecx, ebp
  0037e	33 c0		 xor	 eax, eax
  00380	5e		 pop	 esi
  00381	e8 00 00 00 00	 call	 @__security_check_cookie@4
  00386	8b e5		 mov	 esp, ebp
  00388	5d		 pop	 ebp
  00389	c2 04 00	 ret	 4
?Load@CSetItemMacro@@QAEHPAD@Z ENDP			; CSetItemMacro::Load
_TEXT	ENDS
PUBLIC	?MakeItem@CSetItemMacro@@QAEHHPAD@Z		; CSetItemMacro::MakeItem
EXTRN	?ItemSerialCreateSend@@YAXHEEEHEEEEEHEE@Z:PROC	; ItemSerialCreateSend
EXTRN	?gObj@@3PAUOBJECTSTRUCT@@A:DWORD		; gObj
EXTRN	_rand:PROC
EXTRN	?GetSetOptionName@CSetItemOption@@QAEPADH@Z:PROC ; CSetItemOption::GetSetOptionName
EXTRN	?gSetItemOption@@3VCSetItemOption@@A:BYTE	; gSetItemOption
; Function compile flags: /Ogtp
;	COMDAT ?MakeItem@CSetItemMacro@@QAEHHPAD@Z
_TEXT	SEGMENT
_iLevel$203258 = -36					; size = 4
_iOption$203261 = -32					; size = 4
_btNewOption$203262 = -28				; size = 1
_bFindItem$ = -24					; size = 4
tv1305 = -20						; size = 4
tv1318 = -16						; size = 4
tv1320 = -12						; size = 4
tv1322 = -8						; size = 4
tv1183 = -4						; size = 4
_aIndex$ = 8						; size = 4
_szSetName$ = 12					; size = 4
?MakeItem@CSetItemMacro@@QAEHHPAD@Z PROC		; CSetItemMacro::MakeItem, COMDAT
; _this$ = ecx

; 165  : {

  00000	55		 push	 ebp
  00001	8b ec		 mov	 ebp, esp
  00003	83 ec 24	 sub	 esp, 36			; 00000024H
  00006	53		 push	 ebx
  00007	56		 push	 esi

; 166  : 	BOOL bFindItem = FALSE;

  00008	8d 71 1c	 lea	 esi, DWORD PTR [ecx+28]
  0000b	8d 81 68 8d 00
	00		 lea	 eax, DWORD PTR [ecx+36200]
  00011	81 c1 a0 8c 00
	00		 add	 ecx, 36000		; 00008ca0H
  00017	57		 push	 edi
  00018	c7 45 e8 00 00
	00 00		 mov	 DWORD PTR _bFindItem$[ebp], 0
  0001f	89 75 f0	 mov	 DWORD PTR tv1318[ebp], esi
  00022	89 45 f4	 mov	 DWORD PTR tv1320[ebp], eax
  00025	89 4d f8	 mov	 DWORD PTR tv1322[ebp], ecx
  00028	c7 45 ec 32 00
	00 00		 mov	 DWORD PTR tv1305[ebp], 50 ; 00000032H
  0002f	90		 npad	 1
$LL26@MakeItem:

; 169  : 	{
; 170  : 		if( this->bLoadItemName[i] != FALSE )

  00030	83 39 00	 cmp	 DWORD PTR [ecx], 0
  00033	0f 84 50 01 00
	00		 je	 $LN12@MakeItem

; 171  : 		{
; 172  : 			if( strcmp(this->sMakeItemName[i],szSetName) == NULL )

  00039	8b 4d 0c	 mov	 ecx, DWORD PTR _szSetName$[ebp]
  0003c	8d 64 24 00	 npad	 4
$LL20@MakeItem:
  00040	8a 10		 mov	 dl, BYTE PTR [eax]
  00042	3a 11		 cmp	 dl, BYTE PTR [ecx]
  00044	75 1a		 jne	 SHORT $LN21@MakeItem
  00046	84 d2		 test	 dl, dl
  00048	74 12		 je	 SHORT $LN22@MakeItem
  0004a	8a 50 01	 mov	 dl, BYTE PTR [eax+1]
  0004d	3a 51 01	 cmp	 dl, BYTE PTR [ecx+1]
  00050	75 0e		 jne	 SHORT $LN21@MakeItem
  00052	83 c0 02	 add	 eax, 2
  00055	83 c1 02	 add	 ecx, 2
  00058	84 d2		 test	 dl, dl
  0005a	75 e4		 jne	 SHORT $LL20@MakeItem
$LN22@MakeItem:
  0005c	33 c0		 xor	 eax, eax
  0005e	eb 05		 jmp	 SHORT $LN23@MakeItem
$LN21@MakeItem:
  00060	1b c0		 sbb	 eax, eax
  00062	83 d8 ff	 sbb	 eax, -1
$LN23@MakeItem:
  00065	85 c0		 test	 eax, eax
  00067	0f 85 1c 01 00
	00		 jne	 $LN12@MakeItem

; 173  : 			{
; 174  : 				bFindItem = TRUE;

  0006d	c7 45 e8 01 00
	00 00		 mov	 DWORD PTR _bFindItem$[ebp], 1
  00074	c7 45 fc 0f 00
	00 00		 mov	 DWORD PTR tv1183[ebp], 15 ; 0000000fH
  0007b	eb 03 8d 49 00	 npad	 5
$LL25@MakeItem:

; 177  : 				{
; 178  : 					if( this->SubItemList[i][j].ItemIndex != NULL )

  00080	8b 7e e8	 mov	 edi, DWORD PTR [esi-24]
  00083	85 ff		 test	 edi, edi
  00085	0f 84 f2 00 00
	00		 je	 $LN7@MakeItem

; 179  : 					{
; 180  : 						int iLevel = 0;//14
; 181  : 						int iSkill = 0;//18
; 182  : 						int iLuck = 0;//1c
; 183  : 						int iOption = 0;//20
; 184  : 						BYTE btNewOption = 0;//24
; 185  : 						int iDur = 0;//28
; 186  : 						int iAddStat = 0;//2c
; 187  : 						int iSetOption = 0;//30
; 188  : 
; 189  : 						if( this->SubItemList[i][j].SetIndex != -1 )

  0008b	8b 46 e4	 mov	 eax, DWORD PTR [esi-28]
  0008e	83 f8 ff	 cmp	 eax, -1
  00091	74 7b		 je	 SHORT $LN4@MakeItem

; 190  : 						{
; 191  : 							iSkill = this->SubItemList[i][j].Skill;
; 192  : 							iLuck = this->SubItemList[i][j].Luck;
; 193  : 							iOption = this->SubItemList[i][j].Option;

  00093	8b 4e f8	 mov	 ecx, DWORD PTR [esi-8]
  00096	89 4d e0	 mov	 DWORD PTR _iOption$203261[ebp], ecx

; 194  : 							iLevel = this->SubItemList[i][j].Level;
; 195  : 
; 196  : 							btNewOption =	(BYTE)(this->SubItemList[i][j].Ex1<<5);
; 197  : 							btNewOption |=	(BYTE)(this->SubItemList[i][j].Ex2<<4);
; 198  : 							btNewOption |=	(BYTE)(this->SubItemList[i][j].Ex3<<3);
; 199  : 							btNewOption |=	(BYTE)(this->SubItemList[i][j].Ex4<<2);
; 200  : 							btNewOption |=	(BYTE)(this->SubItemList[i][j].Ex5<<1);
; 201  : 							btNewOption |=	(BYTE)(this->SubItemList[i][j].Ex6);

  00099	8a 4e fc	 mov	 cl, BYTE PTR [esi-4]
  0009c	02 c9		 add	 cl, cl
  0009e	0a 0e		 or	 cl, BYTE PTR [esi]
  000a0	8b 56 ec	 mov	 edx, DWORD PTR [esi-20]
  000a3	8b 7e f0	 mov	 edi, DWORD PTR [esi-16]
  000a6	8b 5e f4	 mov	 ebx, DWORD PTR [esi-12]
  000a9	02 c9		 add	 cl, cl
  000ab	0a 4e 04	 or	 cl, BYTE PTR [esi+4]

; 202  : 
; 203  : 							gSetItemOption.GetSetOptionName(this->SubItemList[i][j].SetIndex);

  000ae	50		 push	 eax
  000af	02 c9		 add	 cl, cl
  000b1	0a 4e 08	 or	 cl, BYTE PTR [esi+8]
  000b4	89 55 dc	 mov	 DWORD PTR _iLevel$203258[ebp], edx
  000b7	02 c9		 add	 cl, cl
  000b9	0a 4e 0c	 or	 cl, BYTE PTR [esi+12]
  000bc	02 c9		 add	 cl, cl
  000be	0a 4e 10	 or	 cl, BYTE PTR [esi+16]
  000c1	88 4d e4	 mov	 BYTE PTR _btNewOption$203262[ebp], cl
  000c4	b9 00 00 00 00	 mov	 ecx, OFFSET ?gSetItemOption@@3VCSetItemOption@@A ; gSetItemOption
  000c9	e8 00 00 00 00	 call	 ?GetSetOptionName@CSetItemOption@@QAEPADH@Z ; CSetItemOption::GetSetOptionName

; 204  : 							iSetOption = 1;
; 205  : 							
; 206  : 							if( rand()%100 < 80 ) 

  000ce	e8 00 00 00 00	 call	 _rand
  000d3	99		 cdq
  000d4	b9 64 00 00 00	 mov	 ecx, 100		; 00000064H
  000d9	f7 f9		 idiv	 ecx
  000db	33 c9		 xor	 ecx, ecx
  000dd	83 fa 50	 cmp	 edx, 80			; 00000050H

; 207  : 								iSetOption |= 4;
; 208  : 							else 
; 209  : 								iSetOption |= 8;
; 210  : 
; 211  : 							ItemSerialCreateSend(aIndex,gObj[aIndex].MapNumber,(BYTE)gObj[aIndex].X,(BYTE)gObj[aIndex].Y,
; 212  : 								this->SubItemList[i][j].ItemIndex,(BYTE)iLevel,(BYTE)iDur,(BYTE)iSkill,(BYTE)iLuck,(BYTE)iOption,-1,(BYTE)btNewOption,(BYTE)iSetOption);

  000e0	8b 55 08	 mov	 edx, DWORD PTR _aIndex$[ebp]
  000e3	0f 9d c1	 setge	 cl
  000e6	8b c2		 mov	 eax, edx
  000e8	69 c0 50 2b 00
	00		 imul	 eax, 11088		; 00002b50H
  000ee	8d 0c 8d 05 00
	00 00		 lea	 ecx, DWORD PTR [ecx*4+5]
  000f5	51		 push	 ecx
  000f6	8b 4d e4	 mov	 ecx, DWORD PTR _btNewOption$203262[ebp]
  000f9	51		 push	 ecx
  000fa	8b 4d e0	 mov	 ecx, DWORD PTR _iOption$203261[ebp]
  000fd	6a ff		 push	 -1
  000ff	51		 push	 ecx
  00100	8b 4d dc	 mov	 ecx, DWORD PTR _iLevel$203258[ebp]
  00103	53		 push	 ebx
  00104	57		 push	 edi
  00105	6a 00		 push	 0
  00107	51		 push	 ecx
  00108	8b 4e e8	 mov	 ecx, DWORD PTR [esi-24]
  0010b	51		 push	 ecx

; 213  : 						}
; 214  : 						else

  0010c	eb 45		 jmp	 SHORT $LN27@MakeItem
$LN4@MakeItem:

; 215  : 						{
; 216  : 							iSkill = this->SubItemList[i][j].Skill;
; 217  : 							iLuck = this->SubItemList[i][j].Luck;
; 218  : 							iOption = this->SubItemList[i][j].Option;
; 219  : 							iLevel = this->SubItemList[i][j].Level;
; 220  : 
; 221  : 							btNewOption =	(BYTE)(this->SubItemList[i][j].Ex1<<5);
; 222  : 							btNewOption |=	(BYTE)(this->SubItemList[i][j].Ex2<<4);
; 223  : 							btNewOption |=	(BYTE)(this->SubItemList[i][j].Ex3<<3);
; 224  : 							btNewOption |=	(BYTE)(this->SubItemList[i][j].Ex4<<2);
; 225  : 							btNewOption |=	(BYTE)(this->SubItemList[i][j].Ex5<<1);
; 226  : 							btNewOption |=	(BYTE)(this->SubItemList[i][j].Ex6);
; 227  : 							
; 228  : 							ItemSerialCreateSend(aIndex,gObj[aIndex].MapNumber,(BYTE)gObj[aIndex].X,(BYTE)gObj[aIndex].Y,
; 229  : 								this->SubItemList[i][j].ItemIndex,(BYTE)iLevel,(BYTE)iDur,(BYTE)iSkill,(BYTE)iLuck,(BYTE)iOption,-1,btNewOption,iSetOption);

  0010e	8a 4e fc	 mov	 cl, BYTE PTR [esi-4]
  00111	8b 55 08	 mov	 edx, DWORD PTR _aIndex$[ebp]
  00114	02 c9		 add	 cl, cl
  00116	0a 0e		 or	 cl, BYTE PTR [esi]
  00118	8b c2		 mov	 eax, edx
  0011a	02 c9		 add	 cl, cl
  0011c	69 c0 50 2b 00
	00		 imul	 eax, 11088		; 00002b50H
  00122	0a 4e 04	 or	 cl, BYTE PTR [esi+4]
  00125	6a 00		 push	 0
  00127	02 c9		 add	 cl, cl
  00129	0a 4e 08	 or	 cl, BYTE PTR [esi+8]
  0012c	02 c9		 add	 cl, cl
  0012e	0a 4e 0c	 or	 cl, BYTE PTR [esi+12]
  00131	02 c9		 add	 cl, cl
  00133	0a 4e 10	 or	 cl, BYTE PTR [esi+16]
  00136	0f b6 c9	 movzx	 ecx, cl
  00139	51		 push	 ecx
  0013a	0f b6 4e f8	 movzx	 ecx, BYTE PTR [esi-8]
  0013e	6a ff		 push	 -1
  00140	51		 push	 ecx
  00141	0f b6 4e f4	 movzx	 ecx, BYTE PTR [esi-12]
  00145	51		 push	 ecx
  00146	0f b6 4e f0	 movzx	 ecx, BYTE PTR [esi-16]
  0014a	51		 push	 ecx
  0014b	0f b6 4e ec	 movzx	 ecx, BYTE PTR [esi-20]
  0014f	6a 00		 push	 0
  00151	51		 push	 ecx
  00152	57		 push	 edi
$LN27@MakeItem:
  00153	8b 0d 00 00 00
	00		 mov	 ecx, DWORD PTR ?gObj@@3PAUOBJECTSTRUCT@@A ; gObj
  00159	0f b6 bc 08 46
	01 00 00	 movzx	 edi, BYTE PTR [eax+ecx+326]
  00161	57		 push	 edi
  00162	0f b6 bc 08 44
	01 00 00	 movzx	 edi, BYTE PTR [eax+ecx+324]
  0016a	0f b6 84 08 49
	01 00 00	 movzx	 eax, BYTE PTR [eax+ecx+329]
  00172	57		 push	 edi
  00173	50		 push	 eax
  00174	52		 push	 edx
  00175	e8 00 00 00 00	 call	 ?ItemSerialCreateSend@@YAXHEEEHEEEEEHEE@Z ; ItemSerialCreateSend
  0017a	83 c4 34	 add	 esp, 52			; 00000034H
$LN7@MakeItem:

; 175  : 
; 176  : 				for( int j = 0; j < 15; j++ )

  0017d	83 c6 30	 add	 esi, 48			; 00000030H
  00180	ff 4d fc	 dec	 DWORD PTR tv1183[ebp]
  00183	0f 85 f7 fe ff
	ff		 jne	 $LL25@MakeItem
$LN12@MakeItem:

; 167  : 
; 168  : 	for(int i = 0; i < MAX_SET_ITEM_MACRO; i++ )

  00189	8b 4d f8	 mov	 ecx, DWORD PTR tv1322[ebp]
  0018c	8b 45 f4	 mov	 eax, DWORD PTR tv1320[ebp]
  0018f	8b 75 f0	 mov	 esi, DWORD PTR tv1318[ebp]
  00192	83 c1 04	 add	 ecx, 4
  00195	05 ff 00 00 00	 add	 eax, 255		; 000000ffH
  0019a	81 c6 d0 02 00
	00		 add	 esi, 720		; 000002d0H
  001a0	ff 4d ec	 dec	 DWORD PTR tv1305[ebp]
  001a3	89 4d f8	 mov	 DWORD PTR tv1322[ebp], ecx
  001a6	89 45 f4	 mov	 DWORD PTR tv1320[ebp], eax
  001a9	89 75 f0	 mov	 DWORD PTR tv1318[ebp], esi
  001ac	0f 85 7e fe ff
	ff		 jne	 $LL26@MakeItem

; 230  : 						}
; 231  : 					}
; 232  : 				}
; 233  : 			}
; 234  : 		}
; 235  : 	}
; 236  : 
; 237  : 	return bFindItem;

  001b2	8b 45 e8	 mov	 eax, DWORD PTR _bFindItem$[ebp]
  001b5	5f		 pop	 edi
  001b6	5e		 pop	 esi
  001b7	5b		 pop	 ebx

; 238  : }

  001b8	8b e5		 mov	 esp, ebp
  001ba	5d		 pop	 ebp
  001bb	c2 08 00	 ret	 8
?MakeItem@CSetItemMacro@@QAEHHPAD@Z ENDP		; CSetItemMacro::MakeItem
_TEXT	ENDS
EXTRN	_atexit:PROC
; Function compile flags: /Ogtp
;	COMDAT ??__Eg_SetItemMacro@@YAXXZ
text$yc	SEGMENT
??__Eg_SetItemMacro@@YAXXZ PROC				; `dynamic initializer for 'g_SetItemMacro'', COMDAT

; 18   : CSetItemMacro g_SetItemMacro;

  00000	68 00 00 00 00	 push	 OFFSET ??__Fg_SetItemMacro@@YAXXZ ; `dynamic atexit destructor for 'g_SetItemMacro''
  00005	e8 00 00 00 00	 call	 _atexit
  0000a	59		 pop	 ecx
  0000b	c3		 ret	 0
??__Eg_SetItemMacro@@YAXXZ ENDP				; `dynamic initializer for 'g_SetItemMacro''
; Function compile flags: /Ogtp
text$yc	ENDS
;	COMDAT ??__Fg_SetItemMacro@@YAXXZ
text$yd	SEGMENT
??__Fg_SetItemMacro@@YAXXZ PROC				; `dynamic atexit destructor for 'g_SetItemMacro'', COMDAT
  00000	c3		 ret	 0
??__Fg_SetItemMacro@@YAXXZ ENDP				; `dynamic atexit destructor for 'g_SetItemMacro''
text$yd	ENDS
PUBLIC	?g_SetItemMacro@@3VCSetItemMacro@@A		; g_SetItemMacro
_BSS	SEGMENT
?g_SetItemMacro@@3VCSetItemMacro@@A DB 0bf38H DUP (?)	; g_SetItemMacro
_BSS	ENDS
CRT$XCU	SEGMENT
_g_SetItemMacro$initializer$ DD FLAT:??__Eg_SetItemMacro@@YAXXZ
CRT$XCU	ENDS
END
