; Listing generated by Microsoft (R) Optimizing Compiler Version 16.00.30319.01 

	TITLE	E:\work\tranet_version\GS\GameServer\SkillAdditionInfo.cpp
	.686P
	.XMM
	include listing.inc
	.model	flat

INCLUDELIB LIBCMT
INCLUDELIB OLDNAMES

_DATA	SEGMENT
_g_iNpcUpDfLevel_CGATE DD 01H
	DD	02H
	DD	02dc6c0H
	DD	02H
	DD	03H
	DD	02dc6c0H
	DD	03H
	DD	04H
	DD	02dc6c0H
_g_iNpcUpDfLevel_CSTATUE DD 01H
	DD	03H
	DD	02dc6c0H
	DD	02H
	DD	05H
	DD	02dc6c0H
	DD	03H
	DD	07H
	DD	02dc6c0H
_g_iNpcUpMaxHP_CGATE DD 02625a0H
	DD	02H
	DD	0f4240H
	DD	03567e0H
	DD	03H
	DD	0f4240H
	DD	04f5880H
	DD	04H
	DD	0f4240H
_g_iNpcUpMaxHP_CSTATUE DD 02191c0H
	DD	03H
	DD	0f4240H
	DD	033e140H
	DD	05H
	DD	0f4240H
	DD	04c4b40H
	DD	07H
	DD	0f4240H
_g_iNpcUpRgLevel_CSTATUE DD 01H
	DD	03H
	DD	04c4b40H
	DD	02H
	DD	05H
	DD	04c4b40H
	DD	03H
	DD	07H
	DD	04c4b40H
_g_iCsUserReSpawnArea DD 023H
	DD	011H
	DD	090H
	DD	030H
	DD	04aH
	DD	090H
	DD	073H
	DD	09aH
	DD	023H
	DD	011H
	DD	090H
	DD	030H
_g_iNpcDefense_CGATE DD 064H
	DD	0b4H
	DD	012cH
	DD	0208H
_g_iNpcDefense_CSTATUE DD 050H
	DD	0b4H
	DD	0154H
	DD	0226H
_g_iCastleWallStepAxisY DD 071H
	DD	0a0H
	DD	0cbH
_DATA	ENDS
PUBLIC	??_H@YGXPAXIHP6EPAX0@Z@Z			; `vector constructor iterator'
; Function compile flags: /Ogtp
;	COMDAT ??_H@YGXPAXIHP6EPAX0@Z@Z
_TEXT	SEGMENT
___t$ = 8						; size = 4
___s$ = 12						; size = 4
___n$ = 16						; size = 4
___f$ = 20						; size = 4
??_H@YGXPAXIHP6EPAX0@Z@Z PROC				; `vector constructor iterator', COMDAT
  00000	55		 push	 ebp
  00001	8b ec		 mov	 ebp, esp
  00003	57		 push	 edi
  00004	8b 7d 10	 mov	 edi, DWORD PTR ___n$[ebp]
  00007	4f		 dec	 edi
  00008	78 14		 js	 SHORT $LN1@vector
  0000a	53		 push	 ebx
  0000b	8b 5d 14	 mov	 ebx, DWORD PTR ___f$[ebp]
  0000e	56		 push	 esi
  0000f	8b 75 08	 mov	 esi, DWORD PTR ___t$[ebp]
$LL2@vector:
  00012	8b ce		 mov	 ecx, esi
  00014	ff d3		 call	 ebx
  00016	03 75 0c	 add	 esi, DWORD PTR ___s$[ebp]
  00019	4f		 dec	 edi
  0001a	79 f6		 jns	 SHORT $LL2@vector
  0001c	5e		 pop	 esi
  0001d	5b		 pop	 ebx
$LN1@vector:
  0001e	5f		 pop	 edi
  0001f	5d		 pop	 ebp
  00020	c2 10 00	 ret	 16			; 00000010H
??_H@YGXPAXIHP6EPAX0@Z@Z ENDP				; `vector constructor iterator'
_TEXT	ENDS
PUBLIC	__$ArrayPad$
EXTRN	_isalnum:PROC
EXTRN	_isalpha:PROC
EXTRN	_atof:PROC
EXTRN	_isdigit:PROC
EXTRN	_getc:PROC
EXTRN	_ungetc:PROC
EXTRN	_isspace:PROC
EXTRN	_fgetc:PROC
EXTRN	___security_cookie:DWORD
EXTRN	__fltused:DWORD
EXTRN	@__security_check_cookie@4:PROC
_BSS	SEGMENT
_CurrentToken DD 01H DUP (?)
_TokenNumber DD	01H DUP (?)
_SMDFile DD	01H DUP (?)
_TokenString DB	064H DUP (?)
; Function compile flags: /Ogtp
; File e:\work\tranet_version\gs\include\readscript.h
_BSS	ENDS
;	COMDAT ?GetToken@@YA?AW4SMDToken@@XZ
_TEXT	SEGMENT
_TempString$ = -104					; size = 100
__$ArrayPad$ = -4					; size = 4
?GetToken@@YA?AW4SMDToken@@XZ PROC			; GetToken, COMDAT

; 24   : {

  00000	55		 push	 ebp
  00001	8b ec		 mov	 ebp, esp
  00003	83 ec 68	 sub	 esp, 104		; 00000068H
  00006	a1 00 00 00 00	 mov	 eax, DWORD PTR ___security_cookie
  0000b	33 c5		 xor	 eax, ebp
  0000d	89 45 fc	 mov	 DWORD PTR __$ArrayPad$[ebp], eax

; 25   : 	char ch;
; 26   : 	char* p;
; 27   : 	char TempString[100];
; 28   : 
; 29   : 	TokenString[0]=0;

  00010	c6 05 00 00 00
	00 00		 mov	 BYTE PTR _TokenString, 0
  00017	53		 push	 ebx
  00018	eb 06 8d 9b 00
	00 00 00	 npad	 8
$LL31@GetToken:

; 30   : 
; 31   : 	do
; 32   : 	{
; 33   : 		if ((ch=fgetc(SMDFile)) == -1)

  00020	a1 00 00 00 00	 mov	 eax, DWORD PTR _SMDFile
  00025	50		 push	 eax
  00026	e8 00 00 00 00	 call	 _fgetc
  0002b	8a d8		 mov	 bl, al
  0002d	83 c4 04	 add	 esp, 4
  00030	80 fb ff	 cmp	 bl, -1
  00033	74 64		 je	 SHORT $LN39@GetToken

; 36   : 		}
; 37   : 		else
; 38   : 		{	
; 39   : 			if (ch=='/')		// this is /

  00035	80 fb 2f	 cmp	 bl, 47			; 0000002fH
  00038	75 31		 jne	 SHORT $LN30@GetToken

; 40   : 			{
; 41   : 				if((ch=fgetc(SMDFile)) == '/')

  0003a	8b 0d 00 00 00
	00		 mov	 ecx, DWORD PTR _SMDFile
  00040	51		 push	 ecx
  00041	e8 00 00 00 00	 call	 _fgetc
  00046	8a d8		 mov	 bl, al
  00048	83 c4 04	 add	 esp, 4
  0004b	80 fb 2f	 cmp	 bl, 47			; 0000002fH
  0004e	75 1b		 jne	 SHORT $LN30@GetToken
$LL24@GetToken:

; 42   : 				{
; 43   : 					while ((ch != '\n') && (ch != -1))	// End of Line (EOL)

  00050	80 fb ff	 cmp	 bl, -1
  00053	74 44		 je	 SHORT $LN39@GetToken

; 44   : 					{
; 45   : 						ch=fgetc(SMDFile);

  00055	8b 15 00 00 00
	00		 mov	 edx, DWORD PTR _SMDFile
  0005b	52		 push	 edx
  0005c	e8 00 00 00 00	 call	 _fgetc
  00061	8a d8		 mov	 bl, al
  00063	83 c4 04	 add	 esp, 4
  00066	80 fb 0a	 cmp	 bl, 10			; 0000000aH
  00069	75 e5		 jne	 SHORT $LL24@GetToken
$LN30@GetToken:

; 46   : 					}
; 47   : 	
; 48   : 					if (ch == -1)
; 49   : 					{
; 50   : 						return END;	// End of FILE
; 51   : 					}
; 52   : 				}
; 53   : 			}
; 54   : 		}
; 55   : 	}
; 56   : 	while (isspace(ch) != 0);

  0006b	0f be c3	 movsx	 eax, bl
  0006e	50		 push	 eax
  0006f	e8 00 00 00 00	 call	 _isspace
  00074	83 c4 04	 add	 esp, 4
  00077	85 c0		 test	 eax, eax
  00079	75 a5		 jne	 SHORT $LL31@GetToken

; 57   : 
; 58   : 	
; 59   : 	switch(ch)

  0007b	0f be c3	 movsx	 eax, bl
  0007e	8d 48 de	 lea	 ecx, DWORD PTR [eax-34]
  00081	56		 push	 esi
  00082	83 f9 5b	 cmp	 ecx, 91			; 0000005bH
  00085	0f 87 2b 01 00
	00		 ja	 $LN6@GetToken
  0008b	0f b6 89 00 00
	00 00		 movzx	 ecx, BYTE PTR $LN46@GetToken[ecx]
  00092	ff 24 8d 00 00
	00 00		 jmp	 DWORD PTR $LN50@GetToken[ecx*4]
$LN39@GetToken:

; 34   : 		{
; 35   : 			return END;	// End of FILE (EOF)

  00099	b8 02 00 00 00	 mov	 eax, 2
  0009e	5b		 pop	 ebx

; 147  : 		}
; 148  : 		break;
; 149  : 
; 150  : 	}
; 151  : 
; 152  : 	return NAME;
; 153  : }

  0009f	8b 4d fc	 mov	 ecx, DWORD PTR __$ArrayPad$[ebp]
  000a2	33 cd		 xor	 ecx, ebp
  000a4	e8 00 00 00 00	 call	 @__security_check_cookie@4
  000a9	8b e5		 mov	 esp, ebp
  000ab	5d		 pop	 ebp
  000ac	c3		 ret	 0
$LN19@GetToken:

; 60   : 	{
; 61   : 
; 62   : 	case 0x23:	// #
; 63   : 		return CurrentToken=COMMAND;

  000ad	b8 23 00 00 00	 mov	 eax, 35			; 00000023H
  000b2	e9 99 01 00 00	 jmp	 $LN48@GetToken
$LN18@GetToken:

; 64   : 		break;
; 65   : 	
; 66   : 	case 0x3B:	// ;
; 67   : 		return CurrentToken=SEMICOLON;

  000b7	b8 3b 00 00 00	 mov	 eax, 59			; 0000003bH
  000bc	e9 8f 01 00 00	 jmp	 $LN48@GetToken
$LN17@GetToken:

; 68   : 		break;
; 69   : 	
; 70   : 	case 0x2C:	// ,
; 71   : 
; 72   : 		return CurrentToken=COMMA;

  000c1	b8 2c 00 00 00	 mov	 eax, 44			; 0000002cH
  000c6	e9 85 01 00 00	 jmp	 $LN48@GetToken
$LN16@GetToken:

; 73   : 		break;
; 74   : 	
; 75   : 	case 0x7B:	// {
; 76   : 		return CurrentToken = LP;

  000cb	b8 7b 00 00 00	 mov	 eax, 123		; 0000007bH
  000d0	e9 7b 01 00 00	 jmp	 $LN48@GetToken
$LN15@GetToken:

; 77   : 		break;
; 78   : 
; 79   : 	case 0x7D:	// }
; 80   : 		return CurrentToken = RP;

  000d5	b8 7d 00 00 00	 mov	 eax, 125		; 0000007dH
  000da	e9 71 01 00 00	 jmp	 $LN48@GetToken
$LN14@GetToken:

; 81   : 		break;
; 82   : 	// Nice Index Table :)	by Deathway
; 83   : 	// Numbers Case
; 84   : 	case 0x2D:	//-
; 85   : 	case 0x2E:	//.
; 86   : 	case '0':	//0
; 87   : 	case '1':	//1
; 88   : 	case '2':	//2
; 89   : 	case '3':	//3
; 90   : 	case '4':	//4		
; 91   : 	case '5':	//5
; 92   : 	case '6':	//6
; 93   : 	case '7':	//7
; 94   : 	case '8':	//8
; 95   : 	case '9':	//9
; 96   : 		ungetc(ch, SMDFile);

  000df	8b 15 00 00 00
	00		 mov	 edx, DWORD PTR _SMDFile
  000e5	52		 push	 edx
  000e6	50		 push	 eax
  000e7	e8 00 00 00 00	 call	 _ungetc

; 97   : 		p = TempString;
; 98   : 		
; 99   : 		while (((ch=getc(SMDFile)) != -1) && ((ch == 0x2E) || (isdigit(ch) != 0) || (ch == 0x2D)))  // 2e '.'  2D '-'

  000ec	a1 00 00 00 00	 mov	 eax, DWORD PTR _SMDFile
  000f1	50		 push	 eax
  000f2	8d 75 98	 lea	 esi, DWORD PTR _TempString$[ebp]
  000f5	e8 00 00 00 00	 call	 _getc
  000fa	8a d8		 mov	 bl, al
  000fc	83 c4 0c	 add	 esp, 12			; 0000000cH
  000ff	80 fb ff	 cmp	 bl, -1
  00102	74 33		 je	 SHORT $LN12@GetToken
$LL13@GetToken:
  00104	80 fb 2e	 cmp	 bl, 46			; 0000002eH
  00107	74 15		 je	 SHORT $LN11@GetToken
  00109	0f be cb	 movsx	 ecx, bl
  0010c	51		 push	 ecx
  0010d	e8 00 00 00 00	 call	 _isdigit
  00112	83 c4 04	 add	 esp, 4
  00115	85 c0		 test	 eax, eax
  00117	75 05		 jne	 SHORT $LN11@GetToken
  00119	80 fb 2d	 cmp	 bl, 45			; 0000002dH
  0011c	75 19		 jne	 SHORT $LN12@GetToken
$LN11@GetToken:
  0011e	8b 15 00 00 00
	00		 mov	 edx, DWORD PTR _SMDFile

; 100  : 		{
; 101  : 			*p = ch;	// Construct a String

  00124	88 1e		 mov	 BYTE PTR [esi], bl
  00126	52		 push	 edx

; 102  : 			p++;

  00127	46		 inc	 esi
  00128	e8 00 00 00 00	 call	 _getc
  0012d	8a d8		 mov	 bl, al
  0012f	83 c4 04	 add	 esp, 4
  00132	80 fb ff	 cmp	 bl, -1
  00135	75 cd		 jne	 SHORT $LL13@GetToken
$LN12@GetToken:

; 103  : 		}		
; 104  : 		*p = 0;
; 105  : 		TokenNumber = atof( TempString);	// Select the first Byte as Main ID

  00137	8d 45 98	 lea	 eax, DWORD PTR _TempString$[ebp]
  0013a	50		 push	 eax
  0013b	c6 06 00	 mov	 BYTE PTR [esi], 0
  0013e	e8 00 00 00 00	 call	 _atof
  00143	d9 1d 00 00 00
	00		 fstp	 DWORD PTR _TokenNumber
  00149	83 c4 04	 add	 esp, 4
  0014c	5e		 pop	 esi

; 106  : 		return CurrentToken  = NUMBER ;

  0014d	c7 05 00 00 00
	00 01 00 00 00	 mov	 DWORD PTR _CurrentToken, 1
  00157	b8 01 00 00 00	 mov	 eax, 1
  0015c	5b		 pop	 ebx

; 147  : 		}
; 148  : 		break;
; 149  : 
; 150  : 	}
; 151  : 
; 152  : 	return NAME;
; 153  : }

  0015d	8b 4d fc	 mov	 ecx, DWORD PTR __$ArrayPad$[ebp]
  00160	33 cd		 xor	 ecx, ebp
  00162	e8 00 00 00 00	 call	 @__security_check_cookie@4
  00167	8b e5		 mov	 esp, ebp
  00169	5d		 pop	 ebp
  0016a	c3		 ret	 0
$LN10@GetToken:

; 107  : 		break;
; 108  : 
; 109  : 	case '\"':	// "	String Case
; 110  : 		p=&TokenString[0];
; 111  : 		
; 112  : 		while (((ch=getc(SMDFile)) != -1 ) && (ch != 0x22))	// nice

  0016b	8b 0d 00 00 00
	00		 mov	 ecx, DWORD PTR _SMDFile
  00171	51		 push	 ecx
  00172	be 00 00 00 00	 mov	 esi, OFFSET _TokenString
  00177	e8 00 00 00 00	 call	 _getc
  0017c	83 c4 04	 add	 esp, 4
  0017f	3c ff		 cmp	 al, -1
  00181	74 1e		 je	 SHORT $LN8@GetToken
$LL9@GetToken:
  00183	3c 22		 cmp	 al, 34			; 00000022H
  00185	0f 84 a1 00 00
	00		 je	 $LN7@GetToken
  0018b	8b 15 00 00 00
	00		 mov	 edx, DWORD PTR _SMDFile

; 113  : 		{
; 114  : 			*p = ch;

  00191	88 06		 mov	 BYTE PTR [esi], al
  00193	52		 push	 edx

; 115  : 			p++;

  00194	46		 inc	 esi
  00195	e8 00 00 00 00	 call	 _getc
  0019a	83 c4 04	 add	 esp, 4
  0019d	3c ff		 cmp	 al, -1
  0019f	75 e2		 jne	 SHORT $LL9@GetToken
$LN8@GetToken:

; 116  : 		}
; 117  : 		if (ch != 0x22 )

  001a1	3c 22		 cmp	 al, 34			; 00000022H
  001a3	0f 84 83 00 00
	00		 je	 $LN7@GetToken

; 118  : 		{
; 119  : 			ungetc(ch, SMDFile);

  001a9	8b 0d 00 00 00
	00		 mov	 ecx, DWORD PTR _SMDFile
  001af	0f be d0	 movsx	 edx, al
  001b2	51		 push	 ecx
  001b3	52		 push	 edx

; 120  : 		}
; 121  : 		*p = 0;
; 122  : 		return CurrentToken = NAME;

  001b4	eb 6e		 jmp	 SHORT $LN49@GetToken
$LN6@GetToken:

; 123  : 		break;
; 124  : 
; 125  : 	default:	// Others
; 126  : 		if (isalpha(ch))

  001b6	50		 push	 eax
  001b7	e8 00 00 00 00	 call	 _isalpha
  001bc	83 c4 04	 add	 esp, 4
  001bf	85 c0		 test	 eax, eax
  001c1	0f 84 84 00 00
	00		 je	 $LN5@GetToken

; 127  : 		{
; 128  : 			p=&TokenString[0];
; 129  : 			*p=ch;
; 130  : 			p++;
; 131  : 
; 132  : 			while ( ((ch=getc(SMDFile)) != -1) && ( (ch == 0x2E) || (ch == 0x5F) || (isalnum(ch) != 0) ) )

  001c7	a1 00 00 00 00	 mov	 eax, DWORD PTR _SMDFile
  001cc	50		 push	 eax
  001cd	88 1d 00 00 00
	00		 mov	 BYTE PTR _TokenString, bl
  001d3	be 01 00 00 00	 mov	 esi, OFFSET _TokenString+1
  001d8	e8 00 00 00 00	 call	 _getc
  001dd	8a d8		 mov	 bl, al
  001df	83 c4 04	 add	 esp, 4
  001e2	80 fb ff	 cmp	 bl, -1
  001e5	74 33		 je	 SHORT $LN3@GetToken
$LL4@GetToken:
  001e7	80 fb 2e	 cmp	 bl, 46			; 0000002eH
  001ea	74 15		 je	 SHORT $LN2@GetToken
  001ec	80 fb 5f	 cmp	 bl, 95			; 0000005fH
  001ef	74 10		 je	 SHORT $LN2@GetToken
  001f1	0f be cb	 movsx	 ecx, bl
  001f4	51		 push	 ecx
  001f5	e8 00 00 00 00	 call	 _isalnum
  001fa	83 c4 04	 add	 esp, 4
  001fd	85 c0		 test	 eax, eax
  001ff	74 19		 je	 SHORT $LN3@GetToken
$LN2@GetToken:
  00201	8b 15 00 00 00
	00		 mov	 edx, DWORD PTR _SMDFile

; 133  : 			{
; 134  : 				*p=ch;

  00207	88 1e		 mov	 BYTE PTR [esi], bl
  00209	52		 push	 edx

; 135  : 				p++;

  0020a	46		 inc	 esi
  0020b	e8 00 00 00 00	 call	 _getc
  00210	8a d8		 mov	 bl, al
  00212	83 c4 04	 add	 esp, 4
  00215	80 fb ff	 cmp	 bl, -1
  00218	75 cd		 jne	 SHORT $LL4@GetToken
$LN3@GetToken:

; 136  : 				
; 137  : 			}
; 138  : 
; 139  : 			ungetc(ch, SMDFile);

  0021a	a1 00 00 00 00	 mov	 eax, DWORD PTR _SMDFile
  0021f	0f be cb	 movsx	 ecx, bl
  00222	50		 push	 eax
  00223	51		 push	 ecx
$LN49@GetToken:
  00224	e8 00 00 00 00	 call	 _ungetc
  00229	83 c4 08	 add	 esp, 8
$LN7@GetToken:

; 140  : 			*p=0;

  0022c	c6 06 00	 mov	 BYTE PTR [esi], 0
  0022f	5e		 pop	 esi

; 141  : 			CurrentToken=NAME;

  00230	c7 05 00 00 00
	00 00 00 00 00	 mov	 DWORD PTR _CurrentToken, 0

; 142  : 			return CurrentToken;

  0023a	33 c0		 xor	 eax, eax
  0023c	5b		 pop	 ebx

; 147  : 		}
; 148  : 		break;
; 149  : 
; 150  : 	}
; 151  : 
; 152  : 	return NAME;
; 153  : }

  0023d	8b 4d fc	 mov	 ecx, DWORD PTR __$ArrayPad$[ebp]
  00240	33 cd		 xor	 ecx, ebp
  00242	e8 00 00 00 00	 call	 @__security_check_cookie@4
  00247	8b e5		 mov	 esp, ebp
  00249	5d		 pop	 ebp
  0024a	c3		 ret	 0
$LN5@GetToken:

; 143  : 		}
; 144  : 		else
; 145  : 		{
; 146  : 			return CurrentToken = SMD_ERROR; // '<'

  0024b	b8 3c 00 00 00	 mov	 eax, 60			; 0000003cH
$LN48@GetToken:

; 147  : 		}
; 148  : 		break;
; 149  : 
; 150  : 	}
; 151  : 
; 152  : 	return NAME;
; 153  : }

  00250	8b 4d fc	 mov	 ecx, DWORD PTR __$ArrayPad$[ebp]
  00253	5e		 pop	 esi
  00254	33 cd		 xor	 ecx, ebp
  00256	a3 00 00 00 00	 mov	 DWORD PTR _CurrentToken, eax
  0025b	5b		 pop	 ebx
  0025c	e8 00 00 00 00	 call	 @__security_check_cookie@4
  00261	8b e5		 mov	 esp, ebp
  00263	5d		 pop	 ebp
  00264	c3		 ret	 0
  00265	8d 49 00	 npad	 3
$LN50@GetToken:
  00268	00 00 00 00	 DD	 $LN10@GetToken
  0026c	00 00 00 00	 DD	 $LN19@GetToken
  00270	00 00 00 00	 DD	 $LN17@GetToken
  00274	00 00 00 00	 DD	 $LN14@GetToken
  00278	00 00 00 00	 DD	 $LN18@GetToken
  0027c	00 00 00 00	 DD	 $LN16@GetToken
  00280	00 00 00 00	 DD	 $LN15@GetToken
  00284	00 00 00 00	 DD	 $LN6@GetToken
$LN46@GetToken:
  00288	00		 DB	 0
  00289	01		 DB	 1
  0028a	07		 DB	 7
  0028b	07		 DB	 7
  0028c	07		 DB	 7
  0028d	07		 DB	 7
  0028e	07		 DB	 7
  0028f	07		 DB	 7
  00290	07		 DB	 7
  00291	07		 DB	 7
  00292	02		 DB	 2
  00293	03		 DB	 3
  00294	03		 DB	 3
  00295	07		 DB	 7
  00296	03		 DB	 3
  00297	03		 DB	 3
  00298	03		 DB	 3
  00299	03		 DB	 3
  0029a	03		 DB	 3
  0029b	03		 DB	 3
  0029c	03		 DB	 3
  0029d	03		 DB	 3
  0029e	03		 DB	 3
  0029f	03		 DB	 3
  002a0	07		 DB	 7
  002a1	04		 DB	 4
  002a2	07		 DB	 7
  002a3	07		 DB	 7
  002a4	07		 DB	 7
  002a5	07		 DB	 7
  002a6	07		 DB	 7
  002a7	07		 DB	 7
  002a8	07		 DB	 7
  002a9	07		 DB	 7
  002aa	07		 DB	 7
  002ab	07		 DB	 7
  002ac	07		 DB	 7
  002ad	07		 DB	 7
  002ae	07		 DB	 7
  002af	07		 DB	 7
  002b0	07		 DB	 7
  002b1	07		 DB	 7
  002b2	07		 DB	 7
  002b3	07		 DB	 7
  002b4	07		 DB	 7
  002b5	07		 DB	 7
  002b6	07		 DB	 7
  002b7	07		 DB	 7
  002b8	07		 DB	 7
  002b9	07		 DB	 7
  002ba	07		 DB	 7
  002bb	07		 DB	 7
  002bc	07		 DB	 7
  002bd	07		 DB	 7
  002be	07		 DB	 7
  002bf	07		 DB	 7
  002c0	07		 DB	 7
  002c1	07		 DB	 7
  002c2	07		 DB	 7
  002c3	07		 DB	 7
  002c4	07		 DB	 7
  002c5	07		 DB	 7
  002c6	07		 DB	 7
  002c7	07		 DB	 7
  002c8	07		 DB	 7
  002c9	07		 DB	 7
  002ca	07		 DB	 7
  002cb	07		 DB	 7
  002cc	07		 DB	 7
  002cd	07		 DB	 7
  002ce	07		 DB	 7
  002cf	07		 DB	 7
  002d0	07		 DB	 7
  002d1	07		 DB	 7
  002d2	07		 DB	 7
  002d3	07		 DB	 7
  002d4	07		 DB	 7
  002d5	07		 DB	 7
  002d6	07		 DB	 7
  002d7	07		 DB	 7
  002d8	07		 DB	 7
  002d9	07		 DB	 7
  002da	07		 DB	 7
  002db	07		 DB	 7
  002dc	07		 DB	 7
  002dd	07		 DB	 7
  002de	07		 DB	 7
  002df	07		 DB	 7
  002e0	07		 DB	 7
  002e1	05		 DB	 5
  002e2	07		 DB	 7
  002e3	06		 DB	 6
?GetToken@@YA?AW4SMDToken@@XZ ENDP			; GetToken
_TEXT	ENDS
PUBLIC	??_7CSkillAdditionInfo@@6B@			; CSkillAdditionInfo::`vftable'
PUBLIC	??1CSkillAdditionInfo@@UAE@XZ			; CSkillAdditionInfo::~CSkillAdditionInfo
PUBLIC	??_R4CSkillAdditionInfo@@6B@			; CSkillAdditionInfo::`RTTI Complete Object Locator'
PUBLIC	??_R0?AVCSkillAdditionInfo@@@8			; CSkillAdditionInfo `RTTI Type Descriptor'
PUBLIC	??_R3CSkillAdditionInfo@@8			; CSkillAdditionInfo::`RTTI Class Hierarchy Descriptor'
PUBLIC	??_R2CSkillAdditionInfo@@8			; CSkillAdditionInfo::`RTTI Base Class Array'
PUBLIC	??_R1A@?0A@EA@CSkillAdditionInfo@@8		; CSkillAdditionInfo::`RTTI Base Class Descriptor at (0,-1,0,64)'
EXTRN	??_7type_info@@6B@:QWORD			; type_info::`vftable'
EXTRN	??_ECSkillAdditionInfo@@UAEPAXI@Z:PROC		; CSkillAdditionInfo::`vector deleting destructor'
;	COMDAT ??_R1A@?0A@EA@CSkillAdditionInfo@@8
; File e:\work\tranet_version\gs\gameserver\skilladditioninfo.cpp
rdata$r	SEGMENT
??_R1A@?0A@EA@CSkillAdditionInfo@@8 DD FLAT:??_R0?AVCSkillAdditionInfo@@@8 ; CSkillAdditionInfo::`RTTI Base Class Descriptor at (0,-1,0,64)'
	DD	00H
	DD	00H
	DD	0ffffffffH
	DD	00H
	DD	040H
	DD	FLAT:??_R3CSkillAdditionInfo@@8
rdata$r	ENDS
;	COMDAT ??_R2CSkillAdditionInfo@@8
rdata$r	SEGMENT
??_R2CSkillAdditionInfo@@8 DD FLAT:??_R1A@?0A@EA@CSkillAdditionInfo@@8 ; CSkillAdditionInfo::`RTTI Base Class Array'
rdata$r	ENDS
;	COMDAT ??_R3CSkillAdditionInfo@@8
rdata$r	SEGMENT
??_R3CSkillAdditionInfo@@8 DD 00H			; CSkillAdditionInfo::`RTTI Class Hierarchy Descriptor'
	DD	00H
	DD	01H
	DD	FLAT:??_R2CSkillAdditionInfo@@8
rdata$r	ENDS
;	COMDAT ??_R0?AVCSkillAdditionInfo@@@8
_DATA	SEGMENT
??_R0?AVCSkillAdditionInfo@@@8 DD FLAT:??_7type_info@@6B@ ; CSkillAdditionInfo `RTTI Type Descriptor'
	DD	00H
	DB	'.?AVCSkillAdditionInfo@@', 00H
_DATA	ENDS
;	COMDAT ??_R4CSkillAdditionInfo@@6B@
rdata$r	SEGMENT
??_R4CSkillAdditionInfo@@6B@ DD 00H			; CSkillAdditionInfo::`RTTI Complete Object Locator'
	DD	00H
	DD	00H
	DD	FLAT:??_R0?AVCSkillAdditionInfo@@@8
	DD	FLAT:??_R3CSkillAdditionInfo@@8
rdata$r	ENDS
;	COMDAT ??_7CSkillAdditionInfo@@6B@
CONST	SEGMENT
??_7CSkillAdditionInfo@@6B@ DD FLAT:??_R4CSkillAdditionInfo@@6B@ ; CSkillAdditionInfo::`vftable'
	DD	FLAT:??_ECSkillAdditionInfo@@UAEPAXI@Z
; Function compile flags: /Ogtp
CONST	ENDS
;	COMDAT ??1CSkillAdditionInfo@@UAE@XZ
_TEXT	SEGMENT
??1CSkillAdditionInfo@@UAE@XZ PROC			; CSkillAdditionInfo::~CSkillAdditionInfo, COMDAT
; _this$ = ecx

; 23   : {

  00000	c7 01 00 00 00
	00		 mov	 DWORD PTR [ecx], OFFSET ??_7CSkillAdditionInfo@@6B@

; 24   : 	return;
; 25   : }

  00006	c3		 ret	 0
??1CSkillAdditionInfo@@UAE@XZ ENDP			; CSkillAdditionInfo::~CSkillAdditionInfo
_TEXT	ENDS
PUBLIC	?Init@CSkillAdditionInfo@@QAEXXZ		; CSkillAdditionInfo::Init
EXTRN	_memset:PROC
; Function compile flags: /Ogtp
;	COMDAT ?Init@CSkillAdditionInfo@@QAEXXZ
_TEXT	SEGMENT
?Init@CSkillAdditionInfo@@QAEXXZ PROC			; CSkillAdditionInfo::Init, COMDAT
; _this$ = ecx

; 28   : {

  00000	56		 push	 esi

; 29   : 	this->m_iInfinityArrowSkillTime = 0; //4
; 30   : 	this->m_iInfinityArrowUseLevel = 0; //8
; 31   : 
; 32   : 	this->m_iInfinityArrowMPConsumptionPlus0 = 0; //C
; 33   : 	this->m_iInfinityArrowMPConsumptionPlus1 = 0; //10
; 34   : 	this->m_iInfinityArrowMPConsumptionPlus2 = 0; //14
; 35   : 	this->m_iInfinityArrowMPConsumptionPlus3 = 0; //18 //Season4.5 add-on
; 36   : 
; 37   : 	for(int i = 0; i <= 5; i++) //Master Soul Barrier Season 3
; 38   : 	{
; 39   : 		this->m_wSoulBarrierManaRateLevel[i] = 0;

  00001	33 c0		 xor	 eax, eax
  00003	0f b7 f0	 movzx	 esi, ax
  00006	33 d2		 xor	 edx, edx
  00008	8b c6		 mov	 eax, esi
  0000a	89 51 04	 mov	 DWORD PTR [ecx+4], edx
  0000d	89 51 08	 mov	 DWORD PTR [ecx+8], edx
  00010	89 51 0c	 mov	 DWORD PTR [ecx+12], edx
  00013	89 51 10	 mov	 DWORD PTR [ecx+16], edx
  00016	89 51 14	 mov	 DWORD PTR [ecx+20], edx
  00019	89 51 18	 mov	 DWORD PTR [ecx+24], edx
  0001c	c1 e6 10	 shl	 esi, 16			; 00000010H
  0001f	0b c6		 or	 eax, esi
  00021	89 41 34	 mov	 DWORD PTR [ecx+52], eax
  00024	89 41 38	 mov	 DWORD PTR [ecx+56], eax

; 40   : 	}
; 41   : 
; 42   : 	ZeroMemory(this->m_SkillUseReqLevel, sizeof(m_SkillUseReqLevel));

  00027	68 f0 0a 00 00	 push	 2800			; 00000af0H
  0002c	89 41 3c	 mov	 DWORD PTR [ecx+60], eax
  0002f	52		 push	 edx
  00030	83 c1 5c	 add	 ecx, 92			; 0000005cH
  00033	51		 push	 ecx
  00034	e8 00 00 00 00	 call	 _memset
  00039	83 c4 0c	 add	 esp, 12			; 0000000cH
  0003c	5e		 pop	 esi

; 43   : }

  0003d	c3		 ret	 0
?Init@CSkillAdditionInfo@@QAEXXZ ENDP			; CSkillAdditionInfo::Init
_TEXT	ENDS
PUBLIC	??_C@_0DK@MKBKHGKF@?$FLSkill?5Addition?5Info?$FN?5?9?5File?5loa@ ; `string'
PUBLIC	??_C@_0GH@IFKPHEDI@?$FLSkill?5Addition?5Info?$FN?5?$FLSoulBarri@ ; `string'
PUBLIC	??_C@_05JLPKDJLM@10?400?$AA@			; `string'
PUBLIC	??_C@_0BM@BLDGHHPG@SoulBarrierManaRate_Level20?$AA@ ; `string'
PUBLIC	??_C@_0BM@MILCHCOG@SoulBarrierManaRate_Level19?$AA@ ; `string'
PUBLIC	??_C@_0BM@NBKJEDKH@SoulBarrierManaRate_Level18?$AA@ ; `string'
PUBLIC	??_C@_0BM@FGDBFPGI@SoulBarrierManaRate_Level17?$AA@ ; `string'
PUBLIC	??_C@_0BM@EPCKGOCJ@SoulBarrierManaRate_Level16?$AA@ ; `string'
PUBLIC	??_C@_0BM@GEAHDNOK@SoulBarrierManaRate_Level15?$AA@ ; `string'
PUBLIC	??_C@_0BM@HNBMAMKL@SoulBarrierManaRate_Level14?$AA@ ; `string'
PUBLIC	??_C@_0BM@DCFNJKGM@SoulBarrierManaRate_Level13?$AA@ ; `string'
PUBLIC	??_C@_0BM@CLEGKLCN@SoulBarrierManaRate_Level12?$AA@ ; `string'
PUBLIC	??_C@_0BM@GLPIOO@SoulBarrierManaRate_Level11?$AA@ ; `string'
PUBLIC	??_C@_0BM@BJHAMJKP@SoulBarrierManaRate_Level10?$AA@ ; `string'
PUBLIC	??_C@_0BL@PCPPGEDC@SoulBarrierManaRate_Level9?$AA@ ; `string'
PUBLIC	??_C@_0BL@OLOEFFHD@SoulBarrierManaRate_Level8?$AA@ ; `string'
PUBLIC	??_C@_0BL@GMHMEJLM@SoulBarrierManaRate_Level7?$AA@ ; `string'
PUBLIC	??_C@_0BL@HFGHHIPN@SoulBarrierManaRate_Level6?$AA@ ; `string'
PUBLIC	??_C@_0BL@FOEKCLDO@SoulBarrierManaRate_Level5?$AA@ ; `string'
PUBLIC	??_C@_0BL@EHFBBKHP@SoulBarrierManaRate_Level4?$AA@ ; `string'
PUBLIC	??_C@_0BL@IBAIMLI@SoulBarrierManaRate_Level3?$AA@ ; `string'
PUBLIC	??_C@_0BL@BBALLNPJ@SoulBarrierManaRate_Level2?$AA@ ; `string'
PUBLIC	??_C@_0BL@DKCGOODK@SoulBarrierManaRate_Level1?$AA@ ; `string'
PUBLIC	??_C@_0M@ECCCJHIK@MasterSkill?$AA@		; `string'
PUBLIC	??_C@_0BL@CDDNNPHL@SoulBarrierManaRate_Level0?$AA@ ; `string'
PUBLIC	??_C@_0CA@JPCOALGP@?4?4?2Data?2ZtData?2MasterSkills?4ini?$AA@ ; `string'
PUBLIC	??_C@_0BD@IJFPEJBE@SleepTimeMaxVsUser?$AA@	; `string'
PUBLIC	??_C@_0BD@NLBINCPE@SleepTimeDivVsUser?$AA@	; `string'
PUBLIC	??_C@_0BF@GOCFFGAA@SleepTimeStartVsUser?$AA@	; `string'
PUBLIC	??_C@_0BC@PNLJFHCK@SleepTimeMaxVsMob?$AA@	; `string'
PUBLIC	??_C@_0BC@NCMAIBJJ@SleepTimeDivVsMob?$AA@	; `string'
PUBLIC	??_C@_0BE@DPILEECE@SleepTimeStartVsMob?$AA@	; `string'
PUBLIC	??_C@_0BD@LKCPAGKC@SleepRateMaxVsUser?$AA@	; `string'
PUBLIC	??_C@_0BD@OIGIJNEC@SleepRateDivVsUser?$AA@	; `string'
PUBLIC	??_C@_0BF@DKNJDAEP@SleepRateStartVsUser?$AA@	; `string'
PUBLIC	??_C@_0BC@IOOLAEEH@SleepRateMaxVsMob?$AA@	; `string'
PUBLIC	??_C@_0BC@KBJCNCPE@SleepRateDivVsMob?$AA@	; `string'
PUBLIC	??_C@_0BE@BNLKCCNC@SleepRateStartVsMob?$AA@	; `string'
PUBLIC	??_C@_0BD@GFPKBGOG@InnovationMaxPower?$AA@	; `string'
PUBLIC	??_C@_0BI@DCLKMNFB@InnovationTimeMaxVsUser?$AA@	; `string'
PUBLIC	??_C@_0BI@GAPNFGLB@InnovationTimeDivVsUser?$AA@	; `string'
PUBLIC	??_C@_0BK@JPOBBJM@InnovationTimeStartVsUser?$AA@ ; `string'
PUBLIC	??_C@_0BK@NJKLPIEC@InnovationEffectMaxVsUser?$AA@ ; `string'
PUBLIC	??_C@_0BK@ILOMGDKC@InnovationEffectDivVsUser?$AA@ ; `string'
PUBLIC	??_C@_0BM@DOKCHPDM@InnovationEffectStartVsUser?$AA@ ; `string'
PUBLIC	??_C@_0BH@BDHKBBJP@InnovationTimeMaxVsMob?$AA@	; `string'
PUBLIC	??_C@_0BH@DMADMHCM@InnovationTimeDivVsMob?$AA@	; `string'
PUBLIC	??_C@_0BJ@DJIGBELP@InnovationTimeStartVsMob?$AA@ ; `string'
PUBLIC	??_C@_0BJ@MHJDNFK@InnovationEffectMaxVsMob?$AA@	; `string'
PUBLIC	??_C@_0BJ@CDAAOLOJ@InnovationEffectDivVsMob?$AA@ ; `string'
PUBLIC	??_C@_0BL@LNNDEEFE@InnovationEffectStartVsMob?$AA@ ; `string'
PUBLIC	??_C@_0BB@EHPNILIJ@WeaknessMaxPower?$AA@	; `string'
PUBLIC	??_C@_0BG@MEAPEEBB@WeaknessTimeMaxVsUser?$AA@	; `string'
PUBLIC	??_C@_0BG@JGEINPPB@WeaknessTimeDivVsUser?$AA@	; `string'
PUBLIC	??_C@_0BI@GNODJDKI@WeaknessTimeStartVsUser?$AA@	; `string'
PUBLIC	??_C@_0BI@LNLGHKHG@WeaknessEffectMaxVsUser?$AA@	; `string'
PUBLIC	??_C@_0BI@OPPBOBJG@WeaknessEffectDivVsUser?$AA@	; `string'
PUBLIC	??_C@_0BK@IGDOAKNK@WeaknessEffectStartVsUser?$AA@ ; `string'
PUBLIC	??_C@_0BF@BPNFAKEK@WeaknessTimeMaxVsMob?$AA@	; `string'
PUBLIC	??_C@_0BF@DAKMNMPJ@WeaknessTimeDivVsMob?$AA@	; `string'
PUBLIC	??_C@_0BH@EPKMOAKG@WeaknessTimeStartVsMob?$AA@	; `string'
PUBLIC	??_C@_0BH@HKFDMJED@WeaknessEffectMaxVsMob?$AA@	; `string'
PUBLIC	??_C@_0BH@FFCKBPPA@WeaknessEffectDivVsMob?$AA@	; `string'
PUBLIC	??_C@_0BJ@JMADKNGD@WeaknessEffectStartVsMob?$AA@ ; `string'
PUBLIC	??_C@_0BF@PHKBFGGL@IncreaseBlockTimeMax?$AA@	; `string'
PUBLIC	??_C@_0BF@BKDJGFNH@IncreaseBlockTimeDiv?$AA@	; `string'
PUBLIC	??_C@_0BH@KEOKNCMM@IncreaseBlockTimeStart?$AA@	; `string'
PUBLIC	??_C@_0BH@LCBOKOJD@IncreaseBlockEffectMax?$AA@	; `string'
PUBLIC	??_C@_0BH@FPIGJNCP@IncreaseBlockEffectDiv?$AA@	; `string'
PUBLIC	??_C@_0BH@KJNKHPEI@IncreaseBlockEffectSub?$AA@	; `string'
PUBLIC	??_C@_0BJ@MLOJIGOI@IncreaseBlockEffectStart?$AA@ ; `string'
PUBLIC	??_C@_0BG@CMMPIBO@IncreaseHealthTimeMax?$AA@	; `string'
PUBLIC	??_C@_0BG@OPFEMLKC@IncreaseHealthTimeDiv?$AA@	; `string'
PUBLIC	??_C@_0BI@MHMMCEPN@IncreaseHealthTimeStart?$AA@	; `string'
PUBLIC	??_C@_0BI@NBDIFIKC@IncreaseHealthEffectMax?$AA@	; `string'
PUBLIC	??_C@_0BG@MPJHCBCJ@DecTimePerAttackSpeed?$AA@	; `string'
PUBLIC	??_C@_02PKFBJPLJ@10?$AA@			; `string'
PUBLIC	??_C@_0BI@MKPMIJHJ@IncreaseHealthEffectSub?$AA@	; `string'
PUBLIC	??_C@_0BK@FJGKLFFF@IncreaseHealthEffectStart?$AA@ ; `string'
PUBLIC	??_C@_0BF@JBOGCBGB@IgnoreDefenseTimeMax?$AA@	; `string'
PUBLIC	??_C@_0BF@HMHOBCNN@IgnoreDefenseTimeDiv?$AA@	; `string'
PUBLIC	??_C@_0BH@JAGELIJO@IgnoreDefenseTimeStart?$AA@	; `string'
PUBLIC	??_C@_0BH@IGJAMEMB@IgnoreDefenseEffectMax?$AA@	; `string'
PUBLIC	??_C@_0BH@GLAIPHHN@IgnoreDefenseEffectDiv?$AA@	; `string'
PUBLIC	??_C@_0BH@JNFEBFBK@IgnoreDefenseEffectSub?$AA@	; `string'
PUBLIC	??_C@_0BJ@OOADAFPG@IgnoreDefenseEffectStart?$AA@ ; `string'
PUBLIC	??_C@_0P@NOGILJJP@ReflectTimeMax?$AA@		; `string'
PUBLIC	??_C@_0P@DDPAIKCD@ReflectTimeDiv?$AA@		; `string'
PUBLIC	??_C@_0BB@OEIPCAFF@ReflectTimeStart?$AA@	; `string'
PUBLIC	??_C@_0BB@PCHLFMAK@ReflectEffectMax?$AA@	; `string'
PUBLIC	??_C@_0BB@BPODGPLG@ReflectEffectDiv?$AA@	; `string'
PUBLIC	??_C@_0BD@DINJGEOO@ReflectEffectStart?$AA@	; `string'
PUBLIC	??_C@_0BL@OBKCINOG@BerserkerDefenceDivProcent?$AA@ ; `string'
PUBLIC	??_C@_0BK@MKJOKFKE@BerserkerProcentDamageMax?$AA@ ; `string'
PUBLIC	??_C@_0BB@GIBCNHME@BerserkerTimeMax?$AA@	; `string'
PUBLIC	??_C@_0BB@IFIKOEHI@BerserkerTimeDiv?$AA@	; `string'
PUBLIC	??_C@_0BD@BHMKFOOP@BerserkerTimeStart?$AA@	; `string'
PUBLIC	??_C@_0BE@OCKOHNE@BerserkerLifeDecDiv?$AA@	; `string'
PUBLIC	??_C@_0BE@OIPBEFAB@BerserkerManaIncDiv?$AA@	; `string'
PUBLIC	??_C@_0BG@OFMNGAEM@CriticalDamageTimeMax?$AA@	; `string'
PUBLIC	??_C@_0BG@IFFFDPA@CriticalDamageTimeDiv?$AA@	; `string'
PUBLIC	??_C@_0BI@LBJFOHFM@CriticalDamageTimeStart?$AA@	; `string'
PUBLIC	??_C@_0BI@KHGBJLAD@CriticalDamageEffectMax?$AA@	; `string'
PUBLIC	??_C@_0BJ@LGOEADME@CriticalDamageEffectDiv2?$AA@ ; `string'
PUBLIC	??_C@_0BJ@JNMJFAAH@CriticalDamageEffectDiv1?$AA@ ; `string'
PUBLIC	??_C@_0O@OKEHNLCK@ElfAttackTime?$AA@		; `string'
PUBLIC	??_C@_0BD@KEGAFJLN@ElfAttackEffectMax?$AA@	; `string'
PUBLIC	??_C@_0BD@EJPIGKAB@ElfAttackEffectDiv?$AA@	; `string'
PUBLIC	??_C@_0BE@JJIEGOBK@ElfAttackEffectFact?$AA@	; `string'
PUBLIC	??_C@_0P@JCGFNEIF@ElfDefenseTime?$AA@		; `string'
PUBLIC	??_C@_0BE@NCFLCANM@ElfDefenseEffectMax?$AA@	; `string'
PUBLIC	??_C@_0BE@DPMDBDGA@ElfDefenseEffectDiv?$AA@	; `string'
PUBLIC	??_C@_0BF@KDEHAEKN@ElfDefenseEffectFact?$AA@	; `string'
PUBLIC	??_C@_0BB@HHFAEEEA@SwellLifeTimeMax?$AA@	; `string'
PUBLIC	??_C@_0BB@JKMIHHPM@SwellLifeTimeDiv?$AA@	; `string'
PUBLIC	??_C@_0BD@CBCDNOBM@SwellLifeTimeStart?$AA@	; `string'
PUBLIC	??_C@_0BD@DHNHKCED@SwellLifeEffectMax?$AA@	; `string'
PUBLIC	??_C@_0BE@MAKIPEGN@SwellLifeEffectDiv2?$AA@	; `string'
PUBLIC	??_C@_0BE@OLIFKHKO@SwellLifeEffectDiv1?$AA@	; `string'
PUBLIC	??_C@_0BF@EDGHIKBF@SwellLifeEffectStart?$AA@	; `string'
PUBLIC	??_C@_0BE@LJPJLIP@WizardryEnchantTime?$AA@	; `string'
PUBLIC	??_C@_0BJ@KHNLHFNF@WizardryEnchantDamageMax?$AA@ ; `string'
PUBLIC	??_C@_02NJPGOMH@?$CFf?$AA@			; `string'
PUBLIC	??_C@_0BK@NKOODMFM@WizardryEnchantDamageFact?$AA@ ; `string'
PUBLIC	??_C@_03PBDDOHNJ@0?42?$AA@			; `string'
PUBLIC	??_C@_0BJ@EKEDEGGJ@WizardryEnchantDamageDiv?$AA@ ; `string'
PUBLIC	??_C@_0BD@IJCFELOE@SoulBarrierTimeMax?$AA@	; `string'
PUBLIC	??_C@_0BD@GELNHIFI@SoulBarrierTimeDiv?$AA@	; `string'
PUBLIC	??_C@_0BF@HLPHEEBF@SoulBarrierTimeStart?$AA@	; `string'
PUBLIC	??_C@_0BG@CPELIBEP@SoulBarrierDefenseMax?$AA@	; `string'
PUBLIC	??_C@_0BH@MJAGCEGF@SoulBarrierDefenseDiv2?$AA@	; `string'
PUBLIC	??_C@_0BH@OCCLHHKG@SoulBarrierDefenseDiv1?$AA@	; `string'
PUBLIC	??_C@_05OEGOMMDP@Skill?$AA@			; `string'
PUBLIC	??_C@_0BI@ENLFKMPH@SoulBarrierDefenseStart?$AA@	; `string'
PUBLIC	??_C@_0BK@HFEAEJI@?4?4?2Data?2ZtData?2Skills?4ini?$AA@ ; `string'
PUBLIC	??_C@_0JB@FKMAEBOB@?$FLSkill?5Addition?5Info?$FN?5?$FLFire?5Scre@ ; `string'
PUBLIC	??_C@_0BG@PJAAPPCH@CheckFireScreamSerial?$AA@	; `string'
PUBLIC	??_C@_0BK@KNFOPFKG@FireScreamSerialInitCount?$AA@ ; `string'
PUBLIC	??_C@_0CD@IEHCMBMN@FireScreamMaxAttackCountSameSeri@ ; `string'
PUBLIC	??_C@_0BI@BFNBGAPD@FireScreamExplosionRate?$AA@	; `string'
PUBLIC	??_C@_0CC@CACJLIIP@FireScreamExplosionAttackDistanc@ ; `string'
PUBLIC	??_C@_0BA@HINCJBHF@FireScreamSkill?$AA@		; `string'
PUBLIC	??_C@_0HG@MDBPHHOC@?$FLSkill?5Addition?5Info?$FN?5?$FLInfinity?5@ ; `string'
PUBLIC	??_C@_0CB@KPCFCAAL@InfinityArraowMPConsumptionPlus3@ ; `string'
PUBLIC	??_C@_0CB@JNBDECIJ@InfinityArraowMPConsumptionPlus1@ ; `string'
PUBLIC	??_C@_0CB@IEAIHDMI@InfinityArraowMPConsumptionPlus0@ ; `string'
PUBLIC	??_C@_0BG@DADLDHMB@InfinityArrowUseLevel?$AA@	; `string'
PUBLIC	??_C@_09EMMBJNGJ@SkillInfo?$AA@			; `string'
PUBLIC	??_C@_0BH@KBNHBCCN@InfinityArrowSkillTime?$AA@	; `string'
PUBLIC	??_C@_03JBJLGPFL@end?$AA@			; `string'
PUBLIC	??_C@_01KDCPPGHE@r?$AA@				; `string'
PUBLIC	??_C@_00CNPNBAHC@?$AA@				; `string'
PUBLIC	__$ArrayPad$
PUBLIC	?Load@CSkillAdditionInfo@@QAEHPAD@Z		; CSkillAdditionInfo::Load
EXTRN	_sscanf:PROC
EXTRN	__imp__GetPrivateProfileStringA@24:PROC
EXTRN	?LogAddTD@@3P6AXPADZZA:DWORD			; LogAddTD
EXTRN	__imp__GetPrivateProfileIntA@16:PROC
EXTRN	_fclose:PROC
EXTRN	__imp__ExitProcess@4:PROC
EXTRN	?MsgBox@@YAXPADZZ:PROC				; MsgBox
EXTRN	?Get@CMsg@@QAEPADH@Z:PROC			; CMsg::Get
EXTRN	?lMsg@@3VCMsg@@A:BYTE				; lMsg
EXTRN	_fopen:PROC
EXTRN	?GetNewPath@CDirPath@@QAEPADPAD@Z:PROC		; CDirPath::GetNewPath
EXTRN	?gDirPath@@3VCDirPath@@A:BYTE			; gDirPath
EXTRN	__ftol2_sse:PROC
;	COMDAT ??_C@_0DK@MKBKHGKF@?$FLSkill?5Addition?5Info?$FN?5?9?5File?5loa@
CONST	SEGMENT
??_C@_0DK@MKBKHGKF@?$FLSkill?5Addition?5Info?$FN?5?9?5File?5loa@ DB '[Ski'
	DB	'll Addition Info] - File load error : File Name Error', 00H ; `string'
CONST	ENDS
;	COMDAT ??_C@_0GH@IFKPHEDI@?$FLSkill?5Addition?5Info?$FN?5?$FLSoulBarri@
CONST	SEGMENT
??_C@_0GH@IFKPHEDI@?$FLSkill?5Addition?5Info?$FN?5?$FLSoulBarri@ DB '[Ski'
	DB	'll Addition Info] [SoulBarrier Strengrhen] BaseSkill(Level0):'
	DB	'%d, Level1:%d, 2:%d, 3:%d, 4:%d, 5:%d', 00H	; `string'
CONST	ENDS
;	COMDAT ??_C@_05JLPKDJLM@10?400?$AA@
CONST	SEGMENT
??_C@_05JLPKDJLM@10?400?$AA@ DB '10.00', 00H		; `string'
CONST	ENDS
;	COMDAT ??_C@_0BM@BLDGHHPG@SoulBarrierManaRate_Level20?$AA@
CONST	SEGMENT
??_C@_0BM@BLDGHHPG@SoulBarrierManaRate_Level20?$AA@ DB 'SoulBarrierManaRa'
	DB	'te_Level20', 00H				; `string'
CONST	ENDS
;	COMDAT ??_C@_0BM@MILCHCOG@SoulBarrierManaRate_Level19?$AA@
CONST	SEGMENT
??_C@_0BM@MILCHCOG@SoulBarrierManaRate_Level19?$AA@ DB 'SoulBarrierManaRa'
	DB	'te_Level19', 00H				; `string'
CONST	ENDS
;	COMDAT ??_C@_0BM@NBKJEDKH@SoulBarrierManaRate_Level18?$AA@
CONST	SEGMENT
??_C@_0BM@NBKJEDKH@SoulBarrierManaRate_Level18?$AA@ DB 'SoulBarrierManaRa'
	DB	'te_Level18', 00H				; `string'
CONST	ENDS
;	COMDAT ??_C@_0BM@FGDBFPGI@SoulBarrierManaRate_Level17?$AA@
CONST	SEGMENT
??_C@_0BM@FGDBFPGI@SoulBarrierManaRate_Level17?$AA@ DB 'SoulBarrierManaRa'
	DB	'te_Level17', 00H				; `string'
CONST	ENDS
;	COMDAT ??_C@_0BM@EPCKGOCJ@SoulBarrierManaRate_Level16?$AA@
CONST	SEGMENT
??_C@_0BM@EPCKGOCJ@SoulBarrierManaRate_Level16?$AA@ DB 'SoulBarrierManaRa'
	DB	'te_Level16', 00H				; `string'
CONST	ENDS
;	COMDAT ??_C@_0BM@GEAHDNOK@SoulBarrierManaRate_Level15?$AA@
CONST	SEGMENT
??_C@_0BM@GEAHDNOK@SoulBarrierManaRate_Level15?$AA@ DB 'SoulBarrierManaRa'
	DB	'te_Level15', 00H				; `string'
CONST	ENDS
;	COMDAT ??_C@_0BM@HNBMAMKL@SoulBarrierManaRate_Level14?$AA@
CONST	SEGMENT
??_C@_0BM@HNBMAMKL@SoulBarrierManaRate_Level14?$AA@ DB 'SoulBarrierManaRa'
	DB	'te_Level14', 00H				; `string'
CONST	ENDS
;	COMDAT ??_C@_0BM@DCFNJKGM@SoulBarrierManaRate_Level13?$AA@
CONST	SEGMENT
??_C@_0BM@DCFNJKGM@SoulBarrierManaRate_Level13?$AA@ DB 'SoulBarrierManaRa'
	DB	'te_Level13', 00H				; `string'
CONST	ENDS
;	COMDAT ??_C@_0BM@CLEGKLCN@SoulBarrierManaRate_Level12?$AA@
CONST	SEGMENT
??_C@_0BM@CLEGKLCN@SoulBarrierManaRate_Level12?$AA@ DB 'SoulBarrierManaRa'
	DB	'te_Level12', 00H				; `string'
CONST	ENDS
;	COMDAT ??_C@_0BM@GLPIOO@SoulBarrierManaRate_Level11?$AA@
CONST	SEGMENT
??_C@_0BM@GLPIOO@SoulBarrierManaRate_Level11?$AA@ DB 'SoulBarrierManaRate'
	DB	'_Level11', 00H				; `string'
CONST	ENDS
;	COMDAT ??_C@_0BM@BJHAMJKP@SoulBarrierManaRate_Level10?$AA@
CONST	SEGMENT
??_C@_0BM@BJHAMJKP@SoulBarrierManaRate_Level10?$AA@ DB 'SoulBarrierManaRa'
	DB	'te_Level10', 00H				; `string'
CONST	ENDS
;	COMDAT ??_C@_0BL@PCPPGEDC@SoulBarrierManaRate_Level9?$AA@
CONST	SEGMENT
??_C@_0BL@PCPPGEDC@SoulBarrierManaRate_Level9?$AA@ DB 'SoulBarrierManaRat'
	DB	'e_Level9', 00H				; `string'
CONST	ENDS
;	COMDAT ??_C@_0BL@OLOEFFHD@SoulBarrierManaRate_Level8?$AA@
CONST	SEGMENT
??_C@_0BL@OLOEFFHD@SoulBarrierManaRate_Level8?$AA@ DB 'SoulBarrierManaRat'
	DB	'e_Level8', 00H				; `string'
CONST	ENDS
;	COMDAT ??_C@_0BL@GMHMEJLM@SoulBarrierManaRate_Level7?$AA@
CONST	SEGMENT
??_C@_0BL@GMHMEJLM@SoulBarrierManaRate_Level7?$AA@ DB 'SoulBarrierManaRat'
	DB	'e_Level7', 00H				; `string'
CONST	ENDS
;	COMDAT ??_C@_0BL@HFGHHIPN@SoulBarrierManaRate_Level6?$AA@
CONST	SEGMENT
??_C@_0BL@HFGHHIPN@SoulBarrierManaRate_Level6?$AA@ DB 'SoulBarrierManaRat'
	DB	'e_Level6', 00H				; `string'
CONST	ENDS
;	COMDAT ??_C@_0BL@FOEKCLDO@SoulBarrierManaRate_Level5?$AA@
CONST	SEGMENT
??_C@_0BL@FOEKCLDO@SoulBarrierManaRate_Level5?$AA@ DB 'SoulBarrierManaRat'
	DB	'e_Level5', 00H				; `string'
CONST	ENDS
;	COMDAT ??_C@_0BL@EHFBBKHP@SoulBarrierManaRate_Level4?$AA@
CONST	SEGMENT
??_C@_0BL@EHFBBKHP@SoulBarrierManaRate_Level4?$AA@ DB 'SoulBarrierManaRat'
	DB	'e_Level4', 00H				; `string'
CONST	ENDS
;	COMDAT ??_C@_0BL@IBAIMLI@SoulBarrierManaRate_Level3?$AA@
CONST	SEGMENT
??_C@_0BL@IBAIMLI@SoulBarrierManaRate_Level3?$AA@ DB 'SoulBarrierManaRate'
	DB	'_Level3', 00H				; `string'
CONST	ENDS
;	COMDAT ??_C@_0BL@BBALLNPJ@SoulBarrierManaRate_Level2?$AA@
CONST	SEGMENT
??_C@_0BL@BBALLNPJ@SoulBarrierManaRate_Level2?$AA@ DB 'SoulBarrierManaRat'
	DB	'e_Level2', 00H				; `string'
CONST	ENDS
;	COMDAT ??_C@_0BL@DKCGOODK@SoulBarrierManaRate_Level1?$AA@
CONST	SEGMENT
??_C@_0BL@DKCGOODK@SoulBarrierManaRate_Level1?$AA@ DB 'SoulBarrierManaRat'
	DB	'e_Level1', 00H				; `string'
CONST	ENDS
;	COMDAT ??_C@_0M@ECCCJHIK@MasterSkill?$AA@
CONST	SEGMENT
??_C@_0M@ECCCJHIK@MasterSkill?$AA@ DB 'MasterSkill', 00H ; `string'
CONST	ENDS
;	COMDAT ??_C@_0BL@CDDNNPHL@SoulBarrierManaRate_Level0?$AA@
CONST	SEGMENT
??_C@_0BL@CDDNNPHL@SoulBarrierManaRate_Level0?$AA@ DB 'SoulBarrierManaRat'
	DB	'e_Level0', 00H				; `string'
CONST	ENDS
;	COMDAT ??_C@_0CA@JPCOALGP@?4?4?2Data?2ZtData?2MasterSkills?4ini?$AA@
CONST	SEGMENT
??_C@_0CA@JPCOALGP@?4?4?2Data?2ZtData?2MasterSkills?4ini?$AA@ DB '..\Data'
	DB	'\ZtData\MasterSkills.ini', 00H		; `string'
CONST	ENDS
;	COMDAT ??_C@_0BD@IJFPEJBE@SleepTimeMaxVsUser?$AA@
CONST	SEGMENT
??_C@_0BD@IJFPEJBE@SleepTimeMaxVsUser?$AA@ DB 'SleepTimeMaxVsUser', 00H ; `string'
CONST	ENDS
;	COMDAT ??_C@_0BD@NLBINCPE@SleepTimeDivVsUser?$AA@
CONST	SEGMENT
??_C@_0BD@NLBINCPE@SleepTimeDivVsUser?$AA@ DB 'SleepTimeDivVsUser', 00H ; `string'
CONST	ENDS
;	COMDAT ??_C@_0BF@GOCFFGAA@SleepTimeStartVsUser?$AA@
CONST	SEGMENT
??_C@_0BF@GOCFFGAA@SleepTimeStartVsUser?$AA@ DB 'SleepTimeStartVsUser', 00H ; `string'
CONST	ENDS
;	COMDAT ??_C@_0BC@PNLJFHCK@SleepTimeMaxVsMob?$AA@
CONST	SEGMENT
??_C@_0BC@PNLJFHCK@SleepTimeMaxVsMob?$AA@ DB 'SleepTimeMaxVsMob', 00H ; `string'
CONST	ENDS
;	COMDAT ??_C@_0BC@NCMAIBJJ@SleepTimeDivVsMob?$AA@
CONST	SEGMENT
??_C@_0BC@NCMAIBJJ@SleepTimeDivVsMob?$AA@ DB 'SleepTimeDivVsMob', 00H ; `string'
CONST	ENDS
;	COMDAT ??_C@_0BE@DPILEECE@SleepTimeStartVsMob?$AA@
CONST	SEGMENT
??_C@_0BE@DPILEECE@SleepTimeStartVsMob?$AA@ DB 'SleepTimeStartVsMob', 00H ; `string'
CONST	ENDS
;	COMDAT ??_C@_0BD@LKCPAGKC@SleepRateMaxVsUser?$AA@
CONST	SEGMENT
??_C@_0BD@LKCPAGKC@SleepRateMaxVsUser?$AA@ DB 'SleepRateMaxVsUser', 00H ; `string'
CONST	ENDS
;	COMDAT ??_C@_0BD@OIGIJNEC@SleepRateDivVsUser?$AA@
CONST	SEGMENT
??_C@_0BD@OIGIJNEC@SleepRateDivVsUser?$AA@ DB 'SleepRateDivVsUser', 00H ; `string'
CONST	ENDS
;	COMDAT ??_C@_0BF@DKNJDAEP@SleepRateStartVsUser?$AA@
CONST	SEGMENT
??_C@_0BF@DKNJDAEP@SleepRateStartVsUser?$AA@ DB 'SleepRateStartVsUser', 00H ; `string'
CONST	ENDS
;	COMDAT ??_C@_0BC@IOOLAEEH@SleepRateMaxVsMob?$AA@
CONST	SEGMENT
??_C@_0BC@IOOLAEEH@SleepRateMaxVsMob?$AA@ DB 'SleepRateMaxVsMob', 00H ; `string'
CONST	ENDS
;	COMDAT ??_C@_0BC@KBJCNCPE@SleepRateDivVsMob?$AA@
CONST	SEGMENT
??_C@_0BC@KBJCNCPE@SleepRateDivVsMob?$AA@ DB 'SleepRateDivVsMob', 00H ; `string'
CONST	ENDS
;	COMDAT ??_C@_0BE@BNLKCCNC@SleepRateStartVsMob?$AA@
CONST	SEGMENT
??_C@_0BE@BNLKCCNC@SleepRateStartVsMob?$AA@ DB 'SleepRateStartVsMob', 00H ; `string'
CONST	ENDS
;	COMDAT ??_C@_0BD@GFPKBGOG@InnovationMaxPower?$AA@
CONST	SEGMENT
??_C@_0BD@GFPKBGOG@InnovationMaxPower?$AA@ DB 'InnovationMaxPower', 00H ; `string'
CONST	ENDS
;	COMDAT ??_C@_0BI@DCLKMNFB@InnovationTimeMaxVsUser?$AA@
CONST	SEGMENT
??_C@_0BI@DCLKMNFB@InnovationTimeMaxVsUser?$AA@ DB 'InnovationTimeMaxVsUs'
	DB	'er', 00H					; `string'
CONST	ENDS
;	COMDAT ??_C@_0BI@GAPNFGLB@InnovationTimeDivVsUser?$AA@
CONST	SEGMENT
??_C@_0BI@GAPNFGLB@InnovationTimeDivVsUser?$AA@ DB 'InnovationTimeDivVsUs'
	DB	'er', 00H					; `string'
CONST	ENDS
;	COMDAT ??_C@_0BK@JPOBBJM@InnovationTimeStartVsUser?$AA@
CONST	SEGMENT
??_C@_0BK@JPOBBJM@InnovationTimeStartVsUser?$AA@ DB 'InnovationTimeStartV'
	DB	'sUser', 00H					; `string'
CONST	ENDS
;	COMDAT ??_C@_0BK@NJKLPIEC@InnovationEffectMaxVsUser?$AA@
CONST	SEGMENT
??_C@_0BK@NJKLPIEC@InnovationEffectMaxVsUser?$AA@ DB 'InnovationEffectMax'
	DB	'VsUser', 00H				; `string'
CONST	ENDS
;	COMDAT ??_C@_0BK@ILOMGDKC@InnovationEffectDivVsUser?$AA@
CONST	SEGMENT
??_C@_0BK@ILOMGDKC@InnovationEffectDivVsUser?$AA@ DB 'InnovationEffectDiv'
	DB	'VsUser', 00H				; `string'
CONST	ENDS
;	COMDAT ??_C@_0BM@DOKCHPDM@InnovationEffectStartVsUser?$AA@
CONST	SEGMENT
??_C@_0BM@DOKCHPDM@InnovationEffectStartVsUser?$AA@ DB 'InnovationEffectS'
	DB	'tartVsUser', 00H				; `string'
CONST	ENDS
;	COMDAT ??_C@_0BH@BDHKBBJP@InnovationTimeMaxVsMob?$AA@
CONST	SEGMENT
??_C@_0BH@BDHKBBJP@InnovationTimeMaxVsMob?$AA@ DB 'InnovationTimeMaxVsMob'
	DB	00H						; `string'
CONST	ENDS
;	COMDAT ??_C@_0BH@DMADMHCM@InnovationTimeDivVsMob?$AA@
CONST	SEGMENT
??_C@_0BH@DMADMHCM@InnovationTimeDivVsMob?$AA@ DB 'InnovationTimeDivVsMob'
	DB	00H						; `string'
CONST	ENDS
;	COMDAT ??_C@_0BJ@DJIGBELP@InnovationTimeStartVsMob?$AA@
CONST	SEGMENT
??_C@_0BJ@DJIGBELP@InnovationTimeStartVsMob?$AA@ DB 'InnovationTimeStartV'
	DB	'sMob', 00H					; `string'
CONST	ENDS
;	COMDAT ??_C@_0BJ@MHJDNFK@InnovationEffectMaxVsMob?$AA@
CONST	SEGMENT
??_C@_0BJ@MHJDNFK@InnovationEffectMaxVsMob?$AA@ DB 'InnovationEffectMaxVs'
	DB	'Mob', 00H					; `string'
CONST	ENDS
;	COMDAT ??_C@_0BJ@CDAAOLOJ@InnovationEffectDivVsMob?$AA@
CONST	SEGMENT
??_C@_0BJ@CDAAOLOJ@InnovationEffectDivVsMob?$AA@ DB 'InnovationEffectDivV'
	DB	'sMob', 00H					; `string'
CONST	ENDS
;	COMDAT ??_C@_0BL@LNNDEEFE@InnovationEffectStartVsMob?$AA@
CONST	SEGMENT
??_C@_0BL@LNNDEEFE@InnovationEffectStartVsMob?$AA@ DB 'InnovationEffectSt'
	DB	'artVsMob', 00H				; `string'
CONST	ENDS
;	COMDAT ??_C@_0BB@EHPNILIJ@WeaknessMaxPower?$AA@
CONST	SEGMENT
??_C@_0BB@EHPNILIJ@WeaknessMaxPower?$AA@ DB 'WeaknessMaxPower', 00H ; `string'
CONST	ENDS
;	COMDAT ??_C@_0BG@MEAPEEBB@WeaknessTimeMaxVsUser?$AA@
CONST	SEGMENT
??_C@_0BG@MEAPEEBB@WeaknessTimeMaxVsUser?$AA@ DB 'WeaknessTimeMaxVsUser', 00H ; `string'
CONST	ENDS
;	COMDAT ??_C@_0BG@JGEINPPB@WeaknessTimeDivVsUser?$AA@
CONST	SEGMENT
??_C@_0BG@JGEINPPB@WeaknessTimeDivVsUser?$AA@ DB 'WeaknessTimeDivVsUser', 00H ; `string'
CONST	ENDS
;	COMDAT ??_C@_0BI@GNODJDKI@WeaknessTimeStartVsUser?$AA@
CONST	SEGMENT
??_C@_0BI@GNODJDKI@WeaknessTimeStartVsUser?$AA@ DB 'WeaknessTimeStartVsUs'
	DB	'er', 00H					; `string'
CONST	ENDS
;	COMDAT ??_C@_0BI@LNLGHKHG@WeaknessEffectMaxVsUser?$AA@
CONST	SEGMENT
??_C@_0BI@LNLGHKHG@WeaknessEffectMaxVsUser?$AA@ DB 'WeaknessEffectMaxVsUs'
	DB	'er', 00H					; `string'
CONST	ENDS
;	COMDAT ??_C@_0BI@OPPBOBJG@WeaknessEffectDivVsUser?$AA@
CONST	SEGMENT
??_C@_0BI@OPPBOBJG@WeaknessEffectDivVsUser?$AA@ DB 'WeaknessEffectDivVsUs'
	DB	'er', 00H					; `string'
CONST	ENDS
;	COMDAT ??_C@_0BK@IGDOAKNK@WeaknessEffectStartVsUser?$AA@
CONST	SEGMENT
??_C@_0BK@IGDOAKNK@WeaknessEffectStartVsUser?$AA@ DB 'WeaknessEffectStart'
	DB	'VsUser', 00H				; `string'
CONST	ENDS
;	COMDAT ??_C@_0BF@BPNFAKEK@WeaknessTimeMaxVsMob?$AA@
CONST	SEGMENT
??_C@_0BF@BPNFAKEK@WeaknessTimeMaxVsMob?$AA@ DB 'WeaknessTimeMaxVsMob', 00H ; `string'
CONST	ENDS
;	COMDAT ??_C@_0BF@DAKMNMPJ@WeaknessTimeDivVsMob?$AA@
CONST	SEGMENT
??_C@_0BF@DAKMNMPJ@WeaknessTimeDivVsMob?$AA@ DB 'WeaknessTimeDivVsMob', 00H ; `string'
CONST	ENDS
;	COMDAT ??_C@_0BH@EPKMOAKG@WeaknessTimeStartVsMob?$AA@
CONST	SEGMENT
??_C@_0BH@EPKMOAKG@WeaknessTimeStartVsMob?$AA@ DB 'WeaknessTimeStartVsMob'
	DB	00H						; `string'
CONST	ENDS
;	COMDAT ??_C@_0BH@HKFDMJED@WeaknessEffectMaxVsMob?$AA@
CONST	SEGMENT
??_C@_0BH@HKFDMJED@WeaknessEffectMaxVsMob?$AA@ DB 'WeaknessEffectMaxVsMob'
	DB	00H						; `string'
CONST	ENDS
;	COMDAT ??_C@_0BH@FFCKBPPA@WeaknessEffectDivVsMob?$AA@
CONST	SEGMENT
??_C@_0BH@FFCKBPPA@WeaknessEffectDivVsMob?$AA@ DB 'WeaknessEffectDivVsMob'
	DB	00H						; `string'
CONST	ENDS
;	COMDAT ??_C@_0BJ@JMADKNGD@WeaknessEffectStartVsMob?$AA@
CONST	SEGMENT
??_C@_0BJ@JMADKNGD@WeaknessEffectStartVsMob?$AA@ DB 'WeaknessEffectStartV'
	DB	'sMob', 00H					; `string'
CONST	ENDS
;	COMDAT ??_C@_0BF@PHKBFGGL@IncreaseBlockTimeMax?$AA@
CONST	SEGMENT
??_C@_0BF@PHKBFGGL@IncreaseBlockTimeMax?$AA@ DB 'IncreaseBlockTimeMax', 00H ; `string'
CONST	ENDS
;	COMDAT ??_C@_0BF@BKDJGFNH@IncreaseBlockTimeDiv?$AA@
CONST	SEGMENT
??_C@_0BF@BKDJGFNH@IncreaseBlockTimeDiv?$AA@ DB 'IncreaseBlockTimeDiv', 00H ; `string'
CONST	ENDS
;	COMDAT ??_C@_0BH@KEOKNCMM@IncreaseBlockTimeStart?$AA@
CONST	SEGMENT
??_C@_0BH@KEOKNCMM@IncreaseBlockTimeStart?$AA@ DB 'IncreaseBlockTimeStart'
	DB	00H						; `string'
CONST	ENDS
;	COMDAT ??_C@_0BH@LCBOKOJD@IncreaseBlockEffectMax?$AA@
CONST	SEGMENT
??_C@_0BH@LCBOKOJD@IncreaseBlockEffectMax?$AA@ DB 'IncreaseBlockEffectMax'
	DB	00H						; `string'
CONST	ENDS
;	COMDAT ??_C@_0BH@FPIGJNCP@IncreaseBlockEffectDiv?$AA@
CONST	SEGMENT
??_C@_0BH@FPIGJNCP@IncreaseBlockEffectDiv?$AA@ DB 'IncreaseBlockEffectDiv'
	DB	00H						; `string'
CONST	ENDS
;	COMDAT ??_C@_0BH@KJNKHPEI@IncreaseBlockEffectSub?$AA@
CONST	SEGMENT
??_C@_0BH@KJNKHPEI@IncreaseBlockEffectSub?$AA@ DB 'IncreaseBlockEffectSub'
	DB	00H						; `string'
CONST	ENDS
;	COMDAT ??_C@_0BJ@MLOJIGOI@IncreaseBlockEffectStart?$AA@
CONST	SEGMENT
??_C@_0BJ@MLOJIGOI@IncreaseBlockEffectStart?$AA@ DB 'IncreaseBlockEffectS'
	DB	'tart', 00H					; `string'
CONST	ENDS
;	COMDAT ??_C@_0BG@CMMPIBO@IncreaseHealthTimeMax?$AA@
CONST	SEGMENT
??_C@_0BG@CMMPIBO@IncreaseHealthTimeMax?$AA@ DB 'IncreaseHealthTimeMax', 00H ; `string'
CONST	ENDS
;	COMDAT ??_C@_0BG@OPFEMLKC@IncreaseHealthTimeDiv?$AA@
CONST	SEGMENT
??_C@_0BG@OPFEMLKC@IncreaseHealthTimeDiv?$AA@ DB 'IncreaseHealthTimeDiv', 00H ; `string'
CONST	ENDS
;	COMDAT ??_C@_0BI@MHMMCEPN@IncreaseHealthTimeStart?$AA@
CONST	SEGMENT
??_C@_0BI@MHMMCEPN@IncreaseHealthTimeStart?$AA@ DB 'IncreaseHealthTimeSta'
	DB	'rt', 00H					; `string'
CONST	ENDS
;	COMDAT ??_C@_0BI@NBDIFIKC@IncreaseHealthEffectMax?$AA@
CONST	SEGMENT
??_C@_0BI@NBDIFIKC@IncreaseHealthEffectMax?$AA@ DB 'IncreaseHealthEffectM'
	DB	'ax', 00H					; `string'
CONST	ENDS
;	COMDAT ??_C@_0BG@MPJHCBCJ@DecTimePerAttackSpeed?$AA@
CONST	SEGMENT
??_C@_0BG@MPJHCBCJ@DecTimePerAttackSpeed?$AA@ DB 'DecTimePerAttackSpeed', 00H ; `string'
CONST	ENDS
;	COMDAT ??_C@_02PKFBJPLJ@10?$AA@
CONST	SEGMENT
??_C@_02PKFBJPLJ@10?$AA@ DB '10', 00H			; `string'
CONST	ENDS
;	COMDAT ??_C@_0BI@MKPMIJHJ@IncreaseHealthEffectSub?$AA@
CONST	SEGMENT
??_C@_0BI@MKPMIJHJ@IncreaseHealthEffectSub?$AA@ DB 'IncreaseHealthEffectS'
	DB	'ub', 00H					; `string'
CONST	ENDS
;	COMDAT ??_C@_0BK@FJGKLFFF@IncreaseHealthEffectStart?$AA@
CONST	SEGMENT
??_C@_0BK@FJGKLFFF@IncreaseHealthEffectStart?$AA@ DB 'IncreaseHealthEffec'
	DB	'tStart', 00H				; `string'
CONST	ENDS
;	COMDAT ??_C@_0BF@JBOGCBGB@IgnoreDefenseTimeMax?$AA@
CONST	SEGMENT
??_C@_0BF@JBOGCBGB@IgnoreDefenseTimeMax?$AA@ DB 'IgnoreDefenseTimeMax', 00H ; `string'
CONST	ENDS
;	COMDAT ??_C@_0BF@HMHOBCNN@IgnoreDefenseTimeDiv?$AA@
CONST	SEGMENT
??_C@_0BF@HMHOBCNN@IgnoreDefenseTimeDiv?$AA@ DB 'IgnoreDefenseTimeDiv', 00H ; `string'
CONST	ENDS
;	COMDAT ??_C@_0BH@JAGELIJO@IgnoreDefenseTimeStart?$AA@
CONST	SEGMENT
??_C@_0BH@JAGELIJO@IgnoreDefenseTimeStart?$AA@ DB 'IgnoreDefenseTimeStart'
	DB	00H						; `string'
CONST	ENDS
;	COMDAT ??_C@_0BH@IGJAMEMB@IgnoreDefenseEffectMax?$AA@
CONST	SEGMENT
??_C@_0BH@IGJAMEMB@IgnoreDefenseEffectMax?$AA@ DB 'IgnoreDefenseEffectMax'
	DB	00H						; `string'
CONST	ENDS
;	COMDAT ??_C@_0BH@GLAIPHHN@IgnoreDefenseEffectDiv?$AA@
CONST	SEGMENT
??_C@_0BH@GLAIPHHN@IgnoreDefenseEffectDiv?$AA@ DB 'IgnoreDefenseEffectDiv'
	DB	00H						; `string'
CONST	ENDS
;	COMDAT ??_C@_0BH@JNFEBFBK@IgnoreDefenseEffectSub?$AA@
CONST	SEGMENT
??_C@_0BH@JNFEBFBK@IgnoreDefenseEffectSub?$AA@ DB 'IgnoreDefenseEffectSub'
	DB	00H						; `string'
CONST	ENDS
;	COMDAT ??_C@_0BJ@OOADAFPG@IgnoreDefenseEffectStart?$AA@
CONST	SEGMENT
??_C@_0BJ@OOADAFPG@IgnoreDefenseEffectStart?$AA@ DB 'IgnoreDefenseEffectS'
	DB	'tart', 00H					; `string'
CONST	ENDS
;	COMDAT ??_C@_0P@NOGILJJP@ReflectTimeMax?$AA@
CONST	SEGMENT
??_C@_0P@NOGILJJP@ReflectTimeMax?$AA@ DB 'ReflectTimeMax', 00H ; `string'
CONST	ENDS
;	COMDAT ??_C@_0P@DDPAIKCD@ReflectTimeDiv?$AA@
CONST	SEGMENT
??_C@_0P@DDPAIKCD@ReflectTimeDiv?$AA@ DB 'ReflectTimeDiv', 00H ; `string'
CONST	ENDS
;	COMDAT ??_C@_0BB@OEIPCAFF@ReflectTimeStart?$AA@
CONST	SEGMENT
??_C@_0BB@OEIPCAFF@ReflectTimeStart?$AA@ DB 'ReflectTimeStart', 00H ; `string'
CONST	ENDS
;	COMDAT ??_C@_0BB@PCHLFMAK@ReflectEffectMax?$AA@
CONST	SEGMENT
??_C@_0BB@PCHLFMAK@ReflectEffectMax?$AA@ DB 'ReflectEffectMax', 00H ; `string'
CONST	ENDS
;	COMDAT ??_C@_0BB@BPODGPLG@ReflectEffectDiv?$AA@
CONST	SEGMENT
??_C@_0BB@BPODGPLG@ReflectEffectDiv?$AA@ DB 'ReflectEffectDiv', 00H ; `string'
CONST	ENDS
;	COMDAT ??_C@_0BD@DINJGEOO@ReflectEffectStart?$AA@
CONST	SEGMENT
??_C@_0BD@DINJGEOO@ReflectEffectStart?$AA@ DB 'ReflectEffectStart', 00H ; `string'
CONST	ENDS
;	COMDAT ??_C@_0BL@OBKCINOG@BerserkerDefenceDivProcent?$AA@
CONST	SEGMENT
??_C@_0BL@OBKCINOG@BerserkerDefenceDivProcent?$AA@ DB 'BerserkerDefenceDi'
	DB	'vProcent', 00H				; `string'
CONST	ENDS
;	COMDAT ??_C@_0BK@MKJOKFKE@BerserkerProcentDamageMax?$AA@
CONST	SEGMENT
??_C@_0BK@MKJOKFKE@BerserkerProcentDamageMax?$AA@ DB 'BerserkerProcentDam'
	DB	'ageMax', 00H				; `string'
CONST	ENDS
;	COMDAT ??_C@_0BB@GIBCNHME@BerserkerTimeMax?$AA@
CONST	SEGMENT
??_C@_0BB@GIBCNHME@BerserkerTimeMax?$AA@ DB 'BerserkerTimeMax', 00H ; `string'
CONST	ENDS
;	COMDAT ??_C@_0BB@IFIKOEHI@BerserkerTimeDiv?$AA@
CONST	SEGMENT
??_C@_0BB@IFIKOEHI@BerserkerTimeDiv?$AA@ DB 'BerserkerTimeDiv', 00H ; `string'
CONST	ENDS
;	COMDAT ??_C@_0BD@BHMKFOOP@BerserkerTimeStart?$AA@
CONST	SEGMENT
??_C@_0BD@BHMKFOOP@BerserkerTimeStart?$AA@ DB 'BerserkerTimeStart', 00H ; `string'
CONST	ENDS
;	COMDAT ??_C@_0BE@OCKOHNE@BerserkerLifeDecDiv?$AA@
CONST	SEGMENT
??_C@_0BE@OCKOHNE@BerserkerLifeDecDiv?$AA@ DB 'BerserkerLifeDecDiv', 00H ; `string'
CONST	ENDS
;	COMDAT ??_C@_0BE@OIPBEFAB@BerserkerManaIncDiv?$AA@
CONST	SEGMENT
??_C@_0BE@OIPBEFAB@BerserkerManaIncDiv?$AA@ DB 'BerserkerManaIncDiv', 00H ; `string'
CONST	ENDS
;	COMDAT ??_C@_0BG@OFMNGAEM@CriticalDamageTimeMax?$AA@
CONST	SEGMENT
??_C@_0BG@OFMNGAEM@CriticalDamageTimeMax?$AA@ DB 'CriticalDamageTimeMax', 00H ; `string'
CONST	ENDS
;	COMDAT ??_C@_0BG@IFFFDPA@CriticalDamageTimeDiv?$AA@
CONST	SEGMENT
??_C@_0BG@IFFFDPA@CriticalDamageTimeDiv?$AA@ DB 'CriticalDamageTimeDiv', 00H ; `string'
CONST	ENDS
;	COMDAT ??_C@_0BI@LBJFOHFM@CriticalDamageTimeStart?$AA@
CONST	SEGMENT
??_C@_0BI@LBJFOHFM@CriticalDamageTimeStart?$AA@ DB 'CriticalDamageTimeSta'
	DB	'rt', 00H					; `string'
CONST	ENDS
;	COMDAT ??_C@_0BI@KHGBJLAD@CriticalDamageEffectMax?$AA@
CONST	SEGMENT
??_C@_0BI@KHGBJLAD@CriticalDamageEffectMax?$AA@ DB 'CriticalDamageEffectM'
	DB	'ax', 00H					; `string'
CONST	ENDS
;	COMDAT ??_C@_0BJ@LGOEADME@CriticalDamageEffectDiv2?$AA@
CONST	SEGMENT
??_C@_0BJ@LGOEADME@CriticalDamageEffectDiv2?$AA@ DB 'CriticalDamageEffect'
	DB	'Div2', 00H					; `string'
CONST	ENDS
;	COMDAT ??_C@_0BJ@JNMJFAAH@CriticalDamageEffectDiv1?$AA@
CONST	SEGMENT
??_C@_0BJ@JNMJFAAH@CriticalDamageEffectDiv1?$AA@ DB 'CriticalDamageEffect'
	DB	'Div1', 00H					; `string'
CONST	ENDS
;	COMDAT ??_C@_0O@OKEHNLCK@ElfAttackTime?$AA@
CONST	SEGMENT
??_C@_0O@OKEHNLCK@ElfAttackTime?$AA@ DB 'ElfAttackTime', 00H ; `string'
CONST	ENDS
;	COMDAT ??_C@_0BD@KEGAFJLN@ElfAttackEffectMax?$AA@
CONST	SEGMENT
??_C@_0BD@KEGAFJLN@ElfAttackEffectMax?$AA@ DB 'ElfAttackEffectMax', 00H ; `string'
CONST	ENDS
;	COMDAT ??_C@_0BD@EJPIGKAB@ElfAttackEffectDiv?$AA@
CONST	SEGMENT
??_C@_0BD@EJPIGKAB@ElfAttackEffectDiv?$AA@ DB 'ElfAttackEffectDiv', 00H ; `string'
CONST	ENDS
;	COMDAT ??_C@_0BE@JJIEGOBK@ElfAttackEffectFact?$AA@
CONST	SEGMENT
??_C@_0BE@JJIEGOBK@ElfAttackEffectFact?$AA@ DB 'ElfAttackEffectFact', 00H ; `string'
CONST	ENDS
;	COMDAT ??_C@_0P@JCGFNEIF@ElfDefenseTime?$AA@
CONST	SEGMENT
??_C@_0P@JCGFNEIF@ElfDefenseTime?$AA@ DB 'ElfDefenseTime', 00H ; `string'
CONST	ENDS
;	COMDAT ??_C@_0BE@NCFLCANM@ElfDefenseEffectMax?$AA@
CONST	SEGMENT
??_C@_0BE@NCFLCANM@ElfDefenseEffectMax?$AA@ DB 'ElfDefenseEffectMax', 00H ; `string'
CONST	ENDS
;	COMDAT ??_C@_0BE@DPMDBDGA@ElfDefenseEffectDiv?$AA@
CONST	SEGMENT
??_C@_0BE@DPMDBDGA@ElfDefenseEffectDiv?$AA@ DB 'ElfDefenseEffectDiv', 00H ; `string'
CONST	ENDS
;	COMDAT ??_C@_0BF@KDEHAEKN@ElfDefenseEffectFact?$AA@
CONST	SEGMENT
??_C@_0BF@KDEHAEKN@ElfDefenseEffectFact?$AA@ DB 'ElfDefenseEffectFact', 00H ; `string'
CONST	ENDS
;	COMDAT ??_C@_0BB@HHFAEEEA@SwellLifeTimeMax?$AA@
CONST	SEGMENT
??_C@_0BB@HHFAEEEA@SwellLifeTimeMax?$AA@ DB 'SwellLifeTimeMax', 00H ; `string'
CONST	ENDS
;	COMDAT ??_C@_0BB@JKMIHHPM@SwellLifeTimeDiv?$AA@
CONST	SEGMENT
??_C@_0BB@JKMIHHPM@SwellLifeTimeDiv?$AA@ DB 'SwellLifeTimeDiv', 00H ; `string'
CONST	ENDS
;	COMDAT ??_C@_0BD@CBCDNOBM@SwellLifeTimeStart?$AA@
CONST	SEGMENT
??_C@_0BD@CBCDNOBM@SwellLifeTimeStart?$AA@ DB 'SwellLifeTimeStart', 00H ; `string'
CONST	ENDS
;	COMDAT ??_C@_0BD@DHNHKCED@SwellLifeEffectMax?$AA@
CONST	SEGMENT
??_C@_0BD@DHNHKCED@SwellLifeEffectMax?$AA@ DB 'SwellLifeEffectMax', 00H ; `string'
CONST	ENDS
;	COMDAT ??_C@_0BE@MAKIPEGN@SwellLifeEffectDiv2?$AA@
CONST	SEGMENT
??_C@_0BE@MAKIPEGN@SwellLifeEffectDiv2?$AA@ DB 'SwellLifeEffectDiv2', 00H ; `string'
CONST	ENDS
;	COMDAT ??_C@_0BE@OLIFKHKO@SwellLifeEffectDiv1?$AA@
CONST	SEGMENT
??_C@_0BE@OLIFKHKO@SwellLifeEffectDiv1?$AA@ DB 'SwellLifeEffectDiv1', 00H ; `string'
CONST	ENDS
;	COMDAT ??_C@_0BF@EDGHIKBF@SwellLifeEffectStart?$AA@
CONST	SEGMENT
??_C@_0BF@EDGHIKBF@SwellLifeEffectStart?$AA@ DB 'SwellLifeEffectStart', 00H ; `string'
CONST	ENDS
;	COMDAT ??_C@_0BE@LJPJLIP@WizardryEnchantTime?$AA@
CONST	SEGMENT
??_C@_0BE@LJPJLIP@WizardryEnchantTime?$AA@ DB 'WizardryEnchantTime', 00H ; `string'
CONST	ENDS
;	COMDAT ??_C@_0BJ@KHNLHFNF@WizardryEnchantDamageMax?$AA@
CONST	SEGMENT
??_C@_0BJ@KHNLHFNF@WizardryEnchantDamageMax?$AA@ DB 'WizardryEnchantDamag'
	DB	'eMax', 00H					; `string'
CONST	ENDS
;	COMDAT ??_C@_02NJPGOMH@?$CFf?$AA@
CONST	SEGMENT
??_C@_02NJPGOMH@?$CFf?$AA@ DB '%f', 00H			; `string'
CONST	ENDS
;	COMDAT ??_C@_0BK@NKOODMFM@WizardryEnchantDamageFact?$AA@
CONST	SEGMENT
??_C@_0BK@NKOODMFM@WizardryEnchantDamageFact?$AA@ DB 'WizardryEnchantDama'
	DB	'geFact', 00H				; `string'
CONST	ENDS
;	COMDAT ??_C@_03PBDDOHNJ@0?42?$AA@
CONST	SEGMENT
??_C@_03PBDDOHNJ@0?42?$AA@ DB '0.2', 00H		; `string'
CONST	ENDS
;	COMDAT ??_C@_0BJ@EKEDEGGJ@WizardryEnchantDamageDiv?$AA@
CONST	SEGMENT
??_C@_0BJ@EKEDEGGJ@WizardryEnchantDamageDiv?$AA@ DB 'WizardryEnchantDamag'
	DB	'eDiv', 00H					; `string'
CONST	ENDS
;	COMDAT ??_C@_0BD@IJCFELOE@SoulBarrierTimeMax?$AA@
CONST	SEGMENT
??_C@_0BD@IJCFELOE@SoulBarrierTimeMax?$AA@ DB 'SoulBarrierTimeMax', 00H ; `string'
CONST	ENDS
;	COMDAT ??_C@_0BD@GELNHIFI@SoulBarrierTimeDiv?$AA@
CONST	SEGMENT
??_C@_0BD@GELNHIFI@SoulBarrierTimeDiv?$AA@ DB 'SoulBarrierTimeDiv', 00H ; `string'
CONST	ENDS
;	COMDAT ??_C@_0BF@HLPHEEBF@SoulBarrierTimeStart?$AA@
CONST	SEGMENT
??_C@_0BF@HLPHEEBF@SoulBarrierTimeStart?$AA@ DB 'SoulBarrierTimeStart', 00H ; `string'
CONST	ENDS
;	COMDAT ??_C@_0BG@CPELIBEP@SoulBarrierDefenseMax?$AA@
CONST	SEGMENT
??_C@_0BG@CPELIBEP@SoulBarrierDefenseMax?$AA@ DB 'SoulBarrierDefenseMax', 00H ; `string'
CONST	ENDS
;	COMDAT ??_C@_0BH@MJAGCEGF@SoulBarrierDefenseDiv2?$AA@
CONST	SEGMENT
??_C@_0BH@MJAGCEGF@SoulBarrierDefenseDiv2?$AA@ DB 'SoulBarrierDefenseDiv2'
	DB	00H						; `string'
CONST	ENDS
;	COMDAT ??_C@_0BH@OCCLHHKG@SoulBarrierDefenseDiv1?$AA@
CONST	SEGMENT
??_C@_0BH@OCCLHHKG@SoulBarrierDefenseDiv1?$AA@ DB 'SoulBarrierDefenseDiv1'
	DB	00H						; `string'
CONST	ENDS
;	COMDAT ??_C@_05OEGOMMDP@Skill?$AA@
CONST	SEGMENT
??_C@_05OEGOMMDP@Skill?$AA@ DB 'Skill', 00H		; `string'
CONST	ENDS
;	COMDAT ??_C@_0BI@ENLFKMPH@SoulBarrierDefenseStart?$AA@
CONST	SEGMENT
??_C@_0BI@ENLFKMPH@SoulBarrierDefenseStart?$AA@ DB 'SoulBarrierDefenseSta'
	DB	'rt', 00H					; `string'
CONST	ENDS
;	COMDAT ??_C@_0BK@HFEAEJI@?4?4?2Data?2ZtData?2Skills?4ini?$AA@
CONST	SEGMENT
??_C@_0BK@HFEAEJI@?4?4?2Data?2ZtData?2Skills?4ini?$AA@ DB '..\Data\ZtData'
	DB	'\Skills.ini', 00H				; `string'
CONST	ENDS
;	COMDAT ??_C@_0JB@FKMAEBOB@?$FLSkill?5Addition?5Info?$FN?5?$FLFire?5Scre@
CONST	SEGMENT
??_C@_0JB@FKMAEBOB@?$FLSkill?5Addition?5Info?$FN?5?$FLFire?5Scre@ DB '[Sk'
	DB	'ill Addition Info] [Fire Scream] Use(%d) : Explosion Distance'
	DB	'(%d) - Rate(%d), MaxAttack_SameSerial(%d), SerialInitCount(%d'
	DB	'), Check Serial(%d)', 00H			; `string'
CONST	ENDS
;	COMDAT ??_C@_0BG@PJAAPPCH@CheckFireScreamSerial?$AA@
CONST	SEGMENT
??_C@_0BG@PJAAPPCH@CheckFireScreamSerial?$AA@ DB 'CheckFireScreamSerial', 00H ; `string'
CONST	ENDS
;	COMDAT ??_C@_0BK@KNFOPFKG@FireScreamSerialInitCount?$AA@
CONST	SEGMENT
??_C@_0BK@KNFOPFKG@FireScreamSerialInitCount?$AA@ DB 'FireScreamSerialIni'
	DB	'tCount', 00H				; `string'
CONST	ENDS
;	COMDAT ??_C@_0CD@IEHCMBMN@FireScreamMaxAttackCountSameSeri@
CONST	SEGMENT
??_C@_0CD@IEHCMBMN@FireScreamMaxAttackCountSameSeri@ DB 'FireScreamMaxAtt'
	DB	'ackCountSameSerial', 00H			; `string'
CONST	ENDS
;	COMDAT ??_C@_0BI@BFNBGAPD@FireScreamExplosionRate?$AA@
CONST	SEGMENT
??_C@_0BI@BFNBGAPD@FireScreamExplosionRate?$AA@ DB 'FireScreamExplosionRa'
	DB	'te', 00H					; `string'
CONST	ENDS
;	COMDAT ??_C@_0CC@CACJLIIP@FireScreamExplosionAttackDistanc@
CONST	SEGMENT
??_C@_0CC@CACJLIIP@FireScreamExplosionAttackDistanc@ DB 'FireScreamExplos'
	DB	'ionAttackDistance', 00H			; `string'
CONST	ENDS
;	COMDAT ??_C@_0BA@HINCJBHF@FireScreamSkill?$AA@
CONST	SEGMENT
??_C@_0BA@HINCJBHF@FireScreamSkill?$AA@ DB 'FireScreamSkill', 00H ; `string'
CONST	ENDS
;	COMDAT ??_C@_0HG@MDBPHHOC@?$FLSkill?5Addition?5Info?$FN?5?$FLInfinity?5@
CONST	SEGMENT
??_C@_0HG@MDBPHHOC@?$FLSkill?5Addition?5Info?$FN?5?$FLInfinity?5@ DB '[Sk'
	DB	'ill Addition Info] [Infinity Arrow] Skill Time[%d], UseLevel['
	DB	'%d], Arrow MP Consumption +0[%d] +1[%d] +2[%d] +3[%d]', 00H ; `string'
CONST	ENDS
;	COMDAT ??_C@_0CB@KPCFCAAL@InfinityArraowMPConsumptionPlus3@
CONST	SEGMENT
??_C@_0CB@KPCFCAAL@InfinityArraowMPConsumptionPlus3@ DB 'InfinityArraowMP'
	DB	'ConsumptionPlus3', 00H			; `string'
CONST	ENDS
;	COMDAT ??_C@_0CB@JNBDECIJ@InfinityArraowMPConsumptionPlus1@
CONST	SEGMENT
??_C@_0CB@JNBDECIJ@InfinityArraowMPConsumptionPlus1@ DB 'InfinityArraowMP'
	DB	'ConsumptionPlus1', 00H			; `string'
CONST	ENDS
;	COMDAT ??_C@_0CB@IEAIHDMI@InfinityArraowMPConsumptionPlus0@
CONST	SEGMENT
??_C@_0CB@IEAIHDMI@InfinityArraowMPConsumptionPlus0@ DB 'InfinityArraowMP'
	DB	'ConsumptionPlus0', 00H			; `string'
CONST	ENDS
;	COMDAT ??_C@_0BG@DADLDHMB@InfinityArrowUseLevel?$AA@
CONST	SEGMENT
??_C@_0BG@DADLDHMB@InfinityArrowUseLevel?$AA@ DB 'InfinityArrowUseLevel', 00H ; `string'
CONST	ENDS
;	COMDAT ??_C@_09EMMBJNGJ@SkillInfo?$AA@
CONST	SEGMENT
??_C@_09EMMBJNGJ@SkillInfo?$AA@ DB 'SkillInfo', 00H	; `string'
CONST	ENDS
;	COMDAT ??_C@_0BH@KBNHBCCN@InfinityArrowSkillTime?$AA@
CONST	SEGMENT
??_C@_0BH@KBNHBCCN@InfinityArrowSkillTime?$AA@ DB 'InfinityArrowSkillTime'
	DB	00H						; `string'
CONST	ENDS
;	COMDAT ??_C@_03JBJLGPFL@end?$AA@
CONST	SEGMENT
??_C@_03JBJLGPFL@end?$AA@ DB 'end', 00H			; `string'
CONST	ENDS
;	COMDAT ??_C@_01KDCPPGHE@r?$AA@
CONST	SEGMENT
??_C@_01KDCPPGHE@r?$AA@ DB 'r', 00H			; `string'
CONST	ENDS
;	COMDAT ??_C@_00CNPNBAHC@?$AA@
CONST	SEGMENT
??_C@_00CNPNBAHC@?$AA@ DB 00H				; `string'
; Function compile flags: /Ogtp
CONST	ENDS
;	COMDAT ?Load@CSkillAdditionInfo@@QAEHPAD@Z
_TEXT	SEGMENT
_szFloat$ = -1028					; size = 256
_oszFloat$ = -772					; size = 256
_oszTempEx$ = -516					; size = 256
_szTempEx$ = -260					; size = 256
__$ArrayPad$ = -4					; size = 4
_lpszFileName$ = 8					; size = 4
?Load@CSkillAdditionInfo@@QAEHPAD@Z PROC		; CSkillAdditionInfo::Load, COMDAT
; _this$ = ecx

; 46   : {

  00000	55		 push	 ebp
  00001	8b ec		 mov	 ebp, esp
  00003	81 ec 04 04 00
	00		 sub	 esp, 1028		; 00000404H
  00009	a1 00 00 00 00	 mov	 eax, DWORD PTR ___security_cookie
  0000e	33 c5		 xor	 eax, ebp
  00010	89 45 fc	 mov	 DWORD PTR __$ArrayPad$[ebp], eax
  00013	53		 push	 ebx
  00014	8b 5d 08	 mov	 ebx, DWORD PTR _lpszFileName$[ebp]
  00017	56		 push	 esi
  00018	57		 push	 edi
  00019	8b f1		 mov	 esi, ecx

; 47   : 	if ( lpszFileName == NULL || strcmp(lpszFileName, "") == 0 )

  0001b	85 db		 test	 ebx, ebx
  0001d	0f 84 52 19 00
	00		 je	 $LN8@Load
  00023	bf 00 00 00 00	 mov	 edi, OFFSET ??_C@_00CNPNBAHC@?$AA@
  00028	8b c3		 mov	 eax, ebx
  0002a	8d 9b 00 00 00
	00		 npad	 6
$LL14@Load:
  00030	8a 08		 mov	 cl, BYTE PTR [eax]
  00032	3a 0f		 cmp	 cl, BYTE PTR [edi]
  00034	75 1a		 jne	 SHORT $LN15@Load
  00036	84 c9		 test	 cl, cl
  00038	74 12		 je	 SHORT $LN16@Load
  0003a	8a 48 01	 mov	 cl, BYTE PTR [eax+1]
  0003d	3a 4f 01	 cmp	 cl, BYTE PTR [edi+1]
  00040	75 0e		 jne	 SHORT $LN15@Load
  00042	83 c0 02	 add	 eax, 2
  00045	83 c7 02	 add	 edi, 2
  00048	84 c9		 test	 cl, cl
  0004a	75 e4		 jne	 SHORT $LL14@Load
$LN16@Load:
  0004c	33 c0		 xor	 eax, eax
  0004e	eb 05		 jmp	 SHORT $LN17@Load
$LN15@Load:
  00050	1b c0		 sbb	 eax, eax
  00052	83 d8 ff	 sbb	 eax, -1
$LN17@Load:
  00055	85 c0		 test	 eax, eax
  00057	0f 84 18 19 00
	00		 je	 $LN8@Load

; 50   : 		return FALSE;
; 51   : 	}
; 52   : 
; 53   : 	int Token;
; 54   : 	this->Init();

  0005d	8b ce		 mov	 ecx, esi
  0005f	e8 00 00 00 00	 call	 ?Init@CSkillAdditionInfo@@QAEXXZ ; CSkillAdditionInfo::Init

; 55   : 	// ----
; 56   : 	SMDFile = fopen(gDirPath.GetNewPath(lpszFileName), "r");

  00064	68 00 00 00 00	 push	 OFFSET ??_C@_01KDCPPGHE@r?$AA@
  00069	53		 push	 ebx
  0006a	b9 00 00 00 00	 mov	 ecx, OFFSET ?gDirPath@@3VCDirPath@@A ; gDirPath
  0006f	e8 00 00 00 00	 call	 ?GetNewPath@CDirPath@@QAEPADPAD@Z ; CDirPath::GetNewPath
  00074	50		 push	 eax
  00075	e8 00 00 00 00	 call	 _fopen
  0007a	83 c4 08	 add	 esp, 8
  0007d	a3 00 00 00 00	 mov	 DWORD PTR _SMDFile, eax

; 57   : 	// ----
; 58   : 	if( SMDFile == 0 )

  00082	85 c0		 test	 eax, eax
  00084	75 1e		 jne	 SHORT $LN12@Load

; 59   : 	{
; 60   : 		MsgBox(lMsg.Get(MSGGET(0, 112)), lpszFileName);

  00086	53		 push	 ebx
  00087	6a 70		 push	 112			; 00000070H
  00089	b9 00 00 00 00	 mov	 ecx, OFFSET ?lMsg@@3VCMsg@@A ; lMsg
  0008e	e8 00 00 00 00	 call	 ?Get@CMsg@@QAEPADH@Z	; CMsg::Get
  00093	50		 push	 eax
  00094	e8 00 00 00 00	 call	 ?MsgBox@@YAXPADZZ	; MsgBox
  00099	83 c4 08	 add	 esp, 8

; 61   : 		ExitProcess(0);

  0009c	6a 00		 push	 0
  0009e	ff 15 00 00 00
	00		 call	 DWORD PTR __imp__ExitProcess@4
$LN25@Load:
$LN12@Load:

; 62   : 		return false;
; 63   : 	}
; 64   : 	// ----
; 65   : 	while(true) 
; 66   : 	{
; 67   : 		Token = GetToken();

  000a4	e8 00 00 00 00	 call	 ?GetToken@@YA?AW4SMDToken@@XZ ; GetToken

; 68   : 		// ----
; 69   : 		if( Token == END || !strcmp(TokenString, "end") )

  000a9	83 f8 02	 cmp	 eax, 2
  000ac	74 70		 je	 SHORT $LN23@Load
  000ae	8b ff		 npad	 2
$LL6@Load:
  000b0	bf 00 00 00 00	 mov	 edi, OFFSET ??_C@_03JBJLGPFL@end?$AA@
  000b5	b8 00 00 00 00	 mov	 eax, OFFSET _TokenString
  000ba	8d 9b 00 00 00
	00		 npad	 6
$LL18@Load:
  000c0	8a 08		 mov	 cl, BYTE PTR [eax]
  000c2	3a 0f		 cmp	 cl, BYTE PTR [edi]
  000c4	75 1a		 jne	 SHORT $LN19@Load
  000c6	84 c9		 test	 cl, cl
  000c8	74 12		 je	 SHORT $LN20@Load
  000ca	8a 48 01	 mov	 cl, BYTE PTR [eax+1]
  000cd	3a 4f 01	 cmp	 cl, BYTE PTR [edi+1]
  000d0	75 0e		 jne	 SHORT $LN19@Load
  000d2	83 c0 02	 add	 eax, 2
  000d5	83 c7 02	 add	 edi, 2
  000d8	84 c9		 test	 cl, cl
  000da	75 e4		 jne	 SHORT $LL18@Load
$LN20@Load:
  000dc	33 c0		 xor	 eax, eax
  000de	eb 05		 jmp	 SHORT $LN21@Load
$LN19@Load:
  000e0	1b c0		 sbb	 eax, eax
  000e2	83 d8 ff	 sbb	 eax, -1
$LN21@Load:
  000e5	85 c0		 test	 eax, eax
  000e7	74 35		 je	 SHORT $LN23@Load

; 70   : 		{
; 71   : 			break;
; 72   : 		}
; 73   : 		else
; 74   : 		{
; 75   : 			int SkillID = TokenNumber;

  000e9	d9 05 00 00 00
	00		 fld	 DWORD PTR _TokenNumber
  000ef	e8 00 00 00 00	 call	 __ftol2_sse
  000f4	8b f8		 mov	 edi, eax

; 76   : 			Token = GetToken();

  000f6	e8 00 00 00 00	 call	 ?GetToken@@YA?AW4SMDToken@@XZ ; GetToken

; 77   : 			int Level	= TokenNumber;

  000fb	d9 05 00 00 00
	00		 fld	 DWORD PTR _TokenNumber
  00101	e8 00 00 00 00	 call	 __ftol2_sse

; 78   : 			// ----
; 79   : 			if( Level < 1 )

  00106	83 f8 01	 cmp	 eax, 1
  00109	7d 05		 jge	 SHORT $LN1@Load

; 80   : 			{
; 81   : 				Level = 1;

  0010b	b8 01 00 00 00	 mov	 eax, 1
$LN1@Load:

; 82   : 			}
; 83   : 			// ----
; 84   : 			this->m_SkillUseReqLevel[SkillID] = Level;

  00110	89 44 be 5c	 mov	 DWORD PTR [esi+edi*4+92], eax
  00114	e8 00 00 00 00	 call	 ?GetToken@@YA?AW4SMDToken@@XZ ; GetToken
  00119	83 f8 02	 cmp	 eax, 2
  0011c	75 92		 jne	 SHORT $LL6@Load
$LN23@Load:

; 85   : 		}
; 86   : 	}
; 87   : 	// ----
; 88   : 	fclose(SMDFile);

  0011e	a1 00 00 00 00	 mov	 eax, DWORD PTR _SMDFile
  00123	50		 push	 eax
  00124	e8 00 00 00 00	 call	 _fclose
  00129	83 c4 04	 add	 esp, 4

; 89   : 
; 90   : 
; 91   : 	this->m_iInfinityArrowSkillTime = GetPrivateProfileInt("SkillInfo", "InfinityArrowSkillTime", 600, gDirPath.GetNewPath(lpszFileName)); 

  0012c	53		 push	 ebx
  0012d	b9 00 00 00 00	 mov	 ecx, OFFSET ?gDirPath@@3VCDirPath@@A ; gDirPath
  00132	e8 00 00 00 00	 call	 ?GetNewPath@CDirPath@@QAEPADPAD@Z ; CDirPath::GetNewPath
  00137	8b 3d 00 00 00
	00		 mov	 edi, DWORD PTR __imp__GetPrivateProfileIntA@16
  0013d	50		 push	 eax
  0013e	68 58 02 00 00	 push	 600			; 00000258H
  00143	68 00 00 00 00	 push	 OFFSET ??_C@_0BH@KBNHBCCN@InfinityArrowSkillTime?$AA@
  00148	68 00 00 00 00	 push	 OFFSET ??_C@_09EMMBJNGJ@SkillInfo?$AA@
  0014d	ff d7		 call	 edi

; 92   : 	this->m_iInfinityArrowUseLevel = GetPrivateProfileInt("SkillInfo", "InfinityArrowUseLevel", 220, gDirPath.GetNewPath(lpszFileName)); 

  0014f	53		 push	 ebx
  00150	b9 00 00 00 00	 mov	 ecx, OFFSET ?gDirPath@@3VCDirPath@@A ; gDirPath
  00155	89 46 04	 mov	 DWORD PTR [esi+4], eax
  00158	e8 00 00 00 00	 call	 ?GetNewPath@CDirPath@@QAEPADPAD@Z ; CDirPath::GetNewPath
  0015d	50		 push	 eax
  0015e	68 dc 00 00 00	 push	 220			; 000000dcH
  00163	68 00 00 00 00	 push	 OFFSET ??_C@_0BG@DADLDHMB@InfinityArrowUseLevel?$AA@
  00168	68 00 00 00 00	 push	 OFFSET ??_C@_09EMMBJNGJ@SkillInfo?$AA@
  0016d	ff d7		 call	 edi

; 93   : 	
; 94   : 	this->m_iInfinityArrowMPConsumptionPlus0 = GetPrivateProfileInt("SkillInfo", "InfinityArraowMPConsumptionPlus0", 0, gDirPath.GetNewPath(lpszFileName));

  0016f	53		 push	 ebx
  00170	b9 00 00 00 00	 mov	 ecx, OFFSET ?gDirPath@@3VCDirPath@@A ; gDirPath
  00175	89 46 08	 mov	 DWORD PTR [esi+8], eax
  00178	e8 00 00 00 00	 call	 ?GetNewPath@CDirPath@@QAEPADPAD@Z ; CDirPath::GetNewPath
  0017d	50		 push	 eax
  0017e	6a 00		 push	 0
  00180	68 00 00 00 00	 push	 OFFSET ??_C@_0CB@IEAIHDMI@InfinityArraowMPConsumptionPlus0@
  00185	68 00 00 00 00	 push	 OFFSET ??_C@_09EMMBJNGJ@SkillInfo?$AA@
  0018a	ff d7		 call	 edi

; 95   : 	this->m_iInfinityArrowMPConsumptionPlus1 = GetPrivateProfileInt("SkillInfo", "InfinityArraowMPConsumptionPlus1", 0, gDirPath.GetNewPath(lpszFileName));

  0018c	53		 push	 ebx
  0018d	b9 00 00 00 00	 mov	 ecx, OFFSET ?gDirPath@@3VCDirPath@@A ; gDirPath
  00192	89 46 0c	 mov	 DWORD PTR [esi+12], eax
  00195	e8 00 00 00 00	 call	 ?GetNewPath@CDirPath@@QAEPADPAD@Z ; CDirPath::GetNewPath
  0019a	50		 push	 eax
  0019b	6a 00		 push	 0
  0019d	68 00 00 00 00	 push	 OFFSET ??_C@_0CB@JNBDECIJ@InfinityArraowMPConsumptionPlus1@
  001a2	68 00 00 00 00	 push	 OFFSET ??_C@_09EMMBJNGJ@SkillInfo?$AA@
  001a7	ff d7		 call	 edi

; 96   : 	//this->m_iInfinityArrowMPConsumptionPlus2 = GetPrivateProfileInt("SkillInfo", "InfinityArraowMPConsumptionPlus2", 0, gDirPath.GetNewPath(lpszFileName));
; 97   : 	this->m_iInfinityArrowMPConsumptionPlus3 = GetPrivateProfileInt("SkillInfo", "InfinityArraowMPConsumptionPlus3", 0, gDirPath.GetNewPath(lpszFileName));

  001a9	53		 push	 ebx
  001aa	b9 00 00 00 00	 mov	 ecx, OFFSET ?gDirPath@@3VCDirPath@@A ; gDirPath
  001af	89 46 10	 mov	 DWORD PTR [esi+16], eax
  001b2	e8 00 00 00 00	 call	 ?GetNewPath@CDirPath@@QAEPADPAD@Z ; CDirPath::GetNewPath
  001b7	50		 push	 eax
  001b8	6a 00		 push	 0
  001ba	68 00 00 00 00	 push	 OFFSET ??_C@_0CB@KPCFCAAL@InfinityArraowMPConsumptionPlus3@
  001bf	68 00 00 00 00	 push	 OFFSET ??_C@_09EMMBJNGJ@SkillInfo?$AA@
  001c4	ff d7		 call	 edi

; 98   : 
; 99   : 	LogAddTD("[Skill Addition Info] [Infinity Arrow] Skill Time[%d], UseLevel[%d], Arrow MP Consumption +0[%d] +1[%d] +2[%d] +3[%d]", this->m_iInfinityArrowSkillTime, this->m_iInfinityArrowUseLevel, this->m_iInfinityArrowMPConsumptionPlus0, this->m_iInfinityArrowMPConsumptionPlus1, this->m_iInfinityArrowMPConsumptionPlus2, this->m_iInfinityArrowMPConsumptionPlus3);

  001c6	8b 4e 14	 mov	 ecx, DWORD PTR [esi+20]
  001c9	8b 56 10	 mov	 edx, DWORD PTR [esi+16]
  001cc	50		 push	 eax
  001cd	51		 push	 ecx
  001ce	8b 4e 08	 mov	 ecx, DWORD PTR [esi+8]
  001d1	52		 push	 edx
  001d2	8b 56 04	 mov	 edx, DWORD PTR [esi+4]
  001d5	89 46 18	 mov	 DWORD PTR [esi+24], eax
  001d8	8b 46 0c	 mov	 eax, DWORD PTR [esi+12]
  001db	50		 push	 eax
  001dc	51		 push	 ecx
  001dd	52		 push	 edx
  001de	68 00 00 00 00	 push	 OFFSET ??_C@_0HG@MDBPHHOC@?$FLSkill?5Addition?5Info?$FN?5?$FLInfinity?5@
  001e3	ff 15 00 00 00
	00		 call	 DWORD PTR ?LogAddTD@@3P6AXPADZZA ; LogAddTD
  001e9	83 c4 1c	 add	 esp, 28			; 0000001cH

; 100  : 
; 101  : 	this->m_bFireScreamSkill = GetPrivateProfileInt("SkillInfo", "FireScreamSkill", 1, gDirPath.GetNewPath(lpszFileName));

  001ec	53		 push	 ebx
  001ed	b9 00 00 00 00	 mov	 ecx, OFFSET ?gDirPath@@3VCDirPath@@A ; gDirPath
  001f2	e8 00 00 00 00	 call	 ?GetNewPath@CDirPath@@QAEPADPAD@Z ; CDirPath::GetNewPath
  001f7	50		 push	 eax
  001f8	6a 01		 push	 1
  001fa	68 00 00 00 00	 push	 OFFSET ??_C@_0BA@HINCJBHF@FireScreamSkill?$AA@
  001ff	68 00 00 00 00	 push	 OFFSET ??_C@_09EMMBJNGJ@SkillInfo?$AA@
  00204	ff d7		 call	 edi

; 102  : 	this->m_iFireScreamExplosionAttackDistance = GetPrivateProfileInt("SkillInfo", "FireScreamExplosionAttackDistance", 1, gDirPath.GetNewPath(lpszFileName));

  00206	53		 push	 ebx
  00207	b9 00 00 00 00	 mov	 ecx, OFFSET ?gDirPath@@3VCDirPath@@A ; gDirPath
  0020c	89 46 1c	 mov	 DWORD PTR [esi+28], eax
  0020f	e8 00 00 00 00	 call	 ?GetNewPath@CDirPath@@QAEPADPAD@Z ; CDirPath::GetNewPath
  00214	50		 push	 eax
  00215	6a 01		 push	 1
  00217	68 00 00 00 00	 push	 OFFSET ??_C@_0CC@CACJLIIP@FireScreamExplosionAttackDistanc@
  0021c	68 00 00 00 00	 push	 OFFSET ??_C@_09EMMBJNGJ@SkillInfo?$AA@
  00221	ff d7		 call	 edi

; 103  : 	this->m_iFireScreamExplosionRate = GetPrivateProfileInt("SkillInfo", "FireScreamExplosionRate", 300, gDirPath.GetNewPath(lpszFileName));

  00223	53		 push	 ebx
  00224	b9 00 00 00 00	 mov	 ecx, OFFSET ?gDirPath@@3VCDirPath@@A ; gDirPath
  00229	89 46 20	 mov	 DWORD PTR [esi+32], eax
  0022c	e8 00 00 00 00	 call	 ?GetNewPath@CDirPath@@QAEPADPAD@Z ; CDirPath::GetNewPath
  00231	50		 push	 eax
  00232	68 2c 01 00 00	 push	 300			; 0000012cH
  00237	68 00 00 00 00	 push	 OFFSET ??_C@_0BI@BFNBGAPD@FireScreamExplosionRate?$AA@
  0023c	68 00 00 00 00	 push	 OFFSET ??_C@_09EMMBJNGJ@SkillInfo?$AA@
  00241	ff d7		 call	 edi

; 104  : 	this->m_iFireScreamMaxAttackCountSameSerial = GetPrivateProfileInt("SkillInfo", "FireScreamMaxAttackCountSameSerial", 3, gDirPath.GetNewPath(lpszFileName));

  00243	53		 push	 ebx
  00244	b9 00 00 00 00	 mov	 ecx, OFFSET ?gDirPath@@3VCDirPath@@A ; gDirPath
  00249	89 46 24	 mov	 DWORD PTR [esi+36], eax
  0024c	e8 00 00 00 00	 call	 ?GetNewPath@CDirPath@@QAEPADPAD@Z ; CDirPath::GetNewPath
  00251	50		 push	 eax
  00252	6a 03		 push	 3
  00254	68 00 00 00 00	 push	 OFFSET ??_C@_0CD@IEHCMBMN@FireScreamMaxAttackCountSameSeri@
  00259	68 00 00 00 00	 push	 OFFSET ??_C@_09EMMBJNGJ@SkillInfo?$AA@
  0025e	ff d7		 call	 edi

; 105  : 	this->m_iFireScreamSerialInitCount = GetPrivateProfileInt("SkillInfo", "FireScreamSerialInitCount", 100, gDirPath.GetNewPath(lpszFileName));

  00260	53		 push	 ebx
  00261	b9 00 00 00 00	 mov	 ecx, OFFSET ?gDirPath@@3VCDirPath@@A ; gDirPath
  00266	89 46 28	 mov	 DWORD PTR [esi+40], eax
  00269	e8 00 00 00 00	 call	 ?GetNewPath@CDirPath@@QAEPADPAD@Z ; CDirPath::GetNewPath
  0026e	50		 push	 eax
  0026f	6a 64		 push	 100			; 00000064H
  00271	68 00 00 00 00	 push	 OFFSET ??_C@_0BK@KNFOPFKG@FireScreamSerialInitCount?$AA@
  00276	68 00 00 00 00	 push	 OFFSET ??_C@_09EMMBJNGJ@SkillInfo?$AA@
  0027b	ff d7		 call	 edi

; 106  : 	this->m_bCheckFireScreamSerial = GetPrivateProfileInt("SkillInfo", "CheckFireScreamSerial", 1, gDirPath.GetNewPath(lpszFileName));

  0027d	53		 push	 ebx
  0027e	b9 00 00 00 00	 mov	 ecx, OFFSET ?gDirPath@@3VCDirPath@@A ; gDirPath
  00283	89 46 2c	 mov	 DWORD PTR [esi+44], eax
  00286	e8 00 00 00 00	 call	 ?GetNewPath@CDirPath@@QAEPADPAD@Z ; CDirPath::GetNewPath
  0028b	50		 push	 eax
  0028c	6a 01		 push	 1
  0028e	68 00 00 00 00	 push	 OFFSET ??_C@_0BG@PJAAPPCH@CheckFireScreamSerial?$AA@
  00293	68 00 00 00 00	 push	 OFFSET ??_C@_09EMMBJNGJ@SkillInfo?$AA@
  00298	ff d7		 call	 edi

; 107  : 
; 108  : 	LogAddTD("[Skill Addition Info] [Fire Scream] Use(%d) : Explosion Distance(%d) - Rate(%d), MaxAttack_SameSerial(%d), SerialInitCount(%d), Check Serial(%d)", this->m_bFireScreamSkill, this->m_iFireScreamExplosionAttackDistance, this->m_iFireScreamExplosionRate, this->m_iFireScreamMaxAttackCountSameSerial, this->m_iFireScreamSerialInitCount, this->m_bCheckFireScreamSerial);

  0029a	8b 4e 28	 mov	 ecx, DWORD PTR [esi+40]
  0029d	8b 56 24	 mov	 edx, DWORD PTR [esi+36]
  002a0	50		 push	 eax
  002a1	89 46 30	 mov	 DWORD PTR [esi+48], eax
  002a4	8b 46 2c	 mov	 eax, DWORD PTR [esi+44]
  002a7	50		 push	 eax
  002a8	8b 46 20	 mov	 eax, DWORD PTR [esi+32]
  002ab	51		 push	 ecx
  002ac	8b 4e 1c	 mov	 ecx, DWORD PTR [esi+28]
  002af	52		 push	 edx
  002b0	50		 push	 eax
  002b1	51		 push	 ecx
  002b2	68 00 00 00 00	 push	 OFFSET ??_C@_0JB@FKMAEBOB@?$FLSkill?5Addition?5Info?$FN?5?$FLFire?5Scre@
  002b7	ff 15 00 00 00
	00		 call	 DWORD PTR ?LogAddTD@@3P6AXPADZZA ; LogAddTD
  002bd	83 c4 1c	 add	 esp, 28			; 0000001cH

; 109  : 
; 110  : 	//Season3 Addition
; 111  : 
; 112  : 	// -------------------------------------------------------------------------------------------------------------------------------
; 113  : 	char oszFloat[256];
; 114  : 	this->SoulBarrierDefenseStart				= GetPrivateProfileInt(OTHER_SKILL_CM, "SoulBarrierDefenseStart", 600, OTHER_SKILL_DIR); 

  002c0	68 00 00 00 00	 push	 OFFSET ??_C@_0BK@HFEAEJI@?4?4?2Data?2ZtData?2Skills?4ini?$AA@
  002c5	68 58 02 00 00	 push	 600			; 00000258H
  002ca	68 00 00 00 00	 push	 OFFSET ??_C@_0BI@ENLFKMPH@SoulBarrierDefenseStart?$AA@
  002cf	68 00 00 00 00	 push	 OFFSET ??_C@_05OEGOMMDP@Skill?$AA@
  002d4	ff d7		 call	 edi

; 115  : 	this->SoulBarrierDefenseDiv1				= GetPrivateProfileInt(OTHER_SKILL_CM, "SoulBarrierDefenseDiv1", 600, OTHER_SKILL_DIR); 

  002d6	68 00 00 00 00	 push	 OFFSET ??_C@_0BK@HFEAEJI@?4?4?2Data?2ZtData?2Skills?4ini?$AA@
  002db	68 58 02 00 00	 push	 600			; 00000258H
  002e0	68 00 00 00 00	 push	 OFFSET ??_C@_0BH@OCCLHHKG@SoulBarrierDefenseDiv1?$AA@
  002e5	68 00 00 00 00	 push	 OFFSET ??_C@_05OEGOMMDP@Skill?$AA@
  002ea	66 89 86 4c 0b
	00 00		 mov	 WORD PTR [esi+2892], ax
  002f1	ff d7		 call	 edi

; 116  : 	this->SoulBarrierDefenseDiv2				= GetPrivateProfileInt(OTHER_SKILL_CM, "SoulBarrierDefenseDiv2", 600, OTHER_SKILL_DIR); 

  002f3	68 00 00 00 00	 push	 OFFSET ??_C@_0BK@HFEAEJI@?4?4?2Data?2ZtData?2Skills?4ini?$AA@
  002f8	68 58 02 00 00	 push	 600			; 00000258H
  002fd	68 00 00 00 00	 push	 OFFSET ??_C@_0BH@MJAGCEGF@SoulBarrierDefenseDiv2?$AA@
  00302	68 00 00 00 00	 push	 OFFSET ??_C@_05OEGOMMDP@Skill?$AA@
  00307	66 89 86 4e 0b
	00 00		 mov	 WORD PTR [esi+2894], ax
  0030e	ff d7		 call	 edi

; 117  : 	this->SoulBarrierDefenseMax				= GetPrivateProfileInt(OTHER_SKILL_CM, "SoulBarrierDefenseMax", 600, OTHER_SKILL_DIR); 

  00310	68 00 00 00 00	 push	 OFFSET ??_C@_0BK@HFEAEJI@?4?4?2Data?2ZtData?2Skills?4ini?$AA@
  00315	68 58 02 00 00	 push	 600			; 00000258H
  0031a	68 00 00 00 00	 push	 OFFSET ??_C@_0BG@CPELIBEP@SoulBarrierDefenseMax?$AA@
  0031f	68 00 00 00 00	 push	 OFFSET ??_C@_05OEGOMMDP@Skill?$AA@
  00324	66 89 86 50 0b
	00 00		 mov	 WORD PTR [esi+2896], ax
  0032b	ff d7		 call	 edi

; 118  : 	this->SoulBarrierTimeStart				= GetPrivateProfileInt(OTHER_SKILL_CM, "SoulBarrierTimeStart", 600, OTHER_SKILL_DIR); 

  0032d	68 00 00 00 00	 push	 OFFSET ??_C@_0BK@HFEAEJI@?4?4?2Data?2ZtData?2Skills?4ini?$AA@
  00332	68 58 02 00 00	 push	 600			; 00000258H
  00337	68 00 00 00 00	 push	 OFFSET ??_C@_0BF@HLPHEEBF@SoulBarrierTimeStart?$AA@
  0033c	68 00 00 00 00	 push	 OFFSET ??_C@_05OEGOMMDP@Skill?$AA@
  00341	89 86 54 0b 00
	00		 mov	 DWORD PTR [esi+2900], eax
  00347	ff d7		 call	 edi
  00349	66 89 86 58 0b
	00 00		 mov	 WORD PTR [esi+2904], ax

; 119  : 	this->SoulBarrierTimeDiv					= GetPrivateProfileInt(OTHER_SKILL_CM, "SoulBarrierTimeDiv", 600, OTHER_SKILL_DIR); 

  00350	68 00 00 00 00	 push	 OFFSET ??_C@_0BK@HFEAEJI@?4?4?2Data?2ZtData?2Skills?4ini?$AA@
  00355	68 58 02 00 00	 push	 600			; 00000258H
  0035a	68 00 00 00 00	 push	 OFFSET ??_C@_0BD@GELNHIFI@SoulBarrierTimeDiv?$AA@
  0035f	68 00 00 00 00	 push	 OFFSET ??_C@_05OEGOMMDP@Skill?$AA@
  00364	ff d7		 call	 edi

; 120  : 	this->SoulBarrierTimeMax					= GetPrivateProfileInt(OTHER_SKILL_CM, "SoulBarrierTimeMax", 600, OTHER_SKILL_DIR); 

  00366	68 00 00 00 00	 push	 OFFSET ??_C@_0BK@HFEAEJI@?4?4?2Data?2ZtData?2Skills?4ini?$AA@
  0036b	68 58 02 00 00	 push	 600			; 00000258H
  00370	68 00 00 00 00	 push	 OFFSET ??_C@_0BD@IJCFELOE@SoulBarrierTimeMax?$AA@
  00375	68 00 00 00 00	 push	 OFFSET ??_C@_05OEGOMMDP@Skill?$AA@
  0037a	66 89 86 5a 0b
	00 00		 mov	 WORD PTR [esi+2906], ax
  00381	ff d7		 call	 edi

; 121  : 	this->WizardryEnchantDamageDiv			= GetPrivateProfileInt(OTHER_SKILL_CM, "WizardryEnchantDamageDiv", 600, OTHER_SKILL_DIR); 

  00383	68 00 00 00 00	 push	 OFFSET ??_C@_0BK@HFEAEJI@?4?4?2Data?2ZtData?2Skills?4ini?$AA@
  00388	68 58 02 00 00	 push	 600			; 00000258H
  0038d	68 00 00 00 00	 push	 OFFSET ??_C@_0BJ@EKEDEGGJ@WizardryEnchantDamageDiv?$AA@
  00392	68 00 00 00 00	 push	 OFFSET ??_C@_05OEGOMMDP@Skill?$AA@
  00397	89 86 5c 0b 00
	00		 mov	 DWORD PTR [esi+2908], eax
  0039d	ff d7		 call	 edi

; 122  : 	GetPrivateProfileString(OTHER_SKILL_CM, "WizardryEnchantDamageFact", "0.2", oszFloat, 5, OTHER_SKILL_DIR);

  0039f	8b 1d 00 00 00
	00		 mov	 ebx, DWORD PTR __imp__GetPrivateProfileStringA@24
  003a5	68 00 00 00 00	 push	 OFFSET ??_C@_0BK@HFEAEJI@?4?4?2Data?2ZtData?2Skills?4ini?$AA@
  003aa	6a 05		 push	 5
  003ac	8d 95 fc fc ff
	ff		 lea	 edx, DWORD PTR _oszFloat$[ebp]
  003b2	52		 push	 edx
  003b3	68 00 00 00 00	 push	 OFFSET ??_C@_03PBDDOHNJ@0?42?$AA@
  003b8	68 00 00 00 00	 push	 OFFSET ??_C@_0BK@NKOODMFM@WizardryEnchantDamageFact?$AA@
  003bd	68 00 00 00 00	 push	 OFFSET ??_C@_05OEGOMMDP@Skill?$AA@
  003c2	66 89 86 60 0b
	00 00		 mov	 WORD PTR [esi+2912], ax
  003c9	ff d3		 call	 ebx

; 123  : 	sscanf(oszFloat, "%f", &this->WizardryEnchantDamageFact);

  003cb	8d 86 64 0b 00
	00		 lea	 eax, DWORD PTR [esi+2916]
  003d1	50		 push	 eax
  003d2	8d 8d fc fc ff
	ff		 lea	 ecx, DWORD PTR _oszFloat$[ebp]
  003d8	68 00 00 00 00	 push	 OFFSET ??_C@_02NJPGOMH@?$CFf?$AA@
  003dd	51		 push	 ecx
  003de	e8 00 00 00 00	 call	 _sscanf
  003e3	83 c4 0c	 add	 esp, 12			; 0000000cH

; 124  : 	this->WizardryEnchantDamageMax			= GetPrivateProfileInt(OTHER_SKILL_CM, "WizardryEnchantDamageMax", 600, OTHER_SKILL_DIR); 

  003e6	68 00 00 00 00	 push	 OFFSET ??_C@_0BK@HFEAEJI@?4?4?2Data?2ZtData?2Skills?4ini?$AA@
  003eb	68 58 02 00 00	 push	 600			; 00000258H
  003f0	68 00 00 00 00	 push	 OFFSET ??_C@_0BJ@KHNLHFNF@WizardryEnchantDamageMax?$AA@
  003f5	68 00 00 00 00	 push	 OFFSET ??_C@_05OEGOMMDP@Skill?$AA@
  003fa	ff d7		 call	 edi

; 125  : 	this->WizardryEnchantTime					= GetPrivateProfileInt(OTHER_SKILL_CM, "WizardryEnchantTime", 600, OTHER_SKILL_DIR); 

  003fc	68 00 00 00 00	 push	 OFFSET ??_C@_0BK@HFEAEJI@?4?4?2Data?2ZtData?2Skills?4ini?$AA@
  00401	68 58 02 00 00	 push	 600			; 00000258H
  00406	68 00 00 00 00	 push	 OFFSET ??_C@_0BE@LJPJLIP@WizardryEnchantTime?$AA@
  0040b	68 00 00 00 00	 push	 OFFSET ??_C@_05OEGOMMDP@Skill?$AA@
  00410	89 86 68 0b 00
	00		 mov	 DWORD PTR [esi+2920], eax
  00416	ff d7		 call	 edi

; 126  : 	this->SwellLifeEffectStart				= GetPrivateProfileInt(OTHER_SKILL_CM, "SwellLifeEffectStart", 600, OTHER_SKILL_DIR); 

  00418	68 00 00 00 00	 push	 OFFSET ??_C@_0BK@HFEAEJI@?4?4?2Data?2ZtData?2Skills?4ini?$AA@
  0041d	68 58 02 00 00	 push	 600			; 00000258H
  00422	68 00 00 00 00	 push	 OFFSET ??_C@_0BF@EDGHIKBF@SwellLifeEffectStart?$AA@
  00427	68 00 00 00 00	 push	 OFFSET ??_C@_05OEGOMMDP@Skill?$AA@
  0042c	89 86 6c 0b 00
	00		 mov	 DWORD PTR [esi+2924], eax
  00432	ff d7		 call	 edi

; 127  : 	this->SwellLifeEffectDiv1					= GetPrivateProfileInt(OTHER_SKILL_CM, "SwellLifeEffectDiv1", 600, OTHER_SKILL_DIR); 

  00434	68 00 00 00 00	 push	 OFFSET ??_C@_0BK@HFEAEJI@?4?4?2Data?2ZtData?2Skills?4ini?$AA@
  00439	68 58 02 00 00	 push	 600			; 00000258H
  0043e	68 00 00 00 00	 push	 OFFSET ??_C@_0BE@OLIFKHKO@SwellLifeEffectDiv1?$AA@
  00443	68 00 00 00 00	 push	 OFFSET ??_C@_05OEGOMMDP@Skill?$AA@
  00448	66 89 86 70 0b
	00 00		 mov	 WORD PTR [esi+2928], ax
  0044f	ff d7		 call	 edi

; 128  : 	this->SwellLifeEffectDiv2					= GetPrivateProfileInt(OTHER_SKILL_CM, "SwellLifeEffectDiv2", 600, OTHER_SKILL_DIR); 

  00451	68 00 00 00 00	 push	 OFFSET ??_C@_0BK@HFEAEJI@?4?4?2Data?2ZtData?2Skills?4ini?$AA@
  00456	68 58 02 00 00	 push	 600			; 00000258H
  0045b	68 00 00 00 00	 push	 OFFSET ??_C@_0BE@MAKIPEGN@SwellLifeEffectDiv2?$AA@
  00460	68 00 00 00 00	 push	 OFFSET ??_C@_05OEGOMMDP@Skill?$AA@
  00465	66 89 86 72 0b
	00 00		 mov	 WORD PTR [esi+2930], ax
  0046c	ff d7		 call	 edi

; 129  : 	this->SwellLifeEffectMax					= GetPrivateProfileInt(OTHER_SKILL_CM, "SwellLifeEffectMax", 600, OTHER_SKILL_DIR); 

  0046e	68 00 00 00 00	 push	 OFFSET ??_C@_0BK@HFEAEJI@?4?4?2Data?2ZtData?2Skills?4ini?$AA@
  00473	68 58 02 00 00	 push	 600			; 00000258H
  00478	68 00 00 00 00	 push	 OFFSET ??_C@_0BD@DHNHKCED@SwellLifeEffectMax?$AA@
  0047d	68 00 00 00 00	 push	 OFFSET ??_C@_05OEGOMMDP@Skill?$AA@
  00482	66 89 86 74 0b
	00 00		 mov	 WORD PTR [esi+2932], ax
  00489	ff d7		 call	 edi

; 130  : 	this->SwellLifeTimeStart					= GetPrivateProfileInt(OTHER_SKILL_CM, "SwellLifeTimeStart", 600, OTHER_SKILL_DIR); 

  0048b	68 00 00 00 00	 push	 OFFSET ??_C@_0BK@HFEAEJI@?4?4?2Data?2ZtData?2Skills?4ini?$AA@
  00490	68 58 02 00 00	 push	 600			; 00000258H
  00495	68 00 00 00 00	 push	 OFFSET ??_C@_0BD@CBCDNOBM@SwellLifeTimeStart?$AA@
  0049a	68 00 00 00 00	 push	 OFFSET ??_C@_05OEGOMMDP@Skill?$AA@
  0049f	89 86 78 0b 00
	00		 mov	 DWORD PTR [esi+2936], eax
  004a5	ff d7		 call	 edi

; 131  : 	this->SwellLifeTimeDiv					= GetPrivateProfileInt(OTHER_SKILL_CM, "SwellLifeTimeDiv", 600, OTHER_SKILL_DIR); 

  004a7	68 00 00 00 00	 push	 OFFSET ??_C@_0BK@HFEAEJI@?4?4?2Data?2ZtData?2Skills?4ini?$AA@
  004ac	68 58 02 00 00	 push	 600			; 00000258H
  004b1	68 00 00 00 00	 push	 OFFSET ??_C@_0BB@JKMIHHPM@SwellLifeTimeDiv?$AA@
  004b6	68 00 00 00 00	 push	 OFFSET ??_C@_05OEGOMMDP@Skill?$AA@
  004bb	66 89 86 7c 0b
	00 00		 mov	 WORD PTR [esi+2940], ax
  004c2	ff d7		 call	 edi

; 132  : 	this->SwellLifeTimeMax					= GetPrivateProfileInt(OTHER_SKILL_CM, "SwellLifeTimeMax", 600, OTHER_SKILL_DIR); 

  004c4	68 00 00 00 00	 push	 OFFSET ??_C@_0BK@HFEAEJI@?4?4?2Data?2ZtData?2Skills?4ini?$AA@
  004c9	68 58 02 00 00	 push	 600			; 00000258H
  004ce	68 00 00 00 00	 push	 OFFSET ??_C@_0BB@HHFAEEEA@SwellLifeTimeMax?$AA@
  004d3	68 00 00 00 00	 push	 OFFSET ??_C@_05OEGOMMDP@Skill?$AA@
  004d8	66 89 86 7e 0b
	00 00		 mov	 WORD PTR [esi+2942], ax
  004df	ff d7		 call	 edi

; 133  : 	this->ElfDefenseEffectFact				= GetPrivateProfileInt(OTHER_SKILL_CM, "ElfDefenseEffectFact", 600, OTHER_SKILL_DIR); 

  004e1	68 00 00 00 00	 push	 OFFSET ??_C@_0BK@HFEAEJI@?4?4?2Data?2ZtData?2Skills?4ini?$AA@
  004e6	68 58 02 00 00	 push	 600			; 00000258H
  004eb	68 00 00 00 00	 push	 OFFSET ??_C@_0BF@KDEHAEKN@ElfDefenseEffectFact?$AA@
  004f0	68 00 00 00 00	 push	 OFFSET ??_C@_05OEGOMMDP@Skill?$AA@
  004f5	89 86 80 0b 00
	00		 mov	 DWORD PTR [esi+2944], eax
  004fb	ff d7		 call	 edi

; 134  : 	this->ElfDefenseEffectDiv					= GetPrivateProfileInt(OTHER_SKILL_CM, "ElfDefenseEffectDiv", 600, OTHER_SKILL_DIR); 

  004fd	68 00 00 00 00	 push	 OFFSET ??_C@_0BK@HFEAEJI@?4?4?2Data?2ZtData?2Skills?4ini?$AA@
  00502	68 58 02 00 00	 push	 600			; 00000258H
  00507	68 00 00 00 00	 push	 OFFSET ??_C@_0BE@DPMDBDGA@ElfDefenseEffectDiv?$AA@
  0050c	68 00 00 00 00	 push	 OFFSET ??_C@_05OEGOMMDP@Skill?$AA@
  00511	66 89 86 84 0b
	00 00		 mov	 WORD PTR [esi+2948], ax
  00518	ff d7		 call	 edi

; 135  : 	this->ElfDefenseEffectMax					= GetPrivateProfileInt(OTHER_SKILL_CM, "ElfDefenseEffectMax", 600, OTHER_SKILL_DIR); 

  0051a	68 00 00 00 00	 push	 OFFSET ??_C@_0BK@HFEAEJI@?4?4?2Data?2ZtData?2Skills?4ini?$AA@
  0051f	68 58 02 00 00	 push	 600			; 00000258H
  00524	68 00 00 00 00	 push	 OFFSET ??_C@_0BE@NCFLCANM@ElfDefenseEffectMax?$AA@
  00529	68 00 00 00 00	 push	 OFFSET ??_C@_05OEGOMMDP@Skill?$AA@
  0052e	66 89 86 86 0b
	00 00		 mov	 WORD PTR [esi+2950], ax
  00535	ff d7		 call	 edi

; 136  : 	this->ElfDefenseTime						= GetPrivateProfileInt(OTHER_SKILL_CM, "ElfDefenseTime", 600, OTHER_SKILL_DIR); 

  00537	68 00 00 00 00	 push	 OFFSET ??_C@_0BK@HFEAEJI@?4?4?2Data?2ZtData?2Skills?4ini?$AA@
  0053c	68 58 02 00 00	 push	 600			; 00000258H
  00541	68 00 00 00 00	 push	 OFFSET ??_C@_0P@JCGFNEIF@ElfDefenseTime?$AA@
  00546	68 00 00 00 00	 push	 OFFSET ??_C@_05OEGOMMDP@Skill?$AA@
  0054b	89 86 88 0b 00
	00		 mov	 DWORD PTR [esi+2952], eax
  00551	ff d7		 call	 edi

; 137  : 	this->ElfAttackEffectFact					= GetPrivateProfileInt(OTHER_SKILL_CM, "ElfAttackEffectFact", 600, OTHER_SKILL_DIR); 

  00553	68 00 00 00 00	 push	 OFFSET ??_C@_0BK@HFEAEJI@?4?4?2Data?2ZtData?2Skills?4ini?$AA@
  00558	68 58 02 00 00	 push	 600			; 00000258H
  0055d	68 00 00 00 00	 push	 OFFSET ??_C@_0BE@JJIEGOBK@ElfAttackEffectFact?$AA@
  00562	68 00 00 00 00	 push	 OFFSET ??_C@_05OEGOMMDP@Skill?$AA@
  00567	89 86 8c 0b 00
	00		 mov	 DWORD PTR [esi+2956], eax
  0056d	ff d7		 call	 edi

; 138  : 	this->ElfAttackEffectDiv					= GetPrivateProfileInt(OTHER_SKILL_CM, "ElfAttackEffectDiv", 600, OTHER_SKILL_DIR); 

  0056f	68 00 00 00 00	 push	 OFFSET ??_C@_0BK@HFEAEJI@?4?4?2Data?2ZtData?2Skills?4ini?$AA@
  00574	68 58 02 00 00	 push	 600			; 00000258H
  00579	68 00 00 00 00	 push	 OFFSET ??_C@_0BD@EJPIGKAB@ElfAttackEffectDiv?$AA@
  0057e	68 00 00 00 00	 push	 OFFSET ??_C@_05OEGOMMDP@Skill?$AA@
  00583	66 89 86 90 0b
	00 00		 mov	 WORD PTR [esi+2960], ax
  0058a	ff d7		 call	 edi

; 139  : 	this->ElfAttackEffectMax					= GetPrivateProfileInt(OTHER_SKILL_CM, "ElfAttackEffectMax", 600, OTHER_SKILL_DIR); 

  0058c	68 00 00 00 00	 push	 OFFSET ??_C@_0BK@HFEAEJI@?4?4?2Data?2ZtData?2Skills?4ini?$AA@
  00591	68 58 02 00 00	 push	 600			; 00000258H
  00596	68 00 00 00 00	 push	 OFFSET ??_C@_0BD@KEGAFJLN@ElfAttackEffectMax?$AA@
  0059b	68 00 00 00 00	 push	 OFFSET ??_C@_05OEGOMMDP@Skill?$AA@
  005a0	66 89 86 92 0b
	00 00		 mov	 WORD PTR [esi+2962], ax
  005a7	ff d7		 call	 edi

; 140  : 	this->ElfAttackTime						= GetPrivateProfileInt(OTHER_SKILL_CM, "ElfAttackTime", 600, OTHER_SKILL_DIR); 

  005a9	68 00 00 00 00	 push	 OFFSET ??_C@_0BK@HFEAEJI@?4?4?2Data?2ZtData?2Skills?4ini?$AA@
  005ae	68 58 02 00 00	 push	 600			; 00000258H
  005b3	68 00 00 00 00	 push	 OFFSET ??_C@_0O@OKEHNLCK@ElfAttackTime?$AA@
  005b8	68 00 00 00 00	 push	 OFFSET ??_C@_05OEGOMMDP@Skill?$AA@
  005bd	89 86 94 0b 00
	00		 mov	 DWORD PTR [esi+2964], eax
  005c3	ff d7		 call	 edi

; 141  : 	this->CriticalDamageEffectDiv1			= GetPrivateProfileInt(OTHER_SKILL_CM, "CriticalDamageEffectDiv1", 600, OTHER_SKILL_DIR); 

  005c5	68 00 00 00 00	 push	 OFFSET ??_C@_0BK@HFEAEJI@?4?4?2Data?2ZtData?2Skills?4ini?$AA@
  005ca	68 58 02 00 00	 push	 600			; 00000258H
  005cf	68 00 00 00 00	 push	 OFFSET ??_C@_0BJ@JNMJFAAH@CriticalDamageEffectDiv1?$AA@
  005d4	68 00 00 00 00	 push	 OFFSET ??_C@_05OEGOMMDP@Skill?$AA@
  005d9	89 86 98 0b 00
	00		 mov	 DWORD PTR [esi+2968], eax
  005df	ff d7		 call	 edi

; 142  : 	this->CriticalDamageEffectDiv2			= GetPrivateProfileInt(OTHER_SKILL_CM, "CriticalDamageEffectDiv2", 600, OTHER_SKILL_DIR); 

  005e1	68 00 00 00 00	 push	 OFFSET ??_C@_0BK@HFEAEJI@?4?4?2Data?2ZtData?2Skills?4ini?$AA@
  005e6	68 58 02 00 00	 push	 600			; 00000258H
  005eb	68 00 00 00 00	 push	 OFFSET ??_C@_0BJ@LGOEADME@CriticalDamageEffectDiv2?$AA@
  005f0	68 00 00 00 00	 push	 OFFSET ??_C@_05OEGOMMDP@Skill?$AA@
  005f5	66 89 86 9c 0b
	00 00		 mov	 WORD PTR [esi+2972], ax
  005fc	ff d7		 call	 edi

; 143  : 	this->CriticalDamageEffectMax				= GetPrivateProfileInt(OTHER_SKILL_CM, "CriticalDamageEffectMax", 600, OTHER_SKILL_DIR); 

  005fe	68 00 00 00 00	 push	 OFFSET ??_C@_0BK@HFEAEJI@?4?4?2Data?2ZtData?2Skills?4ini?$AA@
  00603	68 58 02 00 00	 push	 600			; 00000258H
  00608	68 00 00 00 00	 push	 OFFSET ??_C@_0BI@KHGBJLAD@CriticalDamageEffectMax?$AA@
  0060d	68 00 00 00 00	 push	 OFFSET ??_C@_05OEGOMMDP@Skill?$AA@
  00612	66 89 86 9e 0b
	00 00		 mov	 WORD PTR [esi+2974], ax
  00619	ff d7		 call	 edi

; 144  : 	this->CriticalDamageTimeStart				= GetPrivateProfileInt(OTHER_SKILL_CM, "CriticalDamageTimeStart", 600, OTHER_SKILL_DIR); 

  0061b	68 00 00 00 00	 push	 OFFSET ??_C@_0BK@HFEAEJI@?4?4?2Data?2ZtData?2Skills?4ini?$AA@
  00620	68 58 02 00 00	 push	 600			; 00000258H
  00625	68 00 00 00 00	 push	 OFFSET ??_C@_0BI@LBJFOHFM@CriticalDamageTimeStart?$AA@
  0062a	68 00 00 00 00	 push	 OFFSET ??_C@_05OEGOMMDP@Skill?$AA@
  0062f	66 89 86 a0 0b
	00 00		 mov	 WORD PTR [esi+2976], ax
  00636	ff d7		 call	 edi

; 145  : 	this->CriticalDamageTimeDiv				= GetPrivateProfileInt(OTHER_SKILL_CM, "CriticalDamageTimeDiv", 600, OTHER_SKILL_DIR); 

  00638	68 00 00 00 00	 push	 OFFSET ??_C@_0BK@HFEAEJI@?4?4?2Data?2ZtData?2Skills?4ini?$AA@
  0063d	66 89 86 a2 0b
	00 00		 mov	 WORD PTR [esi+2978], ax
  00644	68 58 02 00 00	 push	 600			; 00000258H
  00649	68 00 00 00 00	 push	 OFFSET ??_C@_0BG@IFFFDPA@CriticalDamageTimeDiv?$AA@
  0064e	68 00 00 00 00	 push	 OFFSET ??_C@_05OEGOMMDP@Skill?$AA@
  00653	ff d7		 call	 edi

; 146  : 	this->CriticalDamageTimeMax				= GetPrivateProfileInt(OTHER_SKILL_CM, "CriticalDamageTimeMax", 600, OTHER_SKILL_DIR); 

  00655	68 00 00 00 00	 push	 OFFSET ??_C@_0BK@HFEAEJI@?4?4?2Data?2ZtData?2Skills?4ini?$AA@
  0065a	68 58 02 00 00	 push	 600			; 00000258H
  0065f	68 00 00 00 00	 push	 OFFSET ??_C@_0BG@OFMNGAEM@CriticalDamageTimeMax?$AA@
  00664	68 00 00 00 00	 push	 OFFSET ??_C@_05OEGOMMDP@Skill?$AA@
  00669	66 89 86 a4 0b
	00 00		 mov	 WORD PTR [esi+2980], ax
  00670	ff d7		 call	 edi

; 147  : 	this->BerserkerManaIncDiv					= GetPrivateProfileInt(OTHER_SKILL_CM, "BerserkerManaIncDiv", 600, OTHER_SKILL_DIR); 

  00672	68 00 00 00 00	 push	 OFFSET ??_C@_0BK@HFEAEJI@?4?4?2Data?2ZtData?2Skills?4ini?$AA@
  00677	68 58 02 00 00	 push	 600			; 00000258H
  0067c	68 00 00 00 00	 push	 OFFSET ??_C@_0BE@OIPBEFAB@BerserkerManaIncDiv?$AA@
  00681	68 00 00 00 00	 push	 OFFSET ??_C@_05OEGOMMDP@Skill?$AA@
  00686	89 86 a8 0b 00
	00		 mov	 DWORD PTR [esi+2984], eax
  0068c	ff d7		 call	 edi

; 148  : 	this->BerserkerLifeDecDiv					= GetPrivateProfileInt(OTHER_SKILL_CM, "BerserkerLifeDecDiv", 600, OTHER_SKILL_DIR); 

  0068e	68 00 00 00 00	 push	 OFFSET ??_C@_0BK@HFEAEJI@?4?4?2Data?2ZtData?2Skills?4ini?$AA@
  00693	68 58 02 00 00	 push	 600			; 00000258H
  00698	68 00 00 00 00	 push	 OFFSET ??_C@_0BE@OCKOHNE@BerserkerLifeDecDiv?$AA@
  0069d	68 00 00 00 00	 push	 OFFSET ??_C@_05OEGOMMDP@Skill?$AA@
  006a2	66 89 86 ac 0b
	00 00		 mov	 WORD PTR [esi+2988], ax
  006a9	ff d7		 call	 edi

; 149  : 	this->BerserkerTimeStart					= GetPrivateProfileInt(OTHER_SKILL_CM, "BerserkerTimeStart", 600, OTHER_SKILL_DIR); 

  006ab	68 00 00 00 00	 push	 OFFSET ??_C@_0BK@HFEAEJI@?4?4?2Data?2ZtData?2Skills?4ini?$AA@
  006b0	68 58 02 00 00	 push	 600			; 00000258H
  006b5	68 00 00 00 00	 push	 OFFSET ??_C@_0BD@BHMKFOOP@BerserkerTimeStart?$AA@
  006ba	68 00 00 00 00	 push	 OFFSET ??_C@_05OEGOMMDP@Skill?$AA@
  006bf	66 89 86 ae 0b
	00 00		 mov	 WORD PTR [esi+2990], ax
  006c6	ff d7		 call	 edi

; 150  : 	this->BerserkerTimeDiv					= GetPrivateProfileInt(OTHER_SKILL_CM, "BerserkerTimeDiv", 600, OTHER_SKILL_DIR); 

  006c8	68 00 00 00 00	 push	 OFFSET ??_C@_0BK@HFEAEJI@?4?4?2Data?2ZtData?2Skills?4ini?$AA@
  006cd	68 58 02 00 00	 push	 600			; 00000258H
  006d2	68 00 00 00 00	 push	 OFFSET ??_C@_0BB@IFIKOEHI@BerserkerTimeDiv?$AA@
  006d7	68 00 00 00 00	 push	 OFFSET ??_C@_05OEGOMMDP@Skill?$AA@
  006dc	66 89 86 b0 0b
	00 00		 mov	 WORD PTR [esi+2992], ax
  006e3	ff d7		 call	 edi

; 151  : 	this->BerserkerTimeMax					= GetPrivateProfileInt(OTHER_SKILL_CM, "BerserkerTimeMax", 600, OTHER_SKILL_DIR); 

  006e5	68 00 00 00 00	 push	 OFFSET ??_C@_0BK@HFEAEJI@?4?4?2Data?2ZtData?2Skills?4ini?$AA@
  006ea	68 58 02 00 00	 push	 600			; 00000258H
  006ef	68 00 00 00 00	 push	 OFFSET ??_C@_0BB@GIBCNHME@BerserkerTimeMax?$AA@
  006f4	68 00 00 00 00	 push	 OFFSET ??_C@_05OEGOMMDP@Skill?$AA@
  006f9	66 89 86 b2 0b
	00 00		 mov	 WORD PTR [esi+2994], ax
  00700	ff d7		 call	 edi

; 152  : 	this->BerserkerProcentDamageMax				= GetPrivateProfileInt(OTHER_SKILL_CM, "BerserkerProcentDamageMax", 0, OTHER_SKILL_DIR); 

  00702	68 00 00 00 00	 push	 OFFSET ??_C@_0BK@HFEAEJI@?4?4?2Data?2ZtData?2Skills?4ini?$AA@
  00707	6a 00		 push	 0
  00709	68 00 00 00 00	 push	 OFFSET ??_C@_0BK@MKJOKFKE@BerserkerProcentDamageMax?$AA@
  0070e	68 00 00 00 00	 push	 OFFSET ??_C@_05OEGOMMDP@Skill?$AA@
  00713	89 86 b4 0b 00
	00		 mov	 DWORD PTR [esi+2996], eax
  00719	ff d7		 call	 edi

; 153  : 	this->BerserkerDefenceDivProcent	= GetPrivateProfileInt(OTHER_SKILL_CM, "BerserkerDefenceDivProcent", 10, OTHER_SKILL_DIR); 

  0071b	68 00 00 00 00	 push	 OFFSET ??_C@_0BK@HFEAEJI@?4?4?2Data?2ZtData?2Skills?4ini?$AA@
  00720	6a 0a		 push	 10			; 0000000aH
  00722	68 00 00 00 00	 push	 OFFSET ??_C@_0BL@OBKCINOG@BerserkerDefenceDivProcent?$AA@
  00727	68 00 00 00 00	 push	 OFFSET ??_C@_05OEGOMMDP@Skill?$AA@
  0072c	66 89 86 b8 0b
	00 00		 mov	 WORD PTR [esi+3000], ax
  00733	ff d7		 call	 edi

; 154  : 	this->ReflectEffectStart					= GetPrivateProfileInt(OTHER_SKILL_CM, "ReflectEffectStart", 600, OTHER_SKILL_DIR); 

  00735	68 00 00 00 00	 push	 OFFSET ??_C@_0BK@HFEAEJI@?4?4?2Data?2ZtData?2Skills?4ini?$AA@
  0073a	68 58 02 00 00	 push	 600			; 00000258H
  0073f	68 00 00 00 00	 push	 OFFSET ??_C@_0BD@DINJGEOO@ReflectEffectStart?$AA@
  00744	68 00 00 00 00	 push	 OFFSET ??_C@_05OEGOMMDP@Skill?$AA@
  00749	66 89 86 ba 0b
	00 00		 mov	 WORD PTR [esi+3002], ax
  00750	ff d7		 call	 edi

; 155  : 	this->ReflectEffectDiv					= GetPrivateProfileInt(OTHER_SKILL_CM, "ReflectEffectDiv", 600, OTHER_SKILL_DIR); 

  00752	68 00 00 00 00	 push	 OFFSET ??_C@_0BK@HFEAEJI@?4?4?2Data?2ZtData?2Skills?4ini?$AA@
  00757	68 58 02 00 00	 push	 600			; 00000258H
  0075c	68 00 00 00 00	 push	 OFFSET ??_C@_0BB@BPODGPLG@ReflectEffectDiv?$AA@
  00761	68 00 00 00 00	 push	 OFFSET ??_C@_05OEGOMMDP@Skill?$AA@
  00766	66 89 86 bc 0b
	00 00		 mov	 WORD PTR [esi+3004], ax
  0076d	ff d7		 call	 edi

; 156  : 	this->ReflectEffectMax					= GetPrivateProfileInt(OTHER_SKILL_CM, "ReflectEffectMax", 600, OTHER_SKILL_DIR); 

  0076f	68 00 00 00 00	 push	 OFFSET ??_C@_0BK@HFEAEJI@?4?4?2Data?2ZtData?2Skills?4ini?$AA@
  00774	68 58 02 00 00	 push	 600			; 00000258H
  00779	68 00 00 00 00	 push	 OFFSET ??_C@_0BB@PCHLFMAK@ReflectEffectMax?$AA@
  0077e	68 00 00 00 00	 push	 OFFSET ??_C@_05OEGOMMDP@Skill?$AA@
  00783	66 89 86 be 0b
	00 00		 mov	 WORD PTR [esi+3006], ax
  0078a	ff d7		 call	 edi

; 157  : 	this->ReflectTimeStart					= GetPrivateProfileInt(OTHER_SKILL_CM, "ReflectTimeStart", 600, OTHER_SKILL_DIR); 

  0078c	68 00 00 00 00	 push	 OFFSET ??_C@_0BK@HFEAEJI@?4?4?2Data?2ZtData?2Skills?4ini?$AA@
  00791	68 58 02 00 00	 push	 600			; 00000258H
  00796	68 00 00 00 00	 push	 OFFSET ??_C@_0BB@OEIPCAFF@ReflectTimeStart?$AA@
  0079b	68 00 00 00 00	 push	 OFFSET ??_C@_05OEGOMMDP@Skill?$AA@
  007a0	89 86 c0 0b 00
	00		 mov	 DWORD PTR [esi+3008], eax
  007a6	ff d7		 call	 edi

; 158  : 	this->ReflectTimeDiv						= GetPrivateProfileInt(OTHER_SKILL_CM, "ReflectTimeDiv", 600, OTHER_SKILL_DIR); 

  007a8	68 00 00 00 00	 push	 OFFSET ??_C@_0BK@HFEAEJI@?4?4?2Data?2ZtData?2Skills?4ini?$AA@
  007ad	68 58 02 00 00	 push	 600			; 00000258H
  007b2	68 00 00 00 00	 push	 OFFSET ??_C@_0P@DDPAIKCD@ReflectTimeDiv?$AA@
  007b7	68 00 00 00 00	 push	 OFFSET ??_C@_05OEGOMMDP@Skill?$AA@
  007bc	66 89 86 c4 0b
	00 00		 mov	 WORD PTR [esi+3012], ax
  007c3	ff d7		 call	 edi

; 159  : 	this->ReflectTimeMax						= GetPrivateProfileInt(OTHER_SKILL_CM, "ReflectTimeMax", 600, OTHER_SKILL_DIR); 

  007c5	68 00 00 00 00	 push	 OFFSET ??_C@_0BK@HFEAEJI@?4?4?2Data?2ZtData?2Skills?4ini?$AA@
  007ca	68 58 02 00 00	 push	 600			; 00000258H
  007cf	68 00 00 00 00	 push	 OFFSET ??_C@_0P@NOGILJJP@ReflectTimeMax?$AA@
  007d4	68 00 00 00 00	 push	 OFFSET ??_C@_05OEGOMMDP@Skill?$AA@
  007d9	66 89 86 c6 0b
	00 00		 mov	 WORD PTR [esi+3014], ax
  007e0	ff d7		 call	 edi

; 160  : 	this->IgnoreDefenseEffectStart			= GetPrivateProfileInt(OTHER_SKILL_CM, "IgnoreDefenseEffectStart", 600, OTHER_SKILL_DIR); 

  007e2	68 00 00 00 00	 push	 OFFSET ??_C@_0BK@HFEAEJI@?4?4?2Data?2ZtData?2Skills?4ini?$AA@
  007e7	68 58 02 00 00	 push	 600			; 00000258H
  007ec	68 00 00 00 00	 push	 OFFSET ??_C@_0BJ@OOADAFPG@IgnoreDefenseEffectStart?$AA@
  007f1	68 00 00 00 00	 push	 OFFSET ??_C@_05OEGOMMDP@Skill?$AA@
  007f6	89 86 c8 0b 00
	00		 mov	 DWORD PTR [esi+3016], eax
  007fc	ff d7		 call	 edi

; 161  : 	this->IgnoreDefenseEffectSub				= GetPrivateProfileInt(OTHER_SKILL_CM, "IgnoreDefenseEffectSub", 600, OTHER_SKILL_DIR); 

  007fe	68 00 00 00 00	 push	 OFFSET ??_C@_0BK@HFEAEJI@?4?4?2Data?2ZtData?2Skills?4ini?$AA@
  00803	68 58 02 00 00	 push	 600			; 00000258H
  00808	68 00 00 00 00	 push	 OFFSET ??_C@_0BH@JNFEBFBK@IgnoreDefenseEffectSub?$AA@
  0080d	68 00 00 00 00	 push	 OFFSET ??_C@_05OEGOMMDP@Skill?$AA@
  00812	66 89 86 cc 0b
	00 00		 mov	 WORD PTR [esi+3020], ax
  00819	ff d7		 call	 edi

; 162  : 	this->IgnoreDefenseEffectDiv				= GetPrivateProfileInt(OTHER_SKILL_CM, "IgnoreDefenseEffectDiv", 600, OTHER_SKILL_DIR); 

  0081b	68 00 00 00 00	 push	 OFFSET ??_C@_0BK@HFEAEJI@?4?4?2Data?2ZtData?2Skills?4ini?$AA@
  00820	68 58 02 00 00	 push	 600			; 00000258H
  00825	68 00 00 00 00	 push	 OFFSET ??_C@_0BH@GLAIPHHN@IgnoreDefenseEffectDiv?$AA@
  0082a	68 00 00 00 00	 push	 OFFSET ??_C@_05OEGOMMDP@Skill?$AA@
  0082f	66 89 86 ce 0b
	00 00		 mov	 WORD PTR [esi+3022], ax
  00836	ff d7		 call	 edi

; 163  : 	this->IgnoreDefenseEffectMax				= GetPrivateProfileInt(OTHER_SKILL_CM, "IgnoreDefenseEffectMax", 600, OTHER_SKILL_DIR); 

  00838	68 00 00 00 00	 push	 OFFSET ??_C@_0BK@HFEAEJI@?4?4?2Data?2ZtData?2Skills?4ini?$AA@
  0083d	68 58 02 00 00	 push	 600			; 00000258H
  00842	68 00 00 00 00	 push	 OFFSET ??_C@_0BH@IGJAMEMB@IgnoreDefenseEffectMax?$AA@
  00847	68 00 00 00 00	 push	 OFFSET ??_C@_05OEGOMMDP@Skill?$AA@
  0084c	66 89 86 d0 0b
	00 00		 mov	 WORD PTR [esi+3024], ax
  00853	ff d7		 call	 edi

; 164  : 	this->IgnoreDefenseTimeStart				= GetPrivateProfileInt(OTHER_SKILL_CM, "IgnoreDefenseTimeStart", 600, OTHER_SKILL_DIR); 

  00855	68 00 00 00 00	 push	 OFFSET ??_C@_0BK@HFEAEJI@?4?4?2Data?2ZtData?2Skills?4ini?$AA@
  0085a	68 58 02 00 00	 push	 600			; 00000258H
  0085f	68 00 00 00 00	 push	 OFFSET ??_C@_0BH@JAGELIJO@IgnoreDefenseTimeStart?$AA@
  00864	68 00 00 00 00	 push	 OFFSET ??_C@_05OEGOMMDP@Skill?$AA@
  00869	89 86 d4 0b 00
	00		 mov	 DWORD PTR [esi+3028], eax
  0086f	ff d7		 call	 edi

; 165  : 	this->IgnoreDefenseTimeDiv				= GetPrivateProfileInt(OTHER_SKILL_CM, "IgnoreDefenseTimeDiv", 600, OTHER_SKILL_DIR); 

  00871	68 00 00 00 00	 push	 OFFSET ??_C@_0BK@HFEAEJI@?4?4?2Data?2ZtData?2Skills?4ini?$AA@
  00876	68 58 02 00 00	 push	 600			; 00000258H
  0087b	68 00 00 00 00	 push	 OFFSET ??_C@_0BF@HMHOBCNN@IgnoreDefenseTimeDiv?$AA@
  00880	68 00 00 00 00	 push	 OFFSET ??_C@_05OEGOMMDP@Skill?$AA@
  00885	66 89 86 d8 0b
	00 00		 mov	 WORD PTR [esi+3032], ax
  0088c	ff d7		 call	 edi

; 166  : 	this->IgnoreDefenseTimeMax				= GetPrivateProfileInt(OTHER_SKILL_CM, "IgnoreDefenseTimeMax", 600, OTHER_SKILL_DIR); 

  0088e	68 00 00 00 00	 push	 OFFSET ??_C@_0BK@HFEAEJI@?4?4?2Data?2ZtData?2Skills?4ini?$AA@
  00893	68 58 02 00 00	 push	 600			; 00000258H
  00898	68 00 00 00 00	 push	 OFFSET ??_C@_0BF@JBOGCBGB@IgnoreDefenseTimeMax?$AA@
  0089d	68 00 00 00 00	 push	 OFFSET ??_C@_05OEGOMMDP@Skill?$AA@
  008a2	66 89 86 da 0b
	00 00		 mov	 WORD PTR [esi+3034], ax
  008a9	ff d7		 call	 edi

; 167  : 	this->IncreaseHealthEffectStart			= GetPrivateProfileInt(OTHER_SKILL_CM, "IncreaseHealthEffectStart", 600, OTHER_SKILL_DIR); 

  008ab	68 00 00 00 00	 push	 OFFSET ??_C@_0BK@HFEAEJI@?4?4?2Data?2ZtData?2Skills?4ini?$AA@
  008b0	68 58 02 00 00	 push	 600			; 00000258H
  008b5	68 00 00 00 00	 push	 OFFSET ??_C@_0BK@FJGKLFFF@IncreaseHealthEffectStart?$AA@
  008ba	68 00 00 00 00	 push	 OFFSET ??_C@_05OEGOMMDP@Skill?$AA@
  008bf	89 86 dc 0b 00
	00		 mov	 DWORD PTR [esi+3036], eax
  008c5	ff d7		 call	 edi

; 168  : 	this->IncreaseHealthEffectSub				= GetPrivateProfileInt(OTHER_SKILL_CM, "IncreaseHealthEffectSub", 600, OTHER_SKILL_DIR); 

  008c7	68 00 00 00 00	 push	 OFFSET ??_C@_0BK@HFEAEJI@?4?4?2Data?2ZtData?2Skills?4ini?$AA@
  008cc	68 58 02 00 00	 push	 600			; 00000258H
  008d1	68 00 00 00 00	 push	 OFFSET ??_C@_0BI@MKPMIJHJ@IncreaseHealthEffectSub?$AA@
  008d6	68 00 00 00 00	 push	 OFFSET ??_C@_05OEGOMMDP@Skill?$AA@
  008db	66 89 86 e0 0b
	00 00		 mov	 WORD PTR [esi+3040], ax
  008e2	ff d7		 call	 edi

; 169  : 
; 170  : 	//this->m_IncreaseHealthEffectDiv				= GetPrivateProfileInt("SkillInfo", "IncreaseHealthEffectDiv", 600, gDirPath.GetNewPath(lpszFileName)); 
; 171  : 	char oszTempEx[256] = { 0 };

  008e4	68 ff 00 00 00	 push	 255			; 000000ffH
  008e9	8d 95 fd fd ff
	ff		 lea	 edx, DWORD PTR _oszTempEx$[ebp+1]
  008ef	6a 00		 push	 0
  008f1	52		 push	 edx
  008f2	66 89 86 e2 0b
	00 00		 mov	 WORD PTR [esi+3042], ax
  008f9	c6 85 fc fd ff
	ff 00		 mov	 BYTE PTR _oszTempEx$[ebp], 0
  00900	e8 00 00 00 00	 call	 _memset
  00905	83 c4 0c	 add	 esp, 12			; 0000000cH

; 172  : 	GetPrivateProfileString(OTHER_SKILL_CM, "DecTimePerAttackSpeed", "10", oszTempEx, 256, OTHER_SKILL_DIR);

  00908	68 00 00 00 00	 push	 OFFSET ??_C@_0BK@HFEAEJI@?4?4?2Data?2ZtData?2Skills?4ini?$AA@
  0090d	68 00 01 00 00	 push	 256			; 00000100H
  00912	8d 85 fc fd ff
	ff		 lea	 eax, DWORD PTR _oszTempEx$[ebp]
  00918	50		 push	 eax
  00919	68 00 00 00 00	 push	 OFFSET ??_C@_02PKFBJPLJ@10?$AA@
  0091e	68 00 00 00 00	 push	 OFFSET ??_C@_0BG@MPJHCBCJ@DecTimePerAttackSpeed?$AA@
  00923	68 00 00 00 00	 push	 OFFSET ??_C@_05OEGOMMDP@Skill?$AA@
  00928	ff d3		 call	 ebx

; 173  : 	this->IncreaseHealthEffectDiv = atof(oszTempEx);

  0092a	8d 8d fc fd ff
	ff		 lea	 ecx, DWORD PTR _oszTempEx$[ebp]
  00930	51		 push	 ecx
  00931	e8 00 00 00 00	 call	 _atof
  00936	d9 9e e4 0b 00
	00		 fstp	 DWORD PTR [esi+3044]
  0093c	83 c4 04	 add	 esp, 4

; 174  : 
; 175  : 	this->IncreaseHealthEffectMax				= GetPrivateProfileInt(OTHER_SKILL_CM, "IncreaseHealthEffectMax", 600, OTHER_SKILL_DIR); 

  0093f	68 00 00 00 00	 push	 OFFSET ??_C@_0BK@HFEAEJI@?4?4?2Data?2ZtData?2Skills?4ini?$AA@
  00944	68 58 02 00 00	 push	 600			; 00000258H
  00949	68 00 00 00 00	 push	 OFFSET ??_C@_0BI@NBDIFIKC@IncreaseHealthEffectMax?$AA@
  0094e	68 00 00 00 00	 push	 OFFSET ??_C@_05OEGOMMDP@Skill?$AA@
  00953	ff d7		 call	 edi

; 176  : 	this->IncreaseHealthTimeStart				= GetPrivateProfileInt(OTHER_SKILL_CM, "IncreaseHealthTimeStart", 600, OTHER_SKILL_DIR); 

  00955	68 00 00 00 00	 push	 OFFSET ??_C@_0BK@HFEAEJI@?4?4?2Data?2ZtData?2Skills?4ini?$AA@
  0095a	68 58 02 00 00	 push	 600			; 00000258H
  0095f	68 00 00 00 00	 push	 OFFSET ??_C@_0BI@MHMMCEPN@IncreaseHealthTimeStart?$AA@
  00964	68 00 00 00 00	 push	 OFFSET ??_C@_05OEGOMMDP@Skill?$AA@
  00969	89 86 e8 0b 00
	00		 mov	 DWORD PTR [esi+3048], eax
  0096f	ff d7		 call	 edi

; 177  : 	this->IncreaseHealthTimeDiv				= GetPrivateProfileInt(OTHER_SKILL_CM, "IncreaseHealthTimeDiv", 600, OTHER_SKILL_DIR); 

  00971	68 00 00 00 00	 push	 OFFSET ??_C@_0BK@HFEAEJI@?4?4?2Data?2ZtData?2Skills?4ini?$AA@
  00976	68 58 02 00 00	 push	 600			; 00000258H
  0097b	68 00 00 00 00	 push	 OFFSET ??_C@_0BG@OPFEMLKC@IncreaseHealthTimeDiv?$AA@
  00980	68 00 00 00 00	 push	 OFFSET ??_C@_05OEGOMMDP@Skill?$AA@
  00985	66 89 86 ec 0b
	00 00		 mov	 WORD PTR [esi+3052], ax
  0098c	ff d7		 call	 edi

; 178  : 	this->IncreaseHealthTimeMax				= GetPrivateProfileInt(OTHER_SKILL_CM, "IncreaseHealthTimeMax", 600, OTHER_SKILL_DIR); 

  0098e	68 00 00 00 00	 push	 OFFSET ??_C@_0BK@HFEAEJI@?4?4?2Data?2ZtData?2Skills?4ini?$AA@
  00993	68 58 02 00 00	 push	 600			; 00000258H
  00998	68 00 00 00 00	 push	 OFFSET ??_C@_0BG@CMMPIBO@IncreaseHealthTimeMax?$AA@
  0099d	68 00 00 00 00	 push	 OFFSET ??_C@_05OEGOMMDP@Skill?$AA@
  009a2	66 89 86 ee 0b
	00 00		 mov	 WORD PTR [esi+3054], ax
  009a9	ff d7		 call	 edi

; 179  : 	this->IncreaseBlockEffectStart			= GetPrivateProfileInt(OTHER_SKILL_CM, "IncreaseBlockEffectStart", 600, OTHER_SKILL_DIR); 

  009ab	68 00 00 00 00	 push	 OFFSET ??_C@_0BK@HFEAEJI@?4?4?2Data?2ZtData?2Skills?4ini?$AA@
  009b0	68 58 02 00 00	 push	 600			; 00000258H
  009b5	68 00 00 00 00	 push	 OFFSET ??_C@_0BJ@MLOJIGOI@IncreaseBlockEffectStart?$AA@
  009ba	68 00 00 00 00	 push	 OFFSET ??_C@_05OEGOMMDP@Skill?$AA@
  009bf	89 86 f0 0b 00
	00		 mov	 DWORD PTR [esi+3056], eax
  009c5	ff d7		 call	 edi

; 180  : 	this->IncreaseBlockEffectSub				= GetPrivateProfileInt(OTHER_SKILL_CM, "IncreaseBlockEffectSub", 600, OTHER_SKILL_DIR); 

  009c7	68 00 00 00 00	 push	 OFFSET ??_C@_0BK@HFEAEJI@?4?4?2Data?2ZtData?2Skills?4ini?$AA@
  009cc	68 58 02 00 00	 push	 600			; 00000258H
  009d1	68 00 00 00 00	 push	 OFFSET ??_C@_0BH@KJNKHPEI@IncreaseBlockEffectSub?$AA@
  009d6	68 00 00 00 00	 push	 OFFSET ??_C@_05OEGOMMDP@Skill?$AA@
  009db	66 89 86 f4 0b
	00 00		 mov	 WORD PTR [esi+3060], ax
  009e2	ff d7		 call	 edi

; 181  : 	this->IncreaseBlockEffectDiv				= GetPrivateProfileInt(OTHER_SKILL_CM, "IncreaseBlockEffectDiv", 600, OTHER_SKILL_DIR); 

  009e4	68 00 00 00 00	 push	 OFFSET ??_C@_0BK@HFEAEJI@?4?4?2Data?2ZtData?2Skills?4ini?$AA@
  009e9	68 58 02 00 00	 push	 600			; 00000258H
  009ee	68 00 00 00 00	 push	 OFFSET ??_C@_0BH@FPIGJNCP@IncreaseBlockEffectDiv?$AA@
  009f3	68 00 00 00 00	 push	 OFFSET ??_C@_05OEGOMMDP@Skill?$AA@
  009f8	66 89 86 f6 0b
	00 00		 mov	 WORD PTR [esi+3062], ax
  009ff	ff d7		 call	 edi

; 182  : 	this->IncreaseBlockEffectMax				= GetPrivateProfileInt(OTHER_SKILL_CM, "IncreaseBlockEffectMax", 600, OTHER_SKILL_DIR); 

  00a01	68 00 00 00 00	 push	 OFFSET ??_C@_0BK@HFEAEJI@?4?4?2Data?2ZtData?2Skills?4ini?$AA@
  00a06	68 58 02 00 00	 push	 600			; 00000258H
  00a0b	68 00 00 00 00	 push	 OFFSET ??_C@_0BH@LCBOKOJD@IncreaseBlockEffectMax?$AA@
  00a10	68 00 00 00 00	 push	 OFFSET ??_C@_05OEGOMMDP@Skill?$AA@
  00a15	66 89 86 f8 0b
	00 00		 mov	 WORD PTR [esi+3064], ax
  00a1c	ff d7		 call	 edi

; 183  : 	this->IncreaseBlockTimeStart				= GetPrivateProfileInt(OTHER_SKILL_CM, "IncreaseBlockTimeStart", 600, OTHER_SKILL_DIR); 

  00a1e	68 00 00 00 00	 push	 OFFSET ??_C@_0BK@HFEAEJI@?4?4?2Data?2ZtData?2Skills?4ini?$AA@
  00a23	68 58 02 00 00	 push	 600			; 00000258H
  00a28	68 00 00 00 00	 push	 OFFSET ??_C@_0BH@KEOKNCMM@IncreaseBlockTimeStart?$AA@
  00a2d	68 00 00 00 00	 push	 OFFSET ??_C@_05OEGOMMDP@Skill?$AA@
  00a32	89 86 fc 0b 00
	00		 mov	 DWORD PTR [esi+3068], eax
  00a38	ff d7		 call	 edi

; 184  : 	this->IncreaseBlockTimeDiv				= GetPrivateProfileInt(OTHER_SKILL_CM, "IncreaseBlockTimeDiv", 600, OTHER_SKILL_DIR); 

  00a3a	68 00 00 00 00	 push	 OFFSET ??_C@_0BK@HFEAEJI@?4?4?2Data?2ZtData?2Skills?4ini?$AA@
  00a3f	68 58 02 00 00	 push	 600			; 00000258H
  00a44	68 00 00 00 00	 push	 OFFSET ??_C@_0BF@BKDJGFNH@IncreaseBlockTimeDiv?$AA@
  00a49	68 00 00 00 00	 push	 OFFSET ??_C@_05OEGOMMDP@Skill?$AA@
  00a4e	66 89 86 00 0c
	00 00		 mov	 WORD PTR [esi+3072], ax
  00a55	ff d7		 call	 edi

; 185  : 	this->IncreaseBlockTimeMax				= GetPrivateProfileInt(OTHER_SKILL_CM, "IncreaseBlockTimeMax", 600, OTHER_SKILL_DIR); 

  00a57	68 00 00 00 00	 push	 OFFSET ??_C@_0BK@HFEAEJI@?4?4?2Data?2ZtData?2Skills?4ini?$AA@
  00a5c	68 58 02 00 00	 push	 600			; 00000258H
  00a61	68 00 00 00 00	 push	 OFFSET ??_C@_0BF@PHKBFGGL@IncreaseBlockTimeMax?$AA@
  00a66	68 00 00 00 00	 push	 OFFSET ??_C@_05OEGOMMDP@Skill?$AA@
  00a6b	66 89 86 02 0c
	00 00		 mov	 WORD PTR [esi+3074], ax
  00a72	ff d7		 call	 edi

; 186  : 	// ----
; 187  : 	this->WeaknessEffectStartVsMob			= GetPrivateProfileInt(OTHER_SKILL_CM, "WeaknessEffectStartVsMob", 4, OTHER_SKILL_DIR);

  00a74	68 00 00 00 00	 push	 OFFSET ??_C@_0BK@HFEAEJI@?4?4?2Data?2ZtData?2Skills?4ini?$AA@
  00a79	6a 04		 push	 4
  00a7b	68 00 00 00 00	 push	 OFFSET ??_C@_0BJ@JMADKNGD@WeaknessEffectStartVsMob?$AA@
  00a80	68 00 00 00 00	 push	 OFFSET ??_C@_05OEGOMMDP@Skill?$AA@
  00a85	89 86 04 0c 00
	00		 mov	 DWORD PTR [esi+3076], eax
  00a8b	ff d7		 call	 edi

; 188  : 	this->WeaknessEffectDivVsMob				= GetPrivateProfileInt(OTHER_SKILL_CM, "WeaknessEffectDivVsMob", 58, OTHER_SKILL_DIR);

  00a8d	68 00 00 00 00	 push	 OFFSET ??_C@_0BK@HFEAEJI@?4?4?2Data?2ZtData?2Skills?4ini?$AA@
  00a92	6a 3a		 push	 58			; 0000003aH
  00a94	68 00 00 00 00	 push	 OFFSET ??_C@_0BH@FFCKBPPA@WeaknessEffectDivVsMob?$AA@
  00a99	68 00 00 00 00	 push	 OFFSET ??_C@_05OEGOMMDP@Skill?$AA@
  00a9e	66 89 86 08 0c
	00 00		 mov	 WORD PTR [esi+3080], ax
  00aa5	ff d7		 call	 edi

; 189  : 	this->WeaknessEffectMaxVsMob				= GetPrivateProfileInt(OTHER_SKILL_CM, "WeaknessEffectMaxVsMob", 0, OTHER_SKILL_DIR);

  00aa7	68 00 00 00 00	 push	 OFFSET ??_C@_0BK@HFEAEJI@?4?4?2Data?2ZtData?2Skills?4ini?$AA@
  00aac	6a 00		 push	 0
  00aae	66 89 86 0a 0c
	00 00		 mov	 WORD PTR [esi+3082], ax
  00ab5	68 00 00 00 00	 push	 OFFSET ??_C@_0BH@HKFDMJED@WeaknessEffectMaxVsMob?$AA@
  00aba	68 00 00 00 00	 push	 OFFSET ??_C@_05OEGOMMDP@Skill?$AA@
  00abf	ff d7		 call	 edi

; 190  : 
; 191  : 	this->WeaknessTimeStartVsMob				= GetPrivateProfileInt(OTHER_SKILL_CM, "WeaknessTimeStartVsMob", 4, OTHER_SKILL_DIR);

  00ac1	68 00 00 00 00	 push	 OFFSET ??_C@_0BK@HFEAEJI@?4?4?2Data?2ZtData?2Skills?4ini?$AA@
  00ac6	6a 04		 push	 4
  00ac8	68 00 00 00 00	 push	 OFFSET ??_C@_0BH@EPKMOAKG@WeaknessTimeStartVsMob?$AA@
  00acd	68 00 00 00 00	 push	 OFFSET ??_C@_05OEGOMMDP@Skill?$AA@
  00ad2	66 89 86 0c 0c
	00 00		 mov	 WORD PTR [esi+3084], ax
  00ad9	ff d7		 call	 edi

; 192  : 	this->WeaknessTimeDivVsMob				= GetPrivateProfileInt(OTHER_SKILL_CM, "WeaknessTimeDivVsMob", 100, OTHER_SKILL_DIR);

  00adb	68 00 00 00 00	 push	 OFFSET ??_C@_0BK@HFEAEJI@?4?4?2Data?2ZtData?2Skills?4ini?$AA@
  00ae0	6a 64		 push	 100			; 00000064H
  00ae2	68 00 00 00 00	 push	 OFFSET ??_C@_0BF@DAKMNMPJ@WeaknessTimeDivVsMob?$AA@
  00ae7	68 00 00 00 00	 push	 OFFSET ??_C@_05OEGOMMDP@Skill?$AA@
  00aec	66 89 86 0e 0c
	00 00		 mov	 WORD PTR [esi+3086], ax
  00af3	ff d7		 call	 edi

; 193  : 	this->WeaknessTimeMaxVsMob				= GetPrivateProfileInt(OTHER_SKILL_CM, "WeaknessTimeMaxVsMob", 0, OTHER_SKILL_DIR);

  00af5	68 00 00 00 00	 push	 OFFSET ??_C@_0BK@HFEAEJI@?4?4?2Data?2ZtData?2Skills?4ini?$AA@
  00afa	6a 00		 push	 0
  00afc	68 00 00 00 00	 push	 OFFSET ??_C@_0BF@BPNFAKEK@WeaknessTimeMaxVsMob?$AA@
  00b01	68 00 00 00 00	 push	 OFFSET ??_C@_05OEGOMMDP@Skill?$AA@
  00b06	66 89 86 10 0c
	00 00		 mov	 WORD PTR [esi+3088], ax
  00b0d	ff d7		 call	 edi

; 194  : 
; 195  : 	this->WeaknessEffectStartVsUser			= GetPrivateProfileInt(OTHER_SKILL_CM, "WeaknessEffectStartVsUser", 3, OTHER_SKILL_DIR);

  00b0f	68 00 00 00 00	 push	 OFFSET ??_C@_0BK@HFEAEJI@?4?4?2Data?2ZtData?2Skills?4ini?$AA@
  00b14	6a 03		 push	 3
  00b16	68 00 00 00 00	 push	 OFFSET ??_C@_0BK@IGDOAKNK@WeaknessEffectStartVsUser?$AA@
  00b1b	68 00 00 00 00	 push	 OFFSET ??_C@_05OEGOMMDP@Skill?$AA@
  00b20	66 89 86 12 0c
	00 00		 mov	 WORD PTR [esi+3090], ax
  00b27	ff d7		 call	 edi

; 196  : 	this->WeaknessEffectDivVsUser				= GetPrivateProfileInt(OTHER_SKILL_CM, "WeaknessEffectDivVsUser", 93, OTHER_SKILL_DIR);

  00b29	68 00 00 00 00	 push	 OFFSET ??_C@_0BK@HFEAEJI@?4?4?2Data?2ZtData?2Skills?4ini?$AA@
  00b2e	6a 5d		 push	 93			; 0000005dH
  00b30	68 00 00 00 00	 push	 OFFSET ??_C@_0BI@OPPBOBJG@WeaknessEffectDivVsUser?$AA@
  00b35	68 00 00 00 00	 push	 OFFSET ??_C@_05OEGOMMDP@Skill?$AA@
  00b3a	66 89 86 14 0c
	00 00		 mov	 WORD PTR [esi+3092], ax
  00b41	ff d7		 call	 edi

; 197  : 	this->WeaknessEffectMaxVsUser				= GetPrivateProfileInt(OTHER_SKILL_CM, "WeaknessEffectMaxVsUser", 72, OTHER_SKILL_DIR);

  00b43	68 00 00 00 00	 push	 OFFSET ??_C@_0BK@HFEAEJI@?4?4?2Data?2ZtData?2Skills?4ini?$AA@
  00b48	6a 48		 push	 72			; 00000048H
  00b4a	68 00 00 00 00	 push	 OFFSET ??_C@_0BI@LNLGHKHG@WeaknessEffectMaxVsUser?$AA@
  00b4f	68 00 00 00 00	 push	 OFFSET ??_C@_05OEGOMMDP@Skill?$AA@
  00b54	66 89 86 16 0c
	00 00		 mov	 WORD PTR [esi+3094], ax
  00b5b	ff d7		 call	 edi

; 198  : 
; 199  : 	this->WeaknessTimeStartVsUser				= GetPrivateProfileInt(OTHER_SKILL_CM, "WeaknessTimeStartVsUser", 5, OTHER_SKILL_DIR);

  00b5d	68 00 00 00 00	 push	 OFFSET ??_C@_0BK@HFEAEJI@?4?4?2Data?2ZtData?2Skills?4ini?$AA@
  00b62	6a 05		 push	 5
  00b64	68 00 00 00 00	 push	 OFFSET ??_C@_0BI@GNODJDKI@WeaknessTimeStartVsUser?$AA@
  00b69	68 00 00 00 00	 push	 OFFSET ??_C@_05OEGOMMDP@Skill?$AA@
  00b6e	66 89 86 18 0c
	00 00		 mov	 WORD PTR [esi+3096], ax
  00b75	ff d7		 call	 edi

; 200  : 	this->WeaknessTimeDivVsUser				= GetPrivateProfileInt(OTHER_SKILL_CM, "WeaknessTimeDivVsUser", 300, OTHER_SKILL_DIR);

  00b77	68 00 00 00 00	 push	 OFFSET ??_C@_0BK@HFEAEJI@?4?4?2Data?2ZtData?2Skills?4ini?$AA@
  00b7c	68 2c 01 00 00	 push	 300			; 0000012cH
  00b81	68 00 00 00 00	 push	 OFFSET ??_C@_0BG@JGEINPPB@WeaknessTimeDivVsUser?$AA@
  00b86	68 00 00 00 00	 push	 OFFSET ??_C@_05OEGOMMDP@Skill?$AA@
  00b8b	66 89 86 1a 0c
	00 00		 mov	 WORD PTR [esi+3098], ax
  00b92	ff d7		 call	 edi

; 201  : 	this->WeaknessTimeMaxVsUser				= GetPrivateProfileInt(OTHER_SKILL_CM, "WeaknessTimeMaxVsUser", 0, OTHER_SKILL_DIR);

  00b94	68 00 00 00 00	 push	 OFFSET ??_C@_0BK@HFEAEJI@?4?4?2Data?2ZtData?2Skills?4ini?$AA@
  00b99	6a 00		 push	 0
  00b9b	68 00 00 00 00	 push	 OFFSET ??_C@_0BG@MEAPEEBB@WeaknessTimeMaxVsUser?$AA@
  00ba0	68 00 00 00 00	 push	 OFFSET ??_C@_05OEGOMMDP@Skill?$AA@
  00ba5	66 89 86 1c 0c
	00 00		 mov	 WORD PTR [esi+3100], ax
  00bac	ff d7		 call	 edi

; 202  : 	this->WeaknessMaxPower				= GetPrivateProfileInt(OTHER_SKILL_CM, "WeaknessMaxPower", 0, OTHER_SKILL_DIR);

  00bae	68 00 00 00 00	 push	 OFFSET ??_C@_0BK@HFEAEJI@?4?4?2Data?2ZtData?2Skills?4ini?$AA@
  00bb3	6a 00		 push	 0
  00bb5	68 00 00 00 00	 push	 OFFSET ??_C@_0BB@EHPNILIJ@WeaknessMaxPower?$AA@
  00bba	68 00 00 00 00	 push	 OFFSET ??_C@_05OEGOMMDP@Skill?$AA@
  00bbf	66 89 86 1e 0c
	00 00		 mov	 WORD PTR [esi+3102], ax
  00bc6	ff d7		 call	 edi

; 203  : 	// ----
; 204  : 	this->InnovationEffectStartVsMob			= GetPrivateProfileInt(OTHER_SKILL_CM, "InnovationEffectStartVsMob", 20, OTHER_SKILL_DIR);

  00bc8	68 00 00 00 00	 push	 OFFSET ??_C@_0BK@HFEAEJI@?4?4?2Data?2ZtData?2Skills?4ini?$AA@
  00bcd	6a 14		 push	 20			; 00000014H
  00bcf	68 00 00 00 00	 push	 OFFSET ??_C@_0BL@LNNDEEFE@InnovationEffectStartVsMob?$AA@
  00bd4	68 00 00 00 00	 push	 OFFSET ??_C@_05OEGOMMDP@Skill?$AA@
  00bd9	66 89 86 20 0c
	00 00		 mov	 WORD PTR [esi+3104], ax
  00be0	ff d7		 call	 edi

; 205  : 	this->InnovationEffectDivVsMob			= GetPrivateProfileInt(OTHER_SKILL_CM, "InnovationEffectDivVsMob", 90, OTHER_SKILL_DIR);

  00be2	68 00 00 00 00	 push	 OFFSET ??_C@_0BK@HFEAEJI@?4?4?2Data?2ZtData?2Skills?4ini?$AA@
  00be7	6a 5a		 push	 90			; 0000005aH
  00be9	68 00 00 00 00	 push	 OFFSET ??_C@_0BJ@CDAAOLOJ@InnovationEffectDivVsMob?$AA@
  00bee	68 00 00 00 00	 push	 OFFSET ??_C@_05OEGOMMDP@Skill?$AA@
  00bf3	66 89 86 22 0c
	00 00		 mov	 WORD PTR [esi+3106], ax
  00bfa	ff d7		 call	 edi

; 206  : 	this->InnovationEffectMaxVsMob			= GetPrivateProfileInt(OTHER_SKILL_CM, "InnovationEffectMaxVsMob", 0, OTHER_SKILL_DIR);

  00bfc	68 00 00 00 00	 push	 OFFSET ??_C@_0BK@HFEAEJI@?4?4?2Data?2ZtData?2Skills?4ini?$AA@
  00c01	6a 00		 push	 0
  00c03	68 00 00 00 00	 push	 OFFSET ??_C@_0BJ@MHJDNFK@InnovationEffectMaxVsMob?$AA@
  00c08	68 00 00 00 00	 push	 OFFSET ??_C@_05OEGOMMDP@Skill?$AA@
  00c0d	66 89 86 24 0c
	00 00		 mov	 WORD PTR [esi+3108], ax
  00c14	ff d7		 call	 edi
  00c16	66 89 86 26 0c
	00 00		 mov	 WORD PTR [esi+3110], ax

; 207  : 
; 208  : 	this->InnovationTimeStartVsMob			= GetPrivateProfileInt(OTHER_SKILL_CM, "InnovationTimeStartVsMob", 4, OTHER_SKILL_DIR);

  00c1d	68 00 00 00 00	 push	 OFFSET ??_C@_0BK@HFEAEJI@?4?4?2Data?2ZtData?2Skills?4ini?$AA@
  00c22	6a 04		 push	 4
  00c24	68 00 00 00 00	 push	 OFFSET ??_C@_0BJ@DJIGBELP@InnovationTimeStartVsMob?$AA@
  00c29	68 00 00 00 00	 push	 OFFSET ??_C@_05OEGOMMDP@Skill?$AA@
  00c2e	ff d7		 call	 edi

; 209  : 	this->InnovationTimeDivVsMob				= GetPrivateProfileInt(OTHER_SKILL_CM, "InnovationTimeDivVsMob", 100, OTHER_SKILL_DIR);

  00c30	68 00 00 00 00	 push	 OFFSET ??_C@_0BK@HFEAEJI@?4?4?2Data?2ZtData?2Skills?4ini?$AA@
  00c35	6a 64		 push	 100			; 00000064H
  00c37	68 00 00 00 00	 push	 OFFSET ??_C@_0BH@DMADMHCM@InnovationTimeDivVsMob?$AA@
  00c3c	68 00 00 00 00	 push	 OFFSET ??_C@_05OEGOMMDP@Skill?$AA@
  00c41	66 89 86 28 0c
	00 00		 mov	 WORD PTR [esi+3112], ax
  00c48	ff d7		 call	 edi

; 210  : 	this->InnovationTimeMaxVsMob				= GetPrivateProfileInt(OTHER_SKILL_CM, "InnovationTimeMaxVsMob", 0, OTHER_SKILL_DIR);

  00c4a	68 00 00 00 00	 push	 OFFSET ??_C@_0BK@HFEAEJI@?4?4?2Data?2ZtData?2Skills?4ini?$AA@
  00c4f	6a 00		 push	 0
  00c51	68 00 00 00 00	 push	 OFFSET ??_C@_0BH@BDHKBBJP@InnovationTimeMaxVsMob?$AA@
  00c56	68 00 00 00 00	 push	 OFFSET ??_C@_05OEGOMMDP@Skill?$AA@
  00c5b	66 89 86 2a 0c
	00 00		 mov	 WORD PTR [esi+3114], ax
  00c62	ff d7		 call	 edi

; 211  : 
; 212  : 	this->InnovationEffectStartVsUser			= GetPrivateProfileInt(OTHER_SKILL_CM, "InnovationEffectStartVsUser", 12, OTHER_SKILL_DIR);

  00c64	68 00 00 00 00	 push	 OFFSET ??_C@_0BK@HFEAEJI@?4?4?2Data?2ZtData?2Skills?4ini?$AA@
  00c69	6a 0c		 push	 12			; 0000000cH
  00c6b	68 00 00 00 00	 push	 OFFSET ??_C@_0BM@DOKCHPDM@InnovationEffectStartVsUser?$AA@
  00c70	68 00 00 00 00	 push	 OFFSET ??_C@_05OEGOMMDP@Skill?$AA@
  00c75	66 89 86 2c 0c
	00 00		 mov	 WORD PTR [esi+3116], ax
  00c7c	ff d7		 call	 edi

; 213  : 	this->InnovationEffectDivVsUser			= GetPrivateProfileInt(OTHER_SKILL_CM, "InnovationEffectDivVsUser", 110, OTHER_SKILL_DIR);

  00c7e	68 00 00 00 00	 push	 OFFSET ??_C@_0BK@HFEAEJI@?4?4?2Data?2ZtData?2Skills?4ini?$AA@
  00c83	6a 6e		 push	 110			; 0000006eH
  00c85	68 00 00 00 00	 push	 OFFSET ??_C@_0BK@ILOMGDKC@InnovationEffectDivVsUser?$AA@
  00c8a	68 00 00 00 00	 push	 OFFSET ??_C@_05OEGOMMDP@Skill?$AA@
  00c8f	66 89 86 2e 0c
	00 00		 mov	 WORD PTR [esi+3118], ax
  00c96	ff d7		 call	 edi

; 214  : 	this->InnovationEffectMaxVsUser			= GetPrivateProfileInt(OTHER_SKILL_CM, "InnovationEffectMaxVsUser", 0, OTHER_SKILL_DIR);

  00c98	68 00 00 00 00	 push	 OFFSET ??_C@_0BK@HFEAEJI@?4?4?2Data?2ZtData?2Skills?4ini?$AA@
  00c9d	6a 00		 push	 0
  00c9f	68 00 00 00 00	 push	 OFFSET ??_C@_0BK@NJKLPIEC@InnovationEffectMaxVsUser?$AA@
  00ca4	68 00 00 00 00	 push	 OFFSET ??_C@_05OEGOMMDP@Skill?$AA@
  00ca9	66 89 86 30 0c
	00 00		 mov	 WORD PTR [esi+3120], ax
  00cb0	ff d7		 call	 edi

; 215  : 
; 216  : 	this->InnovationTimeStartVsUser			= GetPrivateProfileInt(OTHER_SKILL_CM, "InnovationTimeStartVsUser", 5, OTHER_SKILL_DIR);

  00cb2	68 00 00 00 00	 push	 OFFSET ??_C@_0BK@HFEAEJI@?4?4?2Data?2ZtData?2Skills?4ini?$AA@
  00cb7	6a 05		 push	 5
  00cb9	68 00 00 00 00	 push	 OFFSET ??_C@_0BK@JPOBBJM@InnovationTimeStartVsUser?$AA@
  00cbe	68 00 00 00 00	 push	 OFFSET ??_C@_05OEGOMMDP@Skill?$AA@
  00cc3	66 89 86 32 0c
	00 00		 mov	 WORD PTR [esi+3122], ax
  00cca	ff d7		 call	 edi

; 217  : 	this->InnovationTimeDivVsUser				= GetPrivateProfileInt(OTHER_SKILL_CM, "InnovationTimeDivVsUser", 300, OTHER_SKILL_DIR);

  00ccc	68 00 00 00 00	 push	 OFFSET ??_C@_0BK@HFEAEJI@?4?4?2Data?2ZtData?2Skills?4ini?$AA@
  00cd1	68 2c 01 00 00	 push	 300			; 0000012cH
  00cd6	68 00 00 00 00	 push	 OFFSET ??_C@_0BI@GAPNFGLB@InnovationTimeDivVsUser?$AA@
  00cdb	68 00 00 00 00	 push	 OFFSET ??_C@_05OEGOMMDP@Skill?$AA@
  00ce0	66 89 86 34 0c
	00 00		 mov	 WORD PTR [esi+3124], ax
  00ce7	ff d7		 call	 edi

; 218  : 	this->InnovationTimeMaxVsUser				= GetPrivateProfileInt(OTHER_SKILL_CM, "InnovationTimeMaxVsUser", 0, OTHER_SKILL_DIR);	

  00ce9	68 00 00 00 00	 push	 OFFSET ??_C@_0BK@HFEAEJI@?4?4?2Data?2ZtData?2Skills?4ini?$AA@
  00cee	6a 00		 push	 0
  00cf0	68 00 00 00 00	 push	 OFFSET ??_C@_0BI@DCLKMNFB@InnovationTimeMaxVsUser?$AA@
  00cf5	68 00 00 00 00	 push	 OFFSET ??_C@_05OEGOMMDP@Skill?$AA@
  00cfa	66 89 86 36 0c
	00 00		 mov	 WORD PTR [esi+3126], ax
  00d01	ff d7		 call	 edi

; 219  : 	this->InnovationMaxPower				= GetPrivateProfileInt(OTHER_SKILL_CM, "InnovationMaxPower", 0, OTHER_SKILL_DIR);	

  00d03	68 00 00 00 00	 push	 OFFSET ??_C@_0BK@HFEAEJI@?4?4?2Data?2ZtData?2Skills?4ini?$AA@
  00d08	6a 00		 push	 0
  00d0a	68 00 00 00 00	 push	 OFFSET ??_C@_0BD@GFPKBGOG@InnovationMaxPower?$AA@
  00d0f	68 00 00 00 00	 push	 OFFSET ??_C@_05OEGOMMDP@Skill?$AA@
  00d14	66 89 86 38 0c
	00 00		 mov	 WORD PTR [esi+3128], ax
  00d1b	ff d7		 call	 edi

; 220  : 	// ----
; 221  : 
; 222  : 	this->SleepRateStartVsMob					= GetPrivateProfileInt(OTHER_SKILL_CM, "SleepRateStartVsMob", 20, OTHER_SKILL_DIR);

  00d1d	68 00 00 00 00	 push	 OFFSET ??_C@_0BK@HFEAEJI@?4?4?2Data?2ZtData?2Skills?4ini?$AA@
  00d22	6a 14		 push	 20			; 00000014H
  00d24	68 00 00 00 00	 push	 OFFSET ??_C@_0BE@BNLKCCNC@SleepRateStartVsMob?$AA@
  00d29	68 00 00 00 00	 push	 OFFSET ??_C@_05OEGOMMDP@Skill?$AA@
  00d2e	66 89 86 3a 0c
	00 00		 mov	 WORD PTR [esi+3130], ax
  00d35	ff d7		 call	 edi

; 223  : 	this->SleepRateDivVsMob					= GetPrivateProfileInt(OTHER_SKILL_CM, "SleepRateDivVsMob", 30, OTHER_SKILL_DIR);

  00d37	68 00 00 00 00	 push	 OFFSET ??_C@_0BK@HFEAEJI@?4?4?2Data?2ZtData?2Skills?4ini?$AA@
  00d3c	6a 1e		 push	 30			; 0000001eH
  00d3e	68 00 00 00 00	 push	 OFFSET ??_C@_0BC@KBJCNCPE@SleepRateDivVsMob?$AA@
  00d43	68 00 00 00 00	 push	 OFFSET ??_C@_05OEGOMMDP@Skill?$AA@
  00d48	66 89 86 3c 0c
	00 00		 mov	 WORD PTR [esi+3132], ax
  00d4f	ff d7		 call	 edi

; 224  : 	this->SleepRateMaxVsMob					= GetPrivateProfileInt(OTHER_SKILL_CM, "SleepRateMaxVsMob", 0, OTHER_SKILL_DIR);

  00d51	68 00 00 00 00	 push	 OFFSET ??_C@_0BK@HFEAEJI@?4?4?2Data?2ZtData?2Skills?4ini?$AA@
  00d56	6a 00		 push	 0
  00d58	68 00 00 00 00	 push	 OFFSET ??_C@_0BC@IOOLAEEH@SleepRateMaxVsMob?$AA@
  00d5d	68 00 00 00 00	 push	 OFFSET ??_C@_05OEGOMMDP@Skill?$AA@
  00d62	66 89 86 3e 0c
	00 00		 mov	 WORD PTR [esi+3134], ax
  00d69	ff d7		 call	 edi

; 225  : 
; 226  : 	this->SleepRateStartVsUser				= GetPrivateProfileInt(OTHER_SKILL_CM, "SleepRateStartVsUser", 15, OTHER_SKILL_DIR);

  00d6b	68 00 00 00 00	 push	 OFFSET ??_C@_0BK@HFEAEJI@?4?4?2Data?2ZtData?2Skills?4ini?$AA@
  00d70	6a 0f		 push	 15			; 0000000fH
  00d72	66 89 86 40 0c
	00 00		 mov	 WORD PTR [esi+3136], ax
  00d79	68 00 00 00 00	 push	 OFFSET ??_C@_0BF@DKNJDAEP@SleepRateStartVsUser?$AA@
  00d7e	68 00 00 00 00	 push	 OFFSET ??_C@_05OEGOMMDP@Skill?$AA@
  00d83	ff d7		 call	 edi

; 227  : 	this->SleepRateDivVsUser					= GetPrivateProfileInt(OTHER_SKILL_CM, "SleepRateDivVsUser", 37, OTHER_SKILL_DIR);

  00d85	68 00 00 00 00	 push	 OFFSET ??_C@_0BK@HFEAEJI@?4?4?2Data?2ZtData?2Skills?4ini?$AA@
  00d8a	6a 25		 push	 37			; 00000025H
  00d8c	68 00 00 00 00	 push	 OFFSET ??_C@_0BD@OIGIJNEC@SleepRateDivVsUser?$AA@
  00d91	68 00 00 00 00	 push	 OFFSET ??_C@_05OEGOMMDP@Skill?$AA@
  00d96	66 89 86 48 0c
	00 00		 mov	 WORD PTR [esi+3144], ax
  00d9d	ff d7		 call	 edi

; 228  : 	this->SleepRateMaxVsUser					= GetPrivateProfileInt(OTHER_SKILL_CM, "SleepRateMaxVsUser", 0, OTHER_SKILL_DIR);

  00d9f	68 00 00 00 00	 push	 OFFSET ??_C@_0BK@HFEAEJI@?4?4?2Data?2ZtData?2Skills?4ini?$AA@
  00da4	6a 00		 push	 0
  00da6	68 00 00 00 00	 push	 OFFSET ??_C@_0BD@LKCPAGKC@SleepRateMaxVsUser?$AA@
  00dab	68 00 00 00 00	 push	 OFFSET ??_C@_05OEGOMMDP@Skill?$AA@
  00db0	66 89 86 4a 0c
	00 00		 mov	 WORD PTR [esi+3146], ax
  00db7	ff d7		 call	 edi

; 229  : 
; 230  : 	this->SleepTimeStartVsMob					= GetPrivateProfileInt(OTHER_SKILL_CM, "SleepTimeStartVsMob", 5, OTHER_SKILL_DIR);

  00db9	68 00 00 00 00	 push	 OFFSET ??_C@_0BK@HFEAEJI@?4?4?2Data?2ZtData?2Skills?4ini?$AA@
  00dbe	6a 05		 push	 5
  00dc0	68 00 00 00 00	 push	 OFFSET ??_C@_0BE@DPILEECE@SleepTimeStartVsMob?$AA@
  00dc5	68 00 00 00 00	 push	 OFFSET ??_C@_05OEGOMMDP@Skill?$AA@
  00dca	66 89 86 4c 0c
	00 00		 mov	 WORD PTR [esi+3148], ax
  00dd1	ff d7		 call	 edi

; 231  : 	this->SleepTimeDivVsMob					= GetPrivateProfileInt(OTHER_SKILL_CM, "SleepTimeDivVsMob", 100, OTHER_SKILL_DIR);

  00dd3	68 00 00 00 00	 push	 OFFSET ??_C@_0BK@HFEAEJI@?4?4?2Data?2ZtData?2Skills?4ini?$AA@
  00dd8	6a 64		 push	 100			; 00000064H
  00dda	68 00 00 00 00	 push	 OFFSET ??_C@_0BC@NCMAIBJJ@SleepTimeDivVsMob?$AA@
  00ddf	68 00 00 00 00	 push	 OFFSET ??_C@_05OEGOMMDP@Skill?$AA@
  00de4	66 89 86 42 0c
	00 00		 mov	 WORD PTR [esi+3138], ax
  00deb	ff d7		 call	 edi

; 232  : 	this->SleepTimeMaxVsMob					= GetPrivateProfileInt(OTHER_SKILL_CM, "SleepTimeMaxVsMob", 0, OTHER_SKILL_DIR);

  00ded	68 00 00 00 00	 push	 OFFSET ??_C@_0BK@HFEAEJI@?4?4?2Data?2ZtData?2Skills?4ini?$AA@
  00df2	6a 00		 push	 0
  00df4	68 00 00 00 00	 push	 OFFSET ??_C@_0BC@PNLJFHCK@SleepTimeMaxVsMob?$AA@
  00df9	68 00 00 00 00	 push	 OFFSET ??_C@_05OEGOMMDP@Skill?$AA@
  00dfe	66 89 86 44 0c
	00 00		 mov	 WORD PTR [esi+3140], ax
  00e05	ff d7		 call	 edi

; 233  : 
; 234  : 	this->SleepTimeStartVsUser				= GetPrivateProfileInt(OTHER_SKILL_CM, "SleepTimeStartVsUser", 4, OTHER_SKILL_DIR);

  00e07	68 00 00 00 00	 push	 OFFSET ??_C@_0BK@HFEAEJI@?4?4?2Data?2ZtData?2Skills?4ini?$AA@
  00e0c	6a 04		 push	 4
  00e0e	68 00 00 00 00	 push	 OFFSET ??_C@_0BF@GOCFFGAA@SleepTimeStartVsUser?$AA@
  00e13	68 00 00 00 00	 push	 OFFSET ??_C@_05OEGOMMDP@Skill?$AA@
  00e18	66 89 86 46 0c
	00 00		 mov	 WORD PTR [esi+3142], ax
  00e1f	ff d7		 call	 edi

; 235  : 	this->SleepTimeDivVsUser					= GetPrivateProfileInt(OTHER_SKILL_CM, "SleepTimeDivVsUser", 250, OTHER_SKILL_DIR);

  00e21	68 00 00 00 00	 push	 OFFSET ??_C@_0BK@HFEAEJI@?4?4?2Data?2ZtData?2Skills?4ini?$AA@
  00e26	68 fa 00 00 00	 push	 250			; 000000faH
  00e2b	68 00 00 00 00	 push	 OFFSET ??_C@_0BD@NLBINCPE@SleepTimeDivVsUser?$AA@
  00e30	68 00 00 00 00	 push	 OFFSET ??_C@_05OEGOMMDP@Skill?$AA@
  00e35	66 89 86 4e 0c
	00 00		 mov	 WORD PTR [esi+3150], ax
  00e3c	ff d7		 call	 edi

; 236  : 	this->SleepTimeMaxVsUser					= GetPrivateProfileInt(OTHER_SKILL_CM, "SleepTimeMaxVsUser", 0, OTHER_SKILL_DIR);

  00e3e	68 00 00 00 00	 push	 OFFSET ??_C@_0BK@HFEAEJI@?4?4?2Data?2ZtData?2Skills?4ini?$AA@
  00e43	6a 00		 push	 0
  00e45	68 00 00 00 00	 push	 OFFSET ??_C@_0BD@IJFPEJBE@SleepTimeMaxVsUser?$AA@
  00e4a	68 00 00 00 00	 push	 OFFSET ??_C@_05OEGOMMDP@Skill?$AA@
  00e4f	66 89 86 50 0c
	00 00		 mov	 WORD PTR [esi+3152], ax
  00e56	ff d7		 call	 edi

; 237  : 	// -------------------------------------------------------------------------------------------------------------------------------
; 238  : 
; 239  : 	this->m_wSoulBarrierManaRateLevel[0] = GetPrivateProfileInt(MASTER_SKILL_CM, "SoulBarrierManaRate_Level0", 20, MASTER_SKILL_DIR);

  00e58	68 00 00 00 00	 push	 OFFSET ??_C@_0CA@JPCOALGP@?4?4?2Data?2ZtData?2MasterSkills?4ini?$AA@
  00e5d	6a 14		 push	 20			; 00000014H
  00e5f	68 00 00 00 00	 push	 OFFSET ??_C@_0BL@CDDNNPHL@SoulBarrierManaRate_Level0?$AA@
  00e64	68 00 00 00 00	 push	 OFFSET ??_C@_0M@ECCCJHIK@MasterSkill?$AA@
  00e69	66 89 86 52 0c
	00 00		 mov	 WORD PTR [esi+3154], ax
  00e70	ff d7		 call	 edi

; 240  : 	this->m_wSoulBarrierManaRateLevel[1] = GetPrivateProfileInt(MASTER_SKILL_CM, "SoulBarrierManaRate_Level1", 21, MASTER_SKILL_DIR);

  00e72	68 00 00 00 00	 push	 OFFSET ??_C@_0CA@JPCOALGP@?4?4?2Data?2ZtData?2MasterSkills?4ini?$AA@
  00e77	6a 15		 push	 21			; 00000015H
  00e79	68 00 00 00 00	 push	 OFFSET ??_C@_0BL@DKCGOODK@SoulBarrierManaRate_Level1?$AA@
  00e7e	68 00 00 00 00	 push	 OFFSET ??_C@_0M@ECCCJHIK@MasterSkill?$AA@
  00e83	66 89 46 34	 mov	 WORD PTR [esi+52], ax
  00e87	ff d7		 call	 edi

; 241  : 	this->m_wSoulBarrierManaRateLevel[2] = GetPrivateProfileInt(MASTER_SKILL_CM, "SoulBarrierManaRate_Level2", 22, MASTER_SKILL_DIR);

  00e89	68 00 00 00 00	 push	 OFFSET ??_C@_0CA@JPCOALGP@?4?4?2Data?2ZtData?2MasterSkills?4ini?$AA@
  00e8e	6a 16		 push	 22			; 00000016H
  00e90	68 00 00 00 00	 push	 OFFSET ??_C@_0BL@BBALLNPJ@SoulBarrierManaRate_Level2?$AA@
  00e95	68 00 00 00 00	 push	 OFFSET ??_C@_0M@ECCCJHIK@MasterSkill?$AA@
  00e9a	66 89 46 36	 mov	 WORD PTR [esi+54], ax
  00e9e	ff d7		 call	 edi

; 242  : 	this->m_wSoulBarrierManaRateLevel[3] = GetPrivateProfileInt(MASTER_SKILL_CM, "SoulBarrierManaRate_Level3", 23, MASTER_SKILL_DIR);

  00ea0	68 00 00 00 00	 push	 OFFSET ??_C@_0CA@JPCOALGP@?4?4?2Data?2ZtData?2MasterSkills?4ini?$AA@
  00ea5	6a 17		 push	 23			; 00000017H
  00ea7	68 00 00 00 00	 push	 OFFSET ??_C@_0BL@IBAIMLI@SoulBarrierManaRate_Level3?$AA@
  00eac	68 00 00 00 00	 push	 OFFSET ??_C@_0M@ECCCJHIK@MasterSkill?$AA@
  00eb1	66 89 46 38	 mov	 WORD PTR [esi+56], ax
  00eb5	ff d7		 call	 edi

; 243  : 	this->m_wSoulBarrierManaRateLevel[4] = GetPrivateProfileInt(MASTER_SKILL_CM, "SoulBarrierManaRate_Level4", 24, MASTER_SKILL_DIR);

  00eb7	68 00 00 00 00	 push	 OFFSET ??_C@_0CA@JPCOALGP@?4?4?2Data?2ZtData?2MasterSkills?4ini?$AA@
  00ebc	6a 18		 push	 24			; 00000018H
  00ebe	68 00 00 00 00	 push	 OFFSET ??_C@_0BL@EHFBBKHP@SoulBarrierManaRate_Level4?$AA@
  00ec3	68 00 00 00 00	 push	 OFFSET ??_C@_0M@ECCCJHIK@MasterSkill?$AA@
  00ec8	66 89 46 3a	 mov	 WORD PTR [esi+58], ax
  00ecc	ff d7		 call	 edi
  00ece	66 89 46 3c	 mov	 WORD PTR [esi+60], ax

; 244  : 	this->m_wSoulBarrierManaRateLevel[5] = GetPrivateProfileInt(MASTER_SKILL_CM, "SoulBarrierManaRate_Level5", 25, MASTER_SKILL_DIR);

  00ed2	68 00 00 00 00	 push	 OFFSET ??_C@_0CA@JPCOALGP@?4?4?2Data?2ZtData?2MasterSkills?4ini?$AA@
  00ed7	6a 19		 push	 25			; 00000019H
  00ed9	68 00 00 00 00	 push	 OFFSET ??_C@_0BL@FOEKCLDO@SoulBarrierManaRate_Level5?$AA@
  00ede	68 00 00 00 00	 push	 OFFSET ??_C@_0M@ECCCJHIK@MasterSkill?$AA@
  00ee3	ff d7		 call	 edi

; 245  : 	this->m_wSoulBarrierManaRateLevel[6] = GetPrivateProfileInt(MASTER_SKILL_CM, "SoulBarrierManaRate_Level6", 26, MASTER_SKILL_DIR);

  00ee5	68 00 00 00 00	 push	 OFFSET ??_C@_0CA@JPCOALGP@?4?4?2Data?2ZtData?2MasterSkills?4ini?$AA@
  00eea	6a 1a		 push	 26			; 0000001aH
  00eec	68 00 00 00 00	 push	 OFFSET ??_C@_0BL@HFGHHIPN@SoulBarrierManaRate_Level6?$AA@
  00ef1	68 00 00 00 00	 push	 OFFSET ??_C@_0M@ECCCJHIK@MasterSkill?$AA@
  00ef6	66 89 46 3e	 mov	 WORD PTR [esi+62], ax
  00efa	ff d7		 call	 edi

; 246  : 	this->m_wSoulBarrierManaRateLevel[7] = GetPrivateProfileInt(MASTER_SKILL_CM, "SoulBarrierManaRate_Level7", 27, MASTER_SKILL_DIR);

  00efc	68 00 00 00 00	 push	 OFFSET ??_C@_0CA@JPCOALGP@?4?4?2Data?2ZtData?2MasterSkills?4ini?$AA@
  00f01	6a 1b		 push	 27			; 0000001bH
  00f03	68 00 00 00 00	 push	 OFFSET ??_C@_0BL@GMHMEJLM@SoulBarrierManaRate_Level7?$AA@
  00f08	68 00 00 00 00	 push	 OFFSET ??_C@_0M@ECCCJHIK@MasterSkill?$AA@
  00f0d	66 89 46 40	 mov	 WORD PTR [esi+64], ax
  00f11	ff d7		 call	 edi

; 247  : 	this->m_wSoulBarrierManaRateLevel[8] = GetPrivateProfileInt(MASTER_SKILL_CM, "SoulBarrierManaRate_Level8", 28, MASTER_SKILL_DIR);

  00f13	68 00 00 00 00	 push	 OFFSET ??_C@_0CA@JPCOALGP@?4?4?2Data?2ZtData?2MasterSkills?4ini?$AA@
  00f18	6a 1c		 push	 28			; 0000001cH
  00f1a	68 00 00 00 00	 push	 OFFSET ??_C@_0BL@OLOEFFHD@SoulBarrierManaRate_Level8?$AA@
  00f1f	68 00 00 00 00	 push	 OFFSET ??_C@_0M@ECCCJHIK@MasterSkill?$AA@
  00f24	66 89 46 42	 mov	 WORD PTR [esi+66], ax
  00f28	ff d7		 call	 edi

; 248  : 	this->m_wSoulBarrierManaRateLevel[9] = GetPrivateProfileInt(MASTER_SKILL_CM, "SoulBarrierManaRate_Level9", 29, MASTER_SKILL_DIR);

  00f2a	68 00 00 00 00	 push	 OFFSET ??_C@_0CA@JPCOALGP@?4?4?2Data?2ZtData?2MasterSkills?4ini?$AA@
  00f2f	6a 1d		 push	 29			; 0000001dH
  00f31	68 00 00 00 00	 push	 OFFSET ??_C@_0BL@PCPPGEDC@SoulBarrierManaRate_Level9?$AA@
  00f36	68 00 00 00 00	 push	 OFFSET ??_C@_0M@ECCCJHIK@MasterSkill?$AA@
  00f3b	66 89 46 44	 mov	 WORD PTR [esi+68], ax
  00f3f	ff d7		 call	 edi

; 249  : 	this->m_wSoulBarrierManaRateLevel[10] = GetPrivateProfileInt(MASTER_SKILL_CM, "SoulBarrierManaRate_Level10", 30, MASTER_SKILL_DIR);

  00f41	68 00 00 00 00	 push	 OFFSET ??_C@_0CA@JPCOALGP@?4?4?2Data?2ZtData?2MasterSkills?4ini?$AA@
  00f46	6a 1e		 push	 30			; 0000001eH
  00f48	68 00 00 00 00	 push	 OFFSET ??_C@_0BM@BJHAMJKP@SoulBarrierManaRate_Level10?$AA@
  00f4d	68 00 00 00 00	 push	 OFFSET ??_C@_0M@ECCCJHIK@MasterSkill?$AA@
  00f52	66 89 46 46	 mov	 WORD PTR [esi+70], ax
  00f56	ff d7		 call	 edi

; 250  : 	this->m_wSoulBarrierManaRateLevel[11] = GetPrivateProfileInt(MASTER_SKILL_CM, "SoulBarrierManaRate_Level11", 31, MASTER_SKILL_DIR);

  00f58	68 00 00 00 00	 push	 OFFSET ??_C@_0CA@JPCOALGP@?4?4?2Data?2ZtData?2MasterSkills?4ini?$AA@
  00f5d	6a 1f		 push	 31			; 0000001fH
  00f5f	68 00 00 00 00	 push	 OFFSET ??_C@_0BM@GLPIOO@SoulBarrierManaRate_Level11?$AA@
  00f64	68 00 00 00 00	 push	 OFFSET ??_C@_0M@ECCCJHIK@MasterSkill?$AA@
  00f69	66 89 46 48	 mov	 WORD PTR [esi+72], ax
  00f6d	ff d7		 call	 edi

; 251  : 	this->m_wSoulBarrierManaRateLevel[12] = GetPrivateProfileInt(MASTER_SKILL_CM, "SoulBarrierManaRate_Level12", 32, MASTER_SKILL_DIR);

  00f6f	68 00 00 00 00	 push	 OFFSET ??_C@_0CA@JPCOALGP@?4?4?2Data?2ZtData?2MasterSkills?4ini?$AA@
  00f74	6a 20		 push	 32			; 00000020H
  00f76	68 00 00 00 00	 push	 OFFSET ??_C@_0BM@CLEGKLCN@SoulBarrierManaRate_Level12?$AA@
  00f7b	68 00 00 00 00	 push	 OFFSET ??_C@_0M@ECCCJHIK@MasterSkill?$AA@
  00f80	66 89 46 4a	 mov	 WORD PTR [esi+74], ax
  00f84	ff d7		 call	 edi

; 252  : 	this->m_wSoulBarrierManaRateLevel[13] = GetPrivateProfileInt(MASTER_SKILL_CM, "SoulBarrierManaRate_Level13", 33, MASTER_SKILL_DIR);

  00f86	68 00 00 00 00	 push	 OFFSET ??_C@_0CA@JPCOALGP@?4?4?2Data?2ZtData?2MasterSkills?4ini?$AA@
  00f8b	6a 21		 push	 33			; 00000021H
  00f8d	68 00 00 00 00	 push	 OFFSET ??_C@_0BM@DCFNJKGM@SoulBarrierManaRate_Level13?$AA@
  00f92	68 00 00 00 00	 push	 OFFSET ??_C@_0M@ECCCJHIK@MasterSkill?$AA@
  00f97	66 89 46 4c	 mov	 WORD PTR [esi+76], ax
  00f9b	ff d7		 call	 edi

; 253  : 	this->m_wSoulBarrierManaRateLevel[14] = GetPrivateProfileInt(MASTER_SKILL_CM, "SoulBarrierManaRate_Level14", 34, MASTER_SKILL_DIR);

  00f9d	68 00 00 00 00	 push	 OFFSET ??_C@_0CA@JPCOALGP@?4?4?2Data?2ZtData?2MasterSkills?4ini?$AA@
  00fa2	6a 22		 push	 34			; 00000022H
  00fa4	68 00 00 00 00	 push	 OFFSET ??_C@_0BM@HNBMAMKL@SoulBarrierManaRate_Level14?$AA@
  00fa9	68 00 00 00 00	 push	 OFFSET ??_C@_0M@ECCCJHIK@MasterSkill?$AA@
  00fae	66 89 46 4e	 mov	 WORD PTR [esi+78], ax
  00fb2	ff d7		 call	 edi

; 254  : 	this->m_wSoulBarrierManaRateLevel[15] = GetPrivateProfileInt(MASTER_SKILL_CM, "SoulBarrierManaRate_Level15", 35, MASTER_SKILL_DIR);

  00fb4	68 00 00 00 00	 push	 OFFSET ??_C@_0CA@JPCOALGP@?4?4?2Data?2ZtData?2MasterSkills?4ini?$AA@
  00fb9	6a 23		 push	 35			; 00000023H
  00fbb	68 00 00 00 00	 push	 OFFSET ??_C@_0BM@GEAHDNOK@SoulBarrierManaRate_Level15?$AA@
  00fc0	68 00 00 00 00	 push	 OFFSET ??_C@_0M@ECCCJHIK@MasterSkill?$AA@
  00fc5	66 89 46 50	 mov	 WORD PTR [esi+80], ax
  00fc9	ff d7		 call	 edi

; 255  : 	this->m_wSoulBarrierManaRateLevel[16] = GetPrivateProfileInt(MASTER_SKILL_CM, "SoulBarrierManaRate_Level16", 36, MASTER_SKILL_DIR);

  00fcb	68 00 00 00 00	 push	 OFFSET ??_C@_0CA@JPCOALGP@?4?4?2Data?2ZtData?2MasterSkills?4ini?$AA@
  00fd0	6a 24		 push	 36			; 00000024H
  00fd2	68 00 00 00 00	 push	 OFFSET ??_C@_0BM@EPCKGOCJ@SoulBarrierManaRate_Level16?$AA@
  00fd7	68 00 00 00 00	 push	 OFFSET ??_C@_0M@ECCCJHIK@MasterSkill?$AA@
  00fdc	66 89 46 52	 mov	 WORD PTR [esi+82], ax
  00fe0	ff d7		 call	 edi

; 256  : 	this->m_wSoulBarrierManaRateLevel[17] = GetPrivateProfileInt(MASTER_SKILL_CM, "SoulBarrierManaRate_Level17", 37, MASTER_SKILL_DIR);

  00fe2	68 00 00 00 00	 push	 OFFSET ??_C@_0CA@JPCOALGP@?4?4?2Data?2ZtData?2MasterSkills?4ini?$AA@
  00fe7	6a 25		 push	 37			; 00000025H
  00fe9	68 00 00 00 00	 push	 OFFSET ??_C@_0BM@FGDBFPGI@SoulBarrierManaRate_Level17?$AA@
  00fee	68 00 00 00 00	 push	 OFFSET ??_C@_0M@ECCCJHIK@MasterSkill?$AA@
  00ff3	66 89 46 54	 mov	 WORD PTR [esi+84], ax
  00ff7	ff d7		 call	 edi

; 257  : 	this->m_wSoulBarrierManaRateLevel[18] = GetPrivateProfileInt(MASTER_SKILL_CM, "SoulBarrierManaRate_Level18", 38, MASTER_SKILL_DIR);

  00ff9	68 00 00 00 00	 push	 OFFSET ??_C@_0CA@JPCOALGP@?4?4?2Data?2ZtData?2MasterSkills?4ini?$AA@
  00ffe	6a 26		 push	 38			; 00000026H
  01000	66 89 46 56	 mov	 WORD PTR [esi+86], ax
  01004	68 00 00 00 00	 push	 OFFSET ??_C@_0BM@NBKJEDKH@SoulBarrierManaRate_Level18?$AA@
  01009	68 00 00 00 00	 push	 OFFSET ??_C@_0M@ECCCJHIK@MasterSkill?$AA@
  0100e	ff d7		 call	 edi

; 258  : 	this->m_wSoulBarrierManaRateLevel[19] = GetPrivateProfileInt(MASTER_SKILL_CM, "SoulBarrierManaRate_Level19", 39, MASTER_SKILL_DIR);

  01010	68 00 00 00 00	 push	 OFFSET ??_C@_0CA@JPCOALGP@?4?4?2Data?2ZtData?2MasterSkills?4ini?$AA@
  01015	6a 27		 push	 39			; 00000027H
  01017	68 00 00 00 00	 push	 OFFSET ??_C@_0BM@MILCHCOG@SoulBarrierManaRate_Level19?$AA@
  0101c	68 00 00 00 00	 push	 OFFSET ??_C@_0M@ECCCJHIK@MasterSkill?$AA@
  01021	66 89 46 58	 mov	 WORD PTR [esi+88], ax
  01025	ff d7		 call	 edi

; 259  : 	this->m_wSoulBarrierManaRateLevel[20] = GetPrivateProfileInt(MASTER_SKILL_CM, "SoulBarrierManaRate_Level20", 40, MASTER_SKILL_DIR);

  01027	68 00 00 00 00	 push	 OFFSET ??_C@_0CA@JPCOALGP@?4?4?2Data?2ZtData?2MasterSkills?4ini?$AA@
  0102c	6a 28		 push	 40			; 00000028H
  0102e	68 00 00 00 00	 push	 OFFSET ??_C@_0BM@BLDGHHPG@SoulBarrierManaRate_Level20?$AA@
  01033	68 00 00 00 00	 push	 OFFSET ??_C@_0M@ECCCJHIK@MasterSkill?$AA@
  01038	66 89 46 5a	 mov	 WORD PTR [esi+90], ax
  0103c	ff d7		 call	 edi

; 260  : 
; 261  : 	char szFloat[256];
; 262  : 	this->m_SoulBarrierDefenseStart				= GetPrivateProfileInt(MASTER_SKILL_CM, "SoulBarrierDefenseStart", 600, MASTER_SKILL_DIR); 

  0103e	68 00 00 00 00	 push	 OFFSET ??_C@_0CA@JPCOALGP@?4?4?2Data?2ZtData?2MasterSkills?4ini?$AA@
  01043	68 58 02 00 00	 push	 600			; 00000258H
  01048	68 00 00 00 00	 push	 OFFSET ??_C@_0BI@ENLFKMPH@SoulBarrierDefenseStart?$AA@
  0104d	68 00 00 00 00	 push	 OFFSET ??_C@_0M@ECCCJHIK@MasterSkill?$AA@
  01052	66 89 46 5c	 mov	 WORD PTR [esi+92], ax
  01056	ff d7		 call	 edi

; 263  : 	this->m_SoulBarrierDefenseDiv1				= GetPrivateProfileInt(MASTER_SKILL_CM, "SoulBarrierDefenseDiv1", 600, MASTER_SKILL_DIR); 

  01058	68 00 00 00 00	 push	 OFFSET ??_C@_0CA@JPCOALGP@?4?4?2Data?2ZtData?2MasterSkills?4ini?$AA@
  0105d	68 58 02 00 00	 push	 600			; 00000258H
  01062	68 00 00 00 00	 push	 OFFSET ??_C@_0BH@OCCLHHKG@SoulBarrierDefenseDiv1?$AA@
  01067	68 00 00 00 00	 push	 OFFSET ??_C@_0M@ECCCJHIK@MasterSkill?$AA@
  0106c	66 89 86 54 0c
	00 00		 mov	 WORD PTR [esi+3156], ax
  01073	ff d7		 call	 edi

; 264  : 	this->m_SoulBarrierDefenseDiv2				= GetPrivateProfileInt(MASTER_SKILL_CM, "SoulBarrierDefenseDiv2", 600, MASTER_SKILL_DIR); 

  01075	68 00 00 00 00	 push	 OFFSET ??_C@_0CA@JPCOALGP@?4?4?2Data?2ZtData?2MasterSkills?4ini?$AA@
  0107a	68 58 02 00 00	 push	 600			; 00000258H
  0107f	68 00 00 00 00	 push	 OFFSET ??_C@_0BH@MJAGCEGF@SoulBarrierDefenseDiv2?$AA@
  01084	68 00 00 00 00	 push	 OFFSET ??_C@_0M@ECCCJHIK@MasterSkill?$AA@
  01089	66 89 86 56 0c
	00 00		 mov	 WORD PTR [esi+3158], ax
  01090	ff d7		 call	 edi

; 265  : 	this->m_SoulBarrierDefenseMax				= GetPrivateProfileInt(MASTER_SKILL_CM, "SoulBarrierDefenseMax", 600, MASTER_SKILL_DIR); 

  01092	68 00 00 00 00	 push	 OFFSET ??_C@_0CA@JPCOALGP@?4?4?2Data?2ZtData?2MasterSkills?4ini?$AA@
  01097	68 58 02 00 00	 push	 600			; 00000258H
  0109c	68 00 00 00 00	 push	 OFFSET ??_C@_0BG@CPELIBEP@SoulBarrierDefenseMax?$AA@
  010a1	68 00 00 00 00	 push	 OFFSET ??_C@_0M@ECCCJHIK@MasterSkill?$AA@
  010a6	66 89 86 58 0c
	00 00		 mov	 WORD PTR [esi+3160], ax
  010ad	ff d7		 call	 edi

; 266  : 	this->m_SoulBarrierTimeStart				= GetPrivateProfileInt(MASTER_SKILL_CM, "SoulBarrierTimeStart", 600, MASTER_SKILL_DIR); 

  010af	68 00 00 00 00	 push	 OFFSET ??_C@_0CA@JPCOALGP@?4?4?2Data?2ZtData?2MasterSkills?4ini?$AA@
  010b4	68 58 02 00 00	 push	 600			; 00000258H
  010b9	68 00 00 00 00	 push	 OFFSET ??_C@_0BF@HLPHEEBF@SoulBarrierTimeStart?$AA@
  010be	68 00 00 00 00	 push	 OFFSET ??_C@_0M@ECCCJHIK@MasterSkill?$AA@
  010c3	89 86 5c 0c 00
	00		 mov	 DWORD PTR [esi+3164], eax
  010c9	ff d7		 call	 edi

; 267  : 	this->m_SoulBarrierTimeDiv					= GetPrivateProfileInt(MASTER_SKILL_CM, "SoulBarrierTimeDiv", 600, MASTER_SKILL_DIR); 

  010cb	68 00 00 00 00	 push	 OFFSET ??_C@_0CA@JPCOALGP@?4?4?2Data?2ZtData?2MasterSkills?4ini?$AA@
  010d0	68 58 02 00 00	 push	 600			; 00000258H
  010d5	68 00 00 00 00	 push	 OFFSET ??_C@_0BD@GELNHIFI@SoulBarrierTimeDiv?$AA@
  010da	68 00 00 00 00	 push	 OFFSET ??_C@_0M@ECCCJHIK@MasterSkill?$AA@
  010df	66 89 86 60 0c
	00 00		 mov	 WORD PTR [esi+3168], ax
  010e6	ff d7		 call	 edi

; 268  : 	this->m_SoulBarrierTimeMax					= GetPrivateProfileInt(MASTER_SKILL_CM, "SoulBarrierTimeMax", 600, MASTER_SKILL_DIR); 

  010e8	68 00 00 00 00	 push	 OFFSET ??_C@_0CA@JPCOALGP@?4?4?2Data?2ZtData?2MasterSkills?4ini?$AA@
  010ed	68 58 02 00 00	 push	 600			; 00000258H
  010f2	68 00 00 00 00	 push	 OFFSET ??_C@_0BD@IJCFELOE@SoulBarrierTimeMax?$AA@
  010f7	68 00 00 00 00	 push	 OFFSET ??_C@_0M@ECCCJHIK@MasterSkill?$AA@
  010fc	66 89 86 62 0c
	00 00		 mov	 WORD PTR [esi+3170], ax
  01103	ff d7		 call	 edi

; 269  : 	this->m_WizardryEnchantDamageDiv			= GetPrivateProfileInt(MASTER_SKILL_CM, "WizardryEnchantDamageDiv", 600, MASTER_SKILL_DIR); 

  01105	68 00 00 00 00	 push	 OFFSET ??_C@_0CA@JPCOALGP@?4?4?2Data?2ZtData?2MasterSkills?4ini?$AA@
  0110a	68 58 02 00 00	 push	 600			; 00000258H
  0110f	68 00 00 00 00	 push	 OFFSET ??_C@_0BJ@EKEDEGGJ@WizardryEnchantDamageDiv?$AA@
  01114	68 00 00 00 00	 push	 OFFSET ??_C@_0M@ECCCJHIK@MasterSkill?$AA@
  01119	89 86 64 0c 00
	00		 mov	 DWORD PTR [esi+3172], eax
  0111f	ff d7		 call	 edi

; 270  : 	GetPrivateProfileString(MASTER_SKILL_CM, "WizardryEnchantDamageFact", "10", szFloat, 5, MASTER_SKILL_DIR);

  01121	68 00 00 00 00	 push	 OFFSET ??_C@_0CA@JPCOALGP@?4?4?2Data?2ZtData?2MasterSkills?4ini?$AA@
  01126	6a 05		 push	 5
  01128	8d 95 fc fb ff
	ff		 lea	 edx, DWORD PTR _szFloat$[ebp]
  0112e	52		 push	 edx
  0112f	68 00 00 00 00	 push	 OFFSET ??_C@_02PKFBJPLJ@10?$AA@
  01134	68 00 00 00 00	 push	 OFFSET ??_C@_0BK@NKOODMFM@WizardryEnchantDamageFact?$AA@
  01139	68 00 00 00 00	 push	 OFFSET ??_C@_0M@ECCCJHIK@MasterSkill?$AA@
  0113e	66 89 86 68 0c
	00 00		 mov	 WORD PTR [esi+3176], ax
  01145	ff d3		 call	 ebx

; 271  : 	sscanf(szFloat, "%f", &this->m_WizardryEnchantDamageFact);

  01147	8d 86 6c 0c 00
	00		 lea	 eax, DWORD PTR [esi+3180]
  0114d	50		 push	 eax
  0114e	8d 8d fc fb ff
	ff		 lea	 ecx, DWORD PTR _szFloat$[ebp]
  01154	68 00 00 00 00	 push	 OFFSET ??_C@_02NJPGOMH@?$CFf?$AA@
  01159	51		 push	 ecx
  0115a	e8 00 00 00 00	 call	 _sscanf
  0115f	83 c4 0c	 add	 esp, 12			; 0000000cH

; 272  : 	this->m_WizardryEnchantDamageMax			= GetPrivateProfileInt(MASTER_SKILL_CM, "WizardryEnchantDamageMax", 600, MASTER_SKILL_DIR); 

  01162	68 00 00 00 00	 push	 OFFSET ??_C@_0CA@JPCOALGP@?4?4?2Data?2ZtData?2MasterSkills?4ini?$AA@
  01167	68 58 02 00 00	 push	 600			; 00000258H
  0116c	68 00 00 00 00	 push	 OFFSET ??_C@_0BJ@KHNLHFNF@WizardryEnchantDamageMax?$AA@
  01171	68 00 00 00 00	 push	 OFFSET ??_C@_0M@ECCCJHIK@MasterSkill?$AA@
  01176	ff d7		 call	 edi

; 273  : 	this->m_WizardryEnchantTime					= GetPrivateProfileInt(MASTER_SKILL_CM, "WizardryEnchantTime", 600, MASTER_SKILL_DIR); 

  01178	68 00 00 00 00	 push	 OFFSET ??_C@_0CA@JPCOALGP@?4?4?2Data?2ZtData?2MasterSkills?4ini?$AA@
  0117d	68 58 02 00 00	 push	 600			; 00000258H
  01182	68 00 00 00 00	 push	 OFFSET ??_C@_0BE@LJPJLIP@WizardryEnchantTime?$AA@
  01187	68 00 00 00 00	 push	 OFFSET ??_C@_0M@ECCCJHIK@MasterSkill?$AA@
  0118c	89 86 70 0c 00
	00		 mov	 DWORD PTR [esi+3184], eax
  01192	ff d7		 call	 edi

; 274  : 	this->m_SwellLifeEffectStart				= GetPrivateProfileInt(MASTER_SKILL_CM, "SwellLifeEffectStart", 600, MASTER_SKILL_DIR); 

  01194	68 00 00 00 00	 push	 OFFSET ??_C@_0CA@JPCOALGP@?4?4?2Data?2ZtData?2MasterSkills?4ini?$AA@
  01199	68 58 02 00 00	 push	 600			; 00000258H
  0119e	68 00 00 00 00	 push	 OFFSET ??_C@_0BF@EDGHIKBF@SwellLifeEffectStart?$AA@
  011a3	68 00 00 00 00	 push	 OFFSET ??_C@_0M@ECCCJHIK@MasterSkill?$AA@
  011a8	89 86 74 0c 00
	00		 mov	 DWORD PTR [esi+3188], eax
  011ae	ff d7		 call	 edi

; 275  : 	this->m_SwellLifeEffectDiv1					= GetPrivateProfileInt(MASTER_SKILL_CM, "SwellLifeEffectDiv1", 600, MASTER_SKILL_DIR); 

  011b0	68 00 00 00 00	 push	 OFFSET ??_C@_0CA@JPCOALGP@?4?4?2Data?2ZtData?2MasterSkills?4ini?$AA@
  011b5	68 58 02 00 00	 push	 600			; 00000258H
  011ba	68 00 00 00 00	 push	 OFFSET ??_C@_0BE@OLIFKHKO@SwellLifeEffectDiv1?$AA@
  011bf	68 00 00 00 00	 push	 OFFSET ??_C@_0M@ECCCJHIK@MasterSkill?$AA@
  011c4	66 89 86 78 0c
	00 00		 mov	 WORD PTR [esi+3192], ax
  011cb	ff d7		 call	 edi

; 276  : 	this->m_SwellLifeEffectDiv2					= GetPrivateProfileInt(MASTER_SKILL_CM, "SwellLifeEffectDiv2", 600, MASTER_SKILL_DIR); 

  011cd	68 00 00 00 00	 push	 OFFSET ??_C@_0CA@JPCOALGP@?4?4?2Data?2ZtData?2MasterSkills?4ini?$AA@
  011d2	68 58 02 00 00	 push	 600			; 00000258H
  011d7	68 00 00 00 00	 push	 OFFSET ??_C@_0BE@MAKIPEGN@SwellLifeEffectDiv2?$AA@
  011dc	68 00 00 00 00	 push	 OFFSET ??_C@_0M@ECCCJHIK@MasterSkill?$AA@
  011e1	66 89 86 7a 0c
	00 00		 mov	 WORD PTR [esi+3194], ax
  011e8	ff d7		 call	 edi

; 277  : 	this->m_SwellLifeEffectMax					= GetPrivateProfileInt(MASTER_SKILL_CM, "SwellLifeEffectMax", 600, MASTER_SKILL_DIR); 

  011ea	68 00 00 00 00	 push	 OFFSET ??_C@_0CA@JPCOALGP@?4?4?2Data?2ZtData?2MasterSkills?4ini?$AA@
  011ef	68 58 02 00 00	 push	 600			; 00000258H
  011f4	68 00 00 00 00	 push	 OFFSET ??_C@_0BD@DHNHKCED@SwellLifeEffectMax?$AA@
  011f9	68 00 00 00 00	 push	 OFFSET ??_C@_0M@ECCCJHIK@MasterSkill?$AA@
  011fe	66 89 86 7c 0c
	00 00		 mov	 WORD PTR [esi+3196], ax
  01205	ff d7		 call	 edi

; 278  : 	this->m_SwellLifeTimeStart					= GetPrivateProfileInt(MASTER_SKILL_CM, "SwellLifeTimeStart", 600, MASTER_SKILL_DIR); 

  01207	68 00 00 00 00	 push	 OFFSET ??_C@_0CA@JPCOALGP@?4?4?2Data?2ZtData?2MasterSkills?4ini?$AA@
  0120c	68 58 02 00 00	 push	 600			; 00000258H
  01211	68 00 00 00 00	 push	 OFFSET ??_C@_0BD@CBCDNOBM@SwellLifeTimeStart?$AA@
  01216	68 00 00 00 00	 push	 OFFSET ??_C@_0M@ECCCJHIK@MasterSkill?$AA@
  0121b	89 86 80 0c 00
	00		 mov	 DWORD PTR [esi+3200], eax
  01221	ff d7		 call	 edi

; 279  : 	this->m_SwellLifeTimeDiv					= GetPrivateProfileInt(MASTER_SKILL_CM, "SwellLifeTimeDiv", 600, MASTER_SKILL_DIR); 

  01223	68 00 00 00 00	 push	 OFFSET ??_C@_0CA@JPCOALGP@?4?4?2Data?2ZtData?2MasterSkills?4ini?$AA@
  01228	68 58 02 00 00	 push	 600			; 00000258H
  0122d	68 00 00 00 00	 push	 OFFSET ??_C@_0BB@JKMIHHPM@SwellLifeTimeDiv?$AA@
  01232	68 00 00 00 00	 push	 OFFSET ??_C@_0M@ECCCJHIK@MasterSkill?$AA@
  01237	66 89 86 84 0c
	00 00		 mov	 WORD PTR [esi+3204], ax
  0123e	ff d7		 call	 edi

; 280  : 	this->m_SwellLifeTimeMax					= GetPrivateProfileInt(MASTER_SKILL_CM, "SwellLifeTimeMax", 600, MASTER_SKILL_DIR); 

  01240	68 00 00 00 00	 push	 OFFSET ??_C@_0CA@JPCOALGP@?4?4?2Data?2ZtData?2MasterSkills?4ini?$AA@
  01245	68 58 02 00 00	 push	 600			; 00000258H
  0124a	68 00 00 00 00	 push	 OFFSET ??_C@_0BB@HHFAEEEA@SwellLifeTimeMax?$AA@
  0124f	68 00 00 00 00	 push	 OFFSET ??_C@_0M@ECCCJHIK@MasterSkill?$AA@
  01254	66 89 86 86 0c
	00 00		 mov	 WORD PTR [esi+3206], ax
  0125b	ff d7		 call	 edi

; 281  : 	this->m_ElfDefenseEffectFact				= GetPrivateProfileInt(MASTER_SKILL_CM, "ElfDefenseEffectFact", 600, MASTER_SKILL_DIR); 

  0125d	68 00 00 00 00	 push	 OFFSET ??_C@_0CA@JPCOALGP@?4?4?2Data?2ZtData?2MasterSkills?4ini?$AA@
  01262	68 58 02 00 00	 push	 600			; 00000258H
  01267	68 00 00 00 00	 push	 OFFSET ??_C@_0BF@KDEHAEKN@ElfDefenseEffectFact?$AA@
  0126c	68 00 00 00 00	 push	 OFFSET ??_C@_0M@ECCCJHIK@MasterSkill?$AA@
  01271	89 86 88 0c 00
	00		 mov	 DWORD PTR [esi+3208], eax
  01277	ff d7		 call	 edi

; 282  : 	this->m_ElfDefenseEffectDiv					= GetPrivateProfileInt(MASTER_SKILL_CM, "ElfDefenseEffectDiv", 600, MASTER_SKILL_DIR); 

  01279	68 00 00 00 00	 push	 OFFSET ??_C@_0CA@JPCOALGP@?4?4?2Data?2ZtData?2MasterSkills?4ini?$AA@
  0127e	68 58 02 00 00	 push	 600			; 00000258H
  01283	68 00 00 00 00	 push	 OFFSET ??_C@_0BE@DPMDBDGA@ElfDefenseEffectDiv?$AA@
  01288	68 00 00 00 00	 push	 OFFSET ??_C@_0M@ECCCJHIK@MasterSkill?$AA@
  0128d	66 89 86 8c 0c
	00 00		 mov	 WORD PTR [esi+3212], ax
  01294	ff d7		 call	 edi

; 283  : 	this->m_ElfDefenseEffectMax					= GetPrivateProfileInt(MASTER_SKILL_CM, "ElfDefenseEffectMax", 600, MASTER_SKILL_DIR); 

  01296	68 00 00 00 00	 push	 OFFSET ??_C@_0CA@JPCOALGP@?4?4?2Data?2ZtData?2MasterSkills?4ini?$AA@
  0129b	68 58 02 00 00	 push	 600			; 00000258H
  012a0	68 00 00 00 00	 push	 OFFSET ??_C@_0BE@NCFLCANM@ElfDefenseEffectMax?$AA@
  012a5	68 00 00 00 00	 push	 OFFSET ??_C@_0M@ECCCJHIK@MasterSkill?$AA@
  012aa	66 89 86 8e 0c
	00 00		 mov	 WORD PTR [esi+3214], ax
  012b1	ff d7		 call	 edi

; 284  : 	this->m_ElfDefenseTime						= GetPrivateProfileInt(MASTER_SKILL_CM, "ElfDefenseTime", 600, MASTER_SKILL_DIR); 

  012b3	68 00 00 00 00	 push	 OFFSET ??_C@_0CA@JPCOALGP@?4?4?2Data?2ZtData?2MasterSkills?4ini?$AA@
  012b8	68 58 02 00 00	 push	 600			; 00000258H
  012bd	68 00 00 00 00	 push	 OFFSET ??_C@_0P@JCGFNEIF@ElfDefenseTime?$AA@
  012c2	68 00 00 00 00	 push	 OFFSET ??_C@_0M@ECCCJHIK@MasterSkill?$AA@
  012c7	89 86 90 0c 00
	00		 mov	 DWORD PTR [esi+3216], eax
  012cd	ff d7		 call	 edi

; 285  : 	this->m_ElfAttackEffectFact					= GetPrivateProfileInt(MASTER_SKILL_CM, "ElfAttackEffectFact", 600, MASTER_SKILL_DIR); 

  012cf	68 00 00 00 00	 push	 OFFSET ??_C@_0CA@JPCOALGP@?4?4?2Data?2ZtData?2MasterSkills?4ini?$AA@
  012d4	68 58 02 00 00	 push	 600			; 00000258H
  012d9	68 00 00 00 00	 push	 OFFSET ??_C@_0BE@JJIEGOBK@ElfAttackEffectFact?$AA@
  012de	68 00 00 00 00	 push	 OFFSET ??_C@_0M@ECCCJHIK@MasterSkill?$AA@
  012e3	89 86 94 0c 00
	00		 mov	 DWORD PTR [esi+3220], eax
  012e9	ff d7		 call	 edi
  012eb	66 89 86 98 0c
	00 00		 mov	 WORD PTR [esi+3224], ax

; 286  : 	this->m_ElfAttackEffectDiv					= GetPrivateProfileInt(MASTER_SKILL_CM, "ElfAttackEffectDiv", 600, MASTER_SKILL_DIR); 

  012f2	68 00 00 00 00	 push	 OFFSET ??_C@_0CA@JPCOALGP@?4?4?2Data?2ZtData?2MasterSkills?4ini?$AA@
  012f7	68 58 02 00 00	 push	 600			; 00000258H
  012fc	68 00 00 00 00	 push	 OFFSET ??_C@_0BD@EJPIGKAB@ElfAttackEffectDiv?$AA@
  01301	68 00 00 00 00	 push	 OFFSET ??_C@_0M@ECCCJHIK@MasterSkill?$AA@
  01306	ff d7		 call	 edi

; 287  : 	this->m_ElfAttackEffectMax					= GetPrivateProfileInt(MASTER_SKILL_CM, "ElfAttackEffectMax", 600, MASTER_SKILL_DIR); 

  01308	68 00 00 00 00	 push	 OFFSET ??_C@_0CA@JPCOALGP@?4?4?2Data?2ZtData?2MasterSkills?4ini?$AA@
  0130d	68 58 02 00 00	 push	 600			; 00000258H
  01312	68 00 00 00 00	 push	 OFFSET ??_C@_0BD@KEGAFJLN@ElfAttackEffectMax?$AA@
  01317	68 00 00 00 00	 push	 OFFSET ??_C@_0M@ECCCJHIK@MasterSkill?$AA@
  0131c	66 89 86 9a 0c
	00 00		 mov	 WORD PTR [esi+3226], ax
  01323	ff d7		 call	 edi

; 288  : 	this->m_ElfAttackTime						= GetPrivateProfileInt(MASTER_SKILL_CM, "ElfAttackTime", 600, MASTER_SKILL_DIR); 

  01325	68 00 00 00 00	 push	 OFFSET ??_C@_0CA@JPCOALGP@?4?4?2Data?2ZtData?2MasterSkills?4ini?$AA@
  0132a	68 58 02 00 00	 push	 600			; 00000258H
  0132f	68 00 00 00 00	 push	 OFFSET ??_C@_0O@OKEHNLCK@ElfAttackTime?$AA@
  01334	68 00 00 00 00	 push	 OFFSET ??_C@_0M@ECCCJHIK@MasterSkill?$AA@
  01339	89 86 9c 0c 00
	00		 mov	 DWORD PTR [esi+3228], eax
  0133f	ff d7		 call	 edi

; 289  : 	this->m_CriticalDamageEffectDiv1			= GetPrivateProfileInt(MASTER_SKILL_CM, "CriticalDamageEffectDiv1", 600, MASTER_SKILL_DIR); 

  01341	68 00 00 00 00	 push	 OFFSET ??_C@_0CA@JPCOALGP@?4?4?2Data?2ZtData?2MasterSkills?4ini?$AA@
  01346	68 58 02 00 00	 push	 600			; 00000258H
  0134b	68 00 00 00 00	 push	 OFFSET ??_C@_0BJ@JNMJFAAH@CriticalDamageEffectDiv1?$AA@
  01350	68 00 00 00 00	 push	 OFFSET ??_C@_0M@ECCCJHIK@MasterSkill?$AA@
  01355	89 86 a0 0c 00
	00		 mov	 DWORD PTR [esi+3232], eax
  0135b	ff d7		 call	 edi

; 290  : 	this->m_CriticalDamageEffectDiv2			= GetPrivateProfileInt(MASTER_SKILL_CM, "CriticalDamageEffectDiv2", 600, MASTER_SKILL_DIR); 

  0135d	68 00 00 00 00	 push	 OFFSET ??_C@_0CA@JPCOALGP@?4?4?2Data?2ZtData?2MasterSkills?4ini?$AA@
  01362	68 58 02 00 00	 push	 600			; 00000258H
  01367	68 00 00 00 00	 push	 OFFSET ??_C@_0BJ@LGOEADME@CriticalDamageEffectDiv2?$AA@
  0136c	68 00 00 00 00	 push	 OFFSET ??_C@_0M@ECCCJHIK@MasterSkill?$AA@
  01371	66 89 86 a4 0c
	00 00		 mov	 WORD PTR [esi+3236], ax
  01378	ff d7		 call	 edi

; 291  : 	this->m_CriticalDamageEffectMax				= GetPrivateProfileInt(MASTER_SKILL_CM, "CriticalDamageEffectMax", 600, MASTER_SKILL_DIR); 

  0137a	68 00 00 00 00	 push	 OFFSET ??_C@_0CA@JPCOALGP@?4?4?2Data?2ZtData?2MasterSkills?4ini?$AA@
  0137f	68 58 02 00 00	 push	 600			; 00000258H
  01384	68 00 00 00 00	 push	 OFFSET ??_C@_0BI@KHGBJLAD@CriticalDamageEffectMax?$AA@
  01389	68 00 00 00 00	 push	 OFFSET ??_C@_0M@ECCCJHIK@MasterSkill?$AA@
  0138e	66 89 86 a6 0c
	00 00		 mov	 WORD PTR [esi+3238], ax
  01395	ff d7		 call	 edi

; 292  : 	this->m_CriticalDamageTimeStart				= GetPrivateProfileInt(MASTER_SKILL_CM, "CriticalDamageTimeStart", 600, MASTER_SKILL_DIR); 

  01397	68 00 00 00 00	 push	 OFFSET ??_C@_0CA@JPCOALGP@?4?4?2Data?2ZtData?2MasterSkills?4ini?$AA@
  0139c	68 58 02 00 00	 push	 600			; 00000258H
  013a1	68 00 00 00 00	 push	 OFFSET ??_C@_0BI@LBJFOHFM@CriticalDamageTimeStart?$AA@
  013a6	68 00 00 00 00	 push	 OFFSET ??_C@_0M@ECCCJHIK@MasterSkill?$AA@
  013ab	66 89 86 a8 0c
	00 00		 mov	 WORD PTR [esi+3240], ax
  013b2	ff d7		 call	 edi

; 293  : 	this->m_CriticalDamageTimeDiv				= GetPrivateProfileInt(MASTER_SKILL_CM, "CriticalDamageTimeDiv", 600, MASTER_SKILL_DIR); 

  013b4	68 00 00 00 00	 push	 OFFSET ??_C@_0CA@JPCOALGP@?4?4?2Data?2ZtData?2MasterSkills?4ini?$AA@
  013b9	68 58 02 00 00	 push	 600			; 00000258H
  013be	68 00 00 00 00	 push	 OFFSET ??_C@_0BG@IFFFDPA@CriticalDamageTimeDiv?$AA@
  013c3	68 00 00 00 00	 push	 OFFSET ??_C@_0M@ECCCJHIK@MasterSkill?$AA@
  013c8	66 89 86 aa 0c
	00 00		 mov	 WORD PTR [esi+3242], ax
  013cf	ff d7		 call	 edi

; 294  : 	this->m_CriticalDamageTimeMax				= GetPrivateProfileInt(MASTER_SKILL_CM, "CriticalDamageTimeMax", 600, MASTER_SKILL_DIR); 

  013d1	68 00 00 00 00	 push	 OFFSET ??_C@_0CA@JPCOALGP@?4?4?2Data?2ZtData?2MasterSkills?4ini?$AA@
  013d6	68 58 02 00 00	 push	 600			; 00000258H
  013db	68 00 00 00 00	 push	 OFFSET ??_C@_0BG@OFMNGAEM@CriticalDamageTimeMax?$AA@
  013e0	68 00 00 00 00	 push	 OFFSET ??_C@_0M@ECCCJHIK@MasterSkill?$AA@
  013e5	66 89 86 ac 0c
	00 00		 mov	 WORD PTR [esi+3244], ax
  013ec	ff d7		 call	 edi

; 295  : 	this->m_BerserkerManaIncDiv					= GetPrivateProfileInt(MASTER_SKILL_CM, "BerserkerManaIncDiv", 600, MASTER_SKILL_DIR); 

  013ee	68 00 00 00 00	 push	 OFFSET ??_C@_0CA@JPCOALGP@?4?4?2Data?2ZtData?2MasterSkills?4ini?$AA@
  013f3	68 58 02 00 00	 push	 600			; 00000258H
  013f8	68 00 00 00 00	 push	 OFFSET ??_C@_0BE@OIPBEFAB@BerserkerManaIncDiv?$AA@
  013fd	68 00 00 00 00	 push	 OFFSET ??_C@_0M@ECCCJHIK@MasterSkill?$AA@
  01402	89 86 b0 0c 00
	00		 mov	 DWORD PTR [esi+3248], eax
  01408	ff d7		 call	 edi

; 296  : 	this->m_BerserkerLifeDecDiv					= GetPrivateProfileInt(MASTER_SKILL_CM, "BerserkerLifeDecDiv", 600, MASTER_SKILL_DIR); 

  0140a	68 00 00 00 00	 push	 OFFSET ??_C@_0CA@JPCOALGP@?4?4?2Data?2ZtData?2MasterSkills?4ini?$AA@
  0140f	68 58 02 00 00	 push	 600			; 00000258H
  01414	68 00 00 00 00	 push	 OFFSET ??_C@_0BE@OCKOHNE@BerserkerLifeDecDiv?$AA@
  01419	68 00 00 00 00	 push	 OFFSET ??_C@_0M@ECCCJHIK@MasterSkill?$AA@
  0141e	66 89 86 b4 0c
	00 00		 mov	 WORD PTR [esi+3252], ax
  01425	ff d7		 call	 edi

; 297  : 	this->m_BerserkerTimeStart					= GetPrivateProfileInt(MASTER_SKILL_CM, "BerserkerTimeStart", 600, MASTER_SKILL_DIR); 

  01427	68 00 00 00 00	 push	 OFFSET ??_C@_0CA@JPCOALGP@?4?4?2Data?2ZtData?2MasterSkills?4ini?$AA@
  0142c	68 58 02 00 00	 push	 600			; 00000258H
  01431	68 00 00 00 00	 push	 OFFSET ??_C@_0BD@BHMKFOOP@BerserkerTimeStart?$AA@
  01436	68 00 00 00 00	 push	 OFFSET ??_C@_0M@ECCCJHIK@MasterSkill?$AA@
  0143b	66 89 86 b6 0c
	00 00		 mov	 WORD PTR [esi+3254], ax
  01442	ff d7		 call	 edi

; 298  : 	this->m_BerserkerTimeDiv					= GetPrivateProfileInt(MASTER_SKILL_CM, "BerserkerTimeDiv", 600, MASTER_SKILL_DIR); 

  01444	68 00 00 00 00	 push	 OFFSET ??_C@_0CA@JPCOALGP@?4?4?2Data?2ZtData?2MasterSkills?4ini?$AA@
  01449	68 58 02 00 00	 push	 600			; 00000258H
  0144e	68 00 00 00 00	 push	 OFFSET ??_C@_0BB@IFIKOEHI@BerserkerTimeDiv?$AA@
  01453	68 00 00 00 00	 push	 OFFSET ??_C@_0M@ECCCJHIK@MasterSkill?$AA@
  01458	66 89 86 b8 0c
	00 00		 mov	 WORD PTR [esi+3256], ax
  0145f	ff d7		 call	 edi

; 299  : 	this->m_BerserkerTimeMax					= GetPrivateProfileInt(MASTER_SKILL_CM, "BerserkerTimeMax", 600, MASTER_SKILL_DIR); 

  01461	68 00 00 00 00	 push	 OFFSET ??_C@_0CA@JPCOALGP@?4?4?2Data?2ZtData?2MasterSkills?4ini?$AA@
  01466	68 58 02 00 00	 push	 600			; 00000258H
  0146b	66 89 86 ba 0c
	00 00		 mov	 WORD PTR [esi+3258], ax
  01472	68 00 00 00 00	 push	 OFFSET ??_C@_0BB@GIBCNHME@BerserkerTimeMax?$AA@
  01477	68 00 00 00 00	 push	 OFFSET ??_C@_0M@ECCCJHIK@MasterSkill?$AA@
  0147c	ff d7		 call	 edi

; 300  : 	this->m_BerserkerProcentDamageMax				= GetPrivateProfileInt(MASTER_SKILL_CM, "BerserkerProcentDamageMax", 0, MASTER_SKILL_DIR); 

  0147e	68 00 00 00 00	 push	 OFFSET ??_C@_0CA@JPCOALGP@?4?4?2Data?2ZtData?2MasterSkills?4ini?$AA@
  01483	6a 00		 push	 0
  01485	68 00 00 00 00	 push	 OFFSET ??_C@_0BK@MKJOKFKE@BerserkerProcentDamageMax?$AA@
  0148a	68 00 00 00 00	 push	 OFFSET ??_C@_0M@ECCCJHIK@MasterSkill?$AA@
  0148f	89 86 bc 0c 00
	00		 mov	 DWORD PTR [esi+3260], eax
  01495	ff d7		 call	 edi

; 301  : 	this->m_BerserkerDefenceDivProcent	= GetPrivateProfileInt(MASTER_SKILL_CM, "BerserkerDefenceDivProcent", 10, MASTER_SKILL_DIR); 

  01497	68 00 00 00 00	 push	 OFFSET ??_C@_0CA@JPCOALGP@?4?4?2Data?2ZtData?2MasterSkills?4ini?$AA@
  0149c	6a 0a		 push	 10			; 0000000aH
  0149e	68 00 00 00 00	 push	 OFFSET ??_C@_0BL@OBKCINOG@BerserkerDefenceDivProcent?$AA@
  014a3	68 00 00 00 00	 push	 OFFSET ??_C@_0M@ECCCJHIK@MasterSkill?$AA@
  014a8	66 89 86 c0 0c
	00 00		 mov	 WORD PTR [esi+3264], ax
  014af	ff d7		 call	 edi

; 302  : 	this->m_ReflectEffectStart					= GetPrivateProfileInt(MASTER_SKILL_CM, "ReflectEffectStart", 600, MASTER_SKILL_DIR); 

  014b1	68 00 00 00 00	 push	 OFFSET ??_C@_0CA@JPCOALGP@?4?4?2Data?2ZtData?2MasterSkills?4ini?$AA@
  014b6	68 58 02 00 00	 push	 600			; 00000258H
  014bb	68 00 00 00 00	 push	 OFFSET ??_C@_0BD@DINJGEOO@ReflectEffectStart?$AA@
  014c0	68 00 00 00 00	 push	 OFFSET ??_C@_0M@ECCCJHIK@MasterSkill?$AA@
  014c5	66 89 86 c2 0c
	00 00		 mov	 WORD PTR [esi+3266], ax
  014cc	ff d7		 call	 edi

; 303  : 	this->m_ReflectEffectDiv					= GetPrivateProfileInt(MASTER_SKILL_CM, "ReflectEffectDiv", 600, MASTER_SKILL_DIR); 

  014ce	68 00 00 00 00	 push	 OFFSET ??_C@_0CA@JPCOALGP@?4?4?2Data?2ZtData?2MasterSkills?4ini?$AA@
  014d3	68 58 02 00 00	 push	 600			; 00000258H
  014d8	68 00 00 00 00	 push	 OFFSET ??_C@_0BB@BPODGPLG@ReflectEffectDiv?$AA@
  014dd	68 00 00 00 00	 push	 OFFSET ??_C@_0M@ECCCJHIK@MasterSkill?$AA@
  014e2	66 89 86 c4 0c
	00 00		 mov	 WORD PTR [esi+3268], ax
  014e9	ff d7		 call	 edi

; 304  : 	this->m_ReflectEffectMax					= GetPrivateProfileInt(MASTER_SKILL_CM, "ReflectEffectMax", 600, MASTER_SKILL_DIR); 

  014eb	68 00 00 00 00	 push	 OFFSET ??_C@_0CA@JPCOALGP@?4?4?2Data?2ZtData?2MasterSkills?4ini?$AA@
  014f0	68 58 02 00 00	 push	 600			; 00000258H
  014f5	68 00 00 00 00	 push	 OFFSET ??_C@_0BB@PCHLFMAK@ReflectEffectMax?$AA@
  014fa	68 00 00 00 00	 push	 OFFSET ??_C@_0M@ECCCJHIK@MasterSkill?$AA@
  014ff	66 89 86 c6 0c
	00 00		 mov	 WORD PTR [esi+3270], ax
  01506	ff d7		 call	 edi

; 305  : 	this->m_ReflectTimeStart					= GetPrivateProfileInt(MASTER_SKILL_CM, "ReflectTimeStart", 600, MASTER_SKILL_DIR); 

  01508	68 00 00 00 00	 push	 OFFSET ??_C@_0CA@JPCOALGP@?4?4?2Data?2ZtData?2MasterSkills?4ini?$AA@
  0150d	68 58 02 00 00	 push	 600			; 00000258H
  01512	68 00 00 00 00	 push	 OFFSET ??_C@_0BB@OEIPCAFF@ReflectTimeStart?$AA@
  01517	68 00 00 00 00	 push	 OFFSET ??_C@_0M@ECCCJHIK@MasterSkill?$AA@
  0151c	89 86 c8 0c 00
	00		 mov	 DWORD PTR [esi+3272], eax
  01522	ff d7		 call	 edi

; 306  : 	this->m_ReflectTimeDiv						= GetPrivateProfileInt(MASTER_SKILL_CM, "ReflectTimeDiv", 600, MASTER_SKILL_DIR); 

  01524	68 00 00 00 00	 push	 OFFSET ??_C@_0CA@JPCOALGP@?4?4?2Data?2ZtData?2MasterSkills?4ini?$AA@
  01529	68 58 02 00 00	 push	 600			; 00000258H
  0152e	68 00 00 00 00	 push	 OFFSET ??_C@_0P@DDPAIKCD@ReflectTimeDiv?$AA@
  01533	68 00 00 00 00	 push	 OFFSET ??_C@_0M@ECCCJHIK@MasterSkill?$AA@
  01538	66 89 86 cc 0c
	00 00		 mov	 WORD PTR [esi+3276], ax
  0153f	ff d7		 call	 edi

; 307  : 	this->m_ReflectTimeMax						= GetPrivateProfileInt(MASTER_SKILL_CM, "ReflectTimeMax", 600, MASTER_SKILL_DIR); 

  01541	68 00 00 00 00	 push	 OFFSET ??_C@_0CA@JPCOALGP@?4?4?2Data?2ZtData?2MasterSkills?4ini?$AA@
  01546	68 58 02 00 00	 push	 600			; 00000258H
  0154b	68 00 00 00 00	 push	 OFFSET ??_C@_0P@NOGILJJP@ReflectTimeMax?$AA@
  01550	68 00 00 00 00	 push	 OFFSET ??_C@_0M@ECCCJHIK@MasterSkill?$AA@
  01555	66 89 86 ce 0c
	00 00		 mov	 WORD PTR [esi+3278], ax
  0155c	ff d7		 call	 edi

; 308  : 	this->m_IgnoreDefenseEffectStart			= GetPrivateProfileInt(MASTER_SKILL_CM, "IgnoreDefenseEffectStart", 600, MASTER_SKILL_DIR); 

  0155e	68 00 00 00 00	 push	 OFFSET ??_C@_0CA@JPCOALGP@?4?4?2Data?2ZtData?2MasterSkills?4ini?$AA@
  01563	68 58 02 00 00	 push	 600			; 00000258H
  01568	68 00 00 00 00	 push	 OFFSET ??_C@_0BJ@OOADAFPG@IgnoreDefenseEffectStart?$AA@
  0156d	68 00 00 00 00	 push	 OFFSET ??_C@_0M@ECCCJHIK@MasterSkill?$AA@
  01572	89 86 d0 0c 00
	00		 mov	 DWORD PTR [esi+3280], eax
  01578	ff d7		 call	 edi

; 309  : 	this->m_IgnoreDefenseEffectSub				= GetPrivateProfileInt(MASTER_SKILL_CM, "IgnoreDefenseEffectSub", 600, MASTER_SKILL_DIR); 

  0157a	68 00 00 00 00	 push	 OFFSET ??_C@_0CA@JPCOALGP@?4?4?2Data?2ZtData?2MasterSkills?4ini?$AA@
  0157f	68 58 02 00 00	 push	 600			; 00000258H
  01584	68 00 00 00 00	 push	 OFFSET ??_C@_0BH@JNFEBFBK@IgnoreDefenseEffectSub?$AA@
  01589	68 00 00 00 00	 push	 OFFSET ??_C@_0M@ECCCJHIK@MasterSkill?$AA@
  0158e	66 89 86 d4 0c
	00 00		 mov	 WORD PTR [esi+3284], ax
  01595	ff d7		 call	 edi

; 310  : 	this->m_IgnoreDefenseEffectDiv				= GetPrivateProfileInt(MASTER_SKILL_CM, "IgnoreDefenseEffectDiv", 600, MASTER_SKILL_DIR); 

  01597	68 00 00 00 00	 push	 OFFSET ??_C@_0CA@JPCOALGP@?4?4?2Data?2ZtData?2MasterSkills?4ini?$AA@
  0159c	68 58 02 00 00	 push	 600			; 00000258H
  015a1	68 00 00 00 00	 push	 OFFSET ??_C@_0BH@GLAIPHHN@IgnoreDefenseEffectDiv?$AA@
  015a6	68 00 00 00 00	 push	 OFFSET ??_C@_0M@ECCCJHIK@MasterSkill?$AA@
  015ab	66 89 86 d6 0c
	00 00		 mov	 WORD PTR [esi+3286], ax
  015b2	ff d7		 call	 edi

; 311  : 	this->m_IgnoreDefenseEffectMax				= GetPrivateProfileInt(MASTER_SKILL_CM, "IgnoreDefenseEffectMax", 600, MASTER_SKILL_DIR); 

  015b4	68 00 00 00 00	 push	 OFFSET ??_C@_0CA@JPCOALGP@?4?4?2Data?2ZtData?2MasterSkills?4ini?$AA@
  015b9	68 58 02 00 00	 push	 600			; 00000258H
  015be	68 00 00 00 00	 push	 OFFSET ??_C@_0BH@IGJAMEMB@IgnoreDefenseEffectMax?$AA@
  015c3	68 00 00 00 00	 push	 OFFSET ??_C@_0M@ECCCJHIK@MasterSkill?$AA@
  015c8	66 89 86 d8 0c
	00 00		 mov	 WORD PTR [esi+3288], ax
  015cf	ff d7		 call	 edi

; 312  : 	this->m_IgnoreDefenseTimeStart				= GetPrivateProfileInt(MASTER_SKILL_CM, "IgnoreDefenseTimeStart", 600, MASTER_SKILL_DIR); 

  015d1	68 00 00 00 00	 push	 OFFSET ??_C@_0CA@JPCOALGP@?4?4?2Data?2ZtData?2MasterSkills?4ini?$AA@
  015d6	68 58 02 00 00	 push	 600			; 00000258H
  015db	68 00 00 00 00	 push	 OFFSET ??_C@_0BH@JAGELIJO@IgnoreDefenseTimeStart?$AA@
  015e0	68 00 00 00 00	 push	 OFFSET ??_C@_0M@ECCCJHIK@MasterSkill?$AA@
  015e5	89 86 dc 0c 00
	00		 mov	 DWORD PTR [esi+3292], eax
  015eb	ff d7		 call	 edi
  015ed	66 89 86 e0 0c
	00 00		 mov	 WORD PTR [esi+3296], ax

; 313  : 	this->m_IgnoreDefenseTimeDiv				= GetPrivateProfileInt(MASTER_SKILL_CM, "IgnoreDefenseTimeDiv", 600, MASTER_SKILL_DIR); 

  015f4	68 00 00 00 00	 push	 OFFSET ??_C@_0CA@JPCOALGP@?4?4?2Data?2ZtData?2MasterSkills?4ini?$AA@
  015f9	68 58 02 00 00	 push	 600			; 00000258H
  015fe	68 00 00 00 00	 push	 OFFSET ??_C@_0BF@HMHOBCNN@IgnoreDefenseTimeDiv?$AA@
  01603	68 00 00 00 00	 push	 OFFSET ??_C@_0M@ECCCJHIK@MasterSkill?$AA@
  01608	ff d7		 call	 edi

; 314  : 	this->m_IgnoreDefenseTimeMax				= GetPrivateProfileInt(MASTER_SKILL_CM, "IgnoreDefenseTimeMax", 600, MASTER_SKILL_DIR); 

  0160a	68 00 00 00 00	 push	 OFFSET ??_C@_0CA@JPCOALGP@?4?4?2Data?2ZtData?2MasterSkills?4ini?$AA@
  0160f	68 58 02 00 00	 push	 600			; 00000258H
  01614	68 00 00 00 00	 push	 OFFSET ??_C@_0BF@JBOGCBGB@IgnoreDefenseTimeMax?$AA@
  01619	68 00 00 00 00	 push	 OFFSET ??_C@_0M@ECCCJHIK@MasterSkill?$AA@
  0161e	66 89 86 e2 0c
	00 00		 mov	 WORD PTR [esi+3298], ax
  01625	ff d7		 call	 edi

; 315  : 	this->m_IncreaseHealthEffectStart			= GetPrivateProfileInt(MASTER_SKILL_CM, "IncreaseHealthEffectStart", 600, MASTER_SKILL_DIR); 

  01627	68 00 00 00 00	 push	 OFFSET ??_C@_0CA@JPCOALGP@?4?4?2Data?2ZtData?2MasterSkills?4ini?$AA@
  0162c	68 58 02 00 00	 push	 600			; 00000258H
  01631	68 00 00 00 00	 push	 OFFSET ??_C@_0BK@FJGKLFFF@IncreaseHealthEffectStart?$AA@
  01636	68 00 00 00 00	 push	 OFFSET ??_C@_0M@ECCCJHIK@MasterSkill?$AA@
  0163b	89 86 e4 0c 00
	00		 mov	 DWORD PTR [esi+3300], eax
  01641	ff d7		 call	 edi

; 316  : 	this->m_IncreaseHealthEffectSub				= GetPrivateProfileInt(MASTER_SKILL_CM, "IncreaseHealthEffectSub", 600, MASTER_SKILL_DIR); 

  01643	68 00 00 00 00	 push	 OFFSET ??_C@_0CA@JPCOALGP@?4?4?2Data?2ZtData?2MasterSkills?4ini?$AA@
  01648	68 58 02 00 00	 push	 600			; 00000258H
  0164d	68 00 00 00 00	 push	 OFFSET ??_C@_0BI@MKPMIJHJ@IncreaseHealthEffectSub?$AA@
  01652	68 00 00 00 00	 push	 OFFSET ??_C@_0M@ECCCJHIK@MasterSkill?$AA@
  01657	66 89 86 e8 0c
	00 00		 mov	 WORD PTR [esi+3304], ax
  0165e	ff d7		 call	 edi

; 317  : 
; 318  : 	//this->m_IncreaseHealthEffectDiv				= GetPrivateProfileInt("SkillInfo", "IncreaseHealthEffectDiv", 600, gDirPath.GetNewPath(lpszFileName)); 
; 319  : 	char szTempEx[256] = { 0 };

  01660	68 ff 00 00 00	 push	 255			; 000000ffH
  01665	8d 95 fd fe ff
	ff		 lea	 edx, DWORD PTR _szTempEx$[ebp+1]
  0166b	6a 00		 push	 0
  0166d	52		 push	 edx
  0166e	66 89 86 ea 0c
	00 00		 mov	 WORD PTR [esi+3306], ax
  01675	c6 85 fc fe ff
	ff 00		 mov	 BYTE PTR _szTempEx$[ebp], 0
  0167c	e8 00 00 00 00	 call	 _memset
  01681	83 c4 0c	 add	 esp, 12			; 0000000cH

; 320  : 	GetPrivateProfileString(MASTER_SKILL_CM, "DecTimePerAttackSpeed", "10.00", szTempEx, 256, MASTER_SKILL_DIR);

  01684	68 00 00 00 00	 push	 OFFSET ??_C@_0CA@JPCOALGP@?4?4?2Data?2ZtData?2MasterSkills?4ini?$AA@
  01689	68 00 01 00 00	 push	 256			; 00000100H
  0168e	8d 85 fc fe ff
	ff		 lea	 eax, DWORD PTR _szTempEx$[ebp]
  01694	50		 push	 eax
  01695	68 00 00 00 00	 push	 OFFSET ??_C@_05JLPKDJLM@10?400?$AA@
  0169a	68 00 00 00 00	 push	 OFFSET ??_C@_0BG@MPJHCBCJ@DecTimePerAttackSpeed?$AA@
  0169f	68 00 00 00 00	 push	 OFFSET ??_C@_0M@ECCCJHIK@MasterSkill?$AA@
  016a4	ff d3		 call	 ebx

; 321  : 	this->m_IncreaseHealthEffectDiv = atof(szTempEx);

  016a6	8d 8d fc fe ff
	ff		 lea	 ecx, DWORD PTR _szTempEx$[ebp]
  016ac	51		 push	 ecx
  016ad	e8 00 00 00 00	 call	 _atof
  016b2	d9 9e ec 0c 00
	00		 fstp	 DWORD PTR [esi+3308]
  016b8	83 c4 04	 add	 esp, 4

; 322  : 
; 323  : 	this->m_IncreaseHealthEffectMax				= GetPrivateProfileInt(MASTER_SKILL_CM, "IncreaseHealthEffectMax", 600, MASTER_SKILL_DIR); 

  016bb	68 00 00 00 00	 push	 OFFSET ??_C@_0CA@JPCOALGP@?4?4?2Data?2ZtData?2MasterSkills?4ini?$AA@
  016c0	68 58 02 00 00	 push	 600			; 00000258H
  016c5	68 00 00 00 00	 push	 OFFSET ??_C@_0BI@NBDIFIKC@IncreaseHealthEffectMax?$AA@
  016ca	68 00 00 00 00	 push	 OFFSET ??_C@_0M@ECCCJHIK@MasterSkill?$AA@
  016cf	ff d7		 call	 edi

; 324  : 	this->m_IncreaseHealthTimeStart				= GetPrivateProfileInt(MASTER_SKILL_CM, "IncreaseHealthTimeStart", 600, MASTER_SKILL_DIR); 

  016d1	68 00 00 00 00	 push	 OFFSET ??_C@_0CA@JPCOALGP@?4?4?2Data?2ZtData?2MasterSkills?4ini?$AA@
  016d6	68 58 02 00 00	 push	 600			; 00000258H
  016db	68 00 00 00 00	 push	 OFFSET ??_C@_0BI@MHMMCEPN@IncreaseHealthTimeStart?$AA@
  016e0	68 00 00 00 00	 push	 OFFSET ??_C@_0M@ECCCJHIK@MasterSkill?$AA@
  016e5	89 86 f0 0c 00
	00		 mov	 DWORD PTR [esi+3312], eax
  016eb	ff d7		 call	 edi

; 325  : 	this->m_IncreaseHealthTimeDiv				= GetPrivateProfileInt(MASTER_SKILL_CM, "IncreaseHealthTimeDiv", 600, MASTER_SKILL_DIR); 

  016ed	68 00 00 00 00	 push	 OFFSET ??_C@_0CA@JPCOALGP@?4?4?2Data?2ZtData?2MasterSkills?4ini?$AA@
  016f2	68 58 02 00 00	 push	 600			; 00000258H
  016f7	68 00 00 00 00	 push	 OFFSET ??_C@_0BG@OPFEMLKC@IncreaseHealthTimeDiv?$AA@
  016fc	68 00 00 00 00	 push	 OFFSET ??_C@_0M@ECCCJHIK@MasterSkill?$AA@
  01701	66 89 86 f4 0c
	00 00		 mov	 WORD PTR [esi+3316], ax
  01708	ff d7		 call	 edi

; 326  : 	this->m_IncreaseHealthTimeMax				= GetPrivateProfileInt(MASTER_SKILL_CM, "IncreaseHealthTimeMax", 600, MASTER_SKILL_DIR); 

  0170a	68 00 00 00 00	 push	 OFFSET ??_C@_0CA@JPCOALGP@?4?4?2Data?2ZtData?2MasterSkills?4ini?$AA@
  0170f	68 58 02 00 00	 push	 600			; 00000258H
  01714	68 00 00 00 00	 push	 OFFSET ??_C@_0BG@CMMPIBO@IncreaseHealthTimeMax?$AA@
  01719	68 00 00 00 00	 push	 OFFSET ??_C@_0M@ECCCJHIK@MasterSkill?$AA@
  0171e	66 89 86 f6 0c
	00 00		 mov	 WORD PTR [esi+3318], ax
  01725	ff d7		 call	 edi

; 327  : 	this->m_IncreaseBlockEffectStart			= GetPrivateProfileInt(MASTER_SKILL_CM, "IncreaseBlockEffectStart", 600, MASTER_SKILL_DIR); 

  01727	68 00 00 00 00	 push	 OFFSET ??_C@_0CA@JPCOALGP@?4?4?2Data?2ZtData?2MasterSkills?4ini?$AA@
  0172c	68 58 02 00 00	 push	 600			; 00000258H
  01731	68 00 00 00 00	 push	 OFFSET ??_C@_0BJ@MLOJIGOI@IncreaseBlockEffectStart?$AA@
  01736	68 00 00 00 00	 push	 OFFSET ??_C@_0M@ECCCJHIK@MasterSkill?$AA@
  0173b	89 86 f8 0c 00
	00		 mov	 DWORD PTR [esi+3320], eax
  01741	ff d7		 call	 edi

; 328  : 	this->m_IncreaseBlockEffectSub				= GetPrivateProfileInt(MASTER_SKILL_CM, "IncreaseBlockEffectSub", 600, MASTER_SKILL_DIR); 

  01743	68 00 00 00 00	 push	 OFFSET ??_C@_0CA@JPCOALGP@?4?4?2Data?2ZtData?2MasterSkills?4ini?$AA@
  01748	68 58 02 00 00	 push	 600			; 00000258H
  0174d	68 00 00 00 00	 push	 OFFSET ??_C@_0BH@KJNKHPEI@IncreaseBlockEffectSub?$AA@
  01752	68 00 00 00 00	 push	 OFFSET ??_C@_0M@ECCCJHIK@MasterSkill?$AA@
  01757	66 89 86 fc 0c
	00 00		 mov	 WORD PTR [esi+3324], ax
  0175e	ff d7		 call	 edi
  01760	66 89 86 fe 0c
	00 00		 mov	 WORD PTR [esi+3326], ax

; 329  : 	this->m_IncreaseBlockEffectDiv				= GetPrivateProfileInt(MASTER_SKILL_CM, "IncreaseBlockEffectDiv", 600, MASTER_SKILL_DIR); 

  01767	68 00 00 00 00	 push	 OFFSET ??_C@_0CA@JPCOALGP@?4?4?2Data?2ZtData?2MasterSkills?4ini?$AA@
  0176c	68 58 02 00 00	 push	 600			; 00000258H
  01771	68 00 00 00 00	 push	 OFFSET ??_C@_0BH@FPIGJNCP@IncreaseBlockEffectDiv?$AA@
  01776	68 00 00 00 00	 push	 OFFSET ??_C@_0M@ECCCJHIK@MasterSkill?$AA@
  0177b	ff d7		 call	 edi

; 330  : 	this->m_IncreaseBlockEffectMax				= GetPrivateProfileInt(MASTER_SKILL_CM, "IncreaseBlockEffectMax", 600, MASTER_SKILL_DIR); 

  0177d	68 00 00 00 00	 push	 OFFSET ??_C@_0CA@JPCOALGP@?4?4?2Data?2ZtData?2MasterSkills?4ini?$AA@
  01782	68 58 02 00 00	 push	 600			; 00000258H
  01787	68 00 00 00 00	 push	 OFFSET ??_C@_0BH@LCBOKOJD@IncreaseBlockEffectMax?$AA@
  0178c	68 00 00 00 00	 push	 OFFSET ??_C@_0M@ECCCJHIK@MasterSkill?$AA@
  01791	66 89 86 00 0d
	00 00		 mov	 WORD PTR [esi+3328], ax
  01798	ff d7		 call	 edi

; 331  : 	this->m_IncreaseBlockTimeStart				= GetPrivateProfileInt(MASTER_SKILL_CM, "IncreaseBlockTimeStart", 600, MASTER_SKILL_DIR); 

  0179a	68 00 00 00 00	 push	 OFFSET ??_C@_0CA@JPCOALGP@?4?4?2Data?2ZtData?2MasterSkills?4ini?$AA@
  0179f	68 58 02 00 00	 push	 600			; 00000258H
  017a4	68 00 00 00 00	 push	 OFFSET ??_C@_0BH@KEOKNCMM@IncreaseBlockTimeStart?$AA@
  017a9	68 00 00 00 00	 push	 OFFSET ??_C@_0M@ECCCJHIK@MasterSkill?$AA@
  017ae	89 86 04 0d 00
	00		 mov	 DWORD PTR [esi+3332], eax
  017b4	ff d7		 call	 edi

; 332  : 	this->m_IncreaseBlockTimeDiv				= GetPrivateProfileInt(MASTER_SKILL_CM, "IncreaseBlockTimeDiv", 600, MASTER_SKILL_DIR); 

  017b6	68 00 00 00 00	 push	 OFFSET ??_C@_0CA@JPCOALGP@?4?4?2Data?2ZtData?2MasterSkills?4ini?$AA@
  017bb	68 58 02 00 00	 push	 600			; 00000258H
  017c0	68 00 00 00 00	 push	 OFFSET ??_C@_0BF@BKDJGFNH@IncreaseBlockTimeDiv?$AA@
  017c5	68 00 00 00 00	 push	 OFFSET ??_C@_0M@ECCCJHIK@MasterSkill?$AA@
  017ca	66 89 86 08 0d
	00 00		 mov	 WORD PTR [esi+3336], ax
  017d1	ff d7		 call	 edi

; 333  : 	this->m_IncreaseBlockTimeMax				= GetPrivateProfileInt(MASTER_SKILL_CM, "IncreaseBlockTimeMax", 600, MASTER_SKILL_DIR); 

  017d3	68 00 00 00 00	 push	 OFFSET ??_C@_0CA@JPCOALGP@?4?4?2Data?2ZtData?2MasterSkills?4ini?$AA@
  017d8	68 58 02 00 00	 push	 600			; 00000258H
  017dd	68 00 00 00 00	 push	 OFFSET ??_C@_0BF@PHKBFGGL@IncreaseBlockTimeMax?$AA@
  017e2	68 00 00 00 00	 push	 OFFSET ??_C@_0M@ECCCJHIK@MasterSkill?$AA@
  017e7	66 89 86 0a 0d
	00 00		 mov	 WORD PTR [esi+3338], ax
  017ee	ff d7		 call	 edi

; 334  : 	// ----
; 335  : 	//this->m_WeaknessEffectStartVsMob			= GetPrivateProfileInt(MASTER_SKILL_CM, "WeaknessEffectStartVsMob", 4, MASTER_SKILL_DIR);
; 336  : 	//this->m_WeaknessEffectDivVsMob				= GetPrivateProfileInt(MASTER_SKILL_CM, "WeaknessEffectDivVsMob", 58, MASTER_SKILL_DIR);
; 337  : 	//this->m_WeaknessEffectMaxVsMob				= GetPrivateProfileInt(MASTER_SKILL_CM, "WeaknessEffectMaxVsMob", 0, MASTER_SKILL_DIR);
; 338  : 
; 339  : 	//this->m_WeaknessTimeStartVsMob				= GetPrivateProfileInt(MASTER_SKILL_CM, "WeaknessTimeStartVsMob", 4, MASTER_SKILL_DIR);
; 340  : 	//this->m_WeaknessTimeDivVsMob				= GetPrivateProfileInt(MASTER_SKILL_CM, "WeaknessTimeDivVsMob", 100, MASTER_SKILL_DIR);
; 341  : 	//this->m_WeaknessTimeMaxVsMob				= GetPrivateProfileInt(MASTER_SKILL_CM, "WeaknessTimeMaxVsMob", 0, MASTER_SKILL_DIR);
; 342  : 
; 343  : 	//this->m_WeaknessEffectStartVsUser			= GetPrivateProfileInt(MASTER_SKILL_CM, "WeaknessEffectStartVsUser", 3, MASTER_SKILL_DIR);
; 344  : 	//this->m_WeaknessEffectDivVsUser				= GetPrivateProfileInt(MASTER_SKILL_CM, "WeaknessEffectDivVsUser", 93, MASTER_SKILL_DIR);
; 345  : 	//this->m_WeaknessEffectMaxVsUser				= GetPrivateProfileInt(MASTER_SKILL_CM, "WeaknessEffectMaxVsUser", 72, MASTER_SKILL_DIR);
; 346  : 
; 347  : 	//this->m_WeaknessTimeStartVsUser				= GetPrivateProfileInt(MASTER_SKILL_CM, "WeaknessTimeStartVsUser", 5, MASTER_SKILL_DIR);
; 348  : 	//this->m_WeaknessTimeDivVsUser				= GetPrivateProfileInt(MASTER_SKILL_CM, "WeaknessTimeDivVsUser", 300, MASTER_SKILL_DIR);
; 349  : 	//this->m_WeaknessTimeMaxVsUser				= GetPrivateProfileInt(MASTER_SKILL_CM, "WeaknessTimeMaxVsUser", 0, MASTER_SKILL_DIR);
; 350  : 	//// ----
; 351  : 	//this->m_InnovationEffectStartVsMob			= GetPrivateProfileInt(MASTER_SKILL_CM, "InnovationEffectStartVsMob", 20, MASTER_SKILL_DIR);
; 352  : 	//this->m_InnovationEffectDivVsMob			= GetPrivateProfileInt(MASTER_SKILL_CM, "InnovationEffectDivVsMob", 90, MASTER_SKILL_DIR);
; 353  : 	//this->m_InnovationEffectMaxVsMob			= GetPrivateProfileInt(MASTER_SKILL_CM, "InnovationEffectMaxVsMob", 0, MASTER_SKILL_DIR);
; 354  : 
; 355  : 	//this->m_InnovationTimeStartVsMob			= GetPrivateProfileInt(MASTER_SKILL_CM, "InnovationTimeStartVsMob", 4, MASTER_SKILL_DIR);
; 356  : 	//this->m_InnovationTimeDivVsMob				= GetPrivateProfileInt(MASTER_SKILL_CM, "InnovationTimeDivVsMob", 100, MASTER_SKILL_DIR);
; 357  : 	//this->m_InnovationTimeMaxVsMob				= GetPrivateProfileInt(MASTER_SKILL_CM, "InnovationTimeMaxVsMob", 0, MASTER_SKILL_DIR);
; 358  : 
; 359  : 	//this->m_InnovationEffectStartVsUser			= GetPrivateProfileInt(MASTER_SKILL_CM, "InnovationEffectStartVsUser", 12, MASTER_SKILL_DIR);
; 360  : 	//this->m_InnovationEffectDivVsUser			= GetPrivateProfileInt(MASTER_SKILL_CM, "InnovationEffectDivVsUser", 110, MASTER_SKILL_DIR);
; 361  : 	//this->m_InnovationEffectMaxVsUser			= GetPrivateProfileInt(MASTER_SKILL_CM, "InnovationEffectMaxVsUser", 0, MASTER_SKILL_DIR);
; 362  : 
; 363  : 	//this->m_InnovationTimeStartVsUser			= GetPrivateProfileInt(MASTER_SKILL_CM, "InnovationTimeStartVsUser", 5, MASTER_SKILL_DIR);
; 364  : 	//this->m_InnovationTimeDivVsUser				= GetPrivateProfileInt(MASTER_SKILL_CM, "InnovationTimeDivVsUser", 300, MASTER_SKILL_DIR);
; 365  : 	//this->m_InnovationTimeMaxVsUser				= GetPrivateProfileInt(MASTER_SKILL_CM, "InnovationTimeMaxVsUser", 0, MASTER_SKILL_DIR);	
; 366  : 	//// ----
; 367  : 
; 368  : 	this->m_SleepRateStartVsMob					= GetPrivateProfileInt(MASTER_SKILL_CM, "SleepRateStartVsMob", 20, MASTER_SKILL_DIR);

  017f0	68 00 00 00 00	 push	 OFFSET ??_C@_0CA@JPCOALGP@?4?4?2Data?2ZtData?2MasterSkills?4ini?$AA@
  017f5	6a 14		 push	 20			; 00000014H
  017f7	68 00 00 00 00	 push	 OFFSET ??_C@_0BE@BNLKCCNC@SleepRateStartVsMob?$AA@
  017fc	68 00 00 00 00	 push	 OFFSET ??_C@_0M@ECCCJHIK@MasterSkill?$AA@
  01801	89 86 0c 0d 00
	00		 mov	 DWORD PTR [esi+3340], eax
  01807	ff d7		 call	 edi

; 369  : 	this->m_SleepRateDivVsMob					= GetPrivateProfileInt(MASTER_SKILL_CM, "SleepRateDivVsMob", 30, MASTER_SKILL_DIR);

  01809	68 00 00 00 00	 push	 OFFSET ??_C@_0CA@JPCOALGP@?4?4?2Data?2ZtData?2MasterSkills?4ini?$AA@
  0180e	6a 1e		 push	 30			; 0000001eH
  01810	68 00 00 00 00	 push	 OFFSET ??_C@_0BC@KBJCNCPE@SleepRateDivVsMob?$AA@
  01815	68 00 00 00 00	 push	 OFFSET ??_C@_0M@ECCCJHIK@MasterSkill?$AA@
  0181a	66 89 86 10 0d
	00 00		 mov	 WORD PTR [esi+3344], ax
  01821	ff d7		 call	 edi

; 370  : 	this->m_SleepRateMaxVsMob					= GetPrivateProfileInt(MASTER_SKILL_CM, "SleepRateMaxVsMob", 0, MASTER_SKILL_DIR);

  01823	68 00 00 00 00	 push	 OFFSET ??_C@_0CA@JPCOALGP@?4?4?2Data?2ZtData?2MasterSkills?4ini?$AA@
  01828	6a 00		 push	 0
  0182a	68 00 00 00 00	 push	 OFFSET ??_C@_0BC@IOOLAEEH@SleepRateMaxVsMob?$AA@
  0182f	68 00 00 00 00	 push	 OFFSET ??_C@_0M@ECCCJHIK@MasterSkill?$AA@
  01834	66 89 86 12 0d
	00 00		 mov	 WORD PTR [esi+3346], ax
  0183b	ff d7		 call	 edi

; 371  : 
; 372  : 	this->m_SleepRateStartVsUser				= GetPrivateProfileInt(MASTER_SKILL_CM, "SleepRateStartVsUser", 15, MASTER_SKILL_DIR);

  0183d	68 00 00 00 00	 push	 OFFSET ??_C@_0CA@JPCOALGP@?4?4?2Data?2ZtData?2MasterSkills?4ini?$AA@
  01842	6a 0f		 push	 15			; 0000000fH
  01844	68 00 00 00 00	 push	 OFFSET ??_C@_0BF@DKNJDAEP@SleepRateStartVsUser?$AA@
  01849	68 00 00 00 00	 push	 OFFSET ??_C@_0M@ECCCJHIK@MasterSkill?$AA@
  0184e	66 89 86 14 0d
	00 00		 mov	 WORD PTR [esi+3348], ax
  01855	ff d7		 call	 edi

; 373  : 	this->m_SleepRateDivVsUser					= GetPrivateProfileInt(MASTER_SKILL_CM, "SleepRateDivVsUser", 37, MASTER_SKILL_DIR);

  01857	68 00 00 00 00	 push	 OFFSET ??_C@_0CA@JPCOALGP@?4?4?2Data?2ZtData?2MasterSkills?4ini?$AA@
  0185c	6a 25		 push	 37			; 00000025H
  0185e	68 00 00 00 00	 push	 OFFSET ??_C@_0BD@OIGIJNEC@SleepRateDivVsUser?$AA@
  01863	68 00 00 00 00	 push	 OFFSET ??_C@_0M@ECCCJHIK@MasterSkill?$AA@
  01868	66 89 86 1c 0d
	00 00		 mov	 WORD PTR [esi+3356], ax
  0186f	ff d7		 call	 edi

; 374  : 	this->m_SleepRateMaxVsUser					= GetPrivateProfileInt(MASTER_SKILL_CM, "SleepRateMaxVsUser", 0, MASTER_SKILL_DIR);

  01871	68 00 00 00 00	 push	 OFFSET ??_C@_0CA@JPCOALGP@?4?4?2Data?2ZtData?2MasterSkills?4ini?$AA@
  01876	6a 00		 push	 0
  01878	68 00 00 00 00	 push	 OFFSET ??_C@_0BD@LKCPAGKC@SleepRateMaxVsUser?$AA@
  0187d	68 00 00 00 00	 push	 OFFSET ??_C@_0M@ECCCJHIK@MasterSkill?$AA@
  01882	66 89 86 1e 0d
	00 00		 mov	 WORD PTR [esi+3358], ax
  01889	ff d7		 call	 edi

; 375  : 
; 376  : 	this->m_SleepTimeStartVsMob					= GetPrivateProfileInt(MASTER_SKILL_CM, "SleepTimeStartVsMob", 5, MASTER_SKILL_DIR);

  0188b	68 00 00 00 00	 push	 OFFSET ??_C@_0CA@JPCOALGP@?4?4?2Data?2ZtData?2MasterSkills?4ini?$AA@
  01890	6a 05		 push	 5
  01892	68 00 00 00 00	 push	 OFFSET ??_C@_0BE@DPILEECE@SleepTimeStartVsMob?$AA@
  01897	68 00 00 00 00	 push	 OFFSET ??_C@_0M@ECCCJHIK@MasterSkill?$AA@
  0189c	66 89 86 20 0d
	00 00		 mov	 WORD PTR [esi+3360], ax
  018a3	ff d7		 call	 edi

; 377  : 	this->m_SleepTimeDivVsMob					= GetPrivateProfileInt(MASTER_SKILL_CM, "SleepTimeDivVsMob", 100, MASTER_SKILL_DIR);

  018a5	68 00 00 00 00	 push	 OFFSET ??_C@_0CA@JPCOALGP@?4?4?2Data?2ZtData?2MasterSkills?4ini?$AA@
  018aa	6a 64		 push	 100			; 00000064H
  018ac	68 00 00 00 00	 push	 OFFSET ??_C@_0BC@NCMAIBJJ@SleepTimeDivVsMob?$AA@
  018b1	68 00 00 00 00	 push	 OFFSET ??_C@_0M@ECCCJHIK@MasterSkill?$AA@
  018b6	66 89 86 16 0d
	00 00		 mov	 WORD PTR [esi+3350], ax
  018bd	ff d7		 call	 edi

; 378  : 	this->m_SleepTimeMaxVsMob					= GetPrivateProfileInt(MASTER_SKILL_CM, "SleepTimeMaxVsMob", 0, MASTER_SKILL_DIR);

  018bf	68 00 00 00 00	 push	 OFFSET ??_C@_0CA@JPCOALGP@?4?4?2Data?2ZtData?2MasterSkills?4ini?$AA@
  018c4	6a 00		 push	 0
  018c6	68 00 00 00 00	 push	 OFFSET ??_C@_0BC@PNLJFHCK@SleepTimeMaxVsMob?$AA@
  018cb	66 89 86 18 0d
	00 00		 mov	 WORD PTR [esi+3352], ax
  018d2	68 00 00 00 00	 push	 OFFSET ??_C@_0M@ECCCJHIK@MasterSkill?$AA@
  018d7	ff d7		 call	 edi

; 379  : 
; 380  : 	this->m_SleepTimeStartVsUser				= GetPrivateProfileInt(MASTER_SKILL_CM, "SleepTimeStartVsUser", 4, MASTER_SKILL_DIR);

  018d9	68 00 00 00 00	 push	 OFFSET ??_C@_0CA@JPCOALGP@?4?4?2Data?2ZtData?2MasterSkills?4ini?$AA@
  018de	6a 04		 push	 4
  018e0	68 00 00 00 00	 push	 OFFSET ??_C@_0BF@GOCFFGAA@SleepTimeStartVsUser?$AA@
  018e5	68 00 00 00 00	 push	 OFFSET ??_C@_0M@ECCCJHIK@MasterSkill?$AA@
  018ea	66 89 86 1a 0d
	00 00		 mov	 WORD PTR [esi+3354], ax
  018f1	ff d7		 call	 edi

; 381  : 	this->m_SleepTimeDivVsUser					= GetPrivateProfileInt(MASTER_SKILL_CM, "SleepTimeDivVsUser", 250, MASTER_SKILL_DIR);

  018f3	68 00 00 00 00	 push	 OFFSET ??_C@_0CA@JPCOALGP@?4?4?2Data?2ZtData?2MasterSkills?4ini?$AA@
  018f8	68 fa 00 00 00	 push	 250			; 000000faH
  018fd	68 00 00 00 00	 push	 OFFSET ??_C@_0BD@NLBINCPE@SleepTimeDivVsUser?$AA@
  01902	68 00 00 00 00	 push	 OFFSET ??_C@_0M@ECCCJHIK@MasterSkill?$AA@
  01907	66 89 86 22 0d
	00 00		 mov	 WORD PTR [esi+3362], ax
  0190e	ff d7		 call	 edi

; 382  : 	this->m_SleepTimeMaxVsUser					= GetPrivateProfileInt(MASTER_SKILL_CM, "SleepTimeMaxVsUser", 0, MASTER_SKILL_DIR);

  01910	68 00 00 00 00	 push	 OFFSET ??_C@_0CA@JPCOALGP@?4?4?2Data?2ZtData?2MasterSkills?4ini?$AA@
  01915	6a 00		 push	 0
  01917	68 00 00 00 00	 push	 OFFSET ??_C@_0BD@IJFPEJBE@SleepTimeMaxVsUser?$AA@
  0191c	68 00 00 00 00	 push	 OFFSET ??_C@_0M@ECCCJHIK@MasterSkill?$AA@
  01921	66 89 86 24 0d
	00 00		 mov	 WORD PTR [esi+3364], ax
  01928	ff d7		 call	 edi
  0192a	66 89 86 26 0d
	00 00		 mov	 WORD PTR [esi+3366], ax

; 383  : 
; 384  : 	LogAddTD("[Skill Addition Info] [SoulBarrier Strengrhen] BaseSkill(Level0):%d, Level1:%d, 2:%d, 3:%d, 4:%d, 5:%d", this->m_wSoulBarrierManaRateLevel[0], this->m_wSoulBarrierManaRateLevel[1], this->m_wSoulBarrierManaRateLevel[2], this->m_wSoulBarrierManaRateLevel[3], this->m_wSoulBarrierManaRateLevel[4], this->m_wSoulBarrierManaRateLevel[5]);

  01931	0f bf 56 3e	 movsx	 edx, WORD PTR [esi+62]
  01935	0f bf 46 3c	 movsx	 eax, WORD PTR [esi+60]
  01939	0f bf 4e 3a	 movsx	 ecx, WORD PTR [esi+58]
  0193d	52		 push	 edx
  0193e	0f bf 56 38	 movsx	 edx, WORD PTR [esi+56]
  01942	50		 push	 eax
  01943	0f bf 46 36	 movsx	 eax, WORD PTR [esi+54]
  01947	51		 push	 ecx
  01948	0f bf 4e 34	 movsx	 ecx, WORD PTR [esi+52]
  0194c	52		 push	 edx
  0194d	50		 push	 eax
  0194e	51		 push	 ecx
  0194f	68 00 00 00 00	 push	 OFFSET ??_C@_0GH@IFKPHEDI@?$FLSkill?5Addition?5Info?$FN?5?$FLSoulBarri@
  01954	ff 15 00 00 00
	00		 call	 DWORD PTR ?LogAddTD@@3P6AXPADZZA ; LogAddTD
  0195a	83 c4 1c	 add	 esp, 28			; 0000001cH
  0195d	5f		 pop	 edi
  0195e	5e		 pop	 esi

; 385  : 
; 386  : 	return TRUE;

  0195f	b8 01 00 00 00	 mov	 eax, 1
  01964	5b		 pop	 ebx

; 387  : }

  01965	8b 4d fc	 mov	 ecx, DWORD PTR __$ArrayPad$[ebp]
  01968	33 cd		 xor	 ecx, ebp
  0196a	e8 00 00 00 00	 call	 @__security_check_cookie@4
  0196f	8b e5		 mov	 esp, ebp
  01971	5d		 pop	 ebp
  01972	c2 04 00	 ret	 4
$LN8@Load:

; 48   : 	{
; 49   : 		LogAddTD("[Skill Addition Info] - File load error : File Name Error");

  01975	68 00 00 00 00	 push	 OFFSET ??_C@_0DK@MKBKHGKF@?$FLSkill?5Addition?5Info?$FN?5?9?5File?5loa@
  0197a	ff 15 00 00 00
	00		 call	 DWORD PTR ?LogAddTD@@3P6AXPADZZA ; LogAddTD

; 387  : }

  01980	8b 4d fc	 mov	 ecx, DWORD PTR __$ArrayPad$[ebp]
  01983	83 c4 04	 add	 esp, 4
  01986	5f		 pop	 edi
  01987	5e		 pop	 esi
  01988	33 cd		 xor	 ecx, ebp
  0198a	33 c0		 xor	 eax, eax
  0198c	5b		 pop	 ebx
  0198d	e8 00 00 00 00	 call	 @__security_check_cookie@4
  01992	8b e5		 mov	 esp, ebp
  01994	5d		 pop	 ebp
  01995	c2 04 00	 ret	 4
$LN24@Load:
?Load@CSkillAdditionInfo@@QAEHPAD@Z ENDP		; CSkillAdditionInfo::Load
_TEXT	ENDS
PUBLIC	?GetSoulBarrierManaRateLevel@CSkillAdditionInfo@@QAEFH@Z ; CSkillAdditionInfo::GetSoulBarrierManaRateLevel
; Function compile flags: /Ogtp
;	COMDAT ?GetSoulBarrierManaRateLevel@CSkillAdditionInfo@@QAEFH@Z
_TEXT	SEGMENT
_iLevel$ = 8						; size = 4
?GetSoulBarrierManaRateLevel@CSkillAdditionInfo@@QAEFH@Z PROC ; CSkillAdditionInfo::GetSoulBarrierManaRateLevel, COMDAT
; _this$ = ecx

; 390  : {

  00000	55		 push	 ebp
  00001	8b ec		 mov	 ebp, esp

; 391  : 	if(iLevel < 0 || 
; 392  : 		iLevel > 20
; 393  : 		)

  00003	8b 45 08	 mov	 eax, DWORD PTR _iLevel$[ebp]
  00006	83 f8 14	 cmp	 eax, 20			; 00000014H
  00009	77 09		 ja	 SHORT $LN1@GetSoulBar

; 396  : 	}
; 397  : 
; 398  : 	return this->m_wSoulBarrierManaRateLevel[iLevel];

  0000b	66 8b 44 41 34	 mov	 ax, WORD PTR [ecx+eax*2+52]

; 399  : }

  00010	5d		 pop	 ebp
  00011	c2 04 00	 ret	 4
$LN1@GetSoulBar:

; 394  : 	{
; 395  : 		return 20;

  00014	b8 14 00 00 00	 mov	 eax, 20			; 00000014H

; 399  : }

  00019	5d		 pop	 ebp
  0001a	c2 04 00	 ret	 4
?GetSoulBarrierManaRateLevel@CSkillAdditionInfo@@QAEFH@Z ENDP ; CSkillAdditionInfo::GetSoulBarrierManaRateLevel
_TEXT	ENDS
PUBLIC	??0CSkillAdditionInfo@@QAE@XZ			; CSkillAdditionInfo::CSkillAdditionInfo
; Function compile flags: /Ogtp
;	COMDAT ??0CSkillAdditionInfo@@QAE@XZ
_TEXT	SEGMENT
??0CSkillAdditionInfo@@QAE@XZ PROC			; CSkillAdditionInfo::CSkillAdditionInfo, COMDAT
; _this$ = ecx

; 18   : {

  00000	56		 push	 esi
  00001	8b f1		 mov	 esi, ecx
  00003	c7 06 00 00 00
	00		 mov	 DWORD PTR [esi], OFFSET ??_7CSkillAdditionInfo@@6B@

; 19   : 	this->Init();

  00009	e8 00 00 00 00	 call	 ?Init@CSkillAdditionInfo@@QAEXXZ ; CSkillAdditionInfo::Init

; 20   : }

  0000e	8b c6		 mov	 eax, esi
  00010	5e		 pop	 esi
  00011	c3		 ret	 0
??0CSkillAdditionInfo@@QAE@XZ ENDP			; CSkillAdditionInfo::CSkillAdditionInfo
_TEXT	ENDS
EXTRN	??3@YAXPAX@Z:PROC				; operator delete
; Function compile flags: /Ogtp
;	COMDAT ??_GCSkillAdditionInfo@@UAEPAXI@Z
_TEXT	SEGMENT
___flags$ = 8						; size = 4
??_GCSkillAdditionInfo@@UAEPAXI@Z PROC			; CSkillAdditionInfo::`scalar deleting destructor', COMDAT
; _this$ = ecx
  00000	55		 push	 ebp
  00001	8b ec		 mov	 ebp, esp
  00003	56		 push	 esi
  00004	8b f1		 mov	 esi, ecx
  00006	e8 00 00 00 00	 call	 ??1CSkillAdditionInfo@@UAE@XZ ; CSkillAdditionInfo::~CSkillAdditionInfo
  0000b	f6 45 08 01	 test	 BYTE PTR ___flags$[ebp], 1
  0000f	74 09		 je	 SHORT $LN4@scalar
  00011	56		 push	 esi
  00012	e8 00 00 00 00	 call	 ??3@YAXPAX@Z		; operator delete
  00017	83 c4 04	 add	 esp, 4
$LN4@scalar:
  0001a	8b c6		 mov	 eax, esi
  0001c	5e		 pop	 esi
  0001d	5d		 pop	 ebp
  0001e	c2 04 00	 ret	 4
??_GCSkillAdditionInfo@@UAEPAXI@Z ENDP			; CSkillAdditionInfo::`scalar deleting destructor'
_TEXT	ENDS
EXTRN	_atexit:PROC
; Function compile flags: /Ogtp
;	COMDAT ??__Eg_SkillAdditionInfo@@YAXXZ
text$yc	SEGMENT
??__Eg_SkillAdditionInfo@@YAXXZ PROC			; `dynamic initializer for 'g_SkillAdditionInfo'', COMDAT

; 11   : CSkillAdditionInfo g_SkillAdditionInfo;

  00000	b9 00 00 00 00	 mov	 ecx, OFFSET ?g_SkillAdditionInfo@@3VCSkillAdditionInfo@@A ; g_SkillAdditionInfo
  00005	e8 00 00 00 00	 call	 ??0CSkillAdditionInfo@@QAE@XZ ; CSkillAdditionInfo::CSkillAdditionInfo
  0000a	68 00 00 00 00	 push	 OFFSET ??__Fg_SkillAdditionInfo@@YAXXZ ; `dynamic atexit destructor for 'g_SkillAdditionInfo''
  0000f	e8 00 00 00 00	 call	 _atexit
  00014	59		 pop	 ecx
  00015	c3		 ret	 0
??__Eg_SkillAdditionInfo@@YAXXZ ENDP			; `dynamic initializer for 'g_SkillAdditionInfo''
; Function compile flags: /Ogtp
text$yc	ENDS
;	COMDAT ??__Fg_SkillAdditionInfo@@YAXXZ
text$yd	SEGMENT
??__Fg_SkillAdditionInfo@@YAXXZ PROC			; `dynamic atexit destructor for 'g_SkillAdditionInfo'', COMDAT
  00000	b9 00 00 00 00	 mov	 ecx, OFFSET ?g_SkillAdditionInfo@@3VCSkillAdditionInfo@@A ; g_SkillAdditionInfo
  00005	e9 00 00 00 00	 jmp	 ??1CSkillAdditionInfo@@UAE@XZ ; CSkillAdditionInfo::~CSkillAdditionInfo
??__Fg_SkillAdditionInfo@@YAXXZ ENDP			; `dynamic atexit destructor for 'g_SkillAdditionInfo''
text$yd	ENDS
PUBLIC	?g_SkillAdditionInfo@@3VCSkillAdditionInfo@@A	; g_SkillAdditionInfo
_BSS	SEGMENT
?g_SkillAdditionInfo@@3VCSkillAdditionInfo@@A DB 0d28H DUP (?) ; g_SkillAdditionInfo
_BSS	ENDS
CRT$XCU	SEGMENT
_g_SkillAdditionInfo$initializer$ DD FLAT:??__Eg_SkillAdditionInfo@@YAXXZ
CRT$XCU	ENDS
END
