; Listing generated by Microsoft (R) Optimizing Compiler Version 16.00.30319.01 

	TITLE	E:\work\tranet_version\GS\GameServer\SocketSphere.cpp
	.686P
	.XMM
	include listing.inc
	.model	flat

INCLUDELIB LIBCMT
INCLUDELIB OLDNAMES

PUBLIC	?GetItemIndex@CSeedSphere@@QAEHXZ		; CSeedSphere::GetItemIndex
; Function compile flags: /Ogtp
; File e:\work\tranet_version\gs\gameserver\socketsphere.cpp
;	COMDAT ?GetItemIndex@CSeedSphere@@QAEHXZ
_TEXT	SEGMENT
?GetItemIndex@CSeedSphere@@QAEHXZ PROC			; CSeedSphere::GetItemIndex, COMDAT
; _this$ = ecx

; 26   : 	return this->m_iItemIndex;

  00000	8b 41 04	 mov	 eax, DWORD PTR [ecx+4]

; 27   : }

  00003	c3		 ret	 0
?GetItemIndex@CSeedSphere@@QAEHXZ ENDP			; CSeedSphere::GetItemIndex
_TEXT	ENDS
PUBLIC	?ClearData@CSocketSphere@@QAEXXZ		; CSocketSphere::ClearData
; Function compile flags: /Ogtp
;	COMDAT ?ClearData@CSocketSphere@@QAEXXZ
_TEXT	SEGMENT
?ClearData@CSocketSphere@@QAEXXZ PROC			; CSocketSphere::ClearData, COMDAT
; _this$ = ecx

; 32   : 	this->m_btOptionIndex = 0;

  00000	33 c0		 xor	 eax, eax
  00002	89 01		 mov	 DWORD PTR [ecx], eax

; 33   : 	this->m_btEffectType = 0;
; 34   : 	this->m_btElementIndex = 0;
; 35   : 	this->m_btElementType = 0;
; 36   : 	this->m_btOptionType = 0;

  00004	66 89 41 04	 mov	 WORD PTR [ecx+4], ax

; 37   : 	this->m_btOptionValue = 0;
; 38   : 	this->m_iOptionRate = 0;

  00008	89 41 08	 mov	 DWORD PTR [ecx+8], eax

; 39   : 
; 40   : 	for(int n = 0;n < 5;n++)
; 41   : 	{
; 42   : 		this->m_btSocketSlot[n] = 0;

  0000b	89 41 0c	 mov	 DWORD PTR [ecx+12], eax
  0000e	66 89 41 10	 mov	 WORD PTR [ecx+16], ax

; 43   : 	}
; 44   : 
; 45   : 	this->m_btSocketSlotCount = 0;
; 46   : }

  00012	c3		 ret	 0
?ClearData@CSocketSphere@@QAEXXZ ENDP			; CSocketSphere::ClearData
_TEXT	ENDS
END
