; Listing generated by Microsoft (R) Optimizing Compiler Version 16.00.30319.01 

	TITLE	E:\work\tranet_version\GS\GameServer\TMonsterSkillUnit.cpp
	.686P
	.XMM
	include listing.inc
	.model	flat

INCLUDELIB LIBCMT
INCLUDELIB OLDNAMES

PUBLIC	?s_bDataLoad@TMonsterSkillUnit@@2HA		; TMonsterSkillUnit::s_bDataLoad
_BSS	SEGMENT
?s_bDataLoad@TMonsterSkillUnit@@2HA DD 01H DUP (?)	; TMonsterSkillUnit::s_bDataLoad
_BSS	ENDS
PUBLIC	__$ArrayPad$
EXTRN	_isalnum:PROC
EXTRN	_isalpha:PROC
EXTRN	_atof:PROC
EXTRN	_isdigit:PROC
EXTRN	_getc:PROC
EXTRN	_ungetc:PROC
EXTRN	_isspace:PROC
EXTRN	_fgetc:PROC
EXTRN	___security_cookie:DWORD
EXTRN	__fltused:DWORD
EXTRN	@__security_check_cookie@4:PROC
_BSS	SEGMENT
_CurrentToken DD 01H DUP (?)
_TokenNumber DD	01H DUP (?)
_SMDFile DD	01H DUP (?)
_TokenString DB	064H DUP (?)
; Function compile flags: /Ogtp
; File e:\work\tranet_version\gs\include\readscript.h
_BSS	ENDS
;	COMDAT ?GetToken@@YA?AW4SMDToken@@XZ
_TEXT	SEGMENT
_TempString$ = -104					; size = 100
__$ArrayPad$ = -4					; size = 4
?GetToken@@YA?AW4SMDToken@@XZ PROC			; GetToken, COMDAT

; 24   : {

  00000	55		 push	 ebp
  00001	8b ec		 mov	 ebp, esp
  00003	83 ec 68	 sub	 esp, 104		; 00000068H
  00006	a1 00 00 00 00	 mov	 eax, DWORD PTR ___security_cookie
  0000b	33 c5		 xor	 eax, ebp
  0000d	89 45 fc	 mov	 DWORD PTR __$ArrayPad$[ebp], eax

; 25   : 	char ch;
; 26   : 	char* p;
; 27   : 	char TempString[100];
; 28   : 
; 29   : 	TokenString[0]=0;

  00010	c6 05 00 00 00
	00 00		 mov	 BYTE PTR _TokenString, 0
  00017	53		 push	 ebx
  00018	eb 06 8d 9b 00
	00 00 00	 npad	 8
$LL31@GetToken:

; 30   : 
; 31   : 	do
; 32   : 	{
; 33   : 		if ((ch=fgetc(SMDFile)) == -1)

  00020	a1 00 00 00 00	 mov	 eax, DWORD PTR _SMDFile
  00025	50		 push	 eax
  00026	e8 00 00 00 00	 call	 _fgetc
  0002b	8a d8		 mov	 bl, al
  0002d	83 c4 04	 add	 esp, 4
  00030	80 fb ff	 cmp	 bl, -1
  00033	74 64		 je	 SHORT $LN39@GetToken

; 36   : 		}
; 37   : 		else
; 38   : 		{	
; 39   : 			if (ch=='/')		// this is /

  00035	80 fb 2f	 cmp	 bl, 47			; 0000002fH
  00038	75 31		 jne	 SHORT $LN30@GetToken

; 40   : 			{
; 41   : 				if((ch=fgetc(SMDFile)) == '/')

  0003a	8b 0d 00 00 00
	00		 mov	 ecx, DWORD PTR _SMDFile
  00040	51		 push	 ecx
  00041	e8 00 00 00 00	 call	 _fgetc
  00046	8a d8		 mov	 bl, al
  00048	83 c4 04	 add	 esp, 4
  0004b	80 fb 2f	 cmp	 bl, 47			; 0000002fH
  0004e	75 1b		 jne	 SHORT $LN30@GetToken
$LL24@GetToken:

; 42   : 				{
; 43   : 					while ((ch != '\n') && (ch != -1))	// End of Line (EOL)

  00050	80 fb ff	 cmp	 bl, -1
  00053	74 44		 je	 SHORT $LN39@GetToken

; 44   : 					{
; 45   : 						ch=fgetc(SMDFile);

  00055	8b 15 00 00 00
	00		 mov	 edx, DWORD PTR _SMDFile
  0005b	52		 push	 edx
  0005c	e8 00 00 00 00	 call	 _fgetc
  00061	8a d8		 mov	 bl, al
  00063	83 c4 04	 add	 esp, 4
  00066	80 fb 0a	 cmp	 bl, 10			; 0000000aH
  00069	75 e5		 jne	 SHORT $LL24@GetToken
$LN30@GetToken:

; 46   : 					}
; 47   : 	
; 48   : 					if (ch == -1)
; 49   : 					{
; 50   : 						return END;	// End of FILE
; 51   : 					}
; 52   : 				}
; 53   : 			}
; 54   : 		}
; 55   : 	}
; 56   : 	while (isspace(ch) != 0);

  0006b	0f be c3	 movsx	 eax, bl
  0006e	50		 push	 eax
  0006f	e8 00 00 00 00	 call	 _isspace
  00074	83 c4 04	 add	 esp, 4
  00077	85 c0		 test	 eax, eax
  00079	75 a5		 jne	 SHORT $LL31@GetToken

; 57   : 
; 58   : 	
; 59   : 	switch(ch)

  0007b	0f be c3	 movsx	 eax, bl
  0007e	8d 48 de	 lea	 ecx, DWORD PTR [eax-34]
  00081	56		 push	 esi
  00082	83 f9 5b	 cmp	 ecx, 91			; 0000005bH
  00085	0f 87 2b 01 00
	00		 ja	 $LN6@GetToken
  0008b	0f b6 89 00 00
	00 00		 movzx	 ecx, BYTE PTR $LN46@GetToken[ecx]
  00092	ff 24 8d 00 00
	00 00		 jmp	 DWORD PTR $LN50@GetToken[ecx*4]
$LN39@GetToken:

; 34   : 		{
; 35   : 			return END;	// End of FILE (EOF)

  00099	b8 02 00 00 00	 mov	 eax, 2
  0009e	5b		 pop	 ebx

; 147  : 		}
; 148  : 		break;
; 149  : 
; 150  : 	}
; 151  : 
; 152  : 	return NAME;
; 153  : }

  0009f	8b 4d fc	 mov	 ecx, DWORD PTR __$ArrayPad$[ebp]
  000a2	33 cd		 xor	 ecx, ebp
  000a4	e8 00 00 00 00	 call	 @__security_check_cookie@4
  000a9	8b e5		 mov	 esp, ebp
  000ab	5d		 pop	 ebp
  000ac	c3		 ret	 0
$LN19@GetToken:

; 60   : 	{
; 61   : 
; 62   : 	case 0x23:	// #
; 63   : 		return CurrentToken=COMMAND;

  000ad	b8 23 00 00 00	 mov	 eax, 35			; 00000023H
  000b2	e9 99 01 00 00	 jmp	 $LN48@GetToken
$LN18@GetToken:

; 64   : 		break;
; 65   : 	
; 66   : 	case 0x3B:	// ;
; 67   : 		return CurrentToken=SEMICOLON;

  000b7	b8 3b 00 00 00	 mov	 eax, 59			; 0000003bH
  000bc	e9 8f 01 00 00	 jmp	 $LN48@GetToken
$LN17@GetToken:

; 68   : 		break;
; 69   : 	
; 70   : 	case 0x2C:	// ,
; 71   : 
; 72   : 		return CurrentToken=COMMA;

  000c1	b8 2c 00 00 00	 mov	 eax, 44			; 0000002cH
  000c6	e9 85 01 00 00	 jmp	 $LN48@GetToken
$LN16@GetToken:

; 73   : 		break;
; 74   : 	
; 75   : 	case 0x7B:	// {
; 76   : 		return CurrentToken = LP;

  000cb	b8 7b 00 00 00	 mov	 eax, 123		; 0000007bH
  000d0	e9 7b 01 00 00	 jmp	 $LN48@GetToken
$LN15@GetToken:

; 77   : 		break;
; 78   : 
; 79   : 	case 0x7D:	// }
; 80   : 		return CurrentToken = RP;

  000d5	b8 7d 00 00 00	 mov	 eax, 125		; 0000007dH
  000da	e9 71 01 00 00	 jmp	 $LN48@GetToken
$LN14@GetToken:

; 81   : 		break;
; 82   : 	// Nice Index Table :)	by Deathway
; 83   : 	// Numbers Case
; 84   : 	case 0x2D:	//-
; 85   : 	case 0x2E:	//.
; 86   : 	case '0':	//0
; 87   : 	case '1':	//1
; 88   : 	case '2':	//2
; 89   : 	case '3':	//3
; 90   : 	case '4':	//4		
; 91   : 	case '5':	//5
; 92   : 	case '6':	//6
; 93   : 	case '7':	//7
; 94   : 	case '8':	//8
; 95   : 	case '9':	//9
; 96   : 		ungetc(ch, SMDFile);

  000df	8b 15 00 00 00
	00		 mov	 edx, DWORD PTR _SMDFile
  000e5	52		 push	 edx
  000e6	50		 push	 eax
  000e7	e8 00 00 00 00	 call	 _ungetc

; 97   : 		p = TempString;
; 98   : 		
; 99   : 		while (((ch=getc(SMDFile)) != -1) && ((ch == 0x2E) || (isdigit(ch) != 0) || (ch == 0x2D)))  // 2e '.'  2D '-'

  000ec	a1 00 00 00 00	 mov	 eax, DWORD PTR _SMDFile
  000f1	50		 push	 eax
  000f2	8d 75 98	 lea	 esi, DWORD PTR _TempString$[ebp]
  000f5	e8 00 00 00 00	 call	 _getc
  000fa	8a d8		 mov	 bl, al
  000fc	83 c4 0c	 add	 esp, 12			; 0000000cH
  000ff	80 fb ff	 cmp	 bl, -1
  00102	74 33		 je	 SHORT $LN12@GetToken
$LL13@GetToken:
  00104	80 fb 2e	 cmp	 bl, 46			; 0000002eH
  00107	74 15		 je	 SHORT $LN11@GetToken
  00109	0f be cb	 movsx	 ecx, bl
  0010c	51		 push	 ecx
  0010d	e8 00 00 00 00	 call	 _isdigit
  00112	83 c4 04	 add	 esp, 4
  00115	85 c0		 test	 eax, eax
  00117	75 05		 jne	 SHORT $LN11@GetToken
  00119	80 fb 2d	 cmp	 bl, 45			; 0000002dH
  0011c	75 19		 jne	 SHORT $LN12@GetToken
$LN11@GetToken:
  0011e	8b 15 00 00 00
	00		 mov	 edx, DWORD PTR _SMDFile

; 100  : 		{
; 101  : 			*p = ch;	// Construct a String

  00124	88 1e		 mov	 BYTE PTR [esi], bl
  00126	52		 push	 edx

; 102  : 			p++;

  00127	46		 inc	 esi
  00128	e8 00 00 00 00	 call	 _getc
  0012d	8a d8		 mov	 bl, al
  0012f	83 c4 04	 add	 esp, 4
  00132	80 fb ff	 cmp	 bl, -1
  00135	75 cd		 jne	 SHORT $LL13@GetToken
$LN12@GetToken:

; 103  : 		}		
; 104  : 		*p = 0;
; 105  : 		TokenNumber = atof( TempString);	// Select the first Byte as Main ID

  00137	8d 45 98	 lea	 eax, DWORD PTR _TempString$[ebp]
  0013a	50		 push	 eax
  0013b	c6 06 00	 mov	 BYTE PTR [esi], 0
  0013e	e8 00 00 00 00	 call	 _atof
  00143	d9 1d 00 00 00
	00		 fstp	 DWORD PTR _TokenNumber
  00149	83 c4 04	 add	 esp, 4
  0014c	5e		 pop	 esi

; 106  : 		return CurrentToken  = NUMBER ;

  0014d	c7 05 00 00 00
	00 01 00 00 00	 mov	 DWORD PTR _CurrentToken, 1
  00157	b8 01 00 00 00	 mov	 eax, 1
  0015c	5b		 pop	 ebx

; 147  : 		}
; 148  : 		break;
; 149  : 
; 150  : 	}
; 151  : 
; 152  : 	return NAME;
; 153  : }

  0015d	8b 4d fc	 mov	 ecx, DWORD PTR __$ArrayPad$[ebp]
  00160	33 cd		 xor	 ecx, ebp
  00162	e8 00 00 00 00	 call	 @__security_check_cookie@4
  00167	8b e5		 mov	 esp, ebp
  00169	5d		 pop	 ebp
  0016a	c3		 ret	 0
$LN10@GetToken:

; 107  : 		break;
; 108  : 
; 109  : 	case '\"':	// "	String Case
; 110  : 		p=&TokenString[0];
; 111  : 		
; 112  : 		while (((ch=getc(SMDFile)) != -1 ) && (ch != 0x22))	// nice

  0016b	8b 0d 00 00 00
	00		 mov	 ecx, DWORD PTR _SMDFile
  00171	51		 push	 ecx
  00172	be 00 00 00 00	 mov	 esi, OFFSET _TokenString
  00177	e8 00 00 00 00	 call	 _getc
  0017c	83 c4 04	 add	 esp, 4
  0017f	3c ff		 cmp	 al, -1
  00181	74 1e		 je	 SHORT $LN8@GetToken
$LL9@GetToken:
  00183	3c 22		 cmp	 al, 34			; 00000022H
  00185	0f 84 a1 00 00
	00		 je	 $LN7@GetToken
  0018b	8b 15 00 00 00
	00		 mov	 edx, DWORD PTR _SMDFile

; 113  : 		{
; 114  : 			*p = ch;

  00191	88 06		 mov	 BYTE PTR [esi], al
  00193	52		 push	 edx

; 115  : 			p++;

  00194	46		 inc	 esi
  00195	e8 00 00 00 00	 call	 _getc
  0019a	83 c4 04	 add	 esp, 4
  0019d	3c ff		 cmp	 al, -1
  0019f	75 e2		 jne	 SHORT $LL9@GetToken
$LN8@GetToken:

; 116  : 		}
; 117  : 		if (ch != 0x22 )

  001a1	3c 22		 cmp	 al, 34			; 00000022H
  001a3	0f 84 83 00 00
	00		 je	 $LN7@GetToken

; 118  : 		{
; 119  : 			ungetc(ch, SMDFile);

  001a9	8b 0d 00 00 00
	00		 mov	 ecx, DWORD PTR _SMDFile
  001af	0f be d0	 movsx	 edx, al
  001b2	51		 push	 ecx
  001b3	52		 push	 edx

; 120  : 		}
; 121  : 		*p = 0;
; 122  : 		return CurrentToken = NAME;

  001b4	eb 6e		 jmp	 SHORT $LN49@GetToken
$LN6@GetToken:

; 123  : 		break;
; 124  : 
; 125  : 	default:	// Others
; 126  : 		if (isalpha(ch))

  001b6	50		 push	 eax
  001b7	e8 00 00 00 00	 call	 _isalpha
  001bc	83 c4 04	 add	 esp, 4
  001bf	85 c0		 test	 eax, eax
  001c1	0f 84 84 00 00
	00		 je	 $LN5@GetToken

; 127  : 		{
; 128  : 			p=&TokenString[0];
; 129  : 			*p=ch;
; 130  : 			p++;
; 131  : 
; 132  : 			while ( ((ch=getc(SMDFile)) != -1) && ( (ch == 0x2E) || (ch == 0x5F) || (isalnum(ch) != 0) ) )

  001c7	a1 00 00 00 00	 mov	 eax, DWORD PTR _SMDFile
  001cc	50		 push	 eax
  001cd	88 1d 00 00 00
	00		 mov	 BYTE PTR _TokenString, bl
  001d3	be 01 00 00 00	 mov	 esi, OFFSET _TokenString+1
  001d8	e8 00 00 00 00	 call	 _getc
  001dd	8a d8		 mov	 bl, al
  001df	83 c4 04	 add	 esp, 4
  001e2	80 fb ff	 cmp	 bl, -1
  001e5	74 33		 je	 SHORT $LN3@GetToken
$LL4@GetToken:
  001e7	80 fb 2e	 cmp	 bl, 46			; 0000002eH
  001ea	74 15		 je	 SHORT $LN2@GetToken
  001ec	80 fb 5f	 cmp	 bl, 95			; 0000005fH
  001ef	74 10		 je	 SHORT $LN2@GetToken
  001f1	0f be cb	 movsx	 ecx, bl
  001f4	51		 push	 ecx
  001f5	e8 00 00 00 00	 call	 _isalnum
  001fa	83 c4 04	 add	 esp, 4
  001fd	85 c0		 test	 eax, eax
  001ff	74 19		 je	 SHORT $LN3@GetToken
$LN2@GetToken:
  00201	8b 15 00 00 00
	00		 mov	 edx, DWORD PTR _SMDFile

; 133  : 			{
; 134  : 				*p=ch;

  00207	88 1e		 mov	 BYTE PTR [esi], bl
  00209	52		 push	 edx

; 135  : 				p++;

  0020a	46		 inc	 esi
  0020b	e8 00 00 00 00	 call	 _getc
  00210	8a d8		 mov	 bl, al
  00212	83 c4 04	 add	 esp, 4
  00215	80 fb ff	 cmp	 bl, -1
  00218	75 cd		 jne	 SHORT $LL4@GetToken
$LN3@GetToken:

; 136  : 				
; 137  : 			}
; 138  : 
; 139  : 			ungetc(ch, SMDFile);

  0021a	a1 00 00 00 00	 mov	 eax, DWORD PTR _SMDFile
  0021f	0f be cb	 movsx	 ecx, bl
  00222	50		 push	 eax
  00223	51		 push	 ecx
$LN49@GetToken:
  00224	e8 00 00 00 00	 call	 _ungetc
  00229	83 c4 08	 add	 esp, 8
$LN7@GetToken:

; 140  : 			*p=0;

  0022c	c6 06 00	 mov	 BYTE PTR [esi], 0
  0022f	5e		 pop	 esi

; 141  : 			CurrentToken=NAME;

  00230	c7 05 00 00 00
	00 00 00 00 00	 mov	 DWORD PTR _CurrentToken, 0

; 142  : 			return CurrentToken;

  0023a	33 c0		 xor	 eax, eax
  0023c	5b		 pop	 ebx

; 147  : 		}
; 148  : 		break;
; 149  : 
; 150  : 	}
; 151  : 
; 152  : 	return NAME;
; 153  : }

  0023d	8b 4d fc	 mov	 ecx, DWORD PTR __$ArrayPad$[ebp]
  00240	33 cd		 xor	 ecx, ebp
  00242	e8 00 00 00 00	 call	 @__security_check_cookie@4
  00247	8b e5		 mov	 esp, ebp
  00249	5d		 pop	 ebp
  0024a	c3		 ret	 0
$LN5@GetToken:

; 143  : 		}
; 144  : 		else
; 145  : 		{
; 146  : 			return CurrentToken = SMD_ERROR; // '<'

  0024b	b8 3c 00 00 00	 mov	 eax, 60			; 0000003cH
$LN48@GetToken:

; 147  : 		}
; 148  : 		break;
; 149  : 
; 150  : 	}
; 151  : 
; 152  : 	return NAME;
; 153  : }

  00250	8b 4d fc	 mov	 ecx, DWORD PTR __$ArrayPad$[ebp]
  00253	5e		 pop	 esi
  00254	33 cd		 xor	 ecx, ebp
  00256	a3 00 00 00 00	 mov	 DWORD PTR _CurrentToken, eax
  0025b	5b		 pop	 ebx
  0025c	e8 00 00 00 00	 call	 @__security_check_cookie@4
  00261	8b e5		 mov	 esp, ebp
  00263	5d		 pop	 ebp
  00264	c3		 ret	 0
  00265	8d 49 00	 npad	 3
$LN50@GetToken:
  00268	00 00 00 00	 DD	 $LN10@GetToken
  0026c	00 00 00 00	 DD	 $LN19@GetToken
  00270	00 00 00 00	 DD	 $LN17@GetToken
  00274	00 00 00 00	 DD	 $LN14@GetToken
  00278	00 00 00 00	 DD	 $LN18@GetToken
  0027c	00 00 00 00	 DD	 $LN16@GetToken
  00280	00 00 00 00	 DD	 $LN15@GetToken
  00284	00 00 00 00	 DD	 $LN6@GetToken
$LN46@GetToken:
  00288	00		 DB	 0
  00289	01		 DB	 1
  0028a	07		 DB	 7
  0028b	07		 DB	 7
  0028c	07		 DB	 7
  0028d	07		 DB	 7
  0028e	07		 DB	 7
  0028f	07		 DB	 7
  00290	07		 DB	 7
  00291	07		 DB	 7
  00292	02		 DB	 2
  00293	03		 DB	 3
  00294	03		 DB	 3
  00295	07		 DB	 7
  00296	03		 DB	 3
  00297	03		 DB	 3
  00298	03		 DB	 3
  00299	03		 DB	 3
  0029a	03		 DB	 3
  0029b	03		 DB	 3
  0029c	03		 DB	 3
  0029d	03		 DB	 3
  0029e	03		 DB	 3
  0029f	03		 DB	 3
  002a0	07		 DB	 7
  002a1	04		 DB	 4
  002a2	07		 DB	 7
  002a3	07		 DB	 7
  002a4	07		 DB	 7
  002a5	07		 DB	 7
  002a6	07		 DB	 7
  002a7	07		 DB	 7
  002a8	07		 DB	 7
  002a9	07		 DB	 7
  002aa	07		 DB	 7
  002ab	07		 DB	 7
  002ac	07		 DB	 7
  002ad	07		 DB	 7
  002ae	07		 DB	 7
  002af	07		 DB	 7
  002b0	07		 DB	 7
  002b1	07		 DB	 7
  002b2	07		 DB	 7
  002b3	07		 DB	 7
  002b4	07		 DB	 7
  002b5	07		 DB	 7
  002b6	07		 DB	 7
  002b7	07		 DB	 7
  002b8	07		 DB	 7
  002b9	07		 DB	 7
  002ba	07		 DB	 7
  002bb	07		 DB	 7
  002bc	07		 DB	 7
  002bd	07		 DB	 7
  002be	07		 DB	 7
  002bf	07		 DB	 7
  002c0	07		 DB	 7
  002c1	07		 DB	 7
  002c2	07		 DB	 7
  002c3	07		 DB	 7
  002c4	07		 DB	 7
  002c5	07		 DB	 7
  002c6	07		 DB	 7
  002c7	07		 DB	 7
  002c8	07		 DB	 7
  002c9	07		 DB	 7
  002ca	07		 DB	 7
  002cb	07		 DB	 7
  002cc	07		 DB	 7
  002cd	07		 DB	 7
  002ce	07		 DB	 7
  002cf	07		 DB	 7
  002d0	07		 DB	 7
  002d1	07		 DB	 7
  002d2	07		 DB	 7
  002d3	07		 DB	 7
  002d4	07		 DB	 7
  002d5	07		 DB	 7
  002d6	07		 DB	 7
  002d7	07		 DB	 7
  002d8	07		 DB	 7
  002d9	07		 DB	 7
  002da	07		 DB	 7
  002db	07		 DB	 7
  002dc	07		 DB	 7
  002dd	07		 DB	 7
  002de	07		 DB	 7
  002df	07		 DB	 7
  002e0	07		 DB	 7
  002e1	05		 DB	 5
  002e2	07		 DB	 7
  002e3	06		 DB	 6
?GetToken@@YA?AW4SMDToken@@XZ ENDP			; GetToken
_TEXT	ENDS
PUBLIC	??_7TMonsterSkillUnit@@6B@			; TMonsterSkillUnit::`vftable'
PUBLIC	??1TMonsterSkillUnit@@UAE@XZ			; TMonsterSkillUnit::~TMonsterSkillUnit
PUBLIC	??_R4TMonsterSkillUnit@@6B@			; TMonsterSkillUnit::`RTTI Complete Object Locator'
PUBLIC	??_R0?AVTMonsterSkillUnit@@@8			; TMonsterSkillUnit `RTTI Type Descriptor'
PUBLIC	??_R3TMonsterSkillUnit@@8			; TMonsterSkillUnit::`RTTI Class Hierarchy Descriptor'
PUBLIC	??_R2TMonsterSkillUnit@@8			; TMonsterSkillUnit::`RTTI Base Class Array'
PUBLIC	??_R1A@?0A@EA@TMonsterSkillUnit@@8		; TMonsterSkillUnit::`RTTI Base Class Descriptor at (0,-1,0,64)'
PUBLIC	??_R13?0A@EA@TSkillUnit@@8			; TSkillUnit::`RTTI Base Class Descriptor at (4,-1,0,64)'
PUBLIC	??_R0?AVTSkillUnit@@@8				; TSkillUnit `RTTI Type Descriptor'
PUBLIC	??_R3TSkillUnit@@8				; TSkillUnit::`RTTI Class Hierarchy Descriptor'
PUBLIC	??_R2TSkillUnit@@8				; TSkillUnit::`RTTI Base Class Array'
PUBLIC	??_R1A@?0A@EA@TSkillUnit@@8			; TSkillUnit::`RTTI Base Class Descriptor at (0,-1,0,64)'
EXTRN	??_7type_info@@6B@:QWORD			; type_info::`vftable'
EXTRN	??_ETMonsterSkillUnit@@UAEPAXI@Z:PROC		; TMonsterSkillUnit::`vector deleting destructor'
;	COMDAT ??_R1A@?0A@EA@TSkillUnit@@8
; File e:\work\tranet_version\gs\gameserver\tmonsterskillunit.cpp
rdata$r	SEGMENT
??_R1A@?0A@EA@TSkillUnit@@8 DD FLAT:??_R0?AVTSkillUnit@@@8 ; TSkillUnit::`RTTI Base Class Descriptor at (0,-1,0,64)'
	DD	00H
	DD	00H
	DD	0ffffffffH
	DD	00H
	DD	040H
	DD	FLAT:??_R3TSkillUnit@@8
rdata$r	ENDS
;	COMDAT ??_R2TSkillUnit@@8
rdata$r	SEGMENT
??_R2TSkillUnit@@8 DD FLAT:??_R1A@?0A@EA@TSkillUnit@@8	; TSkillUnit::`RTTI Base Class Array'
rdata$r	ENDS
;	COMDAT ??_R3TSkillUnit@@8
rdata$r	SEGMENT
??_R3TSkillUnit@@8 DD 00H				; TSkillUnit::`RTTI Class Hierarchy Descriptor'
	DD	00H
	DD	01H
	DD	FLAT:??_R2TSkillUnit@@8
rdata$r	ENDS
;	COMDAT ??_R0?AVTSkillUnit@@@8
_DATA	SEGMENT
??_R0?AVTSkillUnit@@@8 DD FLAT:??_7type_info@@6B@	; TSkillUnit `RTTI Type Descriptor'
	DD	00H
	DB	'.?AVTSkillUnit@@', 00H
_DATA	ENDS
;	COMDAT ??_R13?0A@EA@TSkillUnit@@8
rdata$r	SEGMENT
??_R13?0A@EA@TSkillUnit@@8 DD FLAT:??_R0?AVTSkillUnit@@@8 ; TSkillUnit::`RTTI Base Class Descriptor at (4,-1,0,64)'
	DD	00H
	DD	04H
	DD	0ffffffffH
	DD	00H
	DD	040H
	DD	FLAT:??_R3TSkillUnit@@8
rdata$r	ENDS
;	COMDAT ??_R1A@?0A@EA@TMonsterSkillUnit@@8
rdata$r	SEGMENT
??_R1A@?0A@EA@TMonsterSkillUnit@@8 DD FLAT:??_R0?AVTMonsterSkillUnit@@@8 ; TMonsterSkillUnit::`RTTI Base Class Descriptor at (0,-1,0,64)'
	DD	01H
	DD	00H
	DD	0ffffffffH
	DD	00H
	DD	040H
	DD	FLAT:??_R3TMonsterSkillUnit@@8
rdata$r	ENDS
;	COMDAT ??_R2TMonsterSkillUnit@@8
rdata$r	SEGMENT
??_R2TMonsterSkillUnit@@8 DD FLAT:??_R1A@?0A@EA@TMonsterSkillUnit@@8 ; TMonsterSkillUnit::`RTTI Base Class Array'
	DD	FLAT:??_R13?0A@EA@TSkillUnit@@8
rdata$r	ENDS
;	COMDAT ??_R3TMonsterSkillUnit@@8
rdata$r	SEGMENT
??_R3TMonsterSkillUnit@@8 DD 00H			; TMonsterSkillUnit::`RTTI Class Hierarchy Descriptor'
	DD	00H
	DD	02H
	DD	FLAT:??_R2TMonsterSkillUnit@@8
rdata$r	ENDS
;	COMDAT ??_R0?AVTMonsterSkillUnit@@@8
_DATA	SEGMENT
??_R0?AVTMonsterSkillUnit@@@8 DD FLAT:??_7type_info@@6B@ ; TMonsterSkillUnit `RTTI Type Descriptor'
	DD	00H
	DB	'.?AVTMonsterSkillUnit@@', 00H
_DATA	ENDS
;	COMDAT ??_R4TMonsterSkillUnit@@6B@
rdata$r	SEGMENT
??_R4TMonsterSkillUnit@@6B@ DD 00H			; TMonsterSkillUnit::`RTTI Complete Object Locator'
	DD	00H
	DD	00H
	DD	FLAT:??_R0?AVTMonsterSkillUnit@@@8
	DD	FLAT:??_R3TMonsterSkillUnit@@8
rdata$r	ENDS
;	COMDAT ??_7TMonsterSkillUnit@@6B@
CONST	SEGMENT
??_7TMonsterSkillUnit@@6B@ DD FLAT:??_R4TMonsterSkillUnit@@6B@ ; TMonsterSkillUnit::`vftable'
	DD	FLAT:??_ETMonsterSkillUnit@@UAEPAXI@Z
; Function compile flags: /Ogtp
CONST	ENDS
;	COMDAT ??1TMonsterSkillUnit@@UAE@XZ
_TEXT	SEGMENT
??1TMonsterSkillUnit@@UAE@XZ PROC			; TMonsterSkillUnit::~TMonsterSkillUnit, COMDAT
; _this$ = ecx

; 26   : {

  00000	c7 01 00 00 00
	00		 mov	 DWORD PTR [ecx], OFFSET ??_7TMonsterSkillUnit@@6B@

; 27   : 	return;
; 28   : }

  00006	c3		 ret	 0
??1TMonsterSkillUnit@@UAE@XZ ENDP			; TMonsterSkillUnit::~TMonsterSkillUnit
_TEXT	ENDS
PUBLIC	?Reset@TMonsterSkillUnit@@QAEXXZ		; TMonsterSkillUnit::Reset
; Function compile flags: /Ogtp
;	COMDAT ?Reset@TMonsterSkillUnit@@QAEXXZ
_TEXT	SEGMENT
?Reset@TMonsterSkillUnit@@QAEXXZ PROC			; TMonsterSkillUnit::Reset, COMDAT
; _this$ = ecx

; 33   : 	this->m_iUnitTargetType = -1;
; 34   : 	this->m_iUnitScopeType = -1;
; 35   : 	this->m_iUnitScopeValue = -1;
; 36   : 	this->m_iDelay = -1;
; 37   : 	this->m_iUnitNumber = -1;
; 38   : 	memset(this->m_szUnitName, 0, sizeof(this->m_szUnitName));

  00000	33 c0		 xor	 eax, eax
  00002	83 ca ff	 or	 edx, -1
  00005	89 51 1c	 mov	 DWORD PTR [ecx+28], edx
  00008	89 51 20	 mov	 DWORD PTR [ecx+32], edx
  0000b	89 51 24	 mov	 DWORD PTR [ecx+36], edx
  0000e	89 51 28	 mov	 DWORD PTR [ecx+40], edx
  00011	89 51 18	 mov	 DWORD PTR [ecx+24], edx
  00014	89 41 04	 mov	 DWORD PTR [ecx+4], eax
  00017	89 41 08	 mov	 DWORD PTR [ecx+8], eax
  0001a	89 41 0c	 mov	 DWORD PTR [ecx+12], eax
  0001d	89 41 10	 mov	 DWORD PTR [ecx+16], eax
  00020	89 41 14	 mov	 DWORD PTR [ecx+20], eax

; 39   : 	this->m_iElementsCount = -1;

  00023	89 51 2c	 mov	 DWORD PTR [ecx+44], edx

; 40   : 
; 41   : 	for (int i=0;i<5;i++)
; 42   : 	{
; 43   : 		this->m_lpElementsSlot[i] = NULL;

  00026	89 41 30	 mov	 DWORD PTR [ecx+48], eax
  00029	89 41 34	 mov	 DWORD PTR [ecx+52], eax
  0002c	89 41 38	 mov	 DWORD PTR [ecx+56], eax
  0002f	89 41 3c	 mov	 DWORD PTR [ecx+60], eax
  00032	89 41 40	 mov	 DWORD PTR [ecx+64], eax

; 44   : 	}
; 45   : }

  00035	c3		 ret	 0
?Reset@TMonsterSkillUnit@@QAEXXZ ENDP			; TMonsterSkillUnit::Reset
_TEXT	ENDS
PUBLIC	?DelAllSkillUnit@TMonsterSkillUnit@@SAHXZ	; TMonsterSkillUnit::DelAllSkillUnit
; Function compile flags: /Ogtp
;	COMDAT ?DelAllSkillUnit@TMonsterSkillUnit@@SAHXZ
_TEXT	SEGMENT
?DelAllSkillUnit@TMonsterSkillUnit@@SAHXZ PROC		; TMonsterSkillUnit::DelAllSkillUnit, COMDAT

; 196  : 	for(int i=0;i<MAX_MONSTER_SKILL_UNIT_ARRAY;i++)

  00000	b9 00 00 00 00	 mov	 ecx, OFFSET ?s_MonsterSkillUnitArray@TMonsterSkillUnit@@2PAV1@A ; TMonsterSkillUnit::s_MonsterSkillUnitArray
$LL3@DelAllSkil:

; 197  : 	{
; 198  : 		TMonsterSkillUnit::s_MonsterSkillUnitArray[i].Reset();

  00005	e8 00 00 00 00	 call	 ?Reset@TMonsterSkillUnit@@QAEXXZ ; TMonsterSkillUnit::Reset
  0000a	83 c1 44	 add	 ecx, 68			; 00000044H
  0000d	81 f9 20 35 00
	00		 cmp	 ecx, OFFSET ?s_MonsterSkillUnitArray@TMonsterSkillUnit@@2PAV1@A+13600
  00013	7c f0		 jl	 SHORT $LL3@DelAllSkil

; 199  : 	}
; 200  : 
; 201  : 	return FALSE;

  00015	33 c0		 xor	 eax, eax

; 202  : }

  00017	c3		 ret	 0
?DelAllSkillUnit@TMonsterSkillUnit@@SAHXZ ENDP		; TMonsterSkillUnit::DelAllSkillUnit
_TEXT	ENDS
PUBLIC	??_C@_0DN@DDJJOPJK@?$FLMonster?5SkillUnit?$FN?5FindSkillUni@ ; `string'
PUBLIC	?FindSkillUnit@TMonsterSkillUnit@@SAPAV1@H@Z	; TMonsterSkillUnit::FindSkillUnit
EXTRN	?LogAddTD@@3P6AXPADZZA:DWORD			; LogAddTD
;	COMDAT ??_C@_0DN@DDJJOPJK@?$FLMonster?5SkillUnit?$FN?5FindSkillUni@
CONST	SEGMENT
??_C@_0DN@DDJJOPJK@?$FLMonster?5SkillUnit?$FN?5FindSkillUni@ DB '[Monster'
	DB	' SkillUnit] FindSkillUnit() Error - (UnitNumber=%d) ', 00H ; `string'
; Function compile flags: /Ogtp
CONST	ENDS
;	COMDAT ?FindSkillUnit@TMonsterSkillUnit@@SAPAV1@H@Z
_TEXT	SEGMENT
_iUnitNumber$ = 8					; size = 4
?FindSkillUnit@TMonsterSkillUnit@@SAPAV1@H@Z PROC	; TMonsterSkillUnit::FindSkillUnit, COMDAT

; 207  : {

  00000	55		 push	 ebp
  00001	8b ec		 mov	 ebp, esp

; 208  : 	if ( iUnitNumber < 0 || iUnitNumber >= MAX_MONSTER_SKILL_UNIT_ARRAY )

  00003	8b 4d 08	 mov	 ecx, DWORD PTR _iUnitNumber$[ebp]
  00006	81 f9 c7 00 00
	00		 cmp	 ecx, 199		; 000000c7H
  0000c	77 1b		 ja	 SHORT $LN2@FindSkillU

; 214  : 	}
; 215  : 
; 216  : 	if ( TMonsterSkillUnit::s_MonsterSkillUnitArray[iUnitNumber].m_iUnitNumber == iUnitNumber )

  0000e	8b c1		 mov	 eax, ecx
  00010	c1 e0 04	 shl	 eax, 4
  00013	03 c1		 add	 eax, ecx
  00015	03 c0		 add	 eax, eax
  00017	03 c0		 add	 eax, eax
  00019	39 88 18 00 00
	00		 cmp	 DWORD PTR ?s_MonsterSkillUnitArray@TMonsterSkillUnit@@2PAV1@A[eax+24], ecx
  0001f	75 08		 jne	 SHORT $LN2@FindSkillU

; 217  : 	{
; 218  : 		return &TMonsterSkillUnit::s_MonsterSkillUnitArray[iUnitNumber];

  00021	8d 80 00 00 00
	00		 lea	 eax, DWORD PTR ?s_MonsterSkillUnitArray@TMonsterSkillUnit@@2PAV1@A[eax]

; 219  : 	}
; 220  : 
; 221  : 	LogAddTD("[Monster SkillUnit] FindSkillUnit() Error - (UnitNumber=%d) ",
; 222  : 		iUnitNumber);
; 223  : 
; 224  : 	return FALSE;
; 225  : }

  00027	5d		 pop	 ebp
  00028	c3		 ret	 0
$LN2@FindSkillU:

; 209  : 	{
; 210  : 		LogAddTD("[Monster SkillUnit] FindSkillUnit() Error - (UnitNumber=%d) ",
; 211  : 			iUnitNumber);

  00029	51		 push	 ecx
  0002a	68 00 00 00 00	 push	 OFFSET ??_C@_0DN@DDJJOPJK@?$FLMonster?5SkillUnit?$FN?5FindSkillUni@
  0002f	ff 15 00 00 00
	00		 call	 DWORD PTR ?LogAddTD@@3P6AXPADZZA ; LogAddTD
  00035	83 c4 08	 add	 esp, 8

; 212  : 
; 213  : 		return NULL;

  00038	33 c0		 xor	 eax, eax

; 219  : 	}
; 220  : 
; 221  : 	LogAddTD("[Monster SkillUnit] FindSkillUnit() Error - (UnitNumber=%d) ",
; 222  : 		iUnitNumber);
; 223  : 
; 224  : 	return FALSE;
; 225  : }

  0003a	5d		 pop	 ebp
  0003b	c3		 ret	 0
?FindSkillUnit@TMonsterSkillUnit@@SAPAV1@H@Z ENDP	; TMonsterSkillUnit::FindSkillUnit
_TEXT	ENDS
PUBLIC	??_C@_0CJ@POAODADC@?$FLMonster?5SkillUnit?$FN?5SkillElement@ ; `string'
PUBLIC	?RunSkill@TMonsterSkillUnit@@QAEXHH@Z		; TMonsterSkillUnit::RunSkill
EXTRN	?LogAddC@@3P6AXEPADZZA:DWORD			; LogAddC
;	COMDAT ??_C@_0CJ@POAODADC@?$FLMonster?5SkillUnit?$FN?5SkillElement@
CONST	SEGMENT
??_C@_0CJ@POAODADC@?$FLMonster?5SkillUnit?$FN?5SkillElement@ DB '[Monster'
	DB	' SkillUnit] SkillElement is NULL', 00H	; `string'
; Function compile flags: /Ogtp
CONST	ENDS
;	COMDAT ?RunSkill@TMonsterSkillUnit@@QAEXHH@Z
_TEXT	SEGMENT
_iIndex$ = 8						; size = 4
_iTargetIndex$ = 12					; size = 4
?RunSkill@TMonsterSkillUnit@@QAEXHH@Z PROC		; TMonsterSkillUnit::RunSkill, COMDAT
; _this$ = ecx

; 228  : {

  00000	55		 push	 ebp
  00001	8b ec		 mov	 ebp, esp
  00003	53		 push	 ebx
  00004	57		 push	 edi
  00005	8b d9		 mov	 ebx, ecx

; 229  : 	char szElementsName[5][20] = {0};
; 230  : 
; 231  : 	for ( int i=0;i<this->m_iElementsCount;i++)

  00007	33 ff		 xor	 edi, edi
  00009	39 7b 2c	 cmp	 DWORD PTR [ebx+44], edi
  0000c	7e 35		 jle	 SHORT $LN2@RunSkill
  0000e	56		 push	 esi
  0000f	8d 73 30	 lea	 esi, DWORD PTR [ebx+48]
$LL9@RunSkill:

; 232  : 	{
; 233  : 		if ( this->m_lpElementsSlot[i] == NULL )

  00012	83 3e 00	 cmp	 DWORD PTR [esi], 0
  00015	75 12		 jne	 SHORT $LN1@RunSkill

; 234  : 		{
; 235  : 			LogAddC(2, "[Monster SkillUnit] SkillElement is NULL");

  00017	68 00 00 00 00	 push	 OFFSET ??_C@_0CJ@POAODADC@?$FLMonster?5SkillUnit?$FN?5SkillElement@
  0001c	6a 02		 push	 2
  0001e	ff 15 00 00 00
	00		 call	 DWORD PTR ?LogAddC@@3P6AXEPADZZA ; LogAddC
  00024	83 c4 08	 add	 esp, 8

; 236  : 			continue;

  00027	eb 10		 jmp	 SHORT $LN3@RunSkill
$LN1@RunSkill:

; 237  : 		}
; 238  : 
; 239  : 		this->m_lpElementsSlot[i]->ForceSkillElement(iIndex, iTargetIndex);

  00029	8b 55 0c	 mov	 edx, DWORD PTR _iTargetIndex$[ebp]
  0002c	8b 0e		 mov	 ecx, DWORD PTR [esi]
  0002e	8b 01		 mov	 eax, DWORD PTR [ecx]
  00030	8b 00		 mov	 eax, DWORD PTR [eax]
  00032	52		 push	 edx
  00033	8b 55 08	 mov	 edx, DWORD PTR _iIndex$[ebp]
  00036	52		 push	 edx
  00037	ff d0		 call	 eax
$LN3@RunSkill:

; 229  : 	char szElementsName[5][20] = {0};
; 230  : 
; 231  : 	for ( int i=0;i<this->m_iElementsCount;i++)

  00039	47		 inc	 edi
  0003a	83 c6 04	 add	 esi, 4
  0003d	3b 7b 2c	 cmp	 edi, DWORD PTR [ebx+44]
  00040	7c d0		 jl	 SHORT $LL9@RunSkill
  00042	5e		 pop	 esi
$LN2@RunSkill:
  00043	5f		 pop	 edi
  00044	5b		 pop	 ebx

; 240  : 	}
; 241  : }

  00045	5d		 pop	 ebp
  00046	c2 08 00	 ret	 8
?RunSkill@TMonsterSkillUnit@@QAEXHH@Z ENDP		; TMonsterSkillUnit::RunSkill
_TEXT	ENDS
PUBLIC	?GetElementName@TMonsterSkillElement@@QAEPADXZ	; TMonsterSkillElement::GetElementName
; Function compile flags: /Ogtp
;	COMDAT ?GetElementName@TMonsterSkillElement@@QAEPADXZ
_TEXT	SEGMENT
?GetElementName@TMonsterSkillElement@@QAEPADXZ PROC	; TMonsterSkillElement::GetElementName, COMDAT
; _this$ = ecx

; 246  : 	return this->m_szElementName;

  00000	8d 41 04	 lea	 eax, DWORD PTR [ecx+4]

; 247  : }

  00003	c3		 ret	 0
?GetElementName@TMonsterSkillElement@@QAEPADXZ ENDP	; TMonsterSkillElement::GetElementName
_TEXT	ENDS
PUBLIC	??0TMonsterSkillUnit@@QAE@XZ			; TMonsterSkillUnit::TMonsterSkillUnit
; Function compile flags: /Ogtp
;	COMDAT ??0TMonsterSkillUnit@@QAE@XZ
_TEXT	SEGMENT
??0TMonsterSkillUnit@@QAE@XZ PROC			; TMonsterSkillUnit::TMonsterSkillUnit, COMDAT
; _this$ = ecx

; 21   : {

  00000	c7 01 00 00 00
	00		 mov	 DWORD PTR [ecx], OFFSET ??_7TMonsterSkillUnit@@6B@

; 22   : 	this->Reset();

  00006	e8 00 00 00 00	 call	 ?Reset@TMonsterSkillUnit@@QAEXXZ ; TMonsterSkillUnit::Reset

; 23   : }

  0000b	8b c1		 mov	 eax, ecx
  0000d	c3		 ret	 0
??0TMonsterSkillUnit@@QAE@XZ ENDP			; TMonsterSkillUnit::TMonsterSkillUnit
_TEXT	ENDS
EXTRN	??3@YAXPAX@Z:PROC				; operator delete
; Function compile flags: /Ogtp
;	COMDAT ??_GTMonsterSkillUnit@@UAEPAXI@Z
_TEXT	SEGMENT
___flags$ = 8						; size = 4
??_GTMonsterSkillUnit@@UAEPAXI@Z PROC			; TMonsterSkillUnit::`scalar deleting destructor', COMDAT
; _this$ = ecx
  00000	55		 push	 ebp
  00001	8b ec		 mov	 ebp, esp
  00003	56		 push	 esi
  00004	8b f1		 mov	 esi, ecx
  00006	e8 00 00 00 00	 call	 ??1TMonsterSkillUnit@@UAE@XZ ; TMonsterSkillUnit::~TMonsterSkillUnit
  0000b	f6 45 08 01	 test	 BYTE PTR ___flags$[ebp], 1
  0000f	74 09		 je	 SHORT $LN4@scalar
  00011	56		 push	 esi
  00012	e8 00 00 00 00	 call	 ??3@YAXPAX@Z		; operator delete
  00017	83 c4 04	 add	 esp, 4
$LN4@scalar:
  0001a	8b c6		 mov	 eax, esi
  0001c	5e		 pop	 esi
  0001d	5d		 pop	 ebp
  0001e	c2 04 00	 ret	 4
??_GTMonsterSkillUnit@@UAEPAXI@Z ENDP			; TMonsterSkillUnit::`scalar deleting destructor'
_TEXT	ENDS
PUBLIC	??_C@_0DJ@PCBEFLCK@?$FLMonster?5Skill?5Unit?$FN?5?9?5File?5load@ ; `string'
PUBLIC	??_C@_0DL@OOGJKOMD@?$FLMonster?5Skill?5Unit?$FN?5?9?5Loading?5E@ ; `string'
PUBLIC	??_C@_0DB@DEDEIALP@?$FLMonster?5SkillUnit?$FN?5?9?5Unit?$CI?$CFd?$CJ?5E@ ; `string'
PUBLIC	??_C@_0DD@HAEDKJID@?$FLMonster?5Skill?5Unit?$FN?5?9?5Not?5Found@ ; `string'
PUBLIC	??_C@_0DD@HMCEGHBH@?$FLMonster?5Skill?5Unit?$FN?5?9?5Found?5Ski@ ; `string'
PUBLIC	??_C@_0FG@GEINPOHG@?$KB?ZNum?3?$CFd?0Name?3?$CFs?0TType?3?$CFd?0SType?3@ ; `string'
PUBLIC	??_C@_03JBJLGPFL@end?$AA@			; `string'
PUBLIC	??_C@_0CJ@ODDJOAOF@?$FLMonster?5Skill?5Unit?$FN?5?9?5?$CFs?5file?5i@ ; `string'
PUBLIC	??_C@_0CG@GBNGOID@?$FLMonster?5Skill?5Unit?$FN?5?9?5Can?8t?5Ope@ ; `string'
PUBLIC	??_C@_01KDCPPGHE@r?$AA@				; `string'
PUBLIC	??_C@_00CNPNBAHC@?$AA@				; `string'
PUBLIC	_lpszFileName$GSCopy$
PUBLIC	__$ArrayPad$
PUBLIC	?LoadData@TMonsterSkillUnit@@SAHPAD@Z		; TMonsterSkillUnit::LoadData
EXTRN	?FindSkillElement@TMonsterSkillElement@@SAPAV1@H@Z:PROC ; TMonsterSkillElement::FindSkillElement
EXTRN	__imp__OutputDebugStringA@4:PROC
EXTRN	__imp__wsprintfA:PROC
EXTRN	_fclose:PROC
EXTRN	?MsgBox@@YAXPADZZ:PROC				; MsgBox
EXTRN	_fopen:PROC
EXTRN	___CxxFrameHandler3:PROC
EXTRN	_memset:PROC
EXTRN	__ftol2_sse:PROC
;	COMDAT ??_C@_0DJ@PCBEFLCK@?$FLMonster?5Skill?5Unit?$FN?5?9?5File?5load@
CONST	SEGMENT
??_C@_0DJ@PCBEFLCK@?$FLMonster?5Skill?5Unit?$FN?5?9?5File?5load@ DB '[Mon'
	DB	'ster Skill Unit] - File load error : File Name Error', 00H ; `string'
CONST	ENDS
;	COMDAT ??_C@_0DL@OOGJKOMD@?$FLMonster?5Skill?5Unit?$FN?5?9?5Loading?5E@
CONST	SEGMENT
??_C@_0DL@OOGJKOMD@?$FLMonster?5Skill?5Unit?$FN?5?9?5Loading?5E@ DB '[Mon'
	DB	'ster Skill Unit] - Loading Exception Error (%s) File. ', 00H ; `string'
CONST	ENDS
;	COMDAT ??_C@_0DB@DEDEIALP@?$FLMonster?5SkillUnit?$FN?5?9?5Unit?$CI?$CFd?$CJ?5E@
CONST	SEGMENT
??_C@_0DB@DEDEIALP@?$FLMonster?5SkillUnit?$FN?5?9?5Unit?$CI?$CFd?$CJ?5E@ DB '['
	DB	'Monster SkillUnit] - Unit(%d) Error (%s) File. ', 00H ; `string'
CONST	ENDS
;	COMDAT ??_C@_0DD@HAEDKJID@?$FLMonster?5Skill?5Unit?$FN?5?9?5Not?5Found@
CONST	SEGMENT
??_C@_0DD@HAEDKJID@?$FLMonster?5Skill?5Unit?$FN?5?9?5Not?5Found@ DB '[Mon'
	DB	'ster Skill Unit] - Not Found SkillElement (%d)', 00H ; `string'
CONST	ENDS
;	COMDAT ??_C@_0DD@HMCEGHBH@?$FLMonster?5Skill?5Unit?$FN?5?9?5Found?5Ski@
CONST	SEGMENT
??_C@_0DD@HMCEGHBH@?$FLMonster?5Skill?5Unit?$FN?5?9?5Found?5Ski@ DB '[Mon'
	DB	'ster Skill Unit] - Found SkillElement (%d)(%s)', 00H ; `string'
CONST	ENDS
;	COMDAT ??_C@_0FG@GEINPOHG@?$KB?ZNum?3?$CFd?0Name?3?$CFs?0TType?3?$CFd?0SType?3@
CONST	SEGMENT
??_C@_0FG@GEINPOHG@?$KB?ZNum?3?$CFd?0Name?3?$CFs?0TType?3?$CFd?0SType?3@ DB 0a1H
	DB	0daH, 'Num:%d,Name:%s,TType:%d,SType:%d,SValue:%d,Delay:%d, E0'
	DB	':%d,E1:%d,E2:%d,E3:%d,E4:%d', 0aH, 00H	; `string'
CONST	ENDS
;	COMDAT ??_C@_03JBJLGPFL@end?$AA@
CONST	SEGMENT
??_C@_03JBJLGPFL@end?$AA@ DB 'end', 00H			; `string'
CONST	ENDS
;	COMDAT ??_C@_0CJ@ODDJOAOF@?$FLMonster?5Skill?5Unit?$FN?5?9?5?$CFs?5file?5i@
CONST	SEGMENT
??_C@_0CJ@ODDJOAOF@?$FLMonster?5Skill?5Unit?$FN?5?9?5?$CFs?5file?5i@ DB '['
	DB	'Monster Skill Unit] - %s file is Loaded', 00H ; `string'
CONST	ENDS
;	COMDAT ??_C@_0CG@GBNGOID@?$FLMonster?5Skill?5Unit?$FN?5?9?5Can?8t?5Ope@
CONST	SEGMENT
??_C@_0CG@GBNGOID@?$FLMonster?5Skill?5Unit?$FN?5?9?5Can?8t?5Ope@ DB '[Mon'
	DB	'ster Skill Unit] - Can''t Open %s ', 00H	; `string'
CONST	ENDS
;	COMDAT ??_C@_01KDCPPGHE@r?$AA@
CONST	SEGMENT
??_C@_01KDCPPGHE@r?$AA@ DB 'r', 00H			; `string'
CONST	ENDS
;	COMDAT ??_C@_00CNPNBAHC@?$AA@
CONST	SEGMENT
??_C@_00CNPNBAHC@?$AA@ DB 00H				; `string'
CONST	ENDS
;	COMDAT xdata$x
xdata$x	SEGMENT
__catchsym$?LoadData@TMonsterSkillUnit@@SAHPAD@Z$2 DD 040H
	DD	00H
	DD	00H
	DD	FLAT:__catch$?LoadData@TMonsterSkillUnit@@SAHPAD@Z$0
__unwindtable$?LoadData@TMonsterSkillUnit@@SAHPAD@Z DD 0ffffffffH
	DD	00H
	DD	0ffffffffH
	DD	00H
__tryblocktable$?LoadData@TMonsterSkillUnit@@SAHPAD@Z DD 00H
	DD	00H
	DD	01H
	DD	01H
	DD	FLAT:__catchsym$?LoadData@TMonsterSkillUnit@@SAHPAD@Z$2
__ehfuncinfo$?LoadData@TMonsterSkillUnit@@SAHPAD@Z DD 019930522H
	DD	02H
	DD	FLAT:__unwindtable$?LoadData@TMonsterSkillUnit@@SAHPAD@Z
	DD	01H
	DD	FLAT:__tryblocktable$?LoadData@TMonsterSkillUnit@@SAHPAD@Z
	DD	2 DUP(00H)
	DD	00H
	DD	01H
; Function compile flags: /Ogtp
xdata$x	ENDS
;	COMDAT ?LoadData@TMonsterSkillUnit@@SAHPAD@Z
_TEXT	SEGMENT
_iUnitScopeType$187901 = -284				; size = 4
_iType$187887 = -280					; size = 4
_iUnitScopeValue$187902 = -276				; size = 4
_iDelay$187903 = -272					; size = 4
_lpszFileName$GSCopy$ = -268				; size = 4
_iElementCount$187904 = -264				; size = 4
_iElementsSlot$187905 = -260				; size = 20
_szMsg$187928 = -240					; size = 200
_szUnitName$187898 = -40				; size = 20
__$ArrayPad$ = -20					; size = 4
__$EHRec$ = -16						; size = 16
_lpszFileName$ = 8					; size = 4
?LoadData@TMonsterSkillUnit@@SAHPAD@Z PROC		; TMonsterSkillUnit::LoadData, COMDAT

; 52   : {

  00000	55		 push	 ebp
  00001	8b ec		 mov	 ebp, esp
  00003	6a ff		 push	 -1
  00005	68 00 00 00 00	 push	 __ehhandler$?LoadData@TMonsterSkillUnit@@SAHPAD@Z
  0000a	64 a1 00 00 00
	00		 mov	 eax, DWORD PTR fs:0
  00010	50		 push	 eax
  00011	81 ec 10 01 00
	00		 sub	 esp, 272		; 00000110H
  00017	a1 00 00 00 00	 mov	 eax, DWORD PTR ___security_cookie
  0001c	33 c5		 xor	 eax, ebp
  0001e	89 45 ec	 mov	 DWORD PTR __$ArrayPad$[ebp], eax
  00021	53		 push	 ebx
  00022	56		 push	 esi
  00023	57		 push	 edi
  00024	50		 push	 eax
  00025	8d 45 f4	 lea	 eax, DWORD PTR __$EHRec$[ebp+4]
  00028	64 a3 00 00 00
	00		 mov	 DWORD PTR fs:0, eax
  0002e	89 65 f0	 mov	 DWORD PTR __$EHRec$[ebp], esp
  00031	8b 75 08	 mov	 esi, DWORD PTR _lpszFileName$[ebp]

; 53   : 	TMonsterSkillUnit::s_bDataLoad = FALSE;

  00034	33 ff		 xor	 edi, edi
  00036	89 b5 f4 fe ff
	ff		 mov	 DWORD PTR _lpszFileName$GSCopy$[ebp], esi
  0003c	89 3d 00 00 00
	00		 mov	 DWORD PTR ?s_bDataLoad@TMonsterSkillUnit@@2HA, edi ; TMonsterSkillUnit::s_bDataLoad

; 54   : 
; 55   : 	if ( lpszFileName == NULL || strcmp(lpszFileName, "") == 0 )

  00042	3b f7		 cmp	 esi, edi
  00044	0f 84 92 03 00
	00		 je	 $LN21@LoadData
  0004a	b9 00 00 00 00	 mov	 ecx, OFFSET ??_C@_00CNPNBAHC@?$AA@
  0004f	8b c6		 mov	 eax, esi
$LL35@LoadData:
  00051	8a 10		 mov	 dl, BYTE PTR [eax]
  00053	3a 11		 cmp	 dl, BYTE PTR [ecx]
  00055	75 1a		 jne	 SHORT $LN36@LoadData
  00057	84 d2		 test	 dl, dl
  00059	74 12		 je	 SHORT $LN37@LoadData
  0005b	8a 50 01	 mov	 dl, BYTE PTR [eax+1]
  0005e	3a 51 01	 cmp	 dl, BYTE PTR [ecx+1]
  00061	75 0e		 jne	 SHORT $LN36@LoadData
  00063	83 c0 02	 add	 eax, 2
  00066	83 c1 02	 add	 ecx, 2
  00069	84 d2		 test	 dl, dl
  0006b	75 e4		 jne	 SHORT $LL35@LoadData
$LN37@LoadData:
  0006d	33 c0		 xor	 eax, eax
  0006f	eb 05		 jmp	 SHORT $LN38@LoadData
$LN36@LoadData:
  00071	1b c0		 sbb	 eax, eax
  00073	83 d8 ff	 sbb	 eax, -1
$LN38@LoadData:
  00076	3b c7		 cmp	 eax, edi
  00078	0f 84 5e 03 00
	00		 je	 $LN21@LoadData

; 59   : 	}
; 60   : 
; 61   : 	try
; 62   : 	{
; 63   : 		SMDToken Token;
; 64   : 		SMDFile = fopen(lpszFileName, "r");

  0007e	68 00 00 00 00	 push	 OFFSET ??_C@_01KDCPPGHE@r?$AA@
  00083	56		 push	 esi
  00084	89 7d fc	 mov	 DWORD PTR __$EHRec$[ebp+12], edi
  00087	e8 00 00 00 00	 call	 _fopen
  0008c	83 c4 08	 add	 esp, 8
  0008f	a3 00 00 00 00	 mov	 DWORD PTR _SMDFile, eax

; 65   : 
; 66   : 		if ( SMDFile == NULL )

  00094	3b c7		 cmp	 eax, edi
  00096	75 13		 jne	 SHORT $LN19@LoadData

; 67   : 		{
; 68   : 			MsgBox("[Monster Skill Unit] - Can't Open %s ", lpszFileName);

  00098	56		 push	 esi
  00099	68 00 00 00 00	 push	 OFFSET ??_C@_0CG@GBNGOID@?$FLMonster?5Skill?5Unit?$FN?5?9?5Can?8t?5Ope@
  0009e	e8 00 00 00 00	 call	 ?MsgBox@@YAXPADZZ	; MsgBox
  000a3	83 c4 08	 add	 esp, 8

; 69   : 			return FALSE;

  000a6	e9 3e 03 00 00	 jmp	 $LN45@LoadData
$LN19@LoadData:

; 70   : 		}
; 71   : 
; 72   : 
; 73   : 		TMonsterSkillUnit::DelAllSkillUnit();

  000ab	e8 00 00 00 00	 call	 ?DelAllSkillUnit@TMonsterSkillUnit@@SAHXZ ; TMonsterSkillUnit::DelAllSkillUnit
$LL18@LoadData:

; 74   : 		int iType = -1;
; 75   : 
; 76   : 		while ( true )
; 77   : 		{
; 78   : 			Token = (SMDToken)GetToken();

  000b0	e8 00 00 00 00	 call	 ?GetToken@@YA?AW4SMDToken@@XZ ; GetToken

; 79   : 
; 80   : 			if ( Token == END )

  000b5	83 f8 02	 cmp	 eax, 2
  000b8	75 2b		 jne	 SHORT $LN16@LoadData

; 174  : 				}
; 175  : 			}
; 176  : 		
; 177  : 		}
; 178  : 
; 179  : 		fclose(SMDFile);

  000ba	a1 00 00 00 00	 mov	 eax, DWORD PTR _SMDFile
  000bf	50		 push	 eax
  000c0	e8 00 00 00 00	 call	 _fclose

; 180  : 		LogAddC(2,"[Monster Skill Unit] - %s file is Loaded", lpszFileName);

  000c5	56		 push	 esi
  000c6	68 00 00 00 00	 push	 OFFSET ??_C@_0CJ@ODDJOAOF@?$FLMonster?5Skill?5Unit?$FN?5?9?5?$CFs?5file?5i@
  000cb	6a 02		 push	 2
  000cd	ff 15 00 00 00
	00		 call	 DWORD PTR ?LogAddC@@3P6AXEPADZZA ; LogAddC
  000d3	83 c4 10	 add	 esp, 16			; 00000010H

; 181  : 		TMonsterSkillUnit::s_bDataLoad = TRUE;

  000d6	c7 05 00 00 00
	00 01 00 00 00	 mov	 DWORD PTR ?s_bDataLoad@TMonsterSkillUnit@@2HA, 1 ; TMonsterSkillUnit::s_bDataLoad
  000e0	e9 04 03 00 00	 jmp	 $LN45@LoadData
$LN16@LoadData:

; 81   : 				break;
; 82   : 
; 83   : 			iType = (int)TokenNumber;

  000e5	d9 05 00 00 00
	00		 fld	 DWORD PTR _TokenNumber
  000eb	e8 00 00 00 00	 call	 __ftol2_sse
  000f0	89 85 e8 fe ff
	ff		 mov	 DWORD PTR _iType$187887[ebp], eax
$LL15@LoadData:

; 84   : 
; 85   : 			while ( true )
; 86   : 			{
; 87   : 				if ( iType == 0 )

  000f6	33 ff		 xor	 edi, edi
  000f8	39 bd e8 fe ff
	ff		 cmp	 DWORD PTR _iType$187887[ebp], edi
  000fe	75 f6		 jne	 SHORT $LL15@LoadData

; 88   : 				{
; 89   : 					char szUnitName[20] = {0};

  00100	33 c0		 xor	 eax, eax
  00102	c6 45 d8 00	 mov	 BYTE PTR _szUnitName$187898[ebp], 0
  00106	89 45 d9	 mov	 DWORD PTR _szUnitName$187898[ebp+1], eax
  00109	89 45 dd	 mov	 DWORD PTR _szUnitName$187898[ebp+5], eax
  0010c	89 45 e1	 mov	 DWORD PTR _szUnitName$187898[ebp+9], eax
  0010f	89 45 e5	 mov	 DWORD PTR _szUnitName$187898[ebp+13], eax
  00112	66 89 45 e9	 mov	 WORD PTR _szUnitName$187898[ebp+17], ax
  00116	88 45 eb	 mov	 BYTE PTR _szUnitName$187898[ebp+19], al

; 90   : 					int iUnitNumber = -1;
; 91   : 					int iUnitTargetType = -1;
; 92   : 					int iUnitScopeType = -1;
; 93   : 					int iUnitScopeValue = -1;
; 94   : 					int iDelay = -1;
; 95   : 					int iElementCount = 0;

  00119	89 bd f8 fe ff
	ff		 mov	 DWORD PTR _iElementCount$187904[ebp], edi

; 96   : 					int iElementsSlot[5] = { -1};

  0011f	c7 85 fc fe ff
	ff ff ff ff ff	 mov	 DWORD PTR _iElementsSlot$187905[ebp], -1
  00129	89 85 00 ff ff
	ff		 mov	 DWORD PTR _iElementsSlot$187905[ebp+4], eax
  0012f	89 85 04 ff ff
	ff		 mov	 DWORD PTR _iElementsSlot$187905[ebp+8], eax
  00135	89 85 08 ff ff
	ff		 mov	 DWORD PTR _iElementsSlot$187905[ebp+12], eax
  0013b	89 85 0c ff ff
	ff		 mov	 DWORD PTR _iElementsSlot$187905[ebp+16], eax

; 97   : 	
; 98   : 					Token = (SMDToken)GetToken();

  00141	e8 00 00 00 00	 call	 ?GetToken@@YA?AW4SMDToken@@XZ ; GetToken

; 99   : 
; 100  : 					if ( strcmp("end", TokenString) == 0 )

  00146	b9 00 00 00 00	 mov	 ecx, OFFSET _TokenString
  0014b	b8 00 00 00 00	 mov	 eax, OFFSET ??_C@_03JBJLGPFL@end?$AA@
$LL39@LoadData:
  00150	8a 10		 mov	 dl, BYTE PTR [eax]
  00152	3a 11		 cmp	 dl, BYTE PTR [ecx]
  00154	75 1a		 jne	 SHORT $LN40@LoadData
  00156	84 d2		 test	 dl, dl
  00158	74 12		 je	 SHORT $LN41@LoadData
  0015a	8a 50 01	 mov	 dl, BYTE PTR [eax+1]
  0015d	3a 51 01	 cmp	 dl, BYTE PTR [ecx+1]
  00160	75 0e		 jne	 SHORT $LN40@LoadData
  00162	83 c0 02	 add	 eax, 2
  00165	83 c1 02	 add	 ecx, 2
  00168	84 d2		 test	 dl, dl
  0016a	75 e4		 jne	 SHORT $LL39@LoadData
$LN41@LoadData:
  0016c	33 c0		 xor	 eax, eax
  0016e	eb 05		 jmp	 SHORT $LN42@LoadData
$LN40@LoadData:
  00170	1b c0		 sbb	 eax, eax
  00172	83 d8 ff	 sbb	 eax, -1
$LN42@LoadData:
  00175	3b c7		 cmp	 eax, edi
  00177	0f 84 3a 02 00
	00		 je	 $LN43@LoadData

; 101  : 						break;
; 102  : 
; 103  : 					iUnitNumber = (int)TokenNumber;

  0017d	d9 05 00 00 00
	00		 fld	 DWORD PTR _TokenNumber
  00183	e8 00 00 00 00	 call	 __ftol2_sse
  00188	8b f0		 mov	 esi, eax

; 104  : 
; 105  : 					Token = (SMDToken)GetToken();

  0018a	e8 00 00 00 00	 call	 ?GetToken@@YA?AW4SMDToken@@XZ ; GetToken

; 106  : 					memcpy(szUnitName, TokenString, sizeof(szUnitName));

  0018f	8b 0d 00 00 00
	00		 mov	 ecx, DWORD PTR _TokenString
  00195	8b 15 04 00 00
	00		 mov	 edx, DWORD PTR _TokenString+4
  0019b	a1 08 00 00 00	 mov	 eax, DWORD PTR _TokenString+8
  001a0	89 4d d8	 mov	 DWORD PTR _szUnitName$187898[ebp], ecx
  001a3	8b 0d 0c 00 00
	00		 mov	 ecx, DWORD PTR _TokenString+12
  001a9	89 55 dc	 mov	 DWORD PTR _szUnitName$187898[ebp+4], edx
  001ac	8b 15 10 00 00
	00		 mov	 edx, DWORD PTR _TokenString+16
  001b2	89 45 e0	 mov	 DWORD PTR _szUnitName$187898[ebp+8], eax
  001b5	89 4d e4	 mov	 DWORD PTR _szUnitName$187898[ebp+12], ecx
  001b8	89 55 e8	 mov	 DWORD PTR _szUnitName$187898[ebp+16], edx

; 107  : 
; 108  : 					Token = (SMDToken)GetToken();

  001bb	e8 00 00 00 00	 call	 ?GetToken@@YA?AW4SMDToken@@XZ ; GetToken

; 109  : 					iUnitTargetType = (int)TokenNumber;

  001c0	d9 05 00 00 00
	00		 fld	 DWORD PTR _TokenNumber
  001c6	e8 00 00 00 00	 call	 __ftol2_sse
  001cb	8b d8		 mov	 ebx, eax

; 110  : 
; 111  : 					Token = (SMDToken)GetToken();

  001cd	e8 00 00 00 00	 call	 ?GetToken@@YA?AW4SMDToken@@XZ ; GetToken

; 112  : 					iUnitScopeType = (int)TokenNumber;

  001d2	d9 05 00 00 00
	00		 fld	 DWORD PTR _TokenNumber
  001d8	e8 00 00 00 00	 call	 __ftol2_sse
  001dd	89 85 e4 fe ff
	ff		 mov	 DWORD PTR _iUnitScopeType$187901[ebp], eax

; 113  : 
; 114  : 					Token = (SMDToken)GetToken();

  001e3	e8 00 00 00 00	 call	 ?GetToken@@YA?AW4SMDToken@@XZ ; GetToken

; 115  : 					iUnitScopeValue = (int)TokenNumber;

  001e8	d9 05 00 00 00
	00		 fld	 DWORD PTR _TokenNumber
  001ee	e8 00 00 00 00	 call	 __ftol2_sse
  001f3	89 85 ec fe ff
	ff		 mov	 DWORD PTR _iUnitScopeValue$187902[ebp], eax

; 116  : 
; 117  : 					Token = (SMDToken)GetToken();

  001f9	e8 00 00 00 00	 call	 ?GetToken@@YA?AW4SMDToken@@XZ ; GetToken

; 118  : 					iDelay = (int)TokenNumber;

  001fe	d9 05 00 00 00
	00		 fld	 DWORD PTR _TokenNumber
  00204	e8 00 00 00 00	 call	 __ftol2_sse
  00209	89 85 f0 fe ff
	ff		 mov	 DWORD PTR _iDelay$187903[ebp], eax
  0020f	90		 npad	 1
$LL11@LoadData:

; 119  : 
; 120  : 					for ( int i=0;i<5;i++)

  00210	83 ff 05	 cmp	 edi, 5
  00213	7d 1a		 jge	 SHORT $LN9@LoadData

; 121  : 					{
; 122  : 						Token = (SMDToken)GetToken();

  00215	e8 00 00 00 00	 call	 ?GetToken@@YA?AW4SMDToken@@XZ ; GetToken

; 123  : 						iElementsSlot[i] = (int)TokenNumber;

  0021a	d9 05 00 00 00
	00		 fld	 DWORD PTR _TokenNumber
  00220	e8 00 00 00 00	 call	 __ftol2_sse
  00225	89 84 bd fc fe
	ff ff		 mov	 DWORD PTR _iElementsSlot$187905[ebp+edi*4], eax
  0022c	47		 inc	 edi
  0022d	eb e1		 jmp	 SHORT $LL11@LoadData
$LN9@LoadData:

; 124  : 					}
; 125  : 
; 126  : 					if ( iUnitNumber < 0 || iUnitNumber >= MAX_MONSTER_SKILL_UNIT_ARRAY )

  0022f	81 fe c7 00 00
	00		 cmp	 esi, 199		; 000000c7H
  00235	0f 87 62 01 00
	00		 ja	 $LN7@LoadData

; 131  : 					}
; 132  : 
; 133  : 					char szMsg[200] = {0};

  0023b	68 c7 00 00 00	 push	 199			; 000000c7H
  00240	8d 85 11 ff ff
	ff		 lea	 eax, DWORD PTR _szMsg$187928[ebp+1]
  00246	6a 00		 push	 0
  00248	50		 push	 eax
  00249	c6 85 10 ff ff
	ff 00		 mov	 BYTE PTR _szMsg$187928[ebp], 0
  00250	e8 00 00 00 00	 call	 _memset

; 134  : 
; 135  : 					wsprintf(szMsg, "¡ÚNum:%d,Name:%s,TType:%d,SType:%d,SValue:%d,Delay:%d, E0:%d,E1:%d,E2:%d,E3:%d,E4:%d\n",
; 136  : 						iUnitNumber, szUnitName, iUnitTargetType, iUnitScopeType, iUnitScopeValue, iDelay,
; 137  : 						iElementsSlot[0], iElementsSlot[1], iElementsSlot[2], iElementsSlot[3], iElementsSlot[4]);

  00255	8b 8d 0c ff ff
	ff		 mov	 ecx, DWORD PTR _iElementsSlot$187905[ebp+16]
  0025b	8b 95 08 ff ff
	ff		 mov	 edx, DWORD PTR _iElementsSlot$187905[ebp+12]
  00261	8b 85 04 ff ff
	ff		 mov	 eax, DWORD PTR _iElementsSlot$187905[ebp+8]
  00267	8b bd e4 fe ff
	ff		 mov	 edi, DWORD PTR _iUnitScopeType$187901[ebp]
  0026d	51		 push	 ecx
  0026e	8b 8d 00 ff ff
	ff		 mov	 ecx, DWORD PTR _iElementsSlot$187905[ebp+4]
  00274	52		 push	 edx
  00275	8b 95 fc fe ff
	ff		 mov	 edx, DWORD PTR _iElementsSlot$187905[ebp]
  0027b	50		 push	 eax
  0027c	8b 85 f0 fe ff
	ff		 mov	 eax, DWORD PTR _iDelay$187903[ebp]
  00282	51		 push	 ecx
  00283	8b 8d ec fe ff
	ff		 mov	 ecx, DWORD PTR _iUnitScopeValue$187902[ebp]
  00289	52		 push	 edx
  0028a	50		 push	 eax
  0028b	51		 push	 ecx
  0028c	57		 push	 edi
  0028d	53		 push	 ebx
  0028e	8d 55 d8	 lea	 edx, DWORD PTR _szUnitName$187898[ebp]
  00291	52		 push	 edx
  00292	56		 push	 esi
  00293	8d 85 10 ff ff
	ff		 lea	 eax, DWORD PTR _szMsg$187928[ebp]
  00299	68 00 00 00 00	 push	 OFFSET ??_C@_0FG@GEINPOHG@?$KB?ZNum?3?$CFd?0Name?3?$CFs?0TType?3?$CFd?0SType?3@
  0029e	50		 push	 eax
  0029f	ff 15 00 00 00
	00		 call	 DWORD PTR __imp__wsprintfA
  002a5	83 c4 40	 add	 esp, 64			; 00000040H

; 138  : 
; 139  : 					OutputDebugString(szMsg);

  002a8	8d 8d 10 ff ff
	ff		 lea	 ecx, DWORD PTR _szMsg$187928[ebp]
  002ae	51		 push	 ecx
  002af	ff 15 00 00 00
	00		 call	 DWORD PTR __imp__OutputDebugStringA@4

; 140  : 
; 141  : 					TMonsterSkillUnit::s_MonsterSkillUnitArray[iUnitNumber].m_iUnitNumber = iUnitNumber;
; 142  : 					TMonsterSkillUnit::s_MonsterSkillUnitArray[iUnitNumber].m_iUnitTargetType = iUnitTargetType;
; 143  : 					TMonsterSkillUnit::s_MonsterSkillUnitArray[iUnitNumber].m_iUnitScopeType = iUnitScopeType;
; 144  : 					TMonsterSkillUnit::s_MonsterSkillUnitArray[iUnitNumber].m_iUnitScopeValue = iUnitScopeValue;

  002b5	8b 95 ec fe ff
	ff		 mov	 edx, DWORD PTR _iUnitScopeValue$187902[ebp]

; 145  : 					TMonsterSkillUnit::s_MonsterSkillUnitArray[iUnitNumber].m_iDelay = iDelay;

  002bb	8b 8d f0 fe ff
	ff		 mov	 ecx, DWORD PTR _iDelay$187903[ebp]
  002c1	8b c6		 mov	 eax, esi
  002c3	c1 e0 04	 shl	 eax, 4
  002c6	03 c6		 add	 eax, esi
  002c8	03 c0		 add	 eax, eax
  002ca	03 c0		 add	 eax, eax
  002cc	89 90 24 00 00
	00		 mov	 DWORD PTR ?s_MonsterSkillUnitArray@TMonsterSkillUnit@@2PAV1@A[eax+36], edx

; 146  : 					memcpy(TMonsterSkillUnit::s_MonsterSkillUnitArray[iUnitNumber].m_szUnitName, szUnitName,
; 147  : 						sizeof(TMonsterSkillUnit::s_MonsterSkillUnitArray[iUnitNumber].m_szUnitName));

  002d2	8b 55 d8	 mov	 edx, DWORD PTR _szUnitName$187898[ebp]
  002d5	89 90 04 00 00
	00		 mov	 DWORD PTR ?s_MonsterSkillUnitArray@TMonsterSkillUnit@@2PAV1@A[eax+4], edx
  002db	8b 55 e0	 mov	 edx, DWORD PTR _szUnitName$187898[ebp+8]
  002de	89 88 28 00 00
	00		 mov	 DWORD PTR ?s_MonsterSkillUnitArray@TMonsterSkillUnit@@2PAV1@A[eax+40], ecx
  002e4	8b 4d dc	 mov	 ecx, DWORD PTR _szUnitName$187898[ebp+4]
  002e7	89 88 08 00 00
	00		 mov	 DWORD PTR ?s_MonsterSkillUnitArray@TMonsterSkillUnit@@2PAV1@A[eax+8], ecx
  002ed	8b 4d e4	 mov	 ecx, DWORD PTR _szUnitName$187898[ebp+12]
  002f0	89 90 0c 00 00
	00		 mov	 DWORD PTR ?s_MonsterSkillUnitArray@TMonsterSkillUnit@@2PAV1@A[eax+12], edx
  002f6	8b 55 e8	 mov	 edx, DWORD PTR _szUnitName$187898[ebp+16]
  002f9	89 b8 20 00 00
	00		 mov	 DWORD PTR ?s_MonsterSkillUnitArray@TMonsterSkillUnit@@2PAV1@A[eax+32], edi
  002ff	89 88 10 00 00
	00		 mov	 DWORD PTR ?s_MonsterSkillUnitArray@TMonsterSkillUnit@@2PAV1@A[eax+16], ecx
  00305	89 b0 18 00 00
	00		 mov	 DWORD PTR ?s_MonsterSkillUnitArray@TMonsterSkillUnit@@2PAV1@A[eax+24], esi
  0030b	89 98 1c 00 00
	00		 mov	 DWORD PTR ?s_MonsterSkillUnitArray@TMonsterSkillUnit@@2PAV1@A[eax+28], ebx
  00311	89 90 14 00 00
	00		 mov	 DWORD PTR ?s_MonsterSkillUnitArray@TMonsterSkillUnit@@2PAV1@A[eax+20], edx

; 148  : 
; 149  : 					for(int i=0;i<5;i++)

  00317	33 ff		 xor	 edi, edi
  00319	8d a4 24 00 00
	00 00		 npad	 7
$LL6@LoadData:
  00320	83 ff 05	 cmp	 edi, 5
  00323	7d 5f		 jge	 SHORT $LN4@LoadData

; 150  : 					{
; 151  : 						int iElement = iElementsSlot[i];

  00325	8b 9c bd fc fe
	ff ff		 mov	 ebx, DWORD PTR _iElementsSlot$187905[ebp+edi*4]

; 152  : 
; 153  : 						if ( iElement != -1 )

  0032c	83 fb ff	 cmp	 ebx, -1
  0032f	74 50		 je	 SHORT $LN5@LoadData

; 154  : 						{
; 155  : 							TMonsterSkillElement * pMonsterSkillElement = TMonsterSkillElement::FindSkillElement(iElement);

  00331	53		 push	 ebx
  00332	e8 00 00 00 00	 call	 ?FindSkillElement@TMonsterSkillElement@@SAPAV1@H@Z ; TMonsterSkillElement::FindSkillElement
  00337	83 c4 04	 add	 esp, 4

; 156  : 
; 157  : 							if ( pMonsterSkillElement )

  0033a	85 c0		 test	 eax, eax
  0033c	74 32		 je	 SHORT $LN2@LoadData

; 158  : 							{
; 159  : 								iElementCount++;

  0033e	ff 85 f8 fe ff
	ff		 inc	 DWORD PTR _iElementCount$187904[ebp]

; 160  : 								TMonsterSkillUnit::s_MonsterSkillUnitArray[iUnitNumber].m_lpElementsSlot[i] = pMonsterSkillElement;

  00344	8b ce		 mov	 ecx, esi
  00346	c1 e1 04	 shl	 ecx, 4
  00349	03 cf		 add	 ecx, edi
  0034b	03 ce		 add	 ecx, esi
  0034d	89 04 8d 30 00
	00 00		 mov	 DWORD PTR ?s_MonsterSkillUnitArray@TMonsterSkillUnit@@2PAV1@A[ecx*4+48], eax

; 161  : 
; 162  : 								LogAddC(4, "[Monster Skill Unit] - Found SkillElement (%d)(%s)",
; 163  : 									iElement, pMonsterSkillElement->GetElementName());

  00354	8b c8		 mov	 ecx, eax
  00356	e8 00 00 00 00	 call	 ?GetElementName@TMonsterSkillElement@@QAEPADXZ ; TMonsterSkillElement::GetElementName
  0035b	50		 push	 eax
  0035c	53		 push	 ebx
  0035d	68 00 00 00 00	 push	 OFFSET ??_C@_0DD@HMCEGHBH@?$FLMonster?5Skill?5Unit?$FN?5?9?5Found?5Ski@
  00362	6a 04		 push	 4
  00364	ff 15 00 00 00
	00		 call	 DWORD PTR ?LogAddC@@3P6AXEPADZZA ; LogAddC
  0036a	83 c4 10	 add	 esp, 16			; 00000010H
  0036d	47		 inc	 edi
  0036e	eb b0		 jmp	 SHORT $LL6@LoadData
$LN2@LoadData:

; 164  : 							}
; 165  : 							else
; 166  : 							{
; 167  : 								LogAddC(2, "[Monster Skill Unit] - Not Found SkillElement (%d)",
; 168  : 									iElement);	

  00370	53		 push	 ebx
  00371	68 00 00 00 00	 push	 OFFSET ??_C@_0DD@HAEDKJID@?$FLMonster?5Skill?5Unit?$FN?5?9?5Not?5Found@
  00376	6a 02		 push	 2
  00378	ff 15 00 00 00
	00		 call	 DWORD PTR ?LogAddC@@3P6AXEPADZZA ; LogAddC
  0037e	83 c4 0c	 add	 esp, 12			; 0000000cH
$LN5@LoadData:

; 148  : 
; 149  : 					for(int i=0;i<5;i++)

  00381	47		 inc	 edi
  00382	eb 9c		 jmp	 SHORT $LL6@LoadData
$LN4@LoadData:

; 169  : 							}
; 170  : 						}
; 171  : 					}
; 172  : 
; 173  : 					TMonsterSkillUnit::s_MonsterSkillUnitArray[iUnitNumber].m_iElementsCount = iElementCount;

  00384	8b 85 f8 fe ff
	ff		 mov	 eax, DWORD PTR _iElementCount$187904[ebp]
  0038a	8b d6		 mov	 edx, esi
  0038c	c1 e2 04	 shl	 edx, 4
  0038f	03 d6		 add	 edx, esi
  00391	89 04 95 2c 00
	00 00		 mov	 DWORD PTR ?s_MonsterSkillUnitArray@TMonsterSkillUnit@@2PAV1@A[edx*4+44], eax
  00398	e9 59 fd ff ff	 jmp	 $LL15@LoadData
$LN7@LoadData:

; 127  : 					{
; 128  : 						MsgBox("[Monster SkillUnit] - Unit(%d) Error (%s) File. "
; 129  : 							,iUnitNumber , lpszFileName);

  0039d	8b 8d f4 fe ff
	ff		 mov	 ecx, DWORD PTR _lpszFileName$GSCopy$[ebp]
  003a3	51		 push	 ecx
  003a4	56		 push	 esi
  003a5	68 00 00 00 00	 push	 OFFSET ??_C@_0DB@DEDEIALP@?$FLMonster?5SkillUnit?$FN?5?9?5Unit?$CI?$CFd?$CJ?5E@
  003aa	e8 00 00 00 00	 call	 ?MsgBox@@YAXPADZZ	; MsgBox
  003af	83 c4 0c	 add	 esp, 12			; 0000000cH

; 130  : 						continue;

  003b2	e9 3f fd ff ff	 jmp	 $LL15@LoadData
$LN43@LoadData:
  003b7	8b b5 f4 fe ff
	ff		 mov	 esi, DWORD PTR _lpszFileName$GSCopy$[ebp]
  003bd	e9 ee fc ff ff	 jmp	 $LL18@LoadData
__catch$?LoadData@TMonsterSkillUnit@@SAHPAD@Z$0:

; 182  : 	}
; 183  : 	catch(...)
; 184  : 	{
; 185  : 		MsgBox("[Monster Skill Unit] - Loading Exception Error (%s) File. ", lpszFileName);

  003c2	8b 95 f4 fe ff
	ff		 mov	 edx, DWORD PTR _lpszFileName$GSCopy$[ebp]
  003c8	52		 push	 edx
  003c9	68 00 00 00 00	 push	 OFFSET ??_C@_0DL@OOGJKOMD@?$FLMonster?5Skill?5Unit?$FN?5?9?5Loading?5E@
  003ce	e8 00 00 00 00	 call	 ?MsgBox@@YAXPADZZ	; MsgBox
  003d3	83 c4 08	 add	 esp, 8

; 186  : 	}

  003d6	b8 00 00 00 00	 mov	 eax, $LN45@LoadData
  003db	c3		 ret	 0
$LN21@LoadData:

; 56   : 	{
; 57   : 		MsgBox("[Monster Skill Unit] - File load error : File Name Error");

  003dc	68 00 00 00 00	 push	 OFFSET ??_C@_0DJ@PCBEFLCK@?$FLMonster?5Skill?5Unit?$FN?5?9?5File?5load@
  003e1	e8 00 00 00 00	 call	 ?MsgBox@@YAXPADZZ	; MsgBox
  003e6	83 c4 04	 add	 esp, 4
$LN45@LoadData:

; 58   : 		return FALSE;

  003e9	33 c0		 xor	 eax, eax

; 187  : 
; 188  : 	return FALSE;
; 189  : }

  003eb	8b 4d f4	 mov	 ecx, DWORD PTR __$EHRec$[ebp+4]
  003ee	64 89 0d 00 00
	00 00		 mov	 DWORD PTR fs:0, ecx
  003f5	59		 pop	 ecx
  003f6	5f		 pop	 edi
  003f7	5e		 pop	 esi
  003f8	5b		 pop	 ebx
  003f9	8b 4d ec	 mov	 ecx, DWORD PTR __$ArrayPad$[ebp]
  003fc	33 cd		 xor	 ecx, ebp
  003fe	e8 00 00 00 00	 call	 @__security_check_cookie@4
  00403	8b e5		 mov	 esp, ebp
  00405	5d		 pop	 ebp
  00406	c3		 ret	 0
_TEXT	ENDS
;	COMDAT text$x
text$x	SEGMENT
__ehhandler$?LoadData@TMonsterSkillUnit@@SAHPAD@Z:
  00000	8b 54 24 08	 mov	 edx, DWORD PTR [esp+8]
  00004	8d 42 0c	 lea	 eax, DWORD PTR [edx+12]
  00007	8b 8a e0 fe ff
	ff		 mov	 ecx, DWORD PTR [edx-288]
  0000d	33 c8		 xor	 ecx, eax
  0000f	e8 00 00 00 00	 call	 @__security_check_cookie@4
  00014	8b 4a f8	 mov	 ecx, DWORD PTR [edx-8]
  00017	33 c8		 xor	 ecx, eax
  00019	e8 00 00 00 00	 call	 @__security_check_cookie@4
  0001e	b8 00 00 00 00	 mov	 eax, OFFSET __ehfuncinfo$?LoadData@TMonsterSkillUnit@@SAHPAD@Z
  00023	e9 00 00 00 00	 jmp	 ___CxxFrameHandler3
text$x	ENDS
?LoadData@TMonsterSkillUnit@@SAHPAD@Z ENDP		; TMonsterSkillUnit::LoadData
EXTRN	_atexit:PROC
EXTRN	??_L@YGXPAXIHP6EX0@Z1@Z:PROC			; `eh vector constructor iterator'
; Function compile flags: /Ogtp
;	COMDAT ??__E?s_MonsterSkillUnitArray@TMonsterSkillUnit@@2PAV1@A@@YAXXZ
text$yc	SEGMENT
??__E?s_MonsterSkillUnitArray@TMonsterSkillUnit@@2PAV1@A@@YAXXZ PROC ; `dynamic initializer for 'TMonsterSkillUnit::s_MonsterSkillUnitArray'', COMDAT

; 13   : TMonsterSkillUnit TMonsterSkillUnit::s_MonsterSkillUnitArray[MAX_MONSTER_SKILL_UNIT_ARRAY];

  00000	68 00 00 00 00	 push	 OFFSET ??1TMonsterSkillUnit@@UAE@XZ ; TMonsterSkillUnit::~TMonsterSkillUnit
  00005	68 00 00 00 00	 push	 OFFSET ??0TMonsterSkillUnit@@QAE@XZ ; TMonsterSkillUnit::TMonsterSkillUnit
  0000a	68 c8 00 00 00	 push	 200			; 000000c8H
  0000f	6a 44		 push	 68			; 00000044H
  00011	68 00 00 00 00	 push	 OFFSET ?s_MonsterSkillUnitArray@TMonsterSkillUnit@@2PAV1@A ; TMonsterSkillUnit::s_MonsterSkillUnitArray
  00016	e8 00 00 00 00	 call	 ??_L@YGXPAXIHP6EX0@Z1@Z
  0001b	68 00 00 00 00	 push	 OFFSET ??__F?s_MonsterSkillUnitArray@TMonsterSkillUnit@@2PAV1@A@@YAXXZ ; `dynamic atexit destructor for 'TMonsterSkillUnit::s_MonsterSkillUnitArray''
  00020	e8 00 00 00 00	 call	 _atexit
  00025	59		 pop	 ecx
  00026	c3		 ret	 0
??__E?s_MonsterSkillUnitArray@TMonsterSkillUnit@@2PAV1@A@@YAXXZ ENDP ; `dynamic initializer for 'TMonsterSkillUnit::s_MonsterSkillUnitArray''
text$yc	ENDS
EXTRN	??_M@YGXPAXIHP6EX0@Z@Z:PROC			; `eh vector destructor iterator'
; Function compile flags: /Ogtp
;	COMDAT ??__F?s_MonsterSkillUnitArray@TMonsterSkillUnit@@2PAV1@A@@YAXXZ
text$yd	SEGMENT
??__F?s_MonsterSkillUnitArray@TMonsterSkillUnit@@2PAV1@A@@YAXXZ PROC ; `dynamic atexit destructor for 'TMonsterSkillUnit::s_MonsterSkillUnitArray'', COMDAT
  00000	68 00 00 00 00	 push	 OFFSET ??1TMonsterSkillUnit@@UAE@XZ ; TMonsterSkillUnit::~TMonsterSkillUnit
  00005	68 c8 00 00 00	 push	 200			; 000000c8H
  0000a	6a 44		 push	 68			; 00000044H
  0000c	68 00 00 00 00	 push	 OFFSET ?s_MonsterSkillUnitArray@TMonsterSkillUnit@@2PAV1@A ; TMonsterSkillUnit::s_MonsterSkillUnitArray
  00011	e8 00 00 00 00	 call	 ??_M@YGXPAXIHP6EX0@Z@Z
  00016	c3		 ret	 0
??__F?s_MonsterSkillUnitArray@TMonsterSkillUnit@@2PAV1@A@@YAXXZ ENDP ; `dynamic atexit destructor for 'TMonsterSkillUnit::s_MonsterSkillUnitArray''
text$yd	ENDS
PUBLIC	?s_MonsterSkillUnitArray@TMonsterSkillUnit@@2PAV1@A ; TMonsterSkillUnit::s_MonsterSkillUnitArray
_BSS	SEGMENT
?s_MonsterSkillUnitArray@TMonsterSkillUnit@@2PAV1@A DB 03520H DUP (?) ; TMonsterSkillUnit::s_MonsterSkillUnitArray
_BSS	ENDS
CRT$XCU	SEGMENT
?s_MonsterSkillUnitArray$initializer$@TMonsterSkillUnit@@2P6AXXZA DD FLAT:??__E?s_MonsterSkillUnitArray@TMonsterSkillUnit@@2PAV1@A@@YAXXZ ; TMonsterSkillUnit::s_MonsterSkillUnitArray$initializer$
CRT$XCU	ENDS
END
