; Listing generated by Microsoft (R) Optimizing Compiler Version 16.00.30319.01 

	TITLE	E:\work\tranet_version\GS\GameServer\TMonsterSkillElement.cpp
	.686P
	.XMM
	include listing.inc
	.model	flat

INCLUDELIB LIBCMT
INCLUDELIB OLDNAMES

PUBLIC	?s_bDataLoad@TMonsterSkillElement@@2HA		; TMonsterSkillElement::s_bDataLoad
_BSS	SEGMENT
?s_bDataLoad@TMonsterSkillElement@@2HA DD 01H DUP (?)	; TMonsterSkillElement::s_bDataLoad
_BSS	ENDS
_DATA	SEGMENT
_g_iNpcUpDfLevel_CGATE DD 01H
	DD	02H
	DD	02dc6c0H
	DD	02H
	DD	03H
	DD	02dc6c0H
	DD	03H
	DD	04H
	DD	02dc6c0H
_g_iNpcUpDfLevel_CSTATUE DD 01H
	DD	03H
	DD	02dc6c0H
	DD	02H
	DD	05H
	DD	02dc6c0H
	DD	03H
	DD	07H
	DD	02dc6c0H
_g_iNpcUpMaxHP_CGATE DD 02625a0H
	DD	02H
	DD	0f4240H
	DD	03567e0H
	DD	03H
	DD	0f4240H
	DD	04f5880H
	DD	04H
	DD	0f4240H
_g_iNpcUpMaxHP_CSTATUE DD 02191c0H
	DD	03H
	DD	0f4240H
	DD	033e140H
	DD	05H
	DD	0f4240H
	DD	04c4b40H
	DD	07H
	DD	0f4240H
_g_iNpcUpRgLevel_CSTATUE DD 01H
	DD	03H
	DD	04c4b40H
	DD	02H
	DD	05H
	DD	04c4b40H
	DD	03H
	DD	07H
	DD	04c4b40H
_g_iCsUserReSpawnArea DD 023H
	DD	011H
	DD	090H
	DD	030H
	DD	04aH
	DD	090H
	DD	073H
	DD	09aH
	DD	023H
	DD	011H
	DD	090H
	DD	030H
_g_iNpcDefense_CGATE DD 064H
	DD	0b4H
	DD	012cH
	DD	0208H
_g_iNpcDefense_CSTATUE DD 050H
	DD	0b4H
	DD	0154H
	DD	0226H
_g_iCastleWallStepAxisY DD 071H
	DD	0a0H
	DD	0cbH
_DATA	ENDS
PUBLIC	??_H@YGXPAXIHP6EPAX0@Z@Z			; `vector constructor iterator'
; Function compile flags: /Ogtp
;	COMDAT ??_H@YGXPAXIHP6EPAX0@Z@Z
_TEXT	SEGMENT
___t$ = 8						; size = 4
___s$ = 12						; size = 4
___n$ = 16						; size = 4
___f$ = 20						; size = 4
??_H@YGXPAXIHP6EPAX0@Z@Z PROC				; `vector constructor iterator', COMDAT
  00000	55		 push	 ebp
  00001	8b ec		 mov	 ebp, esp
  00003	57		 push	 edi
  00004	8b 7d 10	 mov	 edi, DWORD PTR ___n$[ebp]
  00007	4f		 dec	 edi
  00008	78 14		 js	 SHORT $LN1@vector
  0000a	53		 push	 ebx
  0000b	8b 5d 14	 mov	 ebx, DWORD PTR ___f$[ebp]
  0000e	56		 push	 esi
  0000f	8b 75 08	 mov	 esi, DWORD PTR ___t$[ebp]
$LL2@vector:
  00012	8b ce		 mov	 ecx, esi
  00014	ff d3		 call	 ebx
  00016	03 75 0c	 add	 esi, DWORD PTR ___s$[ebp]
  00019	4f		 dec	 edi
  0001a	79 f6		 jns	 SHORT $LL2@vector
  0001c	5e		 pop	 esi
  0001d	5b		 pop	 ebx
$LN1@vector:
  0001e	5f		 pop	 edi
  0001f	5d		 pop	 ebp
  00020	c2 10 00	 ret	 16			; 00000010H
??_H@YGXPAXIHP6EPAX0@Z@Z ENDP				; `vector constructor iterator'
_TEXT	ENDS
PUBLIC	__$ArrayPad$
EXTRN	_isalnum:PROC
EXTRN	_isalpha:PROC
EXTRN	_atof:PROC
EXTRN	_isdigit:PROC
EXTRN	_getc:PROC
EXTRN	_ungetc:PROC
EXTRN	_isspace:PROC
EXTRN	_fgetc:PROC
EXTRN	___security_cookie:DWORD
EXTRN	__fltused:DWORD
EXTRN	@__security_check_cookie@4:PROC
_BSS	SEGMENT
_CurrentToken DD 01H DUP (?)
_TokenNumber DD	01H DUP (?)
_SMDFile DD	01H DUP (?)
_TokenString DB	064H DUP (?)
; Function compile flags: /Ogtp
; File e:\work\tranet_version\gs\include\readscript.h
_BSS	ENDS
;	COMDAT ?GetToken@@YA?AW4SMDToken@@XZ
_TEXT	SEGMENT
_TempString$ = -104					; size = 100
__$ArrayPad$ = -4					; size = 4
?GetToken@@YA?AW4SMDToken@@XZ PROC			; GetToken, COMDAT

; 24   : {

  00000	55		 push	 ebp
  00001	8b ec		 mov	 ebp, esp
  00003	83 ec 68	 sub	 esp, 104		; 00000068H
  00006	a1 00 00 00 00	 mov	 eax, DWORD PTR ___security_cookie
  0000b	33 c5		 xor	 eax, ebp
  0000d	89 45 fc	 mov	 DWORD PTR __$ArrayPad$[ebp], eax

; 25   : 	char ch;
; 26   : 	char* p;
; 27   : 	char TempString[100];
; 28   : 
; 29   : 	TokenString[0]=0;

  00010	c6 05 00 00 00
	00 00		 mov	 BYTE PTR _TokenString, 0
  00017	53		 push	 ebx
  00018	eb 06 8d 9b 00
	00 00 00	 npad	 8
$LL31@GetToken:

; 30   : 
; 31   : 	do
; 32   : 	{
; 33   : 		if ((ch=fgetc(SMDFile)) == -1)

  00020	a1 00 00 00 00	 mov	 eax, DWORD PTR _SMDFile
  00025	50		 push	 eax
  00026	e8 00 00 00 00	 call	 _fgetc
  0002b	8a d8		 mov	 bl, al
  0002d	83 c4 04	 add	 esp, 4
  00030	80 fb ff	 cmp	 bl, -1
  00033	74 64		 je	 SHORT $LN39@GetToken

; 36   : 		}
; 37   : 		else
; 38   : 		{	
; 39   : 			if (ch=='/')		// this is /

  00035	80 fb 2f	 cmp	 bl, 47			; 0000002fH
  00038	75 31		 jne	 SHORT $LN30@GetToken

; 40   : 			{
; 41   : 				if((ch=fgetc(SMDFile)) == '/')

  0003a	8b 0d 00 00 00
	00		 mov	 ecx, DWORD PTR _SMDFile
  00040	51		 push	 ecx
  00041	e8 00 00 00 00	 call	 _fgetc
  00046	8a d8		 mov	 bl, al
  00048	83 c4 04	 add	 esp, 4
  0004b	80 fb 2f	 cmp	 bl, 47			; 0000002fH
  0004e	75 1b		 jne	 SHORT $LN30@GetToken
$LL24@GetToken:

; 42   : 				{
; 43   : 					while ((ch != '\n') && (ch != -1))	// End of Line (EOL)

  00050	80 fb ff	 cmp	 bl, -1
  00053	74 44		 je	 SHORT $LN39@GetToken

; 44   : 					{
; 45   : 						ch=fgetc(SMDFile);

  00055	8b 15 00 00 00
	00		 mov	 edx, DWORD PTR _SMDFile
  0005b	52		 push	 edx
  0005c	e8 00 00 00 00	 call	 _fgetc
  00061	8a d8		 mov	 bl, al
  00063	83 c4 04	 add	 esp, 4
  00066	80 fb 0a	 cmp	 bl, 10			; 0000000aH
  00069	75 e5		 jne	 SHORT $LL24@GetToken
$LN30@GetToken:

; 46   : 					}
; 47   : 	
; 48   : 					if (ch == -1)
; 49   : 					{
; 50   : 						return END;	// End of FILE
; 51   : 					}
; 52   : 				}
; 53   : 			}
; 54   : 		}
; 55   : 	}
; 56   : 	while (isspace(ch) != 0);

  0006b	0f be c3	 movsx	 eax, bl
  0006e	50		 push	 eax
  0006f	e8 00 00 00 00	 call	 _isspace
  00074	83 c4 04	 add	 esp, 4
  00077	85 c0		 test	 eax, eax
  00079	75 a5		 jne	 SHORT $LL31@GetToken

; 57   : 
; 58   : 	
; 59   : 	switch(ch)

  0007b	0f be c3	 movsx	 eax, bl
  0007e	8d 48 de	 lea	 ecx, DWORD PTR [eax-34]
  00081	56		 push	 esi
  00082	83 f9 5b	 cmp	 ecx, 91			; 0000005bH
  00085	0f 87 2b 01 00
	00		 ja	 $LN6@GetToken
  0008b	0f b6 89 00 00
	00 00		 movzx	 ecx, BYTE PTR $LN46@GetToken[ecx]
  00092	ff 24 8d 00 00
	00 00		 jmp	 DWORD PTR $LN50@GetToken[ecx*4]
$LN39@GetToken:

; 34   : 		{
; 35   : 			return END;	// End of FILE (EOF)

  00099	b8 02 00 00 00	 mov	 eax, 2
  0009e	5b		 pop	 ebx

; 147  : 		}
; 148  : 		break;
; 149  : 
; 150  : 	}
; 151  : 
; 152  : 	return NAME;
; 153  : }

  0009f	8b 4d fc	 mov	 ecx, DWORD PTR __$ArrayPad$[ebp]
  000a2	33 cd		 xor	 ecx, ebp
  000a4	e8 00 00 00 00	 call	 @__security_check_cookie@4
  000a9	8b e5		 mov	 esp, ebp
  000ab	5d		 pop	 ebp
  000ac	c3		 ret	 0
$LN19@GetToken:

; 60   : 	{
; 61   : 
; 62   : 	case 0x23:	// #
; 63   : 		return CurrentToken=COMMAND;

  000ad	b8 23 00 00 00	 mov	 eax, 35			; 00000023H
  000b2	e9 99 01 00 00	 jmp	 $LN48@GetToken
$LN18@GetToken:

; 64   : 		break;
; 65   : 	
; 66   : 	case 0x3B:	// ;
; 67   : 		return CurrentToken=SEMICOLON;

  000b7	b8 3b 00 00 00	 mov	 eax, 59			; 0000003bH
  000bc	e9 8f 01 00 00	 jmp	 $LN48@GetToken
$LN17@GetToken:

; 68   : 		break;
; 69   : 	
; 70   : 	case 0x2C:	// ,
; 71   : 
; 72   : 		return CurrentToken=COMMA;

  000c1	b8 2c 00 00 00	 mov	 eax, 44			; 0000002cH
  000c6	e9 85 01 00 00	 jmp	 $LN48@GetToken
$LN16@GetToken:

; 73   : 		break;
; 74   : 	
; 75   : 	case 0x7B:	// {
; 76   : 		return CurrentToken = LP;

  000cb	b8 7b 00 00 00	 mov	 eax, 123		; 0000007bH
  000d0	e9 7b 01 00 00	 jmp	 $LN48@GetToken
$LN15@GetToken:

; 77   : 		break;
; 78   : 
; 79   : 	case 0x7D:	// }
; 80   : 		return CurrentToken = RP;

  000d5	b8 7d 00 00 00	 mov	 eax, 125		; 0000007dH
  000da	e9 71 01 00 00	 jmp	 $LN48@GetToken
$LN14@GetToken:

; 81   : 		break;
; 82   : 	// Nice Index Table :)	by Deathway
; 83   : 	// Numbers Case
; 84   : 	case 0x2D:	//-
; 85   : 	case 0x2E:	//.
; 86   : 	case '0':	//0
; 87   : 	case '1':	//1
; 88   : 	case '2':	//2
; 89   : 	case '3':	//3
; 90   : 	case '4':	//4		
; 91   : 	case '5':	//5
; 92   : 	case '6':	//6
; 93   : 	case '7':	//7
; 94   : 	case '8':	//8
; 95   : 	case '9':	//9
; 96   : 		ungetc(ch, SMDFile);

  000df	8b 15 00 00 00
	00		 mov	 edx, DWORD PTR _SMDFile
  000e5	52		 push	 edx
  000e6	50		 push	 eax
  000e7	e8 00 00 00 00	 call	 _ungetc

; 97   : 		p = TempString;
; 98   : 		
; 99   : 		while (((ch=getc(SMDFile)) != -1) && ((ch == 0x2E) || (isdigit(ch) != 0) || (ch == 0x2D)))  // 2e '.'  2D '-'

  000ec	a1 00 00 00 00	 mov	 eax, DWORD PTR _SMDFile
  000f1	50		 push	 eax
  000f2	8d 75 98	 lea	 esi, DWORD PTR _TempString$[ebp]
  000f5	e8 00 00 00 00	 call	 _getc
  000fa	8a d8		 mov	 bl, al
  000fc	83 c4 0c	 add	 esp, 12			; 0000000cH
  000ff	80 fb ff	 cmp	 bl, -1
  00102	74 33		 je	 SHORT $LN12@GetToken
$LL13@GetToken:
  00104	80 fb 2e	 cmp	 bl, 46			; 0000002eH
  00107	74 15		 je	 SHORT $LN11@GetToken
  00109	0f be cb	 movsx	 ecx, bl
  0010c	51		 push	 ecx
  0010d	e8 00 00 00 00	 call	 _isdigit
  00112	83 c4 04	 add	 esp, 4
  00115	85 c0		 test	 eax, eax
  00117	75 05		 jne	 SHORT $LN11@GetToken
  00119	80 fb 2d	 cmp	 bl, 45			; 0000002dH
  0011c	75 19		 jne	 SHORT $LN12@GetToken
$LN11@GetToken:
  0011e	8b 15 00 00 00
	00		 mov	 edx, DWORD PTR _SMDFile

; 100  : 		{
; 101  : 			*p = ch;	// Construct a String

  00124	88 1e		 mov	 BYTE PTR [esi], bl
  00126	52		 push	 edx

; 102  : 			p++;

  00127	46		 inc	 esi
  00128	e8 00 00 00 00	 call	 _getc
  0012d	8a d8		 mov	 bl, al
  0012f	83 c4 04	 add	 esp, 4
  00132	80 fb ff	 cmp	 bl, -1
  00135	75 cd		 jne	 SHORT $LL13@GetToken
$LN12@GetToken:

; 103  : 		}		
; 104  : 		*p = 0;
; 105  : 		TokenNumber = atof( TempString);	// Select the first Byte as Main ID

  00137	8d 45 98	 lea	 eax, DWORD PTR _TempString$[ebp]
  0013a	50		 push	 eax
  0013b	c6 06 00	 mov	 BYTE PTR [esi], 0
  0013e	e8 00 00 00 00	 call	 _atof
  00143	d9 1d 00 00 00
	00		 fstp	 DWORD PTR _TokenNumber
  00149	83 c4 04	 add	 esp, 4
  0014c	5e		 pop	 esi

; 106  : 		return CurrentToken  = NUMBER ;

  0014d	c7 05 00 00 00
	00 01 00 00 00	 mov	 DWORD PTR _CurrentToken, 1
  00157	b8 01 00 00 00	 mov	 eax, 1
  0015c	5b		 pop	 ebx

; 147  : 		}
; 148  : 		break;
; 149  : 
; 150  : 	}
; 151  : 
; 152  : 	return NAME;
; 153  : }

  0015d	8b 4d fc	 mov	 ecx, DWORD PTR __$ArrayPad$[ebp]
  00160	33 cd		 xor	 ecx, ebp
  00162	e8 00 00 00 00	 call	 @__security_check_cookie@4
  00167	8b e5		 mov	 esp, ebp
  00169	5d		 pop	 ebp
  0016a	c3		 ret	 0
$LN10@GetToken:

; 107  : 		break;
; 108  : 
; 109  : 	case '\"':	// "	String Case
; 110  : 		p=&TokenString[0];
; 111  : 		
; 112  : 		while (((ch=getc(SMDFile)) != -1 ) && (ch != 0x22))	// nice

  0016b	8b 0d 00 00 00
	00		 mov	 ecx, DWORD PTR _SMDFile
  00171	51		 push	 ecx
  00172	be 00 00 00 00	 mov	 esi, OFFSET _TokenString
  00177	e8 00 00 00 00	 call	 _getc
  0017c	83 c4 04	 add	 esp, 4
  0017f	3c ff		 cmp	 al, -1
  00181	74 1e		 je	 SHORT $LN8@GetToken
$LL9@GetToken:
  00183	3c 22		 cmp	 al, 34			; 00000022H
  00185	0f 84 a1 00 00
	00		 je	 $LN7@GetToken
  0018b	8b 15 00 00 00
	00		 mov	 edx, DWORD PTR _SMDFile

; 113  : 		{
; 114  : 			*p = ch;

  00191	88 06		 mov	 BYTE PTR [esi], al
  00193	52		 push	 edx

; 115  : 			p++;

  00194	46		 inc	 esi
  00195	e8 00 00 00 00	 call	 _getc
  0019a	83 c4 04	 add	 esp, 4
  0019d	3c ff		 cmp	 al, -1
  0019f	75 e2		 jne	 SHORT $LL9@GetToken
$LN8@GetToken:

; 116  : 		}
; 117  : 		if (ch != 0x22 )

  001a1	3c 22		 cmp	 al, 34			; 00000022H
  001a3	0f 84 83 00 00
	00		 je	 $LN7@GetToken

; 118  : 		{
; 119  : 			ungetc(ch, SMDFile);

  001a9	8b 0d 00 00 00
	00		 mov	 ecx, DWORD PTR _SMDFile
  001af	0f be d0	 movsx	 edx, al
  001b2	51		 push	 ecx
  001b3	52		 push	 edx

; 120  : 		}
; 121  : 		*p = 0;
; 122  : 		return CurrentToken = NAME;

  001b4	eb 6e		 jmp	 SHORT $LN49@GetToken
$LN6@GetToken:

; 123  : 		break;
; 124  : 
; 125  : 	default:	// Others
; 126  : 		if (isalpha(ch))

  001b6	50		 push	 eax
  001b7	e8 00 00 00 00	 call	 _isalpha
  001bc	83 c4 04	 add	 esp, 4
  001bf	85 c0		 test	 eax, eax
  001c1	0f 84 84 00 00
	00		 je	 $LN5@GetToken

; 127  : 		{
; 128  : 			p=&TokenString[0];
; 129  : 			*p=ch;
; 130  : 			p++;
; 131  : 
; 132  : 			while ( ((ch=getc(SMDFile)) != -1) && ( (ch == 0x2E) || (ch == 0x5F) || (isalnum(ch) != 0) ) )

  001c7	a1 00 00 00 00	 mov	 eax, DWORD PTR _SMDFile
  001cc	50		 push	 eax
  001cd	88 1d 00 00 00
	00		 mov	 BYTE PTR _TokenString, bl
  001d3	be 01 00 00 00	 mov	 esi, OFFSET _TokenString+1
  001d8	e8 00 00 00 00	 call	 _getc
  001dd	8a d8		 mov	 bl, al
  001df	83 c4 04	 add	 esp, 4
  001e2	80 fb ff	 cmp	 bl, -1
  001e5	74 33		 je	 SHORT $LN3@GetToken
$LL4@GetToken:
  001e7	80 fb 2e	 cmp	 bl, 46			; 0000002eH
  001ea	74 15		 je	 SHORT $LN2@GetToken
  001ec	80 fb 5f	 cmp	 bl, 95			; 0000005fH
  001ef	74 10		 je	 SHORT $LN2@GetToken
  001f1	0f be cb	 movsx	 ecx, bl
  001f4	51		 push	 ecx
  001f5	e8 00 00 00 00	 call	 _isalnum
  001fa	83 c4 04	 add	 esp, 4
  001fd	85 c0		 test	 eax, eax
  001ff	74 19		 je	 SHORT $LN3@GetToken
$LN2@GetToken:
  00201	8b 15 00 00 00
	00		 mov	 edx, DWORD PTR _SMDFile

; 133  : 			{
; 134  : 				*p=ch;

  00207	88 1e		 mov	 BYTE PTR [esi], bl
  00209	52		 push	 edx

; 135  : 				p++;

  0020a	46		 inc	 esi
  0020b	e8 00 00 00 00	 call	 _getc
  00210	8a d8		 mov	 bl, al
  00212	83 c4 04	 add	 esp, 4
  00215	80 fb ff	 cmp	 bl, -1
  00218	75 cd		 jne	 SHORT $LL4@GetToken
$LN3@GetToken:

; 136  : 				
; 137  : 			}
; 138  : 
; 139  : 			ungetc(ch, SMDFile);

  0021a	a1 00 00 00 00	 mov	 eax, DWORD PTR _SMDFile
  0021f	0f be cb	 movsx	 ecx, bl
  00222	50		 push	 eax
  00223	51		 push	 ecx
$LN49@GetToken:
  00224	e8 00 00 00 00	 call	 _ungetc
  00229	83 c4 08	 add	 esp, 8
$LN7@GetToken:

; 140  : 			*p=0;

  0022c	c6 06 00	 mov	 BYTE PTR [esi], 0
  0022f	5e		 pop	 esi

; 141  : 			CurrentToken=NAME;

  00230	c7 05 00 00 00
	00 00 00 00 00	 mov	 DWORD PTR _CurrentToken, 0

; 142  : 			return CurrentToken;

  0023a	33 c0		 xor	 eax, eax
  0023c	5b		 pop	 ebx

; 147  : 		}
; 148  : 		break;
; 149  : 
; 150  : 	}
; 151  : 
; 152  : 	return NAME;
; 153  : }

  0023d	8b 4d fc	 mov	 ecx, DWORD PTR __$ArrayPad$[ebp]
  00240	33 cd		 xor	 ecx, ebp
  00242	e8 00 00 00 00	 call	 @__security_check_cookie@4
  00247	8b e5		 mov	 esp, ebp
  00249	5d		 pop	 ebp
  0024a	c3		 ret	 0
$LN5@GetToken:

; 143  : 		}
; 144  : 		else
; 145  : 		{
; 146  : 			return CurrentToken = SMD_ERROR; // '<'

  0024b	b8 3c 00 00 00	 mov	 eax, 60			; 0000003cH
$LN48@GetToken:

; 147  : 		}
; 148  : 		break;
; 149  : 
; 150  : 	}
; 151  : 
; 152  : 	return NAME;
; 153  : }

  00250	8b 4d fc	 mov	 ecx, DWORD PTR __$ArrayPad$[ebp]
  00253	5e		 pop	 esi
  00254	33 cd		 xor	 ecx, ebp
  00256	a3 00 00 00 00	 mov	 DWORD PTR _CurrentToken, eax
  0025b	5b		 pop	 ebx
  0025c	e8 00 00 00 00	 call	 @__security_check_cookie@4
  00261	8b e5		 mov	 esp, ebp
  00263	5d		 pop	 ebp
  00264	c3		 ret	 0
  00265	8d 49 00	 npad	 3
$LN50@GetToken:
  00268	00 00 00 00	 DD	 $LN10@GetToken
  0026c	00 00 00 00	 DD	 $LN19@GetToken
  00270	00 00 00 00	 DD	 $LN17@GetToken
  00274	00 00 00 00	 DD	 $LN14@GetToken
  00278	00 00 00 00	 DD	 $LN18@GetToken
  0027c	00 00 00 00	 DD	 $LN16@GetToken
  00280	00 00 00 00	 DD	 $LN15@GetToken
  00284	00 00 00 00	 DD	 $LN6@GetToken
$LN46@GetToken:
  00288	00		 DB	 0
  00289	01		 DB	 1
  0028a	07		 DB	 7
  0028b	07		 DB	 7
  0028c	07		 DB	 7
  0028d	07		 DB	 7
  0028e	07		 DB	 7
  0028f	07		 DB	 7
  00290	07		 DB	 7
  00291	07		 DB	 7
  00292	02		 DB	 2
  00293	03		 DB	 3
  00294	03		 DB	 3
  00295	07		 DB	 7
  00296	03		 DB	 3
  00297	03		 DB	 3
  00298	03		 DB	 3
  00299	03		 DB	 3
  0029a	03		 DB	 3
  0029b	03		 DB	 3
  0029c	03		 DB	 3
  0029d	03		 DB	 3
  0029e	03		 DB	 3
  0029f	03		 DB	 3
  002a0	07		 DB	 7
  002a1	04		 DB	 4
  002a2	07		 DB	 7
  002a3	07		 DB	 7
  002a4	07		 DB	 7
  002a5	07		 DB	 7
  002a6	07		 DB	 7
  002a7	07		 DB	 7
  002a8	07		 DB	 7
  002a9	07		 DB	 7
  002aa	07		 DB	 7
  002ab	07		 DB	 7
  002ac	07		 DB	 7
  002ad	07		 DB	 7
  002ae	07		 DB	 7
  002af	07		 DB	 7
  002b0	07		 DB	 7
  002b1	07		 DB	 7
  002b2	07		 DB	 7
  002b3	07		 DB	 7
  002b4	07		 DB	 7
  002b5	07		 DB	 7
  002b6	07		 DB	 7
  002b7	07		 DB	 7
  002b8	07		 DB	 7
  002b9	07		 DB	 7
  002ba	07		 DB	 7
  002bb	07		 DB	 7
  002bc	07		 DB	 7
  002bd	07		 DB	 7
  002be	07		 DB	 7
  002bf	07		 DB	 7
  002c0	07		 DB	 7
  002c1	07		 DB	 7
  002c2	07		 DB	 7
  002c3	07		 DB	 7
  002c4	07		 DB	 7
  002c5	07		 DB	 7
  002c6	07		 DB	 7
  002c7	07		 DB	 7
  002c8	07		 DB	 7
  002c9	07		 DB	 7
  002ca	07		 DB	 7
  002cb	07		 DB	 7
  002cc	07		 DB	 7
  002cd	07		 DB	 7
  002ce	07		 DB	 7
  002cf	07		 DB	 7
  002d0	07		 DB	 7
  002d1	07		 DB	 7
  002d2	07		 DB	 7
  002d3	07		 DB	 7
  002d4	07		 DB	 7
  002d5	07		 DB	 7
  002d6	07		 DB	 7
  002d7	07		 DB	 7
  002d8	07		 DB	 7
  002d9	07		 DB	 7
  002da	07		 DB	 7
  002db	07		 DB	 7
  002dc	07		 DB	 7
  002dd	07		 DB	 7
  002de	07		 DB	 7
  002df	07		 DB	 7
  002e0	07		 DB	 7
  002e1	05		 DB	 5
  002e2	07		 DB	 7
  002e3	06		 DB	 6
?GetToken@@YA?AW4SMDToken@@XZ ENDP			; GetToken
_TEXT	ENDS
PUBLIC	??_7TSkillElement@@6B@				; TSkillElement::`vftable'
PUBLIC	??0TSkillElement@@QAE@XZ			; TSkillElement::TSkillElement
PUBLIC	??_R4TSkillElement@@6B@				; TSkillElement::`RTTI Complete Object Locator'
PUBLIC	??_R0?AVTSkillElement@@@8			; TSkillElement `RTTI Type Descriptor'
PUBLIC	??_R3TSkillElement@@8				; TSkillElement::`RTTI Class Hierarchy Descriptor'
PUBLIC	??_R2TSkillElement@@8				; TSkillElement::`RTTI Base Class Array'
PUBLIC	??_R1A@?0A@EA@TSkillElement@@8			; TSkillElement::`RTTI Base Class Descriptor at (0,-1,0,64)'
PUBLIC	?ForceSkillElement@TSkillElement@@UAEXHH@Z	; TSkillElement::ForceSkillElement
EXTRN	??_7type_info@@6B@:QWORD			; type_info::`vftable'
;	COMDAT ??_R1A@?0A@EA@TSkillElement@@8
rdata$r	SEGMENT
??_R1A@?0A@EA@TSkillElement@@8 DD FLAT:??_R0?AVTSkillElement@@@8 ; TSkillElement::`RTTI Base Class Descriptor at (0,-1,0,64)'
	DD	00H
	DD	00H
	DD	0ffffffffH
	DD	00H
	DD	040H
	DD	FLAT:??_R3TSkillElement@@8
rdata$r	ENDS
;	COMDAT ??_R2TSkillElement@@8
rdata$r	SEGMENT
??_R2TSkillElement@@8 DD FLAT:??_R1A@?0A@EA@TSkillElement@@8 ; TSkillElement::`RTTI Base Class Array'
rdata$r	ENDS
;	COMDAT ??_R3TSkillElement@@8
rdata$r	SEGMENT
??_R3TSkillElement@@8 DD 00H				; TSkillElement::`RTTI Class Hierarchy Descriptor'
	DD	00H
	DD	01H
	DD	FLAT:??_R2TSkillElement@@8
rdata$r	ENDS
;	COMDAT ??_R0?AVTSkillElement@@@8
_DATA	SEGMENT
??_R0?AVTSkillElement@@@8 DD FLAT:??_7type_info@@6B@	; TSkillElement `RTTI Type Descriptor'
	DD	00H
	DB	'.?AVTSkillElement@@', 00H
_DATA	ENDS
;	COMDAT ??_R4TSkillElement@@6B@
rdata$r	SEGMENT
??_R4TSkillElement@@6B@ DD 00H				; TSkillElement::`RTTI Complete Object Locator'
	DD	00H
	DD	00H
	DD	FLAT:??_R0?AVTSkillElement@@@8
	DD	FLAT:??_R3TSkillElement@@8
rdata$r	ENDS
;	COMDAT ??_7TSkillElement@@6B@
CONST	SEGMENT
??_7TSkillElement@@6B@ DD FLAT:??_R4TSkillElement@@6B@	; TSkillElement::`vftable'
	DD	FLAT:?ForceSkillElement@TSkillElement@@UAEXHH@Z
; Function compile flags: /Ogtp
CONST	ENDS
;	COMDAT ??0TSkillElement@@QAE@XZ
_TEXT	SEGMENT
??0TSkillElement@@QAE@XZ PROC				; TSkillElement::TSkillElement, COMDAT
; _this$ = ecx
  00000	8b c1		 mov	 eax, ecx
  00002	c7 00 00 00 00
	00		 mov	 DWORD PTR [eax], OFFSET ??_7TSkillElement@@6B@
  00008	c3		 ret	 0
??0TSkillElement@@QAE@XZ ENDP				; TSkillElement::TSkillElement
; Function compile flags: /Ogtp
; File e:\work\tranet_version\gs\gameserver\tskillelement.h
_TEXT	ENDS
;	COMDAT ?ForceSkillElement@TSkillElement@@UAEXHH@Z
_TEXT	SEGMENT
_iIndex$ = 8						; size = 4
_iTargetIndex$ = 12					; size = 4
?ForceSkillElement@TSkillElement@@UAEXHH@Z PROC		; TSkillElement::ForceSkillElement, COMDAT
; _this$ = ecx

; 19   : 	virtual void ForceSkillElement(int iIndex, int iTargetIndex){return;}	// 0

  00000	c2 08 00	 ret	 8
?ForceSkillElement@TSkillElement@@UAEXHH@Z ENDP		; TSkillElement::ForceSkillElement
_TEXT	ENDS
PUBLIC	??_7TMonsterSkillElement@@6B@			; TMonsterSkillElement::`vftable'
PUBLIC	??1TMonsterSkillElement@@UAE@XZ			; TMonsterSkillElement::~TMonsterSkillElement
PUBLIC	??_R4TMonsterSkillElement@@6B@			; TMonsterSkillElement::`RTTI Complete Object Locator'
PUBLIC	??_R0?AVTMonsterSkillElement@@@8		; TMonsterSkillElement `RTTI Type Descriptor'
PUBLIC	??_R3TMonsterSkillElement@@8			; TMonsterSkillElement::`RTTI Class Hierarchy Descriptor'
PUBLIC	??_R2TMonsterSkillElement@@8			; TMonsterSkillElement::`RTTI Base Class Array'
PUBLIC	??_R1A@?0A@EA@TMonsterSkillElement@@8		; TMonsterSkillElement::`RTTI Base Class Descriptor at (0,-1,0,64)'
PUBLIC	?ForceSkillElement@TMonsterSkillElement@@UAEXHH@Z ; TMonsterSkillElement::ForceSkillElement
EXTRN	??_ETMonsterSkillElement@@UAEPAXI@Z:PROC	; TMonsterSkillElement::`vector deleting destructor'
;	COMDAT ??_R1A@?0A@EA@TMonsterSkillElement@@8
; File e:\work\tranet_version\gs\gameserver\tmonsterskillelement.cpp
rdata$r	SEGMENT
??_R1A@?0A@EA@TMonsterSkillElement@@8 DD FLAT:??_R0?AVTMonsterSkillElement@@@8 ; TMonsterSkillElement::`RTTI Base Class Descriptor at (0,-1,0,64)'
	DD	01H
	DD	00H
	DD	0ffffffffH
	DD	00H
	DD	040H
	DD	FLAT:??_R3TMonsterSkillElement@@8
rdata$r	ENDS
;	COMDAT ??_R2TMonsterSkillElement@@8
rdata$r	SEGMENT
??_R2TMonsterSkillElement@@8 DD FLAT:??_R1A@?0A@EA@TMonsterSkillElement@@8 ; TMonsterSkillElement::`RTTI Base Class Array'
	DD	FLAT:??_R1A@?0A@EA@TSkillElement@@8
rdata$r	ENDS
;	COMDAT ??_R3TMonsterSkillElement@@8
rdata$r	SEGMENT
??_R3TMonsterSkillElement@@8 DD 00H			; TMonsterSkillElement::`RTTI Class Hierarchy Descriptor'
	DD	00H
	DD	02H
	DD	FLAT:??_R2TMonsterSkillElement@@8
rdata$r	ENDS
;	COMDAT ??_R0?AVTMonsterSkillElement@@@8
_DATA	SEGMENT
??_R0?AVTMonsterSkillElement@@@8 DD FLAT:??_7type_info@@6B@ ; TMonsterSkillElement `RTTI Type Descriptor'
	DD	00H
	DB	'.?AVTMonsterSkillElement@@', 00H
_DATA	ENDS
;	COMDAT ??_R4TMonsterSkillElement@@6B@
rdata$r	SEGMENT
??_R4TMonsterSkillElement@@6B@ DD 00H			; TMonsterSkillElement::`RTTI Complete Object Locator'
	DD	00H
	DD	00H
	DD	FLAT:??_R0?AVTMonsterSkillElement@@@8
	DD	FLAT:??_R3TMonsterSkillElement@@8
rdata$r	ENDS
;	COMDAT ??_7TMonsterSkillElement@@6B@
CONST	SEGMENT
??_7TMonsterSkillElement@@6B@ DD FLAT:??_R4TMonsterSkillElement@@6B@ ; TMonsterSkillElement::`vftable'
	DD	FLAT:?ForceSkillElement@TMonsterSkillElement@@UAEXHH@Z
	DD	FLAT:??_ETMonsterSkillElement@@UAEPAXI@Z
; Function compile flags: /Ogtp
CONST	ENDS
;	COMDAT ??1TMonsterSkillElement@@UAE@XZ
_TEXT	SEGMENT
??1TMonsterSkillElement@@UAE@XZ PROC			; TMonsterSkillElement::~TMonsterSkillElement, COMDAT
; _this$ = ecx

; 35   : {

  00000	c7 01 00 00 00
	00		 mov	 DWORD PTR [ecx], OFFSET ??_7TMonsterSkillElement@@6B@

; 36   : 	return;
; 37   : }

  00006	c3		 ret	 0
??1TMonsterSkillElement@@UAE@XZ ENDP			; TMonsterSkillElement::~TMonsterSkillElement
_TEXT	ENDS
PUBLIC	?Reset@TMonsterSkillElement@@QAEXXZ		; TMonsterSkillElement::Reset
; Function compile flags: /Ogtp
;	COMDAT ?Reset@TMonsterSkillElement@@QAEXXZ
_TEXT	SEGMENT
?Reset@TMonsterSkillElement@@QAEXXZ PROC		; TMonsterSkillElement::Reset, COMDAT
; _this$ = ecx

; 41   : 	this->m_iSuccessRate = -1;

  00000	83 c8 ff	 or	 eax, -1
  00003	89 41 20	 mov	 DWORD PTR [ecx+32], eax

; 42   : 	this->m_iContinuanceTime = -1;

  00006	89 41 24	 mov	 DWORD PTR [ecx+36], eax

; 43   : 	this->m_iIncAndDecType = -1;

  00009	89 41 28	 mov	 DWORD PTR [ecx+40], eax

; 44   : 	this->m_iIncAndDecValue = -1;

  0000c	89 41 2c	 mov	 DWORD PTR [ecx+44], eax

; 45   : 	this->m_iNullifiedSkill = -1;

  0000f	89 41 30	 mov	 DWORD PTR [ecx+48], eax

; 46   : 	this->m_iCharacterClass = -1;

  00012	89 41 34	 mov	 DWORD PTR [ecx+52], eax

; 47   : 	this->m_iCharacterLevel = -1;

  00015	89 41 38	 mov	 DWORD PTR [ecx+56], eax

; 48   : 	this->m_iElementType = -1;

  00018	89 41 1c	 mov	 DWORD PTR [ecx+28], eax

; 49   : 	this->m_iElementNumber = -1;

  0001b	89 41 18	 mov	 DWORD PTR [ecx+24], eax

; 50   : 	memset(this->m_szElementName, 0, sizeof(this->m_szElementName));

  0001e	33 c0		 xor	 eax, eax
  00020	89 41 04	 mov	 DWORD PTR [ecx+4], eax
  00023	89 41 08	 mov	 DWORD PTR [ecx+8], eax
  00026	89 41 0c	 mov	 DWORD PTR [ecx+12], eax
  00029	89 41 10	 mov	 DWORD PTR [ecx+16], eax
  0002c	89 41 14	 mov	 DWORD PTR [ecx+20], eax

; 51   : }

  0002f	c3		 ret	 0
?Reset@TMonsterSkillElement@@QAEXXZ ENDP		; TMonsterSkillElement::Reset
_TEXT	ENDS
PUBLIC	?DelAllSkillElement@TMonsterSkillElement@@SAHXZ	; TMonsterSkillElement::DelAllSkillElement
; Function compile flags: /Ogtp
;	COMDAT ?DelAllSkillElement@TMonsterSkillElement@@SAHXZ
_TEXT	SEGMENT
?DelAllSkillElement@TMonsterSkillElement@@SAHXZ PROC	; TMonsterSkillElement::DelAllSkillElement, COMDAT

; 182  : 	for(int i=0;i<MAX_MONSTER_SKILL_ELEMENT;i++)

  00000	b9 00 00 00 00	 mov	 ecx, OFFSET ?s_MonsterSkillElementArray@TMonsterSkillElement@@2PAV1@A ; TMonsterSkillElement::s_MonsterSkillElementArray
$LL3@DelAllSkil:

; 183  : 	{
; 184  : 		TMonsterSkillElement::s_MonsterSkillElementArray[i].Reset();

  00005	e8 00 00 00 00	 call	 ?Reset@TMonsterSkillElement@@QAEXXZ ; TMonsterSkillElement::Reset
  0000a	83 c1 3c	 add	 ecx, 60			; 0000003cH
  0000d	81 f9 70 17 00
	00		 cmp	 ecx, OFFSET ?s_MonsterSkillElementArray@TMonsterSkillElement@@2PAV1@A+6000
  00013	7c f0		 jl	 SHORT $LL3@DelAllSkil

; 185  : 	}
; 186  : 
; 187  : 	return FALSE;

  00015	33 c0		 xor	 eax, eax

; 188  : }

  00017	c3		 ret	 0
?DelAllSkillElement@TMonsterSkillElement@@SAHXZ ENDP	; TMonsterSkillElement::DelAllSkillElement
_TEXT	ENDS
PUBLIC	??_C@_0EB@EHFPHABL@?$FLMonster?5Element?$FN?5FindSkillEleme@ ; `string'
PUBLIC	?FindSkillElement@TMonsterSkillElement@@SAPAV1@H@Z ; TMonsterSkillElement::FindSkillElement
EXTRN	?LogAddTD@@3P6AXPADZZA:DWORD			; LogAddTD
;	COMDAT ??_C@_0EB@EHFPHABL@?$FLMonster?5Element?$FN?5FindSkillEleme@
CONST	SEGMENT
??_C@_0EB@EHFPHABL@?$FLMonster?5Element?$FN?5FindSkillEleme@ DB '[Monster'
	DB	' Element] FindSkillElement() Error - (ElementNumber=%d) ', 00H ; `string'
; Function compile flags: /Ogtp
CONST	ENDS
;	COMDAT ?FindSkillElement@TMonsterSkillElement@@SAPAV1@H@Z
_TEXT	SEGMENT
_iElementNumber$ = 8					; size = 4
?FindSkillElement@TMonsterSkillElement@@SAPAV1@H@Z PROC	; TMonsterSkillElement::FindSkillElement, COMDAT

; 191  : {

  00000	55		 push	 ebp
  00001	8b ec		 mov	 ebp, esp

; 192  : 	if ( iElementNumber < 0 || iElementNumber >= MAX_MONSTER_SKILL_ELEMENT )

  00003	8b 4d 08	 mov	 ecx, DWORD PTR _iElementNumber$[ebp]
  00006	83 f9 63	 cmp	 ecx, 99			; 00000063H
  00009	77 1b		 ja	 SHORT $LN2@FindSkillE

; 198  : 	}
; 199  : 
; 200  : 	if ( TMonsterSkillElement::s_MonsterSkillElementArray[iElementNumber].m_iElementNumber == iElementNumber )

  0000b	8b c1		 mov	 eax, ecx
  0000d	c1 e0 04	 shl	 eax, 4
  00010	2b c1		 sub	 eax, ecx
  00012	03 c0		 add	 eax, eax
  00014	03 c0		 add	 eax, eax
  00016	39 88 18 00 00
	00		 cmp	 DWORD PTR ?s_MonsterSkillElementArray@TMonsterSkillElement@@2PAV1@A[eax+24], ecx
  0001c	75 08		 jne	 SHORT $LN2@FindSkillE

; 201  : 	{
; 202  : 		return &TMonsterSkillElement::s_MonsterSkillElementArray[iElementNumber];

  0001e	8d 80 00 00 00
	00		 lea	 eax, DWORD PTR ?s_MonsterSkillElementArray@TMonsterSkillElement@@2PAV1@A[eax]

; 203  : 	}
; 204  : 
; 205  : 	LogAddTD("[Monster Element] FindSkillElement() Error - (ElementNumber=%d) ",
; 206  : 		iElementNumber);
; 207  : 
; 208  : 	return  NULL;
; 209  : }

  00024	5d		 pop	 ebp
  00025	c3		 ret	 0
$LN2@FindSkillE:

; 193  : 	{
; 194  : 		LogAddTD("[Monster Element] FindSkillElement() Error - (ElementNumber=%d) ",
; 195  : 			iElementNumber);

  00026	51		 push	 ecx
  00027	68 00 00 00 00	 push	 OFFSET ??_C@_0EB@EHFPHABL@?$FLMonster?5Element?$FN?5FindSkillEleme@
  0002c	ff 15 00 00 00
	00		 call	 DWORD PTR ?LogAddTD@@3P6AXPADZZA ; LogAddTD
  00032	83 c4 08	 add	 esp, 8

; 196  : 
; 197  : 		return NULL;

  00035	33 c0		 xor	 eax, eax

; 203  : 	}
; 204  : 
; 205  : 	LogAddTD("[Monster Element] FindSkillElement() Error - (ElementNumber=%d) ",
; 206  : 		iElementNumber);
; 207  : 
; 208  : 	return  NULL;
; 209  : }

  00037	5d		 pop	 ebp
  00038	c3		 ret	 0
?FindSkillElement@TMonsterSkillElement@@SAPAV1@H@Z ENDP	; TMonsterSkillElement::FindSkillElement
_TEXT	ENDS
PUBLIC	?ApplyElementStun@TMonsterSkillElement@@QAEHHH@Z ; TMonsterSkillElement::ApplyElementStun
EXTRN	?gObjSetPosition@@YAXHHH@Z:PROC			; gObjSetPosition
EXTRN	?gObjApplyBuffEffectDuration@@YAEPAUOBJECTSTRUCT@@HEHEHH@Z:PROC ; gObjApplyBuffEffectDuration
EXTRN	?gObj@@3PAUOBJECTSTRUCT@@A:DWORD		; gObj
; Function compile flags: /Ogtp
;	COMDAT ?ApplyElementStun@TMonsterSkillElement@@QAEHHH@Z
_TEXT	SEGMENT
_iIndex$ = 8						; size = 4
_iTargetIndex$ = 12					; size = 4
?ApplyElementStun@TMonsterSkillElement@@QAEHHH@Z PROC	; TMonsterSkillElement::ApplyElementStun, COMDAT
; _this$ = ecx

; 288  : {

  00000	55		 push	 ebp
  00001	8b ec		 mov	 ebp, esp

; 289  : 	LPOBJ lpObj = &gObj[iIndex];
; 290  : 	LPOBJ lpTargetObj = &gObj[iTargetIndex];
; 291  : 
; 292  : 	int SkillStunTime = 0;
; 293  : 
; 294  : 	if(this->m_iContinuanceTime == -1)

  00003	8b 41 24	 mov	 eax, DWORD PTR [ecx+36]
  00006	56		 push	 esi
  00007	57		 push	 edi
  00008	8b 7d 0c	 mov	 edi, DWORD PTR _iTargetIndex$[ebp]
  0000b	8b f7		 mov	 esi, edi
  0000d	69 f6 50 2b 00
	00		 imul	 esi, 11088		; 00002b50H
  00013	03 35 00 00 00
	00		 add	 esi, DWORD PTR ?gObj@@3PAUOBJECTSTRUCT@@A ; gObj
  00019	83 f8 ff	 cmp	 eax, -1
  0001c	75 05		 jne	 SHORT $LN2@ApplyEleme

; 295  : 	{
; 296  : 		SkillStunTime = -10;

  0001e	b8 f6 ff ff ff	 mov	 eax, -10		; fffffff6H
$LN2@ApplyEleme:

; 297  : 	}
; 298  : 	else
; 299  : 	{
; 300  : 		SkillStunTime = this->m_iContinuanceTime;//  Season 4.5 fix
; 301  : 	}
; 302  : 
; 303  : 	gObjApplyBuffEffectDuration(lpTargetObj, AT_STUN, 0, 0, 0, 0, SkillStunTime);

  00023	50		 push	 eax
  00024	6a 00		 push	 0
  00026	6a 00		 push	 0
  00028	6a 00		 push	 0
  0002a	6a 00		 push	 0
  0002c	6a 3d		 push	 61			; 0000003dH
  0002e	56		 push	 esi
  0002f	e8 00 00 00 00	 call	 ?gObjApplyBuffEffectDuration@@YAEPAUOBJECTSTRUCT@@HEHEHH@Z ; gObjApplyBuffEffectDuration

; 304  : 
; 305  : 	gObjSetPosition(iTargetIndex, lpTargetObj->X, lpTargetObj->Y);

  00034	0f bf 86 46 01
	00 00		 movsx	 eax, WORD PTR [esi+326]
  0003b	0f bf 8e 44 01
	00 00		 movsx	 ecx, WORD PTR [esi+324]
  00042	50		 push	 eax
  00043	51		 push	 ecx
  00044	57		 push	 edi
  00045	e8 00 00 00 00	 call	 ?gObjSetPosition@@YAXHHH@Z ; gObjSetPosition
  0004a	83 c4 28	 add	 esp, 40			; 00000028H
  0004d	5f		 pop	 edi

; 306  : 
; 307  : 	return FALSE;

  0004e	33 c0		 xor	 eax, eax
  00050	5e		 pop	 esi

; 308  : }

  00051	5d		 pop	 ebp
  00052	c2 08 00	 ret	 8
?ApplyElementStun@TMonsterSkillElement@@QAEHHH@Z ENDP	; TMonsterSkillElement::ApplyElementStun
_TEXT	ENDS
PUBLIC	?ApplyElementMove@TMonsterSkillElement@@QAEHHH@Z ; TMonsterSkillElement::ApplyElementMove
; Function compile flags: /Ogtp
;	COMDAT ?ApplyElementMove@TMonsterSkillElement@@QAEHHH@Z
_TEXT	SEGMENT
_iIndex$ = 8						; size = 4
_iTargetIndex$ = 12					; size = 4
?ApplyElementMove@TMonsterSkillElement@@QAEHHH@Z PROC	; TMonsterSkillElement::ApplyElementMove, COMDAT
; _this$ = ecx

; 312  : 	LPOBJ lpObj = &gObj[iIndex];
; 313  : 	LPOBJ lpTargetObj = &gObj[iTargetIndex];
; 314  : 
; 315  : 	return FALSE;

  00000	33 c0		 xor	 eax, eax

; 316  : }

  00002	c2 08 00	 ret	 8
?ApplyElementMove@TMonsterSkillElement@@QAEHHH@Z ENDP	; TMonsterSkillElement::ApplyElementMove
_TEXT	ENDS
PUBLIC	__real@00000000
PUBLIC	__real@4059000000000000
PUBLIC	?ApplyElementHP@TMonsterSkillElement@@QAEHHH@Z	; TMonsterSkillElement::ApplyElementHP
EXTRN	?GCReFillSend@@YAXHHEEH@Z:PROC			; GCReFillSend
EXTRN	__ftol2_sse:PROC
;	COMDAT __real@00000000
CONST	SEGMENT
__real@00000000 DD 000000000r			; 0
CONST	ENDS
;	COMDAT __real@4059000000000000
CONST	SEGMENT
__real@4059000000000000 DQ 04059000000000000r	; 100
; Function compile flags: /Ogtp
CONST	ENDS
;	COMDAT ?ApplyElementHP@TMonsterSkillElement@@QAEHHH@Z
_TEXT	SEGMENT
_iIndex$ = 8						; size = 4
tv320 = 12						; size = 4
tv300 = 12						; size = 4
_iIncDecValue$ = 12					; size = 4
_iTargetIndex$ = 12					; size = 4
?ApplyElementHP@TMonsterSkillElement@@QAEHHH@Z PROC	; TMonsterSkillElement::ApplyElementHP, COMDAT
; _this$ = ecx

; 319  : {

  00000	55		 push	 ebp
  00001	8b ec		 mov	 ebp, esp
  00003	53		 push	 ebx
  00004	56		 push	 esi

; 320  : 	LPOBJ lpObj = &gObj[iIndex];
; 321  : 	LPOBJ lpTargetObj = &gObj[iTargetIndex];

  00005	8b 75 0c	 mov	 esi, DWORD PTR _iTargetIndex$[ebp]
  00008	69 f6 50 2b 00
	00		 imul	 esi, 11088		; 00002b50H
  0000e	03 35 00 00 00
	00		 add	 esi, DWORD PTR ?gObj@@3PAUOBJECTSTRUCT@@A ; gObj
  00014	8b d9		 mov	 ebx, ecx
  00016	57		 push	 edi

; 322  : 	int iIncDecValue = 0;
; 323  : 
; 324  : 	if ( this->m_iIncAndDecType != MSE_INCDEC_TYPE_NONE )

  00017	8b 7b 28	 mov	 edi, DWORD PTR [ebx+40]
  0001a	33 c0		 xor	 eax, eax
  0001c	89 45 0c	 mov	 DWORD PTR _iIncDecValue$[ebp], eax
  0001f	85 ff		 test	 edi, edi
  00021	0f 84 92 00 00
	00		 je	 $LN17@ApplyEleme@2

; 325  : 	{
; 326  : 		if ( this->m_iIncAndDecType == MSE_INCDEC_TYPE_PERCENTINC ||
; 327  : 			 this->m_iIncAndDecType == MSE_INCDEC_TYPE_PERCENTDEC ||
; 328  : 			 this->m_iIncAndDecType == MSE_INCDEC_TYPE_CYCLE_PERCENTINC ||
; 329  : 			 this->m_iIncAndDecType == MSE_INCDEC_TYPE_CYCLE_PERCENTDEC )

  00027	83 ff 01	 cmp	 edi, 1
  0002a	74 0f		 je	 SHORT $LN11@ApplyEleme@2
  0002c	83 ff 02	 cmp	 edi, 2
  0002f	74 0a		 je	 SHORT $LN11@ApplyEleme@2
  00031	83 ff 65	 cmp	 edi, 101		; 00000065H
  00034	74 05		 je	 SHORT $LN11@ApplyEleme@2
  00036	83 ff 66	 cmp	 edi, 102		; 00000066H
  00039	75 21		 jne	 SHORT $LN16@ApplyEleme@2
$LN11@ApplyEleme@2:

; 330  : 		{
; 331  : 			iIncDecValue = (int)((((float)(lpTargetObj->Life) * (float)(this->m_iIncAndDecValue)))/100.0f);

  0003b	db 43 2c	 fild	 DWORD PTR [ebx+44]
  0003e	d8 8e fc 00 00
	00		 fmul	 DWORD PTR [esi+252]
  00044	dc 35 00 00 00
	00		 fdiv	 QWORD PTR __real@4059000000000000
  0004a	e8 00 00 00 00	 call	 __ftol2_sse
  0004f	89 45 0c	 mov	 DWORD PTR _iIncDecValue$[ebp], eax

; 332  : 
; 333  : 			if ( this->m_iIncAndDecType == MSE_INCDEC_TYPE_PERCENTDEC )

  00052	83 ff 02	 cmp	 edi, 2
  00055	75 05		 jne	 SHORT $LN16@ApplyEleme@2

; 334  : 				iIncDecValue = -iIncDecValue;

  00057	f7 d8		 neg	 eax
  00059	89 45 0c	 mov	 DWORD PTR _iIncDecValue$[ebp], eax
$LN16@ApplyEleme@2:

; 335  : 		}
; 336  : 
; 337  : 		if ( this->m_iIncAndDecType == MSE_INCDEC_TYPE_CONSTANTINC ||
; 338  : 			 this->m_iIncAndDecType == MSE_INCDEC_TYPE_CONSTANTDEC ||
; 339  : 			 this->m_iIncAndDecType == MSE_INCDEC_TYPE_CYCLE_CONSTANTINC ||
; 340  : 			 this->m_iIncAndDecType == MSE_INCDEC_TYPE_CYCLE_CONSTANTDEC )

  0005c	83 ff 0b	 cmp	 edi, 11			; 0000000bH
  0005f	74 0f		 je	 SHORT $LN8@ApplyEleme@2
  00061	83 ff 0c	 cmp	 edi, 12			; 0000000cH
  00064	74 0a		 je	 SHORT $LN8@ApplyEleme@2
  00066	83 ff 6f	 cmp	 edi, 111		; 0000006fH
  00069	74 05		 je	 SHORT $LN8@ApplyEleme@2
  0006b	83 ff 70	 cmp	 edi, 112		; 00000070H
  0006e	75 15		 jne	 SHORT $LN7@ApplyEleme@2
$LN8@ApplyEleme@2:

; 341  : 		{
; 342  : 			iIncDecValue = this->m_iIncAndDecValue;

  00070	8b 43 2c	 mov	 eax, DWORD PTR [ebx+44]
  00073	89 45 0c	 mov	 DWORD PTR _iIncDecValue$[ebp], eax

; 343  : 
; 344  : 			if ( this->m_iIncAndDecType == MSE_INCDEC_TYPE_CONSTANTDEC ||
; 345  : 				 this->m_iIncAndDecType == MSE_INCDEC_TYPE_CYCLE_CONSTANTDEC )

  00076	83 ff 0c	 cmp	 edi, 12			; 0000000cH
  00079	74 05		 je	 SHORT $LN6@ApplyEleme@2
  0007b	83 ff 70	 cmp	 edi, 112		; 00000070H
  0007e	75 05		 jne	 SHORT $LN7@ApplyEleme@2
$LN6@ApplyEleme@2:

; 346  : 				iIncDecValue = -iIncDecValue;

  00080	f7 d8		 neg	 eax
  00082	89 45 0c	 mov	 DWORD PTR _iIncDecValue$[ebp], eax
$LN7@ApplyEleme@2:

; 347  : 		}
; 348  : 
; 349  : 		if ( this->m_iIncAndDecType > MSE_INCDEC_TYPE_CYCLE_PERCENT )

  00085	83 ff 64	 cmp	 edi, 100		; 00000064H
  00088	7e 2f		 jle	 SHORT $LN17@ApplyEleme@2

; 350  : 		{
; 351  : 			lpTargetObj->m_MonsterSkillElementInfo.m_iSkillElementAutoHPTime = this->m_iContinuanceTime;

  0008a	8b 4b 24	 mov	 ecx, DWORD PTR [ebx+36]

; 352  : 			lpTargetObj->m_MonsterSkillElementInfo.m_iSkillElementAutoHP = iIncDecValue;
; 353  : 			lpTargetObj->m_MonsterSkillElementInfo.m_iSkillElementAutoHPCycle = MSE_INCDEC_TYPE_CYCLE_PERCENT;
; 354  : 
; 355  : 			if ( this->m_iIncAndDecType > MSE_INCDEC_TYPE_CYCLE_CONSTANT )

  0008d	33 d2		 xor	 edx, edx
  0008f	c7 86 34 1c 00
	00 64 00 00 00	 mov	 DWORD PTR [esi+7220], 100 ; 00000064H
  00099	89 8e 38 1c 00
	00		 mov	 DWORD PTR [esi+7224], ecx
  0009f	89 86 30 1c 00
	00		 mov	 DWORD PTR [esi+7216], eax
  000a5	83 7b 28 6e	 cmp	 DWORD PTR [ebx+40], 110	; 0000006eH
  000a9	0f 9e c2	 setle	 dl
  000ac	4a		 dec	 edx
  000ad	83 e2 0a	 and	 edx, 10			; 0000000aH
  000b0	83 c2 64	 add	 edx, 100		; 00000064H
  000b3	89 96 34 1c 00
	00		 mov	 DWORD PTR [esi+7220], edx
$LN17@ApplyEleme@2:

; 356  : 				lpTargetObj->m_MonsterSkillElementInfo.m_iSkillElementAutoHPCycle = MSE_INCDEC_TYPE_CYCLE_CONSTANT;
; 357  : 			else
; 358  : 				lpTargetObj->m_MonsterSkillElementInfo.m_iSkillElementAutoHPCycle = MSE_INCDEC_TYPE_CYCLE_PERCENT;
; 359  : 		}
; 360  : 	}
; 361  : 
; 362  : 	lpTargetObj->Life += iIncDecValue;

  000b9	db 45 0c	 fild	 DWORD PTR _iIncDecValue$[ebp]
  000bc	d8 86 fc 00 00
	00		 fadd	 DWORD PTR [esi+252]
  000c2	d9 5d 0c	 fstp	 DWORD PTR tv300[ebp]
  000c5	d9 45 0c	 fld	 DWORD PTR tv300[ebp]
  000c8	d9 96 fc 00 00
	00		 fst	 DWORD PTR [esi+252]

; 363  : 
; 364  : 	if ( lpTargetObj->Life < 0 )

  000ce	d9 ee		 fldz
  000d0	d8 d1		 fcom	 ST(1)
  000d2	df e0		 fnstsw	 ax
  000d4	f6 c4 41	 test	 ah, 65			; 00000041H
  000d7	75 2f		 jne	 SHORT $LN19@ApplyEleme@2

; 365  : 	{
; 366  : 		lpTargetObj->Life = 0;
; 367  : 		GCReFillSend(lpTargetObj->m_Index, lpTargetObj->Life, 0xFF, 0, lpTargetObj->iShield);

  000d9	8b 86 54 01 00
	00		 mov	 eax, DWORD PTR [esi+340]
  000df	dd d9		 fstp	 ST(1)
  000e1	8b 0e		 mov	 ecx, DWORD PTR [esi]
  000e3	d9 9e fc 00 00
	00		 fstp	 DWORD PTR [esi+252]
  000e9	50		 push	 eax
  000ea	6a 00		 push	 0
  000ec	68 ff 00 00 00	 push	 255			; 000000ffH
  000f1	6a 00		 push	 0
  000f3	51		 push	 ecx
  000f4	e8 00 00 00 00	 call	 ?GCReFillSend@@YAXHHEEH@Z ; GCReFillSend
  000f9	83 c4 14	 add	 esp, 20			; 00000014H
  000fc	5f		 pop	 edi
  000fd	5e		 pop	 esi

; 368  : 
; 369  : 		return TRUE;

  000fe	b8 01 00 00 00	 mov	 eax, 1
  00103	5b		 pop	 ebx

; 383  : }

  00104	5d		 pop	 ebp
  00105	c2 08 00	 ret	 8
$LN19@ApplyEleme@2:

; 363  : 
; 364  : 	if ( lpTargetObj->Life < 0 )

  00108	dd d8		 fstp	 ST(0)

; 370  : 	}
; 371  : 
; 372  : 	if ( (lpTargetObj->MaxLife + lpTargetObj->AddLife) < lpTargetObj->Life )

  0010a	db 86 4c 01 00
	00		 fild	 DWORD PTR [esi+332]
  00110	d8 86 00 01 00
	00		 fadd	 DWORD PTR [esi+256]
  00116	d8 d1		 fcom	 ST(1)
  00118	df e0		 fnstsw	 ax
  0011a	f6 c4 05	 test	 ah, 5
  0011d	7a 39		 jp	 SHORT $LN22@ApplyEleme@2

; 373  : 	{
; 374  : 		lpTargetObj->Life = lpTargetObj->MaxLife + lpTargetObj->AddLife;
; 375  : 		GCReFillSend(lpTargetObj->m_Index, lpTargetObj->Life, 0xFF, 0, lpTargetObj->iShield);

  0011f	8b 96 54 01 00
	00		 mov	 edx, DWORD PTR [esi+340]
  00125	dd d9		 fstp	 ST(1)
  00127	52		 push	 edx
  00128	d9 5d 0c	 fstp	 DWORD PTR tv320[ebp]
  0012b	d9 45 0c	 fld	 DWORD PTR tv320[ebp]
  0012e	6a 00		 push	 0
  00130	68 ff 00 00 00	 push	 255			; 000000ffH
  00135	d9 96 fc 00 00
	00		 fst	 DWORD PTR [esi+252]
  0013b	e8 00 00 00 00	 call	 __ftol2_sse
  00140	50		 push	 eax
  00141	8b 06		 mov	 eax, DWORD PTR [esi]
  00143	50		 push	 eax
  00144	e8 00 00 00 00	 call	 ?GCReFillSend@@YAXHHEEH@Z ; GCReFillSend
  00149	83 c4 14	 add	 esp, 20			; 00000014H
  0014c	5f		 pop	 edi
  0014d	5e		 pop	 esi

; 376  : 
; 377  : 		return TRUE;

  0014e	b8 01 00 00 00	 mov	 eax, 1
  00153	5b		 pop	 ebx

; 383  : }

  00154	5d		 pop	 ebp
  00155	c2 08 00	 ret	 8
$LN22@ApplyEleme@2:

; 378  : 	}
; 379  : 
; 380  : 	GCReFillSend(lpTargetObj->m_Index, lpTargetObj->Life, 0xFF, 0, lpTargetObj->iShield);

  00158	8b 8e 54 01 00
	00		 mov	 ecx, DWORD PTR [esi+340]
  0015e	dd d8		 fstp	 ST(0)
  00160	51		 push	 ecx
  00161	6a 00		 push	 0
  00163	68 ff 00 00 00	 push	 255			; 000000ffH
  00168	e8 00 00 00 00	 call	 __ftol2_sse
  0016d	8b 16		 mov	 edx, DWORD PTR [esi]
  0016f	50		 push	 eax
  00170	52		 push	 edx
  00171	e8 00 00 00 00	 call	 ?GCReFillSend@@YAXHHEEH@Z ; GCReFillSend
  00176	83 c4 14	 add	 esp, 20			; 00000014H
  00179	5f		 pop	 edi
  0017a	5e		 pop	 esi

; 381  : 
; 382  : 	return FALSE;

  0017b	33 c0		 xor	 eax, eax
  0017d	5b		 pop	 ebx

; 383  : }

  0017e	5d		 pop	 ebp
  0017f	c2 08 00	 ret	 8
?ApplyElementHP@TMonsterSkillElement@@QAEHHH@Z ENDP	; TMonsterSkillElement::ApplyElementHP
_TEXT	ENDS
PUBLIC	?ApplyElementMP@TMonsterSkillElement@@QAEHHH@Z	; TMonsterSkillElement::ApplyElementMP
EXTRN	?GCManaSend@@YAXHHEEH@Z:PROC			; GCManaSend
; Function compile flags: /Ogtp
;	COMDAT ?ApplyElementMP@TMonsterSkillElement@@QAEHHH@Z
_TEXT	SEGMENT
_this$ = -4						; size = 4
tv274 = 8						; size = 4
tv254 = 8						; size = 4
_iIncDecValue$ = 8					; size = 4
_iIndex$ = 8						; size = 4
_iTargetIndex$ = 12					; size = 4
?ApplyElementMP@TMonsterSkillElement@@QAEHHH@Z PROC	; TMonsterSkillElement::ApplyElementMP, COMDAT
; _this$ = ecx

; 386  : {

  00000	55		 push	 ebp
  00001	8b ec		 mov	 ebp, esp
  00003	51		 push	 ecx

; 387  : 	LPOBJ lpObj = &gObj[iIndex];

  00004	a1 00 00 00 00	 mov	 eax, DWORD PTR ?gObj@@3PAUOBJECTSTRUCT@@A ; gObj
  00009	53		 push	 ebx

; 388  : 	LPOBJ lpTargetObj = &gObj[iTargetIndex];
; 389  : 	int iIncDecValue = 0;
; 390  : 
; 391  : 	if ( this->m_iIncAndDecType != MSE_INCDEC_TYPE_NONE )

  0000a	8b 59 28	 mov	 ebx, DWORD PTR [ecx+40]
  0000d	56		 push	 esi
  0000e	8b 75 0c	 mov	 esi, DWORD PTR _iTargetIndex$[ebp]
  00011	57		 push	 edi
  00012	69 f6 50 2b 00
	00		 imul	 esi, 11088		; 00002b50H
  00018	8b 7d 08	 mov	 edi, DWORD PTR _iIndex$[ebp]
  0001b	69 ff 50 2b 00
	00		 imul	 edi, 11088		; 00002b50H
  00021	03 f8		 add	 edi, eax
  00023	03 f0		 add	 esi, eax
  00025	89 4d fc	 mov	 DWORD PTR _this$[ebp], ecx
  00028	c7 45 08 00 00
	00 00		 mov	 DWORD PTR _iIncDecValue$[ebp], 0
  0002f	85 db		 test	 ebx, ebx
  00031	74 3e		 je	 SHORT $LN11@ApplyEleme@3

; 392  : 	{
; 393  : 		if ( this->m_iIncAndDecType < MSE_INCDEC_TYPE_CONSTANTINC )

  00033	83 fb 0b	 cmp	 ebx, 11			; 0000000bH
  00036	7d 29		 jge	 SHORT $LN19@ApplyEleme@3

; 394  : 		{
; 395  : 			iIncDecValue = (int)((((float)(lpTargetObj->Mana) * (float)(this->m_iIncAndDecValue)))/100.0f);

  00038	db 41 2c	 fild	 DWORD PTR [ecx+44]
  0003b	d8 8e 10 01 00
	00		 fmul	 DWORD PTR [esi+272]
  00041	dc 35 00 00 00
	00		 fdiv	 QWORD PTR __real@4059000000000000
  00047	e8 00 00 00 00	 call	 __ftol2_sse

; 396  : 
; 397  : 			if ( this->m_iIncAndDecType == MSE_INCDEC_TYPE_PERCENTDEC )
; 398  : 				iIncDecValue = -iIncDecValue;

  0004c	8b 4d fc	 mov	 ecx, DWORD PTR _this$[ebp]
  0004f	89 45 08	 mov	 DWORD PTR _iIncDecValue$[ebp], eax
  00052	83 fb 02	 cmp	 ebx, 2
  00055	75 05		 jne	 SHORT $LN5@ApplyEleme@3
  00057	f7 d8		 neg	 eax
  00059	89 45 08	 mov	 DWORD PTR _iIncDecValue$[ebp], eax
$LN5@ApplyEleme@3:

; 399  : 		}
; 400  : 
; 401  : 		if ( this->m_iIncAndDecType >= MSE_INCDEC_TYPE_CONSTANTINC )

  0005c	83 fb 0b	 cmp	 ebx, 11			; 0000000bH
  0005f	7c 10		 jl	 SHORT $LN11@ApplyEleme@3
$LN19@ApplyEleme@3:

; 402  : 		{
; 403  : 			iIncDecValue = this->m_iIncAndDecValue;

  00061	8b 49 2c	 mov	 ecx, DWORD PTR [ecx+44]
  00064	89 4d 08	 mov	 DWORD PTR _iIncDecValue$[ebp], ecx

; 404  : 
; 405  : 			if ( this->m_iIncAndDecType == MSE_INCDEC_TYPE_CONSTANTDEC )

  00067	83 fb 0c	 cmp	 ebx, 12			; 0000000cH
  0006a	75 05		 jne	 SHORT $LN11@ApplyEleme@3

; 406  : 				iIncDecValue = -iIncDecValue;

  0006c	f7 d9		 neg	 ecx
  0006e	89 4d 08	 mov	 DWORD PTR _iIncDecValue$[ebp], ecx
$LN11@ApplyEleme@3:

; 407  : 		}
; 408  : 	}
; 409  : 
; 410  : 	lpTargetObj->Mana += iIncDecValue;

  00071	db 45 08	 fild	 DWORD PTR _iIncDecValue$[ebp]
  00074	d8 86 10 01 00
	00		 fadd	 DWORD PTR [esi+272]
  0007a	d9 5d 08	 fstp	 DWORD PTR tv254[ebp]
  0007d	d9 45 08	 fld	 DWORD PTR tv254[ebp]
  00080	d9 96 10 01 00
	00		 fst	 DWORD PTR [esi+272]

; 411  : 
; 412  : 	if ( lpTargetObj->Mana < 0 )

  00086	d9 ee		 fldz
  00088	d8 d1		 fcom	 ST(1)
  0008a	df e0		 fnstsw	 ax
  0008c	f6 c4 41	 test	 ah, 65			; 00000041H
  0008f	75 31		 jne	 SHORT $LN13@ApplyEleme@3

; 413  : 	{
; 414  : 		lpTargetObj->Mana = 0;
; 415  : 		GCManaSend(lpTargetObj->m_Index, lpTargetObj->Mana, 0xFF, 0, lpObj->BP);

  00091	8b 0e		 mov	 ecx, DWORD PTR [esi]
  00093	dd d9		 fstp	 ST(1)
  00095	d9 9e 10 01 00
	00		 fstp	 DWORD PTR [esi+272]
  0009b	8b 87 28 01 00
	00		 mov	 eax, DWORD PTR [edi+296]
  000a1	50		 push	 eax
  000a2	6a 00		 push	 0
  000a4	68 ff 00 00 00	 push	 255			; 000000ffH
  000a9	6a 00		 push	 0
  000ab	51		 push	 ecx
  000ac	e8 00 00 00 00	 call	 ?GCManaSend@@YAXHHEEH@Z	; GCManaSend
  000b1	83 c4 14	 add	 esp, 20			; 00000014H
  000b4	5f		 pop	 edi
  000b5	5e		 pop	 esi

; 416  : 		return TRUE;

  000b6	b8 01 00 00 00	 mov	 eax, 1
  000bb	5b		 pop	 ebx

; 430  : }

  000bc	8b e5		 mov	 esp, ebp
  000be	5d		 pop	 ebp
  000bf	c2 08 00	 ret	 8
$LN13@ApplyEleme@3:

; 411  : 
; 412  : 	if ( lpTargetObj->Mana < 0 )

  000c2	dd d8		 fstp	 ST(0)

; 417  : 	}
; 418  : 
; 419  : 	if ( (lpTargetObj->MaxMana + lpTargetObj->AddMana) < lpTargetObj->Mana )

  000c4	db 86 50 01 00
	00		 fild	 DWORD PTR [esi+336]
  000ca	d8 86 14 01 00
	00		 fadd	 DWORD PTR [esi+276]
  000d0	d8 d1		 fcom	 ST(1)
  000d2	df e0		 fnstsw	 ax
  000d4	f6 c4 05	 test	 ah, 5
  000d7	7a 3b		 jp	 SHORT $LN16@ApplyEleme@3

; 420  : 	{
; 421  : 		lpTargetObj->Mana = lpTargetObj->MaxMana + lpTargetObj->AddMana;
; 422  : 		GCManaSend(lpTargetObj->m_Index, lpTargetObj->Mana, 0xFF, 0, lpTargetObj->BP);

  000d9	8b 96 28 01 00
	00		 mov	 edx, DWORD PTR [esi+296]
  000df	dd d9		 fstp	 ST(1)
  000e1	52		 push	 edx
  000e2	d9 5d 08	 fstp	 DWORD PTR tv274[ebp]
  000e5	d9 45 08	 fld	 DWORD PTR tv274[ebp]
  000e8	6a 00		 push	 0
  000ea	68 ff 00 00 00	 push	 255			; 000000ffH
  000ef	d9 96 10 01 00
	00		 fst	 DWORD PTR [esi+272]
  000f5	e8 00 00 00 00	 call	 __ftol2_sse
  000fa	50		 push	 eax
  000fb	8b 06		 mov	 eax, DWORD PTR [esi]
  000fd	50		 push	 eax
  000fe	e8 00 00 00 00	 call	 ?GCManaSend@@YAXHHEEH@Z	; GCManaSend
  00103	83 c4 14	 add	 esp, 20			; 00000014H
  00106	5f		 pop	 edi
  00107	5e		 pop	 esi

; 423  : 
; 424  : 		return TRUE;

  00108	b8 01 00 00 00	 mov	 eax, 1
  0010d	5b		 pop	 ebx

; 430  : }

  0010e	8b e5		 mov	 esp, ebp
  00110	5d		 pop	 ebp
  00111	c2 08 00	 ret	 8
$LN16@ApplyEleme@3:

; 425  : 	}
; 426  : 
; 427  : 	GCManaSend(lpTargetObj->m_Index, lpTargetObj->Mana, 0xFF, 0, lpTargetObj->BP);

  00114	8b 8e 28 01 00
	00		 mov	 ecx, DWORD PTR [esi+296]
  0011a	dd d8		 fstp	 ST(0)
  0011c	51		 push	 ecx
  0011d	6a 00		 push	 0
  0011f	68 ff 00 00 00	 push	 255			; 000000ffH
  00124	e8 00 00 00 00	 call	 __ftol2_sse
  00129	8b 16		 mov	 edx, DWORD PTR [esi]
  0012b	50		 push	 eax
  0012c	52		 push	 edx
  0012d	e8 00 00 00 00	 call	 ?GCManaSend@@YAXHHEEH@Z	; GCManaSend
  00132	83 c4 14	 add	 esp, 20			; 00000014H
  00135	5f		 pop	 edi
  00136	5e		 pop	 esi

; 428  : 
; 429  : 	return FALSE;

  00137	33 c0		 xor	 eax, eax
  00139	5b		 pop	 ebx

; 430  : }

  0013a	8b e5		 mov	 esp, ebp
  0013c	5d		 pop	 ebp
  0013d	c2 08 00	 ret	 8
?ApplyElementMP@TMonsterSkillElement@@QAEHHH@Z ENDP	; TMonsterSkillElement::ApplyElementMP
_TEXT	ENDS
PUBLIC	?ApplyElementAG@TMonsterSkillElement@@QAEHHH@Z	; TMonsterSkillElement::ApplyElementAG
; Function compile flags: /Ogtp
;	COMDAT ?ApplyElementAG@TMonsterSkillElement@@QAEHHH@Z
_TEXT	SEGMENT
_iIndex$ = 8						; size = 4
tv235 = 12						; size = 4
tv226 = 12						; size = 4
_iTargetIndex$ = 12					; size = 4
?ApplyElementAG@TMonsterSkillElement@@QAEHHH@Z PROC	; TMonsterSkillElement::ApplyElementAG, COMDAT
; _this$ = ecx

; 433  : {

  00000	55		 push	 ebp
  00001	8b ec		 mov	 ebp, esp
  00003	56		 push	 esi

; 434  : 	LPOBJ lpObj = &gObj[iIndex];
; 435  : 	LPOBJ lpTargetObj = &gObj[iTargetIndex];

  00004	8b 75 0c	 mov	 esi, DWORD PTR _iTargetIndex$[ebp]
  00007	69 f6 50 2b 00
	00		 imul	 esi, 11088		; 00002b50H
  0000d	03 35 00 00 00
	00		 add	 esi, DWORD PTR ?gObj@@3PAUOBJECTSTRUCT@@A ; gObj
  00013	57		 push	 edi

; 436  : 	int iIncDecValue = 0;
; 437  : 
; 438  : 	if ( this->m_iIncAndDecType != MSE_INCDEC_TYPE_NONE )

  00014	8b 79 28	 mov	 edi, DWORD PTR [ecx+40]
  00017	33 c0		 xor	 eax, eax
  00019	85 ff		 test	 edi, edi
  0001b	74 36		 je	 SHORT $LN3@ApplyEleme@4

; 439  : 	{
; 440  : 		if ( this->m_iIncAndDecType < MSE_INCDEC_TYPE_CONSTANTINC )

  0001d	83 ff 0b	 cmp	 edi, 11			; 0000000bH
  00020	7d 27		 jge	 SHORT $LN14@ApplyEleme@4

; 441  : 		{
; 442  : 			iIncDecValue = lpTargetObj->BP * this->m_iIncAndDecValue / 100;

  00022	8b 96 28 01 00
	00		 mov	 edx, DWORD PTR [esi+296]
  00028	0f af 51 2c	 imul	 edx, DWORD PTR [ecx+44]
  0002c	b8 1f 85 eb 51	 mov	 eax, 1374389535		; 51eb851fH
  00031	f7 ea		 imul	 edx
  00033	c1 fa 05	 sar	 edx, 5
  00036	8b c2		 mov	 eax, edx
  00038	c1 e8 1f	 shr	 eax, 31			; 0000001fH
  0003b	03 c2		 add	 eax, edx

; 443  : 
; 444  : 			if ( this->m_iIncAndDecType == MSE_INCDEC_TYPE_PERCENTDEC )

  0003d	83 ff 02	 cmp	 edi, 2
  00040	75 02		 jne	 SHORT $LN5@ApplyEleme@4

; 445  : 				iIncDecValue = -iIncDecValue;

  00042	f7 d8		 neg	 eax
$LN5@ApplyEleme@4:

; 446  : 		}
; 447  : 
; 448  : 		if ( this->m_iIncAndDecType >= MSE_INCDEC_TYPE_CONSTANTINC )

  00044	83 ff 0b	 cmp	 edi, 11			; 0000000bH
  00047	7c 0a		 jl	 SHORT $LN3@ApplyEleme@4
$LN14@ApplyEleme@4:

; 449  : 		{
; 450  : 			iIncDecValue = this->m_iIncAndDecValue;

  00049	8b 41 2c	 mov	 eax, DWORD PTR [ecx+44]

; 451  : 
; 452  : 			if ( this->m_iIncAndDecType == MSE_INCDEC_TYPE_CONSTANTDEC )

  0004c	83 ff 0c	 cmp	 edi, 12			; 0000000cH
  0004f	75 02		 jne	 SHORT $LN3@ApplyEleme@4

; 453  : 				iIncDecValue = -iIncDecValue;

  00051	f7 d8		 neg	 eax
$LN3@ApplyEleme@4:

; 454  : 		}
; 455  : 	}
; 456  : 
; 457  : 	lpTargetObj->BP += iIncDecValue;

  00053	01 86 28 01 00
	00		 add	 DWORD PTR [esi+296], eax
  00059	8b 8e 28 01 00
	00		 mov	 ecx, DWORD PTR [esi+296]

; 458  : 
; 459  : 	if ( lpTargetObj->BP < 0 )

  0005f	79 35		 jns	 SHORT $LN2@ApplyEleme@4

; 460  : 	{
; 461  : 		lpTargetObj->BP = 0;
; 462  : 		GCManaSend(lpTargetObj->m_Index, lpTargetObj->Mana, 0xFF, 0, lpTargetObj->BP);

  00061	d9 86 10 01 00
	00		 fld	 DWORD PTR [esi+272]
  00067	6a 00		 push	 0
  00069	6a 00		 push	 0
  0006b	c7 86 28 01 00
	00 00 00 00 00	 mov	 DWORD PTR [esi+296], 0
  00075	68 ff 00 00 00	 push	 255			; 000000ffH
$LN15@ApplyEleme@4:
  0007a	e8 00 00 00 00	 call	 __ftol2_sse
  0007f	50		 push	 eax
  00080	8b 06		 mov	 eax, DWORD PTR [esi]
  00082	50		 push	 eax
  00083	e8 00 00 00 00	 call	 ?GCManaSend@@YAXHHEEH@Z	; GCManaSend
  00088	83 c4 14	 add	 esp, 20			; 00000014H
  0008b	5f		 pop	 edi

; 463  : 
; 464  : 		return TRUE;

  0008c	b8 01 00 00 00	 mov	 eax, 1
  00091	5e		 pop	 esi

; 478  : }

  00092	5d		 pop	 ebp
  00093	c2 08 00	 ret	 8
$LN2@ApplyEleme@4:

; 465  : 	}
; 466  : 
; 467  : 	if ( (lpTargetObj->MaxBP + lpTargetObj->AddBP) < lpTargetObj->Mana )

  00096	8b 96 30 01 00
	00		 mov	 edx, DWORD PTR [esi+304]
  0009c	03 96 2c 01 00
	00		 add	 edx, DWORD PTR [esi+300]

; 470  : 		GCManaSend(lpTargetObj->m_Index, lpTargetObj->Mana, 0xFF, 0, lpTargetObj->BP);

  000a2	51		 push	 ecx
  000a3	89 55 0c	 mov	 DWORD PTR tv235[ebp], edx
  000a6	db 45 0c	 fild	 DWORD PTR tv235[ebp]
  000a9	6a 00		 push	 0
  000ab	68 ff 00 00 00	 push	 255			; 000000ffH
  000b0	d9 5d 0c	 fstp	 DWORD PTR tv226[ebp]
  000b3	d9 45 0c	 fld	 DWORD PTR tv226[ebp]
  000b6	d9 86 10 01 00
	00		 fld	 DWORD PTR [esi+272]
  000bc	d8 d9		 fcomp	 ST(1)
  000be	df e0		 fnstsw	 ax
  000c0	f6 c4 41	 test	 ah, 65			; 00000041H
  000c3	75 08		 jne	 SHORT $LN11@ApplyEleme@4

; 468  : 	{
; 469  : 		lpTargetObj->Mana = (float)(lpTargetObj->MaxBP + lpTargetObj->AddBP);

  000c5	d9 96 10 01 00
	00		 fst	 DWORD PTR [esi+272]

; 471  : 
; 472  : 		return TRUE;

  000cb	eb ad		 jmp	 SHORT $LN15@ApplyEleme@4
$LN11@ApplyEleme@4:

; 465  : 	}
; 466  : 
; 467  : 	if ( (lpTargetObj->MaxBP + lpTargetObj->AddBP) < lpTargetObj->Mana )

  000cd	dd d8		 fstp	 ST(0)

; 473  : 	}
; 474  : 
; 475  : 	GCManaSend(lpTargetObj->m_Index, lpTargetObj->Mana, 0xFF, 0, lpTargetObj->BP);

  000cf	d9 86 10 01 00
	00		 fld	 DWORD PTR [esi+272]
  000d5	e8 00 00 00 00	 call	 __ftol2_sse
  000da	8b 0e		 mov	 ecx, DWORD PTR [esi]
  000dc	50		 push	 eax
  000dd	51		 push	 ecx
  000de	e8 00 00 00 00	 call	 ?GCManaSend@@YAXHHEEH@Z	; GCManaSend
  000e3	83 c4 14	 add	 esp, 20			; 00000014H
  000e6	5f		 pop	 edi

; 476  : 
; 477  : 	return FALSE;

  000e7	33 c0		 xor	 eax, eax
  000e9	5e		 pop	 esi

; 478  : }

  000ea	5d		 pop	 ebp
  000eb	c2 08 00	 ret	 8
?ApplyElementAG@TMonsterSkillElement@@QAEHHH@Z ENDP	; TMonsterSkillElement::ApplyElementAG
_TEXT	ENDS
PUBLIC	?ApplyElementDefense@TMonsterSkillElement@@QAEHHH@Z ; TMonsterSkillElement::ApplyElementDefense
; Function compile flags: /Ogtp
;	COMDAT ?ApplyElementDefense@TMonsterSkillElement@@QAEHHH@Z
_TEXT	SEGMENT
_iIndex$ = 8						; size = 4
_iTargetIndex$ = 12					; size = 4
?ApplyElementDefense@TMonsterSkillElement@@QAEHHH@Z PROC ; TMonsterSkillElement::ApplyElementDefense, COMDAT
; _this$ = ecx

; 481  : {

  00000	55		 push	 ebp
  00001	8b ec		 mov	 ebp, esp
  00003	56		 push	 esi

; 482  : 	LPOBJ lpObj = &gObj[iIndex];
; 483  : 	LPOBJ lpTargetObj = &gObj[iTargetIndex];

  00004	8b 75 0c	 mov	 esi, DWORD PTR _iTargetIndex$[ebp]
  00007	69 f6 50 2b 00
	00		 imul	 esi, 11088		; 00002b50H
  0000d	03 35 00 00 00
	00		 add	 esi, DWORD PTR ?gObj@@3PAUOBJECTSTRUCT@@A ; gObj
  00013	57		 push	 edi

; 484  : 	int iIncDecValue = 0;
; 485  : 
; 486  : 	if ( this->m_iIncAndDecType != MSE_INCDEC_TYPE_NONE )

  00014	8b 79 28	 mov	 edi, DWORD PTR [ecx+40]
  00017	33 c0		 xor	 eax, eax
  00019	85 ff		 test	 edi, edi
  0001b	74 36		 je	 SHORT $LN1@ApplyEleme@5

; 487  : 	{
; 488  : 		if ( this->m_iIncAndDecType < MSE_INCDEC_TYPE_CONSTANTINC )

  0001d	83 ff 0b	 cmp	 edi, 11			; 0000000bH
  00020	7d 27		 jge	 SHORT $LN9@ApplyEleme@5

; 489  : 		{
; 490  : 			iIncDecValue = lpTargetObj->m_Defense * this->m_iIncAndDecValue / 100;

  00022	8b 96 94 04 00
	00		 mov	 edx, DWORD PTR [esi+1172]
  00028	0f af 51 2c	 imul	 edx, DWORD PTR [ecx+44]
  0002c	b8 1f 85 eb 51	 mov	 eax, 1374389535		; 51eb851fH
  00031	f7 ea		 imul	 edx
  00033	c1 fa 05	 sar	 edx, 5
  00036	8b c2		 mov	 eax, edx
  00038	c1 e8 1f	 shr	 eax, 31			; 0000001fH
  0003b	03 c2		 add	 eax, edx

; 491  : 
; 492  : 			if ( this->m_iIncAndDecType == MSE_INCDEC_TYPE_PERCENTDEC )

  0003d	83 ff 02	 cmp	 edi, 2
  00040	75 02		 jne	 SHORT $LN3@ApplyEleme@5

; 493  : 				iIncDecValue = -iIncDecValue;

  00042	f7 d8		 neg	 eax
$LN3@ApplyEleme@5:

; 494  : 		}	
; 495  : 
; 496  : 		if ( this->m_iIncAndDecType >= MSE_INCDEC_TYPE_CONSTANTINC )

  00044	83 ff 0b	 cmp	 edi, 11			; 0000000bH
  00047	7c 0a		 jl	 SHORT $LN1@ApplyEleme@5
$LN9@ApplyEleme@5:

; 497  : 		{
; 498  : 			iIncDecValue = this->m_iIncAndDecValue;

  00049	8b 41 2c	 mov	 eax, DWORD PTR [ecx+44]

; 499  : 
; 500  : 			if ( this->m_iIncAndDecType == MSE_INCDEC_TYPE_CONSTANTDEC )

  0004c	83 ff 0c	 cmp	 edi, 12			; 0000000cH
  0004f	75 02		 jne	 SHORT $LN1@ApplyEleme@5

; 501  : 				iIncDecValue = -iIncDecValue;

  00051	f7 d8		 neg	 eax
$LN1@ApplyEleme@5:

; 502  : 		}
; 503  : 	}
; 504  : 
; 505  : 	lpTargetObj->m_MonsterSkillElementInfo.m_iSkillElementDefenseTime = this->m_iContinuanceTime;

  00053	8b 49 24	 mov	 ecx, DWORD PTR [ecx+36]

; 506  : 	lpTargetObj->m_MonsterSkillElementInfo.m_iSkillElementDefense = iIncDecValue;

  00056	89 86 20 1c 00
	00		 mov	 DWORD PTR [esi+7200], eax
  0005c	5f		 pop	 edi
  0005d	89 8e 24 1c 00
	00		 mov	 DWORD PTR [esi+7204], ecx

; 507  : #ifdef IMPERIAL_CONFLICT_NEW
; 508  : 	if ( CImperialGuardian::IsEventMap(lpObj->MapNumber) )
; 509  : 	{
; 510  : 		if ( m_iIncAndDecType == MSE_INCDEC_TYPE_CONSTANTDEC || m_iIncAndDecType == MSE_INCDEC_TYPE_PERCENTDEC )
; 511  : 			gObjApplyBuffEffectDuration(lpTargetObj, 58, 23, 10, 0, 0, 10);
; 512  : 	}
; 513  : #endif
; 514  : 
; 515  : 	return FALSE;

  00063	33 c0		 xor	 eax, eax
  00065	5e		 pop	 esi

; 516  : }

  00066	5d		 pop	 ebp
  00067	c2 08 00	 ret	 8
?ApplyElementDefense@TMonsterSkillElement@@QAEHHH@Z ENDP ; TMonsterSkillElement::ApplyElementDefense
_TEXT	ENDS
PUBLIC	?ApplyElementAttack@TMonsterSkillElement@@QAEHHH@Z ; TMonsterSkillElement::ApplyElementAttack
; Function compile flags: /Ogtp
;	COMDAT ?ApplyElementAttack@TMonsterSkillElement@@QAEHHH@Z
_TEXT	SEGMENT
_iIndex$ = 8						; size = 4
_iTargetIndex$ = 12					; size = 4
?ApplyElementAttack@TMonsterSkillElement@@QAEHHH@Z PROC	; TMonsterSkillElement::ApplyElementAttack, COMDAT
; _this$ = ecx

; 519  : {

  00000	55		 push	 ebp
  00001	8b ec		 mov	 ebp, esp
  00003	56		 push	 esi

; 520  : 	LPOBJ lpObj = &gObj[iIndex];
; 521  : 	LPOBJ lpTargetObj = &gObj[iTargetIndex];

  00004	8b 75 0c	 mov	 esi, DWORD PTR _iTargetIndex$[ebp]
  00007	69 f6 50 2b 00
	00		 imul	 esi, 11088		; 00002b50H
  0000d	03 35 00 00 00
	00		 add	 esi, DWORD PTR ?gObj@@3PAUOBJECTSTRUCT@@A ; gObj
  00013	57		 push	 edi

; 522  : 	int iIncDecValue = 0;
; 523  : 
; 524  : 	if ( this->m_iIncAndDecType != MSE_INCDEC_TYPE_NONE )

  00014	8b 79 28	 mov	 edi, DWORD PTR [ecx+40]
  00017	33 c0		 xor	 eax, eax
  00019	85 ff		 test	 edi, edi
  0001b	74 36		 je	 SHORT $LN1@ApplyEleme@6

; 525  : 	{
; 526  : 		if ( this->m_iIncAndDecType < MSE_INCDEC_TYPE_CONSTANTINC )

  0001d	83 ff 0b	 cmp	 edi, 11			; 0000000bH
  00020	7d 27		 jge	 SHORT $LN9@ApplyEleme@6

; 527  : 		{
; 528  : 			iIncDecValue = lpTargetObj->m_Defense * this->m_iIncAndDecValue / 100;

  00022	8b 96 94 04 00
	00		 mov	 edx, DWORD PTR [esi+1172]
  00028	0f af 51 2c	 imul	 edx, DWORD PTR [ecx+44]
  0002c	b8 1f 85 eb 51	 mov	 eax, 1374389535		; 51eb851fH
  00031	f7 ea		 imul	 edx
  00033	c1 fa 05	 sar	 edx, 5
  00036	8b c2		 mov	 eax, edx
  00038	c1 e8 1f	 shr	 eax, 31			; 0000001fH
  0003b	03 c2		 add	 eax, edx

; 529  : 
; 530  : 			if ( this->m_iIncAndDecType == MSE_INCDEC_TYPE_PERCENTDEC )

  0003d	83 ff 02	 cmp	 edi, 2
  00040	75 02		 jne	 SHORT $LN3@ApplyEleme@6

; 531  : 				iIncDecValue = -iIncDecValue;

  00042	f7 d8		 neg	 eax
$LN3@ApplyEleme@6:

; 532  : 		}	
; 533  : 
; 534  : 		if ( this->m_iIncAndDecType >= MSE_INCDEC_TYPE_CONSTANTINC )

  00044	83 ff 0b	 cmp	 edi, 11			; 0000000bH
  00047	7c 0a		 jl	 SHORT $LN1@ApplyEleme@6
$LN9@ApplyEleme@6:

; 535  : 		{
; 536  : 			iIncDecValue = this->m_iIncAndDecValue;

  00049	8b 41 2c	 mov	 eax, DWORD PTR [ecx+44]

; 537  : 
; 538  : 			if ( this->m_iIncAndDecType == MSE_INCDEC_TYPE_CONSTANTDEC )

  0004c	83 ff 0c	 cmp	 edi, 12			; 0000000cH
  0004f	75 02		 jne	 SHORT $LN1@ApplyEleme@6

; 539  : 				iIncDecValue = -iIncDecValue;

  00051	f7 d8		 neg	 eax
$LN1@ApplyEleme@6:

; 540  : 		}
; 541  : 	}
; 542  : 
; 543  : 	lpTargetObj->m_MonsterSkillElementInfo.m_iSkillElementAttackTime = this->m_iContinuanceTime;

  00053	8b 49 24	 mov	 ecx, DWORD PTR [ecx+36]

; 544  : 	lpTargetObj->m_MonsterSkillElementInfo.m_iSkillElementAttack = iIncDecValue;

  00056	89 86 28 1c 00
	00		 mov	 DWORD PTR [esi+7208], eax
  0005c	5f		 pop	 edi
  0005d	89 8e 2c 1c 00
	00		 mov	 DWORD PTR [esi+7212], ecx

; 545  : 
; 546  : 	return FALSE;

  00063	33 c0		 xor	 eax, eax
  00065	5e		 pop	 esi

; 547  : }

  00066	5d		 pop	 ebp
  00067	c2 08 00	 ret	 8
?ApplyElementAttack@TMonsterSkillElement@@QAEHHH@Z ENDP	; TMonsterSkillElement::ApplyElementAttack
_TEXT	ENDS
PUBLIC	?ApplyElementDurability@TMonsterSkillElement@@QAEHHH@Z ; TMonsterSkillElement::ApplyElementDurability
EXTRN	?GCItemDurSend@@YAXHEEE@Z:PROC			; GCItemDurSend
EXTRN	?IsLuckyItemEquipment@LuckyItemManager@@QAEHH@Z:PROC ; LuckyItemManager::IsLuckyItemEquipment
EXTRN	?g_LuckyItemManager@@3ULuckyItemManager@@A:BYTE	; g_LuckyItemManager
EXTRN	?IsItem@CItem@@QAEHXZ:PROC			; CItem::IsItem
EXTRN	_rand:PROC
; Function compile flags: /Ogtp
;	COMDAT ?ApplyElementDurability@TMonsterSkillElement@@QAEHHH@Z
_TEXT	SEGMENT
_lpTargetObj$ = -12					; size = 4
_iEquipmentPos$ = -8					; size = 4
tv209 = -4						; size = 4
tv207 = -4						; size = 4
_iIndex$ = 8						; size = 4
tv231 = 12						; size = 4
tv225 = 12						; size = 4
_iDurEquipment$ = 12					; size = 4
_iTargetIndex$ = 12					; size = 4
tv213 = 14						; size = 2
?ApplyElementDurability@TMonsterSkillElement@@QAEHHH@Z PROC ; TMonsterSkillElement::ApplyElementDurability, COMDAT
; _this$ = ecx

; 550  : {

  00000	55		 push	 ebp
  00001	8b ec		 mov	 ebp, esp
  00003	83 ec 0c	 sub	 esp, 12			; 0000000cH
  00006	53		 push	 ebx
  00007	57		 push	 edi

; 551  : 	LPOBJ lpObj = &gObj[iIndex];
; 552  : 	LPOBJ lpTargetObj = &gObj[iTargetIndex];

  00008	8b 7d 0c	 mov	 edi, DWORD PTR _iTargetIndex$[ebp]
  0000b	69 ff 50 2b 00
	00		 imul	 edi, 11088		; 00002b50H
  00011	03 3d 00 00 00
	00		 add	 edi, DWORD PTR ?gObj@@3PAUOBJECTSTRUCT@@A ; gObj
  00017	8b d9		 mov	 ebx, ecx

; 553  : 
; 554  : 	if ( lpTargetObj->Type != OBJ_USER )

  00019	66 83 7f 68 01	 cmp	 WORD PTR [edi+104], 1
  0001e	89 7d f4	 mov	 DWORD PTR _lpTargetObj$[ebp], edi

; 555  : 		return FALSE;

  00021	0f 85 f3 00 00
	00		 jne	 $LN22@ApplyEleme@7

; 556  : 
; 557  : 	int iEquipmentPos = rand()%6+2;	// Armors

  00027	56		 push	 esi
  00028	e8 00 00 00 00	 call	 _rand
  0002d	99		 cdq
  0002e	b9 06 00 00 00	 mov	 ecx, 6
  00033	f7 f9		 idiv	 ecx
  00035	83 c2 02	 add	 edx, 2

; 558  : 	CItem * lpEquipment = &lpTargetObj->pInventory[iEquipmentPos];

  00038	8b f2		 mov	 esi, edx
  0003a	69 f6 d4 00 00
	00		 imul	 esi, 212		; 000000d4H
  00040	03 b7 24 0e 00
	00		 add	 esi, DWORD PTR [edi+3620]
  00046	89 55 f8	 mov	 DWORD PTR _iEquipmentPos$[ebp], edx

; 559  : 
; 560  : 	if ( lpEquipment == NULL || lpEquipment->IsItem() == FALSE )

  00049	0f 84 ca 00 00
	00		 je	 $LN9@ApplyEleme@7
  0004f	8b ce		 mov	 ecx, esi
  00051	e8 00 00 00 00	 call	 ?IsItem@CItem@@QAEHXZ	; CItem::IsItem
  00056	85 c0		 test	 eax, eax
  00058	0f 84 bb 00 00
	00		 je	 $LN9@ApplyEleme@7

; 562  : 
; 563  : #ifdef LUCKYITEM
; 564  : 	if( g_LuckyItemManager.IsLuckyItemEquipment(lpEquipment->m_Type) )

  0005e	0f bf 56 06	 movsx	 edx, WORD PTR [esi+6]
  00062	52		 push	 edx
  00063	b9 00 00 00 00	 mov	 ecx, OFFSET ?g_LuckyItemManager@@3ULuckyItemManager@@A ; g_LuckyItemManager
  00068	e8 00 00 00 00	 call	 ?IsLuckyItemEquipment@LuckyItemManager@@QAEHH@Z ; LuckyItemManager::IsLuckyItemEquipment
  0006d	85 c0		 test	 eax, eax

; 565  :     {
; 566  : 		return false;

  0006f	0f 85 a4 00 00
	00		 jne	 $LN9@ApplyEleme@7

; 567  :     }
; 568  : #endif
; 569  : 
; 570  : 	int iDurEquipment = (int)lpEquipment->m_Durability;

  00075	d9 46 24	 fld	 DWORD PTR [esi+36]
  00078	8d 7e 24	 lea	 edi, DWORD PTR [esi+36]
  0007b	e8 00 00 00 00	 call	 __ftol2_sse

; 571  : 	int iIncDecValue = 0;
; 572  : 
; 573  : 	if ( this->m_iIncAndDecType != MSE_INCDEC_TYPE_NONE )

  00080	8b 73 28	 mov	 esi, DWORD PTR [ebx+40]
  00083	8b d0		 mov	 edx, eax
  00085	33 c0		 xor	 eax, eax
  00087	89 55 0c	 mov	 DWORD PTR _iDurEquipment$[ebp], edx
  0008a	85 f6		 test	 esi, esi
  0008c	74 32		 je	 SHORT $LN15@ApplyEleme@7

; 574  : 	{
; 575  : 		if ( this->m_iIncAndDecType < MSE_INCDEC_TYPE_CONSTANTINC )

  0008e	83 fe 0b	 cmp	 esi, 11			; 0000000bH
  00091	7d 23		 jge	 SHORT $LN21@ApplyEleme@7

; 576  : 		{
; 577  : 			iIncDecValue = iDurEquipment * this->m_iIncAndDecValue / 100;

  00093	8b 4b 2c	 mov	 ecx, DWORD PTR [ebx+44]
  00096	0f af ca	 imul	 ecx, edx
  00099	b8 1f 85 eb 51	 mov	 eax, 1374389535		; 51eb851fH
  0009e	f7 e9		 imul	 ecx
  000a0	c1 fa 05	 sar	 edx, 5
  000a3	8b c2		 mov	 eax, edx
  000a5	c1 e8 1f	 shr	 eax, 31			; 0000001fH
  000a8	03 c2		 add	 eax, edx

; 578  : 
; 579  : 			if ( this->m_iIncAndDecType == MSE_INCDEC_TYPE_PERCENTDEC )

  000aa	83 fe 02	 cmp	 esi, 2
  000ad	75 02		 jne	 SHORT $LN14@ApplyEleme@7

; 580  : 				iIncDecValue = -iIncDecValue;

  000af	f7 d8		 neg	 eax
$LN14@ApplyEleme@7:

; 581  : 		}	
; 582  : 
; 583  : 		if ( this->m_iIncAndDecType >= MSE_INCDEC_TYPE_CONSTANTINC )

  000b1	83 fe 0b	 cmp	 esi, 11			; 0000000bH
  000b4	7c 0a		 jl	 SHORT $LN15@ApplyEleme@7
$LN21@ApplyEleme@7:

; 584  : 		{
; 585  : 			iIncDecValue = this->m_iIncAndDecValue;

  000b6	8b 43 2c	 mov	 eax, DWORD PTR [ebx+44]

; 586  : 
; 587  : 			if ( this->m_iIncAndDecType == MSE_INCDEC_TYPE_CONSTANTDEC )

  000b9	83 fe 0c	 cmp	 esi, 12			; 0000000cH
  000bc	75 02		 jne	 SHORT $LN15@ApplyEleme@7

; 588  : 				iIncDecValue = -iIncDecValue;

  000be	f7 d8		 neg	 eax
$LN15@ApplyEleme@7:

; 589  : 		}
; 590  : 	}
; 591  : 
; 592  : 	iDurEquipment += iIncDecValue;

  000c0	03 45 0c	 add	 eax, DWORD PTR _iDurEquipment$[ebp]
  000c3	89 45 0c	 mov	 DWORD PTR tv225[ebp], eax
  000c6	db 45 0c	 fild	 DWORD PTR tv225[ebp]
  000c9	d9 5d 0c	 fstp	 DWORD PTR tv231[ebp]

; 593  : 
; 594  : 	if ( lpEquipment )
; 595  : 	{
; 596  : 		lpEquipment->m_Durability = (float)iDurEquipment;

  000cc	d9 45 0c	 fld	 DWORD PTR tv231[ebp]
  000cf	d9 17		 fst	 DWORD PTR [edi]

; 597  : 
; 598  : 		if ( lpEquipment->m_Durability < 0.0f )

  000d1	d9 ee		 fldz
  000d3	d8 d1		 fcom	 ST(1)
  000d5	df e0		 fnstsw	 ax
  000d7	dd d9		 fstp	 ST(1)
  000d9	f6 c4 41	 test	 ah, 65			; 00000041H
  000dc	75 04		 jne	 SHORT $LN18@ApplyEleme@7

; 599  : 			lpEquipment->m_Durability = 0;

  000de	d9 1f		 fstp	 DWORD PTR [edi]
  000e0	eb 02		 jmp	 SHORT $LN1@ApplyEleme@7
$LN18@ApplyEleme@7:
  000e2	dd d8		 fstp	 ST(0)
$LN1@ApplyEleme@7:

; 600  : 
; 601  : 		GCItemDurSend(lpTargetObj->m_Index, (BYTE)iEquipmentPos, (BYTE)lpEquipment->m_Durability, 0);

  000e4	d9 07		 fld	 DWORD PTR [edi]
  000e6	8b 4d f8	 mov	 ecx, DWORD PTR _iEquipmentPos$[ebp]
  000e9	d9 7d 0e	 fnstcw	 WORD PTR tv213[ebp]
  000ec	6a 00		 push	 0
  000ee	0f b7 45 0e	 movzx	 eax, WORD PTR tv213[ebp]
  000f2	0d 00 0c 00 00	 or	 eax, 3072		; 00000c00H
  000f7	89 45 fc	 mov	 DWORD PTR tv209[ebp], eax
  000fa	d9 6d fc	 fldcw	 WORD PTR tv209[ebp]
  000fd	db 5d fc	 fistp	 DWORD PTR tv207[ebp]
  00100	8a 55 fc	 mov	 dl, BYTE PTR tv207[ebp]
  00103	0f b6 c2	 movzx	 eax, dl
  00106	8b 55 f4	 mov	 edx, DWORD PTR _lpTargetObj$[ebp]
  00109	d9 6d 0e	 fldcw	 WORD PTR tv213[ebp]
  0010c	50		 push	 eax
  0010d	8b 02		 mov	 eax, DWORD PTR [edx]
  0010f	51		 push	 ecx
  00110	50		 push	 eax
  00111	e8 00 00 00 00	 call	 ?GCItemDurSend@@YAXHEEE@Z ; GCItemDurSend
  00116	83 c4 10	 add	 esp, 16			; 00000010H
$LN9@ApplyEleme@7:
  00119	5e		 pop	 esi
$LN22@ApplyEleme@7:
  0011a	5f		 pop	 edi

; 561  : 		return FALSE;

  0011b	33 c0		 xor	 eax, eax
  0011d	5b		 pop	 ebx

; 602  : 	}
; 603  : 
; 604  : 	return FALSE;
; 605  : }

  0011e	8b e5		 mov	 esp, ebp
  00120	5d		 pop	 ebp
  00121	c2 08 00	 ret	 8
?ApplyElementDurability@TMonsterSkillElement@@QAEHHH@Z ENDP ; TMonsterSkillElement::ApplyElementDurability
_TEXT	ENDS
PUBLIC	??_C@_0DP@PHICBOGE@?$FLTMonsterSkillElement?$FN?$FLApplyElem@ ; `string'
PUBLIC	?ApplyElementSummon@TMonsterSkillElement@@QAEHHH@Z ; TMonsterSkillElement::ApplyElementSummon
EXTRN	?gObjViewportListCreate@@YAXF@Z:PROC		; gObjViewportListCreate
EXTRN	?ResetAll@TMonsterAIAgro@@QAEXXZ:PROC		; TMonsterAIAgro::ResetAll
EXTRN	?CreateFrustrum@@YAXHHH@Z:PROC			; CreateFrustrum
EXTRN	?gObjMonsterHitDamageInit@@YAXPAUOBJECTSTRUCT@@@Z:PROC ; gObjMonsterHitDamageInit
EXTRN	__imp__GetTickCount@0:PROC
EXTRN	?GetAttr@MapClass@@QAEEHH@Z:PROC		; MapClass::GetAttr
EXTRN	?MapC@@3PAVMapClass@@A:BYTE			; MapC
EXTRN	?gObjViewportClose@@YAXPAUOBJECTSTRUCT@@@Z:PROC	; gObjViewportClose
EXTRN	?gObjViewportListProtocolDestroy@@YAXPAUOBJECTSTRUCT@@@Z:PROC ; gObjViewportListProtocolDestroy
EXTRN	?gObjTimeCheckSelfDefense@@YAXPAUOBJECTSTRUCT@@@Z:PROC ; gObjTimeCheckSelfDefense
EXTRN	?gObjClearStandardBuffEffect@@YAEPAUOBJECTSTRUCT@@H@Z:PROC ; gObjClearStandardBuffEffect
EXTRN	?gObjRemoveBuffEffect@@YAEPAUOBJECTSTRUCT@@H@Z:PROC ; gObjRemoveBuffEffect
;	COMDAT ??_C@_0DP@PHICBOGE@?$FLTMonsterSkillElement?$FN?$FLApplyElem@
CONST	SEGMENT
??_C@_0DP@PHICBOGE@?$FLTMonsterSkillElement?$FN?$FLApplyElem@ DB '[TMonst'
	DB	'erSkillElement][ApplyElementSummon] Selupan use summon.', 00H ; `string'
; Function compile flags: /Ogtp
CONST	ENDS
;	COMDAT ?ApplyElementSummon@TMonsterSkillElement@@QAEHHH@Z
_TEXT	SEGMENT
_this$ = -4						; size = 4
tv209 = 8						; size = 4
_iIndex$ = 8						; size = 4
_cY$ = 11						; size = 1
_iCount$ = 12						; size = 4
_iTargetIndex$ = 12					; size = 4
?ApplyElementSummon@TMonsterSkillElement@@QAEHHH@Z PROC	; TMonsterSkillElement::ApplyElementSummon, COMDAT
; _this$ = ecx

; 608  : {

  00000	55		 push	 ebp
  00001	8b ec		 mov	 ebp, esp
  00003	51		 push	 ecx

; 609  : 	LPOBJ lpObj = &gObj[iIndex];
; 610  : 	LPOBJ lpTargetObj = &gObj[iTargetIndex];

  00004	8b 55 0c	 mov	 edx, DWORD PTR _iTargetIndex$[ebp]
  00007	a1 00 00 00 00	 mov	 eax, DWORD PTR ?gObj@@3PAUOBJECTSTRUCT@@A ; gObj
  0000c	53		 push	 ebx
  0000d	56		 push	 esi
  0000e	8b d9		 mov	 ebx, ecx
  00010	8b 4d 08	 mov	 ecx, DWORD PTR _iIndex$[ebp]
  00013	57		 push	 edi
  00014	8b f9		 mov	 edi, ecx
  00016	8b f2		 mov	 esi, edx
  00018	69 ff 50 2b 00
	00		 imul	 edi, 11088		; 00002b50H
  0001e	69 f6 50 2b 00
	00		 imul	 esi, 11088		; 00002b50H
  00024	03 f8		 add	 edi, eax
  00026	03 f0		 add	 esi, eax

; 611  : 
; 612  : 	if (lpObj->Class == 459	&& lpObj->Connected == PLAYER_PLAYING && lpObj->MapNumber == MAP_INDEX_RAKLION_BOSS && iIndex == iTargetIndex )//Season 4.5 addon

  00028	b8 cb 01 00 00	 mov	 eax, 459		; 000001cbH
  0002d	89 5d fc	 mov	 DWORD PTR _this$[ebp], ebx
  00030	66 39 87 b8 00
	00 00		 cmp	 WORD PTR [edi+184], ax
  00037	75 2c		 jne	 SHORT $LN29@ApplyEleme@8
  00039	83 7f 04 03	 cmp	 DWORD PTR [edi+4], 3
  0003d	75 26		 jne	 SHORT $LN29@ApplyEleme@8
  0003f	80 bf 49 01 00
	00 3a		 cmp	 BYTE PTR [edi+329], 58	; 0000003aH
  00046	75 1d		 jne	 SHORT $LN29@ApplyEleme@8
  00048	3b ca		 cmp	 ecx, edx
  0004a	75 19		 jne	 SHORT $LN29@ApplyEleme@8

; 613  : 	{
; 614  : 		LogAddTD("[TMonsterSkillElement][ApplyElementSummon] Selupan use summon.");

  0004c	68 00 00 00 00	 push	 OFFSET ??_C@_0DP@PHICBOGE@?$FLTMonsterSkillElement?$FN?$FLApplyElem@
  00051	ff 15 00 00 00
	00		 call	 DWORD PTR ?LogAddTD@@3P6AXPADZZA ; LogAddTD

; 700  : 	gObjViewportListCreate(lpTargetObj->m_Index);

  00057	83 c4 04	 add	 esp, 4
  0005a	5f		 pop	 edi
  0005b	5e		 pop	 esi
  0005c	33 c0		 xor	 eax, eax
  0005e	5b		 pop	 ebx

; 701  : 
; 702  : 	return FALSE;
; 703  : }

  0005f	8b e5		 mov	 esp, ebp
  00061	5d		 pop	 ebp
  00062	c2 08 00	 ret	 8
$LN29@ApplyEleme@8:

; 615  : 		return FALSE;
; 616  : 	}
; 617  : 
; 618  : 	if ( lpTargetObj->Connected < PLAYER_PLAYING || lpTargetObj->Type != OBJ_MONSTER )

  00065	83 7e 04 03	 cmp	 DWORD PTR [esi+4], 3
  00069	0f 8c 3a 02 00
	00		 jl	 $LN9@ApplyEleme@8
  0006f	66 83 7e 68 02	 cmp	 WORD PTR [esi+104], 2
  00074	0f 85 2f 02 00
	00		 jne	 $LN9@ApplyEleme@8

; 620  : 
; 621  : 	lpTargetObj->Life = lpTargetObj->MaxLife + lpTargetObj->AddLife;

  0007a	db 86 4c 01 00
	00		 fild	 DWORD PTR [esi+332]

; 622  : 	lpTargetObj->Mana = lpTargetObj->MaxMana + lpTargetObj->AddMana;
; 623  : 	lpTargetObj->Live = TRUE;
; 624  : 
; 625  : 	gObjRemoveBuffEffect(lpTargetObj, AT_POISON);

  00080	6a 37		 push	 55			; 00000037H
  00082	56		 push	 esi
  00083	c6 46 6a 01	 mov	 BYTE PTR [esi+106], 1
  00087	d8 86 00 01 00
	00		 fadd	 DWORD PTR [esi+256]
  0008d	d9 9e fc 00 00
	00		 fstp	 DWORD PTR [esi+252]
  00093	db 86 50 01 00
	00		 fild	 DWORD PTR [esi+336]
  00099	d8 86 14 01 00
	00		 fadd	 DWORD PTR [esi+276]
  0009f	d9 9e 10 01 00
	00		 fstp	 DWORD PTR [esi+272]
  000a5	e8 00 00 00 00	 call	 ?gObjRemoveBuffEffect@@YAEPAUOBJECTSTRUCT@@H@Z ; gObjRemoveBuffEffect

; 626  : 	gObjRemoveBuffEffect(lpTargetObj, AT_ICE);

  000aa	6a 38		 push	 56			; 00000038H
  000ac	56		 push	 esi
  000ad	e8 00 00 00 00	 call	 ?gObjRemoveBuffEffect@@YAEPAUOBJECTSTRUCT@@H@Z ; gObjRemoveBuffEffect

; 627  : 	gObjRemoveBuffEffect(lpTargetObj, AT_ICE_ARROW);

  000b2	6a 39		 push	 57			; 00000039H
  000b4	56		 push	 esi
  000b5	e8 00 00 00 00	 call	 ?gObjRemoveBuffEffect@@YAEPAUOBJECTSTRUCT@@H@Z ; gObjRemoveBuffEffect

; 628  : 
; 629  : 	lpTargetObj->m_ViewState = 0;
; 630  : 	lpTargetObj->Teleport = 0;
; 631  : 
; 632  : 	gObjClearStandardBuffEffect(lpTargetObj, AT_GENERAL);

  000ba	6a 02		 push	 2
  000bc	56		 push	 esi
  000bd	c6 86 26 02 00
	00 00		 mov	 BYTE PTR [esi+550], 0
  000c4	c6 86 a0 03 00
	00 00		 mov	 BYTE PTR [esi+928], 0
  000cb	e8 00 00 00 00	 call	 ?gObjClearStandardBuffEffect@@YAEPAUOBJECTSTRUCT@@H@Z ; gObjClearStandardBuffEffect

; 633  : 
; 634  : 	for ( int i=0;i<MAX_SELF_DEFENSE;i++)
; 635  : 	{
; 636  : 		lpTargetObj->SelfDefenseTime[i] = 0;

  000d0	33 c0		 xor	 eax, eax

; 637  : 	}
; 638  : 
; 639  : 	gObjTimeCheckSelfDefense(lpTargetObj);

  000d2	56		 push	 esi
  000d3	89 86 00 04 00
	00		 mov	 DWORD PTR [esi+1024], eax
  000d9	89 86 04 04 00
	00		 mov	 DWORD PTR [esi+1028], eax
  000df	89 86 08 04 00
	00		 mov	 DWORD PTR [esi+1032], eax
  000e5	89 86 0c 04 00
	00		 mov	 DWORD PTR [esi+1036], eax
  000eb	89 86 10 04 00
	00		 mov	 DWORD PTR [esi+1040], eax
  000f1	89 86 14 04 00
	00		 mov	 DWORD PTR [esi+1044], eax
  000f7	89 86 18 04 00
	00		 mov	 DWORD PTR [esi+1048], eax
  000fd	e8 00 00 00 00	 call	 ?gObjTimeCheckSelfDefense@@YAXPAUOBJECTSTRUCT@@@Z ; gObjTimeCheckSelfDefense

; 640  : 	gObjViewportListProtocolDestroy(lpTargetObj);

  00102	56		 push	 esi
  00103	e8 00 00 00 00	 call	 ?gObjViewportListProtocolDestroy@@YAXPAUOBJECTSTRUCT@@@Z ; gObjViewportListProtocolDestroy

; 641  : 	gObjViewportClose(lpTargetObj);

  00108	56		 push	 esi
  00109	e8 00 00 00 00	 call	 ?gObjViewportClose@@YAXPAUOBJECTSTRUCT@@@Z ; gObjViewportClose

; 642  : 	lpTargetObj->m_ActState.Attack = 0;

  0010e	83 a6 18 02 00
	00 fd		 and	 DWORD PTR [esi+536], -3	; fffffffdH

; 643  : 	lpTargetObj->m_ActState.EmotionCount = 0;
; 644  : 	lpTargetObj->m_ActState.Escape = 0;
; 645  : 	lpTargetObj->m_ActState.Move = 0;
; 646  : 	lpTargetObj->m_ActState.Rest = 0;
; 647  : 	lpTargetObj->m_ActState.Emotion = 0;
; 648  : 	lpTargetObj->TargetNumber = -1;

  00115	83 c9 ff	 or	 ecx, -1
  00118	c6 86 19 02 00
	00 00		 mov	 BYTE PTR [esi+537], 0
  0011f	81 a6 18 02 00
	00 02 ff ff ff	 and	 DWORD PTR [esi+536], -254 ; ffffff02H
  00129	83 c4 2c	 add	 esp, 44			; 0000002cH
  0012c	66 89 8e 58 04
	00 00		 mov	 WORD PTR [esi+1112], cx

; 649  : 	lpTargetObj->NextActionTime = 5000;

  00133	c7 86 bc 03 00
	00 88 13 00 00	 mov	 DWORD PTR [esi+956], 5000 ; 00001388H

; 650  : 
; 651  : 	if ( this->m_iIncAndDecValue < 0 )

  0013d	83 7b 2c 00	 cmp	 DWORD PTR [ebx+44], 0
  00141	7d 07		 jge	 SHORT $LN5@ApplyEleme@8

; 652  : 	{
; 653  : 		this->m_iIncAndDecValue = 10;

  00143	c7 43 2c 0a 00
	00 00		 mov	 DWORD PTR [ebx+44], 10	; 0000000aH
$LN5@ApplyEleme@8:

; 654  : 	}
; 655  : 
; 656  : 	BYTE cX;
; 657  : 	BYTE cY;
; 658  : 	BOOL bGetPosition = FALSE;
; 659  : 	int iCount = 100;

  0014a	c7 45 0c 64 00
	00 00		 mov	 DWORD PTR _iCount$[ebp], 100 ; 00000064H
  00151	eb 03		 jmp	 SHORT $LN4@ApplyEleme@8
$LL28@ApplyEleme@8:
  00153	8b 5d fc	 mov	 ebx, DWORD PTR _this$[ebp]
$LN4@ApplyEleme@8:

; 660  : 
; 661  : 
; 662  : 	while ( iCount-- != 0 )

  00156	ff 4d 0c	 dec	 DWORD PTR _iCount$[ebp]

; 663  : 	{
; 664  : 		cX = ( rand() % (this->m_iIncAndDecValue+1) ) * (((rand()%2==0)?-1:1)) + lpObj->X;

  00159	e8 00 00 00 00	 call	 _rand
  0015e	8b 4b 2c	 mov	 ecx, DWORD PTR [ebx+44]
  00161	99		 cdq
  00162	41		 inc	 ecx
  00163	f7 f9		 idiv	 ecx
  00165	8b da		 mov	 ebx, edx
  00167	e8 00 00 00 00	 call	 _rand
  0016c	25 01 00 00 80	 and	 eax, -2147483647	; 80000001H
  00171	79 05		 jns	 SHORT $LN30@ApplyEleme@8
  00173	48		 dec	 eax
  00174	83 c8 fe	 or	 eax, -2			; fffffffeH
  00177	40		 inc	 eax
$LN30@ApplyEleme@8:
  00178	f7 d8		 neg	 eax
  0017a	1a c0		 sbb	 al, al
  0017c	24 02		 and	 al, 2
  0017e	fe c8		 dec	 al
  00180	f6 eb		 imul	 bl
  00182	8a d8		 mov	 bl, al
  00184	02 9f 44 01 00
	00		 add	 bl, BYTE PTR [edi+324]

; 665  : 		cY = ( rand() % (this->m_iIncAndDecValue+1) ) * (((rand()%2==0)?-1:1)) + lpObj->Y;

  0018a	e8 00 00 00 00	 call	 _rand
  0018f	8b 55 fc	 mov	 edx, DWORD PTR _this$[ebp]
  00192	8b 4a 2c	 mov	 ecx, DWORD PTR [edx+44]
  00195	99		 cdq
  00196	41		 inc	 ecx
  00197	f7 f9		 idiv	 ecx
  00199	89 55 08	 mov	 DWORD PTR tv209[ebp], edx
  0019c	e8 00 00 00 00	 call	 _rand
  001a1	25 01 00 00 80	 and	 eax, -2147483647	; 80000001H
  001a6	79 05		 jns	 SHORT $LN31@ApplyEleme@8
  001a8	48		 dec	 eax
  001a9	83 c8 fe	 or	 eax, -2			; fffffffeH
  001ac	40		 inc	 eax
$LN31@ApplyEleme@8:

; 666  : 
; 667  : 		BYTE btMapAttr = MapC[lpObj->MapNumber].GetAttr(cX, cY);
; 668  : 
; 669  : 		if ( btMapAttr == 0 )

  001ad	0f b6 8f 49 01
	00 00		 movzx	 ecx, BYTE PTR [edi+329]
  001b4	f7 d8		 neg	 eax
  001b6	1a c0		 sbb	 al, al
  001b8	69 c9 48 3d 05
	00		 imul	 ecx, 343368		; 00053d48H
  001be	24 02		 and	 al, 2
  001c0	fe c8		 dec	 al
  001c2	f6 6d 08	 imul	 BYTE PTR tv209[ebp]
  001c5	02 87 46 01 00
	00		 add	 al, BYTE PTR [edi+326]
  001cb	81 c1 00 00 00
	00		 add	 ecx, OFFSET ?MapC@@3PAVMapClass@@A ; MapC
  001d1	0f b6 d0	 movzx	 edx, al
  001d4	88 45 0b	 mov	 BYTE PTR _cY$[ebp], al
  001d7	0f b6 c3	 movzx	 eax, bl
  001da	52		 push	 edx
  001db	50		 push	 eax
  001dc	e8 00 00 00 00	 call	 ?GetAttr@MapClass@@QAEEHH@Z ; MapClass::GetAttr
  001e1	84 c0		 test	 al, al
  001e3	74 36		 je	 SHORT $LN1@ApplyEleme@8

; 660  : 
; 661  : 
; 662  : 	while ( iCount-- != 0 )

  001e5	83 7d 0c 00	 cmp	 DWORD PTR _iCount$[ebp], 0
  001e9	0f 85 64 ff ff
	ff		 jne	 $LL28@ApplyEleme@8

; 670  : 		{
; 671  : 			bGetPosition = TRUE;
; 672  : 			break;
; 673  : 		}
; 674  : 	}
; 675  : 
; 676  : 	if ( bGetPosition == FALSE )
; 677  : 	{
; 678  : 		lpObj->Live = FALSE;

  001ef	c6 47 6a 00	 mov	 BYTE PTR [edi+106], 0

; 679  : 		lpObj->m_State = 4;

  001f3	c7 87 20 02 00
	00 04 00 00 00	 mov	 DWORD PTR [edi+544], 4

; 680  : 		lpObj->RegenTime = GetTickCount();

  001fd	ff 15 00 00 00
	00		 call	 DWORD PTR __imp__GetTickCount@0
  00203	89 87 a8 03 00
	00		 mov	 DWORD PTR [edi+936], eax

; 681  : 		lpObj->DieRegen = 1;

  00209	c6 87 a2 03 00
	00 01		 mov	 BYTE PTR [edi+930], 1
  00210	5f		 pop	 edi
  00211	5e		 pop	 esi
  00212	33 c0		 xor	 eax, eax
  00214	5b		 pop	 ebx

; 701  : 
; 702  : 	return FALSE;
; 703  : }

  00215	8b e5		 mov	 esp, ebp
  00217	5d		 pop	 ebp
  00218	c2 08 00	 ret	 8
$LN1@ApplyEleme@8:

; 682  : 
; 683  : 		return FALSE;
; 684  : 	}
; 685  : 
; 686  : 	lpTargetObj->X = cX;
; 687  : 	lpTargetObj->Y = cY;

  0021b	0f b6 4d 0b	 movzx	 ecx, BYTE PTR _cY$[ebp]
  0021f	0f b6 c3	 movzx	 eax, bl
  00222	66 89 8e 46 01
	00 00		 mov	 WORD PTR [esi+326], cx

; 688  : 	lpTargetObj->MTX = lpTargetObj->X;
; 689  : 	lpTargetObj->MTY = lpTargetObj->Y;
; 690  : 	lpTargetObj->TX = lpTargetObj->X;
; 691  : 	lpTargetObj->TY = lpTargetObj->Y;
; 692  : 	lpTargetObj->StartX = lpTargetObj->X;
; 693  : 	lpTargetObj->StartY = lpTargetObj->Y;

  00229	8a 96 46 01 00
	00		 mov	 dl, BYTE PTR [esi+326]
  0022f	66 89 8e 82 01
	00 00		 mov	 WORD PTR [esi+386], cx
  00236	66 89 8e 7e 01
	00 00		 mov	 WORD PTR [esi+382], cx
  0023d	8a c8		 mov	 cl, al

; 694  : 
; 695  : 	gObjMonsterHitDamageInit(lpTargetObj);

  0023f	56		 push	 esi
  00240	66 89 86 44 01
	00 00		 mov	 WORD PTR [esi+324], ax
  00247	66 89 86 80 01
	00 00		 mov	 WORD PTR [esi+384], ax
  0024e	66 89 86 7c 01
	00 00		 mov	 WORD PTR [esi+380], ax
  00255	88 8e 76 01 00
	00		 mov	 BYTE PTR [esi+374], cl
  0025b	88 96 77 01 00
	00		 mov	 BYTE PTR [esi+375], dl
  00261	e8 00 00 00 00	 call	 ?gObjMonsterHitDamageInit@@YAXPAUOBJECTSTRUCT@@@Z ; gObjMonsterHitDamageInit

; 696  : 	CreateFrustrum(lpTargetObj->X, lpTargetObj->Y, lpTargetObj->m_Index);

  00266	8b 06		 mov	 eax, DWORD PTR [esi]
  00268	0f bf 8e 46 01
	00 00		 movsx	 ecx, WORD PTR [esi+326]
  0026f	0f bf 96 44 01
	00 00		 movsx	 edx, WORD PTR [esi+324]
  00276	50		 push	 eax
  00277	51		 push	 ecx
  00278	52		 push	 edx
  00279	e8 00 00 00 00	 call	 ?CreateFrustrum@@YAXHHH@Z ; CreateFrustrum
  0027e	83 c4 10	 add	 esp, 16			; 00000010H

; 697  : 	lpTargetObj->DieRegen = 0;
; 698  : 	lpTargetObj->m_State = 1;
; 699  : 	lpTargetObj->m_Agro.ResetAll();

  00281	8d 8e 94 1c 00
	00		 lea	 ecx, DWORD PTR [esi+7316]
  00287	c6 86 a2 03 00
	00 00		 mov	 BYTE PTR [esi+930], 0
  0028e	c7 86 20 02 00
	00 01 00 00 00	 mov	 DWORD PTR [esi+544], 1
  00298	e8 00 00 00 00	 call	 ?ResetAll@TMonsterAIAgro@@QAEXXZ ; TMonsterAIAgro::ResetAll

; 700  : 	gObjViewportListCreate(lpTargetObj->m_Index);

  0029d	0f b7 06	 movzx	 eax, WORD PTR [esi]
  002a0	50		 push	 eax
  002a1	e8 00 00 00 00	 call	 ?gObjViewportListCreate@@YAXF@Z ; gObjViewportListCreate
  002a6	83 c4 04	 add	 esp, 4
$LN9@ApplyEleme@8:

; 619  : 		 return FALSE;

  002a9	5f		 pop	 edi
  002aa	5e		 pop	 esi
  002ab	33 c0		 xor	 eax, eax
  002ad	5b		 pop	 ebx

; 701  : 
; 702  : 	return FALSE;
; 703  : }

  002ae	8b e5		 mov	 esp, ebp
  002b0	5d		 pop	 ebp
  002b1	c2 08 00	 ret	 8
?ApplyElementSummon@TMonsterSkillElement@@QAEHHH@Z ENDP	; TMonsterSkillElement::ApplyElementSummon
_TEXT	ENDS
PUBLIC	?ApplyElementPush@TMonsterSkillElement@@QAEHHH@Z ; TMonsterSkillElement::ApplyElementPush
EXTRN	?gObjAddMsgSendDelay@@YAXPAUOBJECTSTRUCT@@HHHH@Z:PROC ; gObjAddMsgSendDelay
EXTRN	?gObjBackSpring2@@YAHPAUOBJECTSTRUCT@@0H@Z:PROC	; gObjBackSpring2
; Function compile flags: /Ogtp
;	COMDAT ?ApplyElementPush@TMonsterSkillElement@@QAEHHH@Z
_TEXT	SEGMENT
_iIndex$ = 8						; size = 4
_iTargetIndex$ = 12					; size = 4
?ApplyElementPush@TMonsterSkillElement@@QAEHHH@Z PROC	; TMonsterSkillElement::ApplyElementPush, COMDAT
; _this$ = ecx

; 706  : {

  00000	55		 push	 ebp
  00001	8b ec		 mov	 ebp, esp
  00003	53		 push	 ebx

; 707  : 	LPOBJ lpObj = &gObj[iIndex];
; 708  : 	LPOBJ lpTargetObj = &gObj[iTargetIndex];

  00004	8b 5d 0c	 mov	 ebx, DWORD PTR _iTargetIndex$[ebp]
  00007	56		 push	 esi
  00008	8b 35 00 00 00
	00		 mov	 esi, DWORD PTR ?gObj@@3PAUOBJECTSTRUCT@@A ; gObj
  0000e	57		 push	 edi
  0000f	8b 7d 08	 mov	 edi, DWORD PTR _iIndex$[ebp]
  00012	8b c7		 mov	 eax, edi
  00014	8b d3		 mov	 edx, ebx
  00016	69 c0 50 2b 00
	00		 imul	 eax, 11088		; 00002b50H
  0001c	69 d2 50 2b 00
	00		 imul	 edx, 11088		; 00002b50H
  00022	03 c6		 add	 eax, esi
  00024	03 d6		 add	 edx, esi

; 709  : 	
; 710  : 	if ( lpObj->Class == 459 && lpObj->Connected == PLAYER_PLAYING && lpObj->MapNumber == MAP_INDEX_RAKLION_BOSS && iIndex == iTargetIndex )//Season 4.5 addon

  00026	be cb 01 00 00	 mov	 esi, 459		; 000001cbH
  0002b	66 39 b0 b8 00
	00 00		 cmp	 WORD PTR [eax+184], si
  00032	75 13		 jne	 SHORT $LN8@ApplyEleme@9
  00034	83 78 04 03	 cmp	 DWORD PTR [eax+4], 3
  00038	75 0d		 jne	 SHORT $LN8@ApplyEleme@9
  0003a	80 b8 49 01 00
	00 3a		 cmp	 BYTE PTR [eax+329], 58	; 0000003aH
  00041	75 04		 jne	 SHORT $LN8@ApplyEleme@9
  00043	3b fb		 cmp	 edi, ebx

; 711  : 	{
; 712  : 		return FALSE;

  00045	74 49		 je	 SHORT $LN1@ApplyEleme@9
$LN8@ApplyEleme@9:

; 713  : 	}
; 714  : 
; 715  : 	if ( this->m_iNullifiedSkill == -1 )

  00047	83 79 30 ff	 cmp	 DWORD PTR [ecx+48], -1
  0004b	75 07		 jne	 SHORT $LN4@ApplyEleme@9

; 716  : 		this->m_iNullifiedSkill = 0;

  0004d	c7 41 30 00 00
	00 00		 mov	 DWORD PTR [ecx+48], 0
$LN4@ApplyEleme@9:

; 717  : 
; 718  : 	if ( this->m_iIncAndDecValue < 1 )

  00054	83 79 2c 01	 cmp	 DWORD PTR [ecx+44], 1
  00058	7d 07		 jge	 SHORT $LN3@ApplyEleme@9

; 719  : 		this->m_iIncAndDecValue = 3;

  0005a	c7 41 2c 03 00
	00 00		 mov	 DWORD PTR [ecx+44], 3
$LN3@ApplyEleme@9:

; 720  : 
; 721  : 	if ( this->m_iNullifiedSkill == 0 )

  00061	8b 71 30	 mov	 esi, DWORD PTR [ecx+48]
  00064	85 f6		 test	 esi, esi
  00066	75 17		 jne	 SHORT $LN2@ApplyEleme@9

; 722  : 	{
; 723  : 		gObjBackSpring2(lpTargetObj, lpObj,this->m_iIncAndDecValue);

  00068	8b 49 2c	 mov	 ecx, DWORD PTR [ecx+44]
  0006b	51		 push	 ecx
  0006c	50		 push	 eax
  0006d	52		 push	 edx
  0006e	e8 00 00 00 00	 call	 ?gObjBackSpring2@@YAHPAUOBJECTSTRUCT@@0H@Z ; gObjBackSpring2
  00073	83 c4 0c	 add	 esp, 12			; 0000000cH
  00076	5f		 pop	 edi
  00077	5e		 pop	 esi

; 728  : 	}
; 729  : 
; 730  : 	return FALSE;

  00078	33 c0		 xor	 eax, eax
  0007a	5b		 pop	 ebx

; 731  : }

  0007b	5d		 pop	 ebp
  0007c	c2 08 00	 ret	 8
$LN2@ApplyEleme@9:

; 724  : 	}
; 725  : 	else
; 726  : 	{
; 727  : 		gObjAddMsgSendDelay(lpObj, 57, iTargetIndex, this->m_iNullifiedSkill, this->m_iIncAndDecValue);

  0007f	8b 51 2c	 mov	 edx, DWORD PTR [ecx+44]
  00082	52		 push	 edx
  00083	56		 push	 esi
  00084	53		 push	 ebx
  00085	6a 39		 push	 57			; 00000039H
  00087	50		 push	 eax
  00088	e8 00 00 00 00	 call	 ?gObjAddMsgSendDelay@@YAXPAUOBJECTSTRUCT@@HHHH@Z ; gObjAddMsgSendDelay
  0008d	83 c4 14	 add	 esp, 20			; 00000014H
$LN1@ApplyEleme@9:

; 728  : 	}
; 729  : 
; 730  : 	return FALSE;

  00090	5f		 pop	 edi
  00091	5e		 pop	 esi
  00092	33 c0		 xor	 eax, eax
  00094	5b		 pop	 ebx

; 731  : }

  00095	5d		 pop	 ebp
  00096	c2 08 00	 ret	 8
?ApplyElementPush@TMonsterSkillElement@@QAEHHH@Z ENDP	; TMonsterSkillElement::ApplyElementPush
_TEXT	ENDS
PUBLIC	?ApplyElementStatEnergy@TMonsterSkillElement@@QAEHHH@Z ; TMonsterSkillElement::ApplyElementStatEnergy
; Function compile flags: /Ogtp
;	COMDAT ?ApplyElementStatEnergy@TMonsterSkillElement@@QAEHHH@Z
_TEXT	SEGMENT
_iIndex$ = 8						; size = 4
_iTargetIndex$ = 12					; size = 4
?ApplyElementStatEnergy@TMonsterSkillElement@@QAEHHH@Z PROC ; TMonsterSkillElement::ApplyElementStatEnergy, COMDAT
; _this$ = ecx

; 735  : 	LPOBJ lpObj = &gObj[iIndex];
; 736  : 	LPOBJ lpTargetObj = &gObj[iTargetIndex];
; 737  : 
; 738  : 	return FALSE;

  00000	33 c0		 xor	 eax, eax

; 739  : }

  00002	c2 08 00	 ret	 8
?ApplyElementStatEnergy@TMonsterSkillElement@@QAEHHH@Z ENDP ; TMonsterSkillElement::ApplyElementStatEnergy
_TEXT	ENDS
PUBLIC	?ApplyElementStatStrength@TMonsterSkillElement@@QAEHHH@Z ; TMonsterSkillElement::ApplyElementStatStrength
; Function compile flags: /Ogtp
;	COMDAT ?ApplyElementStatStrength@TMonsterSkillElement@@QAEHHH@Z
_TEXT	SEGMENT
_iIndex$ = 8						; size = 4
_iTargetIndex$ = 12					; size = 4
?ApplyElementStatStrength@TMonsterSkillElement@@QAEHHH@Z PROC ; TMonsterSkillElement::ApplyElementStatStrength, COMDAT
; _this$ = ecx

; 743  : 	LPOBJ lpObj = &gObj[iIndex];
; 744  : 	LPOBJ lpTargetObj = &gObj[iTargetIndex];
; 745  : 
; 746  : 	return FALSE;

  00000	33 c0		 xor	 eax, eax

; 747  : }

  00002	c2 08 00	 ret	 8
?ApplyElementStatStrength@TMonsterSkillElement@@QAEHHH@Z ENDP ; TMonsterSkillElement::ApplyElementStatStrength
_TEXT	ENDS
PUBLIC	?ApplyElementStatDexiterity@TMonsterSkillElement@@QAEHHH@Z ; TMonsterSkillElement::ApplyElementStatDexiterity
; Function compile flags: /Ogtp
;	COMDAT ?ApplyElementStatDexiterity@TMonsterSkillElement@@QAEHHH@Z
_TEXT	SEGMENT
_iIndex$ = 8						; size = 4
_iTargetIndex$ = 12					; size = 4
?ApplyElementStatDexiterity@TMonsterSkillElement@@QAEHHH@Z PROC ; TMonsterSkillElement::ApplyElementStatDexiterity, COMDAT
; _this$ = ecx

; 751  : 	LPOBJ lpObj = &gObj[iIndex];
; 752  : 	LPOBJ lpTargetObj = &gObj[iTargetIndex];
; 753  : 
; 754  : 	return FALSE;

  00000	33 c0		 xor	 eax, eax

; 755  : }

  00002	c2 08 00	 ret	 8
?ApplyElementStatDexiterity@TMonsterSkillElement@@QAEHHH@Z ENDP ; TMonsterSkillElement::ApplyElementStatDexiterity
_TEXT	ENDS
PUBLIC	?ApplyElementStatVitality@TMonsterSkillElement@@QAEHHH@Z ; TMonsterSkillElement::ApplyElementStatVitality
; Function compile flags: /Ogtp
;	COMDAT ?ApplyElementStatVitality@TMonsterSkillElement@@QAEHHH@Z
_TEXT	SEGMENT
_iIndex$ = 8						; size = 4
_iTargetIndex$ = 12					; size = 4
?ApplyElementStatVitality@TMonsterSkillElement@@QAEHHH@Z PROC ; TMonsterSkillElement::ApplyElementStatVitality, COMDAT
; _this$ = ecx

; 759  : 	LPOBJ lpObj = &gObj[iIndex];
; 760  : 	LPOBJ lpTargetObj = &gObj[iTargetIndex];
; 761  : 
; 762  : 	return FALSE;

  00000	33 c0		 xor	 eax, eax

; 763  : }

  00002	c2 08 00	 ret	 8
?ApplyElementStatVitality@TMonsterSkillElement@@QAEHHH@Z ENDP ; TMonsterSkillElement::ApplyElementStatVitality
_TEXT	ENDS
PUBLIC	?ApplyElementRemoveSkill@TMonsterSkillElement@@QAEHHH@Z ; TMonsterSkillElement::ApplyElementRemoveSkill
EXTRN	?RemoveSpecificSkillState@CObjUseSkill@@QAEHPAUOBJECTSTRUCT@@H@Z:PROC ; CObjUseSkill::RemoveSpecificSkillState
EXTRN	?gObjUseSkill@@3VCObjUseSkill@@A:DWORD		; gObjUseSkill
; Function compile flags: /Ogtp
;	COMDAT ?ApplyElementRemoveSkill@TMonsterSkillElement@@QAEHHH@Z
_TEXT	SEGMENT
_iIndex$ = 8						; size = 4
_iTargetIndex$ = 12					; size = 4
?ApplyElementRemoveSkill@TMonsterSkillElement@@QAEHHH@Z PROC ; TMonsterSkillElement::ApplyElementRemoveSkill, COMDAT
; _this$ = ecx

; 766  : {

  00000	55		 push	 ebp
  00001	8b ec		 mov	 ebp, esp

; 767  : 	LPOBJ lpObj = &gObj[iIndex];
; 768  : 	LPOBJ lpTargetObj = &gObj[iTargetIndex];
; 769  : 
; 770  : 	gObjUseSkill.RemoveSpecificSkillState(lpTargetObj, this->m_iNullifiedSkill);

  00003	8b 41 30	 mov	 eax, DWORD PTR [ecx+48]
  00006	8b 4d 0c	 mov	 ecx, DWORD PTR _iTargetIndex$[ebp]
  00009	69 c9 50 2b 00
	00		 imul	 ecx, 11088		; 00002b50H
  0000f	03 0d 00 00 00
	00		 add	 ecx, DWORD PTR ?gObj@@3PAUOBJECTSTRUCT@@A ; gObj
  00015	50		 push	 eax
  00016	51		 push	 ecx
  00017	b9 00 00 00 00	 mov	 ecx, OFFSET ?gObjUseSkill@@3VCObjUseSkill@@A ; gObjUseSkill
  0001c	e8 00 00 00 00	 call	 ?RemoveSpecificSkillState@CObjUseSkill@@QAEHPAUOBJECTSTRUCT@@H@Z ; CObjUseSkill::RemoveSpecificSkillState

; 771  : 
; 772  : 	return FALSE;

  00021	33 c0		 xor	 eax, eax

; 773  : }

  00023	5d		 pop	 ebp
  00024	c2 08 00	 ret	 8
?ApplyElementRemoveSkill@TMonsterSkillElement@@QAEHHH@Z ENDP ; TMonsterSkillElement::ApplyElementRemoveSkill
_TEXT	ENDS
PUBLIC	?ApplyElementResistSkill@TMonsterSkillElement@@QAEHHH@Z ; TMonsterSkillElement::ApplyElementResistSkill
; Function compile flags: /Ogtp
;	COMDAT ?ApplyElementResistSkill@TMonsterSkillElement@@QAEHHH@Z
_TEXT	SEGMENT
_iIndex$ = 8						; size = 4
_iTargetIndex$ = 12					; size = 4
?ApplyElementResistSkill@TMonsterSkillElement@@QAEHHH@Z PROC ; TMonsterSkillElement::ApplyElementResistSkill, COMDAT
; _this$ = ecx

; 776  : {

  00000	55		 push	 ebp
  00001	8b ec		 mov	 ebp, esp

; 777  : 	LPOBJ lpObj = &gObj[iIndex];
; 778  : 	LPOBJ lpTargetObj = &gObj[iTargetIndex];

  00003	8b 45 0c	 mov	 eax, DWORD PTR _iTargetIndex$[ebp]

; 779  : 
; 780  : 	lpTargetObj->m_MonsterSkillElementInfo.m_iSkillElementResistNumber = this->m_iNullifiedSkill;

  00006	8b 51 30	 mov	 edx, DWORD PTR [ecx+48]
  00009	69 c0 50 2b 00
	00		 imul	 eax, 11088		; 00002b50H
  0000f	03 05 00 00 00
	00		 add	 eax, DWORD PTR ?gObj@@3PAUOBJECTSTRUCT@@A ; gObj
  00015	89 90 5c 1c 00
	00		 mov	 DWORD PTR [eax+7260], edx

; 781  : 	lpTargetObj->m_MonsterSkillElementInfo.m_iSkillElementResistTime = this->m_iContinuanceTime;

  0001b	8b 49 24	 mov	 ecx, DWORD PTR [ecx+36]
  0001e	89 88 60 1c 00
	00		 mov	 DWORD PTR [eax+7264], ecx

; 782  : 
; 783  : 	return FALSE;

  00024	33 c0		 xor	 eax, eax

; 784  : }

  00026	5d		 pop	 ebp
  00027	c2 08 00	 ret	 8
?ApplyElementResistSkill@TMonsterSkillElement@@QAEHHH@Z ENDP ; TMonsterSkillElement::ApplyElementResistSkill
_TEXT	ENDS
PUBLIC	?ApplyElementImmuneSkill@TMonsterSkillElement@@QAEHHH@Z ; TMonsterSkillElement::ApplyElementImmuneSkill
; Function compile flags: /Ogtp
;	COMDAT ?ApplyElementImmuneSkill@TMonsterSkillElement@@QAEHHH@Z
_TEXT	SEGMENT
_iIndex$ = 8						; size = 4
_iTargetIndex$ = 12					; size = 4
?ApplyElementImmuneSkill@TMonsterSkillElement@@QAEHHH@Z PROC ; TMonsterSkillElement::ApplyElementImmuneSkill, COMDAT
; _this$ = ecx

; 787  : {

  00000	55		 push	 ebp
  00001	8b ec		 mov	 ebp, esp

; 788  : 	LPOBJ lpObj = &gObj[iIndex];
; 789  : 	LPOBJ lpTargetObj = &gObj[iTargetIndex];
; 790  : 
; 791  : 	lpTargetObj->m_MonsterSkillElementInfo.m_iSkillElementImmuneNumber = this->m_iNullifiedSkill;

  00003	8b 41 30	 mov	 eax, DWORD PTR [ecx+48]
  00006	56		 push	 esi
  00007	8b 75 0c	 mov	 esi, DWORD PTR _iTargetIndex$[ebp]
  0000a	69 f6 50 2b 00
	00		 imul	 esi, 11088		; 00002b50H
  00010	03 35 00 00 00
	00		 add	 esi, DWORD PTR ?gObj@@3PAUOBJECTSTRUCT@@A ; gObj
  00016	89 86 54 1c 00
	00		 mov	 DWORD PTR [esi+7252], eax

; 792  : 	lpTargetObj->m_MonsterSkillElementInfo.m_iSkillElementImmuneTime = this->m_iContinuanceTime;

  0001c	8b 51 24	 mov	 edx, DWORD PTR [ecx+36]
  0001f	89 96 58 1c 00
	00		 mov	 DWORD PTR [esi+7256], edx

; 793  : 
; 794  : 	int SkillImmune = 0;
; 795  : 
; 796  : 	if(this->m_iContinuanceTime == -1)

  00025	83 79 24 ff	 cmp	 DWORD PTR [ecx+36], -1
  00029	75 07		 jne	 SHORT $LN2@ApplyEleme@10

; 797  : 	{
; 798  : 		SkillImmune = -10;

  0002b	b8 f6 ff ff ff	 mov	 eax, -10		; fffffff6H

; 799  : 	}
; 800  : 	else

  00030	eb 14		 jmp	 SHORT $LN1@ApplyEleme@10
$LN2@ApplyEleme@10:

; 801  : 	{
; 802  : 		SkillImmune = this->m_iContinuanceTime / 1000;

  00032	8b 49 24	 mov	 ecx, DWORD PTR [ecx+36]
  00035	b8 d3 4d 62 10	 mov	 eax, 274877907		; 10624dd3H
  0003a	f7 e9		 imul	 ecx
  0003c	c1 fa 06	 sar	 edx, 6
  0003f	8b c2		 mov	 eax, edx
  00041	c1 e8 1f	 shr	 eax, 31			; 0000001fH
  00044	03 c2		 add	 eax, edx
$LN1@ApplyEleme@10:

; 803  : 	}
; 804  : 
; 805  : 	gObjApplyBuffEffectDuration(lpTargetObj, AT_IMMUNE_MAGIC, 0, 0, 0, 0, SkillImmune);

  00046	50		 push	 eax
  00047	6a 00		 push	 0
  00049	6a 00		 push	 0
  0004b	6a 00		 push	 0
  0004d	6a 00		 push	 0
  0004f	6a 3f		 push	 63			; 0000003fH
  00051	56		 push	 esi
  00052	e8 00 00 00 00	 call	 ?gObjApplyBuffEffectDuration@@YAEPAUOBJECTSTRUCT@@HEHEHH@Z ; gObjApplyBuffEffectDuration
  00057	83 c4 1c	 add	 esp, 28			; 0000001cH

; 806  : 	return FALSE;

  0005a	33 c0		 xor	 eax, eax
  0005c	5e		 pop	 esi

; 807  : }

  0005d	5d		 pop	 ebp
  0005e	c2 08 00	 ret	 8
?ApplyElementImmuneSkill@TMonsterSkillElement@@QAEHHH@Z ENDP ; TMonsterSkillElement::ApplyElementImmuneSkill
_TEXT	ENDS
PUBLIC	??_C@_0BN@GBOPBGFB@?$FL?$CFs?$FN?5Warp?5?$FL?$CFd?0?$CFd?$FN?5?9?$DO?5?$FL?$CFd?0?$CFd?$FN?$AA@ ; `string'
PUBLIC	??_C@_0CM@PIOKLDC@?$FL?$CFs?$FN?$FL?$CFs?$FN?5Try?5Teleport?5Not?5Move?5A@ ; `string'
PUBLIC	_iIndex$GSCopy$
PUBLIC	__$ArrayPad$
PUBLIC	?ApplyElementTeleportSkill@TMonsterSkillElement@@QAEHHH@Z ; TMonsterSkillElement::ApplyElementTeleportSkill
EXTRN	?gObjTeleportMagicUse@@YAXHEE@Z:PROC		; gObjTeleportMagicUse
EXTRN	?MsgSendV2@@YAXPAUOBJECTSTRUCT@@PAEH@Z:PROC	; MsgSendV2
EXTRN	?DataSend@@YAHHPAEK@Z:PROC			; DataSend
EXTRN	?PHeadSetBE@@YAXPAEEH@Z:PROC			; PHeadSetBE
EXTRN	?LogAddC@@3P6AXEPADZZA:DWORD			; LogAddC
EXTRN	?gObjCheckTeleportArea@@YAHHEE@Z:PROC		; gObjCheckTeleportArea
EXTRN	?gObjSearchActiveEffect@@YAEPAUOBJECTSTRUCT@@H@Z:PROC ; gObjSearchActiveEffect
;	COMDAT ??_C@_0BN@GBOPBGFB@?$FL?$CFs?$FN?5Warp?5?$FL?$CFd?0?$CFd?$FN?5?9?$DO?5?$FL?$CFd?0?$CFd?$FN?$AA@
CONST	SEGMENT
??_C@_0BN@GBOPBGFB@?$FL?$CFs?$FN?5Warp?5?$FL?$CFd?0?$CFd?$FN?5?9?$DO?5?$FL?$CFd?0?$CFd?$FN?$AA@ DB '['
	DB	'%s] Warp [%d,%d] -> [%d,%d]', 00H		; `string'
CONST	ENDS
;	COMDAT ??_C@_0CM@PIOKLDC@?$FL?$CFs?$FN?$FL?$CFs?$FN?5Try?5Teleport?5Not?5Move?5A@
CONST	SEGMENT
??_C@_0CM@PIOKLDC@?$FL?$CFs?$FN?$FL?$CFs?$FN?5Try?5Teleport?5Not?5Move?5A@ DB '['
	DB	'%s][%s] Try Teleport Not Move Area [%d,%d]', 00H ; `string'
; Function compile flags: /Ogtp
CONST	ENDS
;	COMDAT ?ApplyElementTeleportSkill@TMonsterSkillElement@@QAEHHH@Z
_TEXT	SEGMENT
_iIndex$GSCopy$ = -28					; size = 4
_y$ = -24						; size = 1
_x$ = -20						; size = 1
_pAttack$ = -16						; size = 9
__$ArrayPad$ = -4					; size = 4
_iIndex$ = 8						; size = 4
_iTargetIndex$ = 12					; size = 4
?ApplyElementTeleportSkill@TMonsterSkillElement@@QAEHHH@Z PROC ; TMonsterSkillElement::ApplyElementTeleportSkill, COMDAT
; _this$ = ecx

; 810  : {

  00000	55		 push	 ebp
  00001	8b ec		 mov	 ebp, esp
  00003	83 ec 1c	 sub	 esp, 28			; 0000001cH
  00006	a1 00 00 00 00	 mov	 eax, DWORD PTR ___security_cookie
  0000b	33 c5		 xor	 eax, ebp
  0000d	89 45 fc	 mov	 DWORD PTR __$ArrayPad$[ebp], eax
  00010	56		 push	 esi
  00011	8b 75 08	 mov	 esi, DWORD PTR _iIndex$[ebp]

; 838  : 		y = lpObj->Y - depth;

  00014	89 75 e4	 mov	 DWORD PTR _iIndex$GSCopy$[ebp], esi
  00017	85 f6		 test	 esi, esi
  00019	0f 88 86 01 00
	00		 js	 $LN14@ApplyEleme@11

; 811  : 	if ( !OBJMAX_RANGE(iIndex))

  0001f	33 c0		 xor	 eax, eax
  00021	81 fe 97 3a 00
	00		 cmp	 esi, 14999		; 00003a97H
  00027	0f 9e c0	 setle	 al
  0002a	85 c0		 test	 eax, eax

; 812  : 		return FALSE;

  0002c	0f 84 73 01 00
	00		 je	 $LN14@ApplyEleme@11

; 813  : 
; 814  : 	if(gObjSearchActiveEffect(&gObj[iIndex], AT_STUN) == 1)

  00032	a1 00 00 00 00	 mov	 eax, DWORD PTR ?gObj@@3PAUOBJECTSTRUCT@@A ; gObj
  00037	69 f6 50 2b 00
	00		 imul	 esi, 11088		; 00002b50H
  0003d	8d 0c 06	 lea	 ecx, DWORD PTR [esi+eax]
  00040	6a 3d		 push	 61			; 0000003dH
  00042	51		 push	 ecx
  00043	e8 00 00 00 00	 call	 ?gObjSearchActiveEffect@@YAEPAUOBJECTSTRUCT@@H@Z ; gObjSearchActiveEffect
  00048	83 c4 08	 add	 esp, 8
  0004b	3c 01		 cmp	 al, 1

; 815  : 	{
; 816  : 		return FALSE;

  0004d	0f 84 52 01 00
	00		 je	 $LN14@ApplyEleme@11

; 817  : 	}
; 818  : 
; 819  : 	if(gObjSearchActiveEffect(&gObj[iIndex], AT_SLEEP) == 1)

  00053	8b 15 00 00 00
	00		 mov	 edx, DWORD PTR ?gObj@@3PAUOBJECTSTRUCT@@A ; gObj
  00059	8d 04 16	 lea	 eax, DWORD PTR [esi+edx]
  0005c	6a 48		 push	 72			; 00000048H
  0005e	50		 push	 eax
  0005f	e8 00 00 00 00	 call	 ?gObjSearchActiveEffect@@YAEPAUOBJECTSTRUCT@@H@Z ; gObjSearchActiveEffect
  00064	83 c4 08	 add	 esp, 8
  00067	3c 01		 cmp	 al, 1

; 820  : 	{
; 821  : 		return FALSE;

  00069	0f 84 36 01 00
	00		 je	 $LN14@ApplyEleme@11

; 822  : 	}
; 823  : 
; 824  : 	LPOBJ lpObj = &gObj[iIndex];

  0006f	03 35 00 00 00
	00		 add	 esi, DWORD PTR ?gObj@@3PAUOBJECTSTRUCT@@A ; gObj
  00075	53		 push	 ebx

; 825  : 	BYTE x;
; 826  : 	BYTE y;
; 827  : 	int depth = rand()%4 + 3;

  00076	e8 00 00 00 00	 call	 _rand
  0007b	8b d8		 mov	 ebx, eax
  0007d	81 e3 03 00 00
	80		 and	 ebx, -2147483645	; 80000003H
  00083	79 05		 jns	 SHORT $LN17@ApplyEleme@11
  00085	4b		 dec	 ebx
  00086	83 cb fc	 or	 ebx, -4			; fffffffcH
  00089	43		 inc	 ebx
$LN17@ApplyEleme@11:
  0008a	83 c3 03	 add	 ebx, 3

; 828  : 	PMSG_MAGICATTACK_RESULT pAttack;
; 829  : 
; 830  : 	if ( (rand()%2) == 0 )

  0008d	e8 00 00 00 00	 call	 _rand
  00092	25 01 00 00 80	 and	 eax, -2147483647	; 80000001H
  00097	79 05		 jns	 SHORT $LN18@ApplyEleme@11
  00099	48		 dec	 eax
  0009a	83 c8 fe	 or	 eax, -2			; fffffffeH
  0009d	40		 inc	 eax
$LN18@ApplyEleme@11:

; 831  : 		x = lpObj->X + depth;

  0009e	8a 86 44 01 00
	00		 mov	 al, BYTE PTR [esi+324]

; 828  : 	PMSG_MAGICATTACK_RESULT pAttack;
; 829  : 
; 830  : 	if ( (rand()%2) == 0 )

  000a4	75 04		 jne	 SHORT $LN6@ApplyEleme@11

; 831  : 		x = lpObj->X + depth;

  000a6	02 c3		 add	 al, bl

; 832  : 	else

  000a8	eb 02		 jmp	 SHORT $LN20@ApplyEleme@11
$LN6@ApplyEleme@11:

; 833  : 		x = lpObj->X - depth;

  000aa	2a c3		 sub	 al, bl
$LN20@ApplyEleme@11:
  000ac	88 45 ec	 mov	 BYTE PTR _x$[ebp], al

; 834  : 
; 835  : 	if ( (rand()%2) == 0 )

  000af	e8 00 00 00 00	 call	 _rand
  000b4	25 01 00 00 80	 and	 eax, -2147483647	; 80000001H
  000b9	79 05		 jns	 SHORT $LN19@ApplyEleme@11
  000bb	48		 dec	 eax
  000bc	83 c8 fe	 or	 eax, -2			; fffffffeH
  000bf	40		 inc	 eax
$LN19@ApplyEleme@11:

; 836  : 		y = lpObj->Y + depth;

  000c0	8a 86 46 01 00
	00		 mov	 al, BYTE PTR [esi+326]

; 834  : 
; 835  : 	if ( (rand()%2) == 0 )

  000c6	75 04		 jne	 SHORT $LN4@ApplyEleme@11

; 836  : 		y = lpObj->Y + depth;

  000c8	02 c3		 add	 al, bl

; 837  : 	else

  000ca	eb 02		 jmp	 SHORT $LN21@ApplyEleme@11
$LN4@ApplyEleme@11:

; 838  : 		y = lpObj->Y - depth;

  000cc	2a c3		 sub	 al, bl
$LN21@ApplyEleme@11:

; 839  : 
; 840  : 	if ( gObjCheckTeleportArea(iIndex, x, y) == FALSE )

  000ce	8b 55 ec	 mov	 edx, DWORD PTR _x$[ebp]
  000d1	8b 5d e4	 mov	 ebx, DWORD PTR _iIndex$GSCopy$[ebp]
  000d4	57		 push	 edi
  000d5	88 45 e8	 mov	 BYTE PTR _y$[ebp], al
  000d8	8b 7d e8	 mov	 edi, DWORD PTR _y$[ebp]
  000db	57		 push	 edi
  000dc	52		 push	 edx
  000dd	53		 push	 ebx
  000de	e8 00 00 00 00	 call	 ?gObjCheckTeleportArea@@YAHHEE@Z ; gObjCheckTeleportArea
  000e3	83 c4 0c	 add	 esp, 12			; 0000000cH
  000e6	85 c0		 test	 eax, eax
  000e8	75 27		 jne	 SHORT $LN2@ApplyEleme@11

; 841  : 	{
; 842  : 		LogAddC(2, "[%s][%s] Try Teleport Not Move Area [%d,%d]",
; 843  : 			lpObj->AccountID, lpObj->Name,	x, y);

  000ea	0f b6 45 e8	 movzx	 eax, BYTE PTR _y$[ebp]
  000ee	0f b6 4d ec	 movzx	 ecx, BYTE PTR _x$[ebp]
  000f2	50		 push	 eax
  000f3	51		 push	 ecx
  000f4	8d 56 77	 lea	 edx, DWORD PTR [esi+119]
  000f7	52		 push	 edx
  000f8	83 c6 6c	 add	 esi, 108		; 0000006cH
  000fb	56		 push	 esi
  000fc	68 00 00 00 00	 push	 OFFSET ??_C@_0CM@PIOKLDC@?$FL?$CFs?$FN?$FL?$CFs?$FN?5Try?5Teleport?5Not?5Move?5A@
  00101	6a 02		 push	 2
  00103	ff 15 00 00 00
	00		 call	 DWORD PTR ?LogAddC@@3P6AXEPADZZA ; LogAddC
  00109	83 c4 18	 add	 esp, 24			; 00000018H

; 844  : 		
; 845  : 		return FALSE;

  0010c	e9 92 00 00 00	 jmp	 $LN22@ApplyEleme@11
$LN2@ApplyEleme@11:

; 846  : 	}
; 847  : 
; 848  : 	PHeadSetBE((LPBYTE)&pAttack, 0x19, sizeof(pAttack));

  00111	6a 09		 push	 9
  00113	8d 45 f0	 lea	 eax, DWORD PTR _pAttack$[ebp]
  00116	6a 19		 push	 25			; 00000019H
  00118	50		 push	 eax
  00119	e8 00 00 00 00	 call	 ?PHeadSetBE@@YAXPAEEH@Z	; PHeadSetBE

; 849  : 	pAttack.MagicNumberH = SET_NUMBERH(6);
; 850  : 	pAttack.MagicNumberL = SET_NUMBERL(6);
; 851  : 	pAttack.SourceNumberH = SET_NUMBERH(iIndex);

  0011e	8b c3		 mov	 eax, ebx
  00120	c1 e8 08	 shr	 eax, 8
  00123	83 c4 0c	 add	 esp, 12			; 0000000cH
  00126	66 c7 45 f3 00
	06		 mov	 WORD PTR _pAttack$[ebp+3], 1536 ; 00000600H
  0012c	88 45 f5	 mov	 BYTE PTR _pAttack$[ebp+5], al

; 852  : 	pAttack.SourceNumberL = SET_NUMBERL(iIndex);

  0012f	88 5d f6	 mov	 BYTE PTR _pAttack$[ebp+6], bl

; 853  : 	pAttack.TargetNumberH = SET_NUMBERH(iIndex);

  00132	88 45 f7	 mov	 BYTE PTR _pAttack$[ebp+7], al

; 854  : 	pAttack.TargetNumberL = SET_NUMBERL(iIndex);

  00135	88 5d f8	 mov	 BYTE PTR _pAttack$[ebp+8], bl

; 855  : 
; 856  : 	if ( lpObj->Type == OBJ_USER )

  00138	66 83 7e 68 01	 cmp	 WORD PTR [esi+104], 1
  0013d	75 12		 jne	 SHORT $LN1@ApplyEleme@11

; 857  : 		DataSend(iIndex, (LPBYTE)&pAttack, pAttack.h.size);	

  0013f	0f b6 4d f1	 movzx	 ecx, BYTE PTR _pAttack$[ebp+1]
  00143	51		 push	 ecx
  00144	8d 55 f0	 lea	 edx, DWORD PTR _pAttack$[ebp]
  00147	52		 push	 edx
  00148	53		 push	 ebx
  00149	e8 00 00 00 00	 call	 ?DataSend@@YAHHPAEK@Z	; DataSend
  0014e	83 c4 0c	 add	 esp, 12			; 0000000cH
$LN1@ApplyEleme@11:

; 858  : 
; 859  : 	MsgSendV2(lpObj, (LPBYTE)&pAttack, pAttack.h.size);	

  00151	0f b6 45 f1	 movzx	 eax, BYTE PTR _pAttack$[ebp+1]
  00155	50		 push	 eax
  00156	8d 4d f0	 lea	 ecx, DWORD PTR _pAttack$[ebp]
  00159	51		 push	 ecx
  0015a	56		 push	 esi
  0015b	e8 00 00 00 00	 call	 ?MsgSendV2@@YAXPAUOBJECTSTRUCT@@PAEH@Z ; MsgSendV2

; 860  : 
; 861  : 	LogAddC(2, "[%s] Warp [%d,%d] -> [%d,%d]",
; 862  : 		lpObj->Name, lpObj->X, lpObj->Y, x, y);

  00160	0f b6 55 e8	 movzx	 edx, BYTE PTR _y$[ebp]
  00164	0f b6 45 ec	 movzx	 eax, BYTE PTR _x$[ebp]
  00168	0f bf 8e 46 01
	00 00		 movsx	 ecx, WORD PTR [esi+326]
  0016f	52		 push	 edx
  00170	0f bf 96 44 01
	00 00		 movsx	 edx, WORD PTR [esi+324]
  00177	50		 push	 eax
  00178	51		 push	 ecx
  00179	52		 push	 edx
  0017a	8d 46 77	 lea	 eax, DWORD PTR [esi+119]
  0017d	50		 push	 eax
  0017e	68 00 00 00 00	 push	 OFFSET ??_C@_0BN@GBOPBGFB@?$FL?$CFs?$FN?5Warp?5?$FL?$CFd?0?$CFd?$FN?5?9?$DO?5?$FL?$CFd?0?$CFd?$FN?$AA@
  00183	6a 02		 push	 2
  00185	ff 15 00 00 00
	00		 call	 DWORD PTR ?LogAddC@@3P6AXEPADZZA ; LogAddC

; 863  : 
; 864  : 	gObjTeleportMagicUse(iIndex, x, y);

  0018b	8b 4d ec	 mov	 ecx, DWORD PTR _x$[ebp]
  0018e	57		 push	 edi
  0018f	51		 push	 ecx
  00190	53		 push	 ebx
  00191	e8 00 00 00 00	 call	 ?gObjTeleportMagicUse@@YAXHEE@Z ; gObjTeleportMagicUse
  00196	83 c4 34	 add	 esp, 52			; 00000034H

; 865  : 	lpObj->TargetNumber = -1;

  00199	83 ca ff	 or	 edx, -1
  0019c	66 89 96 58 04
	00 00		 mov	 WORD PTR [esi+1112], dx
$LN22@ApplyEleme@11:
  001a3	5f		 pop	 edi
  001a4	5b		 pop	 ebx
$LN14@ApplyEleme@11:

; 866  : 
; 867  : 	return FALSE;
; 868  : }

  001a5	8b 4d fc	 mov	 ecx, DWORD PTR __$ArrayPad$[ebp]
  001a8	33 cd		 xor	 ecx, ebp
  001aa	33 c0		 xor	 eax, eax
  001ac	5e		 pop	 esi
  001ad	e8 00 00 00 00	 call	 @__security_check_cookie@4
  001b2	8b e5		 mov	 esp, ebp
  001b4	5d		 pop	 ebp
  001b5	c2 08 00	 ret	 8
?ApplyElementTeleportSkill@TMonsterSkillElement@@QAEHHH@Z ENDP ; TMonsterSkillElement::ApplyElementTeleportSkill
_TEXT	ENDS
PUBLIC	?ApplyElementDoubleHP@TMonsterSkillElement@@QAEHHH@Z ; TMonsterSkillElement::ApplyElementDoubleHP
; Function compile flags: /Ogtp
;	COMDAT ?ApplyElementDoubleHP@TMonsterSkillElement@@QAEHHH@Z
_TEXT	SEGMENT
_iIndex$ = 8						; size = 4
_iTargetIndex$ = 12					; size = 4
?ApplyElementDoubleHP@TMonsterSkillElement@@QAEHHH@Z PROC ; TMonsterSkillElement::ApplyElementDoubleHP, COMDAT
; _this$ = ecx

; 871  : {

  00000	55		 push	 ebp
  00001	8b ec		 mov	 ebp, esp

; 872  : 	LPOBJ lpObj = &gObj[iIndex];

  00003	a1 00 00 00 00	 mov	 eax, DWORD PTR ?gObj@@3PAUOBJECTSTRUCT@@A ; gObj
  00008	56		 push	 esi
  00009	8b 75 08	 mov	 esi, DWORD PTR _iIndex$[ebp]
  0000c	57		 push	 edi
  0000d	69 f6 50 2b 00
	00		 imul	 esi, 11088		; 00002b50H

; 873  : 	LPOBJ lpTargetObj = &gObj[iTargetIndex];

  00013	8b 7d 0c	 mov	 edi, DWORD PTR _iTargetIndex$[ebp]
  00016	8b cf		 mov	 ecx, edi
  00018	69 c9 50 2b 00
	00		 imul	 ecx, 11088		; 00002b50H
  0001e	03 f0		 add	 esi, eax

; 874  : 
; 875  : 	if ( lpTargetObj->Connected < PLAYER_PLAYING )

  00020	83 7c 01 04 03	 cmp	 DWORD PTR [ecx+eax+4], 3

; 876  : 		return FALSE;

  00025	7c 23		 jl	 SHORT $LN4@ApplyEleme@12

; 877  : 
; 878  : 	gObjAddMsgSendDelay(lpObj, 55, iTargetIndex, 400, 0);

  00027	6a 00		 push	 0
  00029	68 90 01 00 00	 push	 400			; 00000190H
  0002e	57		 push	 edi
  0002f	6a 37		 push	 55			; 00000037H
  00031	56		 push	 esi
  00032	e8 00 00 00 00	 call	 ?gObjAddMsgSendDelay@@YAXPAUOBJECTSTRUCT@@HHHH@Z ; gObjAddMsgSendDelay

; 879  : 	gObjAddMsgSendDelay(lpObj, 55, iTargetIndex, 1000, 0);

  00037	6a 00		 push	 0
  00039	68 e8 03 00 00	 push	 1000			; 000003e8H
  0003e	57		 push	 edi
  0003f	6a 37		 push	 55			; 00000037H
  00041	56		 push	 esi
  00042	e8 00 00 00 00	 call	 ?gObjAddMsgSendDelay@@YAXPAUOBJECTSTRUCT@@HHHH@Z ; gObjAddMsgSendDelay
  00047	83 c4 28	 add	 esp, 40			; 00000028H
$LN4@ApplyEleme@12:

; 880  : 
; 881  : 	return FALSE;

  0004a	5f		 pop	 edi
  0004b	33 c0		 xor	 eax, eax
  0004d	5e		 pop	 esi

; 882  : }

  0004e	5d		 pop	 ebp
  0004f	c2 08 00	 ret	 8
?ApplyElementDoubleHP@TMonsterSkillElement@@QAEHHH@Z ENDP ; TMonsterSkillElement::ApplyElementDoubleHP
_TEXT	ENDS
PUBLIC	?ApplyElementPoison@TMonsterSkillElement@@QAEHHH@Z ; TMonsterSkillElement::ApplyElementPoison
EXTRN	?retResistance@@YAHPAUOBJECTSTRUCT@@H@Z:PROC	; retResistance
; Function compile flags: /Ogtp
;	COMDAT ?ApplyElementPoison@TMonsterSkillElement@@QAEHHH@Z
_TEXT	SEGMENT
_iIndex$ = 8						; size = 4
_iTargetIndex$ = 12					; size = 4
?ApplyElementPoison@TMonsterSkillElement@@QAEHHH@Z PROC	; TMonsterSkillElement::ApplyElementPoison, COMDAT
; _this$ = ecx

; 885  : {

  00000	55		 push	 ebp
  00001	8b ec		 mov	 ebp, esp

; 886  : 	LPOBJ lpObj = &gObj[iIndex];

  00003	a1 00 00 00 00	 mov	 eax, DWORD PTR ?gObj@@3PAUOBJECTSTRUCT@@A ; gObj
  00008	53		 push	 ebx
  00009	56		 push	 esi

; 887  : 	LPOBJ lpTargetObj = &gObj[iTargetIndex];

  0000a	8b 75 0c	 mov	 esi, DWORD PTR _iTargetIndex$[ebp]
  0000d	57		 push	 edi
  0000e	69 f6 50 2b 00
	00		 imul	 esi, 11088		; 00002b50H
  00014	8b 7d 08	 mov	 edi, DWORD PTR _iIndex$[ebp]
  00017	69 ff 50 2b 00
	00		 imul	 edi, 11088		; 00002b50H
  0001d	03 f0		 add	 esi, eax
  0001f	03 f8		 add	 edi, eax

; 888  : 
; 889  : 	if ( lpTargetObj->Connected < PLAYER_PLAYING )

  00021	83 7e 04 03	 cmp	 DWORD PTR [esi+4], 3
  00025	8b d9		 mov	 ebx, ecx

; 890  : 		return FALSE;

  00027	7c 60		 jl	 SHORT $LN1@ApplyEleme@13

; 891  : 
; 892  : 	if(gObjSearchActiveEffect(lpTargetObj, AT_POISON) == 0)

  00029	6a 37		 push	 55			; 00000037H
  0002b	56		 push	 esi
  0002c	e8 00 00 00 00	 call	 ?gObjSearchActiveEffect@@YAEPAUOBJECTSTRUCT@@H@Z ; gObjSearchActiveEffect
  00031	83 c4 08	 add	 esp, 8
  00034	84 c0		 test	 al, al
  00036	75 51		 jne	 SHORT $LN1@ApplyEleme@13

; 893  : 	{
; 894  : 		if ( this->m_iNullifiedSkill  < 1 )

  00038	8b 43 30	 mov	 eax, DWORD PTR [ebx+48]
  0003b	83 f8 01	 cmp	 eax, 1
  0003e	7d 35		 jge	 SHORT $LN3@ApplyEleme@13

; 895  : 		{
; 896  : 			if ( retResistance(lpTargetObj, 1) == 0 )

  00040	6a 01		 push	 1
  00042	56		 push	 esi
  00043	e8 00 00 00 00	 call	 ?retResistance@@YAHPAUOBJECTSTRUCT@@H@Z ; retResistance
  00048	83 c4 08	 add	 esp, 8
  0004b	85 c0		 test	 eax, eax
  0004d	75 3a		 jne	 SHORT $LN1@ApplyEleme@13

; 897  : 			{
; 898  : 				lpTargetObj->lpAttackObj = lpObj;

  0004f	89 be d4 03 00
	00		 mov	 DWORD PTR [esi+980], edi

; 899  : 				gObjApplyBuffEffectDuration(lpTargetObj, AT_POISON, 19, 3, 0, 0, this->m_iIncAndDecValue);

  00055	8b 43 2c	 mov	 eax, DWORD PTR [ebx+44]
  00058	50		 push	 eax
  00059	6a 00		 push	 0
  0005b	6a 00		 push	 0
  0005d	6a 03		 push	 3
  0005f	6a 13		 push	 19			; 00000013H
  00061	6a 37		 push	 55			; 00000037H
  00063	56		 push	 esi
  00064	e8 00 00 00 00	 call	 ?gObjApplyBuffEffectDuration@@YAEPAUOBJECTSTRUCT@@HEHEHH@Z ; gObjApplyBuffEffectDuration
  00069	83 c4 1c	 add	 esp, 28			; 0000001cH
  0006c	5f		 pop	 edi
  0006d	5e		 pop	 esi

; 905  : 		}
; 906  : 	}
; 907  : 
; 908  : 	return FALSE;

  0006e	33 c0		 xor	 eax, eax
  00070	5b		 pop	 ebx

; 909  : }

  00071	5d		 pop	 ebp
  00072	c2 08 00	 ret	 8
$LN3@ApplyEleme@13:

; 900  : 			}
; 901  : 		}
; 902  : 		else
; 903  : 		{
; 904  : 			gObjAddMsgSendDelay(lpObj, 56, iTargetIndex, this->m_iNullifiedSkill, this->m_iIncAndDecValue);

  00075	8b 4b 2c	 mov	 ecx, DWORD PTR [ebx+44]
  00078	8b 55 0c	 mov	 edx, DWORD PTR _iTargetIndex$[ebp]
  0007b	51		 push	 ecx
  0007c	50		 push	 eax
  0007d	52		 push	 edx
  0007e	6a 38		 push	 56			; 00000038H
  00080	57		 push	 edi
  00081	e8 00 00 00 00	 call	 ?gObjAddMsgSendDelay@@YAXPAUOBJECTSTRUCT@@HHHH@Z ; gObjAddMsgSendDelay
  00086	83 c4 14	 add	 esp, 20			; 00000014H
$LN1@ApplyEleme@13:

; 905  : 		}
; 906  : 	}
; 907  : 
; 908  : 	return FALSE;

  00089	5f		 pop	 edi
  0008a	5e		 pop	 esi
  0008b	33 c0		 xor	 eax, eax
  0008d	5b		 pop	 ebx

; 909  : }

  0008e	5d		 pop	 ebp
  0008f	c2 08 00	 ret	 8
?ApplyElementPoison@TMonsterSkillElement@@QAEHHH@Z ENDP	; TMonsterSkillElement::ApplyElementPoison
_TEXT	ENDS
PUBLIC	?ApplyElementNormalAttack@TMonsterSkillElement@@QAEHHH@Z ; TMonsterSkillElement::ApplyElementNormalAttack
EXTRN	?gObjAttack@@YAHPAUOBJECTSTRUCT@@0PAVCMagicInf@@HEHHEE@Z:PROC ; gObjAttack
EXTRN	?gObjLifeCheck@@YAXPAUOBJECTSTRUCT@@0HHHHGH@Z:PROC ; gObjLifeCheck
; Function compile flags: /Ogtp
;	COMDAT ?ApplyElementNormalAttack@TMonsterSkillElement@@QAEHHH@Z
_TEXT	SEGMENT
_iIndex$ = 8						; size = 4
_iTargetIndex$ = 12					; size = 4
?ApplyElementNormalAttack@TMonsterSkillElement@@QAEHHH@Z PROC ; TMonsterSkillElement::ApplyElementNormalAttack, COMDAT
; _this$ = ecx

; 912  : {

  00000	55		 push	 ebp
  00001	8b ec		 mov	 ebp, esp

; 913  : 	LPOBJ lpObj = &gObj[iIndex];
; 914  : 	LPOBJ lpTargetObj = &gObj[iTargetIndex];

  00003	8b 55 0c	 mov	 edx, DWORD PTR _iTargetIndex$[ebp]
  00006	a1 00 00 00 00	 mov	 eax, DWORD PTR ?gObj@@3PAUOBJECTSTRUCT@@A ; gObj
  0000b	69 d2 50 2b 00
	00		 imul	 edx, 11088		; 00002b50H
  00011	56		 push	 esi
  00012	8b 75 08	 mov	 esi, DWORD PTR _iIndex$[ebp]
  00015	69 f6 50 2b 00
	00		 imul	 esi, 11088		; 00002b50H
  0001b	03 d0		 add	 edx, eax
  0001d	03 f0		 add	 esi, eax

; 915  : 
; 916  : 	if ( lpTargetObj->Connected < PLAYER_PLAYING )

  0001f	83 7a 04 03	 cmp	 DWORD PTR [edx+4], 3

; 917  : 		return FALSE;

  00023	0f 8c d4 00 00
	00		 jl	 $LN29@ApplyEleme@14

; 918  : 
; 919  : 	if ( this->m_iNullifiedSkill == -1 )

  00029	83 79 30 ff	 cmp	 DWORD PTR [ecx+48], -1
  0002d	75 07		 jne	 SHORT $LN13@ApplyEleme@14

; 920  : 		this->m_iNullifiedSkill = 0;

  0002f	c7 41 30 00 00
	00 00		 mov	 DWORD PTR [ecx+48], 0
$LN13@ApplyEleme@14:

; 921  : 
; 922  : 	if ( this->m_iIncAndDecType != -1 && this->m_iIncAndDecValue != -1 )

  00036	8b 41 28	 mov	 eax, DWORD PTR [ecx+40]
  00039	53		 push	 ebx
  0003a	57		 push	 edi
  0003b	83 f8 ff	 cmp	 eax, -1
  0003e	0f 84 85 00 00
	00		 je	 $LN14@ApplyEleme@14
  00044	8b 79 2c	 mov	 edi, DWORD PTR [ecx+44]
  00047	83 ff ff	 cmp	 edi, -1
  0004a	74 7d		 je	 SHORT $LN14@ApplyEleme@14

; 923  : 	{
; 924  : 		//Season 4.5 changed
; 925  : 		if(lpTargetObj->pInventory[9].m_Type == ITEMGET(this->m_iIncAndDecType, this->m_iIncAndDecValue) && lpTargetObj->pInventory[9].m_Durability > 0.0 
; 926  : 		|| lpTargetObj->pInventory[10].m_Type == ITEMGET(this->m_iIncAndDecType, this->m_iIncAndDecValue)	&& lpTargetObj->pInventory[10].m_Durability > 0.0 
; 927  : 		|| lpTargetObj->pInventory[11].m_Type == ITEMGET(this->m_iIncAndDecType, this->m_iIncAndDecValue)	&& lpTargetObj->pInventory[11].m_Durability > 0.0)  

  0004c	d9 ee		 fldz
  0004e	c1 e0 09	 shl	 eax, 9
  00051	8d 1c 38	 lea	 ebx, DWORD PTR [eax+edi]
  00054	8b ba 24 0e 00
	00		 mov	 edi, DWORD PTR [edx+3620]
  0005a	0f bf 87 7a 07
	00 00		 movsx	 eax, WORD PTR [edi+1914]
  00061	3b c3		 cmp	 eax, ebx
  00063	75 0d		 jne	 SHORT $LN5@ApplyEleme@14
  00065	d8 97 98 07 00
	00		 fcom	 DWORD PTR [edi+1944]
  0006b	df e0		 fnstsw	 ax
  0006d	f6 c4 05	 test	 ah, 5
  00070	7b 55		 jnp	 SHORT $LN28@ApplyEleme@14
$LN5@ApplyEleme@14:
  00072	0f bf 87 4e 08
	00 00		 movsx	 eax, WORD PTR [edi+2126]
  00079	3b c3		 cmp	 eax, ebx
  0007b	75 0d		 jne	 SHORT $LN4@ApplyEleme@14
  0007d	d8 97 6c 08 00
	00		 fcom	 DWORD PTR [edi+2156]
  00083	df e0		 fnstsw	 ax
  00085	f6 c4 05	 test	 ah, 5
  00088	7b 3d		 jnp	 SHORT $LN28@ApplyEleme@14
$LN4@ApplyEleme@14:
  0008a	0f bf 87 22 09
	00 00		 movsx	 eax, WORD PTR [edi+2338]
  00091	3b c3		 cmp	 eax, ebx
  00093	75 0d		 jne	 SHORT $LN7@ApplyEleme@14
  00095	d8 97 40 09 00
	00		 fcom	 DWORD PTR [edi+2368]
  0009b	df e0		 fnstsw	 ax
  0009d	f6 c4 05	 test	 ah, 5

; 928  : 		{
; 929  : 			
; 930  : 		}
; 931  : 		else

  000a0	7b 25		 jnp	 SHORT $LN28@ApplyEleme@14
$LN7@ApplyEleme@14:

; 932  : 		{
; 933  : 			lpTargetObj->Life = 0;
; 934  : 			gObjLifeCheck(lpTargetObj, lpObj, 100, 0, 0, 0, 0 ,0);

  000a2	6a 00		 push	 0
  000a4	d9 9a fc 00 00
	00		 fstp	 DWORD PTR [edx+252]
  000aa	6a 00		 push	 0
  000ac	6a 00		 push	 0
  000ae	6a 00		 push	 0
  000b0	6a 00		 push	 0
  000b2	6a 64		 push	 100			; 00000064H
  000b4	56		 push	 esi
  000b5	52		 push	 edx
  000b6	e8 00 00 00 00	 call	 ?gObjLifeCheck@@YAXPAUOBJECTSTRUCT@@0HHHHGH@Z ; gObjLifeCheck
  000bb	83 c4 20	 add	 esp, 32			; 00000020H
  000be	5f		 pop	 edi
  000bf	5b		 pop	 ebx

; 947  : 	}
; 948  : 	
; 949  : 
; 950  : 	return FALSE;

  000c0	33 c0		 xor	 eax, eax
  000c2	5e		 pop	 esi

; 951  : }

  000c3	5d		 pop	 ebp
  000c4	c2 08 00	 ret	 8
$LN28@ApplyEleme@14:

; 928  : 		{
; 929  : 			
; 930  : 		}
; 931  : 		else

  000c7	dd d8		 fstp	 ST(0)
$LN14@ApplyEleme@14:

; 935  : 
; 936  : 			return FALSE;
; 937  : 		}
; 938  : 	}
; 939  : 
; 940  : 	if ( this->m_iNullifiedSkill == 0 )

  000c9	8b 49 30	 mov	 ecx, DWORD PTR [ecx+48]

; 941  : 	{
; 942  : 		gObjAttack(lpObj, lpTargetObj, 0, 0, 0, 0 ,0,0,0);

  000cc	6a 00		 push	 0
  000ce	85 c9		 test	 ecx, ecx
  000d0	75 19		 jne	 SHORT $LN2@ApplyEleme@14
  000d2	51		 push	 ecx
  000d3	51		 push	 ecx
  000d4	51		 push	 ecx
  000d5	51		 push	 ecx
  000d6	51		 push	 ecx
  000d7	51		 push	 ecx
  000d8	52		 push	 edx
  000d9	56		 push	 esi
  000da	e8 00 00 00 00	 call	 ?gObjAttack@@YAHPAUOBJECTSTRUCT@@0PAVCMagicInf@@HEHHEE@Z ; gObjAttack
  000df	83 c4 24	 add	 esp, 36			; 00000024H
  000e2	5f		 pop	 edi
  000e3	5b		 pop	 ebx

; 947  : 	}
; 948  : 	
; 949  : 
; 950  : 	return FALSE;

  000e4	33 c0		 xor	 eax, eax
  000e6	5e		 pop	 esi

; 951  : }

  000e7	5d		 pop	 ebp
  000e8	c2 08 00	 ret	 8
$LN2@ApplyEleme@14:

; 943  : 	}
; 944  : 	else
; 945  : 	{
; 946  : 		gObjAddMsgSendDelay(lpObj, 55, iTargetIndex, this->m_iNullifiedSkill, 0);

  000eb	51		 push	 ecx
  000ec	8b 4d 0c	 mov	 ecx, DWORD PTR _iTargetIndex$[ebp]
  000ef	51		 push	 ecx
  000f0	6a 37		 push	 55			; 00000037H
  000f2	56		 push	 esi
  000f3	e8 00 00 00 00	 call	 ?gObjAddMsgSendDelay@@YAXPAUOBJECTSTRUCT@@HHHH@Z ; gObjAddMsgSendDelay
  000f8	83 c4 14	 add	 esp, 20			; 00000014H
  000fb	5f		 pop	 edi
  000fc	5b		 pop	 ebx
$LN29@ApplyEleme@14:

; 947  : 	}
; 948  : 	
; 949  : 
; 950  : 	return FALSE;

  000fd	33 c0		 xor	 eax, eax
  000ff	5e		 pop	 esi

; 951  : }

  00100	5d		 pop	 ebp
  00101	c2 08 00	 ret	 8
?ApplyElementNormalAttack@TMonsterSkillElement@@QAEHHH@Z ENDP ; TMonsterSkillElement::ApplyElementNormalAttack
_TEXT	ENDS
PUBLIC	?ApplyElementBerserk@TMonsterSkillElement@@QAEHHH@Z ; TMonsterSkillElement::ApplyElementBerserk
; Function compile flags: /Ogtp
;	COMDAT ?ApplyElementBerserk@TMonsterSkillElement@@QAEHHH@Z
_TEXT	SEGMENT
_iIndex$ = 8						; size = 4
_iTargetIndex$ = 12					; size = 4
?ApplyElementBerserk@TMonsterSkillElement@@QAEHHH@Z PROC ; TMonsterSkillElement::ApplyElementBerserk, COMDAT
; _this$ = ecx

; 955  : {

  00000	55		 push	 ebp
  00001	8b ec		 mov	 ebp, esp

; 956  : 	LPOBJ lpObj = &gObj[iIndex];
; 957  : 	LPOBJ lpTargetObj = &gObj[iTargetIndex];
; 958  : 
; 959  : 	lpTargetObj->m_MonsterSkillElementInfo.m_iSkillElementBerserkTime = this->m_iContinuanceTime;

  00003	8b 41 24	 mov	 eax, DWORD PTR [ecx+36]
  00006	56		 push	 esi
  00007	57		 push	 edi
  00008	8b 7d 0c	 mov	 edi, DWORD PTR _iTargetIndex$[ebp]
  0000b	69 ff 50 2b 00
	00		 imul	 edi, 11088		; 00002b50H
  00011	03 3d 00 00 00
	00		 add	 edi, DWORD PTR ?gObj@@3PAUOBJECTSTRUCT@@A ; gObj
  00017	89 87 70 1c 00
	00		 mov	 DWORD PTR [edi+7280], eax

; 960  : 
; 961  : 	int DurationTime = 0;
; 962  : 	
; 963  : 	if(this->m_iContinuanceTime == -1)

  0001d	83 79 24 ff	 cmp	 DWORD PTR [ecx+36], -1
  00021	75 07		 jne	 SHORT $LN2@ApplyEleme@15

; 964  : 	{
; 965  : 		DurationTime = -10;

  00023	be f6 ff ff ff	 mov	 esi, -10		; fffffff6H

; 966  : 	}
; 967  : 	else

  00028	eb 14		 jmp	 SHORT $LN1@ApplyEleme@15
$LN2@ApplyEleme@15:

; 968  : 	{
; 969  : 		DurationTime = this->m_iContinuanceTime / 1000;

  0002a	8b 49 24	 mov	 ecx, DWORD PTR [ecx+36]
  0002d	b8 d3 4d 62 10	 mov	 eax, 274877907		; 10624dd3H
  00032	f7 e9		 imul	 ecx
  00034	c1 fa 06	 sar	 edx, 6
  00037	8b f2		 mov	 esi, edx
  00039	c1 ee 1f	 shr	 esi, 31			; 0000001fH
  0003c	03 f2		 add	 esi, edx
$LN1@ApplyEleme@15:

; 970  : 	}
; 971  : 		
; 972  : 	gObjApplyBuffEffectDuration(lpTargetObj, 63, 0, 0, 0, 0, DurationTime);

  0003e	56		 push	 esi
  0003f	6a 00		 push	 0
  00041	6a 00		 push	 0
  00043	6a 00		 push	 0
  00045	6a 00		 push	 0
  00047	6a 3f		 push	 63			; 0000003fH
  00049	57		 push	 edi
  0004a	e8 00 00 00 00	 call	 ?gObjApplyBuffEffectDuration@@YAEPAUOBJECTSTRUCT@@HEHEHH@Z ; gObjApplyBuffEffectDuration

; 973  : 	gObjApplyBuffEffectDuration(lpTargetObj, 64, 0, 0, 0, 0, DurationTime);

  0004f	56		 push	 esi
  00050	6a 00		 push	 0
  00052	6a 00		 push	 0
  00054	6a 00		 push	 0
  00056	6a 00		 push	 0
  00058	6a 40		 push	 64			; 00000040H
  0005a	57		 push	 edi
  0005b	e8 00 00 00 00	 call	 ?gObjApplyBuffEffectDuration@@YAEPAUOBJECTSTRUCT@@HEHEHH@Z ; gObjApplyBuffEffectDuration
  00060	83 c4 38	 add	 esp, 56			; 00000038H
  00063	5f		 pop	 edi

; 974  : 	
; 975  : 	return FALSE;

  00064	33 c0		 xor	 eax, eax
  00066	5e		 pop	 esi

; 976  : }

  00067	5d		 pop	 ebp
  00068	c2 08 00	 ret	 8
?ApplyElementBerserk@TMonsterSkillElement@@QAEHHH@Z ENDP ; TMonsterSkillElement::ApplyElementBerserk
_TEXT	ENDS
PUBLIC	??0TMonsterSkillElement@@QAE@XZ			; TMonsterSkillElement::TMonsterSkillElement
; Function compile flags: /Ogtp
;	COMDAT ??0TMonsterSkillElement@@QAE@XZ
_TEXT	SEGMENT
??0TMonsterSkillElement@@QAE@XZ PROC			; TMonsterSkillElement::TMonsterSkillElement, COMDAT
; _this$ = ecx

; 30   : {

  00000	c7 01 00 00 00
	00		 mov	 DWORD PTR [ecx], OFFSET ??_7TMonsterSkillElement@@6B@

; 31   : 	this->Reset();

  00006	e8 00 00 00 00	 call	 ?Reset@TMonsterSkillElement@@QAEXXZ ; TMonsterSkillElement::Reset

; 32   : }

  0000b	8b c1		 mov	 eax, ecx
  0000d	c3		 ret	 0
??0TMonsterSkillElement@@QAE@XZ ENDP			; TMonsterSkillElement::TMonsterSkillElement
_TEXT	ENDS
EXTRN	??3@YAXPAX@Z:PROC				; operator delete
; Function compile flags: /Ogtp
;	COMDAT ??_GTMonsterSkillElement@@UAEPAXI@Z
_TEXT	SEGMENT
___flags$ = 8						; size = 4
??_GTMonsterSkillElement@@UAEPAXI@Z PROC		; TMonsterSkillElement::`scalar deleting destructor', COMDAT
; _this$ = ecx
  00000	55		 push	 ebp
  00001	8b ec		 mov	 ebp, esp
  00003	56		 push	 esi
  00004	8b f1		 mov	 esi, ecx
  00006	e8 00 00 00 00	 call	 ??1TMonsterSkillElement@@UAE@XZ ; TMonsterSkillElement::~TMonsterSkillElement
  0000b	f6 45 08 01	 test	 BYTE PTR ___flags$[ebp], 1
  0000f	74 09		 je	 SHORT $LN4@scalar
  00011	56		 push	 esi
  00012	e8 00 00 00 00	 call	 ??3@YAXPAX@Z		; operator delete
  00017	83 c4 04	 add	 esp, 4
$LN4@scalar:
  0001a	8b c6		 mov	 eax, esi
  0001c	5e		 pop	 esi
  0001d	5d		 pop	 ebp
  0001e	c2 04 00	 ret	 4
??_GTMonsterSkillElement@@UAEPAXI@Z ENDP		; TMonsterSkillElement::`scalar deleting destructor'
_TEXT	ENDS
PUBLIC	??_C@_0DG@FBIECEIN@?$FLMonster?5Element?$FN?5?9?5File?5load?5er@ ; `string'
PUBLIC	??_C@_0DI@MPJFELNA@?$FLMonster?5Element?$FN?5?9?5Loading?5Exce@ ; `string'
PUBLIC	??_C@_0DI@LDGJOAOE@?$FLMonster?5Element?$FN?5?9?5ElementNumbe@ ; `string'
PUBLIC	??_C@_0FM@EEKDKBLP@?$KB?YNum?3?$CFd?0Name?3?$CFs?0Type?3?$CFd?0Rate?3?$CFd@ ; `string'
PUBLIC	??_C@_03JBJLGPFL@end?$AA@			; `string'
PUBLIC	??_C@_0CG@IGOGFOBE@?$FLMonster?5Element?$FN?5?9?5?$CFs?5file?5is?5L@ ; `string'
PUBLIC	??_C@_0CD@ELHGFGGC@?$FLMonster?5Element?$FN?5?9?5Can?8t?5Open?5?$CF@ ; `string'
PUBLIC	??_C@_01KDCPPGHE@r?$AA@				; `string'
PUBLIC	??_C@_00CNPNBAHC@?$AA@				; `string'
PUBLIC	_lpszFileName$GSCopy$
PUBLIC	__$ArrayPad$
PUBLIC	?LoadData@TMonsterSkillElement@@SAHPAD@Z	; TMonsterSkillElement::LoadData
EXTRN	__imp__OutputDebugStringA@4:PROC
EXTRN	__imp__wsprintfA:PROC
EXTRN	_fclose:PROC
EXTRN	?MsgBox@@YAXPADZZ:PROC				; MsgBox
EXTRN	_fopen:PROC
EXTRN	___CxxFrameHandler3:PROC
EXTRN	_memset:PROC
;	COMDAT ??_C@_0DG@FBIECEIN@?$FLMonster?5Element?$FN?5?9?5File?5load?5er@
CONST	SEGMENT
??_C@_0DG@FBIECEIN@?$FLMonster?5Element?$FN?5?9?5File?5load?5er@ DB '[Mon'
	DB	'ster Element] - File load error : File Name Error', 00H ; `string'
CONST	ENDS
;	COMDAT ??_C@_0DI@MPJFELNA@?$FLMonster?5Element?$FN?5?9?5Loading?5Exce@
CONST	SEGMENT
??_C@_0DI@MPJFELNA@?$FLMonster?5Element?$FN?5?9?5Loading?5Exce@ DB '[Mons'
	DB	'ter Element] - Loading Exception Error (%s) File. ', 00H ; `string'
CONST	ENDS
;	COMDAT ??_C@_0DI@LDGJOAOE@?$FLMonster?5Element?$FN?5?9?5ElementNumbe@
CONST	SEGMENT
??_C@_0DI@LDGJOAOE@?$FLMonster?5Element?$FN?5?9?5ElementNumbe@ DB '[Monst'
	DB	'er Element] - ElementNumber(%d) Error (%s) File. ', 00H ; `string'
CONST	ENDS
;	COMDAT ??_C@_0FM@EEKDKBLP@?$KB?YNum?3?$CFd?0Name?3?$CFs?0Type?3?$CFd?0Rate?3?$CFd@
CONST	SEGMENT
??_C@_0FM@EEKDKBLP@?$KB?YNum?3?$CFd?0Name?3?$CFs?0Type?3?$CFd?0Rate?3?$CFd@ DB 0a1H
	DB	0d9H, 'Num:%d,Name:%s,Type:%d,Rate:%d,Time:%d,I&DType:%d,I&DVa'
	DB	'lue:%d,Null:%d,Class:%d, Level:%d', 0aH, 00H ; `string'
CONST	ENDS
;	COMDAT ??_C@_03JBJLGPFL@end?$AA@
CONST	SEGMENT
??_C@_03JBJLGPFL@end?$AA@ DB 'end', 00H			; `string'
CONST	ENDS
;	COMDAT ??_C@_0CG@IGOGFOBE@?$FLMonster?5Element?$FN?5?9?5?$CFs?5file?5is?5L@
CONST	SEGMENT
??_C@_0CG@IGOGFOBE@?$FLMonster?5Element?$FN?5?9?5?$CFs?5file?5is?5L@ DB '['
	DB	'Monster Element] - %s file is Loaded', 00H	; `string'
CONST	ENDS
;	COMDAT ??_C@_0CD@ELHGFGGC@?$FLMonster?5Element?$FN?5?9?5Can?8t?5Open?5?$CF@
CONST	SEGMENT
??_C@_0CD@ELHGFGGC@?$FLMonster?5Element?$FN?5?9?5Can?8t?5Open?5?$CF@ DB '['
	DB	'Monster Element] - Can''t Open %s ', 00H	; `string'
CONST	ENDS
;	COMDAT ??_C@_01KDCPPGHE@r?$AA@
CONST	SEGMENT
??_C@_01KDCPPGHE@r?$AA@ DB 'r', 00H			; `string'
CONST	ENDS
;	COMDAT ??_C@_00CNPNBAHC@?$AA@
CONST	SEGMENT
??_C@_00CNPNBAHC@?$AA@ DB 00H				; `string'
CONST	ENDS
;	COMDAT xdata$x
xdata$x	SEGMENT
__catchsym$?LoadData@TMonsterSkillElement@@SAHPAD@Z$2 DD 040H
	DD	00H
	DD	00H
	DD	FLAT:__catch$?LoadData@TMonsterSkillElement@@SAHPAD@Z$0
__unwindtable$?LoadData@TMonsterSkillElement@@SAHPAD@Z DD 0ffffffffH
	DD	00H
	DD	0ffffffffH
	DD	00H
__tryblocktable$?LoadData@TMonsterSkillElement@@SAHPAD@Z DD 00H
	DD	00H
	DD	01H
	DD	01H
	DD	FLAT:__catchsym$?LoadData@TMonsterSkillElement@@SAHPAD@Z$2
__ehfuncinfo$?LoadData@TMonsterSkillElement@@SAHPAD@Z DD 019930522H
	DD	02H
	DD	FLAT:__unwindtable$?LoadData@TMonsterSkillElement@@SAHPAD@Z
	DD	01H
	DD	FLAT:__tryblocktable$?LoadData@TMonsterSkillElement@@SAHPAD@Z
	DD	2 DUP(00H)
	DD	00H
	DD	01H
; Function compile flags: /Ogtp
xdata$x	ENDS
;	COMDAT ?LoadData@TMonsterSkillElement@@SAHPAD@Z
_TEXT	SEGMENT
_iType$211128 = -272					; size = 4
_iIncAndDecType$211159 = -268				; size = 4
_iIncAndDecValue$211160 = -264				; size = 4
_iCharacterClass$211162 = -260				; size = 4
_iContinuanceTime$211158 = -256				; size = 4
_iCharacterLevel$211163 = -252				; size = 4
_iNullifiedMagic$211161 = -248				; size = 4
_lpszFileName$GSCopy$ = -244				; size = 4
_szMsg$211178 = -240					; size = 200
_szElementName$211154 = -40				; size = 20
__$ArrayPad$ = -20					; size = 4
__$EHRec$ = -16						; size = 16
_lpszFileName$ = 8					; size = 4
?LoadData@TMonsterSkillElement@@SAHPAD@Z PROC		; TMonsterSkillElement::LoadData, COMDAT

; 54   : {	

  00000	55		 push	 ebp
  00001	8b ec		 mov	 ebp, esp
  00003	6a ff		 push	 -1
  00005	68 00 00 00 00	 push	 __ehhandler$?LoadData@TMonsterSkillElement@@SAHPAD@Z
  0000a	64 a1 00 00 00
	00		 mov	 eax, DWORD PTR fs:0
  00010	50		 push	 eax
  00011	81 ec 04 01 00
	00		 sub	 esp, 260		; 00000104H
  00017	a1 00 00 00 00	 mov	 eax, DWORD PTR ___security_cookie
  0001c	33 c5		 xor	 eax, ebp
  0001e	89 45 ec	 mov	 DWORD PTR __$ArrayPad$[ebp], eax
  00021	53		 push	 ebx
  00022	56		 push	 esi
  00023	57		 push	 edi
  00024	50		 push	 eax
  00025	8d 45 f4	 lea	 eax, DWORD PTR __$EHRec$[ebp+4]
  00028	64 a3 00 00 00
	00		 mov	 DWORD PTR fs:0, eax
  0002e	89 65 f0	 mov	 DWORD PTR __$EHRec$[ebp], esp
  00031	8b 75 08	 mov	 esi, DWORD PTR _lpszFileName$[ebp]

; 55   : 	TMonsterSkillElement::s_bDataLoad = FALSE;

  00034	33 ff		 xor	 edi, edi
  00036	89 b5 0c ff ff
	ff		 mov	 DWORD PTR _lpszFileName$GSCopy$[ebp], esi
  0003c	89 3d 00 00 00
	00		 mov	 DWORD PTR ?s_bDataLoad@TMonsterSkillElement@@2HA, edi ; TMonsterSkillElement::s_bDataLoad

; 56   : 
; 57   : 	if ( !lpszFileName || !strcmp(lpszFileName, ""))

  00042	3b f7		 cmp	 esi, edi
  00044	0f 84 3c 03 00
	00		 je	 $LN12@LoadData
  0004a	b9 00 00 00 00	 mov	 ecx, OFFSET ??_C@_00CNPNBAHC@?$AA@
  0004f	8b c6		 mov	 eax, esi
$LL24@LoadData:
  00051	8a 10		 mov	 dl, BYTE PTR [eax]
  00053	3a 11		 cmp	 dl, BYTE PTR [ecx]
  00055	75 1a		 jne	 SHORT $LN25@LoadData
  00057	84 d2		 test	 dl, dl
  00059	74 12		 je	 SHORT $LN26@LoadData
  0005b	8a 50 01	 mov	 dl, BYTE PTR [eax+1]
  0005e	3a 51 01	 cmp	 dl, BYTE PTR [ecx+1]
  00061	75 0e		 jne	 SHORT $LN25@LoadData
  00063	83 c0 02	 add	 eax, 2
  00066	83 c1 02	 add	 ecx, 2
  00069	84 d2		 test	 dl, dl
  0006b	75 e4		 jne	 SHORT $LL24@LoadData
$LN26@LoadData:
  0006d	33 c0		 xor	 eax, eax
  0006f	eb 05		 jmp	 SHORT $LN27@LoadData
$LN25@LoadData:
  00071	1b c0		 sbb	 eax, eax
  00073	83 d8 ff	 sbb	 eax, -1
$LN27@LoadData:
  00076	3b c7		 cmp	 eax, edi
  00078	0f 84 08 03 00
	00		 je	 $LN12@LoadData

; 61   : 	}
; 62   : 
; 63   : 	try
; 64   : 	{
; 65   : 		SMDToken Token;
; 66   : 		SMDFile = fopen(lpszFileName, "r");

  0007e	68 00 00 00 00	 push	 OFFSET ??_C@_01KDCPPGHE@r?$AA@
  00083	56		 push	 esi
  00084	89 7d fc	 mov	 DWORD PTR __$EHRec$[ebp+12], edi
  00087	e8 00 00 00 00	 call	 _fopen
  0008c	83 c4 08	 add	 esp, 8
  0008f	a3 00 00 00 00	 mov	 DWORD PTR _SMDFile, eax

; 67   : 
; 68   : 		if ( SMDFile == NULL )

  00094	3b c7		 cmp	 eax, edi
  00096	75 13		 jne	 SHORT $LN10@LoadData

; 69   : 		{
; 70   : 			MsgBox("[Monster Element] - Can't Open %s ", lpszFileName);

  00098	56		 push	 esi
  00099	68 00 00 00 00	 push	 OFFSET ??_C@_0CD@ELHGFGGC@?$FLMonster?5Element?$FN?5?9?5Can?8t?5Open?5?$CF@
  0009e	e8 00 00 00 00	 call	 ?MsgBox@@YAXPADZZ	; MsgBox
  000a3	83 c4 08	 add	 esp, 8

; 71   : 			return FALSE;

  000a6	e9 e8 02 00 00	 jmp	 $LN34@LoadData
$LN10@LoadData:

; 72   : 		}
; 73   : 
; 74   : 		TMonsterSkillElement::DelAllSkillElement();

  000ab	e8 00 00 00 00	 call	 ?DelAllSkillElement@TMonsterSkillElement@@SAHXZ ; TMonsterSkillElement::DelAllSkillElement
$LL9@LoadData:

; 75   : 		int iType = -1;
; 76   : 
; 77   : 		while ( true )
; 78   : 		{
; 79   : 			Token = GetToken();

  000b0	e8 00 00 00 00	 call	 ?GetToken@@YA?AW4SMDToken@@XZ ; GetToken

; 80   : 
; 81   : 			if ( Token == END )

  000b5	83 f8 02	 cmp	 eax, 2
  000b8	75 2b		 jne	 SHORT $LN7@LoadData

; 161  : 					
; 162  : 				}
; 163  : 			}
; 164  : 		}	// while ( true )
; 165  : 
; 166  : 		fclose(SMDFile);

  000ba	a1 00 00 00 00	 mov	 eax, DWORD PTR _SMDFile
  000bf	50		 push	 eax
  000c0	e8 00 00 00 00	 call	 _fclose

; 167  : 
; 168  : 		LogAddC(2, "[Monster Element] - %s file is Loaded", lpszFileName);

  000c5	56		 push	 esi
  000c6	68 00 00 00 00	 push	 OFFSET ??_C@_0CG@IGOGFOBE@?$FLMonster?5Element?$FN?5?9?5?$CFs?5file?5is?5L@
  000cb	6a 02		 push	 2
  000cd	ff 15 00 00 00
	00		 call	 DWORD PTR ?LogAddC@@3P6AXEPADZZA ; LogAddC
  000d3	83 c4 10	 add	 esp, 16			; 00000010H

; 169  : 
; 170  : 		TMonsterSkillElement::s_bDataLoad = TRUE;

  000d6	c7 05 00 00 00
	00 01 00 00 00	 mov	 DWORD PTR ?s_bDataLoad@TMonsterSkillElement@@2HA, 1 ; TMonsterSkillElement::s_bDataLoad
  000e0	e9 ae 02 00 00	 jmp	 $LN34@LoadData
$LN7@LoadData:

; 82   : 				break;
; 83   : 
; 84   : 			iType = (int)TokenNumber;

  000e5	d9 05 00 00 00
	00		 fld	 DWORD PTR _TokenNumber
  000eb	e8 00 00 00 00	 call	 __ftol2_sse
  000f0	89 85 f0 fe ff
	ff		 mov	 DWORD PTR _iType$211128[ebp], eax
$LL6@LoadData:

; 85   : 
; 86   : 			while ( true )
; 87   : 			{
; 88   : 				if ( iType == 0 )

  000f6	83 bd f0 fe ff
	ff 00		 cmp	 DWORD PTR _iType$211128[ebp], 0
  000fd	75 f7		 jne	 SHORT $LL6@LoadData

; 89   : 				{
; 90   : 					char szElementName[20] = {0};

  000ff	33 c0		 xor	 eax, eax
  00101	c6 45 d8 00	 mov	 BYTE PTR _szElementName$211154[ebp], 0
  00105	89 45 d9	 mov	 DWORD PTR _szElementName$211154[ebp+1], eax
  00108	89 45 dd	 mov	 DWORD PTR _szElementName$211154[ebp+5], eax
  0010b	89 45 e1	 mov	 DWORD PTR _szElementName$211154[ebp+9], eax
  0010e	89 45 e5	 mov	 DWORD PTR _szElementName$211154[ebp+13], eax
  00111	66 89 45 e9	 mov	 WORD PTR _szElementName$211154[ebp+17], ax
  00115	88 45 eb	 mov	 BYTE PTR _szElementName$211154[ebp+19], al

; 91   : 					int iElementNumber = -1;						
; 92   : 					int iElementType = -1;
; 93   : 					int iSuccessRate = -1;
; 94   : 					int iContinuanceTime = -1;
; 95   : 					int iIncAndDecType = -1;
; 96   : 					int iIncAndDecValue = -1;
; 97   : 					int iNullifiedMagic = -1;
; 98   : 					int iCharacterClass = -1;
; 99   : 					int iCharacterLevel = -1;
; 100  : 
; 101  : 					Token = GetToken();

  00118	e8 00 00 00 00	 call	 ?GetToken@@YA?AW4SMDToken@@XZ ; GetToken

; 102  : 
; 103  : 					if ( !strcmp("end", TokenString))

  0011d	b9 00 00 00 00	 mov	 ecx, OFFSET _TokenString
  00122	b8 00 00 00 00	 mov	 eax, OFFSET ??_C@_03JBJLGPFL@end?$AA@
$LL28@LoadData:
  00127	8a 10		 mov	 dl, BYTE PTR [eax]
  00129	3a 11		 cmp	 dl, BYTE PTR [ecx]
  0012b	75 1a		 jne	 SHORT $LN29@LoadData
  0012d	84 d2		 test	 dl, dl
  0012f	74 12		 je	 SHORT $LN30@LoadData
  00131	8a 50 01	 mov	 dl, BYTE PTR [eax+1]
  00134	3a 51 01	 cmp	 dl, BYTE PTR [ecx+1]
  00137	75 0e		 jne	 SHORT $LN29@LoadData
  00139	83 c0 02	 add	 eax, 2
  0013c	83 c1 02	 add	 ecx, 2
  0013f	84 d2		 test	 dl, dl
  00141	75 e4		 jne	 SHORT $LL28@LoadData
$LN30@LoadData:
  00143	33 c0		 xor	 eax, eax
  00145	eb 05		 jmp	 SHORT $LN31@LoadData
$LN29@LoadData:
  00147	1b c0		 sbb	 eax, eax
  00149	83 d8 ff	 sbb	 eax, -1
$LN31@LoadData:
  0014c	85 c0		 test	 eax, eax
  0014e	0f 84 0d 02 00
	00		 je	 $LN32@LoadData

; 104  : 						break;
; 105  : 
; 106  : 					iElementNumber = (int)TokenNumber;

  00154	d9 05 00 00 00
	00		 fld	 DWORD PTR _TokenNumber
  0015a	e8 00 00 00 00	 call	 __ftol2_sse
  0015f	8b f0		 mov	 esi, eax

; 107  : 
; 108  : 					Token = GetToken();

  00161	e8 00 00 00 00	 call	 ?GetToken@@YA?AW4SMDToken@@XZ ; GetToken

; 109  : 					memcpy(szElementName, TokenString, sizeof(szElementName));

  00166	8b 0d 00 00 00
	00		 mov	 ecx, DWORD PTR _TokenString
  0016c	8b 15 04 00 00
	00		 mov	 edx, DWORD PTR _TokenString+4
  00172	a1 08 00 00 00	 mov	 eax, DWORD PTR _TokenString+8
  00177	89 4d d8	 mov	 DWORD PTR _szElementName$211154[ebp], ecx
  0017a	8b 0d 0c 00 00
	00		 mov	 ecx, DWORD PTR _TokenString+12
  00180	89 55 dc	 mov	 DWORD PTR _szElementName$211154[ebp+4], edx
  00183	8b 15 10 00 00
	00		 mov	 edx, DWORD PTR _TokenString+16
  00189	89 45 e0	 mov	 DWORD PTR _szElementName$211154[ebp+8], eax
  0018c	89 4d e4	 mov	 DWORD PTR _szElementName$211154[ebp+12], ecx
  0018f	89 55 e8	 mov	 DWORD PTR _szElementName$211154[ebp+16], edx

; 110  : 
; 111  : 					Token = GetToken();

  00192	e8 00 00 00 00	 call	 ?GetToken@@YA?AW4SMDToken@@XZ ; GetToken

; 112  : 					iElementType = (int)TokenNumber;

  00197	d9 05 00 00 00
	00		 fld	 DWORD PTR _TokenNumber
  0019d	e8 00 00 00 00	 call	 __ftol2_sse
  001a2	8b f8		 mov	 edi, eax

; 113  : 
; 114  : 					Token = GetToken();

  001a4	e8 00 00 00 00	 call	 ?GetToken@@YA?AW4SMDToken@@XZ ; GetToken

; 115  : 					iSuccessRate = (int)TokenNumber;

  001a9	d9 05 00 00 00
	00		 fld	 DWORD PTR _TokenNumber
  001af	e8 00 00 00 00	 call	 __ftol2_sse
  001b4	8b d8		 mov	 ebx, eax

; 116  : 
; 117  : 					Token = GetToken();

  001b6	e8 00 00 00 00	 call	 ?GetToken@@YA?AW4SMDToken@@XZ ; GetToken

; 118  : 					iContinuanceTime = (int)TokenNumber;

  001bb	d9 05 00 00 00
	00		 fld	 DWORD PTR _TokenNumber
  001c1	e8 00 00 00 00	 call	 __ftol2_sse
  001c6	89 85 00 ff ff
	ff		 mov	 DWORD PTR _iContinuanceTime$211158[ebp], eax

; 119  : 
; 120  : 					Token = GetToken();

  001cc	e8 00 00 00 00	 call	 ?GetToken@@YA?AW4SMDToken@@XZ ; GetToken

; 121  : 					iIncAndDecType = (int)TokenNumber;

  001d1	d9 05 00 00 00
	00		 fld	 DWORD PTR _TokenNumber
  001d7	e8 00 00 00 00	 call	 __ftol2_sse
  001dc	89 85 f4 fe ff
	ff		 mov	 DWORD PTR _iIncAndDecType$211159[ebp], eax

; 122  : 
; 123  : 					Token = GetToken();

  001e2	e8 00 00 00 00	 call	 ?GetToken@@YA?AW4SMDToken@@XZ ; GetToken

; 124  : 					iIncAndDecValue = (int)TokenNumber;

  001e7	d9 05 00 00 00
	00		 fld	 DWORD PTR _TokenNumber
  001ed	e8 00 00 00 00	 call	 __ftol2_sse
  001f2	89 85 f8 fe ff
	ff		 mov	 DWORD PTR _iIncAndDecValue$211160[ebp], eax

; 125  : 
; 126  : 					Token = GetToken();

  001f8	e8 00 00 00 00	 call	 ?GetToken@@YA?AW4SMDToken@@XZ ; GetToken

; 127  : 					iNullifiedMagic = (int)TokenNumber;

  001fd	d9 05 00 00 00
	00		 fld	 DWORD PTR _TokenNumber
  00203	e8 00 00 00 00	 call	 __ftol2_sse
  00208	89 85 08 ff ff
	ff		 mov	 DWORD PTR _iNullifiedMagic$211161[ebp], eax

; 128  : 
; 129  : 					Token = GetToken();

  0020e	e8 00 00 00 00	 call	 ?GetToken@@YA?AW4SMDToken@@XZ ; GetToken

; 130  : 					iCharacterClass = (int)TokenNumber;

  00213	d9 05 00 00 00
	00		 fld	 DWORD PTR _TokenNumber
  00219	e8 00 00 00 00	 call	 __ftol2_sse
  0021e	89 85 fc fe ff
	ff		 mov	 DWORD PTR _iCharacterClass$211162[ebp], eax

; 131  : 
; 132  : 					Token = GetToken();

  00224	e8 00 00 00 00	 call	 ?GetToken@@YA?AW4SMDToken@@XZ ; GetToken

; 133  : 					iCharacterLevel = (int)TokenNumber;

  00229	d9 05 00 00 00
	00		 fld	 DWORD PTR _TokenNumber
  0022f	e8 00 00 00 00	 call	 __ftol2_sse
  00234	89 85 04 ff ff
	ff		 mov	 DWORD PTR _iCharacterLevel$211163[ebp], eax

; 134  : 
; 135  : 					if ( iElementNumber < 0 || iElementNumber >= MAX_MONSTER_SKILL_ELEMENT )

  0023a	83 fe 63	 cmp	 esi, 99			; 00000063H
  0023d	0f 87 04 01 00
	00		 ja	 $LN1@LoadData

; 140  : 					}
; 141  : 
; 142  : 					char szMsg[200] ={0};

  00243	68 c7 00 00 00	 push	 199			; 000000c7H
  00248	8d 85 11 ff ff
	ff		 lea	 eax, DWORD PTR _szMsg$211178[ebp+1]
  0024e	6a 00		 push	 0
  00250	50		 push	 eax
  00251	c6 85 10 ff ff
	ff 00		 mov	 BYTE PTR _szMsg$211178[ebp], 0
  00258	e8 00 00 00 00	 call	 _memset

; 143  : 
; 144  : 					wsprintf(szMsg, "Num:%d,Name:%s,Type:%d,Rate:%d,Time:%d,I&DType:%d,I&DValue:%d,Null:%d,Class:%d, Level:%d\n",
; 145  : 						iElementNumber, szElementName, iElementType, iSuccessRate, iContinuanceTime,
; 146  : 						iIncAndDecType, iIncAndDecValue, iNullifiedMagic, iCharacterClass, iCharacterLevel);

  0025d	8b 8d 04 ff ff
	ff		 mov	 ecx, DWORD PTR _iCharacterLevel$211163[ebp]
  00263	8b 95 fc fe ff
	ff		 mov	 edx, DWORD PTR _iCharacterClass$211162[ebp]
  00269	8b 85 08 ff ff
	ff		 mov	 eax, DWORD PTR _iNullifiedMagic$211161[ebp]
  0026f	51		 push	 ecx
  00270	8b 8d f8 fe ff
	ff		 mov	 ecx, DWORD PTR _iIncAndDecValue$211160[ebp]
  00276	52		 push	 edx
  00277	8b 95 f4 fe ff
	ff		 mov	 edx, DWORD PTR _iIncAndDecType$211159[ebp]
  0027d	50		 push	 eax
  0027e	8b 85 00 ff ff
	ff		 mov	 eax, DWORD PTR _iContinuanceTime$211158[ebp]
  00284	51		 push	 ecx
  00285	52		 push	 edx
  00286	50		 push	 eax
  00287	53		 push	 ebx
  00288	57		 push	 edi
  00289	8d 4d d8	 lea	 ecx, DWORD PTR _szElementName$211154[ebp]
  0028c	51		 push	 ecx
  0028d	56		 push	 esi
  0028e	8d 95 10 ff ff
	ff		 lea	 edx, DWORD PTR _szMsg$211178[ebp]
  00294	68 00 00 00 00	 push	 OFFSET ??_C@_0FM@EEKDKBLP@?$KB?YNum?3?$CFd?0Name?3?$CFs?0Type?3?$CFd?0Rate?3?$CFd@
  00299	52		 push	 edx
  0029a	ff 15 00 00 00
	00		 call	 DWORD PTR __imp__wsprintfA
  002a0	83 c4 3c	 add	 esp, 60			; 0000003cH

; 147  : 
; 148  : 					OutputDebugString(szMsg);

  002a3	8d 85 10 ff ff
	ff		 lea	 eax, DWORD PTR _szMsg$211178[ebp]
  002a9	50		 push	 eax
  002aa	ff 15 00 00 00
	00		 call	 DWORD PTR __imp__OutputDebugStringA@4

; 149  : 
; 150  : 					TMonsterSkillElement::s_MonsterSkillElementArray[iElementNumber].m_iSuccessRate = iSuccessRate;
; 151  : 					TMonsterSkillElement::s_MonsterSkillElementArray[iElementNumber].m_iContinuanceTime = iContinuanceTime;

  002b0	8b 8d 00 ff ff
	ff		 mov	 ecx, DWORD PTR _iContinuanceTime$211158[ebp]

; 152  : 					TMonsterSkillElement::s_MonsterSkillElementArray[iElementNumber].m_iIncAndDecType = iIncAndDecType;

  002b6	8b 95 f4 fe ff
	ff		 mov	 edx, DWORD PTR _iIncAndDecType$211159[ebp]
  002bc	8b c6		 mov	 eax, esi
  002be	c1 e0 04	 shl	 eax, 4
  002c1	2b c6		 sub	 eax, esi
  002c3	03 c0		 add	 eax, eax
  002c5	03 c0		 add	 eax, eax
  002c7	89 88 24 00 00
	00		 mov	 DWORD PTR ?s_MonsterSkillElementArray@TMonsterSkillElement@@2PAV1@A[eax+36], ecx

; 153  : 					TMonsterSkillElement::s_MonsterSkillElementArray[iElementNumber].m_iIncAndDecValue = iIncAndDecValue;

  002cd	8b 8d f8 fe ff
	ff		 mov	 ecx, DWORD PTR _iIncAndDecValue$211160[ebp]
  002d3	89 90 28 00 00
	00		 mov	 DWORD PTR ?s_MonsterSkillElementArray@TMonsterSkillElement@@2PAV1@A[eax+40], edx

; 154  : 					TMonsterSkillElement::s_MonsterSkillElementArray[iElementNumber].m_iNullifiedSkill = iNullifiedMagic;

  002d9	8b 95 08 ff ff
	ff		 mov	 edx, DWORD PTR _iNullifiedMagic$211161[ebp]
  002df	89 88 2c 00 00
	00		 mov	 DWORD PTR ?s_MonsterSkillElementArray@TMonsterSkillElement@@2PAV1@A[eax+44], ecx

; 155  : 					TMonsterSkillElement::s_MonsterSkillElementArray[iElementNumber].m_iCharacterClass = iCharacterClass;

  002e5	8b 8d fc fe ff
	ff		 mov	 ecx, DWORD PTR _iCharacterClass$211162[ebp]
  002eb	89 90 30 00 00
	00		 mov	 DWORD PTR ?s_MonsterSkillElementArray@TMonsterSkillElement@@2PAV1@A[eax+48], edx

; 156  : 					TMonsterSkillElement::s_MonsterSkillElementArray[iElementNumber].m_iCharacterLevel = iCharacterLevel;

  002f1	8b 95 04 ff ff
	ff		 mov	 edx, DWORD PTR _iCharacterLevel$211163[ebp]
  002f7	89 88 34 00 00
	00		 mov	 DWORD PTR ?s_MonsterSkillElementArray@TMonsterSkillElement@@2PAV1@A[eax+52], ecx

; 157  : 					TMonsterSkillElement::s_MonsterSkillElementArray[iElementNumber].m_iElementType = iElementType;
; 158  : 					TMonsterSkillElement::s_MonsterSkillElementArray[iElementNumber].m_iElementNumber = iElementNumber;
; 159  : 					memcpy(TMonsterSkillElement::s_MonsterSkillElementArray[iElementNumber].m_szElementName,
; 160  : 						szElementName, sizeof(TMonsterSkillElement::s_MonsterSkillElementArray[iElementNumber].m_szElementName));

  002fd	8b 4d d8	 mov	 ecx, DWORD PTR _szElementName$211154[ebp]
  00300	89 88 04 00 00
	00		 mov	 DWORD PTR ?s_MonsterSkillElementArray@TMonsterSkillElement@@2PAV1@A[eax+4], ecx
  00306	8b 4d e0	 mov	 ecx, DWORD PTR _szElementName$211154[ebp+8]
  00309	89 90 38 00 00
	00		 mov	 DWORD PTR ?s_MonsterSkillElementArray@TMonsterSkillElement@@2PAV1@A[eax+56], edx
  0030f	8b 55 dc	 mov	 edx, DWORD PTR _szElementName$211154[ebp+4]
  00312	89 90 08 00 00
	00		 mov	 DWORD PTR ?s_MonsterSkillElementArray@TMonsterSkillElement@@2PAV1@A[eax+8], edx
  00318	8b 55 e4	 mov	 edx, DWORD PTR _szElementName$211154[ebp+12]
  0031b	89 88 0c 00 00
	00		 mov	 DWORD PTR ?s_MonsterSkillElementArray@TMonsterSkillElement@@2PAV1@A[eax+12], ecx
  00321	8b 4d e8	 mov	 ecx, DWORD PTR _szElementName$211154[ebp+16]
  00324	89 90 10 00 00
	00		 mov	 DWORD PTR ?s_MonsterSkillElementArray@TMonsterSkillElement@@2PAV1@A[eax+16], edx
  0032a	89 98 20 00 00
	00		 mov	 DWORD PTR ?s_MonsterSkillElementArray@TMonsterSkillElement@@2PAV1@A[eax+32], ebx
  00330	89 b8 1c 00 00
	00		 mov	 DWORD PTR ?s_MonsterSkillElementArray@TMonsterSkillElement@@2PAV1@A[eax+28], edi
  00336	89 b0 18 00 00
	00		 mov	 DWORD PTR ?s_MonsterSkillElementArray@TMonsterSkillElement@@2PAV1@A[eax+24], esi
  0033c	89 88 14 00 00
	00		 mov	 DWORD PTR ?s_MonsterSkillElementArray@TMonsterSkillElement@@2PAV1@A[eax+20], ecx
  00342	e9 af fd ff ff	 jmp	 $LL6@LoadData
$LN1@LoadData:

; 136  : 					{
; 137  : 						MsgBox("[Monster Element] - ElementNumber(%d) Error (%s) File. ",
; 138  : 							iElementNumber, lpszFileName);

  00347	8b 95 0c ff ff
	ff		 mov	 edx, DWORD PTR _lpszFileName$GSCopy$[ebp]
  0034d	52		 push	 edx
  0034e	56		 push	 esi
  0034f	68 00 00 00 00	 push	 OFFSET ??_C@_0DI@LDGJOAOE@?$FLMonster?5Element?$FN?5?9?5ElementNumbe@
  00354	e8 00 00 00 00	 call	 ?MsgBox@@YAXPADZZ	; MsgBox
  00359	83 c4 0c	 add	 esp, 12			; 0000000cH

; 139  : 						continue;

  0035c	e9 95 fd ff ff	 jmp	 $LL6@LoadData
$LN32@LoadData:
  00361	8b b5 0c ff ff
	ff		 mov	 esi, DWORD PTR _lpszFileName$GSCopy$[ebp]
  00367	e9 44 fd ff ff	 jmp	 $LL9@LoadData
__catch$?LoadData@TMonsterSkillElement@@SAHPAD@Z$0:

; 171  : 	}
; 172  : 	catch(...)
; 173  : 	{
; 174  : 		MsgBox("[Monster Element] - Loading Exception Error (%s) File. ", lpszFileName);	

  0036c	8b 85 0c ff ff
	ff		 mov	 eax, DWORD PTR _lpszFileName$GSCopy$[ebp]
  00372	50		 push	 eax
  00373	68 00 00 00 00	 push	 OFFSET ??_C@_0DI@MPJFELNA@?$FLMonster?5Element?$FN?5?9?5Loading?5Exce@
  00378	e8 00 00 00 00	 call	 ?MsgBox@@YAXPADZZ	; MsgBox
  0037d	83 c4 08	 add	 esp, 8

; 175  : 	}

  00380	b8 00 00 00 00	 mov	 eax, $LN34@LoadData
  00385	c3		 ret	 0
$LN12@LoadData:

; 58   : 	{
; 59   : 		MsgBox("[Monster Element] - File load error : File Name Error");

  00386	68 00 00 00 00	 push	 OFFSET ??_C@_0DG@FBIECEIN@?$FLMonster?5Element?$FN?5?9?5File?5load?5er@
  0038b	e8 00 00 00 00	 call	 ?MsgBox@@YAXPADZZ	; MsgBox
  00390	83 c4 04	 add	 esp, 4
$LN34@LoadData:

; 60   : 		return FALSE;

  00393	33 c0		 xor	 eax, eax

; 176  : 
; 177  : 	return FALSE;
; 178  : }

  00395	8b 4d f4	 mov	 ecx, DWORD PTR __$EHRec$[ebp+4]
  00398	64 89 0d 00 00
	00 00		 mov	 DWORD PTR fs:0, ecx
  0039f	59		 pop	 ecx
  003a0	5f		 pop	 edi
  003a1	5e		 pop	 esi
  003a2	5b		 pop	 ebx
  003a3	8b 4d ec	 mov	 ecx, DWORD PTR __$ArrayPad$[ebp]
  003a6	33 cd		 xor	 ecx, ebp
  003a8	e8 00 00 00 00	 call	 @__security_check_cookie@4
  003ad	8b e5		 mov	 esp, ebp
  003af	5d		 pop	 ebp
  003b0	c3		 ret	 0
_TEXT	ENDS
;	COMDAT text$x
text$x	SEGMENT
__ehhandler$?LoadData@TMonsterSkillElement@@SAHPAD@Z:
  00000	8b 54 24 08	 mov	 edx, DWORD PTR [esp+8]
  00004	8d 42 0c	 lea	 eax, DWORD PTR [edx+12]
  00007	8b 8a ec fe ff
	ff		 mov	 ecx, DWORD PTR [edx-276]
  0000d	33 c8		 xor	 ecx, eax
  0000f	e8 00 00 00 00	 call	 @__security_check_cookie@4
  00014	8b 4a f8	 mov	 ecx, DWORD PTR [edx-8]
  00017	33 c8		 xor	 ecx, eax
  00019	e8 00 00 00 00	 call	 @__security_check_cookie@4
  0001e	b8 00 00 00 00	 mov	 eax, OFFSET __ehfuncinfo$?LoadData@TMonsterSkillElement@@SAHPAD@Z
  00023	e9 00 00 00 00	 jmp	 ___CxxFrameHandler3
text$x	ENDS
?LoadData@TMonsterSkillElement@@SAHPAD@Z ENDP		; TMonsterSkillElement::LoadData
; Function compile flags: /Ogtp
;	COMDAT ?ForceSkillElement@TMonsterSkillElement@@UAEXHH@Z
_TEXT	SEGMENT
_iIndex$ = 8						; size = 4
_iTargetIndex$ = 12					; size = 4
?ForceSkillElement@TMonsterSkillElement@@UAEXHH@Z PROC	; TMonsterSkillElement::ForceSkillElement, COMDAT
; _this$ = ecx

; 212  : {

  00000	55		 push	 ebp
  00001	8b ec		 mov	 ebp, esp
  00003	56		 push	 esi
  00004	8b f1		 mov	 esi, ecx

; 213  : 	if ( (rand()%100) > this->m_iSuccessRate )

  00006	e8 00 00 00 00	 call	 _rand
  0000b	99		 cdq
  0000c	b9 64 00 00 00	 mov	 ecx, 100		; 00000064H
  00011	f7 f9		 idiv	 ecx
  00013	3b 56 20	 cmp	 edx, DWORD PTR [esi+32]
  00016	0f 8f 62 01 00
	00		 jg	 $LN23@ForceSkill

; 214  : 		return;
; 215  : 
; 216  : 	switch ( this->m_iElementType )

  0001c	8b 46 1c	 mov	 eax, DWORD PTR [esi+28]
  0001f	83 f8 15	 cmp	 eax, 21			; 00000015H
  00022	0f 87 56 01 00
	00		 ja	 $LN23@ForceSkill
  00028	ff 24 85 00 00
	00 00		 jmp	 DWORD PTR $LN28@ForceSkill[eax*4]
$LN22@ForceSkill:

; 217  : 	{
; 218  : 		case MSE_TYPE_STUN:
; 219  : 			this->ApplyElementStun(iIndex, iTargetIndex);

  0002f	8b 55 0c	 mov	 edx, DWORD PTR _iTargetIndex$[ebp]
  00032	8b 45 08	 mov	 eax, DWORD PTR _iIndex$[ebp]
  00035	52		 push	 edx
  00036	50		 push	 eax
  00037	8b ce		 mov	 ecx, esi
  00039	e8 00 00 00 00	 call	 ?ApplyElementStun@TMonsterSkillElement@@QAEHHH@Z ; TMonsterSkillElement::ApplyElementStun
  0003e	5e		 pop	 esi

; 283  : 			break;
; 284  : 	}
; 285  : }

  0003f	5d		 pop	 ebp
  00040	c2 08 00	 ret	 8
$LN20@ForceSkill:

; 220  : 			break;
; 221  : 		case MSE_TYPE_MOVE:
; 222  : 			this->ApplyElementMove(iIndex, iTargetIndex);
; 223  : 			break;
; 224  : 		case MSE_TYPE_HP:
; 225  : 			this->ApplyElementHP(iIndex, iTargetIndex);

  00043	8b 4d 0c	 mov	 ecx, DWORD PTR _iTargetIndex$[ebp]
  00046	8b 55 08	 mov	 edx, DWORD PTR _iIndex$[ebp]
  00049	51		 push	 ecx
  0004a	52		 push	 edx
  0004b	8b ce		 mov	 ecx, esi
  0004d	e8 00 00 00 00	 call	 ?ApplyElementHP@TMonsterSkillElement@@QAEHHH@Z ; TMonsterSkillElement::ApplyElementHP
  00052	5e		 pop	 esi

; 283  : 			break;
; 284  : 	}
; 285  : }

  00053	5d		 pop	 ebp
  00054	c2 08 00	 ret	 8
$LN19@ForceSkill:

; 226  : 			break;
; 227  : 		case MSE_TYPE_MP:
; 228  : 			this->ApplyElementMP(iIndex, iTargetIndex);

  00057	8b 45 0c	 mov	 eax, DWORD PTR _iTargetIndex$[ebp]
  0005a	8b 4d 08	 mov	 ecx, DWORD PTR _iIndex$[ebp]
  0005d	50		 push	 eax
  0005e	51		 push	 ecx
  0005f	8b ce		 mov	 ecx, esi
  00061	e8 00 00 00 00	 call	 ?ApplyElementMP@TMonsterSkillElement@@QAEHHH@Z ; TMonsterSkillElement::ApplyElementMP
  00066	5e		 pop	 esi

; 283  : 			break;
; 284  : 	}
; 285  : }

  00067	5d		 pop	 ebp
  00068	c2 08 00	 ret	 8
$LN18@ForceSkill:

; 229  : 			break;
; 230  : 		case MSE_TYPE_AG:
; 231  : 			this->ApplyElementAG(iIndex, iTargetIndex);

  0006b	8b 55 0c	 mov	 edx, DWORD PTR _iTargetIndex$[ebp]
  0006e	8b 45 08	 mov	 eax, DWORD PTR _iIndex$[ebp]
  00071	52		 push	 edx
  00072	50		 push	 eax
  00073	8b ce		 mov	 ecx, esi
  00075	e8 00 00 00 00	 call	 ?ApplyElementAG@TMonsterSkillElement@@QAEHHH@Z ; TMonsterSkillElement::ApplyElementAG
  0007a	5e		 pop	 esi

; 283  : 			break;
; 284  : 	}
; 285  : }

  0007b	5d		 pop	 ebp
  0007c	c2 08 00	 ret	 8
$LN17@ForceSkill:

; 232  : 			break;
; 233  : 		case MSE_TYPE_DEFENSE:
; 234  : 			this->ApplyElementDefense(iIndex, iTargetIndex);

  0007f	8b 4d 0c	 mov	 ecx, DWORD PTR _iTargetIndex$[ebp]
  00082	8b 55 08	 mov	 edx, DWORD PTR _iIndex$[ebp]
  00085	51		 push	 ecx
  00086	52		 push	 edx
  00087	8b ce		 mov	 ecx, esi
  00089	e8 00 00 00 00	 call	 ?ApplyElementDefense@TMonsterSkillElement@@QAEHHH@Z ; TMonsterSkillElement::ApplyElementDefense
  0008e	5e		 pop	 esi

; 283  : 			break;
; 284  : 	}
; 285  : }

  0008f	5d		 pop	 ebp
  00090	c2 08 00	 ret	 8
$LN16@ForceSkill:

; 235  : 			break;
; 236  : 		case MSE_TYPE_ATTACK:
; 237  : 			this->ApplyElementAttack(iIndex, iTargetIndex);

  00093	8b 45 0c	 mov	 eax, DWORD PTR _iTargetIndex$[ebp]
  00096	8b 4d 08	 mov	 ecx, DWORD PTR _iIndex$[ebp]
  00099	50		 push	 eax
  0009a	51		 push	 ecx
  0009b	8b ce		 mov	 ecx, esi
  0009d	e8 00 00 00 00	 call	 ?ApplyElementAttack@TMonsterSkillElement@@QAEHHH@Z ; TMonsterSkillElement::ApplyElementAttack
  000a2	5e		 pop	 esi

; 283  : 			break;
; 284  : 	}
; 285  : }

  000a3	5d		 pop	 ebp
  000a4	c2 08 00	 ret	 8
$LN15@ForceSkill:

; 238  : 			break;
; 239  : 		case MSE_TYPE_DURABILITY:
; 240  : 			this->ApplyElementDurability(iIndex, iTargetIndex);

  000a7	8b 55 0c	 mov	 edx, DWORD PTR _iTargetIndex$[ebp]
  000aa	8b 45 08	 mov	 eax, DWORD PTR _iIndex$[ebp]
  000ad	52		 push	 edx
  000ae	50		 push	 eax
  000af	8b ce		 mov	 ecx, esi
  000b1	e8 00 00 00 00	 call	 ?ApplyElementDurability@TMonsterSkillElement@@QAEHHH@Z ; TMonsterSkillElement::ApplyElementDurability
  000b6	5e		 pop	 esi

; 283  : 			break;
; 284  : 	}
; 285  : }

  000b7	5d		 pop	 ebp
  000b8	c2 08 00	 ret	 8
$LN14@ForceSkill:

; 241  : 			break;
; 242  : 		case MSE_TYPE_SUMMON:
; 243  : 			this->ApplyElementSummon(iIndex, iTargetIndex);

  000bb	8b 4d 0c	 mov	 ecx, DWORD PTR _iTargetIndex$[ebp]
  000be	8b 55 08	 mov	 edx, DWORD PTR _iIndex$[ebp]
  000c1	51		 push	 ecx
  000c2	52		 push	 edx
  000c3	8b ce		 mov	 ecx, esi
  000c5	e8 00 00 00 00	 call	 ?ApplyElementSummon@TMonsterSkillElement@@QAEHHH@Z ; TMonsterSkillElement::ApplyElementSummon
  000ca	5e		 pop	 esi

; 283  : 			break;
; 284  : 	}
; 285  : }

  000cb	5d		 pop	 ebp
  000cc	c2 08 00	 ret	 8
$LN13@ForceSkill:

; 244  : 			break;
; 245  : 		case MSE_TYPE_PUSH:
; 246  : 			this->ApplyElementPush(iIndex, iTargetIndex);

  000cf	8b 45 0c	 mov	 eax, DWORD PTR _iTargetIndex$[ebp]
  000d2	8b 4d 08	 mov	 ecx, DWORD PTR _iIndex$[ebp]
  000d5	50		 push	 eax
  000d6	51		 push	 ecx
  000d7	8b ce		 mov	 ecx, esi
  000d9	e8 00 00 00 00	 call	 ?ApplyElementPush@TMonsterSkillElement@@QAEHHH@Z ; TMonsterSkillElement::ApplyElementPush
  000de	5e		 pop	 esi

; 283  : 			break;
; 284  : 	}
; 285  : }

  000df	5d		 pop	 ebp
  000e0	c2 08 00	 ret	 8
$LN8@ForceSkill:

; 247  : 			break;
; 248  : 		case MSE_TYPE_STAT_ENERGY:
; 249  : 			this->ApplyElementStatEnergy(iIndex, iTargetIndex);
; 250  : 			break;
; 251  : 		case MSE_TYPE_STAT_STRENGTH:
; 252  : 			this->ApplyElementStatStrength(iIndex, iTargetIndex);
; 253  : 			break;
; 254  : 		case MSE_TYPE_STAT_DEXITERITY:
; 255  : 			this->ApplyElementStatDexiterity(iIndex, iTargetIndex);
; 256  : 			break;
; 257  : 		case MSE_TYPE_STAT_VITALITY:
; 258  : 			this->ApplyElementStatVitality(iIndex, iTargetIndex);
; 259  : 			break;
; 260  : 		case MSE_TYPE_REMOVE_SKILL:
; 261  : 			this->ApplyElementRemoveSkill(iIndex, iTargetIndex);

  000e3	8b 55 0c	 mov	 edx, DWORD PTR _iTargetIndex$[ebp]
  000e6	8b 45 08	 mov	 eax, DWORD PTR _iIndex$[ebp]
  000e9	52		 push	 edx
  000ea	50		 push	 eax
  000eb	8b ce		 mov	 ecx, esi
  000ed	e8 00 00 00 00	 call	 ?ApplyElementRemoveSkill@TMonsterSkillElement@@QAEHHH@Z ; TMonsterSkillElement::ApplyElementRemoveSkill
  000f2	5e		 pop	 esi

; 283  : 			break;
; 284  : 	}
; 285  : }

  000f3	5d		 pop	 ebp
  000f4	c2 08 00	 ret	 8
$LN7@ForceSkill:

; 262  : 			break;
; 263  : 		case MSE_TYPE_RESIST_SKILL:
; 264  : 			this->ApplyElementResistSkill(iIndex, iTargetIndex);

  000f7	8b 4d 0c	 mov	 ecx, DWORD PTR _iTargetIndex$[ebp]
  000fa	8b 55 08	 mov	 edx, DWORD PTR _iIndex$[ebp]
  000fd	51		 push	 ecx
  000fe	52		 push	 edx
  000ff	8b ce		 mov	 ecx, esi
  00101	e8 00 00 00 00	 call	 ?ApplyElementResistSkill@TMonsterSkillElement@@QAEHHH@Z ; TMonsterSkillElement::ApplyElementResistSkill
  00106	5e		 pop	 esi

; 283  : 			break;
; 284  : 	}
; 285  : }

  00107	5d		 pop	 ebp
  00108	c2 08 00	 ret	 8
$LN6@ForceSkill:

; 265  : 			break;
; 266  : 		case MSE_TYPE_IMMUNE_SKILL:
; 267  : 			this->ApplyElementImmuneSkill(iIndex, iTargetIndex);

  0010b	8b 45 0c	 mov	 eax, DWORD PTR _iTargetIndex$[ebp]
  0010e	8b 4d 08	 mov	 ecx, DWORD PTR _iIndex$[ebp]
  00111	50		 push	 eax
  00112	51		 push	 ecx
  00113	8b ce		 mov	 ecx, esi
  00115	e8 00 00 00 00	 call	 ?ApplyElementImmuneSkill@TMonsterSkillElement@@QAEHHH@Z ; TMonsterSkillElement::ApplyElementImmuneSkill
  0011a	5e		 pop	 esi

; 283  : 			break;
; 284  : 	}
; 285  : }

  0011b	5d		 pop	 ebp
  0011c	c2 08 00	 ret	 8
$LN5@ForceSkill:

; 268  : 			break;
; 269  : 		case MSE_TYPE_TELEPORT_SKILL:
; 270  : 			this->ApplyElementTeleportSkill(iIndex, iTargetIndex);

  0011f	8b 55 0c	 mov	 edx, DWORD PTR _iTargetIndex$[ebp]
  00122	8b 45 08	 mov	 eax, DWORD PTR _iIndex$[ebp]
  00125	52		 push	 edx
  00126	50		 push	 eax
  00127	8b ce		 mov	 ecx, esi
  00129	e8 00 00 00 00	 call	 ?ApplyElementTeleportSkill@TMonsterSkillElement@@QAEHHH@Z ; TMonsterSkillElement::ApplyElementTeleportSkill
  0012e	5e		 pop	 esi

; 283  : 			break;
; 284  : 	}
; 285  : }

  0012f	5d		 pop	 ebp
  00130	c2 08 00	 ret	 8
$LN4@ForceSkill:

; 271  : 			break;
; 272  : 		case MSE_TYPE_DOUBLE_HP:
; 273  : 			this->ApplyElementDoubleHP(iIndex, iTargetIndex);

  00133	8b 4d 0c	 mov	 ecx, DWORD PTR _iTargetIndex$[ebp]
  00136	8b 55 08	 mov	 edx, DWORD PTR _iIndex$[ebp]
  00139	51		 push	 ecx
  0013a	52		 push	 edx
  0013b	8b ce		 mov	 ecx, esi
  0013d	e8 00 00 00 00	 call	 ?ApplyElementDoubleHP@TMonsterSkillElement@@QAEHHH@Z ; TMonsterSkillElement::ApplyElementDoubleHP
  00142	5e		 pop	 esi

; 283  : 			break;
; 284  : 	}
; 285  : }

  00143	5d		 pop	 ebp
  00144	c2 08 00	 ret	 8
$LN3@ForceSkill:

; 274  : 			break;
; 275  : 		case MSE_TYPE_POISON:
; 276  : 			this->ApplyElementPoison(iIndex, iTargetIndex);

  00147	8b 45 0c	 mov	 eax, DWORD PTR _iTargetIndex$[ebp]
  0014a	8b 4d 08	 mov	 ecx, DWORD PTR _iIndex$[ebp]
  0014d	50		 push	 eax
  0014e	51		 push	 ecx
  0014f	8b ce		 mov	 ecx, esi
  00151	e8 00 00 00 00	 call	 ?ApplyElementPoison@TMonsterSkillElement@@QAEHHH@Z ; TMonsterSkillElement::ApplyElementPoison
  00156	5e		 pop	 esi

; 283  : 			break;
; 284  : 	}
; 285  : }

  00157	5d		 pop	 ebp
  00158	c2 08 00	 ret	 8
$LN2@ForceSkill:

; 277  : 			break;
; 278  : 		case MSE_TYPE_NORMALATTACK:
; 279  : 			this->ApplyElementNormalAttack(iIndex, iTargetIndex);

  0015b	8b 55 0c	 mov	 edx, DWORD PTR _iTargetIndex$[ebp]
  0015e	8b 45 08	 mov	 eax, DWORD PTR _iIndex$[ebp]
  00161	52		 push	 edx
  00162	50		 push	 eax
  00163	8b ce		 mov	 ecx, esi
  00165	e8 00 00 00 00	 call	 ?ApplyElementNormalAttack@TMonsterSkillElement@@QAEHHH@Z ; TMonsterSkillElement::ApplyElementNormalAttack
  0016a	5e		 pop	 esi

; 283  : 			break;
; 284  : 	}
; 285  : }

  0016b	5d		 pop	 ebp
  0016c	c2 08 00	 ret	 8
$LN1@ForceSkill:

; 280  : 			break;
; 281  : 		case MSE_TYPE_BERSERK://Season 4.5 addon
; 282  : 			this->ApplyElementBerserk(iIndex, iTargetIndex);//Season 4.5 addon

  0016f	8b 4d 0c	 mov	 ecx, DWORD PTR _iTargetIndex$[ebp]
  00172	8b 55 08	 mov	 edx, DWORD PTR _iIndex$[ebp]
  00175	51		 push	 ecx
  00176	52		 push	 edx
  00177	8b ce		 mov	 ecx, esi
  00179	e8 00 00 00 00	 call	 ?ApplyElementBerserk@TMonsterSkillElement@@QAEHHH@Z ; TMonsterSkillElement::ApplyElementBerserk
$LN23@ForceSkill:
  0017e	5e		 pop	 esi

; 283  : 			break;
; 284  : 	}
; 285  : }

  0017f	5d		 pop	 ebp
  00180	c2 08 00	 ret	 8
  00183	90		 npad	 1
$LN28@ForceSkill:
  00184	00 00 00 00	 DD	 $LN22@ForceSkill
  00188	00 00 00 00	 DD	 $LN23@ForceSkill
  0018c	00 00 00 00	 DD	 $LN20@ForceSkill
  00190	00 00 00 00	 DD	 $LN19@ForceSkill
  00194	00 00 00 00	 DD	 $LN18@ForceSkill
  00198	00 00 00 00	 DD	 $LN17@ForceSkill
  0019c	00 00 00 00	 DD	 $LN16@ForceSkill
  001a0	00 00 00 00	 DD	 $LN15@ForceSkill
  001a4	00 00 00 00	 DD	 $LN14@ForceSkill
  001a8	00 00 00 00	 DD	 $LN13@ForceSkill
  001ac	00 00 00 00	 DD	 $LN23@ForceSkill
  001b0	00 00 00 00	 DD	 $LN23@ForceSkill
  001b4	00 00 00 00	 DD	 $LN23@ForceSkill
  001b8	00 00 00 00	 DD	 $LN23@ForceSkill
  001bc	00 00 00 00	 DD	 $LN8@ForceSkill
  001c0	00 00 00 00	 DD	 $LN7@ForceSkill
  001c4	00 00 00 00	 DD	 $LN6@ForceSkill
  001c8	00 00 00 00	 DD	 $LN5@ForceSkill
  001cc	00 00 00 00	 DD	 $LN4@ForceSkill
  001d0	00 00 00 00	 DD	 $LN3@ForceSkill
  001d4	00 00 00 00	 DD	 $LN2@ForceSkill
  001d8	00 00 00 00	 DD	 $LN1@ForceSkill
?ForceSkillElement@TMonsterSkillElement@@UAEXHH@Z ENDP	; TMonsterSkillElement::ForceSkillElement
_TEXT	ENDS
EXTRN	_atexit:PROC
EXTRN	??_L@YGXPAXIHP6EX0@Z1@Z:PROC			; `eh vector constructor iterator'
; Function compile flags: /Ogtp
;	COMDAT ??__E?s_MonsterSkillElementArray@TMonsterSkillElement@@2PAV1@A@@YAXXZ
text$yc	SEGMENT
??__E?s_MonsterSkillElementArray@TMonsterSkillElement@@2PAV1@A@@YAXXZ PROC ; `dynamic initializer for 'TMonsterSkillElement::s_MonsterSkillElementArray'', COMDAT

; 23   : TMonsterSkillElement TMonsterSkillElement::s_MonsterSkillElementArray[MAX_MONSTER_SKILL_ELEMENT];

  00000	68 00 00 00 00	 push	 OFFSET ??1TMonsterSkillElement@@UAE@XZ ; TMonsterSkillElement::~TMonsterSkillElement
  00005	68 00 00 00 00	 push	 OFFSET ??0TMonsterSkillElement@@QAE@XZ ; TMonsterSkillElement::TMonsterSkillElement
  0000a	6a 64		 push	 100			; 00000064H
  0000c	6a 3c		 push	 60			; 0000003cH
  0000e	68 00 00 00 00	 push	 OFFSET ?s_MonsterSkillElementArray@TMonsterSkillElement@@2PAV1@A ; TMonsterSkillElement::s_MonsterSkillElementArray
  00013	e8 00 00 00 00	 call	 ??_L@YGXPAXIHP6EX0@Z1@Z
  00018	68 00 00 00 00	 push	 OFFSET ??__F?s_MonsterSkillElementArray@TMonsterSkillElement@@2PAV1@A@@YAXXZ ; `dynamic atexit destructor for 'TMonsterSkillElement::s_MonsterSkillElementArray''
  0001d	e8 00 00 00 00	 call	 _atexit
  00022	59		 pop	 ecx
  00023	c3		 ret	 0
??__E?s_MonsterSkillElementArray@TMonsterSkillElement@@2PAV1@A@@YAXXZ ENDP ; `dynamic initializer for 'TMonsterSkillElement::s_MonsterSkillElementArray''
text$yc	ENDS
EXTRN	??_M@YGXPAXIHP6EX0@Z@Z:PROC			; `eh vector destructor iterator'
; Function compile flags: /Ogtp
;	COMDAT ??__F?s_MonsterSkillElementArray@TMonsterSkillElement@@2PAV1@A@@YAXXZ
text$yd	SEGMENT
??__F?s_MonsterSkillElementArray@TMonsterSkillElement@@2PAV1@A@@YAXXZ PROC ; `dynamic atexit destructor for 'TMonsterSkillElement::s_MonsterSkillElementArray'', COMDAT
  00000	68 00 00 00 00	 push	 OFFSET ??1TMonsterSkillElement@@UAE@XZ ; TMonsterSkillElement::~TMonsterSkillElement
  00005	6a 64		 push	 100			; 00000064H
  00007	6a 3c		 push	 60			; 0000003cH
  00009	68 00 00 00 00	 push	 OFFSET ?s_MonsterSkillElementArray@TMonsterSkillElement@@2PAV1@A ; TMonsterSkillElement::s_MonsterSkillElementArray
  0000e	e8 00 00 00 00	 call	 ??_M@YGXPAXIHP6EX0@Z@Z
  00013	c3		 ret	 0
??__F?s_MonsterSkillElementArray@TMonsterSkillElement@@2PAV1@A@@YAXXZ ENDP ; `dynamic atexit destructor for 'TMonsterSkillElement::s_MonsterSkillElementArray''
text$yd	ENDS
PUBLIC	?s_MonsterSkillElementArray@TMonsterSkillElement@@2PAV1@A ; TMonsterSkillElement::s_MonsterSkillElementArray
_BSS	SEGMENT
?s_MonsterSkillElementArray@TMonsterSkillElement@@2PAV1@A DB 01770H DUP (?) ; TMonsterSkillElement::s_MonsterSkillElementArray
_BSS	ENDS
CRT$XCU	SEGMENT
?s_MonsterSkillElementArray$initializer$@TMonsterSkillElement@@2P6AXXZA DD FLAT:??__E?s_MonsterSkillElementArray@TMonsterSkillElement@@2PAV1@A@@YAXXZ ; TMonsterSkillElement::s_MonsterSkillElementArray$initializer$
CRT$XCU	ENDS
END
