; Listing generated by Microsoft (R) Optimizing Compiler Version 16.00.30319.01 

	TITLE	E:\work\tranet_version\GS\GameServer\TvTEvent.cpp
	.686P
	.XMM
	include listing.inc
	.model	flat

INCLUDELIB LIBCMT
INCLUDELIB OLDNAMES

PUBLIC	?TvT@@3VcTvTEvent@@A				; TvT
_BSS	SEGMENT
?TvT@@3VcTvTEvent@@A DB 02bfe4H DUP (?)			; TvT
_BSS	ENDS
PUBLIC	??_H@YGXPAXIHP6EPAX0@Z@Z			; `vector constructor iterator'
; Function compile flags: /Ogtp
;	COMDAT ??_H@YGXPAXIHP6EPAX0@Z@Z
_TEXT	SEGMENT
___t$ = 8						; size = 4
___s$ = 12						; size = 4
___n$ = 16						; size = 4
___f$ = 20						; size = 4
??_H@YGXPAXIHP6EPAX0@Z@Z PROC				; `vector constructor iterator', COMDAT
  00000	55		 push	 ebp
  00001	8b ec		 mov	 ebp, esp
  00003	57		 push	 edi
  00004	8b 7d 10	 mov	 edi, DWORD PTR ___n$[ebp]
  00007	4f		 dec	 edi
  00008	78 14		 js	 SHORT $LN1@vector
  0000a	53		 push	 ebx
  0000b	8b 5d 14	 mov	 ebx, DWORD PTR ___f$[ebp]
  0000e	56		 push	 esi
  0000f	8b 75 08	 mov	 esi, DWORD PTR ___t$[ebp]
$LL2@vector:
  00012	8b ce		 mov	 ecx, esi
  00014	ff d3		 call	 ebx
  00016	03 75 0c	 add	 esi, DWORD PTR ___s$[ebp]
  00019	4f		 dec	 edi
  0001a	79 f6		 jns	 SHORT $LL2@vector
  0001c	5e		 pop	 esi
  0001d	5b		 pop	 ebx
$LN1@vector:
  0001e	5f		 pop	 edi
  0001f	5d		 pop	 ebp
  00020	c2 10 00	 ret	 16			; 00000010H
??_H@YGXPAXIHP6EPAX0@Z@Z ENDP				; `vector constructor iterator'
_TEXT	ENDS
PUBLIC	??_C@_05OKMLJOMC@?$CFd?5?$CFd?$AA@		; `string'
PUBLIC	??_C@_01KDCPPGHE@r?$AA@				; `string'
PUBLIC	??_C@_0M@GKANHJGB@RewardWCoin?$AA@		; `string'
PUBLIC	??_C@_0O@CPGEBMDE@RewardExPoint?$AA@		; `string'
PUBLIC	??_C@_0BA@CDGAONCL@RewardItemCount?$AA@		; `string'
PUBLIC	??_C@_0BA@PCEKEDNL@ItemRewardLevel?$AA@		; `string'
PUBLIC	??_C@_0BA@BOJKLDI@ItemRewardIndex?$AA@		; `string'
PUBLIC	??_C@_0P@CCJFPAPG@ItemRewardType?$AA@		; `string'
PUBLIC	??_C@_0L@MMIEHGGH@RewardItem?$AA@		; `string'
PUBLIC	??_C@_09OHFGCBJB@EventTime?$AA@			; `string'
PUBLIC	??_C@_0M@PMKNLFB@WaitingTime?$AA@		; `string'
PUBLIC	??_C@_08MMIBNIFM@RedTeamY?$AA@			; `string'
PUBLIC	??_C@_08NFJKOJBN@RedTeamX?$AA@			; `string'
PUBLIC	??_C@_08LOKHBGHM@BluTeamY?$AA@			; `string'
PUBLIC	??_C@_08KHLMCHDN@BluTeamX?$AA@			; `string'
PUBLIC	??_C@_08PECDIPJO@WaitingY?$AA@			; `string'
PUBLIC	??_C@_08ONDILONP@WaitingX?$AA@			; `string'
PUBLIC	??_C@_0L@CLJENFCP@WaitingMap?$AA@		; `string'
PUBLIC	??_C@_0BA@MDFLFLBC@DisplayCommands?$AA@		; `string'
PUBLIC	??_C@_0P@KPEMLNLF@NeedGrandReset?$AA@		; `string'
PUBLIC	??_C@_09BFBEJNC@NeedReset?$AA@			; `string'
PUBLIC	??_C@_09INEIECFC@NeedLevel?$AA@			; `string'
PUBLIC	??_C@_03BCJIDNJL@NPC?$AA@			; `string'
PUBLIC	??_C@_06POMJKEPM@Common?$AA@			; `string'
PUBLIC	??_C@_06CKGENIKG@Enable?$AA@			; `string'
PUBLIC	??_C@_0CD@GGOJBOJK@?4?4?2Data?2ZtData?2Events?2TvTEvent?4i@ ; `string'
PUBLIC	__$ArrayPad$
PUBLIC	?Load@cTvTEvent@@QAEXXZ				; cTvTEvent::Load
EXTRN	_fclose:PROC
EXTRN	_sscanf:PROC
EXTRN	?Zt_IsBadFileLine@@YA_NPADAAH@Z:PROC		; Zt_IsBadFileLine
EXTRN	_fgets:PROC
EXTRN	_feof:PROC
EXTRN	_fopen:PROC
EXTRN	?CheckUser@CZtLicense@@QAE_NH@Z:PROC		; CZtLicense::CheckUser
EXTRN	?g_ZtLicense@@3VCZtLicense@@A:BYTE		; g_ZtLicense
EXTRN	__imp__GetPrivateProfileIntA@16:PROC
EXTRN	___security_cookie:DWORD
EXTRN	@__security_check_cookie@4:PROC
;	COMDAT ??_C@_05OKMLJOMC@?$CFd?5?$CFd?$AA@
; File e:\work\tranet_version\gs\gameserver\tvtevent.cpp
CONST	SEGMENT
??_C@_05OKMLJOMC@?$CFd?5?$CFd?$AA@ DB '%d %d', 00H	; `string'
CONST	ENDS
;	COMDAT ??_C@_01KDCPPGHE@r?$AA@
CONST	SEGMENT
??_C@_01KDCPPGHE@r?$AA@ DB 'r', 00H			; `string'
CONST	ENDS
;	COMDAT ??_C@_0M@GKANHJGB@RewardWCoin?$AA@
CONST	SEGMENT
??_C@_0M@GKANHJGB@RewardWCoin?$AA@ DB 'RewardWCoin', 00H ; `string'
CONST	ENDS
;	COMDAT ??_C@_0O@CPGEBMDE@RewardExPoint?$AA@
CONST	SEGMENT
??_C@_0O@CPGEBMDE@RewardExPoint?$AA@ DB 'RewardExPoint', 00H ; `string'
CONST	ENDS
;	COMDAT ??_C@_0BA@CDGAONCL@RewardItemCount?$AA@
CONST	SEGMENT
??_C@_0BA@CDGAONCL@RewardItemCount?$AA@ DB 'RewardItemCount', 00H ; `string'
CONST	ENDS
;	COMDAT ??_C@_0BA@PCEKEDNL@ItemRewardLevel?$AA@
CONST	SEGMENT
??_C@_0BA@PCEKEDNL@ItemRewardLevel?$AA@ DB 'ItemRewardLevel', 00H ; `string'
CONST	ENDS
;	COMDAT ??_C@_0BA@BOJKLDI@ItemRewardIndex?$AA@
CONST	SEGMENT
??_C@_0BA@BOJKLDI@ItemRewardIndex?$AA@ DB 'ItemRewardIndex', 00H ; `string'
CONST	ENDS
;	COMDAT ??_C@_0P@CCJFPAPG@ItemRewardType?$AA@
CONST	SEGMENT
??_C@_0P@CCJFPAPG@ItemRewardType?$AA@ DB 'ItemRewardType', 00H ; `string'
CONST	ENDS
;	COMDAT ??_C@_0L@MMIEHGGH@RewardItem?$AA@
CONST	SEGMENT
??_C@_0L@MMIEHGGH@RewardItem?$AA@ DB 'RewardItem', 00H	; `string'
CONST	ENDS
;	COMDAT ??_C@_09OHFGCBJB@EventTime?$AA@
CONST	SEGMENT
??_C@_09OHFGCBJB@EventTime?$AA@ DB 'EventTime', 00H	; `string'
CONST	ENDS
;	COMDAT ??_C@_0M@PMKNLFB@WaitingTime?$AA@
CONST	SEGMENT
??_C@_0M@PMKNLFB@WaitingTime?$AA@ DB 'WaitingTime', 00H	; `string'
CONST	ENDS
;	COMDAT ??_C@_08MMIBNIFM@RedTeamY?$AA@
CONST	SEGMENT
??_C@_08MMIBNIFM@RedTeamY?$AA@ DB 'RedTeamY', 00H	; `string'
CONST	ENDS
;	COMDAT ??_C@_08NFJKOJBN@RedTeamX?$AA@
CONST	SEGMENT
??_C@_08NFJKOJBN@RedTeamX?$AA@ DB 'RedTeamX', 00H	; `string'
CONST	ENDS
;	COMDAT ??_C@_08LOKHBGHM@BluTeamY?$AA@
CONST	SEGMENT
??_C@_08LOKHBGHM@BluTeamY?$AA@ DB 'BluTeamY', 00H	; `string'
CONST	ENDS
;	COMDAT ??_C@_08KHLMCHDN@BluTeamX?$AA@
CONST	SEGMENT
??_C@_08KHLMCHDN@BluTeamX?$AA@ DB 'BluTeamX', 00H	; `string'
CONST	ENDS
;	COMDAT ??_C@_08PECDIPJO@WaitingY?$AA@
CONST	SEGMENT
??_C@_08PECDIPJO@WaitingY?$AA@ DB 'WaitingY', 00H	; `string'
CONST	ENDS
;	COMDAT ??_C@_08ONDILONP@WaitingX?$AA@
CONST	SEGMENT
??_C@_08ONDILONP@WaitingX?$AA@ DB 'WaitingX', 00H	; `string'
CONST	ENDS
;	COMDAT ??_C@_0L@CLJENFCP@WaitingMap?$AA@
CONST	SEGMENT
??_C@_0L@CLJENFCP@WaitingMap?$AA@ DB 'WaitingMap', 00H	; `string'
CONST	ENDS
;	COMDAT ??_C@_0BA@MDFLFLBC@DisplayCommands?$AA@
CONST	SEGMENT
??_C@_0BA@MDFLFLBC@DisplayCommands?$AA@ DB 'DisplayCommands', 00H ; `string'
CONST	ENDS
;	COMDAT ??_C@_0P@KPEMLNLF@NeedGrandReset?$AA@
CONST	SEGMENT
??_C@_0P@KPEMLNLF@NeedGrandReset?$AA@ DB 'NeedGrandReset', 00H ; `string'
CONST	ENDS
;	COMDAT ??_C@_09BFBEJNC@NeedReset?$AA@
CONST	SEGMENT
??_C@_09BFBEJNC@NeedReset?$AA@ DB 'NeedReset', 00H	; `string'
CONST	ENDS
;	COMDAT ??_C@_09INEIECFC@NeedLevel?$AA@
CONST	SEGMENT
??_C@_09INEIECFC@NeedLevel?$AA@ DB 'NeedLevel', 00H	; `string'
CONST	ENDS
;	COMDAT ??_C@_03BCJIDNJL@NPC?$AA@
CONST	SEGMENT
??_C@_03BCJIDNJL@NPC?$AA@ DB 'NPC', 00H			; `string'
CONST	ENDS
;	COMDAT ??_C@_06POMJKEPM@Common?$AA@
CONST	SEGMENT
??_C@_06POMJKEPM@Common?$AA@ DB 'Common', 00H		; `string'
CONST	ENDS
;	COMDAT ??_C@_06CKGENIKG@Enable?$AA@
CONST	SEGMENT
??_C@_06CKGENIKG@Enable?$AA@ DB 'Enable', 00H		; `string'
CONST	ENDS
;	COMDAT ??_C@_0CD@GGOJBOJK@?4?4?2Data?2ZtData?2Events?2TvTEvent?4i@
CONST	SEGMENT
??_C@_0CD@GGOJBOJK@?4?4?2Data?2ZtData?2Events?2TvTEvent?4i@ DB '..\Data\Z'
	DB	'tData\Events\TvTEvent.ini', 00H		; `string'
; Function compile flags: /Ogtp
CONST	ENDS
;	COMDAT ?Load@cTvTEvent@@QAEXXZ
_TEXT	SEGMENT
_n$203331 = -272					; size = 8
_Flag$ = -264						; size = 4
_Buff$ = -260						; size = 256
__$ArrayPad$ = -4					; size = 4
?Load@cTvTEvent@@QAEXXZ PROC				; cTvTEvent::Load, COMDAT
; _this$ = ecx

; 15   : {

  00000	55		 push	 ebp
  00001	8b ec		 mov	 ebp, esp
  00003	81 ec 10 01 00
	00		 sub	 esp, 272		; 00000110H
  00009	a1 00 00 00 00	 mov	 eax, DWORD PTR ___security_cookie
  0000e	33 c5		 xor	 eax, ebp
  00010	89 45 fc	 mov	 DWORD PTR __$ArrayPad$[ebp], eax
  00013	53		 push	 ebx
  00014	56		 push	 esi
  00015	57		 push	 edi

; 16   : 
; 17   : 	//CheckFile(TVT_DIR);
; 18   : 
; 19   : 	this->Enable = GetPrivateProfileInt("Common","Enable",0,TVT_DIR);

  00016	8b 3d 00 00 00
	00		 mov	 edi, DWORD PTR __imp__GetPrivateProfileIntA@16
  0001c	68 00 00 00 00	 push	 OFFSET ??_C@_0CD@GGOJBOJK@?4?4?2Data?2ZtData?2Events?2TvTEvent?4i@
  00021	33 db		 xor	 ebx, ebx
  00023	53		 push	 ebx
  00024	68 00 00 00 00	 push	 OFFSET ??_C@_06CKGENIKG@Enable?$AA@
  00029	68 00 00 00 00	 push	 OFFSET ??_C@_06POMJKEPM@Common?$AA@
  0002e	8b f1		 mov	 esi, ecx
  00030	ff d7		 call	 edi
  00032	89 06		 mov	 DWORD PTR [esi], eax

; 20   : 	if(!this->Enable) return;

  00034	3b c3		 cmp	 eax, ebx
  00036	0f 84 6f 03 00
	00		 je	 $LN15@Load

; 21   : 	this->NPC = GetPrivateProfileInt("Common","NPC",0,TVT_DIR);

  0003c	68 00 00 00 00	 push	 OFFSET ??_C@_0CD@GGOJBOJK@?4?4?2Data?2ZtData?2Events?2TvTEvent?4i@
  00041	53		 push	 ebx
  00042	68 00 00 00 00	 push	 OFFSET ??_C@_03BCJIDNJL@NPC?$AA@
  00047	68 00 00 00 00	 push	 OFFSET ??_C@_06POMJKEPM@Common?$AA@
  0004c	ff d7		 call	 edi

; 22   : 
; 23   : 	this->NeedLevel = GetPrivateProfileInt("Common","NeedLevel",0,TVT_DIR);

  0004e	68 00 00 00 00	 push	 OFFSET ??_C@_0CD@GGOJBOJK@?4?4?2Data?2ZtData?2Events?2TvTEvent?4i@
  00053	53		 push	 ebx
  00054	68 00 00 00 00	 push	 OFFSET ??_C@_09INEIECFC@NeedLevel?$AA@
  00059	68 00 00 00 00	 push	 OFFSET ??_C@_06POMJKEPM@Common?$AA@
  0005e	89 46 04	 mov	 DWORD PTR [esi+4], eax
  00061	ff d7		 call	 edi

; 24   : 	this->NeedReset = GetPrivateProfileInt("Common","NeedReset",0,TVT_DIR);

  00063	68 00 00 00 00	 push	 OFFSET ??_C@_0CD@GGOJBOJK@?4?4?2Data?2ZtData?2Events?2TvTEvent?4i@
  00068	53		 push	 ebx
  00069	68 00 00 00 00	 push	 OFFSET ??_C@_09BFBEJNC@NeedReset?$AA@
  0006e	68 00 00 00 00	 push	 OFFSET ??_C@_06POMJKEPM@Common?$AA@
  00073	89 46 08	 mov	 DWORD PTR [esi+8], eax
  00076	ff d7		 call	 edi

; 25   : 	this->NeedGrandReset = GetPrivateProfileInt("Common","NeedGrandReset",0,TVT_DIR);

  00078	68 00 00 00 00	 push	 OFFSET ??_C@_0CD@GGOJBOJK@?4?4?2Data?2ZtData?2Events?2TvTEvent?4i@
  0007d	53		 push	 ebx
  0007e	68 00 00 00 00	 push	 OFFSET ??_C@_0P@KPEMLNLF@NeedGrandReset?$AA@
  00083	68 00 00 00 00	 push	 OFFSET ??_C@_06POMJKEPM@Common?$AA@
  00088	89 46 0c	 mov	 DWORD PTR [esi+12], eax
  0008b	ff d7		 call	 edi

; 26   : 
; 27   : 	this->DisplayCommands = GetPrivateProfileInt("Common","DisplayCommands",1,TVT_DIR);

  0008d	68 00 00 00 00	 push	 OFFSET ??_C@_0CD@GGOJBOJK@?4?4?2Data?2ZtData?2Events?2TvTEvent?4i@
  00092	6a 01		 push	 1
  00094	68 00 00 00 00	 push	 OFFSET ??_C@_0BA@MDFLFLBC@DisplayCommands?$AA@
  00099	68 00 00 00 00	 push	 OFFSET ??_C@_06POMJKEPM@Common?$AA@
  0009e	89 46 10	 mov	 DWORD PTR [esi+16], eax
  000a1	ff d7		 call	 edi

; 28   : 
; 29   : 	this->WaitingMap = GetPrivateProfileInt("Common","WaitingMap",0,TVT_DIR);

  000a3	68 00 00 00 00	 push	 OFFSET ??_C@_0CD@GGOJBOJK@?4?4?2Data?2ZtData?2Events?2TvTEvent?4i@
  000a8	53		 push	 ebx
  000a9	68 00 00 00 00	 push	 OFFSET ??_C@_0L@CLJENFCP@WaitingMap?$AA@
  000ae	68 00 00 00 00	 push	 OFFSET ??_C@_06POMJKEPM@Common?$AA@
  000b3	89 46 14	 mov	 DWORD PTR [esi+20], eax
  000b6	ff d7		 call	 edi

; 30   : 	this->WaitingX = GetPrivateProfileInt("Common","WaitingX",0,TVT_DIR);

  000b8	68 00 00 00 00	 push	 OFFSET ??_C@_0CD@GGOJBOJK@?4?4?2Data?2ZtData?2Events?2TvTEvent?4i@
  000bd	53		 push	 ebx
  000be	68 00 00 00 00	 push	 OFFSET ??_C@_08ONDILONP@WaitingX?$AA@
  000c3	68 00 00 00 00	 push	 OFFSET ??_C@_06POMJKEPM@Common?$AA@
  000c8	89 46 18	 mov	 DWORD PTR [esi+24], eax
  000cb	ff d7		 call	 edi

; 31   : 	this->WaitingY = GetPrivateProfileInt("Common","WaitingY",0,TVT_DIR);

  000cd	68 00 00 00 00	 push	 OFFSET ??_C@_0CD@GGOJBOJK@?4?4?2Data?2ZtData?2Events?2TvTEvent?4i@
  000d2	53		 push	 ebx
  000d3	68 00 00 00 00	 push	 OFFSET ??_C@_08PECDIPJO@WaitingY?$AA@
  000d8	68 00 00 00 00	 push	 OFFSET ??_C@_06POMJKEPM@Common?$AA@
  000dd	89 46 1c	 mov	 DWORD PTR [esi+28], eax
  000e0	ff d7		 call	 edi

; 32   : 
; 33   : 	this->BluTeamX = GetPrivateProfileInt("Common","BluTeamX",0,TVT_DIR);

  000e2	68 00 00 00 00	 push	 OFFSET ??_C@_0CD@GGOJBOJK@?4?4?2Data?2ZtData?2Events?2TvTEvent?4i@
  000e7	53		 push	 ebx
  000e8	68 00 00 00 00	 push	 OFFSET ??_C@_08KHLMCHDN@BluTeamX?$AA@
  000ed	68 00 00 00 00	 push	 OFFSET ??_C@_06POMJKEPM@Common?$AA@
  000f2	89 46 20	 mov	 DWORD PTR [esi+32], eax
  000f5	ff d7		 call	 edi

; 34   : 	this->BluTeamY = GetPrivateProfileInt("Common","BluTeamY",0,TVT_DIR);

  000f7	68 00 00 00 00	 push	 OFFSET ??_C@_0CD@GGOJBOJK@?4?4?2Data?2ZtData?2Events?2TvTEvent?4i@
  000fc	53		 push	 ebx
  000fd	68 00 00 00 00	 push	 OFFSET ??_C@_08LOKHBGHM@BluTeamY?$AA@
  00102	68 00 00 00 00	 push	 OFFSET ??_C@_06POMJKEPM@Common?$AA@
  00107	89 46 24	 mov	 DWORD PTR [esi+36], eax
  0010a	ff d7		 call	 edi

; 35   : 
; 36   : 	this->RedTeamX = GetPrivateProfileInt("Common","RedTeamX",0,TVT_DIR);

  0010c	68 00 00 00 00	 push	 OFFSET ??_C@_0CD@GGOJBOJK@?4?4?2Data?2ZtData?2Events?2TvTEvent?4i@
  00111	53		 push	 ebx
  00112	68 00 00 00 00	 push	 OFFSET ??_C@_08NFJKOJBN@RedTeamX?$AA@
  00117	68 00 00 00 00	 push	 OFFSET ??_C@_06POMJKEPM@Common?$AA@
  0011c	89 46 28	 mov	 DWORD PTR [esi+40], eax
  0011f	ff d7		 call	 edi

; 37   : 	this->RedTeamY = GetPrivateProfileInt("Common","RedTeamY",0,TVT_DIR);

  00121	68 00 00 00 00	 push	 OFFSET ??_C@_0CD@GGOJBOJK@?4?4?2Data?2ZtData?2Events?2TvTEvent?4i@
  00126	53		 push	 ebx
  00127	68 00 00 00 00	 push	 OFFSET ??_C@_08MMIBNIFM@RedTeamY?$AA@
  0012c	68 00 00 00 00	 push	 OFFSET ??_C@_06POMJKEPM@Common?$AA@
  00131	89 46 2c	 mov	 DWORD PTR [esi+44], eax
  00134	ff d7		 call	 edi

; 38   : 
; 39   : 	this->WaitingTime = GetPrivateProfileInt("Common","WaitingTime",0,TVT_DIR) * 60;

  00136	68 00 00 00 00	 push	 OFFSET ??_C@_0CD@GGOJBOJK@?4?4?2Data?2ZtData?2Events?2TvTEvent?4i@
  0013b	53		 push	 ebx
  0013c	68 00 00 00 00	 push	 OFFSET ??_C@_0M@PMKNLFB@WaitingTime?$AA@
  00141	68 00 00 00 00	 push	 OFFSET ??_C@_06POMJKEPM@Common?$AA@
  00146	89 46 30	 mov	 DWORD PTR [esi+48], eax
  00149	ff d7		 call	 edi
  0014b	8b c8		 mov	 ecx, eax
  0014d	c1 e1 04	 shl	 ecx, 4
  00150	2b c8		 sub	 ecx, eax
  00152	03 c9		 add	 ecx, ecx

; 40   : 
; 41   : 	this->EventTime = GetPrivateProfileInt("Common","EventTime",0,TVT_DIR) * 60;

  00154	68 00 00 00 00	 push	 OFFSET ??_C@_0CD@GGOJBOJK@?4?4?2Data?2ZtData?2Events?2TvTEvent?4i@
  00159	53		 push	 ebx
  0015a	68 00 00 00 00	 push	 OFFSET ??_C@_09OHFGCBJB@EventTime?$AA@
  0015f	03 c9		 add	 ecx, ecx
  00161	68 00 00 00 00	 push	 OFFSET ??_C@_06POMJKEPM@Common?$AA@
  00166	89 4e 34	 mov	 DWORD PTR [esi+52], ecx
  00169	ff d7		 call	 edi
  0016b	8b d0		 mov	 edx, eax
  0016d	c1 e2 04	 shl	 edx, 4

; 42   : 
; 43   : 	
; 44   : 	this->RewardItem = GetPrivateProfileInt("Common","RewardItem",0,TVT_DIR);

  00170	68 00 00 00 00	 push	 OFFSET ??_C@_0CD@GGOJBOJK@?4?4?2Data?2ZtData?2Events?2TvTEvent?4i@
  00175	2b d0		 sub	 edx, eax
  00177	53		 push	 ebx
  00178	03 d2		 add	 edx, edx
  0017a	68 00 00 00 00	 push	 OFFSET ??_C@_0L@MMIEHGGH@RewardItem?$AA@
  0017f	03 d2		 add	 edx, edx
  00181	68 00 00 00 00	 push	 OFFSET ??_C@_06POMJKEPM@Common?$AA@
  00186	89 56 38	 mov	 DWORD PTR [esi+56], edx
  00189	ff d7		 call	 edi

; 45   : 	this->ItemRewardType = GetPrivateProfileInt("Common","ItemRewardType",0,TVT_DIR);

  0018b	68 00 00 00 00	 push	 OFFSET ??_C@_0CD@GGOJBOJK@?4?4?2Data?2ZtData?2Events?2TvTEvent?4i@
  00190	53		 push	 ebx
  00191	68 00 00 00 00	 push	 OFFSET ??_C@_0P@CCJFPAPG@ItemRewardType?$AA@
  00196	68 00 00 00 00	 push	 OFFSET ??_C@_06POMJKEPM@Common?$AA@
  0019b	89 46 3c	 mov	 DWORD PTR [esi+60], eax
  0019e	ff d7		 call	 edi

; 46   : 	this->ItemRewardIndex = GetPrivateProfileInt("Common","ItemRewardIndex",0,TVT_DIR);

  001a0	68 00 00 00 00	 push	 OFFSET ??_C@_0CD@GGOJBOJK@?4?4?2Data?2ZtData?2Events?2TvTEvent?4i@
  001a5	53		 push	 ebx
  001a6	68 00 00 00 00	 push	 OFFSET ??_C@_0BA@BOJKLDI@ItemRewardIndex?$AA@
  001ab	68 00 00 00 00	 push	 OFFSET ??_C@_06POMJKEPM@Common?$AA@
  001b0	89 46 40	 mov	 DWORD PTR [esi+64], eax
  001b3	ff d7		 call	 edi

; 47   : 	this->ItemRewardLevel = GetPrivateProfileInt("Common","ItemRewardLevel",0,TVT_DIR);

  001b5	68 00 00 00 00	 push	 OFFSET ??_C@_0CD@GGOJBOJK@?4?4?2Data?2ZtData?2Events?2TvTEvent?4i@
  001ba	53		 push	 ebx
  001bb	68 00 00 00 00	 push	 OFFSET ??_C@_0BA@PCEKEDNL@ItemRewardLevel?$AA@
  001c0	68 00 00 00 00	 push	 OFFSET ??_C@_06POMJKEPM@Common?$AA@
  001c5	89 46 44	 mov	 DWORD PTR [esi+68], eax
  001c8	ff d7		 call	 edi

; 48   : 	this->RewardItemCount = GetPrivateProfileInt("Common","RewardItemCount",1,TVT_DIR);

  001ca	68 00 00 00 00	 push	 OFFSET ??_C@_0CD@GGOJBOJK@?4?4?2Data?2ZtData?2Events?2TvTEvent?4i@
  001cf	6a 01		 push	 1
  001d1	68 00 00 00 00	 push	 OFFSET ??_C@_0BA@CDGAONCL@RewardItemCount?$AA@
  001d6	68 00 00 00 00	 push	 OFFSET ??_C@_06POMJKEPM@Common?$AA@
  001db	89 46 48	 mov	 DWORD PTR [esi+72], eax
  001de	ff d7		 call	 edi

; 49   : 
; 50   : 	this->RewardExPoint = GetPrivateProfileInt("Common","RewardExPoint",0,TVT_DIR);

  001e0	68 00 00 00 00	 push	 OFFSET ??_C@_0CD@GGOJBOJK@?4?4?2Data?2ZtData?2Events?2TvTEvent?4i@
  001e5	53		 push	 ebx
  001e6	68 00 00 00 00	 push	 OFFSET ??_C@_0O@CPGEBMDE@RewardExPoint?$AA@
  001eb	68 00 00 00 00	 push	 OFFSET ??_C@_06POMJKEPM@Common?$AA@
  001f0	89 46 4c	 mov	 DWORD PTR [esi+76], eax
  001f3	ff d7		 call	 edi

; 51   : 	this->RewardWCoin = GetPrivateProfileInt("Common","RewardWCoin",0,TVT_DIR);

  001f5	68 00 00 00 00	 push	 OFFSET ??_C@_0CD@GGOJBOJK@?4?4?2Data?2ZtData?2Events?2TvTEvent?4i@
  001fa	53		 push	 ebx
  001fb	68 00 00 00 00	 push	 OFFSET ??_C@_0M@GKANHJGB@RewardWCoin?$AA@
  00200	68 00 00 00 00	 push	 OFFSET ??_C@_06POMJKEPM@Common?$AA@
  00205	89 46 50	 mov	 DWORD PTR [esi+80], eax
  00208	ff d7		 call	 edi

; 52   : 
; 53   : #if(ADD_TVTHDDCHECK==1)
; 54   : 	if(g_ZtLicense.CheckUser(eZtUB::Gredy) || g_ZtLicense.CheckUser(eZtUB::GredyLocal) || g_ZtLicense.CheckUser(eZtUB::Gredy2))

  0020a	6a 20		 push	 32			; 00000020H
  0020c	b9 00 00 00 00	 mov	 ecx, OFFSET ?g_ZtLicense@@3VCZtLicense@@A ; g_ZtLicense
  00211	89 46 54	 mov	 DWORD PTR [esi+84], eax
  00214	e8 00 00 00 00	 call	 ?CheckUser@CZtLicense@@QAE_NH@Z ; CZtLicense::CheckUser
  00219	84 c0		 test	 al, al
  0021b	75 20		 jne	 SHORT $LN12@Load
  0021d	6a 21		 push	 33			; 00000021H
  0021f	b9 00 00 00 00	 mov	 ecx, OFFSET ?g_ZtLicense@@3VCZtLicense@@A ; g_ZtLicense
  00224	e8 00 00 00 00	 call	 ?CheckUser@CZtLicense@@QAE_NH@Z ; CZtLicense::CheckUser
  00229	84 c0		 test	 al, al
  0022b	75 10		 jne	 SHORT $LN12@Load
  0022d	6a 22		 push	 34			; 00000022H
  0022f	b9 00 00 00 00	 mov	 ecx, OFFSET ?g_ZtLicense@@3VCZtLicense@@A ; g_ZtLicense
  00234	e8 00 00 00 00	 call	 ?CheckUser@CZtLicense@@QAE_NH@Z ; CZtLicense::CheckUser
  00239	84 c0		 test	 al, al
  0023b	74 0f		 je	 SHORT $LN11@Load
$LN12@Load:

; 55   : 	{
; 56   : 		for(int i = 0; i < OBJMAX; i++)

  0023d	8d be 84 d5 01
	00		 lea	 edi, DWORD PTR [esi+120196]

; 57   : 		{
; 58   : 			this->player_hdd[i] = 0;

  00243	b9 98 3a 00 00	 mov	 ecx, 15000		; 00003a98H
  00248	33 c0		 xor	 eax, eax
  0024a	f3 ab		 rep stosd
$LN11@Load:

; 59   : 		}
; 60   : 	}
; 61   : #endif
; 62   : 
; 63   : 	this->Waiting = false;
; 64   : 	this->Start = false;
; 65   : 	this->StartTick = 0;
; 66   : 	this->WaitingTick = 0;
; 67   : 	this->TotalPlayer = 0;
; 68   : 
; 69   : 	FILE * file = fopen(TVT_DIR,"r");

  0024c	68 00 00 00 00	 push	 OFFSET ??_C@_01KDCPPGHE@r?$AA@
  00251	68 00 00 00 00	 push	 OFFSET ??_C@_0CD@GGOJBOJK@?4?4?2Data?2ZtData?2Events?2TvTEvent?4i@
  00256	66 89 9e ac 00
	00 00		 mov	 WORD PTR [esi+172], bx
  0025d	89 9e b4 00 00
	00		 mov	 DWORD PTR [esi+180], ebx
  00263	89 9e b0 00 00
	00		 mov	 DWORD PTR [esi+176], ebx
  00269	89 9e 78 d5 01
	00		 mov	 DWORD PTR [esi+120184], ebx
  0026f	e8 00 00 00 00	 call	 _fopen
  00274	8b f8		 mov	 edi, eax
  00276	83 c4 08	 add	 esp, 8

; 70   : 	if(file == NULL)

  00279	3b fb		 cmp	 edi, ebx
  0027b	75 13		 jne	 SHORT $LN8@Load

; 71   : 	{
; 72   : 		this->Enable = 0;

  0027d	5f		 pop	 edi
  0027e	89 1e		 mov	 DWORD PTR [esi], ebx
  00280	5e		 pop	 esi
  00281	5b		 pop	 ebx

; 97   : }

  00282	8b 4d fc	 mov	 ecx, DWORD PTR __$ArrayPad$[ebp]
  00285	33 cd		 xor	 ecx, ebp
  00287	e8 00 00 00 00	 call	 @__security_check_cookie@4
  0028c	8b e5		 mov	 esp, ebp
  0028e	5d		 pop	 ebp
  0028f	c3		 ret	 0
$LN8@Load:

; 73   : 		return;
; 74   : 	}
; 75   : 	for(int i=0;i<MAXTIME;i++)
; 76   : 	{
; 77   : 		this->T[i].H = 0;

  00290	89 5e 58	 mov	 DWORD PTR [esi+88], ebx

; 78   : 		this->T[i].M = 0;

  00293	89 5e 5c	 mov	 DWORD PTR [esi+92], ebx
  00296	89 5e 60	 mov	 DWORD PTR [esi+96], ebx
  00299	89 5e 64	 mov	 DWORD PTR [esi+100], ebx
  0029c	89 5e 68	 mov	 DWORD PTR [esi+104], ebx
  0029f	89 5e 6c	 mov	 DWORD PTR [esi+108], ebx
  002a2	89 5e 70	 mov	 DWORD PTR [esi+112], ebx
  002a5	89 5e 74	 mov	 DWORD PTR [esi+116], ebx
  002a8	89 5e 78	 mov	 DWORD PTR [esi+120], ebx
  002ab	89 5e 7c	 mov	 DWORD PTR [esi+124], ebx
  002ae	89 9e 80 00 00
	00		 mov	 DWORD PTR [esi+128], ebx
  002b4	89 9e 84 00 00
	00		 mov	 DWORD PTR [esi+132], ebx
  002ba	89 9e 88 00 00
	00		 mov	 DWORD PTR [esi+136], ebx
  002c0	89 9e 8c 00 00
	00		 mov	 DWORD PTR [esi+140], ebx
  002c6	89 9e 90 00 00
	00		 mov	 DWORD PTR [esi+144], ebx
  002cc	89 9e 94 00 00
	00		 mov	 DWORD PTR [esi+148], ebx
  002d2	89 9e 98 00 00
	00		 mov	 DWORD PTR [esi+152], ebx
  002d8	89 9e 9c 00 00
	00		 mov	 DWORD PTR [esi+156], ebx
  002de	89 9e a0 00 00
	00		 mov	 DWORD PTR [esi+160], ebx
  002e4	89 9e a4 00 00
	00		 mov	 DWORD PTR [esi+164], ebx

; 79   : 	}
; 80   : 	char Buff[256];
; 81   : 	int Flag = 0;
; 82   : 	this->Count = 0;
; 83   : 	while(!feof(file))

  002ea	57		 push	 edi
  002eb	89 9d f8 fe ff
	ff		 mov	 DWORD PTR _Flag$[ebp], ebx
  002f1	89 9e a8 00 00
	00		 mov	 DWORD PTR [esi+168], ebx
  002f7	e8 00 00 00 00	 call	 _feof
  002fc	83 c4 04	 add	 esp, 4
  002ff	85 c0		 test	 eax, eax
  00301	0f 85 9b 00 00
	00		 jne	 $LN3@Load
  00307	eb 07 8d a4 24
	00 00 00 00	 npad	 9
$LL4@Load:

; 84   : 	{
; 85   : 		fgets(Buff,256,file);	

  00310	57		 push	 edi
  00311	8d 85 fc fe ff
	ff		 lea	 eax, DWORD PTR _Buff$[ebp]
  00317	68 00 01 00 00	 push	 256			; 00000100H
  0031c	50		 push	 eax
  0031d	e8 00 00 00 00	 call	 _fgets

; 86   : 		if(Zt_IsBadFileLine(Buff, Flag))continue;

  00322	8d 8d f8 fe ff
	ff		 lea	 ecx, DWORD PTR _Flag$[ebp]
  00328	51		 push	 ecx
  00329	8d 95 fc fe ff
	ff		 lea	 edx, DWORD PTR _Buff$[ebp]
  0032f	52		 push	 edx
  00330	e8 00 00 00 00	 call	 ?Zt_IsBadFileLine@@YA_NPADAAH@Z ; Zt_IsBadFileLine
  00335	83 c4 14	 add	 esp, 20			; 00000014H
  00338	84 c0		 test	 al, al
  0033a	75 55		 jne	 SHORT $LN1@Load

; 87   : 		if(Flag == 1)

  0033c	bb 01 00 00 00	 mov	 ebx, 1
  00341	39 9d f8 fe ff
	ff		 cmp	 DWORD PTR _Flag$[ebp], ebx
  00347	75 48		 jne	 SHORT $LN1@Load

; 88   : 		{
; 89   : 			int n[2];
; 90   : 			sscanf(Buff,"%d %d",&n[0],&n[1]);

  00349	8d 85 f4 fe ff
	ff		 lea	 eax, DWORD PTR _n$203331[ebp+4]
  0034f	50		 push	 eax
  00350	8d 8d f0 fe ff
	ff		 lea	 ecx, DWORD PTR _n$203331[ebp]
  00356	51		 push	 ecx
  00357	8d 95 fc fe ff
	ff		 lea	 edx, DWORD PTR _Buff$[ebp]
  0035d	68 00 00 00 00	 push	 OFFSET ??_C@_05OKMLJOMC@?$CFd?5?$CFd?$AA@
  00362	52		 push	 edx
  00363	e8 00 00 00 00	 call	 _sscanf

; 91   : 			this->T[this->Count].H	= n[0];

  00368	8b 86 a8 00 00
	00		 mov	 eax, DWORD PTR [esi+168]
  0036e	8b 8d f0 fe ff
	ff		 mov	 ecx, DWORD PTR _n$203331[ebp]
  00374	89 4c c6 58	 mov	 DWORD PTR [esi+eax*8+88], ecx

; 92   : 			this->T[this->Count].M	= n[1];

  00378	8b 96 a8 00 00
	00		 mov	 edx, DWORD PTR [esi+168]
  0037e	8b 85 f4 fe ff
	ff		 mov	 eax, DWORD PTR _n$203331[ebp+4]
  00384	83 c4 10	 add	 esp, 16			; 00000010H
  00387	89 44 d6 5c	 mov	 DWORD PTR [esi+edx*8+92], eax

; 93   : 			this->Count++;

  0038b	01 9e a8 00 00
	00		 add	 DWORD PTR [esi+168], ebx
$LN1@Load:

; 79   : 	}
; 80   : 	char Buff[256];
; 81   : 	int Flag = 0;
; 82   : 	this->Count = 0;
; 83   : 	while(!feof(file))

  00391	57		 push	 edi
  00392	e8 00 00 00 00	 call	 _feof
  00397	83 c4 04	 add	 esp, 4
  0039a	85 c0		 test	 eax, eax
  0039c	0f 84 6e ff ff
	ff		 je	 $LL4@Load
$LN3@Load:

; 94   : 		}
; 95   : 	}
; 96   : 	fclose(file);

  003a2	57		 push	 edi
  003a3	e8 00 00 00 00	 call	 _fclose
  003a8	83 c4 04	 add	 esp, 4
$LN15@Load:

; 97   : }

  003ab	8b 4d fc	 mov	 ecx, DWORD PTR __$ArrayPad$[ebp]
  003ae	5f		 pop	 edi
  003af	5e		 pop	 esi
  003b0	33 cd		 xor	 ecx, ebp
  003b2	5b		 pop	 ebx
  003b3	e8 00 00 00 00	 call	 @__security_check_cookie@4
  003b8	8b e5		 mov	 esp, ebp
  003ba	5d		 pop	 ebp
  003bb	c3		 ret	 0
?Load@cTvTEvent@@QAEXXZ ENDP				; cTvTEvent::Load
_TEXT	ENDS
PUBLIC	?RestoreUser@cTvTEvent@@QAEXH@Z			; cTvTEvent::RestoreUser
; Function compile flags: /Ogtp
;	COMDAT ?RestoreUser@cTvTEvent@@QAEXH@Z
_TEXT	SEGMENT
_aIndex$ = 8						; size = 4
?RestoreUser@cTvTEvent@@QAEXH@Z PROC			; cTvTEvent::RestoreUser, COMDAT
; _this$ = ecx

; 100  : {

  00000	55		 push	 ebp
  00001	8b ec		 mov	 ebp, esp

; 101  : 	this->Player[aIndex].Available = false;

  00003	8b 45 08	 mov	 eax, DWORD PTR _aIndex$[ebp]
  00006	33 d2		 xor	 edx, edx
  00008	88 94 c1 b9 00
	00 00		 mov	 BYTE PTR [ecx+eax*8+185], dl

; 102  : 	this->Player[aIndex].Team = 0;	

  0000f	89 94 c1 bc 00
	00 00		 mov	 DWORD PTR [ecx+eax*8+188], edx

; 103  : }

  00016	5d		 pop	 ebp
  00017	c2 04 00	 ret	 4
?RestoreUser@cTvTEvent@@QAEXH@Z ENDP			; cTvTEvent::RestoreUser
_TEXT	ENDS
PUBLIC	?RestoreTEvent@cTvTEvent@@QAEXH@Z		; cTvTEvent::RestoreTEvent
; Function compile flags: /Ogtp
;	COMDAT ?RestoreTEvent@cTvTEvent@@QAEXH@Z
_TEXT	SEGMENT
_aIndex$ = 8						; size = 4
?RestoreTEvent@cTvTEvent@@QAEXH@Z PROC			; cTvTEvent::RestoreTEvent, COMDAT
; _this$ = ecx

; 106  : {

  00000	55		 push	 ebp
  00001	8b ec		 mov	 ebp, esp

; 107  : 	this->Player[aIndex].tEvent = false;

  00003	8b 45 08	 mov	 eax, DWORD PTR _aIndex$[ebp]
  00006	c6 84 c1 b8 00
	00 00 00	 mov	 BYTE PTR [ecx+eax*8+184], 0

; 108  : }

  0000e	5d		 pop	 ebp
  0000f	c2 04 00	 ret	 4
?RestoreTEvent@cTvTEvent@@QAEXH@Z ENDP			; cTvTEvent::RestoreTEvent
_TEXT	ENDS
PUBLIC	??_C@_0BP@HCGCAHHL@?$FLTvT?5Event?$FN?5Only?5one?5window?5pc?$AA@ ; `string'
PUBLIC	??_C@_0BD@NGMANHND@?$FLTvT?5Event?$FN?5Closed?$AA@ ; `string'
PUBLIC	??_C@_0CE@DGDENJGC@?$FLTvT?5Event?$FN?5Need?5NeedGrandReset?3@ ; `string'
PUBLIC	??_C@_0BL@CKHMCLAO@?$FLTvT?5Event?$FN?5Need?5Reset?3?5?$CFd?$AA@ ; `string'
PUBLIC	??_C@_0BL@LEHOBEMH@?$FLTvT?5Event?$FN?5Need?5Level?3?5?$CFd?$AA@ ; `string'
PUBLIC	?NPCClick@cTvTEvent@@QAEXPAUOBJECTSTRUCT@@0@Z	; cTvTEvent::NPCClick
EXTRN	?gObjTeleport@@YAXHHHH@Z:PROC			; gObjTeleport
EXTRN	?MsgNormal@@YAXHPADZZ:PROC			; MsgNormal
;	COMDAT ??_C@_0BP@HCGCAHHL@?$FLTvT?5Event?$FN?5Only?5one?5window?5pc?$AA@
CONST	SEGMENT
??_C@_0BP@HCGCAHHL@?$FLTvT?5Event?$FN?5Only?5one?5window?5pc?$AA@ DB '[Tv'
	DB	'T Event] Only one window pc', 00H		; `string'
CONST	ENDS
;	COMDAT ??_C@_0BD@NGMANHND@?$FLTvT?5Event?$FN?5Closed?$AA@
CONST	SEGMENT
??_C@_0BD@NGMANHND@?$FLTvT?5Event?$FN?5Closed?$AA@ DB '[TvT Event] Closed'
	DB	00H						; `string'
CONST	ENDS
;	COMDAT ??_C@_0CE@DGDENJGC@?$FLTvT?5Event?$FN?5Need?5NeedGrandReset?3@
CONST	SEGMENT
??_C@_0CE@DGDENJGC@?$FLTvT?5Event?$FN?5Need?5NeedGrandReset?3@ DB '[TvT E'
	DB	'vent] Need NeedGrandReset: %d', 00H		; `string'
CONST	ENDS
;	COMDAT ??_C@_0BL@CKHMCLAO@?$FLTvT?5Event?$FN?5Need?5Reset?3?5?$CFd?$AA@
CONST	SEGMENT
??_C@_0BL@CKHMCLAO@?$FLTvT?5Event?$FN?5Need?5Reset?3?5?$CFd?$AA@ DB '[TvT'
	DB	' Event] Need Reset: %d', 00H		; `string'
CONST	ENDS
;	COMDAT ??_C@_0BL@LEHOBEMH@?$FLTvT?5Event?$FN?5Need?5Level?3?5?$CFd?$AA@
CONST	SEGMENT
??_C@_0BL@LEHOBEMH@?$FLTvT?5Event?$FN?5Need?5Level?3?5?$CFd?$AA@ DB '[TvT'
	DB	' Event] Need Level: %d', 00H		; `string'
; Function compile flags: /Ogtp
CONST	ENDS
;	COMDAT ?NPCClick@cTvTEvent@@QAEXPAUOBJECTSTRUCT@@0@Z
_TEXT	SEGMENT
_lpNpc$ = 8						; size = 4
_lpObj$ = 12						; size = 4
?NPCClick@cTvTEvent@@QAEXPAUOBJECTSTRUCT@@0@Z PROC	; cTvTEvent::NPCClick, COMDAT
; _this$ = ecx

; 111  : {

  00000	55		 push	 ebp
  00001	8b ec		 mov	 ebp, esp
  00003	56		 push	 esi
  00004	8b f1		 mov	 esi, ecx

; 112  : 	if(!this->Enable)return;

  00006	83 3e 00	 cmp	 DWORD PTR [esi], 0
  00009	0f 84 31 01 00
	00		 je	 $LN12@NPCClick

; 113  : 	if(lpNpc->Class == this->NPC)

  0000f	8b 45 08	 mov	 eax, DWORD PTR _lpNpc$[ebp]
  00012	0f b7 88 b8 00
	00 00		 movzx	 ecx, WORD PTR [eax+184]
  00019	3b 4e 04	 cmp	 ecx, DWORD PTR [esi+4]
  0001c	0f 85 1e 01 00
	00		 jne	 $LN12@NPCClick

; 114  : 	{
; 115  : 		if(this->NeedLevel > lpObj->Level)

  00022	8b 46 08	 mov	 eax, DWORD PTR [esi+8]
  00025	57		 push	 edi
  00026	8b 7d 0c	 mov	 edi, DWORD PTR _lpObj$[ebp]
  00029	0f bf 97 be 00
	00 00		 movsx	 edx, WORD PTR [edi+190]
  00030	3b c2		 cmp	 eax, edx
  00032	7e 17		 jle	 SHORT $LN11@NPCClick

; 116  : 		{
; 117  : 			MsgNormal(lpObj->m_Index,"[TvT Event] Need Level: %d",this->NeedLevel);

  00034	50		 push	 eax
  00035	8b 07		 mov	 eax, DWORD PTR [edi]
  00037	68 00 00 00 00	 push	 OFFSET ??_C@_0BL@LEHOBEMH@?$FLTvT?5Event?$FN?5Need?5Level?3?5?$CFd?$AA@
  0003c	50		 push	 eax
  0003d	e8 00 00 00 00	 call	 ?MsgNormal@@YAXHPADZZ	; MsgNormal
  00042	83 c4 0c	 add	 esp, 12			; 0000000cH
  00045	5f		 pop	 edi
  00046	5e		 pop	 esi

; 164  : 	}
; 165  : }

  00047	5d		 pop	 ebp
  00048	c2 08 00	 ret	 8
$LN11@NPCClick:

; 118  : 			return;
; 119  : 		}
; 120  : 
; 121  : 		if(this->NeedReset > lpObj->Reset)

  0004b	8b 46 0c	 mov	 eax, DWORD PTR [esi+12]
  0004e	3b 87 90 22 00
	00		 cmp	 eax, DWORD PTR [edi+8848]
  00054	7e 17		 jle	 SHORT $LN10@NPCClick

; 122  : 		{
; 123  : 			MsgNormal(lpObj->m_Index,"[TvT Event] Need Reset: %d",this->NeedReset);

  00056	8b 0f		 mov	 ecx, DWORD PTR [edi]
  00058	50		 push	 eax
  00059	68 00 00 00 00	 push	 OFFSET ??_C@_0BL@CKHMCLAO@?$FLTvT?5Event?$FN?5Need?5Reset?3?5?$CFd?$AA@
  0005e	51		 push	 ecx
  0005f	e8 00 00 00 00	 call	 ?MsgNormal@@YAXHPADZZ	; MsgNormal
  00064	83 c4 0c	 add	 esp, 12			; 0000000cH
  00067	5f		 pop	 edi
  00068	5e		 pop	 esi

; 164  : 	}
; 165  : }

  00069	5d		 pop	 ebp
  0006a	c2 08 00	 ret	 8
$LN10@NPCClick:

; 124  : 			return;
; 125  : 		}
; 126  : 
; 127  : 		if(this->NeedGrandReset > lpObj->GReset)

  0006d	8b 46 10	 mov	 eax, DWORD PTR [esi+16]
  00070	3b 87 94 22 00
	00		 cmp	 eax, DWORD PTR [edi+8852]
  00076	7e 17		 jle	 SHORT $LN9@NPCClick

; 128  : 		{
; 129  : 			MsgNormal(lpObj->m_Index,"[TvT Event] Need NeedGrandReset: %d",this->NeedGrandReset);

  00078	8b 17		 mov	 edx, DWORD PTR [edi]
  0007a	50		 push	 eax
  0007b	68 00 00 00 00	 push	 OFFSET ??_C@_0CE@DGDENJGC@?$FLTvT?5Event?$FN?5Need?5NeedGrandReset?3@
  00080	52		 push	 edx
  00081	e8 00 00 00 00	 call	 ?MsgNormal@@YAXHPADZZ	; MsgNormal
  00086	83 c4 0c	 add	 esp, 12			; 0000000cH
  00089	5f		 pop	 edi
  0008a	5e		 pop	 esi

; 164  : 	}
; 165  : }

  0008b	5d		 pop	 ebp
  0008c	c2 08 00	 ret	 8
$LN9@NPCClick:

; 130  : 			return;
; 131  : 		}
; 132  : 
; 133  : 		if(!this->Waiting)

  0008f	80 be ac 00 00
	00 00		 cmp	 BYTE PTR [esi+172], 0
  00096	75 16		 jne	 SHORT $LN8@NPCClick

; 134  : 		{
; 135  : 			MsgNormal(lpObj->m_Index,"[TvT Event] Closed");

  00098	8b 07		 mov	 eax, DWORD PTR [edi]
  0009a	68 00 00 00 00	 push	 OFFSET ??_C@_0BD@NGMANHND@?$FLTvT?5Event?$FN?5Closed?$AA@
  0009f	50		 push	 eax
  000a0	e8 00 00 00 00	 call	 ?MsgNormal@@YAXHPADZZ	; MsgNormal
  000a5	83 c4 08	 add	 esp, 8
  000a8	5f		 pop	 edi
  000a9	5e		 pop	 esi

; 164  : 	}
; 165  : }

  000aa	5d		 pop	 ebp
  000ab	c2 08 00	 ret	 8
$LN8@NPCClick:

; 136  : 			return;
; 137  : 		}
; 138  : 
; 139  : #if(ADD_TVTHDDCHECK==1)
; 140  : 		if(g_ZtLicense.CheckUser(eZtUB::Gredy) || g_ZtLicense.CheckUser(eZtUB::GredyLocal) || g_ZtLicense.CheckUser(eZtUB::Gredy2))

  000ae	6a 20		 push	 32			; 00000020H
  000b0	b9 00 00 00 00	 mov	 ecx, OFFSET ?g_ZtLicense@@3VCZtLicense@@A ; g_ZtLicense
  000b5	e8 00 00 00 00	 call	 ?CheckUser@CZtLicense@@QAE_NH@Z ; CZtLicense::CheckUser
  000ba	84 c0		 test	 al, al
  000bc	75 20		 jne	 SHORT $LN6@NPCClick
  000be	6a 21		 push	 33			; 00000021H
  000c0	b9 00 00 00 00	 mov	 ecx, OFFSET ?g_ZtLicense@@3VCZtLicense@@A ; g_ZtLicense
  000c5	e8 00 00 00 00	 call	 ?CheckUser@CZtLicense@@QAE_NH@Z ; CZtLicense::CheckUser
  000ca	84 c0		 test	 al, al
  000cc	75 10		 jne	 SHORT $LN6@NPCClick
  000ce	6a 22		 push	 34			; 00000022H
  000d0	b9 00 00 00 00	 mov	 ecx, OFFSET ?g_ZtLicense@@3VCZtLicense@@A ; g_ZtLicense
  000d5	e8 00 00 00 00	 call	 ?CheckUser@CZtLicense@@QAE_NH@Z ; CZtLicense::CheckUser
  000da	84 c0		 test	 al, al
  000dc	74 30		 je	 SHORT $LN7@NPCClick
$LN6@NPCClick:

; 141  : 		{
; 142  : 			for(int i = 0; i < OBJMAX; i++)

  000de	33 c0		 xor	 eax, eax
  000e0	8d 8e 84 d5 01
	00		 lea	 ecx, DWORD PTR [esi+120196]
$LL5@NPCClick:

; 143  : 			{
; 144  : 				if(!this->player_hdd[i])

  000e6	8b 11		 mov	 edx, DWORD PTR [ecx]
  000e8	85 d2		 test	 edx, edx
  000ea	74 08		 je	 SHORT $LN4@NPCClick

; 145  : 				{
; 146  : 					continue;
; 147  : 				}
; 148  : 
; 149  : 				if(this->player_hdd[i] == lpObj->hdd_id)

  000ec	3b 97 8c 28 00
	00		 cmp	 edx, DWORD PTR [edi+10380]
  000f2	74 51		 je	 SHORT $LN17@NPCClick
$LN4@NPCClick:

; 141  : 		{
; 142  : 			for(int i = 0; i < OBJMAX; i++)

  000f4	40		 inc	 eax
  000f5	83 c1 04	 add	 ecx, 4
  000f8	3d 98 3a 00 00	 cmp	 eax, 15000		; 00003a98H
  000fd	7c e7		 jl	 SHORT $LL5@NPCClick

; 152  : 					return;
; 153  : 				}
; 154  : 			}
; 155  : 
; 156  : 			this->player_hdd[lpObj->m_Index] = lpObj->hdd_id;

  000ff	8b 17		 mov	 edx, DWORD PTR [edi]
  00101	8b 87 8c 28 00
	00		 mov	 eax, DWORD PTR [edi+10380]
  00107	89 84 96 84 d5
	01 00		 mov	 DWORD PTR [esi+edx*4+120196], eax
$LN7@NPCClick:

; 157  : 		}
; 158  : #endif
; 159  : 
; 160  : 		this->Player[lpObj->m_Index].tEvent = true;

  0010e	8b 0f		 mov	 ecx, DWORD PTR [edi]
  00110	c6 84 ce b8 00
	00 00 01	 mov	 BYTE PTR [esi+ecx*8+184], 1

; 161  : 		this->Player[lpObj->m_Index].Available = true;

  00118	8b 17		 mov	 edx, DWORD PTR [edi]
  0011a	c6 84 d6 b9 00
	00 00 01	 mov	 BYTE PTR [esi+edx*8+185], 1

; 162  : 		this->TotalPlayer++;
; 163  : 		gObjTeleport(lpObj->m_Index,this->WaitingMap,this->WaitingX,this->WaitingY);

  00122	8b 46 20	 mov	 eax, DWORD PTR [esi+32]
  00125	8b 4e 1c	 mov	 ecx, DWORD PTR [esi+28]
  00128	8b 56 18	 mov	 edx, DWORD PTR [esi+24]
  0012b	ff 86 78 d5 01
	00		 inc	 DWORD PTR [esi+120184]
  00131	50		 push	 eax
  00132	8b 07		 mov	 eax, DWORD PTR [edi]
  00134	51		 push	 ecx
  00135	52		 push	 edx
  00136	50		 push	 eax
  00137	e8 00 00 00 00	 call	 ?gObjTeleport@@YAXHHHH@Z ; gObjTeleport
  0013c	83 c4 10	 add	 esp, 16			; 00000010H
  0013f	5f		 pop	 edi
$LN12@NPCClick:
  00140	5e		 pop	 esi

; 164  : 	}
; 165  : }

  00141	5d		 pop	 ebp
  00142	c2 08 00	 ret	 8
$LN17@NPCClick:

; 150  : 				{
; 151  : 					MsgNormal(lpObj->m_Index,"[TvT Event] Only one window pc");

  00145	8b 0f		 mov	 ecx, DWORD PTR [edi]
  00147	68 00 00 00 00	 push	 OFFSET ??_C@_0BP@HCGCAHHL@?$FLTvT?5Event?$FN?5Only?5one?5window?5pc?$AA@
  0014c	51		 push	 ecx
  0014d	e8 00 00 00 00	 call	 ?MsgNormal@@YAXHPADZZ	; MsgNormal
  00152	83 c4 08	 add	 esp, 8
  00155	5f		 pop	 edi
  00156	5e		 pop	 esi

; 164  : 	}
; 165  : }

  00157	5d		 pop	 ebp
  00158	c2 08 00	 ret	 8
?NPCClick@cTvTEvent@@QAEXPAUOBJECTSTRUCT@@0@Z ENDP	; cTvTEvent::NPCClick
_TEXT	ENDS
PUBLIC	?ReturnMaxReset@cTvTEvent@@QAEHXZ		; cTvTEvent::ReturnMaxReset
EXTRN	?gObj@@3PAUOBJECTSTRUCT@@A:DWORD		; gObj
; Function compile flags: /Ogtp
;	COMDAT ?ReturnMaxReset@cTvTEvent@@QAEHXZ
_TEXT	SEGMENT
_this$ = -4						; size = 4
?ReturnMaxReset@cTvTEvent@@QAEHXZ PROC			; cTvTEvent::ReturnMaxReset, COMDAT
; _this$ = ecx

; 301  : {

  00000	55		 push	 ebp
  00001	8b ec		 mov	 ebp, esp
  00003	51		 push	 ecx
  00004	53		 push	 ebx
  00005	56		 push	 esi

; 302  : 	int MaxRes = 0;

  00006	8b 35 00 00 00
	00		 mov	 esi, DWORD PTR ?gObj@@3PAUOBJECTSTRUCT@@A ; gObj
  0000c	89 4d fc	 mov	 DWORD PTR _this$[ebp], ecx
  0000f	57		 push	 edi
  00010	33 d2		 xor	 edx, edx

; 303  : 	int Index = 0;

  00012	33 c0		 xor	 eax, eax
  00014	81 c1 41 b6 01
	00		 add	 ecx, 112193		; 0001b641H
  0001a	bf b2 36 00 00	 mov	 edi, 14002		; 000036b2H
  0001f	81 c6 e0 f4 40
	09		 add	 esi, 155251936		; 0940f4e0H
$LL6@ReturnMaxR:

; 305  : 	{
; 306  : 		LPOBJ sObj = &gObj[i];
; 307  : 		if(sObj->Connected != PLAYER_PLAYING) continue;

  00025	83 be 24 b2 ff
	ff 03		 cmp	 DWORD PTR [esi-19932], 3
  0002c	75 15		 jne	 SHORT $LN5@ReturnMaxR

; 308  : 		if(!this->Player[i].Available)continue;

  0002e	80 79 f8 00	 cmp	 BYTE PTR [ecx-8], 0
  00032	74 0f		 je	 SHORT $LN5@ReturnMaxR

; 309  : 		if(sObj->Reset >= MaxRes)

  00034	8b 9e b0 d4 ff
	ff		 mov	 ebx, DWORD PTR [esi-11088]
  0003a	3b da		 cmp	 ebx, edx
  0003c	7c 05		 jl	 SHORT $LN5@ReturnMaxR

; 310  : 		{
; 311  : 			MaxRes = sObj->Reset;

  0003e	8b d3		 mov	 edx, ebx

; 312  : 			Index = i;

  00040	8d 47 fe	 lea	 eax, DWORD PTR [edi-2]
$LN5@ReturnMaxR:

; 305  : 	{
; 306  : 		LPOBJ sObj = &gObj[i];
; 307  : 		if(sObj->Connected != PLAYER_PLAYING) continue;

  00043	83 be 74 dd ff
	ff 03		 cmp	 DWORD PTR [esi-8844], 3
  0004a	75 10		 jne	 SHORT $LN17@ReturnMaxR

; 308  : 		if(!this->Player[i].Available)continue;

  0004c	80 39 00	 cmp	 BYTE PTR [ecx], 0
  0004f	74 0b		 je	 SHORT $LN17@ReturnMaxR

; 309  : 		if(sObj->Reset >= MaxRes)

  00051	8b 1e		 mov	 ebx, DWORD PTR [esi]
  00053	3b da		 cmp	 ebx, edx
  00055	7c 05		 jl	 SHORT $LN17@ReturnMaxR

; 310  : 		{
; 311  : 			MaxRes = sObj->Reset;

  00057	8b d3		 mov	 edx, ebx

; 312  : 			Index = i;

  00059	8d 47 ff	 lea	 eax, DWORD PTR [edi-1]
$LN17@ReturnMaxR:

; 305  : 	{
; 306  : 		LPOBJ sObj = &gObj[i];
; 307  : 		if(sObj->Connected != PLAYER_PLAYING) continue;

  0005c	83 be c4 08 00
	00 03		 cmp	 DWORD PTR [esi+2244], 3
  00063	75 14		 jne	 SHORT $LN18@ReturnMaxR

; 308  : 		if(!this->Player[i].Available)continue;

  00065	80 79 08 00	 cmp	 BYTE PTR [ecx+8], 0
  00069	74 0e		 je	 SHORT $LN18@ReturnMaxR

; 309  : 		if(sObj->Reset >= MaxRes)

  0006b	8b 9e 50 2b 00
	00		 mov	 ebx, DWORD PTR [esi+11088]
  00071	3b da		 cmp	 ebx, edx
  00073	7c 04		 jl	 SHORT $LN18@ReturnMaxR

; 310  : 		{
; 311  : 			MaxRes = sObj->Reset;

  00075	8b d3		 mov	 edx, ebx

; 312  : 			Index = i;

  00077	8b c7		 mov	 eax, edi
$LN18@ReturnMaxR:

; 305  : 	{
; 306  : 		LPOBJ sObj = &gObj[i];
; 307  : 		if(sObj->Connected != PLAYER_PLAYING) continue;

  00079	83 be 14 34 00
	00 03		 cmp	 DWORD PTR [esi+13332], 3
  00080	75 15		 jne	 SHORT $LN19@ReturnMaxR

; 308  : 		if(!this->Player[i].Available)continue;

  00082	80 79 10 00	 cmp	 BYTE PTR [ecx+16], 0
  00086	74 0f		 je	 SHORT $LN19@ReturnMaxR

; 309  : 		if(sObj->Reset >= MaxRes)

  00088	8b 9e a0 56 00
	00		 mov	 ebx, DWORD PTR [esi+22176]
  0008e	3b da		 cmp	 ebx, edx
  00090	7c 05		 jl	 SHORT $LN19@ReturnMaxR

; 310  : 		{
; 311  : 			MaxRes = sObj->Reset;

  00092	8b d3		 mov	 edx, ebx

; 312  : 			Index = i;

  00094	8d 47 01	 lea	 eax, DWORD PTR [edi+1]
$LN19@ReturnMaxR:

; 305  : 	{
; 306  : 		LPOBJ sObj = &gObj[i];
; 307  : 		if(sObj->Connected != PLAYER_PLAYING) continue;

  00097	83 be 64 5f 00
	00 03		 cmp	 DWORD PTR [esi+24420], 3
  0009e	75 15		 jne	 SHORT $LN15@ReturnMaxR

; 308  : 		if(!this->Player[i].Available)continue;

  000a0	80 79 18 00	 cmp	 BYTE PTR [ecx+24], 0
  000a4	74 0f		 je	 SHORT $LN15@ReturnMaxR

; 309  : 		if(sObj->Reset >= MaxRes)

  000a6	8b 9e f0 81 00
	00		 mov	 ebx, DWORD PTR [esi+33264]
  000ac	3b da		 cmp	 ebx, edx
  000ae	7c 05		 jl	 SHORT $LN15@ReturnMaxR

; 310  : 		{
; 311  : 			MaxRes = sObj->Reset;

  000b0	8b d3		 mov	 edx, ebx

; 312  : 			Index = i;

  000b2	8d 47 02	 lea	 eax, DWORD PTR [edi+2]
$LN15@ReturnMaxR:

; 304  : 	for(int i=OBJ_STARTUSERINDZT;i<OBJMAX;i++)

  000b5	83 c7 05	 add	 edi, 5
  000b8	8d 5f fe	 lea	 ebx, DWORD PTR [edi-2]
  000bb	81 c6 90 d8 00
	00		 add	 esi, 55440		; 0000d890H
  000c1	83 c1 28	 add	 ecx, 40			; 00000028H
  000c4	81 fb 98 3a 00
	00		 cmp	 ebx, 15000		; 00003a98H
  000ca	0f 8c 55 ff ff
	ff		 jl	 $LL6@ReturnMaxR

; 313  : 		}
; 314  : 	}
; 315  : 	this->Player[Index].Available = false;

  000d0	8b 4d fc	 mov	 ecx, DWORD PTR _this$[ebp]
  000d3	5f		 pop	 edi
  000d4	5e		 pop	 esi
  000d5	c6 84 c1 b9 00
	00 00 00	 mov	 BYTE PTR [ecx+eax*8+185], 0
  000dd	5b		 pop	 ebx

; 316  : 	return Index;
; 317  : }

  000de	8b e5		 mov	 esp, ebp
  000e0	5d		 pop	 ebp
  000e1	c3		 ret	 0
?ReturnMaxReset@cTvTEvent@@QAEHXZ ENDP			; cTvTEvent::ReturnMaxReset
_TEXT	ENDS
PUBLIC	??_C@_0CA@KAJPHADH@?$FLRedTeam?$FN?3?5?$CFd?5Vs?5?$FLBlueTeam?$FN?3?5?$CFd?$AA@ ; `string'
PUBLIC	??_C@_0CA@JJIAMAIB@?$FLBlueTeam?$FN?3?5?$CFd?5Vs?5?$FLRedTeam?$FN?3?5?$CFd?$AA@ ; `string'
PUBLIC	?DivisionTeam@cTvTEvent@@QAEXXZ			; cTvTEvent::DivisionTeam
EXTRN	?gObjViewportListProtocolCreate@@YAXPAUOBJECTSTRUCT@@@Z:PROC ; gObjViewportListProtocolCreate
;	COMDAT ??_C@_0CA@KAJPHADH@?$FLRedTeam?$FN?3?5?$CFd?5Vs?5?$FLBlueTeam?$FN?3?5?$CFd?$AA@
CONST	SEGMENT
??_C@_0CA@KAJPHADH@?$FLRedTeam?$FN?3?5?$CFd?5Vs?5?$FLBlueTeam?$FN?3?5?$CFd?$AA@ DB '['
	DB	'RedTeam]: %d Vs [BlueTeam]: %d', 00H	; `string'
CONST	ENDS
;	COMDAT ??_C@_0CA@JJIAMAIB@?$FLBlueTeam?$FN?3?5?$CFd?5Vs?5?$FLRedTeam?$FN?3?5?$CFd?$AA@
CONST	SEGMENT
??_C@_0CA@JJIAMAIB@?$FLBlueTeam?$FN?3?5?$CFd?5Vs?5?$FLRedTeam?$FN?3?5?$CFd?$AA@ DB '['
	DB	'BlueTeam]: %d Vs [RedTeam]: %d', 00H	; `string'
; Function compile flags: /Ogtp
CONST	ENDS
;	COMDAT ?DivisionTeam@cTvTEvent@@QAEXXZ
_TEXT	SEGMENT
tv332 = -4						; size = 4
?DivisionTeam@cTvTEvent@@QAEXXZ PROC			; cTvTEvent::DivisionTeam, COMDAT
; _this$ = ecx

; 320  : {

  00000	55		 push	 ebp
  00001	8b ec		 mov	 ebp, esp
  00003	51		 push	 ecx
  00004	53		 push	 ebx
  00005	56		 push	 esi
  00006	8b f1		 mov	 esi, ecx

; 321  : 	int iTeam = 1;
; 322  : 	int Index = 0;
; 323  : 	for(int i=0;i<this->TotalPlayer;i++)

  00008	33 db		 xor	 ebx, ebx
  0000a	57		 push	 edi
  0000b	bf 01 00 00 00	 mov	 edi, 1
  00010	39 9e 78 d5 01
	00		 cmp	 DWORD PTR [esi+120184], ebx
  00016	7e 1f		 jle	 SHORT $LN13@DivisionTe
$LL15@DivisionTe:

; 324  : 	{
; 325  : 		Index = this->ReturnMaxReset();

  00018	8b ce		 mov	 ecx, esi
  0001a	e8 00 00 00 00	 call	 ?ReturnMaxReset@cTvTEvent@@QAEHXZ ; cTvTEvent::ReturnMaxReset

; 326  : 		this->Player[Index].Team = iTeam;

  0001f	89 bc c6 bc 00
	00 00		 mov	 DWORD PTR [esi+eax*8+188], edi

; 327  : 		if(iTeam == 1) iTeam = 2;

  00026	4f		 dec	 edi
  00027	f7 df		 neg	 edi
  00029	1b ff		 sbb	 edi, edi
  0002b	43		 inc	 ebx
  0002c	83 c7 02	 add	 edi, 2
  0002f	3b 9e 78 d5 01
	00		 cmp	 ebx, DWORD PTR [esi+120184]
  00035	7c e1		 jl	 SHORT $LL15@DivisionTe
$LN13@DivisionTe:

; 328  : 		else iTeam = 1;
; 329  : 	}
; 330  : 	for(int n=OBJ_STARTUSERINDZT;n<OBJMAX;n++)

  00037	8d 86 3c b6 01
	00		 lea	 eax, DWORD PTR [esi+112188]
  0003d	bb b0 36 00 00	 mov	 ebx, 14000		; 000036b0H
  00042	bf 00 a7 40 09	 mov	 edi, 155232000		; 0940a700H
  00047	89 45 fc	 mov	 DWORD PTR tv332[ebp], eax
  0004a	8d 9b 00 00 00
	00		 npad	 6
$LL10@DivisionTe:

; 331  : 	{
; 332  : 		LPOBJ sObj = &gObj[n];
; 333  : 		if(sObj->Connected != PLAYER_PLAYING) continue;

  00050	8b 0d 00 00 00
	00		 mov	 ecx, DWORD PTR ?gObj@@3PAUOBJECTSTRUCT@@A ; gObj
  00056	83 7c 0f 04 03	 cmp	 DWORD PTR [edi+ecx+4], 3
  0005b	0f 85 c2 00 00
	00		 jne	 $LN9@DivisionTe

; 334  : 		if(this->Player[n].tEvent == false) continue;

  00061	80 78 fc 00	 cmp	 BYTE PTR [eax-4], 0
  00065	0f 84 b8 00 00
	00		 je	 $LN9@DivisionTe

; 335  : 		if(this->Player[n].Team == 1)

  0006b	8b 00		 mov	 eax, DWORD PTR [eax]
  0006d	83 f8 01	 cmp	 eax, 1
  00070	75 52		 jne	 SHORT $LN5@DivisionTe

; 336  : 		{
; 337  : 			gObjTeleport(n,this->WaitingMap,this->BluTeamX,this->BluTeamY);

  00072	8b 56 28	 mov	 edx, DWORD PTR [esi+40]
  00075	8b 46 24	 mov	 eax, DWORD PTR [esi+36]
  00078	8b 4e 18	 mov	 ecx, DWORD PTR [esi+24]
  0007b	52		 push	 edx
  0007c	50		 push	 eax
  0007d	51		 push	 ecx
  0007e	53		 push	 ebx
  0007f	e8 00 00 00 00	 call	 ?gObjTeleport@@YAXHHHH@Z ; gObjTeleport
  00084	83 c4 10	 add	 esp, 16			; 00000010H

; 338  : 			if(this->DisplayCommands == 1)

  00087	83 7e 14 01	 cmp	 DWORD PTR [esi+20], 1
  0008b	75 22		 jne	 SHORT $LN4@DivisionTe

; 339  : 			{
; 340  : 				gObj[n].m_Change = 405; //"MU Allies"	Blue

  0008d	8b 15 00 00 00
	00		 mov	 edx, DWORD PTR ?gObj@@3PAUOBJECTSTRUCT@@A ; gObj
  00093	c7 84 17 54 04
	00 00 95 01 00
	00		 mov	 DWORD PTR [edi+edx+1108], 405 ; 00000195H

; 341  : 				gObjViewportListProtocolCreate(&gObj[n]);

  0009e	a1 00 00 00 00	 mov	 eax, DWORD PTR ?gObj@@3PAUOBJECTSTRUCT@@A ; gObj
  000a3	8d 0c 07	 lea	 ecx, DWORD PTR [edi+eax]
  000a6	51		 push	 ecx
  000a7	e8 00 00 00 00	 call	 ?gObjViewportListProtocolCreate@@YAXPAUOBJECTSTRUCT@@@Z ; gObjViewportListProtocolCreate
  000ac	83 c4 04	 add	 esp, 4
$LN4@DivisionTe:

; 342  : 			}
; 343  : 			MsgNormal(n,"[BlueTeam]: %d Vs [RedTeam]: %d",this->ScoreBlue,this->ScoreRed);

  000af	8b 96 80 d5 01
	00		 mov	 edx, DWORD PTR [esi+120192]
  000b5	8b 86 7c d5 01
	00		 mov	 eax, DWORD PTR [esi+120188]
  000bb	52		 push	 edx
  000bc	50		 push	 eax
  000bd	68 00 00 00 00	 push	 OFFSET ??_C@_0CA@JJIAMAIB@?$FLBlueTeam?$FN?3?5?$CFd?5Vs?5?$FLRedTeam?$FN?3?5?$CFd?$AA@
  000c2	eb 56		 jmp	 SHORT $LN22@DivisionTe
$LN5@DivisionTe:

; 344  : 		}
; 345  : 		else if(this->Player[n].Team == 2)

  000c4	83 f8 02	 cmp	 eax, 2
  000c7	75 5a		 jne	 SHORT $LN9@DivisionTe

; 346  : 		{
; 347  : 			gObjTeleport(n,this->WaitingMap,this->RedTeamX,this->RedTeamY);

  000c9	8b 4e 30	 mov	 ecx, DWORD PTR [esi+48]
  000cc	8b 56 2c	 mov	 edx, DWORD PTR [esi+44]
  000cf	8b 46 18	 mov	 eax, DWORD PTR [esi+24]
  000d2	51		 push	 ecx
  000d3	52		 push	 edx
  000d4	50		 push	 eax
  000d5	53		 push	 ebx
  000d6	e8 00 00 00 00	 call	 ?gObjTeleport@@YAXHHHH@Z ; gObjTeleport
  000db	83 c4 10	 add	 esp, 16			; 00000010H

; 348  : 			if(this->DisplayCommands == 1)

  000de	83 7e 14 01	 cmp	 DWORD PTR [esi+20], 1
  000e2	75 23		 jne	 SHORT $LN1@DivisionTe

; 349  : 			{
; 350  : 				gObj[n].m_Change = 404; //"MU Allies"	Red

  000e4	8b 0d 00 00 00
	00		 mov	 ecx, DWORD PTR ?gObj@@3PAUOBJECTSTRUCT@@A ; gObj
  000ea	c7 84 0f 54 04
	00 00 94 01 00
	00		 mov	 DWORD PTR [edi+ecx+1108], 404 ; 00000194H

; 351  : 				gObjViewportListProtocolCreate(&gObj[n]);

  000f5	8b 15 00 00 00
	00		 mov	 edx, DWORD PTR ?gObj@@3PAUOBJECTSTRUCT@@A ; gObj
  000fb	8d 04 17	 lea	 eax, DWORD PTR [edi+edx]
  000fe	50		 push	 eax
  000ff	e8 00 00 00 00	 call	 ?gObjViewportListProtocolCreate@@YAXPAUOBJECTSTRUCT@@@Z ; gObjViewportListProtocolCreate
  00104	83 c4 04	 add	 esp, 4
$LN1@DivisionTe:

; 352  : 			}
; 353  : 			MsgNormal(n,"[RedTeam]: %d Vs [BlueTeam]: %d",this->ScoreRed,this->ScoreBlue);

  00107	8b 8e 7c d5 01
	00		 mov	 ecx, DWORD PTR [esi+120188]
  0010d	8b 96 80 d5 01
	00		 mov	 edx, DWORD PTR [esi+120192]
  00113	51		 push	 ecx
  00114	52		 push	 edx
  00115	68 00 00 00 00	 push	 OFFSET ??_C@_0CA@KAJPHADH@?$FLRedTeam?$FN?3?5?$CFd?5Vs?5?$FLBlueTeam?$FN?3?5?$CFd?$AA@
$LN22@DivisionTe:
  0011a	53		 push	 ebx
  0011b	e8 00 00 00 00	 call	 ?MsgNormal@@YAXHPADZZ	; MsgNormal
  00120	83 c4 10	 add	 esp, 16			; 00000010H
$LN9@DivisionTe:

; 328  : 		else iTeam = 1;
; 329  : 	}
; 330  : 	for(int n=OBJ_STARTUSERINDZT;n<OBJMAX;n++)

  00123	8b 45 fc	 mov	 eax, DWORD PTR tv332[ebp]
  00126	83 c0 08	 add	 eax, 8
  00129	81 c7 50 2b 00
	00		 add	 edi, 11088		; 00002b50H
  0012f	43		 inc	 ebx
  00130	89 45 fc	 mov	 DWORD PTR tv332[ebp], eax
  00133	81 ff 80 d7 e9
	09		 cmp	 edi, 166320000		; 09e9d780H
  00139	0f 8c 11 ff ff
	ff		 jl	 $LL10@DivisionTe
  0013f	5f		 pop	 edi
  00140	5e		 pop	 esi
  00141	5b		 pop	 ebx

; 354  : 		}
; 355  : 	}
; 356  : }

  00142	8b e5		 mov	 esp, ebp
  00144	5d		 pop	 ebp
  00145	c3		 ret	 0
?DivisionTeam@cTvTEvent@@QAEXXZ ENDP			; cTvTEvent::DivisionTeam
_TEXT	ENDS
PUBLIC	?CheckStartEvent@cTvTEvent@@QAE_NXZ		; cTvTEvent::CheckStartEvent
; Function compile flags: /Ogtp
;	COMDAT ?CheckStartEvent@cTvTEvent@@QAE_NXZ
_TEXT	SEGMENT
?CheckStartEvent@cTvTEvent@@QAE_NXZ PROC		; cTvTEvent::CheckStartEvent, COMDAT
; _this$ = ecx

; 360  : 	if(!this->Enable || !this->Start)return false;

  00000	83 39 00	 cmp	 DWORD PTR [ecx], 0
  00003	74 0c		 je	 SHORT $LN1@CheckStart
  00005	80 b9 ad 00 00
	00 00		 cmp	 BYTE PTR [ecx+173], 0
  0000c	74 03		 je	 SHORT $LN1@CheckStart

; 361  : 	return true;

  0000e	b0 01		 mov	 al, 1

; 362  : }

  00010	c3		 ret	 0
$LN1@CheckStart:

; 360  : 	if(!this->Enable || !this->Start)return false;

  00011	32 c0		 xor	 al, al

; 362  : }

  00013	c3		 ret	 0
?CheckStartEvent@cTvTEvent@@QAE_NXZ ENDP		; cTvTEvent::CheckStartEvent
_TEXT	ENDS
PUBLIC	?ReturnStatus@cTvTEvent@@QAEHHH@Z		; cTvTEvent::ReturnStatus
; Function compile flags: /Ogtp
;	COMDAT ?ReturnStatus@cTvTEvent@@QAEHHH@Z
_TEXT	SEGMENT
_aIndex$ = 8						; size = 4
_TargetIndex$ = 12					; size = 4
?ReturnStatus@cTvTEvent@@QAEHHH@Z PROC			; cTvTEvent::ReturnStatus, COMDAT
; _this$ = ecx

; 365  : {

  00000	55		 push	 ebp
  00001	8b ec		 mov	 ebp, esp

; 366  : 	if ( OBJMAX_RANGE(aIndex) == FALSE )

  00003	8b 45 08	 mov	 eax, DWORD PTR _aIndex$[ebp]
  00006	85 c0		 test	 eax, eax
  00008	78 0e		 js	 SHORT $LN13@ReturnStat
  0000a	33 d2		 xor	 edx, edx
  0000c	3d 97 3a 00 00	 cmp	 eax, 14999		; 00003a97H
  00011	0f 9e c2	 setle	 dl
  00014	85 d2		 test	 edx, edx
  00016	75 09		 jne	 SHORT $LN6@ReturnStat
$LN13@ReturnStat:

; 367  : 	{
; 368  : 		return 3;

  00018	b8 03 00 00 00	 mov	 eax, 3

; 379  : 	else return 6;
; 380  : }

  0001d	5d		 pop	 ebp
  0001e	c2 08 00	 ret	 8
$LN6@ReturnStat:
  00021	56		 push	 esi

; 369  : 	}
; 370  : 
; 371  : 	if ( OBJMAX_RANGE(TargetIndex) == FALSE )

  00022	8b 75 0c	 mov	 esi, DWORD PTR _TargetIndex$[ebp]
  00025	85 f6		 test	 esi, esi
  00027	78 0f		 js	 SHORT $LN14@ReturnStat
  00029	33 d2		 xor	 edx, edx
  0002b	81 fe 97 3a 00
	00		 cmp	 esi, 14999		; 00003a97H
  00031	0f 9e c2	 setle	 dl
  00034	85 d2		 test	 edx, edx
  00036	75 0a		 jne	 SHORT $LN5@ReturnStat
$LN14@ReturnStat:

; 372  : 	{
; 373  : 		return 3;

  00038	b8 03 00 00 00	 mov	 eax, 3
  0003d	5e		 pop	 esi

; 379  : 	else return 6;
; 380  : }

  0003e	5d		 pop	 ebp
  0003f	c2 08 00	 ret	 8
$LN5@ReturnStat:

; 374  : 	}
; 375  : 
; 376  : 	LPOBJ lpObj = &gObj[aIndex];

  00042	8b d0		 mov	 edx, eax
  00044	69 d2 50 2b 00
	00		 imul	 edx, 11088		; 00002b50H
  0004a	03 15 00 00 00
	00		 add	 edx, DWORD PTR ?gObj@@3PAUOBJECTSTRUCT@@A ; gObj

; 377  : 	if(this->Player[aIndex].tEvent == false || this->Player[aIndex].Team == 0) return (int)lpObj->m_PK_Level;

  00050	80 bc c1 b8 00
	00 00 00	 cmp	 BYTE PTR [ecx+eax*8+184], 0
  00058	74 21		 je	 SHORT $LN3@ReturnStat
  0005a	8b 84 c1 bc 00
	00 00		 mov	 eax, DWORD PTR [ecx+eax*8+188]
  00061	85 c0		 test	 eax, eax
  00063	74 16		 je	 SHORT $LN3@ReturnStat

; 378  : 	if(this->Player[aIndex].Team == this->Player[TargetIndex].Team) return 3;

  00065	2b 84 f1 bc 00
	00 00		 sub	 eax, DWORD PTR [ecx+esi*8+188]
  0006c	5e		 pop	 esi
  0006d	f7 d8		 neg	 eax
  0006f	1b c0		 sbb	 eax, eax
  00071	83 e0 03	 and	 eax, 3
  00074	83 c0 03	 add	 eax, 3

; 379  : 	else return 6;
; 380  : }

  00077	5d		 pop	 ebp
  00078	c2 08 00	 ret	 8
$LN3@ReturnStat:

; 377  : 	if(this->Player[aIndex].tEvent == false || this->Player[aIndex].Team == 0) return (int)lpObj->m_PK_Level;

  0007b	0f be 82 3d 01
	00 00		 movsx	 eax, BYTE PTR [edx+317]
  00082	5e		 pop	 esi

; 379  : 	else return 6;
; 380  : }

  00083	5d		 pop	 ebp
  00084	c2 08 00	 ret	 8
?ReturnStatus@cTvTEvent@@QAEHHH@Z ENDP			; cTvTEvent::ReturnStatus
_TEXT	ENDS
PUBLIC	?PkCheck@cTvTEvent@@QAE_NPAUOBJECTSTRUCT@@0@Z	; cTvTEvent::PkCheck
; Function compile flags: /Ogtp
;	COMDAT ?PkCheck@cTvTEvent@@QAE_NPAUOBJECTSTRUCT@@0@Z
_TEXT	SEGMENT
_lpObj$ = 8						; size = 4
_lpTarget$ = 12						; size = 4
?PkCheck@cTvTEvent@@QAE_NPAUOBJECTSTRUCT@@0@Z PROC	; cTvTEvent::PkCheck, COMDAT
; _this$ = ecx

; 383  : {

  00000	55		 push	 ebp
  00001	8b ec		 mov	 ebp, esp

; 384  : 	if(!this->Enable)return true;

  00003	83 39 00	 cmp	 DWORD PTR [ecx], 0
  00006	75 06		 jne	 SHORT $LN3@PkCheck
$LN6@PkCheck:
  00008	b0 01		 mov	 al, 1

; 387  : 	return true;
; 388  : }

  0000a	5d		 pop	 ebp
  0000b	c2 08 00	 ret	 8
$LN3@PkCheck:

; 385  : 	if(!this->Start)return true;

  0000e	80 b9 ad 00 00
	00 00		 cmp	 BYTE PTR [ecx+173], 0
  00015	74 f1		 je	 SHORT $LN6@PkCheck

; 386  : 	if(this->Player[lpObj->m_Index].tEvent == true && this->Player[lpTarget->m_Index].tEvent == true) return false;

  00017	8b 45 08	 mov	 eax, DWORD PTR _lpObj$[ebp]
  0001a	8b 10		 mov	 edx, DWORD PTR [eax]
  0001c	b0 01		 mov	 al, 1
  0001e	38 84 d1 b8 00
	00 00		 cmp	 BYTE PTR [ecx+edx*8+184], al
  00025	75 10		 jne	 SHORT $LN4@PkCheck
  00027	8b 55 0c	 mov	 edx, DWORD PTR _lpTarget$[ebp]
  0002a	8b 12		 mov	 edx, DWORD PTR [edx]
  0002c	38 84 d1 b8 00
	00 00		 cmp	 BYTE PTR [ecx+edx*8+184], al
  00033	75 02		 jne	 SHORT $LN4@PkCheck
  00035	32 c0		 xor	 al, al
$LN4@PkCheck:

; 387  : 	return true;
; 388  : }

  00037	5d		 pop	 ebp
  00038	c2 08 00	 ret	 8
?PkCheck@cTvTEvent@@QAE_NPAUOBJECTSTRUCT@@0@Z ENDP	; cTvTEvent::PkCheck
_TEXT	ENDS
PUBLIC	?ProcessKill@cTvTEvent@@QAEXPAUOBJECTSTRUCT@@0@Z ; cTvTEvent::ProcessKill
; Function compile flags: /Ogtp
;	COMDAT ?ProcessKill@cTvTEvent@@QAEXPAUOBJECTSTRUCT@@0@Z
_TEXT	SEGMENT
tv323 = 8						; size = 4
_lpObj$ = 8						; size = 4
_lpTarget$ = 12						; size = 4
?ProcessKill@cTvTEvent@@QAEXPAUOBJECTSTRUCT@@0@Z PROC	; cTvTEvent::ProcessKill, COMDAT
; _this$ = ecx

; 391  : {

  00000	55		 push	 ebp
  00001	8b ec		 mov	 ebp, esp
  00003	56		 push	 esi
  00004	8b f1		 mov	 esi, ecx

; 392  : 	if(!this->Enable)return;

  00006	83 3e 00	 cmp	 DWORD PTR [esi], 0
  00009	0f 84 cb 00 00
	00		 je	 $LN6@ProcessKil

; 393  : 	if(!this->Start)return;

  0000f	80 be ad 00 00
	00 00		 cmp	 BYTE PTR [esi+173], 0
  00016	0f 84 be 00 00
	00		 je	 $LN6@ProcessKil

; 394  : 	if(this->Player[lpObj->m_Index].Team == BLUETEAM && this->Player[lpTarget->m_Index].Team == REDTEAM)

  0001c	8b 45 08	 mov	 eax, DWORD PTR _lpObj$[ebp]
  0001f	8b 08		 mov	 ecx, DWORD PTR [eax]
  00021	8b 84 ce bc 00
	00 00		 mov	 eax, DWORD PTR [esi+ecx*8+188]
  00028	8b 4d 0c	 mov	 ecx, DWORD PTR _lpTarget$[ebp]
  0002b	83 f8 01	 cmp	 eax, 1
  0002e	75 14		 jne	 SHORT $LN18@ProcessKil
  00030	8b 11		 mov	 edx, DWORD PTR [ecx]
  00032	83 bc d6 bc 00
	00 00 02	 cmp	 DWORD PTR [esi+edx*8+188], 2
  0003a	75 08		 jne	 SHORT $LN18@ProcessKil

; 395  : 	{
; 396  : 		this->ScoreBlue++;

  0003c	ff 86 7c d5 01
	00		 inc	 DWORD PTR [esi+120188]
  00042	eb 17		 jmp	 SHORT $LN9@ProcessKil
$LN18@ProcessKil:

; 397  : 	}
; 398  : 	else if(this->Player[lpObj->m_Index].Team == REDTEAM && this->Player[lpTarget->m_Index].Team == BLUETEAM) 

  00044	83 f8 02	 cmp	 eax, 2
  00047	75 12		 jne	 SHORT $LN9@ProcessKil
  00049	8b 01		 mov	 eax, DWORD PTR [ecx]
  0004b	83 bc c6 bc 00
	00 00 01	 cmp	 DWORD PTR [esi+eax*8+188], 1
  00053	75 06		 jne	 SHORT $LN9@ProcessKil

; 399  : 	{
; 400  : 		this->ScoreRed++;

  00055	ff 86 80 d5 01
	00		 inc	 DWORD PTR [esi+120192]
$LN9@ProcessKil:
  0005b	53		 push	 ebx

; 401  : 	}
; 402  : 	for(int n=OBJ_STARTUSERINDZT;n<OBJMAX;n++)

  0005c	8d 86 3c b6 01
	00		 lea	 eax, DWORD PTR [esi+112188]
  00062	57		 push	 edi
  00063	bf b0 36 00 00	 mov	 edi, 14000		; 000036b0H
  00068	bb 00 a7 40 09	 mov	 ebx, 155232000		; 0940a700H
  0006d	89 45 08	 mov	 DWORD PTR tv323[ebp], eax
$LL19@ProcessKil:

; 403  : 	{
; 404  : 		LPOBJ sObj = &gObj[n];
; 405  : 		if(sObj->Connected != PLAYER_PLAYING) continue;

  00070	8b 0d 00 00 00
	00		 mov	 ecx, DWORD PTR ?gObj@@3PAUOBJECTSTRUCT@@A ; gObj
  00076	83 7c 0b 04 03	 cmp	 DWORD PTR [ebx+ecx+4], 3
  0007b	75 43		 jne	 SHORT $LN7@ProcessKil

; 406  : 		if(this->Player[n].tEvent == false) continue;

  0007d	80 78 fc 00	 cmp	 BYTE PTR [eax-4], 0
  00081	74 3d		 je	 SHORT $LN7@ProcessKil

; 407  : 		if(this->Player[n].Team == BLUETEAM)

  00083	8b 00		 mov	 eax, DWORD PTR [eax]
  00085	83 f8 01	 cmp	 eax, 1
  00088	75 15		 jne	 SHORT $LN3@ProcessKil

; 408  : 		{
; 409  : 			MsgNormal(n,"[BlueTeam]: %d Vs [RedTeam]: %d",this->ScoreBlue,this->ScoreRed);

  0008a	8b 96 80 d5 01
	00		 mov	 edx, DWORD PTR [esi+120192]
  00090	8b 86 7c d5 01
	00		 mov	 eax, DWORD PTR [esi+120188]
  00096	52		 push	 edx
  00097	50		 push	 eax
  00098	68 00 00 00 00	 push	 OFFSET ??_C@_0CA@JJIAMAIB@?$FLBlueTeam?$FN?3?5?$CFd?5Vs?5?$FLRedTeam?$FN?3?5?$CFd?$AA@
  0009d	eb 18		 jmp	 SHORT $LN20@ProcessKil
$LN3@ProcessKil:

; 410  : 		}
; 411  : 		else if(this->Player[n].Team == REDTEAM)

  0009f	83 f8 02	 cmp	 eax, 2
  000a2	75 1c		 jne	 SHORT $LN7@ProcessKil

; 412  : 		{
; 413  : 			MsgNormal(n,"[RedTeam]: %d Vs [BlueTeam]: %d",this->ScoreRed,this->ScoreBlue);

  000a4	8b 8e 7c d5 01
	00		 mov	 ecx, DWORD PTR [esi+120188]
  000aa	8b 96 80 d5 01
	00		 mov	 edx, DWORD PTR [esi+120192]
  000b0	51		 push	 ecx
  000b1	52		 push	 edx
  000b2	68 00 00 00 00	 push	 OFFSET ??_C@_0CA@KAJPHADH@?$FLRedTeam?$FN?3?5?$CFd?5Vs?5?$FLBlueTeam?$FN?3?5?$CFd?$AA@
$LN20@ProcessKil:
  000b7	57		 push	 edi
  000b8	e8 00 00 00 00	 call	 ?MsgNormal@@YAXHPADZZ	; MsgNormal
  000bd	83 c4 10	 add	 esp, 16			; 00000010H
$LN7@ProcessKil:

; 401  : 	}
; 402  : 	for(int n=OBJ_STARTUSERINDZT;n<OBJMAX;n++)

  000c0	8b 45 08	 mov	 eax, DWORD PTR tv323[ebp]
  000c3	81 c3 50 2b 00
	00		 add	 ebx, 11088		; 00002b50H
  000c9	83 c0 08	 add	 eax, 8
  000cc	47		 inc	 edi
  000cd	89 45 08	 mov	 DWORD PTR tv323[ebp], eax
  000d0	81 fb 80 d7 e9
	09		 cmp	 ebx, 166320000		; 09e9d780H
  000d6	7c 98		 jl	 SHORT $LL19@ProcessKil
  000d8	5f		 pop	 edi
  000d9	5b		 pop	 ebx
$LN6@ProcessKil:
  000da	5e		 pop	 esi

; 414  : 		}
; 415  : 	}
; 416  : }

  000db	5d		 pop	 ebp
  000dc	c2 08 00	 ret	 8
?ProcessKill@cTvTEvent@@QAEXPAUOBJECTSTRUCT@@0@Z ENDP	; cTvTEvent::ProcessKill
_TEXT	ENDS
PUBLIC	?AllyKillCheck@cTvTEvent@@QAE_NPAUOBJECTSTRUCT@@0@Z ; cTvTEvent::AllyKillCheck
; Function compile flags: /Ogtp
;	COMDAT ?AllyKillCheck@cTvTEvent@@QAE_NPAUOBJECTSTRUCT@@0@Z
_TEXT	SEGMENT
_lpObj$ = 8						; size = 4
_lpTarget$ = 12						; size = 4
?AllyKillCheck@cTvTEvent@@QAE_NPAUOBJECTSTRUCT@@0@Z PROC ; cTvTEvent::AllyKillCheck, COMDAT
; _this$ = ecx

; 419  : {

  00000	55		 push	 ebp
  00001	8b ec		 mov	 ebp, esp

; 420  : 	if(!this->Enable)return true;

  00003	83 39 00	 cmp	 DWORD PTR [ecx], 0
  00006	74 4b		 je	 SHORT $LN1@AllyKillCh

; 421  : 	if(!this->Start)return true;

  00008	80 b9 ad 00 00
	00 00		 cmp	 BYTE PTR [ecx+173], 0
  0000f	74 42		 je	 SHORT $LN1@AllyKillCh

; 422  : 	if(this->Player[lpObj->m_Index].tEvent == false) return true;

  00011	8b 45 08	 mov	 eax, DWORD PTR _lpObj$[ebp]
  00014	8b 00		 mov	 eax, DWORD PTR [eax]
  00016	80 bc c1 b8 00
	00 00 00	 cmp	 BYTE PTR [ecx+eax*8+184], 0
  0001e	74 33		 je	 SHORT $LN1@AllyKillCh

; 423  : 	if(this->Player[lpObj->m_Index].Team == BLUETEAM && this->Player[lpTarget->m_Index].Team == BLUETEAM) return false;

  00020	8b 84 c1 bc 00
	00 00		 mov	 eax, DWORD PTR [ecx+eax*8+188]
  00027	8b 55 0c	 mov	 edx, DWORD PTR _lpTarget$[ebp]
  0002a	83 f8 01	 cmp	 eax, 1
  0002d	75 14		 jne	 SHORT $LN2@AllyKillCh
  0002f	56		 push	 esi
  00030	8b 32		 mov	 esi, DWORD PTR [edx]
  00032	83 bc f1 bc 00
	00 00 01	 cmp	 DWORD PTR [ecx+esi*8+188], 1
  0003a	5e		 pop	 esi
  0003b	75 06		 jne	 SHORT $LN2@AllyKillCh
$LN8@AllyKillCh:
  0003d	32 c0		 xor	 al, al

; 426  : }

  0003f	5d		 pop	 ebp
  00040	c2 08 00	 ret	 8
$LN2@AllyKillCh:

; 424  : 	if(this->Player[lpObj->m_Index].Team == REDTEAM && this->Player[lpTarget->m_Index].Team == REDTEAM) return false;

  00043	83 f8 02	 cmp	 eax, 2
  00046	75 0b		 jne	 SHORT $LN1@AllyKillCh
  00048	8b 12		 mov	 edx, DWORD PTR [edx]
  0004a	39 84 d1 bc 00
	00 00		 cmp	 DWORD PTR [ecx+edx*8+188], eax
  00051	74 ea		 je	 SHORT $LN8@AllyKillCh
$LN1@AllyKillCh:

; 425  : 	return true;

  00053	b0 01		 mov	 al, 1

; 426  : }

  00055	5d		 pop	 ebp
  00056	c2 08 00	 ret	 8
?AllyKillCheck@cTvTEvent@@QAE_NPAUOBJECTSTRUCT@@0@Z ENDP ; cTvTEvent::AllyKillCheck
_TEXT	ENDS
PUBLIC	?Reward@cTvTEvent@@QAEXH@Z			; cTvTEvent::Reward
EXTRN	?ItemSerialCreateSend@@YAXHEEEHEEEEEHEE@Z:PROC	; ItemSerialCreateSend
EXTRN	?GDSaveUserInfo@GameShop@@QAEXH@Z:PROC		; GameShop::GDSaveUserInfo
EXTRN	?gGameShop@@3VGameShop@@A:BYTE			; gGameShop
EXTRN	__fltused:DWORD
; Function compile flags: /Ogtp
;	COMDAT ?Reward@cTvTEvent@@QAEXH@Z
_TEXT	SEGMENT
tv222 = -4						; size = 4
_aIndex$ = 8						; size = 4
?Reward@cTvTEvent@@QAEXH@Z PROC				; cTvTEvent::Reward, COMDAT
; _this$ = ecx

; 429  : {

  00000	55		 push	 ebp
  00001	8b ec		 mov	 ebp, esp
  00003	51		 push	 ecx
  00004	56		 push	 esi
  00005	8b f1		 mov	 esi, ecx

; 430  : 	if(!this->Enable)return;

  00007	83 3e 00	 cmp	 DWORD PTR [esi], 0
  0000a	0f 84 c5 00 00
	00		 je	 $LN1@Reward

; 431  : 
; 432  : 	int TeamReward = 0;
; 433  : 	if(this->ScoreBlue > this->ScoreRed)

  00010	8b 86 7c d5 01
	00		 mov	 eax, DWORD PTR [esi+120188]
  00016	8b 8e 80 d5 01
	00		 mov	 ecx, DWORD PTR [esi+120192]
  0001c	3b c8		 cmp	 ecx, eax
  0001e	7d 07		 jge	 SHORT $LN21@Reward

; 434  : 		TeamReward = BLUETEAM;

  00020	b8 01 00 00 00	 mov	 eax, 1
  00025	eb 0b		 jmp	 SHORT $LN17@Reward
$LN21@Reward:

; 435  : 	else if(this->ScoreRed > ScoreBlue)

  00027	0f 8e a8 00 00
	00		 jle	 $LN1@Reward

; 436  : 		TeamReward = REDTEAM;

  0002d	b8 02 00 00 00	 mov	 eax, 2
$LN17@Reward:
  00032	57		 push	 edi

; 437  : 	
; 438  : 	if(TeamReward == 0) return;
; 439  : 
; 440  : 	if(this->Player[aIndex].Team != TeamReward) return;

  00033	8b 7d 08	 mov	 edi, DWORD PTR _aIndex$[ebp]
  00036	39 84 fe bc 00
	00 00		 cmp	 DWORD PTR [esi+edi*8+188], eax
  0003d	0f 85 91 00 00
	00		 jne	 $LN19@Reward

; 441  : 
; 442  : 	LPOBJ lpObj = &gObj[aIndex];
; 443  : 
; 444  : 	if(this->RewardExPoint > 0)

  00043	8b 46 50	 mov	 eax, DWORD PTR [esi+80]
  00046	69 ff 50 2b 00
	00		 imul	 edi, 11088		; 00002b50H
  0004c	03 3d 00 00 00
	00		 add	 edi, DWORD PTR ?gObj@@3PAUOBJECTSTRUCT@@A ; gObj
  00052	85 c0		 test	 eax, eax
  00054	7e 06		 jle	 SHORT $LN6@Reward

; 445  : 	{
; 446  : 		lpObj->PCPoint += this->RewardExPoint;

  00056	01 87 88 22 00
	00		 add	 DWORD PTR [edi+8840], eax
$LN6@Reward:

; 447  : 	}
; 448  : 	if(this->RewardWCoin > 0)

  0005c	8b 46 54	 mov	 eax, DWORD PTR [esi+84]
  0005f	89 45 fc	 mov	 DWORD PTR tv222[ebp], eax
  00062	85 c0		 test	 eax, eax
  00064	7e 1c		 jle	 SHORT $LN5@Reward

; 449  : 	{
; 450  : 		lpObj->GameShop.WCoinC += this->RewardWCoin;

  00066	db 45 fc	 fild	 DWORD PTR tv222[ebp]

; 451  : 		gGameShop.GDSaveUserInfo(lpObj->m_Index);

  00069	8b 07		 mov	 eax, DWORD PTR [edi]
  0006b	50		 push	 eax
  0006c	b9 00 00 00 00	 mov	 ecx, OFFSET ?gGameShop@@3VGameShop@@A ; gGameShop
  00071	dc 87 00 23 00
	00		 fadd	 QWORD PTR [edi+8960]
  00077	dd 9f 00 23 00
	00		 fstp	 QWORD PTR [edi+8960]
  0007d	e8 00 00 00 00	 call	 ?GDSaveUserInfo@GameShop@@QAEXH@Z ; GameShop::GDSaveUserInfo
$LN5@Reward:

; 452  : 	}
; 453  : 	
; 454  : 	if(this->RewardItem == 0) return;

  00082	83 7e 3c 00	 cmp	 DWORD PTR [esi+60], 0
  00086	74 4c		 je	 SHORT $LN19@Reward

; 455  : 
; 456  : 	for (int a=0;a<this->RewardItemCount;a++)

  00088	53		 push	 ebx
  00089	33 db		 xor	 ebx, ebx
  0008b	39 5e 4c	 cmp	 DWORD PTR [esi+76], ebx
  0008e	7e 43		 jle	 SHORT $LN20@Reward
$LL18@Reward:

; 457  : 	{
; 458  : 		ItemSerialCreateSend(aIndex,235,lpObj->X,lpObj->Y,ITEMGET(this->ItemRewardType,this->ItemRewardIndex),(BYTE)this->ItemRewardLevel,0,0,0,0,aIndex,0,0);

  00090	8b 45 08	 mov	 eax, DWORD PTR _aIndex$[ebp]
  00093	0f b6 4e 48	 movzx	 ecx, BYTE PTR [esi+72]
  00097	8b 56 40	 mov	 edx, DWORD PTR [esi+64]
  0009a	6a 00		 push	 0
  0009c	6a 00		 push	 0
  0009e	50		 push	 eax
  0009f	6a 00		 push	 0
  000a1	6a 00		 push	 0
  000a3	6a 00		 push	 0
  000a5	6a 00		 push	 0
  000a7	51		 push	 ecx
  000a8	0f b6 8f 46 01
	00 00		 movzx	 ecx, BYTE PTR [edi+326]
  000af	c1 e2 09	 shl	 edx, 9
  000b2	03 56 44	 add	 edx, DWORD PTR [esi+68]
  000b5	52		 push	 edx
  000b6	0f b6 97 44 01
	00 00		 movzx	 edx, BYTE PTR [edi+324]
  000bd	51		 push	 ecx
  000be	52		 push	 edx
  000bf	68 eb 00 00 00	 push	 235			; 000000ebH
  000c4	50		 push	 eax
  000c5	e8 00 00 00 00	 call	 ?ItemSerialCreateSend@@YAXHEEEHEEEEEHEE@Z ; ItemSerialCreateSend
  000ca	43		 inc	 ebx
  000cb	83 c4 34	 add	 esp, 52			; 00000034H
  000ce	3b 5e 4c	 cmp	 ebx, DWORD PTR [esi+76]
  000d1	7c bd		 jl	 SHORT $LL18@Reward
$LN20@Reward:
  000d3	5b		 pop	 ebx
$LN19@Reward:
  000d4	5f		 pop	 edi
$LN1@Reward:
  000d5	5e		 pop	 esi

; 459  : 	}
; 460  : }

  000d6	8b e5		 mov	 esp, ebp
  000d8	5d		 pop	 ebp
  000d9	c2 04 00	 ret	 4
?Reward@cTvTEvent@@QAEXH@Z ENDP				; cTvTEvent::Reward
_TEXT	ENDS
PUBLIC	?CheckGateEvent@cTvTEvent@@QAE_NH@Z		; cTvTEvent::CheckGateEvent
; Function compile flags: /Ogtp
;	COMDAT ?CheckGateEvent@cTvTEvent@@QAE_NH@Z
_TEXT	SEGMENT
_aIndex$ = 8						; size = 4
?CheckGateEvent@cTvTEvent@@QAE_NH@Z PROC		; cTvTEvent::CheckGateEvent, COMDAT
; _this$ = ecx

; 463  : {

  00000	55		 push	 ebp
  00001	8b ec		 mov	 ebp, esp

; 464  : 	if(!this->Enable)return true;

  00003	83 39 00	 cmp	 DWORD PTR [ecx], 0
  00006	75 06		 jne	 SHORT $LN2@CheckGateE
  00008	b0 01		 mov	 al, 1

; 466  : 	return true;
; 467  : }

  0000a	5d		 pop	 ebp
  0000b	c2 04 00	 ret	 4
$LN2@CheckGateE:

; 465  : 	if(this->Player[aIndex].tEvent == true) return false;

  0000e	8b 45 08	 mov	 eax, DWORD PTR _aIndex$[ebp]
  00011	80 bc c1 b8 00
	00 00 01	 cmp	 BYTE PTR [ecx+eax*8+184], 1
  00019	0f 95 c0	 setne	 al

; 466  : 	return true;
; 467  : }

  0001c	5d		 pop	 ebp
  0001d	c2 04 00	 ret	 4
?CheckGateEvent@cTvTEvent@@QAE_NH@Z ENDP		; cTvTEvent::CheckGateEvent
_TEXT	ENDS
PUBLIC	?CheckMapXY@cTvTEvent@@QAEXPAUOBJECTSTRUCT@@@Z	; cTvTEvent::CheckMapXY
; Function compile flags: /Ogtp
;	COMDAT ?CheckMapXY@cTvTEvent@@QAEXPAUOBJECTSTRUCT@@@Z
_TEXT	SEGMENT
_lpObj$ = 8						; size = 4
?CheckMapXY@cTvTEvent@@QAEXPAUOBJECTSTRUCT@@@Z PROC	; cTvTEvent::CheckMapXY, COMDAT
; _this$ = ecx

; 470  : {

  00000	55		 push	 ebp
  00001	8b ec		 mov	 ebp, esp

; 471  : 	if(lpObj->MapNumber == 6 && lpObj->X >= 100 && lpObj->X <= 120 && lpObj->Y >= 150 && lpObj->Y <= 186)

  00003	8b 45 08	 mov	 eax, DWORD PTR _lpObj$[ebp]
  00006	80 b8 49 01 00
	00 06		 cmp	 BYTE PTR [eax+329], 6
  0000d	75 3f		 jne	 SHORT $LN1@CheckMapXY
  0000f	0f b7 88 44 01
	00 00		 movzx	 ecx, WORD PTR [eax+324]
  00016	66 83 f9 64	 cmp	 cx, 100			; 00000064H
  0001a	7c 32		 jl	 SHORT $LN1@CheckMapXY
  0001c	66 83 f9 78	 cmp	 cx, 120			; 00000078H
  00020	7f 2c		 jg	 SHORT $LN1@CheckMapXY
  00022	0f b7 88 46 01
	00 00		 movzx	 ecx, WORD PTR [eax+326]
  00029	ba 96 00 00 00	 mov	 edx, 150		; 00000096H
  0002e	66 3b ca	 cmp	 cx, dx
  00031	7c 1b		 jl	 SHORT $LN1@CheckMapXY
  00033	ba ba 00 00 00	 mov	 edx, 186		; 000000baH
  00038	66 3b ca	 cmp	 cx, dx
  0003b	7f 11		 jg	 SHORT $LN1@CheckMapXY

; 472  : 	{
; 473  : 		lpObj->MapNumber = 0;

  0003d	c6 80 49 01 00
	00 00		 mov	 BYTE PTR [eax+329], 0

; 474  : 		lpObj->X = 123;

  00044	c7 80 44 01 00
	00 7b 00 7b 00	 mov	 DWORD PTR [eax+324], 8061051 ; 007b007bH
$LN1@CheckMapXY:

; 475  : 		lpObj->Y = 123;
; 476  : 	}
; 477  : }

  0004e	5d		 pop	 ebp
  0004f	c2 04 00	 ret	 4
?CheckMapXY@cTvTEvent@@QAEXPAUOBJECTSTRUCT@@@Z ENDP	; cTvTEvent::CheckMapXY
_TEXT	ENDS
PUBLIC	??_C@_0L@MPIGLPBN@?1reloadtvt?$AA@		; `string'
PUBLIC	__$ArrayPad$
PUBLIC	?ChatData@cTvTEvent@@QAEXHPAE@Z			; cTvTEvent::ChatData
;	COMDAT ??_C@_0L@MPIGLPBN@?1reloadtvt?$AA@
CONST	SEGMENT
??_C@_0L@MPIGLPBN@?1reloadtvt?$AA@ DB '/reloadtvt', 00H	; `string'
; Function compile flags: /Ogtp
CONST	ENDS
;	COMDAT ?ChatData@cTvTEvent@@QAEXHPAE@Z
_TEXT	SEGMENT
_CommandReloadConfig$203556 = -16			; size = 11
__$ArrayPad$ = -4					; size = 4
_aIndex$ = 8						; size = 4
_Protocol$ = 12						; size = 4
?ChatData@cTvTEvent@@QAEXHPAE@Z PROC			; cTvTEvent::ChatData, COMDAT
; _this$ = ecx

; 480  : {

  00000	55		 push	 ebp
  00001	8b ec		 mov	 ebp, esp
  00003	83 ec 10	 sub	 esp, 16			; 00000010H
  00006	a1 00 00 00 00	 mov	 eax, DWORD PTR ___security_cookie
  0000b	33 c5		 xor	 eax, ebp
  0000d	89 45 fc	 mov	 DWORD PTR __$ArrayPad$[ebp], eax

; 481  : 	LPOBJ lpObj = &gObj[aIndex];

  00010	8b 45 08	 mov	 eax, DWORD PTR _aIndex$[ebp]
  00013	69 c0 50 2b 00
	00		 imul	 eax, 11088		; 00002b50H
  00019	03 05 00 00 00
	00		 add	 eax, DWORD PTR ?gObj@@3PAUOBJECTSTRUCT@@A ; gObj
  0001f	57		 push	 edi

; 482  : 	if(lpObj->Authority == 8 || lpObj->Authority == 32)

  00020	8b 80 0c 02 00
	00		 mov	 eax, DWORD PTR [eax+524]
  00026	8b f9		 mov	 edi, ecx
  00028	83 f8 08	 cmp	 eax, 8
  0002b	74 09		 je	 SHORT $LN2@ChatData
  0002d	83 f8 20	 cmp	 eax, 32			; 00000020H
  00030	0f 85 82 00 00
	00		 jne	 $LN1@ChatData
$LN2@ChatData:

; 483  : 	{
; 484  : 		char CommandReloadConfig[]	= "/reloadtvt";

  00036	a1 00 00 00 00	 mov	 eax, DWORD PTR ??_C@_0L@MPIGLPBN@?1reloadtvt?$AA@
  0003b	8b 0d 04 00 00
	00		 mov	 ecx, DWORD PTR ??_C@_0L@MPIGLPBN@?1reloadtvt?$AA@+4
  00041	66 8b 15 08 00
	00 00		 mov	 dx, WORD PTR ??_C@_0L@MPIGLPBN@?1reloadtvt?$AA@+8
  00048	89 45 f0	 mov	 DWORD PTR _CommandReloadConfig$203556[ebp], eax
  0004b	a0 0a 00 00 00	 mov	 al, BYTE PTR ??_C@_0L@MPIGLPBN@?1reloadtvt?$AA@+10
  00050	88 45 fa	 mov	 BYTE PTR _CommandReloadConfig$203556[ebp+10], al

; 485  : 		if(!memcmp(&Protocol[13],CommandReloadConfig,strlen(CommandReloadConfig)))

  00053	8d 45 f0	 lea	 eax, DWORD PTR _CommandReloadConfig$203556[ebp]
  00056	56		 push	 esi
  00057	89 4d f4	 mov	 DWORD PTR _CommandReloadConfig$203556[ebp+4], ecx
  0005a	66 89 55 f8	 mov	 WORD PTR _CommandReloadConfig$203556[ebp+8], dx
  0005e	8d 70 01	 lea	 esi, DWORD PTR [eax+1]
$LL14@ChatData:
  00061	8a 10		 mov	 dl, BYTE PTR [eax]
  00063	40		 inc	 eax
  00064	84 d2		 test	 dl, dl
  00066	75 f9		 jne	 SHORT $LL14@ChatData
  00068	2b c6		 sub	 eax, esi
  0006a	8b 75 0c	 mov	 esi, DWORD PTR _Protocol$[ebp]
  0006d	83 c6 0d	 add	 esi, 13			; 0000000dH
  00070	8d 55 f0	 lea	 edx, DWORD PTR _CommandReloadConfig$203556[ebp]
  00073	83 f8 04	 cmp	 eax, 4
  00076	72 14		 jb	 SHORT $LN12@ChatData
$LL7@ChatData:
  00078	8b 0e		 mov	 ecx, DWORD PTR [esi]
  0007a	3b 0a		 cmp	 ecx, DWORD PTR [edx]
  0007c	75 39		 jne	 SHORT $LN15@ChatData
  0007e	83 e8 04	 sub	 eax, 4
  00081	83 c2 04	 add	 edx, 4
  00084	83 c6 04	 add	 esi, 4
  00087	83 f8 04	 cmp	 eax, 4
  0008a	73 ec		 jae	 SHORT $LL7@ChatData
$LN12@ChatData:
  0008c	85 c0		 test	 eax, eax
  0008e	74 20		 je	 SHORT $LN9@ChatData
  00090	8a 0a		 mov	 cl, BYTE PTR [edx]
  00092	3a 0e		 cmp	 cl, BYTE PTR [esi]
  00094	75 21		 jne	 SHORT $LN15@ChatData
  00096	83 f8 01	 cmp	 eax, 1
  00099	76 15		 jbe	 SHORT $LN9@ChatData
  0009b	8a 4a 01	 mov	 cl, BYTE PTR [edx+1]
  0009e	3a 4e 01	 cmp	 cl, BYTE PTR [esi+1]
  000a1	75 14		 jne	 SHORT $LN15@ChatData
  000a3	83 f8 02	 cmp	 eax, 2
  000a6	76 08		 jbe	 SHORT $LN9@ChatData
  000a8	8a 52 02	 mov	 dl, BYTE PTR [edx+2]
  000ab	3a 56 02	 cmp	 dl, BYTE PTR [esi+2]
  000ae	75 07		 jne	 SHORT $LN15@ChatData
$LN9@ChatData:

; 486  : 		{
; 487  : 			this->Load();

  000b0	8b cf		 mov	 ecx, edi
  000b2	e8 00 00 00 00	 call	 ?Load@cTvTEvent@@QAEXXZ	; cTvTEvent::Load
$LN15@ChatData:
  000b7	5e		 pop	 esi
$LN1@ChatData:

; 488  : 		}
; 489  : 	}
; 490  : }

  000b8	8b 4d fc	 mov	 ecx, DWORD PTR __$ArrayPad$[ebp]
  000bb	33 cd		 xor	 ecx, ebp
  000bd	5f		 pop	 edi
  000be	e8 00 00 00 00	 call	 @__security_check_cookie@4
  000c3	8b e5		 mov	 esp, ebp
  000c5	5d		 pop	 ebp
  000c6	c2 08 00	 ret	 8
?ChatData@cTvTEvent@@QAEXHPAE@Z ENDP			; cTvTEvent::ChatData
_TEXT	ENDS
PUBLIC	??_C@_0CA@JKFBENBB@?$FLTvT?5Event?$FN?5Starts?5in?5?$CFd?5minute?$AA@ ; `string'
PUBLIC	??_C@_0BG@LHIFGLIN@?$FLTvT?5Event?$FN?5Dead?5heat?$AA@ ; `string'
PUBLIC	??_C@_0CA@EKGDDMJN@?$FLTvT?5Event?$FN?5Red?3?5?$CFd?5Vs?5Blue?3?5?$CFd?$AA@ ; `string'
PUBLIC	??_C@_0BJ@IJAECJBJ@?$FLTvT?5Event?$FN?5Win?5Red?5Team?$AA@ ; `string'
PUBLIC	??_C@_0CA@JJNMGFIP@?$FLTvT?5Event?$FN?5Blue?3?5?$CFd?5Vs?5Red?3?5?$CFd?$AA@ ; `string'
PUBLIC	??_C@_0BK@BDBEFFAJ@?$FLTvT?5Event?$FN?5Win?5Blue?5Team?$AA@ ; `string'
PUBLIC	??_C@_0BA@EPLFLOEN@?$FLTvT?5Event?$FN?5End?$AA@	; `string'
PUBLIC	??_C@_0BN@GBPGLDJO@?$FLTvT?5Event?$FN?5Total?5Player?3?5?$CFd?$AA@ ; `string'
PUBLIC	??_C@_0BC@LNCJHOCN@?$FLTvT?5Event?$FN?5Start?$AA@ ; `string'
PUBLIC	__$ArrayPad$
PUBLIC	?TickTime@cTvTEvent@@QAEXXZ			; cTvTEvent::TickTime
EXTRN	?GetSecond@CTimerZt@@QAEHXZ:PROC		; CTimerZt::GetSecond
EXTRN	?g_TimerZt@@3VCTimerZt@@A:DWORD			; g_TimerZt
EXTRN	?gObjMoveGate@@YAHHH@Z:PROC			; gObjMoveGate
EXTRN	?MessaageAllGlobal@@YAXPADZZ:PROC		; MessaageAllGlobal
EXTRN	__imp__GetLocalTime@4:PROC
;	COMDAT ??_C@_0CA@JKFBENBB@?$FLTvT?5Event?$FN?5Starts?5in?5?$CFd?5minute?$AA@
CONST	SEGMENT
??_C@_0CA@JKFBENBB@?$FLTvT?5Event?$FN?5Starts?5in?5?$CFd?5minute?$AA@ DB '['
	DB	'TvT Event] Starts in %d minute', 00H	; `string'
CONST	ENDS
;	COMDAT ??_C@_0BG@LHIFGLIN@?$FLTvT?5Event?$FN?5Dead?5heat?$AA@
CONST	SEGMENT
??_C@_0BG@LHIFGLIN@?$FLTvT?5Event?$FN?5Dead?5heat?$AA@ DB '[TvT Event] De'
	DB	'ad heat', 00H				; `string'
CONST	ENDS
;	COMDAT ??_C@_0CA@EKGDDMJN@?$FLTvT?5Event?$FN?5Red?3?5?$CFd?5Vs?5Blue?3?5?$CFd?$AA@
CONST	SEGMENT
??_C@_0CA@EKGDDMJN@?$FLTvT?5Event?$FN?5Red?3?5?$CFd?5Vs?5Blue?3?5?$CFd?$AA@ DB '['
	DB	'TvT Event] Red: %d Vs Blue: %d', 00H	; `string'
CONST	ENDS
;	COMDAT ??_C@_0BJ@IJAECJBJ@?$FLTvT?5Event?$FN?5Win?5Red?5Team?$AA@
CONST	SEGMENT
??_C@_0BJ@IJAECJBJ@?$FLTvT?5Event?$FN?5Win?5Red?5Team?$AA@ DB '[TvT Event'
	DB	'] Win Red Team', 00H			; `string'
CONST	ENDS
;	COMDAT ??_C@_0CA@JJNMGFIP@?$FLTvT?5Event?$FN?5Blue?3?5?$CFd?5Vs?5Red?3?5?$CFd?$AA@
CONST	SEGMENT
??_C@_0CA@JJNMGFIP@?$FLTvT?5Event?$FN?5Blue?3?5?$CFd?5Vs?5Red?3?5?$CFd?$AA@ DB '['
	DB	'TvT Event] Blue: %d Vs Red: %d', 00H	; `string'
CONST	ENDS
;	COMDAT ??_C@_0BK@BDBEFFAJ@?$FLTvT?5Event?$FN?5Win?5Blue?5Team?$AA@
CONST	SEGMENT
??_C@_0BK@BDBEFFAJ@?$FLTvT?5Event?$FN?5Win?5Blue?5Team?$AA@ DB '[TvT Even'
	DB	't] Win Blue Team', 00H			; `string'
CONST	ENDS
;	COMDAT ??_C@_0BA@EPLFLOEN@?$FLTvT?5Event?$FN?5End?$AA@
CONST	SEGMENT
??_C@_0BA@EPLFLOEN@?$FLTvT?5Event?$FN?5End?$AA@ DB '[TvT Event] End', 00H ; `string'
CONST	ENDS
;	COMDAT ??_C@_0BN@GBPGLDJO@?$FLTvT?5Event?$FN?5Total?5Player?3?5?$CFd?$AA@
CONST	SEGMENT
??_C@_0BN@GBPGLDJO@?$FLTvT?5Event?$FN?5Total?5Player?3?5?$CFd?$AA@ DB '[T'
	DB	'vT Event] Total Player: %d', 00H		; `string'
CONST	ENDS
;	COMDAT ??_C@_0BC@LNCJHOCN@?$FLTvT?5Event?$FN?5Start?$AA@
CONST	SEGMENT
??_C@_0BC@LNCJHOCN@?$FLTvT?5Event?$FN?5Start?$AA@ DB '[TvT Event] Start', 00H ; `string'
; Function compile flags: /Ogtp
CONST	ENDS
;	COMDAT ?TickTime@cTvTEvent@@QAEXXZ
_TEXT	SEGMENT
tv603 = -24						; size = 4
tv544 = -24						; size = 4
_t$ = -20						; size = 16
__$ArrayPad$ = -4					; size = 4
?TickTime@cTvTEvent@@QAEXXZ PROC			; cTvTEvent::TickTime, COMDAT
; _this$ = ecx

; 168  : {

  00000	55		 push	 ebp
  00001	8b ec		 mov	 ebp, esp
  00003	83 ec 18	 sub	 esp, 24			; 00000018H
  00006	a1 00 00 00 00	 mov	 eax, DWORD PTR ___security_cookie
  0000b	33 c5		 xor	 eax, ebp
  0000d	89 45 fc	 mov	 DWORD PTR __$ArrayPad$[ebp], eax
  00010	56		 push	 esi
  00011	8b f1		 mov	 esi, ecx

; 169  : 	if(!this->Enable)return;

  00013	83 3e 00	 cmp	 DWORD PTR [esi], 0
  00016	0f 84 99 03 00
	00		 je	 $LN7@TickTime

; 170  : 	SYSTEMTIME t;
; 171  : 	GetLocalTime(&t);

  0001c	53		 push	 ebx
  0001d	57		 push	 edi
  0001e	8d 45 ec	 lea	 eax, DWORD PTR _t$[ebp]
  00021	50		 push	 eax
  00022	ff 15 00 00 00
	00		 call	 DWORD PTR __imp__GetLocalTime@4

; 172  : 
; 173  : 	if(this->Waiting == true)

  00028	80 be ac 00 00
	00 01		 cmp	 BYTE PTR [esi+172], 1
  0002f	0f 85 28 01 00
	00		 jne	 $LN37@TickTime

; 174  : 	{
; 175  : 		this->WaitingTick++;

  00035	ff 86 b0 00 00
	00		 inc	 DWORD PTR [esi+176]
  0003b	8b 86 b0 00 00
	00		 mov	 eax, DWORD PTR [esi+176]

; 176  : 		if(this->WaitingTick == this->WaitingTime)

  00041	3b 46 34	 cmp	 eax, DWORD PTR [esi+52]
  00044	0f 85 69 03 00
	00		 jne	 $LN52@TickTime

; 177  : 		{
; 178  : 			if(this->TotalPlayer >= 2)

  0004a	83 be 78 d5 01
	00 02		 cmp	 DWORD PTR [esi+120184], 2
  00051	7c 31		 jl	 SHORT $LN35@TickTime

; 179  : 			{
; 180  : 				this->DivisionTeam();

  00053	8b ce		 mov	 ecx, esi
  00055	e8 00 00 00 00	 call	 ?DivisionTeam@cTvTEvent@@QAEXXZ ; cTvTEvent::DivisionTeam

; 181  : 				MessaageAllGlobal("[TvT Event] Start");

  0005a	68 00 00 00 00	 push	 OFFSET ??_C@_0BC@LNCJHOCN@?$FLTvT?5Event?$FN?5Start?$AA@
  0005f	e8 00 00 00 00	 call	 ?MessaageAllGlobal@@YAXPADZZ ; MessaageAllGlobal

; 182  : 				MessaageAllGlobal("[TvT Event] Total Player: %d",this->TotalPlayer);

  00064	8b 8e 78 d5 01
	00		 mov	 ecx, DWORD PTR [esi+120184]
  0006a	51		 push	 ecx
  0006b	68 00 00 00 00	 push	 OFFSET ??_C@_0BN@GBPGLDJO@?$FLTvT?5Event?$FN?5Total?5Player?3?5?$CFd?$AA@
  00070	e8 00 00 00 00	 call	 ?MessaageAllGlobal@@YAXPADZZ ; MessaageAllGlobal
  00075	83 c4 0c	 add	 esp, 12			; 0000000cH

; 183  : 				this->Start = true;

  00078	c6 86 ad 00 00
	00 01		 mov	 BYTE PTR [esi+173], 1

; 184  : 			}
; 185  : 			else

  0007f	e9 b7 00 00 00	 jmp	 $LN34@TickTime
$LN35@TickTime:

; 186  : 			{
; 187  : 				MessaageAllGlobal("[TvT Event] End");

  00084	68 00 00 00 00	 push	 OFFSET ??_C@_0BA@EPLFLOEN@?$FLTvT?5Event?$FN?5End?$AA@
  00089	e8 00 00 00 00	 call	 ?MessaageAllGlobal@@YAXPADZZ ; MessaageAllGlobal
  0008e	8d 86 38 b6 01
	00		 lea	 eax, DWORD PTR [esi+112184]
  00094	83 c4 04	 add	 esp, 4

; 188  : 				for(int n=OBJ_STARTUSERINDZT;n<OBJMAX;n++)

  00097	bb b0 36 00 00	 mov	 ebx, 14000		; 000036b0H
  0009c	bf 00 a7 40 09	 mov	 edi, 155232000		; 0940a700H
  000a1	89 45 e8	 mov	 DWORD PTR tv544[ebp], eax
  000a4	eb 0a 8d a4 24
	00 00 00 00 8d
	49 00		 npad	 12
$LL33@TickTime:

; 189  : 				{
; 190  : 					LPOBJ sObj = &gObj[n];
; 191  : 					if(sObj->Connected != PLAYER_PLAYING) continue;

  000b0	8b 15 00 00 00
	00		 mov	 edx, DWORD PTR ?gObj@@3PAUOBJECTSTRUCT@@A ; gObj
  000b6	83 7c 17 04 03	 cmp	 DWORD PTR [edi+edx+4], 3
  000bb	75 4e		 jne	 SHORT $LN32@TickTime

; 192  : 					if(this->Player[n].tEvent == true)

  000bd	80 38 01	 cmp	 BYTE PTR [eax], 1
  000c0	75 49		 jne	 SHORT $LN32@TickTime

; 193  : 					{
; 194  : 						this->Player[n].tEvent = false;
; 195  : 						gObjMoveGate(n,17);	//Lorencia

  000c2	6a 11		 push	 17			; 00000011H
  000c4	53		 push	 ebx
  000c5	c6 00 00	 mov	 BYTE PTR [eax], 0
  000c8	e8 00 00 00 00	 call	 ?gObjMoveGate@@YAHHH@Z	; gObjMoveGate
  000cd	83 c4 08	 add	 esp, 8

; 196  : 						if(this->DisplayCommands == 1)

  000d0	83 7e 14 01	 cmp	 DWORD PTR [esi+20], 1
  000d4	75 22		 jne	 SHORT $LN28@TickTime

; 197  : 						{
; 198  : 							gObj[n].m_Change = -1;

  000d6	a1 00 00 00 00	 mov	 eax, DWORD PTR ?gObj@@3PAUOBJECTSTRUCT@@A ; gObj
  000db	c7 84 07 54 04
	00 00 ff ff ff
	ff		 mov	 DWORD PTR [edi+eax+1108], -1

; 199  : 							gObjViewportListProtocolCreate(&gObj[n]);

  000e6	8b 0d 00 00 00
	00		 mov	 ecx, DWORD PTR ?gObj@@3PAUOBJECTSTRUCT@@A ; gObj
  000ec	8d 14 0f	 lea	 edx, DWORD PTR [edi+ecx]
  000ef	52		 push	 edx
  000f0	e8 00 00 00 00	 call	 ?gObjViewportListProtocolCreate@@YAXPAUOBJECTSTRUCT@@@Z ; gObjViewportListProtocolCreate
  000f5	83 c4 04	 add	 esp, 4
$LN28@TickTime:

; 200  : 						}
; 201  : 						this->Reward(n);

  000f8	53		 push	 ebx
  000f9	8b ce		 mov	 ecx, esi
  000fb	e8 00 00 00 00	 call	 ?Reward@cTvTEvent@@QAEXH@Z ; cTvTEvent::Reward

; 202  : 						this->RestoreUser(n);

  00100	53		 push	 ebx
  00101	8b ce		 mov	 ecx, esi
  00103	e8 00 00 00 00	 call	 ?RestoreUser@cTvTEvent@@QAEXH@Z ; cTvTEvent::RestoreUser
  00108	8b 45 e8	 mov	 eax, DWORD PTR tv544[ebp]
$LN32@TickTime:

; 188  : 				for(int n=OBJ_STARTUSERINDZT;n<OBJMAX;n++)

  0010b	83 c0 08	 add	 eax, 8
  0010e	81 c7 50 2b 00
	00		 add	 edi, 11088		; 00002b50H
  00114	43		 inc	 ebx
  00115	89 45 e8	 mov	 DWORD PTR tv544[ebp], eax
  00118	81 ff 80 d7 e9
	09		 cmp	 edi, 166320000		; 09e9d780H
  0011e	7c 90		 jl	 SHORT $LL33@TickTime

; 203  : 					}
; 204  : 				}
; 205  : 				this->Start = false;
; 206  : 				this->TotalPlayer = 0;

  00120	33 c0		 xor	 eax, eax
  00122	c6 86 ad 00 00
	00 00		 mov	 BYTE PTR [esi+173], 0
  00129	89 86 78 d5 01
	00		 mov	 DWORD PTR [esi+120184], eax

; 207  : 				this->ScoreBlue = 0;

  0012f	89 86 7c d5 01
	00		 mov	 DWORD PTR [esi+120188], eax

; 208  : 				this->ScoreRed = 0;

  00135	89 86 80 d5 01
	00		 mov	 DWORD PTR [esi+120192], eax
$LN34@TickTime:

; 209  : 			}
; 210  : 			this->Waiting = false;

  0013b	5f		 pop	 edi
  0013c	5b		 pop	 ebx
  0013d	c6 86 ac 00 00
	00 00		 mov	 BYTE PTR [esi+172], 0

; 211  : 			this->WaitingTick = 0;

  00144	c7 86 b0 00 00
	00 00 00 00 00	 mov	 DWORD PTR [esi+176], 0
  0014e	5e		 pop	 esi

; 294  : 				return;
; 295  : 			}
; 296  : 		}
; 297  : 	}
; 298  : }

  0014f	8b 4d fc	 mov	 ecx, DWORD PTR __$ArrayPad$[ebp]
  00152	33 cd		 xor	 ecx, ebp
  00154	e8 00 00 00 00	 call	 @__security_check_cookie@4
  00159	8b e5		 mov	 esp, ebp
  0015b	5d		 pop	 ebp
  0015c	c3		 ret	 0
$LN37@TickTime:

; 212  : 		}
; 213  : 		return;
; 214  : 	}
; 215  : 
; 216  : 	if(this->Start == true)

  0015d	80 be ad 00 00
	00 01		 cmp	 BYTE PTR [esi+173], 1
  00164	0f 85 8b 01 00
	00		 jne	 $LN27@TickTime

; 217  : 	{
; 218  : 		this->StartTick++;

  0016a	ff 86 b4 00 00
	00		 inc	 DWORD PTR [esi+180]
  00170	8b 86 b4 00 00
	00		 mov	 eax, DWORD PTR [esi+180]

; 219  : 		if(this->StartTick == this->EventTime)

  00176	3b 46 38	 cmp	 eax, DWORD PTR [esi+56]
  00179	0f 85 34 02 00
	00		 jne	 $LN52@TickTime

; 220  : 		{
; 221  : 			MessaageAllGlobal("[TvT Event] End");

  0017f	68 00 00 00 00	 push	 OFFSET ??_C@_0BA@EPLFLOEN@?$FLTvT?5Event?$FN?5End?$AA@
  00184	e8 00 00 00 00	 call	 ?MessaageAllGlobal@@YAXPADZZ ; MessaageAllGlobal

; 222  : 
; 223  : 			if(this->ScoreBlue > this->ScoreRed) 

  00189	8b 86 7c d5 01
	00		 mov	 eax, DWORD PTR [esi+120188]
  0018f	8b 8e 80 d5 01
	00		 mov	 ecx, DWORD PTR [esi+120192]
  00195	83 c4 04	 add	 esp, 4
  00198	3b c8		 cmp	 ecx, eax
  0019a	7d 27		 jge	 SHORT $LN54@TickTime

; 224  : 			{
; 225  : 				MessaageAllGlobal("[TvT Event] Win Blue Team");

  0019c	68 00 00 00 00	 push	 OFFSET ??_C@_0BK@BDBEFFAJ@?$FLTvT?5Event?$FN?5Win?5Blue?5Team?$AA@
  001a1	e8 00 00 00 00	 call	 ?MessaageAllGlobal@@YAXPADZZ ; MessaageAllGlobal

; 226  : 				MessaageAllGlobal("[TvT Event] Blue: %d Vs Red: %d",this->ScoreBlue,this->ScoreRed);

  001a6	8b 86 80 d5 01
	00		 mov	 eax, DWORD PTR [esi+120192]
  001ac	8b 8e 7c d5 01
	00		 mov	 ecx, DWORD PTR [esi+120188]
  001b2	50		 push	 eax
  001b3	51		 push	 ecx
  001b4	68 00 00 00 00	 push	 OFFSET ??_C@_0CA@JJNMGFIP@?$FLTvT?5Event?$FN?5Blue?3?5?$CFd?5Vs?5Red?3?5?$CFd?$AA@
  001b9	e8 00 00 00 00	 call	 ?MessaageAllGlobal@@YAXPADZZ ; MessaageAllGlobal
  001be	83 c4 10	 add	 esp, 16			; 00000010H
  001c1	eb 36		 jmp	 SHORT $LN22@TickTime
$LN54@TickTime:

; 227  : 			}
; 228  : 			else if(this->ScoreRed > ScoreBlue) 

  001c3	7e 27		 jle	 SHORT $LN23@TickTime

; 229  : 			{
; 230  : 				MessaageAllGlobal("[TvT Event] Win Red Team");

  001c5	68 00 00 00 00	 push	 OFFSET ??_C@_0BJ@IJAECJBJ@?$FLTvT?5Event?$FN?5Win?5Red?5Team?$AA@
  001ca	e8 00 00 00 00	 call	 ?MessaageAllGlobal@@YAXPADZZ ; MessaageAllGlobal

; 231  : 				MessaageAllGlobal("[TvT Event] Red: %d Vs Blue: %d",this->ScoreRed,this->ScoreBlue);

  001cf	8b 96 7c d5 01
	00		 mov	 edx, DWORD PTR [esi+120188]
  001d5	8b 86 80 d5 01
	00		 mov	 eax, DWORD PTR [esi+120192]
  001db	52		 push	 edx
  001dc	50		 push	 eax
  001dd	68 00 00 00 00	 push	 OFFSET ??_C@_0CA@EKGDDMJN@?$FLTvT?5Event?$FN?5Red?3?5?$CFd?5Vs?5Blue?3?5?$CFd?$AA@
  001e2	e8 00 00 00 00	 call	 ?MessaageAllGlobal@@YAXPADZZ ; MessaageAllGlobal
  001e7	83 c4 10	 add	 esp, 16			; 00000010H

; 232  : 			}
; 233  : 			else 

  001ea	eb 0d		 jmp	 SHORT $LN22@TickTime
$LN23@TickTime:

; 234  : 			{
; 235  : 				MessaageAllGlobal("[TvT Event] Dead heat");

  001ec	68 00 00 00 00	 push	 OFFSET ??_C@_0BG@LHIFGLIN@?$FLTvT?5Event?$FN?5Dead?5heat?$AA@
  001f1	e8 00 00 00 00	 call	 ?MessaageAllGlobal@@YAXPADZZ ; MessaageAllGlobal
  001f6	83 c4 04	 add	 esp, 4
$LN22@TickTime:

; 236  : 			}
; 237  : 
; 238  : 			for(int n=OBJ_STARTUSERINDZT;n<OBJMAX;n++)

  001f9	8d 86 38 b6 01
	00		 lea	 eax, DWORD PTR [esi+112184]
  001ff	bb b0 36 00 00	 mov	 ebx, 14000		; 000036b0H
  00204	bf 00 a7 40 09	 mov	 edi, 155232000		; 0940a700H
  00209	89 45 e8	 mov	 DWORD PTR tv603[ebp], eax
  0020c	8d 64 24 00	 npad	 4
$LL21@TickTime:

; 239  : 			{
; 240  : 				LPOBJ sObj = &gObj[n];
; 241  : 				if(sObj->Connected != PLAYER_PLAYING) continue;

  00210	8b 0d 00 00 00
	00		 mov	 ecx, DWORD PTR ?gObj@@3PAUOBJECTSTRUCT@@A ; gObj
  00216	83 7c 0f 04 03	 cmp	 DWORD PTR [edi+ecx+4], 3
  0021b	75 4e		 jne	 SHORT $LN20@TickTime

; 242  : 				if(this->Player[n].tEvent == true)

  0021d	80 38 01	 cmp	 BYTE PTR [eax], 1
  00220	75 49		 jne	 SHORT $LN20@TickTime

; 243  : 				{
; 244  : 					this->Player[n].tEvent = false;
; 245  : 					gObjMoveGate(n,17);	//Lorencia

  00222	6a 11		 push	 17			; 00000011H
  00224	53		 push	 ebx
  00225	c6 00 00	 mov	 BYTE PTR [eax], 0
  00228	e8 00 00 00 00	 call	 ?gObjMoveGate@@YAHHH@Z	; gObjMoveGate
  0022d	83 c4 08	 add	 esp, 8

; 246  : 					if(this->DisplayCommands == 1)

  00230	83 7e 14 01	 cmp	 DWORD PTR [esi+20], 1
  00234	75 22		 jne	 SHORT $LN16@TickTime

; 247  : 					{
; 248  : 						gObj[n].m_Change = -1;

  00236	8b 15 00 00 00
	00		 mov	 edx, DWORD PTR ?gObj@@3PAUOBJECTSTRUCT@@A ; gObj
  0023c	c7 84 17 54 04
	00 00 ff ff ff
	ff		 mov	 DWORD PTR [edi+edx+1108], -1

; 249  : 						gObjViewportListProtocolCreate(&gObj[n]);

  00247	a1 00 00 00 00	 mov	 eax, DWORD PTR ?gObj@@3PAUOBJECTSTRUCT@@A ; gObj
  0024c	8d 0c 07	 lea	 ecx, DWORD PTR [edi+eax]
  0024f	51		 push	 ecx
  00250	e8 00 00 00 00	 call	 ?gObjViewportListProtocolCreate@@YAXPAUOBJECTSTRUCT@@@Z ; gObjViewportListProtocolCreate
  00255	83 c4 04	 add	 esp, 4
$LN16@TickTime:

; 250  : 					}
; 251  : 					this->Reward(n);

  00258	53		 push	 ebx
  00259	8b ce		 mov	 ecx, esi
  0025b	e8 00 00 00 00	 call	 ?Reward@cTvTEvent@@QAEXH@Z ; cTvTEvent::Reward

; 252  : 					this->RestoreUser(n);

  00260	53		 push	 ebx
  00261	8b ce		 mov	 ecx, esi
  00263	e8 00 00 00 00	 call	 ?RestoreUser@cTvTEvent@@QAEXH@Z ; cTvTEvent::RestoreUser
  00268	8b 45 e8	 mov	 eax, DWORD PTR tv603[ebp]
$LN20@TickTime:

; 236  : 			}
; 237  : 
; 238  : 			for(int n=OBJ_STARTUSERINDZT;n<OBJMAX;n++)

  0026b	83 c0 08	 add	 eax, 8
  0026e	81 c7 50 2b 00
	00		 add	 edi, 11088		; 00002b50H
  00274	43		 inc	 ebx
  00275	89 45 e8	 mov	 DWORD PTR tv603[ebp], eax
  00278	81 ff 80 d7 e9
	09		 cmp	 edi, 166320000		; 09e9d780H
  0027e	7c 90		 jl	 SHORT $LL21@TickTime

; 253  : 				}
; 254  : 			}
; 255  : 			this->Start = false;
; 256  : 			this->TotalPlayer = 0;

  00280	33 c0		 xor	 eax, eax

; 257  : 			this->ScoreBlue = 0;
; 258  : 			this->ScoreRed = 0;
; 259  : 			this->StartTick = 0;
; 260  : #if(ADD_TVTHDDCHECK==1)
; 261  : 			if(g_ZtLicense.CheckUser(eZtUB::Gredy) || g_ZtLicense.CheckUser(eZtUB::GredyLocal) || g_ZtLicense.CheckUser(eZtUB::Gredy2))

  00282	6a 20		 push	 32			; 00000020H
  00284	b9 00 00 00 00	 mov	 ecx, OFFSET ?g_ZtLicense@@3VCZtLicense@@A ; g_ZtLicense
  00289	c6 86 ad 00 00
	00 00		 mov	 BYTE PTR [esi+173], 0
  00290	89 86 78 d5 01
	00		 mov	 DWORD PTR [esi+120184], eax
  00296	89 86 7c d5 01
	00		 mov	 DWORD PTR [esi+120188], eax
  0029c	89 86 80 d5 01
	00		 mov	 DWORD PTR [esi+120192], eax
  002a2	89 86 b4 00 00
	00		 mov	 DWORD PTR [esi+180], eax
  002a8	e8 00 00 00 00	 call	 ?CheckUser@CZtLicense@@QAE_NH@Z ; CZtLicense::CheckUser
  002ad	84 c0		 test	 al, al
  002af	75 24		 jne	 SHORT $LN14@TickTime
  002b1	6a 21		 push	 33			; 00000021H
  002b3	b9 00 00 00 00	 mov	 ecx, OFFSET ?g_ZtLicense@@3VCZtLicense@@A ; g_ZtLicense
  002b8	e8 00 00 00 00	 call	 ?CheckUser@CZtLicense@@QAE_NH@Z ; CZtLicense::CheckUser
  002bd	84 c0		 test	 al, al
  002bf	75 14		 jne	 SHORT $LN14@TickTime
  002c1	6a 22		 push	 34			; 00000022H
  002c3	b9 00 00 00 00	 mov	 ecx, OFFSET ?g_ZtLicense@@3VCZtLicense@@A ; g_ZtLicense
  002c8	e8 00 00 00 00	 call	 ?CheckUser@CZtLicense@@QAE_NH@Z ; CZtLicense::CheckUser
  002cd	84 c0		 test	 al, al
  002cf	0f 84 de 00 00
	00		 je	 $LN52@TickTime
$LN14@TickTime:

; 262  : 			{
; 263  : 				for(int i = 0; i < OBJMAX; i++)

  002d5	8d be 84 d5 01
	00		 lea	 edi, DWORD PTR [esi+120196]

; 264  : 				{
; 265  : 					this->player_hdd[i] = 0;

  002db	b9 98 3a 00 00	 mov	 ecx, 15000		; 00003a98H
  002e0	33 c0		 xor	 eax, eax
  002e2	f3 ab		 rep stosd
  002e4	5f		 pop	 edi
  002e5	5b		 pop	 ebx
  002e6	5e		 pop	 esi

; 294  : 				return;
; 295  : 			}
; 296  : 		}
; 297  : 	}
; 298  : }

  002e7	8b 4d fc	 mov	 ecx, DWORD PTR __$ArrayPad$[ebp]
  002ea	33 cd		 xor	 ecx, ebp
  002ec	e8 00 00 00 00	 call	 @__security_check_cookie@4
  002f1	8b e5		 mov	 esp, ebp
  002f3	5d		 pop	 ebp
  002f4	c3		 ret	 0
$LN27@TickTime:

; 266  : 				}
; 267  : 			}
; 268  : #endif
; 269  : 		}
; 270  : 		return;
; 271  : 	}
; 272  : 
; 273  : #if(NEWTIMEREX)
; 274  : 	if(g_TimerZt.GetSecond() == 00)

  002f5	b9 00 00 00 00	 mov	 ecx, OFFSET ?g_TimerZt@@3VCTimerZt@@A ; g_TimerZt
  002fa	e8 00 00 00 00	 call	 ?GetSecond@CTimerZt@@QAEHXZ ; CTimerZt::GetSecond
  002ff	85 c0		 test	 eax, eax
  00301	0f 85 ac 00 00
	00		 jne	 $LN52@TickTime

; 275  : #else
; 276  : 	if(t.wSecond == 00)
; 277  : #endif
; 278  : 	{
; 279  : 		for(int i=0;i<this->Count;i++)

  00307	33 c9		 xor	 ecx, ecx
  00309	39 8e a8 00 00
	00		 cmp	 DWORD PTR [esi+168], ecx
  0030f	0f 8e 9e 00 00
	00		 jle	 $LN52@TickTime
  00315	0f b7 55 f4	 movzx	 edx, WORD PTR _t$[ebp+8]
  00319	66 8b 7d f6	 mov	 di, WORD PTR _t$[ebp+10]
  0031d	8d 46 5c	 lea	 eax, DWORD PTR [esi+92]
$LL9@TickTime:

; 280  : 		{
; 281  : 			if(t.wHour == this->T[i].H && t.wMinute == this->T[i].M)

  00320	3b 50 fc	 cmp	 edx, DWORD PTR [eax-4]
  00323	75 07		 jne	 SHORT $LN8@TickTime
  00325	0f b7 df	 movzx	 ebx, di
  00328	3b 18		 cmp	 ebx, DWORD PTR [eax]
  0032a	74 1d		 je	 SHORT $LN46@TickTime
$LN8@TickTime:

; 275  : #else
; 276  : 	if(t.wSecond == 00)
; 277  : #endif
; 278  : 	{
; 279  : 		for(int i=0;i<this->Count;i++)

  0032c	41		 inc	 ecx
  0032d	83 c0 08	 add	 eax, 8
  00330	3b 8e a8 00 00
	00		 cmp	 ecx, DWORD PTR [esi+168]
  00336	7c e8		 jl	 SHORT $LL9@TickTime
  00338	5f		 pop	 edi
  00339	5b		 pop	 ebx
  0033a	5e		 pop	 esi

; 294  : 				return;
; 295  : 			}
; 296  : 		}
; 297  : 	}
; 298  : }

  0033b	8b 4d fc	 mov	 ecx, DWORD PTR __$ArrayPad$[ebp]
  0033e	33 cd		 xor	 ecx, ebp
  00340	e8 00 00 00 00	 call	 @__security_check_cookie@4
  00345	8b e5		 mov	 esp, ebp
  00347	5d		 pop	 ebp
  00348	c3		 ret	 0
$LN46@TickTime:

; 282  : 			{
; 283  : #if(ADD_TVTHDDCHECK==1)
; 284  : 				if(g_ZtLicense.CheckUser(eZtUB::Gredy) || g_ZtLicense.CheckUser(eZtUB::GredyLocal) || g_ZtLicense.CheckUser(eZtUB::Gredy2))

  00349	6a 20		 push	 32			; 00000020H
  0034b	b9 00 00 00 00	 mov	 ecx, OFFSET ?g_ZtLicense@@3VCZtLicense@@A ; g_ZtLicense
  00350	e8 00 00 00 00	 call	 ?CheckUser@CZtLicense@@QAE_NH@Z ; CZtLicense::CheckUser
  00355	84 c0		 test	 al, al
  00357	75 20		 jne	 SHORT $LN4@TickTime
  00359	6a 21		 push	 33			; 00000021H
  0035b	b9 00 00 00 00	 mov	 ecx, OFFSET ?g_ZtLicense@@3VCZtLicense@@A ; g_ZtLicense
  00360	e8 00 00 00 00	 call	 ?CheckUser@CZtLicense@@QAE_NH@Z ; CZtLicense::CheckUser
  00365	84 c0		 test	 al, al
  00367	75 10		 jne	 SHORT $LN4@TickTime
  00369	6a 22		 push	 34			; 00000022H
  0036b	b9 00 00 00 00	 mov	 ecx, OFFSET ?g_ZtLicense@@3VCZtLicense@@A ; g_ZtLicense
  00370	e8 00 00 00 00	 call	 ?CheckUser@CZtLicense@@QAE_NH@Z ; CZtLicense::CheckUser
  00375	84 c0		 test	 al, al
  00377	74 0f		 je	 SHORT $LN3@TickTime
$LN4@TickTime:

; 285  : 				{
; 286  : 					for(int i = 0; i < OBJMAX; i++)

  00379	8d be 84 d5 01
	00		 lea	 edi, DWORD PTR [esi+120196]

; 287  : 					{
; 288  : 						this->player_hdd[i] = 0;

  0037f	b9 98 3a 00 00	 mov	 ecx, 15000		; 00003a98H
  00384	33 c0		 xor	 eax, eax
  00386	f3 ab		 rep stosd
$LN3@TickTime:

; 289  : 					}
; 290  : 				}
; 291  : #endif
; 292  : 				MessaageAllGlobal("[TvT Event] Starts in %d minute",(this->WaitingTime/60));

  00388	8b 4e 34	 mov	 ecx, DWORD PTR [esi+52]
  0038b	b8 89 88 88 88	 mov	 eax, -2004318071	; 88888889H
  00390	f7 e9		 imul	 ecx
  00392	03 d1		 add	 edx, ecx
  00394	c1 fa 05	 sar	 edx, 5
  00397	8b c2		 mov	 eax, edx
  00399	c1 e8 1f	 shr	 eax, 31			; 0000001fH
  0039c	03 c2		 add	 eax, edx
  0039e	50		 push	 eax
  0039f	68 00 00 00 00	 push	 OFFSET ??_C@_0CA@JKFBENBB@?$FLTvT?5Event?$FN?5Starts?5in?5?$CFd?5minute?$AA@
  003a4	e8 00 00 00 00	 call	 ?MessaageAllGlobal@@YAXPADZZ ; MessaageAllGlobal
  003a9	83 c4 08	 add	 esp, 8

; 293  : 				this->Waiting = true;

  003ac	c6 86 ac 00 00
	00 01		 mov	 BYTE PTR [esi+172], 1
$LN52@TickTime:
  003b3	5f		 pop	 edi
  003b4	5b		 pop	 ebx
$LN7@TickTime:

; 294  : 				return;
; 295  : 			}
; 296  : 		}
; 297  : 	}
; 298  : }

  003b5	8b 4d fc	 mov	 ecx, DWORD PTR __$ArrayPad$[ebp]
  003b8	33 cd		 xor	 ecx, ebp
  003ba	5e		 pop	 esi
  003bb	e8 00 00 00 00	 call	 @__security_check_cookie@4
  003c0	8b e5		 mov	 esp, ebp
  003c2	5d		 pop	 ebp
  003c3	c3		 ret	 0
?TickTime@cTvTEvent@@QAEXXZ ENDP			; cTvTEvent::TickTime
_TEXT	ENDS
END
