; Listing generated by Microsoft (R) Optimizing Compiler Version 16.00.30319.01 

	TITLE	E:\work\tranet_version\GS\GameServer\UserConfig.cpp
	.686P
	.XMM
	include listing.inc
	.model	flat

INCLUDELIB LIBCMT
INCLUDELIB OLDNAMES

_DATA	SEGMENT
_g_iNpcUpDfLevel_CGATE DD 01H
	DD	02H
	DD	02dc6c0H
	DD	02H
	DD	03H
	DD	02dc6c0H
	DD	03H
	DD	04H
	DD	02dc6c0H
_g_iNpcUpDfLevel_CSTATUE DD 01H
	DD	03H
	DD	02dc6c0H
	DD	02H
	DD	05H
	DD	02dc6c0H
	DD	03H
	DD	07H
	DD	02dc6c0H
_g_iNpcUpMaxHP_CGATE DD 02625a0H
	DD	02H
	DD	0f4240H
	DD	03567e0H
	DD	03H
	DD	0f4240H
	DD	04f5880H
	DD	04H
	DD	0f4240H
_g_iNpcUpMaxHP_CSTATUE DD 02191c0H
	DD	03H
	DD	0f4240H
	DD	033e140H
	DD	05H
	DD	0f4240H
	DD	04c4b40H
	DD	07H
	DD	0f4240H
_g_iNpcUpRgLevel_CSTATUE DD 01H
	DD	03H
	DD	04c4b40H
	DD	02H
	DD	05H
	DD	04c4b40H
	DD	03H
	DD	07H
	DD	04c4b40H
_g_iCsUserReSpawnArea DD 023H
	DD	011H
	DD	090H
	DD	030H
	DD	04aH
	DD	090H
	DD	073H
	DD	09aH
	DD	023H
	DD	011H
	DD	090H
	DD	030H
_g_iNpcDefense_CGATE DD 064H
	DD	0b4H
	DD	012cH
	DD	0208H
_g_iNpcDefense_CSTATUE DD 050H
	DD	0b4H
	DD	0154H
	DD	0226H
_g_iCastleWallStepAxisY DD 071H
	DD	0a0H
	DD	0cbH
_DATA	ENDS
PUBLIC	?set@PBMSG_HEAD2@@QAEXPAEEEE@Z			; PBMSG_HEAD2::set
; Function compile flags: /Ogtp
; File e:\work\tranet_version\gs\include\prodef.h
;	COMDAT ?set@PBMSG_HEAD2@@QAEXPAEEEE@Z
_TEXT	SEGMENT
_lpBuf$ = 8						; size = 4
_head$ = 12						; size = 1
_sub$ = 16						; size = 1
_size$ = 20						; size = 1
?set@PBMSG_HEAD2@@QAEXPAEEEE@Z PROC			; PBMSG_HEAD2::set, COMDAT
; _this$ = ecx

; 104  : 	{

  00000	55		 push	 ebp
  00001	8b ec		 mov	 ebp, esp

; 105  : 		lpBuf[0] = 0xC1;

  00003	8b 45 08	 mov	 eax, DWORD PTR _lpBuf$[ebp]

; 106  : 		lpBuf[1] = size;

  00006	8a 4d 14	 mov	 cl, BYTE PTR _size$[ebp]

; 107  : 		lpBuf[2] = head;

  00009	8a 55 0c	 mov	 dl, BYTE PTR _head$[ebp]
  0000c	88 48 01	 mov	 BYTE PTR [eax+1], cl

; 108  : 		lpBuf[3] = sub;

  0000f	8a 4d 10	 mov	 cl, BYTE PTR _sub$[ebp]
  00012	c6 00 c1	 mov	 BYTE PTR [eax], 193	; 000000c1H
  00015	88 50 02	 mov	 BYTE PTR [eax+2], dl
  00018	88 48 03	 mov	 BYTE PTR [eax+3], cl

; 109  : 	};

  0001b	5d		 pop	 ebp
  0001c	c2 10 00	 ret	 16			; 00000010H
?set@PBMSG_HEAD2@@QAEXPAEEEE@Z ENDP			; PBMSG_HEAD2::set
_TEXT	ENDS
PUBLIC	??_H@YGXPAXIHP6EPAX0@Z@Z			; `vector constructor iterator'
; Function compile flags: /Ogtp
;	COMDAT ??_H@YGXPAXIHP6EPAX0@Z@Z
_TEXT	SEGMENT
___t$ = 8						; size = 4
___s$ = 12						; size = 4
___n$ = 16						; size = 4
___f$ = 20						; size = 4
??_H@YGXPAXIHP6EPAX0@Z@Z PROC				; `vector constructor iterator', COMDAT
  00000	55		 push	 ebp
  00001	8b ec		 mov	 ebp, esp
  00003	57		 push	 edi
  00004	8b 7d 10	 mov	 edi, DWORD PTR ___n$[ebp]
  00007	4f		 dec	 edi
  00008	78 14		 js	 SHORT $LN1@vector
  0000a	53		 push	 ebx
  0000b	8b 5d 14	 mov	 ebx, DWORD PTR ___f$[ebp]
  0000e	56		 push	 esi
  0000f	8b 75 08	 mov	 esi, DWORD PTR ___t$[ebp]
$LL2@vector:
  00012	8b ce		 mov	 ecx, esi
  00014	ff d3		 call	 ebx
  00016	03 75 0c	 add	 esi, DWORD PTR ___s$[ebp]
  00019	4f		 dec	 edi
  0001a	79 f6		 jns	 SHORT $LL2@vector
  0001c	5e		 pop	 esi
  0001d	5b		 pop	 ebx
$LN1@vector:
  0001e	5f		 pop	 edi
  0001f	5d		 pop	 ebp
  00020	c2 10 00	 ret	 16			; 00000010H
??_H@YGXPAXIHP6EPAX0@Z@Z ENDP				; `vector constructor iterator'
_TEXT	ENDS
PUBLIC	??0CUserConfig@@QAE@XZ				; CUserConfig::CUserConfig
; Function compile flags: /Ogtp
; File e:\work\tranet_version\gs\gameserver\userconfig.cpp
;	COMDAT ??0CUserConfig@@QAE@XZ
_TEXT	SEGMENT
??0CUserConfig@@QAE@XZ PROC				; CUserConfig::CUserConfig, COMDAT
; _this$ = ecx

; 10   : {

  00000	8b c1		 mov	 eax, ecx

; 11   : }

  00002	c3		 ret	 0
??0CUserConfig@@QAE@XZ ENDP				; CUserConfig::CUserConfig
_TEXT	ENDS
PUBLIC	??1CUserConfig@@QAE@XZ				; CUserConfig::~CUserConfig
; Function compile flags: /Ogtp
;	COMDAT ??1CUserConfig@@QAE@XZ
_TEXT	SEGMENT
??1CUserConfig@@QAE@XZ PROC				; CUserConfig::~CUserConfig, COMDAT
; _this$ = ecx

; 15   : }

  00000	c3		 ret	 0
??1CUserConfig@@QAE@XZ ENDP				; CUserConfig::~CUserConfig
_TEXT	ENDS
PUBLIC	?CheckNullNumber@CUserConfig@@QAEXAAH@Z		; CUserConfig::CheckNullNumber
; Function compile flags: /Ogtp
;	COMDAT ?CheckNullNumber@CUserConfig@@QAEXAAH@Z
_TEXT	SEGMENT
_number$ = 8						; size = 4
?CheckNullNumber@CUserConfig@@QAEXAAH@Z PROC		; CUserConfig::CheckNullNumber, COMDAT
; _this$ = ecx

; 31   : {

  00000	55		 push	 ebp
  00001	8b ec		 mov	 ebp, esp

; 32   : 	if(number <= 0)

  00003	8b 45 08	 mov	 eax, DWORD PTR _number$[ebp]
  00006	83 38 00	 cmp	 DWORD PTR [eax], 0
  00009	7f 06		 jg	 SHORT $LN1@CheckNullN

; 33   : 	{
; 34   : 		number = 1;

  0000b	c7 00 01 00 00
	00		 mov	 DWORD PTR [eax], 1
$LN1@CheckNullN:

; 35   : 	}
; 36   : }

  00011	5d		 pop	 ebp
  00012	c2 04 00	 ret	 4
?CheckNullNumber@CUserConfig@@QAEXAAH@Z ENDP		; CUserConfig::CheckNullNumber
_TEXT	ENDS
PUBLIC	??_C@_0BB@BILCFCEK@DragonRoarEnergy?$AA@	; `string'
PUBLIC	??_C@_0BD@DAJCEDKK@ChainDriveVitality?$AA@	; `string'
PUBLIC	??_C@_06CNKIADGI@ZtTeam?$AA@			; `string'
PUBLIC	??_C@_0BA@GNEFAMBF@DarkSideAgility?$AA@		; `string'
PUBLIC	?ReadUsilevich@CUserConfig@@QAEXPAD@Z		; CUserConfig::ReadUsilevich
EXTRN	__imp__GetPrivateProfileIntA@16:PROC
;	COMDAT ??_C@_0BB@BILCFCEK@DragonRoarEnergy?$AA@
CONST	SEGMENT
??_C@_0BB@BILCFCEK@DragonRoarEnergy?$AA@ DB 'DragonRoarEnergy', 00H ; `string'
CONST	ENDS
;	COMDAT ??_C@_0BD@DAJCEDKK@ChainDriveVitality?$AA@
CONST	SEGMENT
??_C@_0BD@DAJCEDKK@ChainDriveVitality?$AA@ DB 'ChainDriveVitality', 00H ; `string'
CONST	ENDS
;	COMDAT ??_C@_06CNKIADGI@ZtTeam?$AA@
CONST	SEGMENT
??_C@_06CNKIADGI@ZtTeam?$AA@ DB 'ZtTeam', 00H		; `string'
CONST	ENDS
;	COMDAT ??_C@_0BA@GNEFAMBF@DarkSideAgility?$AA@
CONST	SEGMENT
??_C@_0BA@GNEFAMBF@DarkSideAgility?$AA@ DB 'DarkSideAgility', 00H ; `string'
; Function compile flags: /Ogtp
CONST	ENDS
;	COMDAT ?ReadUsilevich@CUserConfig@@QAEXPAD@Z
_TEXT	SEGMENT
_filename$ = 8						; size = 4
?ReadUsilevich@CUserConfig@@QAEXPAD@Z PROC		; CUserConfig::ReadUsilevich, COMDAT
; _this$ = ecx

; 39   : {

  00000	55		 push	 ebp
  00001	8b ec		 mov	 ebp, esp
  00003	53		 push	 ebx

; 40   : 	this->m_Usilevich.DarkSideAgility = GetPrivateProfileInt("ZtTeam", "DarkSideAgility", 10, filename);

  00004	8b 1d 00 00 00
	00		 mov	 ebx, DWORD PTR __imp__GetPrivateProfileIntA@16
  0000a	56		 push	 esi
  0000b	57		 push	 edi
  0000c	8b 7d 08	 mov	 edi, DWORD PTR _filename$[ebp]
  0000f	57		 push	 edi
  00010	6a 0a		 push	 10			; 0000000aH
  00012	68 00 00 00 00	 push	 OFFSET ??_C@_0BA@GNEFAMBF@DarkSideAgility?$AA@
  00017	68 00 00 00 00	 push	 OFFSET ??_C@_06CNKIADGI@ZtTeam?$AA@
  0001c	8b f1		 mov	 esi, ecx
  0001e	ff d3		 call	 ebx

; 41   : 	this->m_Usilevich.ChainDriveVitality = GetPrivateProfileInt("ZtTeam", "ChainDriveVitality", 8, filename);

  00020	57		 push	 edi
  00021	6a 08		 push	 8
  00023	68 00 00 00 00	 push	 OFFSET ??_C@_0BD@DAJCEDKK@ChainDriveVitality?$AA@
  00028	68 00 00 00 00	 push	 OFFSET ??_C@_06CNKIADGI@ZtTeam?$AA@
  0002d	89 06		 mov	 DWORD PTR [esi], eax
  0002f	ff d3		 call	 ebx

; 42   : 	this->m_Usilevich.DragonRoarEnergy = GetPrivateProfileInt("ZtTeam", "DragonRoarEnergy", 10, filename);

  00031	57		 push	 edi
  00032	6a 0a		 push	 10			; 0000000aH
  00034	68 00 00 00 00	 push	 OFFSET ??_C@_0BB@BILCFCEK@DragonRoarEnergy?$AA@
  00039	68 00 00 00 00	 push	 OFFSET ??_C@_06CNKIADGI@ZtTeam?$AA@
  0003e	89 46 04	 mov	 DWORD PTR [esi+4], eax
  00041	ff d3		 call	 ebx
  00043	8d 56 08	 lea	 edx, DWORD PTR [esi+8]

; 43   : 
; 44   : 	this->CheckNullNumber(this->m_Usilevich.DarkSideAgility);

  00046	56		 push	 esi
  00047	8b ce		 mov	 ecx, esi
  00049	89 02		 mov	 DWORD PTR [edx], eax
  0004b	e8 00 00 00 00	 call	 ?CheckNullNumber@CUserConfig@@QAEXAAH@Z ; CUserConfig::CheckNullNumber

; 45   : 	this->CheckNullNumber(this->m_Usilevich.ChainDriveVitality);

  00050	8d 46 04	 lea	 eax, DWORD PTR [esi+4]
  00053	50		 push	 eax
  00054	e8 00 00 00 00	 call	 ?CheckNullNumber@CUserConfig@@QAEXAAH@Z ; CUserConfig::CheckNullNumber

; 46   : 	this->CheckNullNumber(this->m_Usilevich.DragonRoarEnergy);

  00059	52		 push	 edx
  0005a	e8 00 00 00 00	 call	 ?CheckNullNumber@CUserConfig@@QAEXAAH@Z ; CUserConfig::CheckNullNumber
  0005f	5f		 pop	 edi
  00060	5e		 pop	 esi
  00061	5b		 pop	 ebx

; 47   : }

  00062	5d		 pop	 ebp
  00063	c2 04 00	 ret	 4
?ReadUsilevich@CUserConfig@@QAEXPAD@Z ENDP		; CUserConfig::ReadUsilevich
_TEXT	ENDS
PUBLIC	??_C@_0O@KILKOEBK@HPAutoClicker?$AA@		; `string'
PUBLIC	??_C@_0BA@BBLBIOFM@PvpMap400LvlTpY?$AA@		; `string'
PUBLIC	??_C@_0BA@IKKLPBN@PvpMap400LvlTpX?$AA@		; `string'
PUBLIC	??_C@_0BC@KFFPLFOH@PvpMap400LvlTpMap?$AA@	; `string'
PUBLIC	??_C@_0BF@LPPLIOCO@PvpMap400LvlTpActive?$AA@	; `string'
PUBLIC	??_C@_0P@HAGCNCBG@CSRegTimeMinus?$AA@		; `string'
PUBLIC	??_C@_0O@JDNALABK@CSRegTimeNeed?$AA@		; `string'
PUBLIC	?ReadEvoMU@CUserConfig@@QAEXPAD@Z		; CUserConfig::ReadEvoMU
;	COMDAT ??_C@_0O@KILKOEBK@HPAutoClicker?$AA@
CONST	SEGMENT
??_C@_0O@KILKOEBK@HPAutoClicker?$AA@ DB 'HPAutoClicker', 00H ; `string'
CONST	ENDS
;	COMDAT ??_C@_0BA@BBLBIOFM@PvpMap400LvlTpY?$AA@
CONST	SEGMENT
??_C@_0BA@BBLBIOFM@PvpMap400LvlTpY?$AA@ DB 'PvpMap400LvlTpY', 00H ; `string'
CONST	ENDS
;	COMDAT ??_C@_0BA@IKKLPBN@PvpMap400LvlTpX?$AA@
CONST	SEGMENT
??_C@_0BA@IKKLPBN@PvpMap400LvlTpX?$AA@ DB 'PvpMap400LvlTpX', 00H ; `string'
CONST	ENDS
;	COMDAT ??_C@_0BC@KFFPLFOH@PvpMap400LvlTpMap?$AA@
CONST	SEGMENT
??_C@_0BC@KFFPLFOH@PvpMap400LvlTpMap?$AA@ DB 'PvpMap400LvlTpMap', 00H ; `string'
CONST	ENDS
;	COMDAT ??_C@_0BF@LPPLIOCO@PvpMap400LvlTpActive?$AA@
CONST	SEGMENT
??_C@_0BF@LPPLIOCO@PvpMap400LvlTpActive?$AA@ DB 'PvpMap400LvlTpActive', 00H ; `string'
CONST	ENDS
;	COMDAT ??_C@_0P@HAGCNCBG@CSRegTimeMinus?$AA@
CONST	SEGMENT
??_C@_0P@HAGCNCBG@CSRegTimeMinus?$AA@ DB 'CSRegTimeMinus', 00H ; `string'
CONST	ENDS
;	COMDAT ??_C@_0O@JDNALABK@CSRegTimeNeed?$AA@
CONST	SEGMENT
??_C@_0O@JDNALABK@CSRegTimeNeed?$AA@ DB 'CSRegTimeNeed', 00H ; `string'
; Function compile flags: /Ogtp
CONST	ENDS
;	COMDAT ?ReadEvoMU@CUserConfig@@QAEXPAD@Z
_TEXT	SEGMENT
_filename$ = 8						; size = 4
?ReadEvoMU@CUserConfig@@QAEXPAD@Z PROC			; CUserConfig::ReadEvoMU, COMDAT
; _this$ = ecx

; 50   : {

  00000	55		 push	 ebp
  00001	8b ec		 mov	 ebp, esp
  00003	53		 push	 ebx

; 51   : 	this->m_EvoMU.CSRegTimeNeed = GetPrivateProfileInt("ZtTeam", "CSRegTimeNeed", 40000, filename);

  00004	8b 1d 00 00 00
	00		 mov	 ebx, DWORD PTR __imp__GetPrivateProfileIntA@16
  0000a	56		 push	 esi
  0000b	57		 push	 edi
  0000c	8b 7d 08	 mov	 edi, DWORD PTR _filename$[ebp]
  0000f	57		 push	 edi
  00010	68 40 9c 00 00	 push	 40000			; 00009c40H
  00015	68 00 00 00 00	 push	 OFFSET ??_C@_0O@JDNALABK@CSRegTimeNeed?$AA@
  0001a	68 00 00 00 00	 push	 OFFSET ??_C@_06CNKIADGI@ZtTeam?$AA@
  0001f	8b f1		 mov	 esi, ecx
  00021	ff d3		 call	 ebx

; 52   : 	this->m_EvoMU.CSRegTimeMinus = GetPrivateProfileInt("ZtTeam", "CSRegTimeMinus", 4000, filename);

  00023	57		 push	 edi
  00024	68 a0 0f 00 00	 push	 4000			; 00000fa0H
  00029	68 00 00 00 00	 push	 OFFSET ??_C@_0P@HAGCNCBG@CSRegTimeMinus?$AA@
  0002e	68 00 00 00 00	 push	 OFFSET ??_C@_06CNKIADGI@ZtTeam?$AA@
  00033	89 46 0c	 mov	 DWORD PTR [esi+12], eax
  00036	ff d3		 call	 ebx

; 53   : 	this->m_EvoMU.PvpMap400LvlTpActive = GetPrivateProfileInt("ZtTeam", "PvpMap400LvlTpActive", 0, filename);

  00038	57		 push	 edi
  00039	6a 00		 push	 0
  0003b	68 00 00 00 00	 push	 OFFSET ??_C@_0BF@LPPLIOCO@PvpMap400LvlTpActive?$AA@
  00040	68 00 00 00 00	 push	 OFFSET ??_C@_06CNKIADGI@ZtTeam?$AA@
  00045	89 46 10	 mov	 DWORD PTR [esi+16], eax
  00048	ff d3		 call	 ebx

; 54   : 	this->m_EvoMU.PvpMap400LvlTpMap = GetPrivateProfileInt("ZtTeam", "PvpMap400LvlTpMap", 0, filename);

  0004a	57		 push	 edi
  0004b	6a 00		 push	 0
  0004d	68 00 00 00 00	 push	 OFFSET ??_C@_0BC@KFFPLFOH@PvpMap400LvlTpMap?$AA@
  00052	68 00 00 00 00	 push	 OFFSET ??_C@_06CNKIADGI@ZtTeam?$AA@
  00057	89 46 14	 mov	 DWORD PTR [esi+20], eax
  0005a	ff d3		 call	 ebx

; 55   : 	this->m_EvoMU.PvpMap400LvlTpX = GetPrivateProfileInt("ZtTeam", "PvpMap400LvlTpX", 0, filename);

  0005c	57		 push	 edi
  0005d	6a 00		 push	 0
  0005f	68 00 00 00 00	 push	 OFFSET ??_C@_0BA@IKKLPBN@PvpMap400LvlTpX?$AA@
  00064	68 00 00 00 00	 push	 OFFSET ??_C@_06CNKIADGI@ZtTeam?$AA@
  00069	89 46 18	 mov	 DWORD PTR [esi+24], eax
  0006c	ff d3		 call	 ebx

; 56   : 	this->m_EvoMU.PvpMap400LvlTpY = GetPrivateProfileInt("ZtTeam", "PvpMap400LvlTpY", 0, filename);

  0006e	57		 push	 edi
  0006f	6a 00		 push	 0
  00071	68 00 00 00 00	 push	 OFFSET ??_C@_0BA@BBLBIOFM@PvpMap400LvlTpY?$AA@
  00076	68 00 00 00 00	 push	 OFFSET ??_C@_06CNKIADGI@ZtTeam?$AA@
  0007b	89 46 1c	 mov	 DWORD PTR [esi+28], eax
  0007e	ff d3		 call	 ebx

; 57   : 	this->m_EvoMU.HPAutoClicker = GetPrivateProfileInt("ZtTeam", "HPAutoClicker", 0, filename);

  00080	57		 push	 edi
  00081	6a 00		 push	 0
  00083	68 00 00 00 00	 push	 OFFSET ??_C@_0O@KILKOEBK@HPAutoClicker?$AA@
  00088	68 00 00 00 00	 push	 OFFSET ??_C@_06CNKIADGI@ZtTeam?$AA@
  0008d	89 46 20	 mov	 DWORD PTR [esi+32], eax
  00090	ff d3		 call	 ebx
  00092	5f		 pop	 edi
  00093	89 46 24	 mov	 DWORD PTR [esi+36], eax
  00096	5e		 pop	 esi
  00097	5b		 pop	 ebx

; 58   : }

  00098	5d		 pop	 ebp
  00099	c2 04 00	 ret	 4
?ReadEvoMU@CUserConfig@@QAEXPAD@Z ENDP			; CUserConfig::ReadEvoMU
_TEXT	ENDS
PUBLIC	__$ArrayPad$
PUBLIC	?GC_SettingsSend@CUserConfig@@QAEXH@Z		; CUserConfig::GC_SettingsSend
EXTRN	?DataSend@@YAHHPAEK@Z:PROC			; DataSend
EXTRN	___security_cookie:DWORD
EXTRN	@__security_check_cookie@4:PROC
; Function compile flags: /Ogtp
;	COMDAT ?GC_SettingsSend@CUserConfig@@QAEXH@Z
_TEXT	SEGMENT
_pMsg$ = -36						; size = 32
__$ArrayPad$ = -4					; size = 4
_aIndex$ = 8						; size = 4
?GC_SettingsSend@CUserConfig@@QAEXH@Z PROC		; CUserConfig::GC_SettingsSend, COMDAT
; _this$ = ecx

; 61   : {

  00000	55		 push	 ebp
  00001	8b ec		 mov	 ebp, esp
  00003	83 ec 24	 sub	 esp, 36			; 00000024H
  00006	a1 00 00 00 00	 mov	 eax, DWORD PTR ___security_cookie
  0000b	33 c5		 xor	 eax, ebp
  0000d	89 45 fc	 mov	 DWORD PTR __$ArrayPad$[ebp], eax

; 62   : 	if(!OBJMAX_RANGE(aIndex))

  00010	8b 45 08	 mov	 eax, DWORD PTR _aIndex$[ebp]
  00013	85 c0		 test	 eax, eax
  00015	78 35		 js	 SHORT $LN2@GC_Setting
  00017	33 d2		 xor	 edx, edx
  00019	3d 97 3a 00 00	 cmp	 eax, 14999		; 00003a97H
  0001e	0f 9e c2	 setle	 dl
  00021	85 d2		 test	 edx, edx
  00023	74 27		 je	 SHORT $LN2@GC_Setting

; 63   : 	{
; 64   : 		return;
; 65   : 	}
; 66   : 
; 67   : 	PMSG_USERCONFIG pMsg;
; 68   : 	pMsg.h.set((LPBYTE)&pMsg, 0xFB, 0xC0, sizeof(pMsg));
; 69   : 	memcpy(&pMsg.EvoConfig, &this->m_EvoMU, sizeof(pMsg.EvoConfig));

  00025	56		 push	 esi
  00026	57		 push	 edi
  00027	8d 71 0c	 lea	 esi, DWORD PTR [ecx+12]
  0002a	c7 45 dc c1 20
	fb c0		 mov	 DWORD PTR _pMsg$[ebp], -1057283903 ; c0fb20c1H
  00031	b9 07 00 00 00	 mov	 ecx, 7
  00036	8d 7d e0	 lea	 edi, DWORD PTR _pMsg$[ebp+4]
  00039	f3 a5		 rep movsd

; 70   : 	DataSend(aIndex, (LPBYTE)&pMsg, pMsg.h.size);

  0003b	6a 20		 push	 32			; 00000020H
  0003d	8d 4d dc	 lea	 ecx, DWORD PTR _pMsg$[ebp]
  00040	51		 push	 ecx
  00041	50		 push	 eax
  00042	e8 00 00 00 00	 call	 ?DataSend@@YAHHPAEK@Z	; DataSend
  00047	83 c4 0c	 add	 esp, 12			; 0000000cH
  0004a	5f		 pop	 edi
  0004b	5e		 pop	 esi
$LN2@GC_Setting:

; 71   : }

  0004c	8b 4d fc	 mov	 ecx, DWORD PTR __$ArrayPad$[ebp]
  0004f	33 cd		 xor	 ecx, ebp
  00051	e8 00 00 00 00	 call	 @__security_check_cookie@4
  00056	8b e5		 mov	 esp, ebp
  00058	5d		 pop	 ebp
  00059	c2 04 00	 ret	 4
?GC_SettingsSend@CUserConfig@@QAEXH@Z ENDP		; CUserConfig::GC_SettingsSend
_TEXT	ENDS
PUBLIC	??_C@_0BG@MAAFIAHI@ZtData?2User?2EvoMU?4ini?$AA@ ; `string'
PUBLIC	??_C@_0BK@LPEEBDJF@ZtData?2User?2Usilevich?4ini?$AA@ ; `string'
PUBLIC	?Load@CUserConfig@@QAEXXZ			; CUserConfig::Load
EXTRN	?GetNewPath@CDirPath@@QAEPADPAD@Z:PROC		; CDirPath::GetNewPath
EXTRN	?gDirPath@@3VCDirPath@@A:BYTE			; gDirPath
EXTRN	?CheckUser@CZtLicense@@QAE_NH@Z:PROC		; CZtLicense::CheckUser
EXTRN	?g_ZtLicense@@3VCZtLicense@@A:BYTE		; g_ZtLicense
;	COMDAT ??_C@_0BG@MAAFIAHI@ZtData?2User?2EvoMU?4ini?$AA@
CONST	SEGMENT
??_C@_0BG@MAAFIAHI@ZtData?2User?2EvoMU?4ini?$AA@ DB 'ZtData\User\EvoMU.in'
	DB	'i', 00H					; `string'
CONST	ENDS
;	COMDAT ??_C@_0BK@LPEEBDJF@ZtData?2User?2Usilevich?4ini?$AA@
CONST	SEGMENT
??_C@_0BK@LPEEBDJF@ZtData?2User?2Usilevich?4ini?$AA@ DB 'ZtData\User\Usil'
	DB	'evich.ini', 00H				; `string'
; Function compile flags: /Ogtp
CONST	ENDS
;	COMDAT ?Load@CUserConfig@@QAEXXZ
_TEXT	SEGMENT
?Load@CUserConfig@@QAEXXZ PROC				; CUserConfig::Load, COMDAT
; _this$ = ecx

; 18   : {

  00000	56		 push	 esi
  00001	8b f1		 mov	 esi, ecx

; 19   : 	if(g_ZtLicense.CheckUser(eZtUB::ulasevich) || g_ZtLicense.CheckUser(eZtUB::ulasevich2))

  00003	6a 17		 push	 23			; 00000017H
  00005	b9 00 00 00 00	 mov	 ecx, OFFSET ?g_ZtLicense@@3VCZtLicense@@A ; g_ZtLicense
  0000a	e8 00 00 00 00	 call	 ?CheckUser@CZtLicense@@QAE_NH@Z ; CZtLicense::CheckUser
  0000f	84 c0		 test	 al, al
  00011	75 10		 jne	 SHORT $LN3@Load
  00013	6a 24		 push	 36			; 00000024H
  00015	b9 00 00 00 00	 mov	 ecx, OFFSET ?g_ZtLicense@@3VCZtLicense@@A ; g_ZtLicense
  0001a	e8 00 00 00 00	 call	 ?CheckUser@CZtLicense@@QAE_NH@Z ; CZtLicense::CheckUser
  0001f	84 c0		 test	 al, al
  00021	74 17		 je	 SHORT $LN4@Load
$LN3@Load:

; 20   : 	{
; 21   : 		this->ReadUsilevich(gDirPath.GetNewPath("ZtData\\User\\Usilevich.ini"));

  00023	68 00 00 00 00	 push	 OFFSET ??_C@_0BK@LPEEBDJF@ZtData?2User?2Usilevich?4ini?$AA@
  00028	b9 00 00 00 00	 mov	 ecx, OFFSET ?gDirPath@@3VCDirPath@@A ; gDirPath
  0002d	e8 00 00 00 00	 call	 ?GetNewPath@CDirPath@@QAEPADPAD@Z ; CDirPath::GetNewPath
  00032	50		 push	 eax
  00033	8b ce		 mov	 ecx, esi
  00035	e8 00 00 00 00	 call	 ?ReadUsilevich@CUserConfig@@QAEXPAD@Z ; CUserConfig::ReadUsilevich
$LN4@Load:

; 22   : 	}
; 23   : 
; 24   : 	if(g_ZtLicense.CheckUser(eZtUB::Gredy) || g_ZtLicense.CheckUser(eZtUB::Gredy2) || g_ZtLicense.CheckUser(eZtUB::GredyLocal))

  0003a	6a 20		 push	 32			; 00000020H
  0003c	b9 00 00 00 00	 mov	 ecx, OFFSET ?g_ZtLicense@@3VCZtLicense@@A ; g_ZtLicense
  00041	e8 00 00 00 00	 call	 ?CheckUser@CZtLicense@@QAE_NH@Z ; CZtLicense::CheckUser
  00046	84 c0		 test	 al, al
  00048	75 20		 jne	 SHORT $LN1@Load
  0004a	6a 22		 push	 34			; 00000022H
  0004c	b9 00 00 00 00	 mov	 ecx, OFFSET ?g_ZtLicense@@3VCZtLicense@@A ; g_ZtLicense
  00051	e8 00 00 00 00	 call	 ?CheckUser@CZtLicense@@QAE_NH@Z ; CZtLicense::CheckUser
  00056	84 c0		 test	 al, al
  00058	75 10		 jne	 SHORT $LN1@Load
  0005a	6a 21		 push	 33			; 00000021H
  0005c	b9 00 00 00 00	 mov	 ecx, OFFSET ?g_ZtLicense@@3VCZtLicense@@A ; g_ZtLicense
  00061	e8 00 00 00 00	 call	 ?CheckUser@CZtLicense@@QAE_NH@Z ; CZtLicense::CheckUser
  00066	84 c0		 test	 al, al
  00068	74 17		 je	 SHORT $LN2@Load
$LN1@Load:

; 25   : 	{
; 26   : 		this->ReadEvoMU(gDirPath.GetNewPath("ZtData\\User\\EvoMU.ini"));

  0006a	68 00 00 00 00	 push	 OFFSET ??_C@_0BG@MAAFIAHI@ZtData?2User?2EvoMU?4ini?$AA@
  0006f	b9 00 00 00 00	 mov	 ecx, OFFSET ?gDirPath@@3VCDirPath@@A ; gDirPath
  00074	e8 00 00 00 00	 call	 ?GetNewPath@CDirPath@@QAEPADPAD@Z ; CDirPath::GetNewPath
  00079	50		 push	 eax
  0007a	8b ce		 mov	 ecx, esi
  0007c	e8 00 00 00 00	 call	 ?ReadEvoMU@CUserConfig@@QAEXPAD@Z ; CUserConfig::ReadEvoMU
$LN2@Load:
  00081	5e		 pop	 esi

; 27   : 	}
; 28   : }

  00082	c3		 ret	 0
?Load@CUserConfig@@QAEXXZ ENDP				; CUserConfig::Load
_TEXT	ENDS
EXTRN	_atexit:PROC
; Function compile flags: /Ogtp
;	COMDAT ??__Eg_UserConfig@@YAXXZ
text$yc	SEGMENT
??__Eg_UserConfig@@YAXXZ PROC				; `dynamic initializer for 'g_UserConfig'', COMDAT

; 7    : CUserConfig g_UserConfig;

  00000	68 00 00 00 00	 push	 OFFSET ??__Fg_UserConfig@@YAXXZ ; `dynamic atexit destructor for 'g_UserConfig''
  00005	e8 00 00 00 00	 call	 _atexit
  0000a	59		 pop	 ecx
  0000b	c3		 ret	 0
??__Eg_UserConfig@@YAXXZ ENDP				; `dynamic initializer for 'g_UserConfig''
; Function compile flags: /Ogtp
text$yc	ENDS
;	COMDAT ??__Fg_UserConfig@@YAXXZ
text$yd	SEGMENT
??__Fg_UserConfig@@YAXXZ PROC				; `dynamic atexit destructor for 'g_UserConfig'', COMDAT
  00000	c3		 ret	 0
??__Fg_UserConfig@@YAXXZ ENDP				; `dynamic atexit destructor for 'g_UserConfig''
text$yd	ENDS
PUBLIC	?g_UserConfig@@3VCUserConfig@@A			; g_UserConfig
_BSS	SEGMENT
?g_UserConfig@@3VCUserConfig@@A DB 028H DUP (?)		; g_UserConfig
_BSS	ENDS
CRT$XCU	SEGMENT
_g_UserConfig$initializer$ DD FLAT:??__Eg_UserConfig@@YAXXZ
CRT$XCU	ENDS
END
