; Listing generated by Microsoft (R) Optimizing Compiler Version 16.00.30319.01 

	TITLE	E:\work\tranet_version\GS\GameServer\user.cpp
	.686P
	.XMM
	include listing.inc
	.model	flat

INCLUDELIB LIBCMT
INCLUDELIB OLDNAMES

PUBLIC	?ChangeCount@@3HA				; ChangeCount
PUBLIC	?lOfsChange@@3HA				; lOfsChange
PUBLIC	?GuildUserCount@@3HA				; GuildUserCount
PUBLIC	?GuildUserOfs@@3HA				; GuildUserOfs
PUBLIC	?GuildInfoCount@@3HA				; GuildInfoCount
PUBLIC	?GuildInfoOfs@@3HA				; GuildInfoOfs
PUBLIC	?skillSuccess@@3HA				; skillSuccess
PUBLIC	?gCurConnectUser@@3HA				; gCurConnectUser
PUBLIC	?aaaaaaaaa@@3HA					; aaaaaaaaa
PUBLIC	?gDisconnect@@3HA				; gDisconnect
PUBLIC	?gObjTotalUser@@3HA				; gObjTotalUser
PUBLIC	?gItemLoopMax@@3HA				; gItemLoopMax
PUBLIC	?gItemLoop@@3HA					; gItemLoop
PUBLIC	?gItemLoop2@@3HA				; gItemLoop2
PUBLIC	?gObjCSFlag@@3HA				; gObjCSFlag
PUBLIC	?gObjCount@@3HA					; gObjCount
PUBLIC	?gObjMonCount@@3HA				; gObjMonCount
PUBLIC	?gObjCallMonCount@@3HA				; gObjCallMonCount
PUBLIC	?gSMMsg@@3PAY0DC@UMessageStateMachine@@A	; gSMMsg
PUBLIC	?gSMAttackProcMsg@@3PAY0DC@UZtMessageStateMachine@@A ; gSMAttackProcMsg
PUBLIC	?gObj@@3PAUOBJECTSTRUCT@@A			; gObj
PUBLIC	?Zt_User@@3PAUZt__User@@A			; Zt_User
PUBLIC	?ExAccData@@3PAUEX_ACC_DATA@@A			; ExAccData
PUBLIC	?hThread_gObjMove@@3PAXA			; hThread_gObjMove
PUBLIC	?GuildInfoBuf@@3PAEA				; GuildInfoBuf
PUBLIC	?GuildUserBuf@@3PAEA				; GuildUserBuf
PUBLIC	?SendGBufChange@@3PAEA				; SendGBufChange
PUBLIC	?pViewportCreate@@3UPMSG_VIEWPORTCREATE@@A	; pViewportCreate
PUBLIC	?pViewportCreateChange@@3UPMSG_VIEWPORTCREATE_CHANGE@@A ; pViewportCreateChange
PUBLIC	?pViewportDestroy@@3UPMSG_VIEWPORTDESTROY@@A	; pViewportDestroy
PUBLIC	?pMonsterViewportCreate@@3UPMSG_MONSTER_VIEWPORTCREATE@@A ; pMonsterViewportCreate
PUBLIC	?pCallMonsterViewportCreate@@3UPMSG_CALLMONSTER_VIEWPORTCREATE@@A ; pCallMonsterViewportCreate
PUBLIC	?pItemCount@@3UPWMSG_COUNT@@A			; pItemCount
PUBLIC	?pItemViewportCreate@@3UPMSG_ITEMVIEWPORTCREATE@@A ; pItemViewportCreate
PUBLIC	?pItemViewportDestroy@@3UPMSG_VIEWPORTDESTROY@@A ; pItemViewportDestroy
PUBLIC	?ObjectStruct@@3PAUOBJECTSTRUCT@@A		; ObjectStruct
PUBLIC	?ZtIndex@@3HA					; ZtIndex
PUBLIC	?iAccIndex@@3HA					; iAccIndex
PUBLIC	?RoadPathTable@@3PAFA				; RoadPathTable
PUBLIC	?gServerMaxUser@@3HA				; gServerMaxUser
PUBLIC	?g_EnergyCheckOff@@3HA				; g_EnergyCheckOff
PUBLIC	?g_WaitOpen@@3_NA				; g_WaitOpen
PUBLIC	?g_bPCBangServer@@3HA				; g_bPCBangServer
_BSS	SEGMENT
?ChangeCount@@3HA DD 01H DUP (?)			; ChangeCount
?lOfsChange@@3HA DD 01H DUP (?)				; lOfsChange
?GuildUserCount@@3HA DD 01H DUP (?)			; GuildUserCount
?GuildUserOfs@@3HA DD 01H DUP (?)			; GuildUserOfs
?GuildInfoCount@@3HA DD 01H DUP (?)			; GuildInfoCount
?GuildInfoOfs@@3HA DD 01H DUP (?)			; GuildInfoOfs
?skillSuccess@@3HA DD 01H DUP (?)			; skillSuccess
?gCurConnectUser@@3HA DD 01H DUP (?)			; gCurConnectUser
?aaaaaaaaa@@3HA DD 01H DUP (?)				; aaaaaaaaa
?gDisconnect@@3HA DD 01H DUP (?)			; gDisconnect
?gObjTotalUser@@3HA DD 01H DUP (?)			; gObjTotalUser
?gItemLoopMax@@3HA DD 01H DUP (?)			; gItemLoopMax
?gItemLoop@@3HA DD 01H DUP (?)				; gItemLoop
?gItemLoop2@@3HA DD 01H DUP (?)				; gItemLoop2
?gObjCSFlag@@3HA DD 01H DUP (?)				; gObjCSFlag
?gObjCount@@3HA DD 01H DUP (?)				; gObjCount
?gObjMonCount@@3HA DD 01H DUP (?)			; gObjMonCount
?gObjCallMonCount@@3HA DD 01H DUP (?)			; gObjCallMonCount
?gSMMsg@@3PAY0DC@UMessageStateMachine@@A DB 0b71b00H DUP (?) ; gSMMsg
?gSMAttackProcMsg@@3PAY0DC@UZtMessageStateMachine@@A DB 0e4e1c0H DUP (?) ; gSMAttackProcMsg
?gObj@@3PAUOBJECTSTRUCT@@A DD 01H DUP (?)		; gObj
?Zt_User@@3PAUZt__User@@A DB 030d40H DUP (?)		; Zt_User
?ExAccData@@3PAUEX_ACC_DATA@@A DB 030d40H DUP (?)	; ExAccData
?hThread_gObjMove@@3PAXA DD 01H DUP (?)			; hThread_gObjMove
?GuildInfoBuf@@3PAEA DB 02710H DUP (?)			; GuildInfoBuf
?GuildUserBuf@@3PAEA DB 02710H DUP (?)			; GuildUserBuf
?SendGBufChange@@3PAEA DB 01388H DUP (?)		; SendGBufChange
?pViewportCreate@@3UPMSG_VIEWPORTCREATE@@A DB 034H DUP (?) ; pViewportCreate
?pViewportCreateChange@@3UPMSG_VIEWPORTCREATE_CHANGE@@A DB 036H DUP (?) ; pViewportCreateChange
	ALIGN	4

?pViewportDestroy@@3UPMSG_VIEWPORTDESTROY@@A DW 01H DUP (?) ; pViewportDestroy
	ALIGN	4

?pMonsterViewportCreate@@3UPMSG_MONSTER_VIEWPORTCREATE@@A DB 01aH DUP (?) ; pMonsterViewportCreate
	ALIGN	4

?pCallMonsterViewportCreate@@3UPMSG_CALLMONSTER_VIEWPORTCREATE@@A DB 024H DUP (?) ; pCallMonsterViewportCreate
?pItemCount@@3UPWMSG_COUNT@@A DB 05H DUP (?)		; pItemCount
	ALIGN	4

?pItemViewportCreate@@3UPMSG_ITEMVIEWPORTCREATE@@A DB 010H DUP (?) ; pItemViewportCreate
?pItemViewportDestroy@@3UPMSG_VIEWPORTDESTROY@@A DW 01H DUP (?) ; pItemViewportDestroy
	ALIGN	4

?ObjectStruct@@3PAUOBJECTSTRUCT@@A DD 01H DUP (?)	; ObjectStruct
?ZtIndex@@3HA DD 01H DUP (?)				; ZtIndex
?iAccIndex@@3HA DD 01H DUP (?)				; iAccIndex
?g_WaitOpen@@3_NA DB 01H DUP (?)			; g_WaitOpen
	ALIGN	4

?g_bPCBangServer@@3HA DD 01H DUP (?)			; g_bPCBangServer
_BSS	ENDS
_DATA	SEGMENT
_g_iNpcUpDfLevel_CGATE DD 01H
	DD	02H
	DD	02dc6c0H
	DD	02H
	DD	03H
	DD	02dc6c0H
	DD	03H
	DD	04H
	DD	02dc6c0H
_g_iNpcUpDfLevel_CSTATUE DD 01H
	DD	03H
	DD	02dc6c0H
	DD	02H
	DD	05H
	DD	02dc6c0H
	DD	03H
	DD	07H
	DD	02dc6c0H
_g_iNpcUpMaxHP_CGATE DD 02625a0H
	DD	02H
	DD	0f4240H
	DD	03567e0H
	DD	03H
	DD	0f4240H
	DD	04f5880H
	DD	04H
	DD	0f4240H
_g_iNpcUpMaxHP_CSTATUE DD 02191c0H
	DD	03H
	DD	0f4240H
	DD	033e140H
	DD	05H
	DD	0f4240H
	DD	04c4b40H
	DD	07H
	DD	0f4240H
_g_iNpcUpRgLevel_CSTATUE DD 01H
	DD	03H
	DD	04c4b40H
	DD	02H
	DD	05H
	DD	04c4b40H
	DD	03H
	DD	07H
	DD	04c4b40H
_g_iCsUserReSpawnArea DD 023H
	DD	011H
	DD	090H
	DD	030H
	DD	04aH
	DD	090H
	DD	073H
	DD	09aH
	DD	023H
	DD	011H
	DD	090H
	DD	030H
_g_iNpcDefense_CGATE DD 064H
	DD	0b4H
	DD	012cH
	DD	0208H
_g_iNpcDefense_CSTATUE DD 050H
	DD	0b4H
	DD	0154H
	DD	0226H
_g_iCastleWallStepAxisY DD 071H
	DD	0a0H
	DD	0cbH
_g_sttDEVILSQUARE_LEVEL DD 0fH
	DD	082H
	DD	0aH
	DD	06eH
	DD	03aH
	DD	083H
	DD	0b4H
	DD	06fH
	DD	0a0H
	DD	03bH
	DD	0b5H
	DD	0e6H
	DD	0a1H
	DD	0d2H
	DD	03cH
	DD	0e7H
	DD	0118H
	DD	0d3H
	DD	0104H
	DD	03dH
	DD	0119H
	DD	014aH
	DD	0105H
	DD	0136H
	DD	06fH
	DD	014bH
	DD	03e8H
	DD	0137H
	DD	03e8H
	DD	070H
	DD	0fH
	DD	04afH
	DD	0aH
	DD	04afH
	DD	010eH
_g_iKalimaGateGateIndex DD 058H
	DD	059H
	DD	05aH
	DD	05bH
	DD	05cH
	DD	05dH
	DD	074H
_g_sttKALIMAGATE_LEVEL DD 028H
	DD	082H
	DD	014H
	DD	06eH
	DD	083H
	DD	0b4H
	DD	06fH
	DD	0a0H
	DD	0b5H
	DD	0e6H
	DD	0a1H
	DD	0d2H
	DD	0e7H
	DD	0118H
	DD	0d3H
	DD	0104H
	DD	0119H
	DD	014aH
	DD	0105H
	DD	0136H
	DD	014bH
	DD	015dH
	DD	0137H
	DD	015dH
	DD	015eH
	DD	03e8H
	DD	015eH
	DD	03e8H
_g_sttBLOODCASTLE_LEVEL DD 0fH
	DD	050H
	DD	0aH
	DD	03cH
	DD	051H
	DD	082H
	DD	03dH
	DD	06eH
	DD	083H
	DD	0b4H
	DD	06fH
	DD	0a0H
	DD	0b5H
	DD	0e6H
	DD	0a1H
	DD	0d2H
	DD	0e7H
	DD	0118H
	DD	0d3H
	DD	0104H
	DD	0119H
	DD	014aH
	DD	0105H
	DD	0136H
	DD	014bH
	DD	03e8H
	DD	0137H
	DD	03e8H
	DD	0fH
	DD	04afH
	DD	0aH
	DD	04afH
_g_sttCHAOSCASTLE_LEVEL DD 0fH
	DD	031H
	DD	0fH
	DD	01dH
	DD	032H
	DD	077H
	DD	01eH
	DD	063H
	DD	078H
	DD	0b3H
	DD	064H
	DD	09fH
	DD	0b4H
	DD	0efH
	DD	0a0H
	DD	0dbH
	DD	0f0H
	DD	012bH
	DD	0dcH
	DD	0117H
	DD	012cH
	DD	03e8H
	DD	0118H
	DD	03e8H
	DD	03e8H
	DD	04afH
	DD	03e8H
	DD	04afH
_g_iChaosCastle_BlowOutDistance DD 03H
	DD	04H
	DD	03H
	DD	04H
	DD	02H
	DD	03H
	DD	00H
	DD	01H
_g_iChaosCastle_BlowOutDamage DD 0fH
	DD	0fH
	DD	0aH
	DD	05H
_g_iChaosCastle_EnterCost DD 061a8H
	DD	013880H
	DD	0249f0H
	DD	03d090H
	DD	061a80H
	DD	09eb10H
	DD	0f4240H
_g_iChaosCastle_GuardSetValue DD 09c4H
	DD	09c4H
	DD	09c4H
	DD	09c4H
	DD	09c4H
	DD	09c4H
	DD	09c4H
_g_iChaosCastle_MonsterItems DD 01c0dH
	DD	01H
	DD	01c0eH
	DD	02H
	DD	01c0dH
	DD	01H
	DD	01c0eH
	DD	03H
	DD	01c0dH
	DD	01H
	DD	01c0eH
	DD	03H
	DD	01c0dH
	DD	02H
	DD	01c0eH
	DD	02H
	DD	01c0dH
	DD	02H
	DD	01c0eH
	DD	03H
	DD	01c0dH
	DD	02H
	DD	01c0eH
	DD	03H
	DD	01c0dH
	DD	02H
	DD	01c0eH
	DD	04H
_g_iChaosCastle_MonsterItemsNewServer DD 00H
	DD	00H
	DD	01c0eH
	DD	02H
	DD	01c0dH
	DD	01H
	DD	01c0eH
	DD	01H
	DD	01c0dH
	DD	01H
	DD	01c0eH
	DD	02H
	DD	01c0dH
	DD	01H
	DD	01c0eH
	DD	02H
	DD	01c0dH
	DD	02H
	DD	01c0eH
	DD	01H
	DD	01c0dH
	DD	02H
	DD	01c0eH
	DD	02H
	DD	01c0dH
	DD	02H
	DD	01c0eH
	DD	03H
_g_iChaosCastle_GroundAxis DD 017H
	DD	04bH
	DD	02cH
	DD	06cH
_g_iChaosCastle_DamageAxis DD 017H
	DD	04bH
	DD	02cH
	DD	06cH
	DD	019H
	DD	04dH
	DD	02aH
	DD	06aH
	DD	01bH
	DD	04fH
	DD	028H
	DD	068H
	DD	01dH
	DD	051H
	DD	026H
	DD	066H
_g_iChaosCastle_MapHollowZone DD 017H
	DD	04bH
	DD	02cH
	DD	04cH
	DD	02bH
	DD	04dH
	DD	02cH
	DD	06cH
	DD	017H
	DD	06bH
	DD	02aH
	DD	06cH
	DD	017H
	DD	04dH
	DD	018H
	DD	06aH
	DD	017H
	DD	04bH
	DD	02cH
	DD	04cH
	DD	02bH
	DD	04dH
	DD	02cH
	DD	06cH
	DD	017H
	DD	06bH
	DD	02aH
	DD	06cH
	DD	017H
	DD	04dH
	DD	018H
	DD	06aH
	DD	019H
	DD	04dH
	DD	02aH
	DD	04eH
	DD	029H
	DD	04fH
	DD	02aH
	DD	06aH
	DD	019H
	DD	069H
	DD	028H
	DD	06aH
	DD	019H
	DD	04fH
	DD	01aH
	DD	068H
	DD	01bH
	DD	04fH
	DD	028H
	DD	050H
	DD	027H
	DD	051H
	DD	028H
	DD	068H
	DD	01bH
	DD	067H
	DD	026H
	DD	068H
	DD	01bH
	DD	051H
	DD	01cH
	DD	066H
?RoadPathTable@@3PAFA DW 0ffffH				; RoadPathTable
	DW	0ffffH
	DW	00H
	DW	0ffffH
	DW	01H
	DW	0ffffH
	DW	01H
	DW	00H
	DW	01H
	DW	01H
	DW	00H
	DW	01H
	DW	0ffffH
	DW	01H
	DW	0ffffH
	DW	00H
?gServerMaxUser@@3HA DD 03e8H				; gServerMaxUser
?g_EnergyCheckOff@@3HA DD 01H				; g_EnergyCheckOff
_DATA	ENDS
PUBLIC	??4CMagicInf@@QAEAAV0@ABV0@@Z			; CMagicInf::operator=
; Function compile flags: /Ogtp
; File e:\work\tranet_version\gs\gameserver\magicinf.h
;	COMDAT ??4CMagicInf@@QAEAAV0@ABV0@@Z
_TEXT	SEGMENT
___that$ = 8						; size = 4
??4CMagicInf@@QAEAAV0@ABV0@@Z PROC			; CMagicInf::operator=, COMDAT
; _this$ = ecx

; 36   : 	{

  00000	55		 push	 ebp
  00001	8b ec		 mov	 ebp, esp
  00003	8b c1		 mov	 eax, ecx

; 37   : 		this->m_Level = __that.m_Level;

  00005	8b 4d 08	 mov	 ecx, DWORD PTR ___that$[ebp]
  00008	8a 51 04	 mov	 dl, BYTE PTR [ecx+4]
  0000b	88 50 04	 mov	 BYTE PTR [eax+4], dl

; 38   : 		this->m_Skill = __that.m_Skill;

  0000e	8b 51 08	 mov	 edx, DWORD PTR [ecx+8]
  00011	89 50 08	 mov	 DWORD PTR [eax+8], edx

; 39   : 		this->m_DamageMin = __that.m_DamageMin;

  00014	8b 51 0c	 mov	 edx, DWORD PTR [ecx+12]
  00017	89 50 0c	 mov	 DWORD PTR [eax+12], edx

; 40   : 		this->m_DamageMax = __that.m_DamageMax;

  0001a	8b 51 10	 mov	 edx, DWORD PTR [ecx+16]
  0001d	89 50 10	 mov	 DWORD PTR [eax+16], edx

; 41   : 		this->m_bPass		= __that.m_bPass;	//new

  00020	8a 49 14	 mov	 cl, BYTE PTR [ecx+20]
  00023	88 48 14	 mov	 BYTE PTR [eax+20], cl

; 42   : 
; 43   : 		return *this;
; 44   : 	};

  00026	5d		 pop	 ebp
  00027	c2 04 00	 ret	 4
??4CMagicInf@@QAEAAV0@ABV0@@Z ENDP			; CMagicInf::operator=
_TEXT	ENDS
PUBLIC	?GetTimeStamp@_GUILD_INFO_STRUCT@@QAEHXZ	; _GUILD_INFO_STRUCT::GetTimeStamp
; Function compile flags: /Ogtp
; File e:\work\tranet_version\gs\gameserver\guildclass.h
;	COMDAT ?GetTimeStamp@_GUILD_INFO_STRUCT@@QAEHXZ
_TEXT	SEGMENT
?GetTimeStamp@_GUILD_INFO_STRUCT@@QAEHXZ PROC		; _GUILD_INFO_STRUCT::GetTimeStamp, COMDAT
; _this$ = ecx

; 140  : 		return this->iTimeStamp;

  00000	8b 81 24 07 00
	00		 mov	 eax, DWORD PTR [ecx+1828]

; 141  : 	};

  00006	c3		 ret	 0
?GetTimeStamp@_GUILD_INFO_STRUCT@@QAEHXZ ENDP		; _GUILD_INFO_STRUCT::GetTimeStamp
_TEXT	ENDS
PUBLIC	?CheckTimeStamp@_GUILD_INFO_STRUCT@@QAEHH@Z	; _GUILD_INFO_STRUCT::CheckTimeStamp
; Function compile flags: /Ogtp
;	COMDAT ?CheckTimeStamp@_GUILD_INFO_STRUCT@@QAEHH@Z
_TEXT	SEGMENT
_iTime$ = 8						; size = 4
?CheckTimeStamp@_GUILD_INFO_STRUCT@@QAEHH@Z PROC	; _GUILD_INFO_STRUCT::CheckTimeStamp, COMDAT
; _this$ = ecx

; 144  : 	{

  00000	55		 push	 ebp
  00001	8b ec		 mov	 ebp, esp

; 145  : 		return (iTime == this->iTimeStamp )? TRUE : FALSE;

  00003	8b 55 08	 mov	 edx, DWORD PTR _iTime$[ebp]
  00006	33 c0		 xor	 eax, eax
  00008	3b 91 24 07 00
	00		 cmp	 edx, DWORD PTR [ecx+1828]
  0000e	0f 94 c0	 sete	 al

; 146  : 	}

  00011	5d		 pop	 ebp
  00012	c2 04 00	 ret	 4
?CheckTimeStamp@_GUILD_INFO_STRUCT@@QAEHH@Z ENDP	; _GUILD_INFO_STRUCT::CheckTimeStamp
_TEXT	ENDS
PUBLIC	?strstr@@YAPADPADPBD@Z				; strstr
EXTRN	_strstr:PROC
; Function compile flags: /Ogtp
; File d:\program files (x86)\microsoft visual studio 10.0\vc\include\string.h
;	COMDAT ?strstr@@YAPADPADPBD@Z
_TEXT	SEGMENT
__Str$ = 8						; size = 4
__SubStr$ = 12						; size = 4
?strstr@@YAPADPADPBD@Z PROC				; strstr, COMDAT

; 221  : 	{ return (char*)strstr((const char*)_Str, _SubStr); }

  00000	55		 push	 ebp
  00001	8b ec		 mov	 ebp, esp
  00003	5d		 pop	 ebp
  00004	e9 00 00 00 00	 jmp	 _strstr
?strstr@@YAPADPADPBD@Z ENDP				; strstr
_TEXT	ENDS
PUBLIC	??_H@YGXPAXIHP6EPAX0@Z@Z			; `vector constructor iterator'
; Function compile flags: /Ogtp
;	COMDAT ??_H@YGXPAXIHP6EPAX0@Z@Z
_TEXT	SEGMENT
___t$ = 8						; size = 4
___s$ = 12						; size = 4
___n$ = 16						; size = 4
___f$ = 20						; size = 4
??_H@YGXPAXIHP6EPAX0@Z@Z PROC				; `vector constructor iterator', COMDAT
  00000	55		 push	 ebp
  00001	8b ec		 mov	 ebp, esp
  00003	57		 push	 edi
  00004	8b 7d 10	 mov	 edi, DWORD PTR ___n$[ebp]
  00007	4f		 dec	 edi
  00008	78 14		 js	 SHORT $LN1@vector
  0000a	53		 push	 ebx
  0000b	8b 5d 14	 mov	 ebx, DWORD PTR ___f$[ebp]
  0000e	56		 push	 esi
  0000f	8b 75 08	 mov	 esi, DWORD PTR ___t$[ebp]
$LL2@vector:
  00012	8b ce		 mov	 ecx, esi
  00014	ff d3		 call	 ebx
  00016	03 75 0c	 add	 esi, DWORD PTR ___s$[ebp]
  00019	4f		 dec	 edi
  0001a	79 f6		 jns	 SHORT $LL2@vector
  0001c	5e		 pop	 esi
  0001d	5b		 pop	 ebx
$LN1@vector:
  0001e	5f		 pop	 edi
  0001f	5d		 pop	 ebp
  00020	c2 10 00	 ret	 16			; 00000010H
??_H@YGXPAXIHP6EPAX0@Z@Z ENDP				; `vector constructor iterator'
_TEXT	ENDS
PUBLIC	?GetPayCode@BILL_CLASS@@QAEEXZ			; BILL_CLASS::GetPayCode
; Function compile flags: /Ogtp
; File e:\work\tranet_version\gs\gameserver\user.h
;	COMDAT ?GetPayCode@BILL_CLASS@@QAEEXZ
_TEXT	SEGMENT
?GetPayCode@BILL_CLASS@@QAEEXZ PROC			; BILL_CLASS::GetPayCode, COMDAT
; _this$ = ecx

; 1819 : 	BYTE GetPayCode() {return this->PayCode;}

  00000	8a 41 01	 mov	 al, BYTE PTR [ecx+1]
  00003	c3		 ret	 0
?GetPayCode@BILL_CLASS@@QAEEXZ ENDP			; BILL_CLASS::GetPayCode
_TEXT	ENDS
PUBLIC	?GetEndsDays@BILL_CLASS@@QAEPADXZ		; BILL_CLASS::GetEndsDays
; Function compile flags: /Ogtp
;	COMDAT ?GetEndsDays@BILL_CLASS@@QAEPADXZ
_TEXT	SEGMENT
?GetEndsDays@BILL_CLASS@@QAEPADXZ PROC			; BILL_CLASS::GetEndsDays, COMDAT
; _this$ = ecx

; 1820 : 	char* GetEndsDays() {return &this->EndsDays[0];}

  00000	8d 41 08	 lea	 eax, DWORD PTR [ecx+8]
  00003	c3		 ret	 0
?GetEndsDays@BILL_CLASS@@QAEPADXZ ENDP			; BILL_CLASS::GetEndsDays
_TEXT	ENDS
PUBLIC	?GetEndTime@BILL_CLASS@@QAEHXZ			; BILL_CLASS::GetEndTime
; Function compile flags: /Ogtp
;	COMDAT ?GetEndTime@BILL_CLASS@@QAEHXZ
_TEXT	SEGMENT
?GetEndTime@BILL_CLASS@@QAEHXZ PROC			; BILL_CLASS::GetEndTime, COMDAT
; _this$ = ecx

; 1821 : 	int GetEndTime() { return this->EndTime;}

  00000	8b 41 04	 mov	 eax, DWORD PTR [ecx+4]
  00003	c3		 ret	 0
?GetEndTime@BILL_CLASS@@QAEHXZ ENDP			; BILL_CLASS::GetEndTime
_TEXT	ENDS
PUBLIC	?GetCertify@BILL_CLASS@@QAEHXZ			; BILL_CLASS::GetCertify
; Function compile flags: /Ogtp
;	COMDAT ?GetCertify@BILL_CLASS@@QAEHXZ
_TEXT	SEGMENT
?GetCertify@BILL_CLASS@@QAEHXZ PROC			; BILL_CLASS::GetCertify, COMDAT
; _this$ = ecx

; 1822 : 	int GetCertify() {return this->cCertifyType;}

  00000	0f be 01	 movsx	 eax, BYTE PTR [ecx]
  00003	c3		 ret	 0
?GetCertify@BILL_CLASS@@QAEHXZ ENDP			; BILL_CLASS::GetCertify
_TEXT	ENDS
PUBLIC	?GetState@CDragonEvent@@QAEEXZ			; CDragonEvent::GetState
; Function compile flags: /Ogtp
; File e:\work\tranet_version\gs\gameserver\dragonevent.h
;	COMDAT ?GetState@CDragonEvent@@QAEEXZ
_TEXT	SEGMENT
?GetState@CDragonEvent@@QAEEXZ PROC			; CDragonEvent::GetState, COMDAT
; _this$ = ecx

; 16   : 	BYTE GetState(){return this->EventState;}

  00000	8a 41 04	 mov	 al, BYTE PTR [ecx+4]
  00003	c3		 ret	 0
?GetState@CDragonEvent@@QAEEXZ ENDP			; CDragonEvent::GetState
_TEXT	ENDS
PUBLIC	?GetMapNumber@CDragonEvent@@QAEEXZ		; CDragonEvent::GetMapNumber
; Function compile flags: /Ogtp
;	COMDAT ?GetMapNumber@CDragonEvent@@QAEEXZ
_TEXT	SEGMENT
?GetMapNumber@CDragonEvent@@QAEEXZ PROC			; CDragonEvent::GetMapNumber, COMDAT
; _this$ = ecx

; 17   : 	BYTE GetMapNumber(){return this->m_MapNumber;}

  00000	8a 41 0c	 mov	 al, BYTE PTR [ecx+12]
  00003	c3		 ret	 0
?GetMapNumber@CDragonEvent@@QAEEXZ ENDP			; CDragonEvent::GetMapNumber
_TEXT	ENDS
PUBLIC	?GetCastleState@CCastleSiege@@QAEHXZ		; CCastleSiege::GetCastleState
; Function compile flags: /Ogtp
; File e:\work\tranet_version\gs\gameserver\castlesiege.h
;	COMDAT ?GetCastleState@CCastleSiege@@QAEHXZ
_TEXT	SEGMENT
?GetCastleState@CCastleSiege@@QAEHXZ PROC		; CCastleSiege::GetCastleState, COMDAT
; _this$ = ecx

; 314  : 	int GetCastleState(){return m_iCastleSiegeState;}

  00000	8b 41 28	 mov	 eax, DWORD PTR [ecx+40]
  00003	c3		 ret	 0
?GetCastleState@CCastleSiege@@QAEHXZ ENDP		; CCastleSiege::GetCastleState
_TEXT	ENDS
PUBLIC	?GetRegCrownAvailable@CCastleSiege@@QAEHXZ	; CCastleSiege::GetRegCrownAvailable
; Function compile flags: /Ogtp
;	COMDAT ?GetRegCrownAvailable@CCastleSiege@@QAEHXZ
_TEXT	SEGMENT
?GetRegCrownAvailable@CCastleSiege@@QAEHXZ PROC		; CCastleSiege::GetRegCrownAvailable, COMDAT
; _this$ = ecx

; 347  : 	BOOL GetRegCrownAvailable(){return m_bRegCrownAvailable;}

  00000	8b 81 e8 01 00
	00		 mov	 eax, DWORD PTR [ecx+488]
  00006	c3		 ret	 0
?GetRegCrownAvailable@CCastleSiege@@QAEHXZ ENDP		; CCastleSiege::GetRegCrownAvailable
_TEXT	ENDS
PUBLIC	?GetCastleTowerAccessable@CCastleSiege@@QAEHXZ	; CCastleSiege::GetCastleTowerAccessable
; Function compile flags: /Ogtp
;	COMDAT ?GetCastleTowerAccessable@CCastleSiege@@QAEHXZ
_TEXT	SEGMENT
?GetCastleTowerAccessable@CCastleSiege@@QAEHXZ PROC	; CCastleSiege::GetCastleTowerAccessable, COMDAT
; _this$ = ecx

; 349  : 	int GetCastleTowerAccessable(){return m_bCastleTowerAccessable;}

  00000	8b 81 e4 01 00
	00		 mov	 eax, DWORD PTR [ecx+484]
  00006	c3		 ret	 0
?GetCastleTowerAccessable@CCastleSiege@@QAEHXZ ENDP	; CCastleSiege::GetCastleTowerAccessable
_TEXT	ENDS
PUBLIC	?GetCrywolfState@CCrywolf@@QAEHXZ		; CCrywolf::GetCrywolfState
; Function compile flags: /Ogtp
; File e:\work\tranet_version\gs\gameserver\crywolf.h
;	COMDAT ?GetCrywolfState@CCrywolf@@QAEHXZ
_TEXT	SEGMENT
?GetCrywolfState@CCrywolf@@QAEHXZ PROC			; CCrywolf::GetCrywolfState, COMDAT
; _this$ = ecx

; 91   : 	int GetCrywolfState(){return this->m_iCrywolfState;}

  00000	8b 81 ec b7 0f
	00		 mov	 eax, DWORD PTR [ecx+1030124]
  00006	c3		 ret	 0
?GetCrywolfState@CCrywolf@@QAEHXZ ENDP			; CCrywolf::GetCrywolfState
_TEXT	ENDS
PUBLIC	??_C@_0BK@CPKHJPAP@QeustNpc?5RefCount?5Dec?$DN?5?$CFd?$AA@ ; `string'
PUBLIC	?TalkRefDel@CQeustNpcTeleport@@QAEXXZ		; CQeustNpcTeleport::TalkRefDel
EXTRN	__imp__LeaveCriticalSection@4:PROC
EXTRN	?LogAdd@@3P6AXPADZZA:DWORD			; LogAdd
EXTRN	__imp__EnterCriticalSection@4:PROC
;	COMDAT ??_C@_0BK@CPKHJPAP@QeustNpc?5RefCount?5Dec?$DN?5?$CFd?$AA@
; File e:\work\tranet_version\gs\gameserver\gobjmonster.h
CONST	SEGMENT
??_C@_0BK@CPKHJPAP@QeustNpc?5RefCount?5Dec?$DN?5?$CFd?$AA@ DB 'QeustNpc R'
	DB	'efCount Dec= %d', 00H			; `string'
; Function compile flags: /Ogtp
CONST	ENDS
;	COMDAT ?TalkRefDel@CQeustNpcTeleport@@QAEXXZ
_TEXT	SEGMENT
?TalkRefDel@CQeustNpcTeleport@@QAEXXZ PROC		; CQeustNpcTeleport::TalkRefDel, COMDAT
; _this$ = ecx

; 70   : 	{

  00000	56		 push	 esi
  00001	57		 push	 edi
  00002	8b f1		 mov	 esi, ecx

; 71   : 		EnterCriticalSection(&this->CsRef);

  00004	8d 7e 04	 lea	 edi, DWORD PTR [esi+4]
  00007	57		 push	 edi
  00008	ff 15 00 00 00
	00		 call	 DWORD PTR __imp__EnterCriticalSection@4

; 72   : 		this->RefCount--;

  0000e	ff 0e		 dec	 DWORD PTR [esi]

; 73   : 
; 74   : 		if ( this->RefCount < 0 )

  00010	79 06		 jns	 SHORT $LN1@TalkRefDel

; 75   : 		{
; 76   : 			this->RefCount = 0;

  00012	c7 06 00 00 00
	00		 mov	 DWORD PTR [esi], 0
$LN1@TalkRefDel:

; 77   : 		}
; 78   : 		
; 79   : 		LogAdd("QeustNpc RefCount Dec= %d", this->RefCount);

  00018	8b 06		 mov	 eax, DWORD PTR [esi]
  0001a	50		 push	 eax
  0001b	68 00 00 00 00	 push	 OFFSET ??_C@_0BK@CPKHJPAP@QeustNpc?5RefCount?5Dec?$DN?5?$CFd?$AA@
  00020	ff 15 00 00 00
	00		 call	 DWORD PTR ?LogAdd@@3P6AXPADZZA ; LogAdd
  00026	83 c4 08	 add	 esp, 8

; 80   : 		LeaveCriticalSection(&this->CsRef);

  00029	57		 push	 edi
  0002a	ff 15 00 00 00
	00		 call	 DWORD PTR __imp__LeaveCriticalSection@4
  00030	5f		 pop	 edi
  00031	5e		 pop	 esi

; 81   : 	};

  00032	c3		 ret	 0
?TalkRefDel@CQeustNpcTeleport@@QAEXXZ ENDP		; CQeustNpcTeleport::TalkRefDel
_TEXT	ENDS
PUBLIC	?GetInfinityArrowUseLevel@CSkillAdditionInfo@@QAEHXZ ; CSkillAdditionInfo::GetInfinityArrowUseLevel
; Function compile flags: /Ogtp
; File e:\work\tranet_version\gs\gameserver\skilladditioninfo.h
;	COMDAT ?GetInfinityArrowUseLevel@CSkillAdditionInfo@@QAEHXZ
_TEXT	SEGMENT
?GetInfinityArrowUseLevel@CSkillAdditionInfo@@QAEHXZ PROC ; CSkillAdditionInfo::GetInfinityArrowUseLevel, COMDAT
; _this$ = ecx

; 37   : 	int GetInfinityArrowUseLevel(){return this->m_iInfinityArrowUseLevel;}

  00000	8b 41 08	 mov	 eax, DWORD PTR [ecx+8]
  00003	c3		 ret	 0
?GetInfinityArrowUseLevel@CSkillAdditionInfo@@QAEHXZ ENDP ; CSkillAdditionInfo::GetInfinityArrowUseLevel
_TEXT	ENDS
PUBLIC	?AtlThrowImpl@ATL@@YGXJ@Z			; ATL::AtlThrowImpl
EXTRN	?AfxThrowOleException@@YGXJ@Z:PROC		; AfxThrowOleException
EXTRN	?AfxThrowMemoryException@@YGXXZ:PROC		; AfxThrowMemoryException
; Function compile flags: /Ogtp
; File d:\program files (x86)\microsoft visual studio 10.0\vc\atlmfc\include\atlexcept.h
;	COMDAT ?AtlThrowImpl@ATL@@YGXJ@Z
_TEXT	SEGMENT
_hr$ = 8						; size = 4
?AtlThrowImpl@ATL@@YGXJ@Z PROC				; ATL::AtlThrowImpl, COMDAT

; 65   : {

  00000	55		 push	 ebp
  00001	8b ec		 mov	 ebp, esp

; 66   : 	ATLTRACE(atlTraceException, 0, _T("AtlThrow: hr = 0x%x\n"), hr );
; 67   : #ifdef _AFX
; 68   : 	if( hr == E_OUTOFMEMORY )

  00003	8b 45 08	 mov	 eax, DWORD PTR _hr$[ebp]
  00006	3d 0e 00 07 80	 cmp	 eax, -2147024882	; 8007000eH
  0000b	75 05		 jne	 SHORT $LN2@AtlThrowIm

; 69   : 	{
; 70   : 		AfxThrowMemoryException();

  0000d	e8 00 00 00 00	 call	 ?AfxThrowMemoryException@@YGXXZ ; AfxThrowMemoryException
$LN6@AtlThrowIm:
$LN2@AtlThrowIm:

; 71   : 	}
; 72   : 	else
; 73   : 	{
; 74   : 		AfxThrowOleException( hr );

  00012	50		 push	 eax
  00013	e8 00 00 00 00	 call	 ?AfxThrowOleException@@YGXJ@Z ; AfxThrowOleException
$LN7@AtlThrowIm:
$LN5@AtlThrowIm:
  00018	cc		 int	 3
?AtlThrowImpl@ATL@@YGXJ@Z ENDP				; ATL::AtlThrowImpl
_TEXT	ENDS
PUBLIC	?DuelCheck@CDuelManager@@QAE_NPAUOBJECTSTRUCT@@0@Z ; CDuelManager::DuelCheck
EXTRN	?IsOnDuel@CDuelManager@@QAE_NHH@Z:PROC		; CDuelManager::IsOnDuel
; Function compile flags: /Ogtp
; File e:\work\tranet_version\gs\gameserver\duelmanager.h
;	COMDAT ?DuelCheck@CDuelManager@@QAE_NPAUOBJECTSTRUCT@@0@Z
_TEXT	SEGMENT
_lpObj$ = 8						; size = 4
_lpObj2$ = 12						; size = 4
?DuelCheck@CDuelManager@@QAE_NPAUOBJECTSTRUCT@@0@Z PROC	; CDuelManager::DuelCheck, COMDAT
; _this$ = ecx

; 232  :   bool DuelCheck(LPOBJ lpObj, LPOBJ lpObj2) { return this->IsOnDuel(lpObj->m_Index, lpObj2->m_Index); }

  00000	55		 push	 ebp
  00001	8b ec		 mov	 ebp, esp
  00003	8b 45 0c	 mov	 eax, DWORD PTR _lpObj2$[ebp]
  00006	8b 10		 mov	 edx, DWORD PTR [eax]
  00008	8b 45 08	 mov	 eax, DWORD PTR _lpObj$[ebp]
  0000b	52		 push	 edx
  0000c	8b 10		 mov	 edx, DWORD PTR [eax]
  0000e	52		 push	 edx
  0000f	e8 00 00 00 00	 call	 ?IsOnDuel@CDuelManager@@QAE_NHH@Z ; CDuelManager::IsOnDuel
  00014	5d		 pop	 ebp
  00015	c2 08 00	 ret	 8
?DuelCheck@CDuelManager@@QAE_NPAUOBJECTSTRUCT@@0@Z ENDP	; CDuelManager::DuelCheck
_TEXT	ENDS
PUBLIC	__$ArrayPad$
EXTRN	_isalnum:PROC
EXTRN	_isalpha:PROC
EXTRN	_atof:PROC
EXTRN	_isdigit:PROC
EXTRN	_getc:PROC
EXTRN	_ungetc:PROC
EXTRN	_isspace:PROC
EXTRN	_fgetc:PROC
EXTRN	___security_cookie:DWORD
EXTRN	__fltused:DWORD
EXTRN	@__security_check_cookie@4:PROC
_BSS	SEGMENT
_CurrentToken DD 01H DUP (?)
_TokenNumber DD	01H DUP (?)
_SMDFile DD	01H DUP (?)
_TokenString DB	064H DUP (?)
; Function compile flags: /Ogtp
; File e:\work\tranet_version\gs\include\readscript.h
_BSS	ENDS
;	COMDAT ?GetToken@@YA?AW4SMDToken@@XZ
_TEXT	SEGMENT
_TempString$ = -104					; size = 100
__$ArrayPad$ = -4					; size = 4
?GetToken@@YA?AW4SMDToken@@XZ PROC			; GetToken, COMDAT

; 24   : {

  00000	55		 push	 ebp
  00001	8b ec		 mov	 ebp, esp
  00003	83 ec 68	 sub	 esp, 104		; 00000068H
  00006	a1 00 00 00 00	 mov	 eax, DWORD PTR ___security_cookie
  0000b	33 c5		 xor	 eax, ebp
  0000d	89 45 fc	 mov	 DWORD PTR __$ArrayPad$[ebp], eax

; 25   : 	char ch;
; 26   : 	char* p;
; 27   : 	char TempString[100];
; 28   : 
; 29   : 	TokenString[0]=0;

  00010	c6 05 00 00 00
	00 00		 mov	 BYTE PTR _TokenString, 0
  00017	53		 push	 ebx
  00018	eb 06 8d 9b 00
	00 00 00	 npad	 8
$LL31@GetToken:

; 30   : 
; 31   : 	do
; 32   : 	{
; 33   : 		if ((ch=fgetc(SMDFile)) == -1)

  00020	a1 00 00 00 00	 mov	 eax, DWORD PTR _SMDFile
  00025	50		 push	 eax
  00026	e8 00 00 00 00	 call	 _fgetc
  0002b	8a d8		 mov	 bl, al
  0002d	83 c4 04	 add	 esp, 4
  00030	80 fb ff	 cmp	 bl, -1
  00033	74 64		 je	 SHORT $LN39@GetToken

; 36   : 		}
; 37   : 		else
; 38   : 		{	
; 39   : 			if (ch=='/')		// this is /

  00035	80 fb 2f	 cmp	 bl, 47			; 0000002fH
  00038	75 31		 jne	 SHORT $LN30@GetToken

; 40   : 			{
; 41   : 				if((ch=fgetc(SMDFile)) == '/')

  0003a	8b 0d 00 00 00
	00		 mov	 ecx, DWORD PTR _SMDFile
  00040	51		 push	 ecx
  00041	e8 00 00 00 00	 call	 _fgetc
  00046	8a d8		 mov	 bl, al
  00048	83 c4 04	 add	 esp, 4
  0004b	80 fb 2f	 cmp	 bl, 47			; 0000002fH
  0004e	75 1b		 jne	 SHORT $LN30@GetToken
$LL24@GetToken:

; 42   : 				{
; 43   : 					while ((ch != '\n') && (ch != -1))	// End of Line (EOL)

  00050	80 fb ff	 cmp	 bl, -1
  00053	74 44		 je	 SHORT $LN39@GetToken

; 44   : 					{
; 45   : 						ch=fgetc(SMDFile);

  00055	8b 15 00 00 00
	00		 mov	 edx, DWORD PTR _SMDFile
  0005b	52		 push	 edx
  0005c	e8 00 00 00 00	 call	 _fgetc
  00061	8a d8		 mov	 bl, al
  00063	83 c4 04	 add	 esp, 4
  00066	80 fb 0a	 cmp	 bl, 10			; 0000000aH
  00069	75 e5		 jne	 SHORT $LL24@GetToken
$LN30@GetToken:

; 46   : 					}
; 47   : 	
; 48   : 					if (ch == -1)
; 49   : 					{
; 50   : 						return END;	// End of FILE
; 51   : 					}
; 52   : 				}
; 53   : 			}
; 54   : 		}
; 55   : 	}
; 56   : 	while (isspace(ch) != 0);

  0006b	0f be c3	 movsx	 eax, bl
  0006e	50		 push	 eax
  0006f	e8 00 00 00 00	 call	 _isspace
  00074	83 c4 04	 add	 esp, 4
  00077	85 c0		 test	 eax, eax
  00079	75 a5		 jne	 SHORT $LL31@GetToken

; 57   : 
; 58   : 	
; 59   : 	switch(ch)

  0007b	0f be c3	 movsx	 eax, bl
  0007e	8d 48 de	 lea	 ecx, DWORD PTR [eax-34]
  00081	56		 push	 esi
  00082	83 f9 5b	 cmp	 ecx, 91			; 0000005bH
  00085	0f 87 2b 01 00
	00		 ja	 $LN6@GetToken
  0008b	0f b6 89 00 00
	00 00		 movzx	 ecx, BYTE PTR $LN46@GetToken[ecx]
  00092	ff 24 8d 00 00
	00 00		 jmp	 DWORD PTR $LN50@GetToken[ecx*4]
$LN39@GetToken:

; 34   : 		{
; 35   : 			return END;	// End of FILE (EOF)

  00099	b8 02 00 00 00	 mov	 eax, 2
  0009e	5b		 pop	 ebx

; 147  : 		}
; 148  : 		break;
; 149  : 
; 150  : 	}
; 151  : 
; 152  : 	return NAME;
; 153  : }

  0009f	8b 4d fc	 mov	 ecx, DWORD PTR __$ArrayPad$[ebp]
  000a2	33 cd		 xor	 ecx, ebp
  000a4	e8 00 00 00 00	 call	 @__security_check_cookie@4
  000a9	8b e5		 mov	 esp, ebp
  000ab	5d		 pop	 ebp
  000ac	c3		 ret	 0
$LN19@GetToken:

; 60   : 	{
; 61   : 
; 62   : 	case 0x23:	// #
; 63   : 		return CurrentToken=COMMAND;

  000ad	b8 23 00 00 00	 mov	 eax, 35			; 00000023H
  000b2	e9 99 01 00 00	 jmp	 $LN48@GetToken
$LN18@GetToken:

; 64   : 		break;
; 65   : 	
; 66   : 	case 0x3B:	// ;
; 67   : 		return CurrentToken=SEMICOLON;

  000b7	b8 3b 00 00 00	 mov	 eax, 59			; 0000003bH
  000bc	e9 8f 01 00 00	 jmp	 $LN48@GetToken
$LN17@GetToken:

; 68   : 		break;
; 69   : 	
; 70   : 	case 0x2C:	// ,
; 71   : 
; 72   : 		return CurrentToken=COMMA;

  000c1	b8 2c 00 00 00	 mov	 eax, 44			; 0000002cH
  000c6	e9 85 01 00 00	 jmp	 $LN48@GetToken
$LN16@GetToken:

; 73   : 		break;
; 74   : 	
; 75   : 	case 0x7B:	// {
; 76   : 		return CurrentToken = LP;

  000cb	b8 7b 00 00 00	 mov	 eax, 123		; 0000007bH
  000d0	e9 7b 01 00 00	 jmp	 $LN48@GetToken
$LN15@GetToken:

; 77   : 		break;
; 78   : 
; 79   : 	case 0x7D:	// }
; 80   : 		return CurrentToken = RP;

  000d5	b8 7d 00 00 00	 mov	 eax, 125		; 0000007dH
  000da	e9 71 01 00 00	 jmp	 $LN48@GetToken
$LN14@GetToken:

; 81   : 		break;
; 82   : 	// Nice Index Table :)	by Deathway
; 83   : 	// Numbers Case
; 84   : 	case 0x2D:	//-
; 85   : 	case 0x2E:	//.
; 86   : 	case '0':	//0
; 87   : 	case '1':	//1
; 88   : 	case '2':	//2
; 89   : 	case '3':	//3
; 90   : 	case '4':	//4		
; 91   : 	case '5':	//5
; 92   : 	case '6':	//6
; 93   : 	case '7':	//7
; 94   : 	case '8':	//8
; 95   : 	case '9':	//9
; 96   : 		ungetc(ch, SMDFile);

  000df	8b 15 00 00 00
	00		 mov	 edx, DWORD PTR _SMDFile
  000e5	52		 push	 edx
  000e6	50		 push	 eax
  000e7	e8 00 00 00 00	 call	 _ungetc

; 97   : 		p = TempString;
; 98   : 		
; 99   : 		while (((ch=getc(SMDFile)) != -1) && ((ch == 0x2E) || (isdigit(ch) != 0) || (ch == 0x2D)))  // 2e '.'  2D '-'

  000ec	a1 00 00 00 00	 mov	 eax, DWORD PTR _SMDFile
  000f1	50		 push	 eax
  000f2	8d 75 98	 lea	 esi, DWORD PTR _TempString$[ebp]
  000f5	e8 00 00 00 00	 call	 _getc
  000fa	8a d8		 mov	 bl, al
  000fc	83 c4 0c	 add	 esp, 12			; 0000000cH
  000ff	80 fb ff	 cmp	 bl, -1
  00102	74 33		 je	 SHORT $LN12@GetToken
$LL13@GetToken:
  00104	80 fb 2e	 cmp	 bl, 46			; 0000002eH
  00107	74 15		 je	 SHORT $LN11@GetToken
  00109	0f be cb	 movsx	 ecx, bl
  0010c	51		 push	 ecx
  0010d	e8 00 00 00 00	 call	 _isdigit
  00112	83 c4 04	 add	 esp, 4
  00115	85 c0		 test	 eax, eax
  00117	75 05		 jne	 SHORT $LN11@GetToken
  00119	80 fb 2d	 cmp	 bl, 45			; 0000002dH
  0011c	75 19		 jne	 SHORT $LN12@GetToken
$LN11@GetToken:
  0011e	8b 15 00 00 00
	00		 mov	 edx, DWORD PTR _SMDFile

; 100  : 		{
; 101  : 			*p = ch;	// Construct a String

  00124	88 1e		 mov	 BYTE PTR [esi], bl
  00126	52		 push	 edx

; 102  : 			p++;

  00127	46		 inc	 esi
  00128	e8 00 00 00 00	 call	 _getc
  0012d	8a d8		 mov	 bl, al
  0012f	83 c4 04	 add	 esp, 4
  00132	80 fb ff	 cmp	 bl, -1
  00135	75 cd		 jne	 SHORT $LL13@GetToken
$LN12@GetToken:

; 103  : 		}		
; 104  : 		*p = 0;
; 105  : 		TokenNumber = atof( TempString);	// Select the first Byte as Main ID

  00137	8d 45 98	 lea	 eax, DWORD PTR _TempString$[ebp]
  0013a	50		 push	 eax
  0013b	c6 06 00	 mov	 BYTE PTR [esi], 0
  0013e	e8 00 00 00 00	 call	 _atof
  00143	d9 1d 00 00 00
	00		 fstp	 DWORD PTR _TokenNumber
  00149	83 c4 04	 add	 esp, 4
  0014c	5e		 pop	 esi

; 106  : 		return CurrentToken  = NUMBER ;

  0014d	c7 05 00 00 00
	00 01 00 00 00	 mov	 DWORD PTR _CurrentToken, 1
  00157	b8 01 00 00 00	 mov	 eax, 1
  0015c	5b		 pop	 ebx

; 147  : 		}
; 148  : 		break;
; 149  : 
; 150  : 	}
; 151  : 
; 152  : 	return NAME;
; 153  : }

  0015d	8b 4d fc	 mov	 ecx, DWORD PTR __$ArrayPad$[ebp]
  00160	33 cd		 xor	 ecx, ebp
  00162	e8 00 00 00 00	 call	 @__security_check_cookie@4
  00167	8b e5		 mov	 esp, ebp
  00169	5d		 pop	 ebp
  0016a	c3		 ret	 0
$LN10@GetToken:

; 107  : 		break;
; 108  : 
; 109  : 	case '\"':	// "	String Case
; 110  : 		p=&TokenString[0];
; 111  : 		
; 112  : 		while (((ch=getc(SMDFile)) != -1 ) && (ch != 0x22))	// nice

  0016b	8b 0d 00 00 00
	00		 mov	 ecx, DWORD PTR _SMDFile
  00171	51		 push	 ecx
  00172	be 00 00 00 00	 mov	 esi, OFFSET _TokenString
  00177	e8 00 00 00 00	 call	 _getc
  0017c	83 c4 04	 add	 esp, 4
  0017f	3c ff		 cmp	 al, -1
  00181	74 1e		 je	 SHORT $LN8@GetToken
$LL9@GetToken:
  00183	3c 22		 cmp	 al, 34			; 00000022H
  00185	0f 84 a1 00 00
	00		 je	 $LN7@GetToken
  0018b	8b 15 00 00 00
	00		 mov	 edx, DWORD PTR _SMDFile

; 113  : 		{
; 114  : 			*p = ch;

  00191	88 06		 mov	 BYTE PTR [esi], al
  00193	52		 push	 edx

; 115  : 			p++;

  00194	46		 inc	 esi
  00195	e8 00 00 00 00	 call	 _getc
  0019a	83 c4 04	 add	 esp, 4
  0019d	3c ff		 cmp	 al, -1
  0019f	75 e2		 jne	 SHORT $LL9@GetToken
$LN8@GetToken:

; 116  : 		}
; 117  : 		if (ch != 0x22 )

  001a1	3c 22		 cmp	 al, 34			; 00000022H
  001a3	0f 84 83 00 00
	00		 je	 $LN7@GetToken

; 118  : 		{
; 119  : 			ungetc(ch, SMDFile);

  001a9	8b 0d 00 00 00
	00		 mov	 ecx, DWORD PTR _SMDFile
  001af	0f be d0	 movsx	 edx, al
  001b2	51		 push	 ecx
  001b3	52		 push	 edx

; 120  : 		}
; 121  : 		*p = 0;
; 122  : 		return CurrentToken = NAME;

  001b4	eb 6e		 jmp	 SHORT $LN49@GetToken
$LN6@GetToken:

; 123  : 		break;
; 124  : 
; 125  : 	default:	// Others
; 126  : 		if (isalpha(ch))

  001b6	50		 push	 eax
  001b7	e8 00 00 00 00	 call	 _isalpha
  001bc	83 c4 04	 add	 esp, 4
  001bf	85 c0		 test	 eax, eax
  001c1	0f 84 84 00 00
	00		 je	 $LN5@GetToken

; 127  : 		{
; 128  : 			p=&TokenString[0];
; 129  : 			*p=ch;
; 130  : 			p++;
; 131  : 
; 132  : 			while ( ((ch=getc(SMDFile)) != -1) && ( (ch == 0x2E) || (ch == 0x5F) || (isalnum(ch) != 0) ) )

  001c7	a1 00 00 00 00	 mov	 eax, DWORD PTR _SMDFile
  001cc	50		 push	 eax
  001cd	88 1d 00 00 00
	00		 mov	 BYTE PTR _TokenString, bl
  001d3	be 01 00 00 00	 mov	 esi, OFFSET _TokenString+1
  001d8	e8 00 00 00 00	 call	 _getc
  001dd	8a d8		 mov	 bl, al
  001df	83 c4 04	 add	 esp, 4
  001e2	80 fb ff	 cmp	 bl, -1
  001e5	74 33		 je	 SHORT $LN3@GetToken
$LL4@GetToken:
  001e7	80 fb 2e	 cmp	 bl, 46			; 0000002eH
  001ea	74 15		 je	 SHORT $LN2@GetToken
  001ec	80 fb 5f	 cmp	 bl, 95			; 0000005fH
  001ef	74 10		 je	 SHORT $LN2@GetToken
  001f1	0f be cb	 movsx	 ecx, bl
  001f4	51		 push	 ecx
  001f5	e8 00 00 00 00	 call	 _isalnum
  001fa	83 c4 04	 add	 esp, 4
  001fd	85 c0		 test	 eax, eax
  001ff	74 19		 je	 SHORT $LN3@GetToken
$LN2@GetToken:
  00201	8b 15 00 00 00
	00		 mov	 edx, DWORD PTR _SMDFile

; 133  : 			{
; 134  : 				*p=ch;

  00207	88 1e		 mov	 BYTE PTR [esi], bl
  00209	52		 push	 edx

; 135  : 				p++;

  0020a	46		 inc	 esi
  0020b	e8 00 00 00 00	 call	 _getc
  00210	8a d8		 mov	 bl, al
  00212	83 c4 04	 add	 esp, 4
  00215	80 fb ff	 cmp	 bl, -1
  00218	75 cd		 jne	 SHORT $LL4@GetToken
$LN3@GetToken:

; 136  : 				
; 137  : 			}
; 138  : 
; 139  : 			ungetc(ch, SMDFile);

  0021a	a1 00 00 00 00	 mov	 eax, DWORD PTR _SMDFile
  0021f	0f be cb	 movsx	 ecx, bl
  00222	50		 push	 eax
  00223	51		 push	 ecx
$LN49@GetToken:
  00224	e8 00 00 00 00	 call	 _ungetc
  00229	83 c4 08	 add	 esp, 8
$LN7@GetToken:

; 140  : 			*p=0;

  0022c	c6 06 00	 mov	 BYTE PTR [esi], 0
  0022f	5e		 pop	 esi

; 141  : 			CurrentToken=NAME;

  00230	c7 05 00 00 00
	00 00 00 00 00	 mov	 DWORD PTR _CurrentToken, 0

; 142  : 			return CurrentToken;

  0023a	33 c0		 xor	 eax, eax
  0023c	5b		 pop	 ebx

; 147  : 		}
; 148  : 		break;
; 149  : 
; 150  : 	}
; 151  : 
; 152  : 	return NAME;
; 153  : }

  0023d	8b 4d fc	 mov	 ecx, DWORD PTR __$ArrayPad$[ebp]
  00240	33 cd		 xor	 ecx, ebp
  00242	e8 00 00 00 00	 call	 @__security_check_cookie@4
  00247	8b e5		 mov	 esp, ebp
  00249	5d		 pop	 ebp
  0024a	c3		 ret	 0
$LN5@GetToken:

; 143  : 		}
; 144  : 		else
; 145  : 		{
; 146  : 			return CurrentToken = SMD_ERROR; // '<'

  0024b	b8 3c 00 00 00	 mov	 eax, 60			; 0000003cH
$LN48@GetToken:

; 147  : 		}
; 148  : 		break;
; 149  : 
; 150  : 	}
; 151  : 
; 152  : 	return NAME;
; 153  : }

  00250	8b 4d fc	 mov	 ecx, DWORD PTR __$ArrayPad$[ebp]
  00253	5e		 pop	 esi
  00254	33 cd		 xor	 ecx, ebp
  00256	a3 00 00 00 00	 mov	 DWORD PTR _CurrentToken, eax
  0025b	5b		 pop	 ebx
  0025c	e8 00 00 00 00	 call	 @__security_check_cookie@4
  00261	8b e5		 mov	 esp, ebp
  00263	5d		 pop	 ebp
  00264	c3		 ret	 0
  00265	8d 49 00	 npad	 3
$LN50@GetToken:
  00268	00 00 00 00	 DD	 $LN10@GetToken
  0026c	00 00 00 00	 DD	 $LN19@GetToken
  00270	00 00 00 00	 DD	 $LN17@GetToken
  00274	00 00 00 00	 DD	 $LN14@GetToken
  00278	00 00 00 00	 DD	 $LN18@GetToken
  0027c	00 00 00 00	 DD	 $LN16@GetToken
  00280	00 00 00 00	 DD	 $LN15@GetToken
  00284	00 00 00 00	 DD	 $LN6@GetToken
$LN46@GetToken:
  00288	00		 DB	 0
  00289	01		 DB	 1
  0028a	07		 DB	 7
  0028b	07		 DB	 7
  0028c	07		 DB	 7
  0028d	07		 DB	 7
  0028e	07		 DB	 7
  0028f	07		 DB	 7
  00290	07		 DB	 7
  00291	07		 DB	 7
  00292	02		 DB	 2
  00293	03		 DB	 3
  00294	03		 DB	 3
  00295	07		 DB	 7
  00296	03		 DB	 3
  00297	03		 DB	 3
  00298	03		 DB	 3
  00299	03		 DB	 3
  0029a	03		 DB	 3
  0029b	03		 DB	 3
  0029c	03		 DB	 3
  0029d	03		 DB	 3
  0029e	03		 DB	 3
  0029f	03		 DB	 3
  002a0	07		 DB	 7
  002a1	04		 DB	 4
  002a2	07		 DB	 7
  002a3	07		 DB	 7
  002a4	07		 DB	 7
  002a5	07		 DB	 7
  002a6	07		 DB	 7
  002a7	07		 DB	 7
  002a8	07		 DB	 7
  002a9	07		 DB	 7
  002aa	07		 DB	 7
  002ab	07		 DB	 7
  002ac	07		 DB	 7
  002ad	07		 DB	 7
  002ae	07		 DB	 7
  002af	07		 DB	 7
  002b0	07		 DB	 7
  002b1	07		 DB	 7
  002b2	07		 DB	 7
  002b3	07		 DB	 7
  002b4	07		 DB	 7
  002b5	07		 DB	 7
  002b6	07		 DB	 7
  002b7	07		 DB	 7
  002b8	07		 DB	 7
  002b9	07		 DB	 7
  002ba	07		 DB	 7
  002bb	07		 DB	 7
  002bc	07		 DB	 7
  002bd	07		 DB	 7
  002be	07		 DB	 7
  002bf	07		 DB	 7
  002c0	07		 DB	 7
  002c1	07		 DB	 7
  002c2	07		 DB	 7
  002c3	07		 DB	 7
  002c4	07		 DB	 7
  002c5	07		 DB	 7
  002c6	07		 DB	 7
  002c7	07		 DB	 7
  002c8	07		 DB	 7
  002c9	07		 DB	 7
  002ca	07		 DB	 7
  002cb	07		 DB	 7
  002cc	07		 DB	 7
  002cd	07		 DB	 7
  002ce	07		 DB	 7
  002cf	07		 DB	 7
  002d0	07		 DB	 7
  002d1	07		 DB	 7
  002d2	07		 DB	 7
  002d3	07		 DB	 7
  002d4	07		 DB	 7
  002d5	07		 DB	 7
  002d6	07		 DB	 7
  002d7	07		 DB	 7
  002d8	07		 DB	 7
  002d9	07		 DB	 7
  002da	07		 DB	 7
  002db	07		 DB	 7
  002dc	07		 DB	 7
  002dd	07		 DB	 7
  002de	07		 DB	 7
  002df	07		 DB	 7
  002e0	07		 DB	 7
  002e1	05		 DB	 5
  002e2	07		 DB	 7
  002e3	06		 DB	 6
?GetToken@@YA?AW4SMDToken@@XZ ENDP			; GetToken
_TEXT	ENDS
PUBLIC	?SaveZtUser@@YAXPAUOBJECTSTRUCT@@@Z		; SaveZtUser
EXTRN	__imp__GetTickCount@0:PROC
; Function compile flags: /Ogtp
; File e:\work\tranet_version\gs\gameserver\user.cpp
;	COMDAT ?SaveZtUser@@YAXPAUOBJECTSTRUCT@@@Z
_TEXT	SEGMENT
_AddExIndex$ = -1					; size = 1
_lpObj$ = 8						; size = 4
?SaveZtUser@@YAXPAUOBJECTSTRUCT@@@Z PROC		; SaveZtUser, COMDAT

; 172  : {

  00000	55		 push	 ebp
  00001	8b ec		 mov	 ebp, esp
  00003	51		 push	 ecx
  00004	53		 push	 ebx
  00005	56		 push	 esi
  00006	57		 push	 edi

; 173  : 	bool AddExIndex = true;
; 174  : 	for(int i=0; i<ZTUSERMAX; i++)

  00007	8b 7d 08	 mov	 edi, DWORD PTR _lpObj$[ebp]
  0000a	33 db		 xor	 ebx, ebx
  0000c	c6 45 ff 01	 mov	 BYTE PTR _AddExIndex$[ebp], 1
  00010	83 c7 77	 add	 edi, 119		; 00000077H
  00013	be 00 00 00 00	 mov	 esi, OFFSET ?Zt_User@@3PAUZt__User@@A ; Zt_User
$LL6@SaveZtUser:

; 175  : 	{
; 176  : 
; 177  : 		if(!strcmp(Zt_User[i].Name,lpObj->Name))

  00018	8b cf		 mov	 ecx, edi
  0001a	8b c6		 mov	 eax, esi
  0001c	8d 64 24 00	 npad	 4
$LL14@SaveZtUser:
  00020	8a 10		 mov	 dl, BYTE PTR [eax]
  00022	3a 11		 cmp	 dl, BYTE PTR [ecx]
  00024	75 1a		 jne	 SHORT $LN15@SaveZtUser
  00026	84 d2		 test	 dl, dl
  00028	74 12		 je	 SHORT $LN16@SaveZtUser
  0002a	8a 50 01	 mov	 dl, BYTE PTR [eax+1]
  0002d	3a 51 01	 cmp	 dl, BYTE PTR [ecx+1]
  00030	75 0e		 jne	 SHORT $LN15@SaveZtUser
  00032	83 c0 02	 add	 eax, 2
  00035	83 c1 02	 add	 ecx, 2
  00038	84 d2		 test	 dl, dl
  0003a	75 e4		 jne	 SHORT $LL14@SaveZtUser
$LN16@SaveZtUser:
  0003c	33 c0		 xor	 eax, eax
  0003e	eb 05		 jmp	 SHORT $LN17@SaveZtUser
$LN15@SaveZtUser:
  00040	1b c0		 sbb	 eax, eax
  00042	83 d8 ff	 sbb	 eax, -1
$LN17@SaveZtUser:
  00045	85 c0		 test	 eax, eax
  00047	74 17		 je	 SHORT $LN12@SaveZtUser

; 173  : 	bool AddExIndex = true;
; 174  : 	for(int i=0; i<ZTUSERMAX; i++)

  00049	83 c6 14	 add	 esi, 20			; 00000014H
  0004c	43		 inc	 ebx
  0004d	81 fe 40 0d 03
	00		 cmp	 esi, OFFSET ?Zt_User@@3PAUZt__User@@A+200000
  00053	7c c3		 jl	 SHORT $LL6@SaveZtUser

; 175  : 	{
; 176  : 
; 177  : 		if(!strcmp(Zt_User[i].Name,lpObj->Name))

  00055	8b 0d 00 00 00
	00		 mov	 ecx, DWORD PTR ?ZtIndex@@3HA ; ZtIndex
  0005b	8a 5d ff	 mov	 bl, BYTE PTR _AddExIndex$[ebp]
  0005e	eb 0a		 jmp	 SHORT $LN4@SaveZtUser
$LN12@SaveZtUser:

; 178  : 		{
; 179  : 			ZtIndex = i;

  00060	8b cb		 mov	 ecx, ebx
  00062	89 0d 00 00 00
	00		 mov	 DWORD PTR ?ZtIndex@@3HA, ecx ; ZtIndex

; 180  : 			AddExIndex = false;

  00068	32 db		 xor	 bl, bl
$LN4@SaveZtUser:

; 181  : 			break;
; 182  : 		}
; 183  : 	}
; 184  : 
; 185  : #ifdef DEBUG_CODE
; 186  : 		LogAddC(2,"Zt_User[ZtIndex].Name: %s | lpObj->PartyNumber: %d",Zt_User[ZtIndex].Name, lpObj->PartyNumber);
; 187  : #endif
; 188  : 
; 189  : 	strcpy(Zt_User[ZtIndex].Name,lpObj->Name);

  0006a	8d 14 89	 lea	 edx, DWORD PTR [ecx+ecx*4]
  0006d	03 d2		 add	 edx, edx
  0006f	03 d2		 add	 edx, edx
  00071	8d b2 00 00 00
	00		 lea	 esi, DWORD PTR ?Zt_User@@3PAUZt__User@@A[edx]
  00077	8b c7		 mov	 eax, edi
  00079	2b f7		 sub	 esi, edi
  0007b	eb 03 8d 49 00	 npad	 5
$LL9@SaveZtUser:
  00080	8a 08		 mov	 cl, BYTE PTR [eax]
  00082	88 0c 06	 mov	 BYTE PTR [esi+eax], cl
  00085	40		 inc	 eax
  00086	84 c9		 test	 cl, cl
  00088	75 f6		 jne	 SHORT $LL9@SaveZtUser

; 190  : 	Zt_User[ZtIndex].Party = lpObj->PartyNumber;

  0008a	8b 45 08	 mov	 eax, DWORD PTR _lpObj$[ebp]
  0008d	8b 88 2c 04 00
	00		 mov	 ecx, DWORD PTR [eax+1068]
  00093	89 8a 0c 00 00
	00		 mov	 DWORD PTR ?Zt_User@@3PAUZt__User@@A[edx+12], ecx

; 191  : 	Zt_User[ZtIndex].TickParty = GetTickCount();

  00099	ff 15 00 00 00
	00		 call	 DWORD PTR __imp__GetTickCount@0
  0009f	8b 0d 00 00 00
	00		 mov	 ecx, DWORD PTR ?ZtIndex@@3HA ; ZtIndex
  000a5	5f		 pop	 edi
  000a6	8d 14 89	 lea	 edx, DWORD PTR [ecx+ecx*4]
  000a9	5e		 pop	 esi

; 192  : 
; 193  : 	if(AddExIndex == true)

  000aa	80 fb 01	 cmp	 bl, 1
  000ad	89 04 95 10 00
	00 00		 mov	 DWORD PTR ?Zt_User@@3PAUZt__User@@A[edx*4+16], eax
  000b4	5b		 pop	 ebx
  000b5	75 07		 jne	 SHORT $LN2@SaveZtUser

; 194  : 	{
; 195  : 		ZtIndex++;

  000b7	41		 inc	 ecx
  000b8	89 0d 00 00 00
	00		 mov	 DWORD PTR ?ZtIndex@@3HA, ecx ; ZtIndex
$LN2@SaveZtUser:

; 196  : 	}
; 197  : 
; 198  : 	if(ZtIndex >= ZTUSERMAX-1)

  000be	81 f9 0f 27 00
	00		 cmp	 ecx, 9999		; 0000270fH
  000c4	7c 0a		 jl	 SHORT $LN1@SaveZtUser

; 199  : 	{
; 200  : 		ZtIndex = 0;

  000c6	c7 05 00 00 00
	00 00 00 00 00	 mov	 DWORD PTR ?ZtIndex@@3HA, 0 ; ZtIndex
$LN1@SaveZtUser:

; 201  : 	}
; 202  : }

  000d0	8b e5		 mov	 esp, ebp
  000d2	5d		 pop	 ebp
  000d3	c3		 ret	 0
?SaveZtUser@@YAXPAUOBJECTSTRUCT@@@Z ENDP		; SaveZtUser
_TEXT	ENDS
PUBLIC	?SearchPartyZtUSer@@YAXPAUOBJECTSTRUCT@@AAH1@Z	; SearchPartyZtUSer
; Function compile flags: /Ogtp
;	COMDAT ?SearchPartyZtUSer@@YAXPAUOBJECTSTRUCT@@AAH1@Z
_TEXT	SEGMENT
_lpObj$ = 8						; size = 4
_Party$ = 12						; size = 4
_PartyTick$ = 16					; size = 4
?SearchPartyZtUSer@@YAXPAUOBJECTSTRUCT@@AAH1@Z PROC	; SearchPartyZtUSer, COMDAT

; 204  : {

  00000	55		 push	 ebp
  00001	8b ec		 mov	 ebp, esp
  00003	53		 push	 ebx

; 205  : 	for(int i=0; i<ZTUSERMAX; i++)

  00004	8b 5d 08	 mov	 ebx, DWORD PTR _lpObj$[ebp]
  00007	56		 push	 esi
  00008	57		 push	 edi
  00009	33 ff		 xor	 edi, edi
  0000b	be 00 00 00 00	 mov	 esi, OFFSET ?Zt_User@@3PAUZt__User@@A ; Zt_User
$LL4@SearchPart:

; 206  : 	{
; 207  : 		if(!strcmp(Zt_User[i].Name,lpObj->Name))

  00010	8d 4b 77	 lea	 ecx, DWORD PTR [ebx+119]
  00013	8b c6		 mov	 eax, esi
$LL10@SearchPart:
  00015	8a 10		 mov	 dl, BYTE PTR [eax]
  00017	3a 11		 cmp	 dl, BYTE PTR [ecx]
  00019	75 1a		 jne	 SHORT $LN11@SearchPart
  0001b	84 d2		 test	 dl, dl
  0001d	74 12		 je	 SHORT $LN12@SearchPart
  0001f	8a 50 01	 mov	 dl, BYTE PTR [eax+1]
  00022	3a 51 01	 cmp	 dl, BYTE PTR [ecx+1]
  00025	75 0e		 jne	 SHORT $LN11@SearchPart
  00027	83 c0 02	 add	 eax, 2
  0002a	83 c1 02	 add	 ecx, 2
  0002d	84 d2		 test	 dl, dl
  0002f	75 e4		 jne	 SHORT $LL10@SearchPart
$LN12@SearchPart:
  00031	33 c0		 xor	 eax, eax
  00033	eb 05		 jmp	 SHORT $LN13@SearchPart
$LN11@SearchPart:
  00035	1b c0		 sbb	 eax, eax
  00037	83 d8 ff	 sbb	 eax, -1
$LN13@SearchPart:
  0003a	85 c0		 test	 eax, eax
  0003c	74 11		 je	 SHORT $LN8@SearchPart

; 205  : 	for(int i=0; i<ZTUSERMAX; i++)

  0003e	83 c6 14	 add	 esi, 20			; 00000014H
  00041	47		 inc	 edi
  00042	81 fe 40 0d 03
	00		 cmp	 esi, OFFSET ?Zt_User@@3PAUZt__User@@A+200000
  00048	7c c6		 jl	 SHORT $LL4@SearchPart
  0004a	5f		 pop	 edi
  0004b	5e		 pop	 esi
  0004c	5b		 pop	 ebx

; 211  : 			return;
; 212  : 		}
; 213  : 	}
; 214  : }

  0004d	5d		 pop	 ebp
  0004e	c3		 ret	 0
$LN8@SearchPart:

; 208  : 		{
; 209  : 			Party = Zt_User[i].Party;

  0004f	8b 55 0c	 mov	 edx, DWORD PTR _Party$[ebp]
  00052	8d 04 bf	 lea	 eax, DWORD PTR [edi+edi*4]
  00055	03 c0		 add	 eax, eax
  00057	8b 8c 00 0c 00
	00 00		 mov	 ecx, DWORD PTR ?Zt_User@@3PAUZt__User@@A[eax+eax+12]
  0005e	03 c0		 add	 eax, eax
  00060	89 0a		 mov	 DWORD PTR [edx], ecx

; 210  : 			PartyTick = Zt_User[i].TickParty;

  00062	8b 80 10 00 00
	00		 mov	 eax, DWORD PTR ?Zt_User@@3PAUZt__User@@A[eax+16]
  00068	8b 4d 10	 mov	 ecx, DWORD PTR _PartyTick$[ebp]
  0006b	5f		 pop	 edi
  0006c	5e		 pop	 esi
  0006d	89 01		 mov	 DWORD PTR [ecx], eax
  0006f	5b		 pop	 ebx

; 211  : 			return;
; 212  : 		}
; 213  : 	}
; 214  : }

  00070	5d		 pop	 ebp
  00071	c3		 ret	 0
?SearchPartyZtUSer@@YAXPAUOBJECTSTRUCT@@AAH1@Z ENDP	; SearchPartyZtUSer
_TEXT	ENDS
PUBLIC	?AccountDataReset@@YAXXZ			; AccountDataReset
EXTRN	_memset:PROC
; Function compile flags: /Ogtp
;	COMDAT ?AccountDataReset@@YAXXZ
_TEXT	SEGMENT
_tm$ = -16						; size = 16
?AccountDataReset@@YAXXZ PROC				; AccountDataReset, COMDAT

; 223  : {

  00000	55		 push	 ebp
  00001	8b ec		 mov	 ebp, esp
  00003	83 ec 10	 sub	 esp, 16			; 00000010H

; 224  : 	SYSTEMTIME tm;
; 225  : 
; 226  : 	if(tm.wHour == 00 && tm.wMinute == 00 && tm.wSecond == 00)

  00006	66 83 7d f8 00	 cmp	 WORD PTR _tm$[ebp+8], 0
  0000b	75 2c		 jne	 SHORT $LN1@AccountDat
  0000d	66 83 7d fa 00	 cmp	 WORD PTR _tm$[ebp+10], 0
  00012	75 25		 jne	 SHORT $LN1@AccountDat
  00014	66 83 7d fc 00	 cmp	 WORD PTR _tm$[ebp+12], 0
  00019	75 1e		 jne	 SHORT $LN1@AccountDat

; 227  : 	{
; 228  : 		iAccIndex = 0;
; 229  : 		memset(ExAccData, 0, sizeof(ExAccData));

  0001b	68 40 0d 03 00	 push	 200000			; 00030d40H
  00020	6a 00		 push	 0
  00022	68 00 00 00 00	 push	 OFFSET ?ExAccData@@3PAUEX_ACC_DATA@@A ; ExAccData
  00027	c7 05 00 00 00
	00 00 00 00 00	 mov	 DWORD PTR ?iAccIndex@@3HA, 0 ; iAccIndex
  00031	e8 00 00 00 00	 call	 _memset
  00036	83 c4 0c	 add	 esp, 12			; 0000000cH
$LN1@AccountDat:

; 230  : 	}
; 231  : }

  00039	8b e5		 mov	 esp, ebp
  0003b	5d		 pop	 ebp
  0003c	c3		 ret	 0
?AccountDataReset@@YAXXZ ENDP				; AccountDataReset
_TEXT	ENDS
PUBLIC	?AccountDataAdd@@YAXPAUOBJECTSTRUCT@@@Z		; AccountDataAdd
; Function compile flags: /Ogtp
;	COMDAT ?AccountDataAdd@@YAXPAUOBJECTSTRUCT@@@Z
_TEXT	SEGMENT
_lpObj$ = 8						; size = 4
?AccountDataAdd@@YAXPAUOBJECTSTRUCT@@@Z PROC		; AccountDataAdd, COMDAT

; 233  : {

  00000	55		 push	 ebp
  00001	8b ec		 mov	 ebp, esp
  00003	53		 push	 ebx

; 234  : 	for(int i=0; i<ZTUSERMAX; i++)

  00004	8b 5d 08	 mov	 ebx, DWORD PTR _lpObj$[ebp]
  00007	56		 push	 esi
  00008	83 c3 6c	 add	 ebx, 108		; 0000006cH
  0000b	be 00 00 00 00	 mov	 esi, OFFSET ?ExAccData@@3PAUEX_ACC_DATA@@A ; ExAccData
$LL5@AccountDat@2:

; 235  : 	{
; 236  : 		if(!strcmp(ExAccData[i].Account,lpObj->AccountID))

  00010	8b cb		 mov	 ecx, ebx
  00012	8b c6		 mov	 eax, esi
$LL13@AccountDat@2:
  00014	8a 10		 mov	 dl, BYTE PTR [eax]
  00016	3a 11		 cmp	 dl, BYTE PTR [ecx]
  00018	75 1a		 jne	 SHORT $LN14@AccountDat@2
  0001a	84 d2		 test	 dl, dl
  0001c	74 12		 je	 SHORT $LN15@AccountDat@2
  0001e	8a 50 01	 mov	 dl, BYTE PTR [eax+1]
  00021	3a 51 01	 cmp	 dl, BYTE PTR [ecx+1]
  00024	75 0e		 jne	 SHORT $LN14@AccountDat@2
  00026	83 c0 02	 add	 eax, 2
  00029	83 c1 02	 add	 ecx, 2
  0002c	84 d2		 test	 dl, dl
  0002e	75 e4		 jne	 SHORT $LL13@AccountDat@2
$LN15@AccountDat@2:
  00030	33 c0		 xor	 eax, eax
  00032	eb 05		 jmp	 SHORT $LN16@AccountDat@2
$LN14@AccountDat@2:
  00034	1b c0		 sbb	 eax, eax
  00036	83 d8 ff	 sbb	 eax, -1
$LN16@AccountDat@2:
  00039	85 c0		 test	 eax, eax
  0003b	74 52		 je	 SHORT $LN1@AccountDat@2

; 234  : 	for(int i=0; i<ZTUSERMAX; i++)

  0003d	83 c6 14	 add	 esi, 20			; 00000014H
  00040	81 fe 40 0d 03
	00		 cmp	 esi, OFFSET ?ExAccData@@3PAUEX_ACC_DATA@@A+200000
  00046	7c c8		 jl	 SHORT $LL5@AccountDat@2

; 237  : 		{
; 238  : 			return;
; 239  : 		}
; 240  : 	}
; 241  : 
; 242  : 	strcpy(ExAccData[iAccIndex].Account,lpObj->AccountID);

  00048	57		 push	 edi
  00049	8b 3d 00 00 00
	00		 mov	 edi, DWORD PTR ?iAccIndex@@3HA ; iAccIndex
  0004f	8d 14 bf	 lea	 edx, DWORD PTR [edi+edi*4]
  00052	03 d2		 add	 edx, edx
  00054	03 d2		 add	 edx, edx
  00056	8b ca		 mov	 ecx, edx
  00058	2b cb		 sub	 ecx, ebx
  0005a	8b c3		 mov	 eax, ebx
  0005c	8d b1 00 00 00
	00		 lea	 esi, DWORD PTR ?ExAccData@@3PAUEX_ACC_DATA@@A[ecx]
$LL8@AccountDat@2:
  00062	8a 08		 mov	 cl, BYTE PTR [eax]
  00064	88 0c 06	 mov	 BYTE PTR [esi+eax], cl
  00067	40		 inc	 eax
  00068	84 c9		 test	 cl, cl
  0006a	75 f6		 jne	 SHORT $LL8@AccountDat@2

; 243  : 
; 244  : 	ExAccData[iAccIndex].BloodCastleCount = 0;

  0006c	33 c0		 xor	 eax, eax

; 245  : 
; 246  : 	ExAccData[iAccIndex].DevilSqueryCount = 0;
; 247  : 
; 248  : 	iAccIndex++;

  0006e	47		 inc	 edi
  0006f	89 82 0c 00 00
	00		 mov	 DWORD PTR ?ExAccData@@3PAUEX_ACC_DATA@@A[edx+12], eax
  00075	89 3d 00 00 00
	00		 mov	 DWORD PTR ?iAccIndex@@3HA, edi ; iAccIndex

; 249  : 
; 250  : 	if(iAccIndex >= ZTUSERMAX-1)

  0007b	81 ff 0f 27 00
	00		 cmp	 edi, 9999		; 0000270fH
  00081	89 82 10 00 00
	00		 mov	 DWORD PTR ?ExAccData@@3PAUEX_ACC_DATA@@A[edx+16], eax
  00087	5f		 pop	 edi
  00088	7c 05		 jl	 SHORT $LN1@AccountDat@2

; 251  : 	{
; 252  : 		iAccIndex = 0;

  0008a	a3 00 00 00 00	 mov	 DWORD PTR ?iAccIndex@@3HA, eax ; iAccIndex
$LN1@AccountDat@2:
  0008f	5e		 pop	 esi
  00090	5b		 pop	 ebx

; 253  : 	}
; 254  : }

  00091	5d		 pop	 ebp
  00092	c3		 ret	 0
?AccountDataAdd@@YAXPAUOBJECTSTRUCT@@@Z ENDP		; AccountDataAdd
_TEXT	ENDS
PUBLIC	?AccountDataGet@@YAHPAUOBJECTSTRUCT@@@Z		; AccountDataGet
; Function compile flags: /Ogtp
;	COMDAT ?AccountDataGet@@YAHPAUOBJECTSTRUCT@@@Z
_TEXT	SEGMENT
_lpObj$ = 8						; size = 4
?AccountDataGet@@YAHPAUOBJECTSTRUCT@@@Z PROC		; AccountDataGet, COMDAT

; 257  : {

  00000	55		 push	 ebp
  00001	8b ec		 mov	 ebp, esp
  00003	53		 push	 ebx
  00004	56		 push	 esi
  00005	57		 push	 edi

; 258  : 	for(int i=0; i<ZTUSERMAX; i++)

  00006	8b 7d 08	 mov	 edi, DWORD PTR _lpObj$[ebp]
  00009	33 c0		 xor	 eax, eax
  0000b	be 00 00 00 00	 mov	 esi, OFFSET ?ExAccData@@3PAUEX_ACC_DATA@@A ; ExAccData
$LL4@AccountDat@3:

; 259  : 	{
; 260  : 		if(!strcmp(ExAccData[i].Account,lpObj->AccountID))

  00010	8d 57 6c	 lea	 edx, DWORD PTR [edi+108]
  00013	8b ce		 mov	 ecx, esi
$LL10@AccountDat@3:
  00015	8a 19		 mov	 bl, BYTE PTR [ecx]
  00017	3a 1a		 cmp	 bl, BYTE PTR [edx]
  00019	75 1a		 jne	 SHORT $LN11@AccountDat@3
  0001b	84 db		 test	 bl, bl
  0001d	74 12		 je	 SHORT $LN12@AccountDat@3
  0001f	8a 59 01	 mov	 bl, BYTE PTR [ecx+1]
  00022	3a 5a 01	 cmp	 bl, BYTE PTR [edx+1]
  00025	75 0e		 jne	 SHORT $LN11@AccountDat@3
  00027	83 c1 02	 add	 ecx, 2
  0002a	83 c2 02	 add	 edx, 2
  0002d	84 db		 test	 bl, bl
  0002f	75 e4		 jne	 SHORT $LL10@AccountDat@3
$LN12@AccountDat@3:
  00031	33 c9		 xor	 ecx, ecx
  00033	eb 05		 jmp	 SHORT $LN13@AccountDat@3
$LN11@AccountDat@3:
  00035	1b c9		 sbb	 ecx, ecx
  00037	83 d9 ff	 sbb	 ecx, -1
$LN13@AccountDat@3:
  0003a	85 c9		 test	 ecx, ecx
  0003c	74 0f		 je	 SHORT $LN5@AccountDat@3

; 258  : 	for(int i=0; i<ZTUSERMAX; i++)

  0003e	83 c6 14	 add	 esi, 20			; 00000014H
  00041	40		 inc	 eax
  00042	81 fe 40 0d 03
	00		 cmp	 esi, OFFSET ?ExAccData@@3PAUEX_ACC_DATA@@A+200000
  00048	7c c6		 jl	 SHORT $LL4@AccountDat@3

; 261  : 		{
; 262  : 			return i;
; 263  : 		}
; 264  : 	}
; 265  : 
; 266  : 
; 267  : 	return -1;

  0004a	83 c8 ff	 or	 eax, -1
$LN5@AccountDat@3:
  0004d	5f		 pop	 edi
  0004e	5e		 pop	 esi
  0004f	5b		 pop	 ebx

; 268  : }

  00050	5d		 pop	 ebp
  00051	c3		 ret	 0
?AccountDataGet@@YAHPAUOBJECTSTRUCT@@@Z ENDP		; AccountDataGet
_TEXT	ENDS
PUBLIC	??1OBJECTSTRUCT@@QAE@XZ				; OBJECTSTRUCT::~OBJECTSTRUCT
EXTRN	??1CSkillDelay@@UAE@XZ:PROC			; CSkillDelay::~CSkillDelay
EXTRN	??1TMonsterAIAgro@@UAE@XZ:PROC			; TMonsterAIAgro::~TMonsterAIAgro
EXTRN	??1CPCBangPointTimer@@UAE@XZ:PROC		; CPCBangPointTimer::~CPCBangPointTimer
EXTRN	??1CHackToolPacket@@QAE@XZ:PROC			; CHackToolPacket::~CHackToolPacket
EXTRN	___CxxFrameHandler3:PROC
;	COMDAT xdata$x
xdata$x	SEGMENT
__unwindtable$??1OBJECTSTRUCT@@QAE@XZ DD 0ffffffffH
	DD	FLAT:__unwindfunclet$??1OBJECTSTRUCT@@QAE@XZ$0
	DD	00H
	DD	FLAT:__unwindfunclet$??1OBJECTSTRUCT@@QAE@XZ$1
	DD	01H
	DD	FLAT:__unwindfunclet$??1OBJECTSTRUCT@@QAE@XZ$2
__ehfuncinfo$??1OBJECTSTRUCT@@QAE@XZ DD 019930522H
	DD	03H
	DD	FLAT:__unwindtable$??1OBJECTSTRUCT@@QAE@XZ
	DD	2 DUP(00H)
	DD	2 DUP(00H)
	DD	00H
	DD	01H
; Function compile flags: /Ogtp
xdata$x	ENDS
;	COMDAT ??1OBJECTSTRUCT@@QAE@XZ
_TEXT	SEGMENT
_this$ = -16						; size = 4
__$EHRec$ = -12						; size = 12
??1OBJECTSTRUCT@@QAE@XZ PROC				; OBJECTSTRUCT::~OBJECTSTRUCT, COMDAT
; _this$ = ecx
  00000	55		 push	 ebp
  00001	8b ec		 mov	 ebp, esp
  00003	6a ff		 push	 -1
  00005	68 00 00 00 00	 push	 __ehhandler$??1OBJECTSTRUCT@@QAE@XZ
  0000a	64 a1 00 00 00
	00		 mov	 eax, DWORD PTR fs:0
  00010	50		 push	 eax
  00011	51		 push	 ecx
  00012	56		 push	 esi
  00013	a1 00 00 00 00	 mov	 eax, DWORD PTR ___security_cookie
  00018	33 c5		 xor	 eax, ebp
  0001a	50		 push	 eax
  0001b	8d 45 f4	 lea	 eax, DWORD PTR __$EHRec$[ebp]
  0001e	64 a3 00 00 00
	00		 mov	 DWORD PTR fs:0, eax
  00024	8b f1		 mov	 esi, ecx
  00026	89 75 f0	 mov	 DWORD PTR _this$[ebp], esi
  00029	8d 8e 98 21 00
	00		 lea	 ecx, DWORD PTR [esi+8600]
  0002f	c7 45 fc 02 00
	00 00		 mov	 DWORD PTR __$EHRec$[ebp+8], 2
  00036	e8 00 00 00 00	 call	 ??1CHackToolPacket@@QAE@XZ ; CHackToolPacket::~CHackToolPacket
  0003b	8d 8e 40 20 00
	00		 lea	 ecx, DWORD PTR [esi+8256]
  00041	c6 45 fc 01	 mov	 BYTE PTR __$EHRec$[ebp+8], 1
  00045	e8 00 00 00 00	 call	 ??1CPCBangPointTimer@@UAE@XZ ; CPCBangPointTimer::~CPCBangPointTimer
  0004a	8d 8e 94 1c 00
	00		 lea	 ecx, DWORD PTR [esi+7316]
  00050	c6 45 fc 00	 mov	 BYTE PTR __$EHRec$[ebp+8], 0
  00054	e8 00 00 00 00	 call	 ??1TMonsterAIAgro@@UAE@XZ ; TMonsterAIAgro::~TMonsterAIAgro
  00059	8d 8e 7c 12 00
	00		 lea	 ecx, DWORD PTR [esi+4732]
  0005f	c7 45 fc ff ff
	ff ff		 mov	 DWORD PTR __$EHRec$[ebp+8], -1
  00066	e8 00 00 00 00	 call	 ??1CSkillDelay@@UAE@XZ	; CSkillDelay::~CSkillDelay
  0006b	8b 4d f4	 mov	 ecx, DWORD PTR __$EHRec$[ebp]
  0006e	64 89 0d 00 00
	00 00		 mov	 DWORD PTR fs:0, ecx
  00075	59		 pop	 ecx
  00076	5e		 pop	 esi
  00077	8b e5		 mov	 esp, ebp
  00079	5d		 pop	 ebp
  0007a	c3		 ret	 0
_TEXT	ENDS
;	COMDAT text$x
text$x	SEGMENT
__unwindfunclet$??1OBJECTSTRUCT@@QAE@XZ$0:
  00000	8b 4d f0	 mov	 ecx, DWORD PTR _this$[ebp]
  00003	81 c1 7c 12 00
	00		 add	 ecx, 4732		; 0000127cH
  00009	e9 00 00 00 00	 jmp	 ??1CSkillDelay@@UAE@XZ	; CSkillDelay::~CSkillDelay
__unwindfunclet$??1OBJECTSTRUCT@@QAE@XZ$1:
  0000e	8b 4d f0	 mov	 ecx, DWORD PTR _this$[ebp]
  00011	81 c1 94 1c 00
	00		 add	 ecx, 7316		; 00001c94H
  00017	e9 00 00 00 00	 jmp	 ??1TMonsterAIAgro@@UAE@XZ ; TMonsterAIAgro::~TMonsterAIAgro
__unwindfunclet$??1OBJECTSTRUCT@@QAE@XZ$2:
  0001c	8b 4d f0	 mov	 ecx, DWORD PTR _this$[ebp]
  0001f	81 c1 40 20 00
	00		 add	 ecx, 8256		; 00002040H
  00025	e9 00 00 00 00	 jmp	 ??1CPCBangPointTimer@@UAE@XZ ; CPCBangPointTimer::~CPCBangPointTimer
__ehhandler$??1OBJECTSTRUCT@@QAE@XZ:
  0002a	8b 54 24 08	 mov	 edx, DWORD PTR [esp+8]
  0002e	8d 42 0c	 lea	 eax, DWORD PTR [edx+12]
  00031	8b 4a f4	 mov	 ecx, DWORD PTR [edx-12]
  00034	33 c8		 xor	 ecx, eax
  00036	e8 00 00 00 00	 call	 @__security_check_cookie@4
  0003b	b8 00 00 00 00	 mov	 eax, OFFSET __ehfuncinfo$??1OBJECTSTRUCT@@QAE@XZ
  00040	e9 00 00 00 00	 jmp	 ___CxxFrameHandler3
text$x	ENDS
??1OBJECTSTRUCT@@QAE@XZ ENDP				; OBJECTSTRUCT::~OBJECTSTRUCT
PUBLIC	?gObjRefillProcess@@YAXHPAUOBJECTSTRUCT@@@Z	; gObjRefillProcess
; Function compile flags: /Ogtp
;	COMDAT ?gObjRefillProcess@@YAXHPAUOBJECTSTRUCT@@@Z
_TEXT	SEGMENT
_aIndex$ = 8						; size = 4
_lpObj$ = 12						; size = 4
?gObjRefillProcess@@YAXHPAUOBJECTSTRUCT@@@Z PROC	; gObjRefillProcess, COMDAT

; 759  : 	/*if( GetTickCount()-lpObj->LifeRefillTimer > 10000 )
; 760  : 	{
; 761  : 		if( (lpObj->Life+2) <= lpObj->MaxLife )
; 762  : 		{
; 763  : 			lpObj->Life += 2;
; 764  : 			GCReFillSend(aIndex, lpObj->Life, 0xff);
; 765  : 			lpObj->LifeRefillTimer = GetTickCount();
; 766  : 		}
; 767  : 	}*/
; 768  : }

  00000	c3		 ret	 0
?gObjRefillProcess@@YAXHPAUOBJECTSTRUCT@@@Z ENDP	; gObjRefillProcess
_TEXT	ENDS
PUBLIC	??_ECMagicInf@@UAEPAXI@Z			; CMagicInf::`vector deleting destructor'
EXTRN	??3@YAXPAX@Z:PROC				; operator delete
EXTRN	??_V@YAXPAX@Z:PROC				; operator delete[]
EXTRN	??_M@YGXPAXIHP6EX0@Z@Z:PROC			; `eh vector destructor iterator'
EXTRN	??1CMagicInf@@UAE@XZ:PROC			; CMagicInf::~CMagicInf
; Function compile flags: /Ogtp
;	COMDAT ??_ECMagicInf@@UAEPAXI@Z
_TEXT	SEGMENT
___flags$ = 8						; size = 4
??_ECMagicInf@@UAEPAXI@Z PROC				; CMagicInf::`vector deleting destructor', COMDAT
; _this$ = ecx
  00000	55		 push	 ebp
  00001	8b ec		 mov	 ebp, esp
  00003	53		 push	 ebx
  00004	8a 5d 08	 mov	 bl, BYTE PTR ___flags$[ebp]
  00007	56		 push	 esi
  00008	8b f1		 mov	 esi, ecx
  0000a	f6 c3 02	 test	 bl, 2
  0000d	74 2c		 je	 SHORT $LN3@vector@2
  0000f	8b 46 fc	 mov	 eax, DWORD PTR [esi-4]
  00012	57		 push	 edi
  00013	68 00 00 00 00	 push	 OFFSET ??1CMagicInf@@UAE@XZ ; CMagicInf::~CMagicInf
  00018	8d 7e fc	 lea	 edi, DWORD PTR [esi-4]
  0001b	50		 push	 eax
  0001c	6a 18		 push	 24			; 00000018H
  0001e	56		 push	 esi
  0001f	e8 00 00 00 00	 call	 ??_M@YGXPAXIHP6EX0@Z@Z
  00024	f6 c3 01	 test	 bl, 1
  00027	74 09		 je	 SHORT $LN2@vector@2
  00029	57		 push	 edi
  0002a	e8 00 00 00 00	 call	 ??_V@YAXPAX@Z		; operator delete[]
  0002f	83 c4 04	 add	 esp, 4
$LN2@vector@2:
  00032	8b c7		 mov	 eax, edi
  00034	5f		 pop	 edi
  00035	5e		 pop	 esi
  00036	5b		 pop	 ebx
  00037	5d		 pop	 ebp
  00038	c2 04 00	 ret	 4
$LN3@vector@2:
  0003b	e8 00 00 00 00	 call	 ??1CMagicInf@@UAE@XZ	; CMagicInf::~CMagicInf
  00040	f6 c3 01	 test	 bl, 1
  00043	74 09		 je	 SHORT $LN1@vector@2
  00045	56		 push	 esi
  00046	e8 00 00 00 00	 call	 ??3@YAXPAX@Z		; operator delete
  0004b	83 c4 04	 add	 esp, 4
$LN1@vector@2:
  0004e	8b c6		 mov	 eax, esi
  00050	5e		 pop	 esi
  00051	5b		 pop	 ebx
  00052	5d		 pop	 ebp
  00053	c2 04 00	 ret	 4
??_ECMagicInf@@UAEPAXI@Z ENDP				; CMagicInf::`vector deleting destructor'
_TEXT	ENDS
PUBLIC	?gObjClearViewportOfMine@@YAXPAUOBJECTSTRUCT@@@Z ; gObjClearViewportOfMine
; Function compile flags: /Ogtp
;	COMDAT ?gObjClearViewportOfMine@@YAXPAUOBJECTSTRUCT@@@Z
_TEXT	SEGMENT
_lpObj$ = 8						; size = 4
?gObjClearViewportOfMine@@YAXPAUOBJECTSTRUCT@@@Z PROC	; gObjClearViewportOfMine, COMDAT

; 942  : {

  00000	55		 push	 ebp
  00001	8b ec		 mov	 ebp, esp
  00003	56		 push	 esi

; 943  : 	for (int i=0;i<MAX_VIEWPORT;i++)

  00004	8b 75 08	 mov	 esi, DWORD PTR _lpObj$[ebp]
  00007	57		 push	 edi
  00008	8d 86 2a 05 00
	00		 lea	 eax, DWORD PTR [esi+1322]
  0000e	b9 4b 00 00 00	 mov	 ecx, 75			; 0000004bH
  00013	33 d2		 xor	 edx, edx
$LL3@gObjClearV:

; 944  : 	{
; 945  : 		lpObj->VpPlayer[i].state =0;
; 946  : 		lpObj->VpPlayer[i].number =-1;

  00015	83 cf ff	 or	 edi, -1
  00018	88 50 fe	 mov	 BYTE PTR [eax-2], dl
  0001b	66 89 38	 mov	 WORD PTR [eax], di
  0001e	83 c0 0c	 add	 eax, 12			; 0000000cH
  00021	49		 dec	 ecx
  00022	75 f1		 jne	 SHORT $LL3@gObjClearV

; 947  : 	}
; 948  : 
; 949  : 	lpObj->VPCount=0;

  00024	5f		 pop	 edi
  00025	89 96 30 0c 00
	00		 mov	 DWORD PTR [esi+3120], edx
  0002b	5e		 pop	 esi

; 950  : }

  0002c	5d		 pop	 ebp
  0002d	c3		 ret	 0
?gObjClearViewportOfMine@@YAXPAUOBJECTSTRUCT@@@Z ENDP	; gObjClearViewportOfMine
_TEXT	ENDS
PUBLIC	?gObjClearViewport@@YAXPAUOBJECTSTRUCT@@@Z	; gObjClearViewport
; Function compile flags: /Ogtp
;	COMDAT ?gObjClearViewport@@YAXPAUOBJECTSTRUCT@@@Z
_TEXT	SEGMENT
_lpObj$ = 8						; size = 4
?gObjClearViewport@@YAXPAUOBJECTSTRUCT@@@Z PROC		; gObjClearViewport, COMDAT

; 953  : {

  00000	55		 push	 ebp
  00001	8b ec		 mov	 ebp, esp
  00003	56		 push	 esi

; 954  : 	for ( int i=0;i<MAX_VIEWPORT;i++)

  00004	8b 75 08	 mov	 esi, DWORD PTR _lpObj$[ebp]
  00007	57		 push	 edi
  00008	8d 86 2a 05 00
	00		 lea	 eax, DWORD PTR [esi+1322]
  0000e	ba 4b 00 00 00	 mov	 edx, 75			; 0000004bH
  00013	33 c9		 xor	 ecx, ecx
$LL3@gObjClearV@2:

; 955  : 	{
; 956  : 		lpObj->VpPlayer[i].state=0;
; 957  : 		lpObj->VpPlayer[i].number =-1;

  00015	83 cf ff	 or	 edi, -1
  00018	66 89 38	 mov	 WORD PTR [eax], di

; 958  : 		lpObj->VpPlayer2[i].state=0;
; 959  : 		lpObj->VpPlayer2[i].number=-1;

  0001b	0b ff		 or	 edi, edi
  0001d	88 48 fe	 mov	 BYTE PTR [eax-2], cl
  00020	88 88 82 03 00
	00		 mov	 BYTE PTR [eax+898], cl
  00026	66 89 b8 84 03
	00 00		 mov	 WORD PTR [eax+900], di
  0002d	83 c0 0c	 add	 eax, 12			; 0000000cH
  00030	4a		 dec	 edx
  00031	75 e2		 jne	 SHORT $LL3@gObjClearV@2

; 960  : 	}
; 961  : 
; 962  : 	lpObj->VPCount = 0;

  00033	5f		 pop	 edi
  00034	89 8e 30 0c 00
	00		 mov	 DWORD PTR [esi+3120], ecx

; 963  : 	lpObj->VPCount2 = 0;

  0003a	89 8e 34 0c 00
	00		 mov	 DWORD PTR [esi+3124], ecx
  00040	5e		 pop	 esi

; 964  : }

  00041	5d		 pop	 ebp
  00042	c3		 ret	 0
?gObjClearViewport@@YAXPAUOBJECTSTRUCT@@@Z ENDP		; gObjClearViewport
_TEXT	ENDS
PUBLIC	?gObjCharTradeClear@@YAXPAUOBJECTSTRUCT@@@Z	; gObjCharTradeClear
EXTRN	?Clear@CItem@@QAEXXZ:PROC			; CItem::Clear
; Function compile flags: /Ogtp
;	COMDAT ?gObjCharTradeClear@@YAXPAUOBJECTSTRUCT@@@Z
_TEXT	SEGMENT
_lpObj$ = 8						; size = 4
?gObjCharTradeClear@@YAXPAUOBJECTSTRUCT@@@Z PROC	; gObjCharTradeClear, COMDAT

; 1052 : {

  00000	55		 push	 ebp
  00001	8b ec		 mov	 ebp, esp
  00003	57		 push	 edi

; 1053 : 	if ( lpObj->Type != OBJ_USER )

  00004	8b 7d 08	 mov	 edi, DWORD PTR _lpObj$[ebp]
  00007	66 83 7f 68 01	 cmp	 WORD PTR [edi+104], 1
  0000c	75 50		 jne	 SHORT $LN5@gObjCharTr

; 1054 : 	{
; 1055 : 		return;
; 1056 : 	}
; 1057 : 
; 1058 : 	memset(lpObj->TradeMap, 0xFF , TRADE_BOX_SIZE);

  0000e	8b 8f 50 0e 00
	00		 mov	 ecx, DWORD PTR [edi+3664]
  00014	83 c8 ff	 or	 eax, -1
  00017	89 01		 mov	 DWORD PTR [ecx], eax
  00019	89 41 04	 mov	 DWORD PTR [ecx+4], eax
  0001c	89 41 08	 mov	 DWORD PTR [ecx+8], eax
  0001f	89 41 0c	 mov	 DWORD PTR [ecx+12], eax
  00022	89 41 10	 mov	 DWORD PTR [ecx+16], eax
  00025	89 41 14	 mov	 DWORD PTR [ecx+20], eax
  00028	56		 push	 esi
  00029	89 41 18	 mov	 DWORD PTR [ecx+24], eax
  0002c	89 41 1c	 mov	 DWORD PTR [ecx+28], eax
  0002f	33 f6		 xor	 esi, esi
$LL3@gObjCharTr:

; 1059 : 
; 1060 : 	for ( int i=0 ; i< TRADE_BOX_SIZE ; i++)
; 1061 : 	{
; 1062 : 		lpObj->Trade[i].Clear();

  00031	8b 8f 4c 0e 00
	00		 mov	 ecx, DWORD PTR [edi+3660]
  00037	03 ce		 add	 ecx, esi
  00039	e8 00 00 00 00	 call	 ?Clear@CItem@@QAEXXZ	; CItem::Clear
  0003e	81 c6 d4 00 00
	00		 add	 esi, 212		; 000000d4H
  00044	81 fe 80 1a 00
	00		 cmp	 esi, 6784		; 00001a80H
  0004a	7c e5		 jl	 SHORT $LL3@gObjCharTr

; 1063 : 	}
; 1064 : 
; 1065 : 	lpObj->TradeMoney = 0;

  0004c	c7 87 54 0e 00
	00 00 00 00 00	 mov	 DWORD PTR [edi+3668], 0

; 1066 : 	lpObj->TradeOk = false;

  00056	c6 87 58 0e 00
	00 00		 mov	 BYTE PTR [edi+3672], 0
  0005d	5e		 pop	 esi
$LN5@gObjCharTr:
  0005e	5f		 pop	 edi

; 1067 : }

  0005f	5d		 pop	 ebp
  00060	c3		 ret	 0
?gObjCharTradeClear@@YAXPAUOBJECTSTRUCT@@@Z ENDP	; gObjCharTradeClear
_TEXT	ENDS
PUBLIC	?gObjGetSocket@@YAHI@Z				; gObjGetSocket
; Function compile flags: /Ogtp
;	COMDAT ?gObjGetSocket@@YAHI@Z
_TEXT	SEGMENT
_socket$ = 8						; size = 4
?gObjGetSocket@@YAHI@Z PROC				; gObjGetSocket, COMDAT

; 1762 : {

  00000	55		 push	 ebp
  00001	8b ec		 mov	 ebp, esp

; 1763 : 	for (int n=OBJ_STARTUSERINDZT;n<OBJMAX;n++)

  00003	8b 0d 00 00 00
	00		 mov	 ecx, DWORD PTR ?gObj@@3PAUOBJECTSTRUCT@@A ; gObj
  00009	8b 55 08	 mov	 edx, DWORD PTR _socket$[ebp]
  0000c	b8 b0 36 00 00	 mov	 eax, 14000		; 000036b0H
  00011	81 c1 14 a7 40
	09		 add	 ecx, 155232020		; 0940a714H
$LL5@gObjGetSoc:

; 1764 : 	{
; 1765 : 		if (gObj[n].Connected != PLAYER_EMPTY)

  00017	83 79 f0 00	 cmp	 DWORD PTR [ecx-16], 0
  0001b	74 04		 je	 SHORT $LN4@gObjGetSoc

; 1766 : 		{
; 1767 : 			if (gObj[n].m_socket == socket)

  0001d	39 11		 cmp	 DWORD PTR [ecx], edx
  0001f	74 11		 je	 SHORT $LN6@gObjGetSoc
$LN4@gObjGetSoc:

; 1763 : 	for (int n=OBJ_STARTUSERINDZT;n<OBJMAX;n++)

  00021	40		 inc	 eax
  00022	81 c1 50 2b 00
	00		 add	 ecx, 11088		; 00002b50H
  00028	3d 98 3a 00 00	 cmp	 eax, 15000		; 00003a98H
  0002d	7c e8		 jl	 SHORT $LL5@gObjGetSoc

; 1768 : 			{
; 1769 : 				return n;
; 1770 : 			}
; 1771 : 		}
; 1772 : 	}
; 1773 : 	return -1;

  0002f	83 c8 ff	 or	 eax, -1
$LN6@gObjGetSoc:

; 1774 : }

  00032	5d		 pop	 ebp
  00033	c3		 ret	 0
?gObjGetSocket@@YAHI@Z ENDP				; gObjGetSocket
_TEXT	ENDS
PUBLIC	?IsOnDuel@@YA_NHH@Z				; IsOnDuel
EXTRN	?g_DuelManager@@3VCDuelManager@@A:BYTE		; g_DuelManager
; Function compile flags: /Ogtp
;	COMDAT ?IsOnDuel@@YA_NHH@Z
_TEXT	SEGMENT
_aIndex1$ = 8						; size = 4
_aIndex2$ = 12						; size = 4
?IsOnDuel@@YA_NHH@Z PROC				; IsOnDuel, COMDAT

; 1827 : {

  00000	55		 push	 ebp
  00001	8b ec		 mov	 ebp, esp

; 1828 : 	bool CheckDuel = g_DuelManager.IsOnDuel(aIndex1,aIndex2);

  00003	8b 45 0c	 mov	 eax, DWORD PTR _aIndex2$[ebp]
  00006	8b 4d 08	 mov	 ecx, DWORD PTR _aIndex1$[ebp]
  00009	50		 push	 eax
  0000a	51		 push	 ecx
  0000b	b9 00 00 00 00	 mov	 ecx, OFFSET ?g_DuelManager@@3VCDuelManager@@A ; g_DuelManager
  00010	e8 00 00 00 00	 call	 ?IsOnDuel@CDuelManager@@QAE_NHH@Z ; CDuelManager::IsOnDuel

; 1829 : 	return CheckDuel;
; 1830 : 	/*
; 1831 : 	if ( OBJMAX_RANGE(aIndex1) == FALSE || OBJMAX_RANGE(aIndex2) == FALSE )
; 1832 : 	{
; 1833 : 		return false;
; 1834 : 	}
; 1835 : 
; 1836 : 	if ( gObj[aIndex1].Type != OBJ_USER || gObj[aIndex2].Type != OBJ_USER )
; 1837 : 	{
; 1838 : 		return false;
; 1839 : 	}
; 1840 : 
; 1841 : 	if ( gObj[aIndex1].m_iDuelUser == aIndex2 && gObj[aIndex2].m_iDuelUser == aIndex1 )
; 1842 : 	{
; 1843 : 		return true;
; 1844 : 	}
; 1845 : 
; 1846 : 	return false;
; 1847 : 	*/
; 1848 : }

  00015	5d		 pop	 ebp
  00016	c3		 ret	 0
?IsOnDuel@@YA_NHH@Z ENDP				; IsOnDuel
_TEXT	ENDS
PUBLIC	??_C@_0CA@HDKCFMCD@error?9L3?5?3?5map?5number?5not?5?$CFs?5?$CFd?$AA@ ; `string'
PUBLIC	??_C@_08DCNFOMBO@user?4cpp?$AA@			; `string'
PUBLIC	?GetMapMoveLevel@@YAHPAUOBJECTSTRUCT@@HH@Z	; GetMapMoveLevel
EXTRN	?MapMinUserLevel@@3PAHA:BYTE			; MapMinUserLevel
;	COMDAT ??_C@_0CA@HDKCFMCD@error?9L3?5?3?5map?5number?5not?5?$CFs?5?$CFd?$AA@
CONST	SEGMENT
??_C@_0CA@HDKCFMCD@error?9L3?5?3?5map?5number?5not?5?$CFs?5?$CFd?$AA@ DB 'e'
	DB	'rror-L3 : map number not %s %d', 00H	; `string'
CONST	ENDS
;	COMDAT ??_C@_08DCNFOMBO@user?4cpp?$AA@
CONST	SEGMENT
??_C@_08DCNFOMBO@user?4cpp?$AA@ DB 'user.cpp', 00H	; `string'
; Function compile flags: /Ogtp
CONST	ENDS
;	COMDAT ?GetMapMoveLevel@@YAHPAUOBJECTSTRUCT@@HH@Z
_TEXT	SEGMENT
_lpObj$ = 8						; size = 4
_mapnumber$ = 12					; size = 4
_max_over$ = 16						; size = 4
?GetMapMoveLevel@@YAHPAUOBJECTSTRUCT@@HH@Z PROC		; GetMapMoveLevel, COMDAT

; 1851 : {

  00000	55		 push	 ebp
  00001	8b ec		 mov	 ebp, esp

; 1852 : 	int overLevel = 0;
; 1853 : 
; 1854 : 	if ( mapnumber > MAX_NUMBER_MAP-1 )

  00003	8b 45 0c	 mov	 eax, DWORD PTR _mapnumber$[ebp]
  00006	83 f8 52	 cmp	 eax, 82			; 00000052H
  00009	7e 1c		 jle	 SHORT $LN6@GetMapMove

; 1855 : 	{
; 1856 : 		mapnumber = 0;
; 1857 : 		LogAdd("error-L3 : map number not %s %d", __FILE__, __LINE__);

  0000b	68 41 07 00 00	 push	 1857			; 00000741H
  00010	68 00 00 00 00	 push	 OFFSET ??_C@_08DCNFOMBO@user?4cpp?$AA@
  00015	68 00 00 00 00	 push	 OFFSET ??_C@_0CA@HDKCFMCD@error?9L3?5?3?5map?5number?5not?5?$CFs?5?$CFd?$AA@
  0001a	ff 15 00 00 00
	00		 call	 DWORD PTR ?LogAdd@@3P6AXPADZZA ; LogAdd
  00020	83 c4 0c	 add	 esp, 12			; 0000000cH

; 1858 : 		return 0;

  00023	33 c0		 xor	 eax, eax

; 1880 : 		}
; 1881 : 	}
; 1882 : 
; 1883 : 	return overLevel;
; 1884 : }

  00025	5d		 pop	 ebp
  00026	c3		 ret	 0
$LN6@GetMapMove:

; 1859 : 	}
; 1860 : 
; 1861 : 	if ( max_over != 0 )

  00027	8b 4d 10	 mov	 ecx, DWORD PTR _max_over$[ebp]
  0002a	85 c9		 test	 ecx, ecx

; 1862 : 	{
; 1863 : 		overLevel = max_over;
; 1864 : 	}
; 1865 : 	else

  0002c	75 07		 jne	 SHORT $LN9@GetMapMove

; 1866 : 	{
; 1867 : 		max_over = MapMinUserLevel[mapnumber];

  0002e	8b 0c 85 00 00
	00 00		 mov	 ecx, DWORD PTR ?MapMinUserLevel@@3PAHA[eax*4]
$LN9@GetMapMove:

; 1868 : 		overLevel = MapMinUserLevel[mapnumber];
; 1869 : 	}
; 1870 : 	
; 1871 : 	if ( lpObj->Class == CLASS_DARKLORD 
; 1872 : #ifdef MONK
; 1873 : 		|| lpObj->Class == CLASS_MONK
; 1874 : #endif
; 1875 : 		|| lpObj->Class == CLASS_MAGUMSA )

  00035	8b 55 08	 mov	 edx, DWORD PTR _lpObj$[ebp]
  00038	0f b7 92 b8 00
	00 00		 movzx	 edx, WORD PTR [edx+184]
  0003f	8b c1		 mov	 eax, ecx
  00041	83 fa 04	 cmp	 edx, 4
  00044	74 0a		 je	 SHORT $LN2@GetMapMove
  00046	83 fa 06	 cmp	 edx, 6
  00049	74 05		 je	 SHORT $LN2@GetMapMove
  0004b	83 fa 03	 cmp	 edx, 3
  0004e	75 18		 jne	 SHORT $LN7@GetMapMove
$LN2@GetMapMove:

; 1876 : 	{
; 1877 : 		if ( overLevel > 0 && max_over > 0 )

  00050	85 c0		 test	 eax, eax
  00052	7e 14		 jle	 SHORT $LN7@GetMapMove
  00054	85 c9		 test	 ecx, ecx
  00056	7e 10		 jle	 SHORT $LN7@GetMapMove

; 1878 : 		{
; 1879 : 			overLevel = (max_over/3)*2;

  00058	b8 56 55 55 55	 mov	 eax, 1431655766		; 55555556H
  0005d	f7 e9		 imul	 ecx
  0005f	8b c2		 mov	 eax, edx
  00061	c1 e8 1f	 shr	 eax, 31			; 0000001fH
  00064	03 c2		 add	 eax, edx
  00066	03 c0		 add	 eax, eax
$LN7@GetMapMove:

; 1880 : 		}
; 1881 : 	}
; 1882 : 
; 1883 : 	return overLevel;
; 1884 : }

  00068	5d		 pop	 ebp
  00069	c3		 ret	 0
?GetMapMoveLevel@@YAHPAUOBJECTSTRUCT@@HH@Z ENDP		; GetMapMoveLevel
_TEXT	ENDS
PUBLIC	??0TMonsterSkillElementInfo@@QAE@XZ		; TMonsterSkillElementInfo::TMonsterSkillElementInfo
EXTRN	?Reset@TMonsterSkillElementInfo@@QAEXXZ:PROC	; TMonsterSkillElementInfo::Reset
; Function compile flags: /Ogtp
;	COMDAT ??0TMonsterSkillElementInfo@@QAE@XZ
_TEXT	SEGMENT
??0TMonsterSkillElementInfo@@QAE@XZ PROC		; TMonsterSkillElementInfo::TMonsterSkillElementInfo, COMDAT
; _this$ = ecx

; 2258 : {

  00000	56		 push	 esi
  00001	8b f1		 mov	 esi, ecx

; 2259 : 	this->Reset();

  00003	e8 00 00 00 00	 call	 ?Reset@TMonsterSkillElementInfo@@QAEXXZ ; TMonsterSkillElementInfo::Reset

; 2260 : }

  00008	8b c6		 mov	 eax, esi
  0000a	5e		 pop	 esi
  0000b	c3		 ret	 0
??0TMonsterSkillElementInfo@@QAE@XZ ENDP		; TMonsterSkillElementInfo::TMonsterSkillElementInfo
_TEXT	ENDS
PUBLIC	?Init@BILL_CLASS@@QAEXXZ			; BILL_CLASS::Init
; Function compile flags: /Ogtp
;	COMDAT ?Init@BILL_CLASS@@QAEXXZ
_TEXT	SEGMENT
?Init@BILL_CLASS@@QAEXXZ PROC				; BILL_CLASS::Init, COMDAT
; _this$ = ecx

; 2269 : 	this->cCertifyType=-1;
; 2270 : 	this->PayCode=0;

  00000	33 c0		 xor	 eax, eax
  00002	66 c7 01 ff 00	 mov	 WORD PTR [ecx], 255	; 000000ffH

; 2271 : 	this->EndTime=0;

  00007	89 41 04	 mov	 DWORD PTR [ecx+4], eax

; 2272 : 	this->EndsDays[0]=0;

  0000a	88 41 08	 mov	 BYTE PTR [ecx+8], al

; 2273 : }

  0000d	c3		 ret	 0
?Init@BILL_CLASS@@QAEXXZ ENDP				; BILL_CLASS::Init
_TEXT	ENDS
PUBLIC	__real@3fb999999999999a
PUBLIC	__real@3fc3333333333333
PUBLIC	__real@3fd0000000000000
PUBLIC	__real@3fd3333333333333
PUBLIC	__real@3fc999999999999a
PUBLIC	__real@3fd999999999999a
PUBLIC	?gObjSetBP@@YAXH@Z				; gObjSetBP
EXTRN	__ftol2_sse:PROC
;	COMDAT __real@3fb999999999999a
CONST	SEGMENT
__real@3fb999999999999a DQ 03fb999999999999ar	; 0.1
CONST	ENDS
;	COMDAT __real@3fc3333333333333
CONST	SEGMENT
__real@3fc3333333333333 DQ 03fc3333333333333r	; 0.15
CONST	ENDS
;	COMDAT __real@3fd0000000000000
CONST	SEGMENT
__real@3fd0000000000000 DQ 03fd0000000000000r	; 0.25
CONST	ENDS
;	COMDAT __real@3fd3333333333333
CONST	SEGMENT
__real@3fd3333333333333 DQ 03fd3333333333333r	; 0.3
CONST	ENDS
;	COMDAT __real@3fc999999999999a
CONST	SEGMENT
__real@3fc999999999999a DQ 03fc999999999999ar	; 0.2
CONST	ENDS
;	COMDAT __real@3fd999999999999a
CONST	SEGMENT
__real@3fd999999999999a DQ 03fd999999999999ar	; 0.4
; Function compile flags: /Ogtp
CONST	ENDS
;	COMDAT ?gObjSetBP@@YAXH@Z
_TEXT	SEGMENT
_Leadership$ = -16					; size = 4
_Energy$ = -12						; size = 4
_Vitality$ = -8						; size = 4
_Strength$ = -4						; size = 4
_Dexterity$ = 8						; size = 4
_aIndex$ = 8						; size = 4
?gObjSetBP@@YAXH@Z PROC					; gObjSetBP, COMDAT

; 2276 : {

  00000	55		 push	 ebp
  00001	8b ec		 mov	 ebp, esp
  00003	83 ec 10	 sub	 esp, 16			; 00000010H
  00006	56		 push	 esi

; 2277 : 	int Strength = gObj[aIndex].Strength + gObj[aIndex].AddStrength;

  00007	8b 75 08	 mov	 esi, DWORD PTR _aIndex$[ebp]
  0000a	69 f6 50 2b 00
	00		 imul	 esi, 11088		; 00002b50H
  00010	03 35 00 00 00
	00		 add	 esi, DWORD PTR ?gObj@@3PAUOBJECTSTRUCT@@A ; gObj
  00016	0f b7 86 f4 00
	00 00		 movzx	 eax, WORD PTR [esi+244]
  0001d	0f bf 96 20 01
	00 00		 movsx	 edx, WORD PTR [esi+288]

; 2278 : 	int Dexterity = gObj[aIndex].Dexterity + gObj[aIndex].AddDexterity;

  00024	0f bf 8e 22 01
	00 00		 movsx	 ecx, WORD PTR [esi+290]
  0002b	03 d0		 add	 edx, eax

; 2279 : 	int Vitality = gObj[aIndex].Vitality + gObj[aIndex].AddVitality;

  0002d	0f bf 86 24 01
	00 00		 movsx	 eax, WORD PTR [esi+292]
  00034	89 55 fc	 mov	 DWORD PTR _Strength$[ebp], edx
  00037	0f b7 96 f6 00
	00 00		 movzx	 edx, WORD PTR [esi+246]
  0003e	03 ca		 add	 ecx, edx

; 2280 : 	int Energy = gObj[aIndex].Energy + gObj[aIndex].AddEnergy;

  00040	0f bf 96 26 01
	00 00		 movsx	 edx, WORD PTR [esi+294]
  00047	89 4d 08	 mov	 DWORD PTR _Dexterity$[ebp], ecx
  0004a	0f b7 8e f8 00
	00 00		 movzx	 ecx, WORD PTR [esi+248]
  00051	03 c1		 add	 eax, ecx

; 2281 : 	int Leadership = gObj[aIndex].Leadership + gObj[aIndex].AddLeadership;

  00053	0f b7 8e 1a 01
	00 00		 movzx	 ecx, WORD PTR [esi+282]
  0005a	89 45 f8	 mov	 DWORD PTR _Vitality$[ebp], eax
  0005d	0f b7 86 fa 00
	00 00		 movzx	 eax, WORD PTR [esi+250]
  00064	03 d0		 add	 edx, eax

; 2282 : 
; 2283 : 	switch ( gObj[aIndex].Class )

  00066	0f b7 86 b8 00
	00 00		 movzx	 eax, WORD PTR [esi+184]
  0006d	89 55 f4	 mov	 DWORD PTR _Energy$[ebp], edx
  00070	0f b7 96 18 01
	00 00		 movzx	 edx, WORD PTR [esi+280]
  00077	03 ca		 add	 ecx, edx
  00079	89 4d f0	 mov	 DWORD PTR _Leadership$[ebp], ecx
  0007c	83 f8 06	 cmp	 eax, 6
  0007f	0f 87 23 01 00
	00		 ja	 $LN8@gObjSetBP
  00085	ff 24 85 00 00
	00 00		 jmp	 DWORD PTR $LN13@gObjSetBP[eax*4]
$LN7@gObjSetBP:

; 2284 : 	{
; 2285 : 		case CLASS_WIZARD:
; 2286 : 			gObj[aIndex].MaxBP = (int)((Strength * 0.2) + (Dexterity * 0.4) + (Vitality * 0.3) + (Energy * 0.2));

  0008c	db 45 08	 fild	 DWORD PTR _Dexterity$[ebp]
  0008f	dc 0d 00 00 00
	00		 fmul	 QWORD PTR __real@3fd999999999999a
  00095	db 45 fc	 fild	 DWORD PTR _Strength$[ebp]
  00098	dd 05 00 00 00
	00		 fld	 QWORD PTR __real@3fc999999999999a
  0009e	dc c9		 fmul	 ST(1), ST(0)
  000a0	d9 ca		 fxch	 ST(2)
  000a2	de c1		 faddp	 ST(1), ST(0)
  000a4	db 45 f8	 fild	 DWORD PTR _Vitality$[ebp]
  000a7	dc 0d 00 00 00
	00		 fmul	 QWORD PTR __real@3fd3333333333333
  000ad	de c1		 faddp	 ST(1), ST(0)
  000af	db 45 f4	 fild	 DWORD PTR _Energy$[ebp]
  000b2	de ca		 fmulp	 ST(2), ST(0)
  000b4	de c1		 faddp	 ST(1), ST(0)

; 2303 : 			break;
; 2304 : 
; 2305 : 		case CLASS_SUMMONER:
; 2306 : 			gObj[aIndex].MaxBP = (int)((Strength * 0.2) + (Dexterity * 0.25) + (Vitality * 0.3) + (Energy * 0.15));
; 2307 : 			break;
; 2308 : #ifdef MONK
; 2309 : 		case CLASS_MONK:
; 2310 : 			{
; 2311 : 				gObj[aIndex].MaxBP = (Strength * 0.15) + (Dexterity * 0.2) + (Vitality * 0.3) + (Energy * 1.0);

  000b6	e8 00 00 00 00	 call	 __ftol2_sse
  000bb	89 86 2c 01 00
	00		 mov	 DWORD PTR [esi+300], eax
  000c1	5e		 pop	 esi

; 2312 : 			}
; 2313 : 			break;
; 2314 : #endif
; 2315 : 	}
; 2316 : }

  000c2	8b e5		 mov	 esp, ebp
  000c4	5d		 pop	 ebp
  000c5	c3		 ret	 0
$LN5@gObjSetBP:

; 2287 : 			break;
; 2288 : 
; 2289 : 		case CLASS_KNIGHT:
; 2290 : 			gObj[aIndex].MaxBP = (int)((Strength * 0.15) + (Dexterity * 0.2) + (Vitality * 0.3) + (Energy * 1.0));
; 2291 : 			break;
; 2292 : 
; 2293 : 		case CLASS_ELF:
; 2294 : 			gObj[aIndex].MaxBP = (int)((Strength * 0.3) + (Dexterity * 0.2) + (Vitality * 0.3) + (Energy * 0.2));

  000c6	db 45 08	 fild	 DWORD PTR _Dexterity$[ebp]
  000c9	dd 05 00 00 00
	00		 fld	 QWORD PTR __real@3fc999999999999a
  000cf	dc c9		 fmul	 ST(1), ST(0)
  000d1	db 45 fc	 fild	 DWORD PTR _Strength$[ebp]
  000d4	dd 05 00 00 00
	00		 fld	 QWORD PTR __real@3fd3333333333333
  000da	dc c9		 fmul	 ST(1), ST(0)
  000dc	d9 cb		 fxch	 ST(3)
  000de	de c1		 faddp	 ST(1), ST(0)
  000e0	db 45 f8	 fild	 DWORD PTR _Vitality$[ebp]
  000e3	de cb		 fmulp	 ST(3), ST(0)
  000e5	de c2		 faddp	 ST(2), ST(0)
  000e7	da 4d f4	 fimul	 DWORD PTR _Energy$[ebp]
  000ea	de c1		 faddp	 ST(1), ST(0)

; 2303 : 			break;
; 2304 : 
; 2305 : 		case CLASS_SUMMONER:
; 2306 : 			gObj[aIndex].MaxBP = (int)((Strength * 0.2) + (Dexterity * 0.25) + (Vitality * 0.3) + (Energy * 0.15));
; 2307 : 			break;
; 2308 : #ifdef MONK
; 2309 : 		case CLASS_MONK:
; 2310 : 			{
; 2311 : 				gObj[aIndex].MaxBP = (Strength * 0.15) + (Dexterity * 0.2) + (Vitality * 0.3) + (Energy * 1.0);

  000ec	e8 00 00 00 00	 call	 __ftol2_sse
  000f1	89 86 2c 01 00
	00		 mov	 DWORD PTR [esi+300], eax
  000f7	5e		 pop	 esi

; 2312 : 			}
; 2313 : 			break;
; 2314 : #endif
; 2315 : 	}
; 2316 : }

  000f8	8b e5		 mov	 esp, ebp
  000fa	5d		 pop	 ebp
  000fb	c3		 ret	 0
$LN4@gObjSetBP:

; 2295 : 			break;
; 2296 : 
; 2297 : 		case CLASS_MAGUMSA:
; 2298 : 			gObj[aIndex].MaxBP = (int)((Strength * 0.2) + (Dexterity * 0.25) + (Vitality * 0.3) + (Energy * 0.15));

  000fc	db 45 fc	 fild	 DWORD PTR _Strength$[ebp]
  000ff	dc 0d 00 00 00
	00		 fmul	 QWORD PTR __real@3fc999999999999a
  00105	db 45 08	 fild	 DWORD PTR _Dexterity$[ebp]
  00108	dc 0d 00 00 00
	00		 fmul	 QWORD PTR __real@3fd0000000000000
  0010e	de c1		 faddp	 ST(1), ST(0)
  00110	db 45 f8	 fild	 DWORD PTR _Vitality$[ebp]
  00113	dc 0d 00 00 00
	00		 fmul	 QWORD PTR __real@3fd3333333333333
  00119	de c1		 faddp	 ST(1), ST(0)
  0011b	db 45 f4	 fild	 DWORD PTR _Energy$[ebp]
  0011e	dc 0d 00 00 00
	00		 fmul	 QWORD PTR __real@3fc3333333333333
  00124	de c1		 faddp	 ST(1), ST(0)

; 2303 : 			break;
; 2304 : 
; 2305 : 		case CLASS_SUMMONER:
; 2306 : 			gObj[aIndex].MaxBP = (int)((Strength * 0.2) + (Dexterity * 0.25) + (Vitality * 0.3) + (Energy * 0.15));
; 2307 : 			break;
; 2308 : #ifdef MONK
; 2309 : 		case CLASS_MONK:
; 2310 : 			{
; 2311 : 				gObj[aIndex].MaxBP = (Strength * 0.15) + (Dexterity * 0.2) + (Vitality * 0.3) + (Energy * 1.0);

  00126	e8 00 00 00 00	 call	 __ftol2_sse
  0012b	89 86 2c 01 00
	00		 mov	 DWORD PTR [esi+300], eax
  00131	5e		 pop	 esi

; 2312 : 			}
; 2313 : 			break;
; 2314 : #endif
; 2315 : 	}
; 2316 : }

  00132	8b e5		 mov	 esp, ebp
  00134	5d		 pop	 ebp
  00135	c3		 ret	 0
$LN3@gObjSetBP:

; 2299 : 			break;
; 2300 : 
; 2301 : 		case CLASS_DARKLORD:
; 2302 : 			gObj[aIndex].MaxBP = (int)((Strength * 0.3) + (Dexterity * 0.2) + (Vitality * 0.1) + (Energy * 0.15) + (Leadership * 0.3));

  00136	db 45 08	 fild	 DWORD PTR _Dexterity$[ebp]
  00139	dc 0d 00 00 00
	00		 fmul	 QWORD PTR __real@3fc999999999999a
  0013f	db 45 fc	 fild	 DWORD PTR _Strength$[ebp]
  00142	dd 05 00 00 00
	00		 fld	 QWORD PTR __real@3fd3333333333333
  00148	dc c9		 fmul	 ST(1), ST(0)
  0014a	d9 ca		 fxch	 ST(2)
  0014c	de c1		 faddp	 ST(1), ST(0)
  0014e	db 45 f8	 fild	 DWORD PTR _Vitality$[ebp]
  00151	dc 0d 00 00 00
	00		 fmul	 QWORD PTR __real@3fb999999999999a
  00157	de c1		 faddp	 ST(1), ST(0)
  00159	db 45 f4	 fild	 DWORD PTR _Energy$[ebp]
  0015c	dc 0d 00 00 00
	00		 fmul	 QWORD PTR __real@3fc3333333333333
  00162	de c1		 faddp	 ST(1), ST(0)
  00164	db 45 f0	 fild	 DWORD PTR _Leadership$[ebp]
  00167	de ca		 fmulp	 ST(2), ST(0)
  00169	de c1		 faddp	 ST(1), ST(0)

; 2303 : 			break;
; 2304 : 
; 2305 : 		case CLASS_SUMMONER:
; 2306 : 			gObj[aIndex].MaxBP = (int)((Strength * 0.2) + (Dexterity * 0.25) + (Vitality * 0.3) + (Energy * 0.15));
; 2307 : 			break;
; 2308 : #ifdef MONK
; 2309 : 		case CLASS_MONK:
; 2310 : 			{
; 2311 : 				gObj[aIndex].MaxBP = (Strength * 0.15) + (Dexterity * 0.2) + (Vitality * 0.3) + (Energy * 1.0);

  0016b	e8 00 00 00 00	 call	 __ftol2_sse
  00170	89 86 2c 01 00
	00		 mov	 DWORD PTR [esi+300], eax
  00176	5e		 pop	 esi

; 2312 : 			}
; 2313 : 			break;
; 2314 : #endif
; 2315 : 	}
; 2316 : }

  00177	8b e5		 mov	 esp, ebp
  00179	5d		 pop	 ebp
  0017a	c3		 ret	 0
$LN1@gObjSetBP:

; 2303 : 			break;
; 2304 : 
; 2305 : 		case CLASS_SUMMONER:
; 2306 : 			gObj[aIndex].MaxBP = (int)((Strength * 0.2) + (Dexterity * 0.25) + (Vitality * 0.3) + (Energy * 0.15));
; 2307 : 			break;
; 2308 : #ifdef MONK
; 2309 : 		case CLASS_MONK:
; 2310 : 			{
; 2311 : 				gObj[aIndex].MaxBP = (Strength * 0.15) + (Dexterity * 0.2) + (Vitality * 0.3) + (Energy * 1.0);

  0017b	db 45 08	 fild	 DWORD PTR _Dexterity$[ebp]
  0017e	dc 0d 00 00 00
	00		 fmul	 QWORD PTR __real@3fc999999999999a
  00184	db 45 fc	 fild	 DWORD PTR _Strength$[ebp]
  00187	dc 0d 00 00 00
	00		 fmul	 QWORD PTR __real@3fc3333333333333
  0018d	de c1		 faddp	 ST(1), ST(0)
  0018f	db 45 f8	 fild	 DWORD PTR _Vitality$[ebp]
  00192	dc 0d 00 00 00
	00		 fmul	 QWORD PTR __real@3fd3333333333333
  00198	de c1		 faddp	 ST(1), ST(0)
  0019a	da 45 f4	 fiadd	 DWORD PTR _Energy$[ebp]
  0019d	e8 00 00 00 00	 call	 __ftol2_sse
  001a2	89 86 2c 01 00
	00		 mov	 DWORD PTR [esi+300], eax
$LN8@gObjSetBP:
  001a8	5e		 pop	 esi

; 2312 : 			}
; 2313 : 			break;
; 2314 : #endif
; 2315 : 	}
; 2316 : }

  001a9	8b e5		 mov	 esp, ebp
  001ab	5d		 pop	 ebp
  001ac	c3		 ret	 0
  001ad	8d 49 00	 npad	 3
$LN13@gObjSetBP:
  001b0	00 00 00 00	 DD	 $LN7@gObjSetBP
  001b4	00 00 00 00	 DD	 $LN1@gObjSetBP
  001b8	00 00 00 00	 DD	 $LN5@gObjSetBP
  001bc	00 00 00 00	 DD	 $LN4@gObjSetBP
  001c0	00 00 00 00	 DD	 $LN3@gObjSetBP
  001c4	00 00 00 00	 DD	 $LN4@gObjSetBP
  001c8	00 00 00 00	 DD	 $LN1@gObjSetBP
?gObjSetBP@@YAXH@Z ENDP					; gObjSetBP
_TEXT	ENDS
PUBLIC	?data@CStringData@ATL@@QAEPAXXZ			; ATL::CStringData::data
; Function compile flags: /Ogtp
; File d:\program files (x86)\microsoft visual studio 10.0\vc\atlmfc\include\atlsimpstr.h
;	COMDAT ?data@CStringData@ATL@@QAEPAXXZ
_TEXT	SEGMENT
?data@CStringData@ATL@@QAEPAXXZ PROC			; ATL::CStringData::data, COMDAT
; _this$ = ecx

; 85   : 		return (this+1);

  00000	8d 41 10	 lea	 eax, DWORD PTR [ecx+16]

; 86   : 	}

  00003	c3		 ret	 0
?data@CStringData@ATL@@QAEPAXXZ ENDP			; ATL::CStringData::data
_TEXT	ENDS
PUBLIC	?IsShared@CStringData@ATL@@QBE_NXZ		; ATL::CStringData::IsShared
; Function compile flags: /Ogtp
;	COMDAT ?IsShared@CStringData@ATL@@QBE_NXZ
_TEXT	SEGMENT
?IsShared@CStringData@ATL@@QBE_NXZ PROC			; ATL::CStringData::IsShared, COMDAT
; _this$ = ecx

; 99   : 		return( nRefs > 1 );

  00000	33 c0		 xor	 eax, eax
  00002	83 79 0c 01	 cmp	 DWORD PTR [ecx+12], 1
  00006	0f 9f c0	 setg	 al

; 100  : 	}

  00009	c3		 ret	 0
?IsShared@CStringData@ATL@@QBE_NXZ ENDP			; ATL::CStringData::IsShared
_TEXT	ENDS
PUBLIC	?Release@CStringData@ATL@@QAEXXZ		; ATL::CStringData::Release
; Function compile flags: /Ogtp
;	COMDAT ?Release@CStringData@ATL@@QAEXXZ
_TEXT	SEGMENT
?Release@CStringData@ATL@@QAEXXZ PROC			; ATL::CStringData::Release, COMDAT
; _this$ = ecx

; 112  : 		ATLASSERT( nRefs != 0 );
; 113  : 
; 114  : 		if( _AtlInterlockedDecrement( &nRefs ) <= 0 )

  00000	8d 41 0c	 lea	 eax, DWORD PTR [ecx+12]
  00003	83 ca ff	 or	 edx, -1
  00006	f0 0f c1 10	 lock	  xadd	 DWORD PTR [eax], edx
  0000a	4a		 dec	 edx
  0000b	85 d2		 test	 edx, edx
  0000d	7f 0c		 jg	 SHORT $LN1@Release

; 115  : 		{
; 116  : 			pStringMgr->Free( this );

  0000f	8b 01		 mov	 eax, DWORD PTR [ecx]
  00011	8b 10		 mov	 edx, DWORD PTR [eax]
  00013	51		 push	 ecx
  00014	8b c8		 mov	 ecx, eax
  00016	8b 42 04	 mov	 eax, DWORD PTR [edx+4]
  00019	ff d0		 call	 eax
$LN1@Release:

; 117  : 		}
; 118  : 	}

  0001b	c3		 ret	 0
?Release@CStringData@ATL@@QAEXXZ ENDP			; ATL::CStringData::Release
_TEXT	ENDS
PUBLIC	?gObjCanItemTouch@@YAHPAUOBJECTSTRUCT@@H@Z	; gObjCanItemTouch
; Function compile flags: /Ogtp
; File e:\work\tranet_version\gs\gameserver\user.cpp
;	COMDAT ?gObjCanItemTouch@@YAHPAUOBJECTSTRUCT@@H@Z
_TEXT	SEGMENT
_lpObj$ = 8						; size = 4
_type$ = 12						; size = 4
?gObjCanItemTouch@@YAHPAUOBJECTSTRUCT@@H@Z PROC		; gObjCanItemTouch, COMDAT

; 3887 : {

  00000	55		 push	 ebp
  00001	8b ec		 mov	 ebp, esp

; 3888 : 	if ( (lpObj->Penalty &4) == 4 )

  00003	8b 45 08	 mov	 eax, DWORD PTR _lpObj$[ebp]
  00006	8b 80 10 02 00
	00		 mov	 eax, DWORD PTR [eax+528]
  0000c	a8 04		 test	 al, 4
  0000e	74 04		 je	 SHORT $LN4@gObjCanIte
$LN7@gObjCanIte:

; 3889 : 	{
; 3890 : 		return false;

  00010	33 c0		 xor	 eax, eax

; 3902 : }

  00012	5d		 pop	 ebp
  00013	c3		 ret	 0
$LN4@gObjCanIte:

; 3891 : 	}
; 3892 : 
; 3893 : 	if ( (lpObj->Penalty &8) == 8 )

  00014	a8 08		 test	 al, 8
  00016	74 0d		 je	 SHORT $LN3@gObjCanIte

; 3894 : 	{
; 3895 : 		if ( type == 6 || type == 8 )

  00018	8b 45 0c	 mov	 eax, DWORD PTR _type$[ebp]
  0001b	83 f8 06	 cmp	 eax, 6
  0001e	74 05		 je	 SHORT $LN3@gObjCanIte
  00020	83 f8 08	 cmp	 eax, 8

; 3896 : 		{
; 3897 : 			return true;
; 3898 : 		}
; 3899 : 		return false;

  00023	75 eb		 jne	 SHORT $LN7@gObjCanIte
$LN3@gObjCanIte:

; 3900 : 	}
; 3901 : 	return true;

  00025	b8 01 00 00 00	 mov	 eax, 1

; 3902 : }

  0002a	5d		 pop	 ebp
  0002b	c3		 ret	 0
?gObjCanItemTouch@@YAHPAUOBJECTSTRUCT@@H@Z ENDP		; gObjCanItemTouch
_TEXT	ENDS
PUBLIC	?gObjMagicTextSave@@YAXPAUOBJECTSTRUCT@@@Z	; gObjMagicTextSave
EXTRN	?LogAddTD@@3P6AXPADZZA:DWORD			; LogAddTD
EXTRN	?Get@CMsg@@QAEPADH@Z:PROC			; CMsg::Get
EXTRN	?lMsg@@3VCMsg@@A:BYTE				; lMsg
EXTRN	?IsMagic@CMagicInf@@QAEHXZ:PROC			; CMagicInf::IsMagic
; Function compile flags: /Ogtp
;	COMDAT ?gObjMagicTextSave@@YAXPAUOBJECTSTRUCT@@@Z
_TEXT	SEGMENT
_lpObj$ = 8						; size = 4
?gObjMagicTextSave@@YAXPAUOBJECTSTRUCT@@@Z PROC		; gObjMagicTextSave, COMDAT

; 3905 : {

  00000	55		 push	 ebp
  00001	8b ec		 mov	 ebp, esp
  00003	53		 push	 ebx
  00004	56		 push	 esi
  00005	57		 push	 edi

; 3906 : 	int total=0;
; 3907 : 
; 3908 : 	for ( int n=0;n<MAGIC_SIZE;n++)

  00006	8b 7d 08	 mov	 edi, DWORD PTR _lpObj$[ebp]
  00009	33 db		 xor	 ebx, ebx
  0000b	33 f6		 xor	 esi, esi
  0000d	8d 49 00	 npad	 3
$LL4@gObjMagicT:

; 3909 : 	{
; 3910 : 		if ( lpObj->Magic[n].IsMagic() == TRUE )

  00010	8b 8f c8 04 00
	00		 mov	 ecx, DWORD PTR [edi+1224]
  00016	03 ce		 add	 ecx, esi
  00018	e8 00 00 00 00	 call	 ?IsMagic@CMagicInf@@QAEHXZ ; CMagicInf::IsMagic
  0001d	83 f8 01	 cmp	 eax, 1
  00020	75 2d		 jne	 SHORT $LN3@gObjMagicT

; 3911 : 		{
; 3912 : 			LogAddTD(lMsg.Get(MSGGET(1, 247)), lpObj->AccountID, lpObj->Name, n, lpObj->Magic[n].m_Skill);

  00022	8b 87 c8 04 00
	00		 mov	 eax, DWORD PTR [edi+1224]
  00028	8b 4c 30 08	 mov	 ecx, DWORD PTR [eax+esi+8]
  0002c	51		 push	 ecx
  0002d	53		 push	 ebx
  0002e	8d 57 77	 lea	 edx, DWORD PTR [edi+119]
  00031	52		 push	 edx
  00032	8d 47 6c	 lea	 eax, DWORD PTR [edi+108]
  00035	50		 push	 eax
  00036	68 f7 01 00 00	 push	 503			; 000001f7H
  0003b	b9 00 00 00 00	 mov	 ecx, OFFSET ?lMsg@@3VCMsg@@A ; lMsg
  00040	e8 00 00 00 00	 call	 ?Get@CMsg@@QAEPADH@Z	; CMsg::Get
  00045	50		 push	 eax
  00046	ff 15 00 00 00
	00		 call	 DWORD PTR ?LogAddTD@@3P6AXPADZZA ; LogAddTD
  0004c	83 c4 14	 add	 esp, 20			; 00000014H
$LN3@gObjMagicT:

; 3906 : 	int total=0;
; 3907 : 
; 3908 : 	for ( int n=0;n<MAGIC_SIZE;n++)

  0004f	83 c6 18	 add	 esi, 24			; 00000018H
  00052	43		 inc	 ebx
  00053	81 fe 10 0e 00
	00		 cmp	 esi, 3600		; 00000e10H
  00059	7c b5		 jl	 SHORT $LL4@gObjMagicT
  0005b	5f		 pop	 edi
  0005c	5e		 pop	 esi
  0005d	5b		 pop	 ebx

; 3913 : 			total++;
; 3914 : 		}
; 3915 : 	}
; 3916 : }

  0005e	5d		 pop	 ebp
  0005f	c3		 ret	 0
?gObjMagicTextSave@@YAXPAUOBJECTSTRUCT@@@Z ENDP		; gObjMagicTextSave
_TEXT	ENDS
PUBLIC	?ItemIsBufExOption@@YAXPAEPAVCItem@@@Z		; ItemIsBufExOption
; Function compile flags: /Ogtp
;	COMDAT ?ItemIsBufExOption@@YAXPAEPAVCItem@@@Z
_TEXT	SEGMENT
_buf$ = 8						; size = 4
_lpItem$ = 12						; size = 4
?ItemIsBufExOption@@YAXPAEPAVCItem@@@Z PROC		; ItemIsBufExOption, COMDAT

; 3919 : {

  00000	55		 push	 ebp
  00001	8b ec		 mov	 ebp, esp

; 3920 : 	for ( int i=0;i<MAX_EXOPTION_SIZE;i++ )
; 3921 : 	{
; 3922 : 		buf[i] = 0;

  00003	8b 45 08	 mov	 eax, DWORD PTR _buf$[ebp]
  00006	33 c9		 xor	 ecx, ecx
  00008	89 08		 mov	 DWORD PTR [eax], ecx
  0000a	89 48 04	 mov	 DWORD PTR [eax+4], ecx

; 3923 : 	}
; 3924 : 
; 3925 : 	//if ( lpItem->IsExtLifeAdd() != FALSE )
; 3926 : 	//{
; 3927 : 	//	buf[0] = TRUE;
; 3928 : 	//}
; 3929 : 
; 3930 : 	//if ( lpItem->IsExtManaAdd() != FALSE )
; 3931 : 	//{
; 3932 : 	//	buf[1] = TRUE;
; 3933 : 	//}
; 3934 : 
; 3935 : 	//if ( lpItem->IsExtDamageMinus() != FALSE )
; 3936 : 	//{
; 3937 : 	//	buf[2] = TRUE;
; 3938 : 	//}
; 3939 : 
; 3940 : 	//if ( lpItem->IsExtDamageReflect() != FALSE )
; 3941 : 	//{
; 3942 : 	//	buf[3] = TRUE;
; 3943 : 	//}
; 3944 : 
; 3945 : 	//if ( lpItem->IsExtDefenseSuccessfull() != FALSE )
; 3946 : 	//{
; 3947 : 	//	buf[4] = TRUE;
; 3948 : 	//}
; 3949 : 
; 3950 : 	//if ( lpItem->IsExtMonsterMoney() != FALSE )
; 3951 : 	//{
; 3952 : 	//	buf[5] = TRUE;
; 3953 : 	//}
; 3954 : 
; 3955 : 
; 3956 : 	if ((lpItem->m_NewOption & 0x20) == 0x20)

  0000d	8b 4d 0c	 mov	 ecx, DWORD PTR _lpItem$[ebp]
  00010	f6 81 97 00 00
	00 20		 test	 BYTE PTR [ecx+151], 32	; 00000020H
  00017	b2 01		 mov	 dl, 1
  00019	74 02		 je	 SHORT $LN6@ItemIsBufE

; 3957 : 	{
; 3958 : 		buf[0] = TRUE;

  0001b	88 10		 mov	 BYTE PTR [eax], dl
$LN6@ItemIsBufE:

; 3959 : 	}
; 3960 : 
; 3961 : 	if ((lpItem->m_NewOption & 0x10) == 0x10)

  0001d	f6 81 97 00 00
	00 10		 test	 BYTE PTR [ecx+151], 16	; 00000010H
  00024	74 03		 je	 SHORT $LN5@ItemIsBufE

; 3962 : 	{
; 3963 : 		buf[1] = TRUE;

  00026	88 50 01	 mov	 BYTE PTR [eax+1], dl
$LN5@ItemIsBufE:

; 3964 : 	}
; 3965 : 
; 3966 : 	if ((lpItem->m_NewOption & 8) == 8)

  00029	f6 81 97 00 00
	00 08		 test	 BYTE PTR [ecx+151], 8
  00030	74 03		 je	 SHORT $LN4@ItemIsBufE

; 3967 : 	{
; 3968 : 		buf[2] = TRUE;

  00032	88 50 02	 mov	 BYTE PTR [eax+2], dl
$LN4@ItemIsBufE:

; 3969 : 	}
; 3970 : 
; 3971 : 	if ((lpItem->m_NewOption & 4) == 4)

  00035	f6 81 97 00 00
	00 04		 test	 BYTE PTR [ecx+151], 4
  0003c	74 03		 je	 SHORT $LN3@ItemIsBufE

; 3972 : 	{
; 3973 : 		buf[3] = TRUE;

  0003e	88 50 03	 mov	 BYTE PTR [eax+3], dl
$LN3@ItemIsBufE:

; 3974 : 	}
; 3975 : 
; 3976 : 	if ((lpItem->m_NewOption & 2) == 2)

  00041	f6 81 97 00 00
	00 02		 test	 BYTE PTR [ecx+151], 2
  00048	74 03		 je	 SHORT $LN2@ItemIsBufE

; 3977 : 	{
; 3978 : 		buf[4] = TRUE;

  0004a	88 50 04	 mov	 BYTE PTR [eax+4], dl
$LN2@ItemIsBufE:

; 3979 : 	}
; 3980 : 
; 3981 : 	if ((lpItem->m_NewOption & 1) == 1)

  0004d	84 91 97 00 00
	00		 test	 BYTE PTR [ecx+151], dl
  00053	74 03		 je	 SHORT $LN1@ItemIsBufE

; 3982 : 	{
; 3983 : 		buf[5] = TRUE;

  00055	88 50 05	 mov	 BYTE PTR [eax+5], dl
$LN1@ItemIsBufE:

; 3984 : 	}
; 3985 : 
; 3986 : }

  00058	5d		 pop	 ebp
  00059	c3		 ret	 0
?ItemIsBufExOption@@YAXPAEPAVCItem@@@Z ENDP		; ItemIsBufExOption
_TEXT	ENDS
PUBLIC	??_C@_0HG@OJODFIFG@?$FL?$CFs?$FN?$FL?$CFs?$FN?5CharInfoSave?5?3?5Class?$DN?$CFd@ ; `string'
PUBLIC	?gObjStatTextSave@@YAXPAUOBJECTSTRUCT@@@Z	; gObjStatTextSave
;	COMDAT ??_C@_0HG@OJODFIFG@?$FL?$CFs?$FN?$FL?$CFs?$FN?5CharInfoSave?5?3?5Class?$DN?$CFd@
CONST	SEGMENT
??_C@_0HG@OJODFIFG@?$FL?$CFs?$FN?$FL?$CFs?$FN?5CharInfoSave?5?3?5Class?$DN?$CFd@ DB '['
	DB	'%s][%s] CharInfoSave : Class=%d Level=%d LVPoint=%d Exp=%u St'
	DB	'r=%d Dex=%d Vit=%d Energy=%d Leadership:%d Map=%d Pk=%d', 00H ; `string'
; Function compile flags: /Ogtp
CONST	ENDS
;	COMDAT ?gObjStatTextSave@@YAXPAUOBJECTSTRUCT@@@Z
_TEXT	SEGMENT
_lpObj$ = 8						; size = 4
?gObjStatTextSave@@YAXPAUOBJECTSTRUCT@@@Z PROC		; gObjStatTextSave, COMDAT

; 3989 : {

  00000	55		 push	 ebp
  00001	8b ec		 mov	 ebp, esp

; 3990 : 	LogAddTD("[%s][%s] CharInfoSave : Class=%d Level=%d LVPoint=%d Exp=%u Str=%d Dex=%d Vit=%d Energy=%d Leadership:%d Map=%d Pk=%d",
; 3991 : 		lpObj->AccountID, lpObj->Name, lpObj->DbClass,lpObj->Level, lpObj->LevelUpPoint, lpObj->Experience, 
; 3992 : 		lpObj->Strength, lpObj->Dexterity, lpObj->Vitality, lpObj->Energy, lpObj->Leadership, lpObj->MapNumber,
; 3993 : 		lpObj->m_PK_Level);

  00003	8b 45 08	 mov	 eax, DWORD PTR _lpObj$[ebp]
  00006	0f be 88 3d 01
	00 00		 movsx	 ecx, BYTE PTR [eax+317]
  0000d	0f b6 90 49 01
	00 00		 movzx	 edx, BYTE PTR [eax+329]
  00014	51		 push	 ecx
  00015	0f b7 88 18 01
	00 00		 movzx	 ecx, WORD PTR [eax+280]
  0001c	52		 push	 edx
  0001d	0f b7 90 fa 00
	00 00		 movzx	 edx, WORD PTR [eax+250]
  00024	51		 push	 ecx
  00025	0f b7 88 f8 00
	00 00		 movzx	 ecx, WORD PTR [eax+248]
  0002c	52		 push	 edx
  0002d	0f b7 90 f6 00
	00 00		 movzx	 edx, WORD PTR [eax+246]
  00034	51		 push	 ecx
  00035	0f b7 88 f4 00
	00 00		 movzx	 ecx, WORD PTR [eax+244]
  0003c	52		 push	 edx
  0003d	8b 90 c8 00 00
	00		 mov	 edx, DWORD PTR [eax+200]
  00043	51		 push	 ecx
  00044	8b 88 c0 00 00
	00		 mov	 ecx, DWORD PTR [eax+192]
  0004a	52		 push	 edx
  0004b	0f bf 90 be 00
	00 00		 movsx	 edx, WORD PTR [eax+190]
  00052	51		 push	 ecx
  00053	0f b6 88 ba 00
	00 00		 movzx	 ecx, BYTE PTR [eax+186]
  0005a	52		 push	 edx
  0005b	51		 push	 ecx
  0005c	8d 50 77	 lea	 edx, DWORD PTR [eax+119]
  0005f	52		 push	 edx
  00060	83 c0 6c	 add	 eax, 108		; 0000006cH
  00063	50		 push	 eax
  00064	68 00 00 00 00	 push	 OFFSET ??_C@_0HG@OJODFIFG@?$FL?$CFs?$FN?$FL?$CFs?$FN?5CharInfoSave?5?3?5Class?$DN?$CFd@
  00069	ff 15 00 00 00
	00		 call	 DWORD PTR ?LogAddTD@@3P6AXPADZZA ; LogAddTD
  0006f	83 c4 38	 add	 esp, 56			; 00000038H

; 3994 : }

  00072	5d		 pop	 ebp
  00073	c3		 ret	 0
?gObjStatTextSave@@YAXPAUOBJECTSTRUCT@@@Z ENDP		; gObjStatTextSave
_TEXT	ENDS
PUBLIC	__$ArrayPad$
PUBLIC	?gObjItemTextSave@@YAXPAUOBJECTSTRUCT@@@Z	; gObjItemTextSave
EXTRN	?GetName@CItem@@QAEPADXZ:PROC			; CItem::GetName
EXTRN	?GetItemStrengthenOption@CJewelOfHarmonySystem@@QAEEPAVCItem@@@Z:PROC ; CJewelOfHarmonySystem::GetItemStrengthenOption
EXTRN	?g_kJewelOfHarmonySystem@@3VCJewelOfHarmonySystem@@A:BYTE ; g_kJewelOfHarmonySystem
EXTRN	?IsItem@CItem@@QAEHXZ:PROC			; CItem::IsItem
; Function compile flags: /Ogtp
;	COMDAT ?gObjItemTextSave@@YAXPAUOBJECTSTRUCT@@@Z
_TEXT	SEGMENT
tv481 = -24						; size = 4
tv479 = -24						; size = 4
_n$ = -20						; size = 4
tv484 = -14						; size = 2
_NewOption$ = -12					; size = 8
__$ArrayPad$ = -4					; size = 4
_lpObj$ = 8						; size = 4
?gObjItemTextSave@@YAXPAUOBJECTSTRUCT@@@Z PROC		; gObjItemTextSave, COMDAT

; 3997 : {

  00000	55		 push	 ebp
  00001	8b ec		 mov	 ebp, esp
  00003	83 ec 18	 sub	 esp, 24			; 00000018H
  00006	a1 00 00 00 00	 mov	 eax, DWORD PTR ___security_cookie
  0000b	33 c5		 xor	 eax, ebp
  0000d	89 45 fc	 mov	 DWORD PTR __$ArrayPad$[ebp], eax
  00010	53		 push	 ebx
  00011	56		 push	 esi

; 3998 : 	BYTE NewOption[MAX_EXOPTION_SIZE];
; 3999 : 	int n;
; 4000 : 
; 4001 : 	for ( n=0;n<INVENTORY_SIZE;n++)

  00012	33 db		 xor	 ebx, ebx
  00014	57		 push	 edi
  00015	8b 7d 08	 mov	 edi, DWORD PTR _lpObj$[ebp]
  00018	89 5d ec	 mov	 DWORD PTR _n$[ebp], ebx
  0001b	eb 03 8d 49 00	 npad	 5
$LL4@gObjItemTe:

; 4002 : 	{
; 4003 : 		if ( lpObj->pInventory[n].IsItem() == TRUE )

  00020	8b 8f 24 0e 00
	00		 mov	 ecx, DWORD PTR [edi+3620]
  00026	03 cb		 add	 ecx, ebx
  00028	e8 00 00 00 00	 call	 ?IsItem@CItem@@QAEHXZ	; CItem::IsItem
  0002d	83 f8 01	 cmp	 eax, 1
  00030	0f 85 06 01 00
	00		 jne	 $LN3@gObjItemTe

; 4004 : 		{
; 4005 : 			//if ( lpObj->pInventory[n].m_serial != 0 ) //Season 2.5 removed
; 4006 : 			{
; 4007 : 				ItemIsBufExOption(NewOption, &lpObj->pInventory[n]);

  00036	8b 87 24 0e 00
	00		 mov	 eax, DWORD PTR [edi+3620]
  0003c	03 c3		 add	 eax, ebx
  0003e	50		 push	 eax
  0003f	8d 4d f4	 lea	 ecx, DWORD PTR _NewOption$[ebp]
  00042	51		 push	 ecx
  00043	e8 00 00 00 00	 call	 ?ItemIsBufExOption@@YAXPAEPAVCItem@@@Z ; ItemIsBufExOption

; 4008 : 				LogAddTD(lMsg.Get(MSGGET(1, 248)), lpObj->AccountID, lpObj->Name, n, lpObj->pInventory[n].GetName(),
; 4009 : 					lpObj->pInventory[n].m_Level, lpObj->pInventory[n].m_Option1,
; 4010 : 					lpObj->pInventory[n].m_Option2, lpObj->pInventory[n].m_Option3,
; 4011 : 					lpObj->pInventory[n].m_Number, (BYTE)lpObj->pInventory[n].m_Durability,
; 4012 : 					NewOption[0], NewOption[1], NewOption[2], NewOption[3], NewOption[4], NewOption[5], NewOption[6],
; 4013 : 					lpObj->pInventory[n].m_SetOption,lpObj->pInventory[n].m_ItemOptionEx >> 7,
; 4014 : 					g_kJewelOfHarmonySystem.GetItemStrengthenOption(&lpObj->pInventory[n]),
; 4015 : 					//season4 add-on
; 4016 : 					lpObj->pInventory[n].m_SocketOption[0], lpObj->pInventory[n].m_SocketOption[1],
; 4017 : 					lpObj->pInventory[n].m_SocketOption[2], lpObj->pInventory[n].m_SocketOption[3],
; 4018 : 					lpObj->pInventory[n].m_SocketOption[4], lpObj->pInventory[n].m_SocketOptionIndex);

  00048	8b 97 24 0e 00
	00		 mov	 edx, DWORD PTR [edi+3620]
  0004e	0f b6 8c 13 d0
	00 00 00	 movzx	 ecx, BYTE PTR [ebx+edx+208]
  00056	8d 04 13	 lea	 eax, DWORD PTR [ebx+edx]
  00059	83 c4 08	 add	 esp, 8
  0005c	8d 34 13	 lea	 esi, DWORD PTR [ebx+edx]
  0005f	0f b6 90 cb 00
	00 00		 movzx	 edx, BYTE PTR [eax+203]
  00066	52		 push	 edx
  00067	0f b6 90 cf 00
	00 00		 movzx	 edx, BYTE PTR [eax+207]
  0006e	51		 push	 ecx
  0006f	0f b6 88 ce 00
	00 00		 movzx	 ecx, BYTE PTR [eax+206]
  00076	52		 push	 edx
  00077	0f b6 90 cd 00
	00 00		 movzx	 edx, BYTE PTR [eax+205]
  0007e	51		 push	 ecx
  0007f	0f b6 88 cc 00
	00 00		 movzx	 ecx, BYTE PTR [eax+204]
  00086	52		 push	 edx
  00087	51		 push	 ecx
  00088	50		 push	 eax
  00089	b9 00 00 00 00	 mov	 ecx, OFFSET ?g_kJewelOfHarmonySystem@@3VCJewelOfHarmonySystem@@A ; g_kJewelOfHarmonySystem
  0008e	e8 00 00 00 00	 call	 ?GetItemStrengthenOption@CJewelOfHarmonySystem@@QAEEPAVCItem@@@Z ; CJewelOfHarmonySystem::GetItemStrengthenOption
  00093	0f b6 8e ae 00
	00 00		 movzx	 ecx, BYTE PTR [esi+174]
  0009a	d9 46 24	 fld	 DWORD PTR [esi+36]
  0009d	0f b6 d0	 movzx	 edx, al
  000a0	d9 7d f2	 fnstcw	 WORD PTR tv484[ebp]
  000a3	0f b6 86 ca 00
	00 00		 movzx	 eax, BYTE PTR [esi+202]
  000aa	52		 push	 edx
  000ab	0f b6 55 fa	 movzx	 edx, BYTE PTR _NewOption$[ebp+6]
  000af	c1 e8 07	 shr	 eax, 7
  000b2	50		 push	 eax
  000b3	0f b6 45 f9	 movzx	 eax, BYTE PTR _NewOption$[ebp+5]
  000b7	51		 push	 ecx
  000b8	0f b6 4d f8	 movzx	 ecx, BYTE PTR _NewOption$[ebp+4]
  000bc	52		 push	 edx
  000bd	0f b6 55 f7	 movzx	 edx, BYTE PTR _NewOption$[ebp+3]
  000c1	50		 push	 eax
  000c2	0f b6 45 f6	 movzx	 eax, BYTE PTR _NewOption$[ebp+2]
  000c6	51		 push	 ecx
  000c7	0f b6 4d f5	 movzx	 ecx, BYTE PTR _NewOption$[ebp+1]
  000cb	52		 push	 edx
  000cc	0f b6 55 f4	 movzx	 edx, BYTE PTR _NewOption$[ebp]
  000d0	50		 push	 eax
  000d1	0f b7 45 f2	 movzx	 eax, WORD PTR tv484[ebp]
  000d5	0d 00 0c 00 00	 or	 eax, 3072		; 00000c00H
  000da	89 45 e8	 mov	 DWORD PTR tv481[ebp], eax
  000dd	51		 push	 ecx
  000de	52		 push	 edx
  000df	d9 6d e8	 fldcw	 WORD PTR tv481[ebp]
  000e2	8b 16		 mov	 edx, DWORD PTR [esi]
  000e4	db 5d e8	 fistp	 DWORD PTR tv479[ebp]
  000e7	8a 45 e8	 mov	 al, BYTE PTR tv479[ebp]
  000ea	0f b6 c8	 movzx	 ecx, al
  000ed	0f b6 86 96 00
	00 00		 movzx	 eax, BYTE PTR [esi+150]
  000f4	d9 6d f2	 fldcw	 WORD PTR tv484[ebp]
  000f7	51		 push	 ecx
  000f8	0f b6 8e 95 00
	00 00		 movzx	 ecx, BYTE PTR [esi+149]
  000ff	52		 push	 edx
  00100	0f b6 96 94 00
	00 00		 movzx	 edx, BYTE PTR [esi+148]
  00107	50		 push	 eax
  00108	0f bf 46 08	 movsx	 eax, WORD PTR [esi+8]
  0010c	51		 push	 ecx
  0010d	52		 push	 edx
  0010e	50		 push	 eax
  0010f	8b ce		 mov	 ecx, esi
  00111	e8 00 00 00 00	 call	 ?GetName@CItem@@QAEPADXZ ; CItem::GetName
  00116	8b 4d ec	 mov	 ecx, DWORD PTR _n$[ebp]
  00119	50		 push	 eax
  0011a	51		 push	 ecx
  0011b	8d 57 77	 lea	 edx, DWORD PTR [edi+119]
  0011e	52		 push	 edx
  0011f	8d 47 6c	 lea	 eax, DWORD PTR [edi+108]
  00122	50		 push	 eax
  00123	68 f8 01 00 00	 push	 504			; 000001f8H
  00128	b9 00 00 00 00	 mov	 ecx, OFFSET ?lMsg@@3VCMsg@@A ; lMsg
  0012d	e8 00 00 00 00	 call	 ?Get@CMsg@@QAEPADH@Z	; CMsg::Get
  00132	50		 push	 eax
  00133	ff 15 00 00 00
	00		 call	 DWORD PTR ?LogAddTD@@3P6AXPADZZA ; LogAddTD
  00139	83 c4 6c	 add	 esp, 108		; 0000006cH
$LN3@gObjItemTe:

; 3998 : 	BYTE NewOption[MAX_EXOPTION_SIZE];
; 3999 : 	int n;
; 4000 : 
; 4001 : 	for ( n=0;n<INVENTORY_SIZE;n++)

  0013c	ff 45 ec	 inc	 DWORD PTR _n$[ebp]
  0013f	81 c3 d4 00 00
	00		 add	 ebx, 212		; 000000d4H
  00145	81 fb 70 c3 00
	00		 cmp	 ebx, 50032		; 0000c370H
  0014b	0f 8c cf fe ff
	ff		 jl	 $LL4@gObjItemTe

; 4019 : 			}
; 4020 : 		}
; 4021 : 	}
; 4022 : 
; 4023 : 	LogAddTD(lMsg.Get(MSGGET(1, 249)), lpObj->AccountID, lpObj->Name, lpObj->Money);

  00151	8b 8f f0 00 00
	00		 mov	 ecx, DWORD PTR [edi+240]
  00157	51		 push	 ecx
  00158	8d 57 77	 lea	 edx, DWORD PTR [edi+119]
  0015b	52		 push	 edx
  0015c	83 c7 6c	 add	 edi, 108		; 0000006cH
  0015f	57		 push	 edi
  00160	68 f9 01 00 00	 push	 505			; 000001f9H
  00165	b9 00 00 00 00	 mov	 ecx, OFFSET ?lMsg@@3VCMsg@@A ; lMsg
  0016a	e8 00 00 00 00	 call	 ?Get@CMsg@@QAEPADH@Z	; CMsg::Get
  0016f	50		 push	 eax
  00170	ff 15 00 00 00
	00		 call	 DWORD PTR ?LogAddTD@@3P6AXPADZZA ; LogAddTD

; 4024 : }

  00176	8b 4d fc	 mov	 ecx, DWORD PTR __$ArrayPad$[ebp]
  00179	83 c4 10	 add	 esp, 16			; 00000010H
  0017c	5f		 pop	 edi
  0017d	5e		 pop	 esi
  0017e	33 cd		 xor	 ecx, ebp
  00180	5b		 pop	 ebx
  00181	e8 00 00 00 00	 call	 @__security_check_cookie@4
  00186	8b e5		 mov	 esp, ebp
  00188	5d		 pop	 ebp
  00189	c3		 ret	 0
?gObjItemTextSave@@YAXPAUOBJECTSTRUCT@@@Z ENDP		; gObjItemTextSave
_TEXT	ENDS
PUBLIC	__$ArrayPad$
PUBLIC	?gObjWarehouseTextSave@@YAXPAUOBJECTSTRUCT@@@Z	; gObjWarehouseTextSave
EXTRN	?GetItemOptionLevel@CJewelOfHarmonySystem@@QAEEPAVCItem@@@Z:PROC ; CJewelOfHarmonySystem::GetItemOptionLevel
; Function compile flags: /Ogtp
;	COMDAT ?gObjWarehouseTextSave@@YAXPAUOBJECTSTRUCT@@@Z
_TEXT	SEGMENT
tv478 = -24						; size = 4
tv476 = -24						; size = 4
_n$ = -20						; size = 4
tv481 = -14						; size = 2
_NewOption$ = -12					; size = 8
__$ArrayPad$ = -4					; size = 4
_lpObj$ = 8						; size = 4
?gObjWarehouseTextSave@@YAXPAUOBJECTSTRUCT@@@Z PROC	; gObjWarehouseTextSave, COMDAT

; 4027 : {

  00000	55		 push	 ebp
  00001	8b ec		 mov	 ebp, esp
  00003	83 ec 18	 sub	 esp, 24			; 00000018H
  00006	a1 00 00 00 00	 mov	 eax, DWORD PTR ___security_cookie
  0000b	33 c5		 xor	 eax, ebp
  0000d	89 45 fc	 mov	 DWORD PTR __$ArrayPad$[ebp], eax
  00010	53		 push	 ebx
  00011	56		 push	 esi

; 4028 : 	BYTE NewOption[MAX_EXOPTION_SIZE];
; 4029 : 	int n;
; 4030 : 
; 4031 : 	for ( n=0;n<WAREHOUSE_SIZE;n++)

  00012	33 db		 xor	 ebx, ebx
  00014	57		 push	 edi
  00015	8b 7d 08	 mov	 edi, DWORD PTR _lpObj$[ebp]
  00018	89 5d ec	 mov	 DWORD PTR _n$[ebp], ebx
  0001b	eb 03 8d 49 00	 npad	 5
$LL4@gObjWareho:

; 4032 : 	{
; 4033 : 		if ( lpObj->pWarehouse[n].IsItem() == TRUE )

  00020	8b 8f 5c 0e 00
	00		 mov	 ecx, DWORD PTR [edi+3676]
  00026	03 cb		 add	 ecx, ebx
  00028	e8 00 00 00 00	 call	 ?IsItem@CItem@@QAEHXZ	; CItem::IsItem
  0002d	83 f8 01	 cmp	 eax, 1
  00030	0f 85 1d 01 00
	00		 jne	 $LN3@gObjWareho

; 4034 : 		{
; 4035 : 			//if ( lpObj->pWarehouse[n].m_serial != 0 ) //Season 2.5 removed
; 4036 : 			{
; 4037 : 				ItemIsBufExOption(NewOption, &lpObj->pWarehouse[n]);

  00036	8b 87 5c 0e 00
	00		 mov	 eax, DWORD PTR [edi+3676]
  0003c	03 c3		 add	 eax, ebx
  0003e	50		 push	 eax
  0003f	8d 4d f4	 lea	 ecx, DWORD PTR _NewOption$[ebp]
  00042	51		 push	 ecx
  00043	e8 00 00 00 00	 call	 ?ItemIsBufExOption@@YAXPAEPAVCItem@@@Z ; ItemIsBufExOption

; 4038 : 				LogAddTD(lMsg.Get(MSGGET(1, 250)), lpObj->AccountID, lpObj->Name, n, lpObj->pWarehouse[n].GetName(),
; 4039 : 					lpObj->pWarehouse[n].m_Level, lpObj->pWarehouse[n].m_Option1,
; 4040 : 					lpObj->pWarehouse[n].m_Option2, lpObj->pWarehouse[n].m_Option3,
; 4041 : 					lpObj->pWarehouse[n].m_Number, (BYTE)lpObj->pWarehouse[n].m_Durability,
; 4042 : 					NewOption[0], NewOption[1], NewOption[2], NewOption[3], NewOption[4], NewOption[5], NewOption[6],
; 4043 : 					lpObj->pWarehouse[n].m_SetOption, lpObj->pWarehouse[n].m_ItemOptionEx>>7,
; 4044 : 					g_kJewelOfHarmonySystem.GetItemStrengthenOption(&lpObj->pWarehouse[n]),
; 4045 : 					g_kJewelOfHarmonySystem.GetItemOptionLevel(&lpObj->pWarehouse[n]),
; 4046 : 					//season4 add-on
; 4047 : 					lpObj->pWarehouse[n].m_SocketOption[0], lpObj->pWarehouse[n].m_SocketOption[1],
; 4048 : 					lpObj->pWarehouse[n].m_SocketOption[2], lpObj->pWarehouse[n].m_SocketOption[3],
; 4049 : 					lpObj->pWarehouse[n].m_SocketOption[4], lpObj->pWarehouse[n].m_SocketOptionIndex);

  00048	8b 97 5c 0e 00
	00		 mov	 edx, DWORD PTR [edi+3676]
  0004e	0f b6 8c 13 d0
	00 00 00	 movzx	 ecx, BYTE PTR [ebx+edx+208]
  00056	8d 04 13	 lea	 eax, DWORD PTR [ebx+edx]
  00059	83 c4 08	 add	 esp, 8
  0005c	8d 34 13	 lea	 esi, DWORD PTR [ebx+edx]
  0005f	0f b6 90 cb 00
	00 00		 movzx	 edx, BYTE PTR [eax+203]
  00066	52		 push	 edx
  00067	0f b6 90 cf 00
	00 00		 movzx	 edx, BYTE PTR [eax+207]
  0006e	51		 push	 ecx
  0006f	0f b6 88 ce 00
	00 00		 movzx	 ecx, BYTE PTR [eax+206]
  00076	52		 push	 edx
  00077	0f b6 90 cd 00
	00 00		 movzx	 edx, BYTE PTR [eax+205]
  0007e	51		 push	 ecx
  0007f	0f b6 88 cc 00
	00 00		 movzx	 ecx, BYTE PTR [eax+204]
  00086	52		 push	 edx
  00087	51		 push	 ecx
  00088	50		 push	 eax
  00089	b9 00 00 00 00	 mov	 ecx, OFFSET ?g_kJewelOfHarmonySystem@@3VCJewelOfHarmonySystem@@A ; g_kJewelOfHarmonySystem
  0008e	e8 00 00 00 00	 call	 ?GetItemOptionLevel@CJewelOfHarmonySystem@@QAEEPAVCItem@@@Z ; CJewelOfHarmonySystem::GetItemOptionLevel
  00093	0f b6 d0	 movzx	 edx, al
  00096	8b 87 5c 0e 00
	00		 mov	 eax, DWORD PTR [edi+3676]
  0009c	52		 push	 edx
  0009d	03 c3		 add	 eax, ebx
  0009f	50		 push	 eax
  000a0	b9 00 00 00 00	 mov	 ecx, OFFSET ?g_kJewelOfHarmonySystem@@3VCJewelOfHarmonySystem@@A ; g_kJewelOfHarmonySystem
  000a5	e8 00 00 00 00	 call	 ?GetItemStrengthenOption@CJewelOfHarmonySystem@@QAEEPAVCItem@@@Z ; CJewelOfHarmonySystem::GetItemStrengthenOption
  000aa	0f b6 96 ca 00
	00 00		 movzx	 edx, BYTE PTR [esi+202]
  000b1	d9 46 24	 fld	 DWORD PTR [esi+36]
  000b4	0f b6 c8	 movzx	 ecx, al
  000b7	d9 7d f2	 fnstcw	 WORD PTR tv481[ebp]
  000ba	0f b6 86 ae 00
	00 00		 movzx	 eax, BYTE PTR [esi+174]
  000c1	51		 push	 ecx
  000c2	0f b6 4d fa	 movzx	 ecx, BYTE PTR _NewOption$[ebp+6]
  000c6	c1 ea 07	 shr	 edx, 7
  000c9	52		 push	 edx
  000ca	0f b6 55 f9	 movzx	 edx, BYTE PTR _NewOption$[ebp+5]
  000ce	50		 push	 eax
  000cf	0f b6 45 f8	 movzx	 eax, BYTE PTR _NewOption$[ebp+4]
  000d3	51		 push	 ecx
  000d4	0f b6 4d f7	 movzx	 ecx, BYTE PTR _NewOption$[ebp+3]
  000d8	52		 push	 edx
  000d9	0f b6 55 f6	 movzx	 edx, BYTE PTR _NewOption$[ebp+2]
  000dd	50		 push	 eax
  000de	0f b6 45 f5	 movzx	 eax, BYTE PTR _NewOption$[ebp+1]
  000e2	51		 push	 ecx
  000e3	0f b6 4d f4	 movzx	 ecx, BYTE PTR _NewOption$[ebp]
  000e7	52		 push	 edx
  000e8	50		 push	 eax
  000e9	0f b7 45 f2	 movzx	 eax, WORD PTR tv481[ebp]
  000ed	0d 00 0c 00 00	 or	 eax, 3072		; 00000c00H
  000f2	89 45 e8	 mov	 DWORD PTR tv478[ebp], eax
  000f5	51		 push	 ecx
  000f6	8b 0e		 mov	 ecx, DWORD PTR [esi]
  000f8	d9 6d e8	 fldcw	 WORD PTR tv478[ebp]
  000fb	db 5d e8	 fistp	 DWORD PTR tv476[ebp]
  000fe	8a 55 e8	 mov	 dl, BYTE PTR tv476[ebp]
  00101	0f b6 c2	 movzx	 eax, dl
  00104	0f b6 96 96 00
	00 00		 movzx	 edx, BYTE PTR [esi+150]
  0010b	d9 6d f2	 fldcw	 WORD PTR tv481[ebp]
  0010e	50		 push	 eax
  0010f	0f b6 86 95 00
	00 00		 movzx	 eax, BYTE PTR [esi+149]
  00116	51		 push	 ecx
  00117	0f b6 8e 94 00
	00 00		 movzx	 ecx, BYTE PTR [esi+148]
  0011e	52		 push	 edx
  0011f	0f bf 56 08	 movsx	 edx, WORD PTR [esi+8]
  00123	50		 push	 eax
  00124	51		 push	 ecx
  00125	52		 push	 edx
  00126	8b ce		 mov	 ecx, esi
  00128	e8 00 00 00 00	 call	 ?GetName@CItem@@QAEPADXZ ; CItem::GetName
  0012d	50		 push	 eax
  0012e	8b 45 ec	 mov	 eax, DWORD PTR _n$[ebp]
  00131	50		 push	 eax
  00132	8d 4f 77	 lea	 ecx, DWORD PTR [edi+119]
  00135	51		 push	 ecx
  00136	8d 57 6c	 lea	 edx, DWORD PTR [edi+108]
  00139	52		 push	 edx
  0013a	68 fa 01 00 00	 push	 506			; 000001faH
  0013f	b9 00 00 00 00	 mov	 ecx, OFFSET ?lMsg@@3VCMsg@@A ; lMsg
  00144	e8 00 00 00 00	 call	 ?Get@CMsg@@QAEPADH@Z	; CMsg::Get
  00149	50		 push	 eax
  0014a	ff 15 00 00 00
	00		 call	 DWORD PTR ?LogAddTD@@3P6AXPADZZA ; LogAddTD
  00150	83 c4 70	 add	 esp, 112		; 00000070H
$LN3@gObjWareho:

; 4028 : 	BYTE NewOption[MAX_EXOPTION_SIZE];
; 4029 : 	int n;
; 4030 : 
; 4031 : 	for ( n=0;n<WAREHOUSE_SIZE;n++)

  00153	ff 45 ec	 inc	 DWORD PTR _n$[ebp]
  00156	81 c3 d4 00 00
	00		 add	 ebx, 212		; 000000d4H
  0015c	81 fb c0 c6 00
	00		 cmp	 ebx, 50880		; 0000c6c0H
  00162	0f 8c b8 fe ff
	ff		 jl	 $LL4@gObjWareho

; 4050 : 			}
; 4051 : 		}
; 4052 : 	}
; 4053 : 
; 4054 : 	LogAddTD(lMsg.Get(MSGGET(1, 251)), lpObj->AccountID, lpObj->Name, lpObj->WarehouseMoney);

  00168	8b 87 6c 0e 00
	00		 mov	 eax, DWORD PTR [edi+3692]
  0016e	50		 push	 eax
  0016f	8d 4f 77	 lea	 ecx, DWORD PTR [edi+119]
  00172	51		 push	 ecx
  00173	83 c7 6c	 add	 edi, 108		; 0000006cH
  00176	57		 push	 edi
  00177	68 fb 01 00 00	 push	 507			; 000001fbH
  0017c	b9 00 00 00 00	 mov	 ecx, OFFSET ?lMsg@@3VCMsg@@A ; lMsg
  00181	e8 00 00 00 00	 call	 ?Get@CMsg@@QAEPADH@Z	; CMsg::Get
  00186	50		 push	 eax
  00187	ff 15 00 00 00
	00		 call	 DWORD PTR ?LogAddTD@@3P6AXPADZZA ; LogAddTD

; 4055 : }

  0018d	8b 4d fc	 mov	 ecx, DWORD PTR __$ArrayPad$[ebp]
  00190	83 c4 10	 add	 esp, 16			; 00000010H
  00193	5f		 pop	 edi
  00194	5e		 pop	 esi
  00195	33 cd		 xor	 ecx, ebp
  00197	5b		 pop	 ebx
  00198	e8 00 00 00 00	 call	 @__security_check_cookie@4
  0019d	8b e5		 mov	 esp, ebp
  0019f	5d		 pop	 ebp
  001a0	c3		 ret	 0
?gObjWarehouseTextSave@@YAXPAUOBJECTSTRUCT@@@Z ENDP	; gObjWarehouseTextSave
_TEXT	ENDS
PUBLIC	?gObjAuthorityCodeSet@@YAXPAUOBJECTSTRUCT@@@Z	; gObjAuthorityCodeSet
; Function compile flags: /Ogtp
;	COMDAT ?gObjAuthorityCodeSet@@YAXPAUOBJECTSTRUCT@@@Z
_TEXT	SEGMENT
_lpObj$ = 8						; size = 4
?gObjAuthorityCodeSet@@YAXPAUOBJECTSTRUCT@@@Z PROC	; gObjAuthorityCodeSet, COMDAT

; 4059 : 	/*if ( (lpObj->Authority&1) == 1 )
; 4060 : 	{
; 4061 : 		return;
; 4062 : 	}
; 4063 : 
; 4064 : 	if ( (lpObj->Authority&2)== 2 )
; 4065 : 	{
; 4066 : 		lpObj->AuthorityCode = -1;
; 4067 : 		return;
; 4068 : 	}
; 4069 : 
; 4070 : 	if ( (lpObj->Authority&4) == 4 )
; 4071 : 	{
; 4072 : 		return;
; 4073 : 	}
; 4074 : 
; 4075 : 	if ( (lpObj->Authority&8) == 8 )
; 4076 : 	{
; 4077 : 		lpObj->AuthorityCode |= 1;
; 4078 : 		lpObj->AuthorityCode |= 2;
; 4079 : 		lpObj->AuthorityCode |= 4;
; 4080 : 		lpObj->AuthorityCode |= 8;
; 4081 : 		lpObj->AuthorityCode |= 16;
; 4082 : 		lpObj->AuthorityCode |= 32;
; 4083 : 
; 4084 : 		return;
; 4085 : 	}
; 4086 : 
; 4087 : 	if ( (lpObj->Authority&16) == 16 )
; 4088 : 	{
; 4089 : 		return;
; 4090 : 	}
; 4091 : 
; 4092 : 	if ( (lpObj->Authority&32) == 32 )
; 4093 : 	{
; 4094 : 		lpObj->AuthorityCode |= 1;
; 4095 : 		lpObj->AuthorityCode |= 2;
; 4096 : 		lpObj->AuthorityCode |= 4;
; 4097 : 		lpObj->AuthorityCode |= 8;
; 4098 : 		lpObj->AuthorityCode |= 16;
; 4099 : 		lpObj->AuthorityCode |= 32;
; 4100 : 
; 4101 : 		return;
; 4102 : 	}*/
; 4103 : }

  00000	c3		 ret	 0
?gObjAuthorityCodeSet@@YAXPAUOBJECTSTRUCT@@@Z ENDP	; gObjAuthorityCodeSet
_TEXT	ENDS
PUBLIC	??_C@_0BJ@KEIINKC@error?9L2?5?3?5?$CFd?5class?5?3?5?$CFd?$AA@ ; `string'
PUBLIC	??_C@_0O@CKAEPJAF@error?5?3?5?$CFs?5?$CFd?$AA@	; `string'
PUBLIC	?gObjSetPosMonster@@YAHHH@Z			; gObjSetPosMonster
EXTRN	?GetPosition@CMonsterSetBase@@QAEHHFAAF0@Z:PROC	; CMonsterSetBase::GetPosition
EXTRN	?gMSetBase@@3VCMonsterSetBase@@A:BYTE		; gMSetBase
;	COMDAT ??_C@_0BJ@KEIINKC@error?9L2?5?3?5?$CFd?5class?5?3?5?$CFd?$AA@
CONST	SEGMENT
??_C@_0BJ@KEIINKC@error?9L2?5?3?5?$CFd?5class?5?3?5?$CFd?$AA@ DB 'error-L'
	DB	'2 : %d class : %d', 00H			; `string'
CONST	ENDS
;	COMDAT ??_C@_0O@CKAEPJAF@error?5?3?5?$CFs?5?$CFd?$AA@
CONST	SEGMENT
??_C@_0O@CKAEPJAF@error?5?3?5?$CFs?5?$CFd?$AA@ DB 'error : %s %d', 00H ; `string'
; Function compile flags: /Ogtp
CONST	ENDS
;	COMDAT ?gObjSetPosMonster@@YAHHH@Z
_TEXT	SEGMENT
_aIndex$ = 8						; size = 4
_PosTableNum$ = 12					; size = 4
?gObjSetPosMonster@@YAHHH@Z PROC			; gObjSetPosMonster, COMDAT

; 4106 : {

  00000	55		 push	 ebp
  00001	8b ec		 mov	 ebp, esp
  00003	56		 push	 esi

; 4107 : 	if ( (  (aIndex<0)? FALSE: (aIndex > OBJMAX-1)? FALSE: TRUE ) == FALSE )

  00004	8b 75 08	 mov	 esi, DWORD PTR _aIndex$[ebp]
  00007	85 f6		 test	 esi, esi
  00009	78 0f		 js	 SHORT $LN17@gObjSetPos
  0000b	33 c0		 xor	 eax, eax
  0000d	81 fe 97 3a 00
	00		 cmp	 esi, 14999		; 00003a97H
  00013	0f 9e c0	 setle	 al
  00016	85 c0		 test	 eax, eax
  00018	75 1d		 jne	 SHORT $LN10@gObjSetPos
$LN17@gObjSetPos:

; 4108 : 	{
; 4109 : 		LogAdd("error : %s %d", __FILE__, __LINE__);

  0001a	68 0d 10 00 00	 push	 4109			; 0000100dH
  0001f	68 00 00 00 00	 push	 OFFSET ??_C@_08DCNFOMBO@user?4cpp?$AA@
  00024	68 00 00 00 00	 push	 OFFSET ??_C@_0O@CKAEPJAF@error?5?3?5?$CFs?5?$CFd?$AA@
  00029	ff 15 00 00 00
	00		 call	 DWORD PTR ?LogAdd@@3P6AXPADZZA ; LogAdd
  0002f	83 c4 0c	 add	 esp, 12			; 0000000cH

; 4110 : 		return FALSE;

  00032	33 c0		 xor	 eax, eax
  00034	5e		 pop	 esi

; 4160 : }

  00035	5d		 pop	 ebp
  00036	c3		 ret	 0
$LN10@gObjSetPos:
  00037	57		 push	 edi

; 4111 : 	}
; 4112 : 
; 4113 : 	if ( (  (PosTableNum<0)? FALSE: (PosTableNum > OBJ_MAXMONSTER-1)? FALSE: TRUE ) == FALSE )

  00038	8b 7d 0c	 mov	 edi, DWORD PTR _PosTableNum$[ebp]
  0003b	85 ff		 test	 edi, edi
  0003d	78 0f		 js	 SHORT $LN18@gObjSetPos
  0003f	33 c0		 xor	 eax, eax
  00041	81 ff c7 32 00
	00		 cmp	 edi, 12999		; 000032c7H
  00047	0f 9e c0	 setle	 al
  0004a	85 c0		 test	 eax, eax
  0004c	75 1e		 jne	 SHORT $LN9@gObjSetPos
$LN18@gObjSetPos:

; 4114 : 	{
; 4115 : 		LogAdd("error : %s %d", __FILE__, __LINE__);

  0004e	68 13 10 00 00	 push	 4115			; 00001013H
  00053	68 00 00 00 00	 push	 OFFSET ??_C@_08DCNFOMBO@user?4cpp?$AA@
  00058	68 00 00 00 00	 push	 OFFSET ??_C@_0O@CKAEPJAF@error?5?3?5?$CFs?5?$CFd?$AA@
  0005d	ff 15 00 00 00
	00		 call	 DWORD PTR ?LogAdd@@3P6AXPADZZA ; LogAdd
  00063	83 c4 0c	 add	 esp, 12			; 0000000cH
  00066	5f		 pop	 edi

; 4116 : 		return FALSE;

  00067	33 c0		 xor	 eax, eax
  00069	5e		 pop	 esi

; 4160 : }

  0006a	5d		 pop	 ebp
  0006b	c3		 ret	 0
$LN9@gObjSetPos:

; 4117 : 	}
; 4118 : 
; 4119 : 	LPOBJ lpObj = &gObj[aIndex];

  0006c	69 f6 50 2b 00
	00		 imul	 esi, 11088		; 00002b50H
  00072	03 35 00 00 00
	00		 add	 esi, DWORD PTR ?gObj@@3PAUOBJECTSTRUCT@@A ; gObj
  00078	53		 push	 ebx

; 4120 : 	lpObj->m_PosNum = PosTableNum;

  00079	66 89 be b0 03
	00 00		 mov	 WORD PTR [esi+944], di

; 4121 : 	lpObj->X = gMSetBase.m_Mp[PosTableNum].m_X;

  00080	c1 e7 04	 shl	 edi, 4
  00083	0f b6 87 0a 00
	00 00		 movzx	 eax, BYTE PTR ?gMSetBase@@3VCMonsterSetBase@@A[edi+10]
  0008a	66 89 86 44 01
	00 00		 mov	 WORD PTR [esi+324], ax

; 4122 : 	lpObj->Y = gMSetBase.m_Mp[PosTableNum].m_Y;

  00091	0f b6 8f 0b 00
	00 00		 movzx	 ecx, BYTE PTR ?gMSetBase@@3VCMonsterSetBase@@A[edi+11]
  00098	8d 9e 44 01 00
	00		 lea	 ebx, DWORD PTR [esi+324]
  0009e	66 89 8e 46 01
	00 00		 mov	 WORD PTR [esi+326], cx

; 4123 : 	lpObj->MapNumber = gMSetBase.m_Mp[PosTableNum].m_MapNumber;

  000a5	0f b6 97 08 00
	00 00		 movzx	 edx, BYTE PTR ?gMSetBase@@3VCMonsterSetBase@@A[edi+8]

; 4124 : 	lpObj->TX = lpObj->X;

  000ac	0f b7 0b	 movzx	 ecx, WORD PTR [ebx]
  000af	8d 86 46 01 00
	00		 lea	 eax, DWORD PTR [esi+326]
  000b5	88 96 49 01 00
	00		 mov	 BYTE PTR [esi+329], dl

; 4125 : 	lpObj->TY = lpObj->Y;

  000bb	0f b7 10	 movzx	 edx, WORD PTR [eax]
  000be	66 89 8e 7c 01
	00 00		 mov	 WORD PTR [esi+380], cx

; 4126 : 	lpObj->m_OldX = lpObj->X;

  000c5	66 89 8e 78 01
	00 00		 mov	 WORD PTR [esi+376], cx
  000cc	66 89 96 7e 01
	00 00		 mov	 WORD PTR [esi+382], dx

; 4127 : 	lpObj->m_OldY = lpObj->Y;

  000d3	66 89 96 7a 01
	00 00		 mov	 WORD PTR [esi+378], dx

; 4128 : 	lpObj->Dir = gMSetBase.m_Mp[PosTableNum].m_Dir;

  000da	0f b6 8f 0c 00
	00 00		 movzx	 ecx, BYTE PTR ?gMSetBase@@3VCMonsterSetBase@@A[edi+12]

; 4129 : 	lpObj->StartX = lpObj->X;

  000e1	0f b6 13	 movzx	 edx, BYTE PTR [ebx]
  000e4	88 8e 48 01 00
	00		 mov	 BYTE PTR [esi+328], cl

; 4130 : 	lpObj->StartY = lpObj->Y;

  000ea	0f b6 08	 movzx	 ecx, BYTE PTR [eax]
  000ed	88 8e 77 01 00
	00		 mov	 BYTE PTR [esi+375], cl

; 4131 : 
; 4132 : 	if ( lpObj->Class == 44 ||  lpObj->Class == 53 ||  lpObj->Class == 54 ||  lpObj->Class == 55 ||  lpObj->Class == 56)

  000f3	0f b7 8e b8 00
	00 00		 movzx	 ecx, WORD PTR [esi+184]
  000fa	88 96 76 01 00
	00		 mov	 BYTE PTR [esi+374], dl
  00100	83 f9 2c	 cmp	 ecx, 44			; 0000002cH
  00103	0f 84 9b 00 00
	00		 je	 $LN7@gObjSetPos
  00109	83 f9 35	 cmp	 ecx, 53			; 00000035H
  0010c	0f 84 92 00 00
	00		 je	 $LN7@gObjSetPos
  00112	83 f9 36	 cmp	 ecx, 54			; 00000036H
  00115	0f 84 89 00 00
	00		 je	 $LN7@gObjSetPos
  0011b	83 f9 37	 cmp	 ecx, 55			; 00000037H
  0011e	0f 84 80 00 00
	00		 je	 $LN7@gObjSetPos
  00124	83 f9 38	 cmp	 ecx, 56			; 00000038H
  00127	74 7b		 je	 SHORT $LN7@gObjSetPos

; 4133 : 	{
; 4134 : 
; 4135 : 	}
; 4136 : 	else if (  lpObj->Class >= 78 &&  lpObj->Class <= 83)

  00129	83 f9 4e	 cmp	 ecx, 78			; 0000004eH
  0012c	72 05		 jb	 SHORT $LN5@gObjSetPos
  0012e	83 f9 53	 cmp	 ecx, 83			; 00000053H
  00131	76 71		 jbe	 SHORT $LN7@gObjSetPos
$LN5@gObjSetPos:

; 4137 : 	{
; 4138 : 
; 4139 : 	}
; 4140 : 	else if (  lpObj->Class >= 493 &&  lpObj->Class <= 502) //season4 add-on

  00133	ba ed 01 00 00	 mov	 edx, 493		; 000001edH
  00138	66 3b ca	 cmp	 cx, dx
  0013b	72 0a		 jb	 SHORT $LN3@gObjSetPos
  0013d	ba f6 01 00 00	 mov	 edx, 502		; 000001f6H
  00142	66 3b ca	 cmp	 cx, dx
  00145	76 5d		 jbe	 SHORT $LN7@gObjSetPos
$LN3@gObjSetPos:

; 4141 : 	{
; 4142 : 
; 4143 : 	}
; 4144 : 	else if ( gMSetBase.GetPosition(PosTableNum, lpObj->MapNumber, lpObj->X, lpObj->Y) == FALSE )

  00147	0f b6 8e 49 01
	00 00		 movzx	 ecx, BYTE PTR [esi+329]
  0014e	8b 55 0c	 mov	 edx, DWORD PTR _PosTableNum$[ebp]
  00151	50		 push	 eax
  00152	53		 push	 ebx
  00153	51		 push	 ecx
  00154	52		 push	 edx
  00155	b9 00 00 00 00	 mov	 ecx, OFFSET ?gMSetBase@@3VCMonsterSetBase@@A ; gMSetBase
  0015a	e8 00 00 00 00	 call	 ?GetPosition@CMonsterSetBase@@QAEHHFAAF0@Z ; CMonsterSetBase::GetPosition
  0015f	85 c0		 test	 eax, eax
  00161	75 41		 jne	 SHORT $LN7@gObjSetPos

; 4145 : 	{
; 4146 : 		LogAdd(lMsg.Get(MSGGET(1, 252)), __FILE__, __LINE__);

  00163	68 32 10 00 00	 push	 4146			; 00001032H
  00168	68 00 00 00 00	 push	 OFFSET ??_C@_08DCNFOMBO@user?4cpp?$AA@
  0016d	68 fc 01 00 00	 push	 508			; 000001fcH
  00172	b9 00 00 00 00	 mov	 ecx, OFFSET ?lMsg@@3VCMsg@@A ; lMsg
  00177	e8 00 00 00 00	 call	 ?Get@CMsg@@QAEPADH@Z	; CMsg::Get
  0017c	50		 push	 eax
  0017d	ff 15 00 00 00
	00		 call	 DWORD PTR ?LogAdd@@3P6AXPADZZA ; LogAdd

; 4147 : 		LogAdd("error-L2 : %d class : %d", PosTableNum, lpObj->Class);

  00183	0f b7 86 b8 00
	00 00		 movzx	 eax, WORD PTR [esi+184]
  0018a	8b 4d 0c	 mov	 ecx, DWORD PTR _PosTableNum$[ebp]
  0018d	50		 push	 eax
  0018e	51		 push	 ecx
  0018f	68 00 00 00 00	 push	 OFFSET ??_C@_0BJ@KEIINKC@error?9L2?5?3?5?$CFd?5class?5?3?5?$CFd?$AA@
  00194	ff 15 00 00 00
	00		 call	 DWORD PTR ?LogAdd@@3P6AXPADZZA ; LogAdd
  0019a	83 c4 18	 add	 esp, 24			; 00000018H
  0019d	5b		 pop	 ebx
  0019e	5f		 pop	 edi

; 4148 : 		return FALSE;

  0019f	33 c0		 xor	 eax, eax
  001a1	5e		 pop	 esi

; 4160 : }

  001a2	5d		 pop	 ebp
  001a3	c3		 ret	 0
$LN7@gObjSetPos:

; 4149 : 	}
; 4150 : 
; 4151 : 	lpObj->TX = lpObj->X;

  001a4	0f b7 03	 movzx	 eax, WORD PTR [ebx]

; 4152 : 	lpObj->TY = lpObj->Y;

  001a7	0f b7 8e 46 01
	00 00		 movzx	 ecx, WORD PTR [esi+326]
  001ae	66 89 86 7c 01
	00 00		 mov	 WORD PTR [esi+380], ax

; 4153 : 	lpObj->m_OldX = lpObj->X;

  001b5	66 89 86 78 01
	00 00		 mov	 WORD PTR [esi+376], ax

; 4154 : 	lpObj->m_OldY = lpObj->Y;
; 4155 : 	lpObj->Dir = gMSetBase.m_Mp[PosTableNum].m_Dir;
; 4156 : 	lpObj->StartX = lpObj->X;

  001bc	8a 03		 mov	 al, BYTE PTR [ebx]
  001be	66 89 8e 7e 01
	00 00		 mov	 WORD PTR [esi+382], cx
  001c5	66 89 8e 7a 01
	00 00		 mov	 WORD PTR [esi+378], cx
  001cc	8a 97 0c 00 00
	00		 mov	 dl, BYTE PTR ?gMSetBase@@3VCMonsterSetBase@@A[edi+12]

; 4157 : 	lpObj->StartY = lpObj->Y;

  001d2	8a 8e 46 01 00
	00		 mov	 cl, BYTE PTR [esi+326]
  001d8	5b		 pop	 ebx
  001d9	88 86 76 01 00
	00		 mov	 BYTE PTR [esi+374], al
  001df	5f		 pop	 edi
  001e0	88 96 48 01 00
	00		 mov	 BYTE PTR [esi+328], dl
  001e6	88 8e 77 01 00
	00		 mov	 BYTE PTR [esi+375], cl

; 4158 : 
; 4159 : 	return true;

  001ec	b8 01 00 00 00	 mov	 eax, 1
  001f1	5e		 pop	 esi

; 4160 : }

  001f2	5d		 pop	 ebp
  001f3	c3		 ret	 0
?gObjSetPosMonster@@YAHHH@Z ENDP			; gObjSetPosMonster
_TEXT	ENDS
PUBLIC	?gObjDestroy@@YAXIH@Z				; gObjDestroy
; Function compile flags: /Ogtp
;	COMDAT ?gObjDestroy@@YAXIH@Z
_TEXT	SEGMENT
_aSocket$ = 8						; size = 4
_client$ = 12						; size = 4
?gObjDestroy@@YAXIH@Z PROC				; gObjDestroy, COMDAT

; 4723 : {

  00000	55		 push	 ebp
  00001	8b ec		 mov	 ebp, esp

; 4724 : 	if ( client < 0 || client > OBJMAX-1)

  00003	8b 45 0c	 mov	 eax, DWORD PTR _client$[ebp]
  00006	3d 97 3a 00 00	 cmp	 eax, 14999		; 00003a97H
  0000b	77 14		 ja	 SHORT $LN1@gObjDestro

; 4725 : 	{
; 4726 : 		return;
; 4727 : 	}
; 4728 : 
; 4729 : 	gObj[client].Connected = PLAYER_EMPTY;

  0000d	8b 0d 00 00 00
	00		 mov	 ecx, DWORD PTR ?gObj@@3PAUOBJECTSTRUCT@@A ; gObj
  00013	69 c0 50 2b 00
	00		 imul	 eax, 11088		; 00002b50H
  00019	c7 44 08 04 00
	00 00 00	 mov	 DWORD PTR [eax+ecx+4], 0
$LN1@gObjDestro:

; 4730 : }

  00021	5d		 pop	 ebp
  00022	c3		 ret	 0
?gObjDestroy@@YAXIH@Z ENDP				; gObjDestroy
_TEXT	ENDS
PUBLIC	?gObjAddSearch@@YAFIPAD@Z			; gObjAddSearch
EXTRN	?GCJoinSocketResult@@YAXEI@Z:PROC		; GCJoinSocketResult
EXTRN	?IsIp@CAcceptIp@@QAEHPAD@Z:PROC			; CAcceptIp::IsIp
EXTRN	?acceptIP@@3VCAcceptIp@@A:BYTE			; acceptIP
; Function compile flags: /Ogtp
;	COMDAT ?gObjAddSearch@@YAFIPAD@Z
_TEXT	SEGMENT
_aSocket$ = 8						; size = 4
_ip$ = 12						; size = 4
?gObjAddSearch@@YAFIPAD@Z PROC				; gObjAddSearch, COMDAT

; 4733 : {

  00000	55		 push	 ebp
  00001	8b ec		 mov	 ebp, esp
  00003	56		 push	 esi

; 4734 : 	#if(ENABLE_OPTIMIZATION)
; 4735 : 	return g_Optimization.AddObjectUser(aSocket, ip);
; 4736 : 	#endif
; 4737 : 
; 4738 : 	int count;
; 4739 : 	int totalcount = 0;

  00004	33 f6		 xor	 esi, esi

; 4740 : 
; 4741 : 	if ( gDisconnect == 1 )

  00006	83 3d 00 00 00
	00 01		 cmp	 DWORD PTR ?gDisconnect@@3HA, 1 ; gDisconnect

; 4742 : 	{
; 4743 : 		return -1;

  0000d	74 2d		 je	 SHORT $LN14@gObjAddSea

; 4744 : 	}
; 4745 : 
; 4746 : 	if ( gObjTotalUser > gServerMaxUser )

  0000f	a1 00 00 00 00	 mov	 eax, DWORD PTR ?gObjTotalUser@@3HA ; gObjTotalUser
  00014	3b 05 00 00 00
	00		 cmp	 eax, DWORD PTR ?gServerMaxUser@@3HA ; gServerMaxUser
  0001a	7e 26		 jle	 SHORT $LN6@gObjAddSea

; 4747 : 	{
; 4748 : 		if (acceptIP.IsIp(ip) == 0 )

  0001c	8b 4d 0c	 mov	 ecx, DWORD PTR _ip$[ebp]
  0001f	51		 push	 ecx
  00020	b9 00 00 00 00	 mov	 ecx, OFFSET ?acceptIP@@3VCAcceptIp@@A ; acceptIP
  00025	e8 00 00 00 00	 call	 ?IsIp@CAcceptIp@@QAEHPAD@Z ; CAcceptIp::IsIp
  0002a	85 c0		 test	 eax, eax
  0002c	75 14		 jne	 SHORT $LN6@gObjAddSea

; 4749 : 		{
; 4750 : 			GCJoinSocketResult(4, aSocket);

  0002e	8b 55 08	 mov	 edx, DWORD PTR _aSocket$[ebp]
  00031	52		 push	 edx
  00032	6a 04		 push	 4
  00034	e8 00 00 00 00	 call	 ?GCJoinSocketResult@@YAXEI@Z ; GCJoinSocketResult
  00039	83 c4 08	 add	 esp, 8
$LN14@gObjAddSea:

; 4772 : 		{
; 4773 : 			break;
; 4774 : 		}
; 4775 : 	}
; 4776 : 	return -1;

  0003c	83 c8 ff	 or	 eax, -1
$LN9@gObjAddSea:
  0003f	5e		 pop	 esi

; 4777 : }

  00040	5d		 pop	 ebp
  00041	c3		 ret	 0
$LN6@gObjAddSea:

; 4751 : 			return -1;
; 4752 : 		}
; 4753 : 	}
; 4754 : 
; 4755 : 	count = gObjCount;

  00042	a1 00 00 00 00	 mov	 eax, DWORD PTR ?gObjCount@@3HA ; gObjCount

; 4756 : 	
; 4757 : 	while ( true )
; 4758 : 	{
; 4759 : 		if ( gObj[count].Connected == PLAYER_EMPTY )

  00047	8b 0d 00 00 00
	00		 mov	 ecx, DWORD PTR ?gObj@@3PAUOBJECTSTRUCT@@A ; gObj
  0004d	8b d0		 mov	 edx, eax
  0004f	69 d2 50 2b 00
	00		 imul	 edx, 11088		; 00002b50H
  00055	39 74 0a 04	 cmp	 DWORD PTR [edx+ecx+4], esi
  00059	74 e4		 je	 SHORT $LN9@gObjAddSea
  0005b	eb 03 8d 49 00	 npad	 5
$LL5@gObjAddSea:

; 4760 : 		{
; 4761 : 			return count;
; 4762 : 		}
; 4763 : 
; 4764 : 		count++;

  00060	40		 inc	 eax

; 4765 : 
; 4766 : 		if ( count >= OBJMAX )

  00061	3d 98 3a 00 00	 cmp	 eax, 15000		; 00003a98H
  00066	7c 05		 jl	 SHORT $LN2@gObjAddSea

; 4767 : 		{
; 4768 : 			count = OBJ_STARTUSERINDZT;

  00068	b8 b0 36 00 00	 mov	 eax, 14000		; 000036b0H
$LN2@gObjAddSea:

; 4769 : 		}
; 4770 : 		totalcount++;

  0006d	46		 inc	 esi

; 4771 : 		if ( totalcount >= OBJMAXUSER )

  0006e	81 fe e8 03 00
	00		 cmp	 esi, 1000		; 000003e8H
  00074	7d c6		 jge	 SHORT $LN14@gObjAddSea

; 4756 : 	
; 4757 : 	while ( true )
; 4758 : 	{
; 4759 : 		if ( gObj[count].Connected == PLAYER_EMPTY )

  00076	8b d0		 mov	 edx, eax
  00078	69 d2 50 2b 00
	00		 imul	 edx, 11088		; 00002b50H
  0007e	83 7c 0a 04 00	 cmp	 DWORD PTR [edx+ecx+4], 0
  00083	75 db		 jne	 SHORT $LL5@gObjAddSea
  00085	5e		 pop	 esi

; 4777 : }

  00086	5d		 pop	 ebp
  00087	c3		 ret	 0
?gObjAddSearch@@YAFIPAD@Z ENDP				; gObjAddSearch
_TEXT	ENDS
PUBLIC	?RESET@PCBANG_POINT_SYSTEM@@QAEXXZ		; PCBANG_POINT_SYSTEM::RESET
EXTRN	?g_sPCBangFirstRuleTimePoint@@3FA:WORD		; g_sPCBangFirstRuleTimePoint
EXTRN	?g_sPCBangFirstRuleTime@@3FA:WORD		; g_sPCBangFirstRuleTime
; Function compile flags: /Ogtp
;	COMDAT ?RESET@PCBANG_POINT_SYSTEM@@QAEXXZ
_TEXT	SEGMENT
?RESET@PCBANG_POINT_SYSTEM@@QAEXXZ PROC			; PCBANG_POINT_SYSTEM::RESET, COMDAT
; _this$ = ecx

; 4819 : 	this->m_bPcBangPointEnable = 0;

  00000	33 c0		 xor	 eax, eax
  00002	89 01		 mov	 DWORD PTR [ecx], eax

; 4820 : 	this->m_bPcBangCommonRule = 0;

  00004	88 41 04	 mov	 BYTE PTR [ecx+4], al

; 4821 : 	this->m_sPcBangCommonRuleTime = g_sPCBangFirstRuleTime;

  00007	0f b7 15 00 00
	00 00		 movzx	 edx, WORD PTR ?g_sPCBangFirstRuleTime@@3FA ; g_sPCBangFirstRuleTime
  0000e	66 89 51 06	 mov	 WORD PTR [ecx+6], dx

; 4822 : 	this->m_sPcBangGainPoint = g_sPCBangFirstRuleTimePoint;

  00012	0f b7 15 00 00
	00 00		 movzx	 edx, WORD PTR ?g_sPCBangFirstRuleTimePoint@@3FA ; g_sPCBangFirstRuleTimePoint
  00019	66 89 51 08	 mov	 WORD PTR [ecx+8], dx

; 4823 : 	this->m_iPcBangAccumulatedPoint = 0;

  0001d	89 41 0c	 mov	 DWORD PTR [ecx+12], eax

; 4824 : 	this->m_bPcBangInfoSet = 0;

  00020	89 41 10	 mov	 DWORD PTR [ecx+16], eax

; 4825 : 	this->m_dwPcBangPointTick = 0;

  00023	89 41 14	 mov	 DWORD PTR [ecx+20], eax

; 4826 : 	this->m_sPcBangResetYear = 2001;

  00026	c7 41 18 d1 07
	01 00		 mov	 DWORD PTR [ecx+24], 67537 ; 000107d1H

; 4827 : 	this->m_sPcBangResetMonth = 1;
; 4828 : 	this->m_sPcBangResetDay = 1;

  0002d	c7 41 1c 01 00
	00 00		 mov	 DWORD PTR [ecx+28], 1

; 4829 : 	this->m_sPcBangResetHour = 0;
; 4830 : }

  00034	c3		 ret	 0
?RESET@PCBANG_POINT_SYSTEM@@QAEXXZ ENDP			; PCBANG_POINT_SYSTEM::RESET
_TEXT	ENDS
PUBLIC	?gObjUserKill@@YAXH@Z				; gObjUserKill
; Function compile flags: /Ogtp
;	COMDAT ?gObjUserKill@@YAXH@Z
_TEXT	SEGMENT
_aIndex$ = 8						; size = 4
?gObjUserKill@@YAXH@Z PROC				; gObjUserKill, COMDAT

; 4960 : {

  00000	55		 push	 ebp
  00001	8b ec		 mov	 ebp, esp

; 4961 : 	LPOBJ lpObj = &gObj[aIndex];

  00003	8b 45 08	 mov	 eax, DWORD PTR _aIndex$[ebp]
  00006	69 c0 50 2b 00
	00		 imul	 eax, 11088		; 00002b50H
  0000c	03 05 00 00 00
	00		 add	 eax, DWORD PTR ?gObj@@3PAUOBJECTSTRUCT@@A ; gObj

; 4962 : 
; 4963 : 	if ( lpObj->CloseCount < 1 )

  00012	80 78 0a 01	 cmp	 BYTE PTR [eax+10], 1
  00016	7d 06		 jge	 SHORT $LN1@gObjUserKi

; 4964 : 	{
; 4965 : 		lpObj->CloseCount = 6;

  00018	66 c7 40 0a 06
	00		 mov	 WORD PTR [eax+10], 6
$LN1@gObjUserKi:

; 4966 : 		lpObj->CloseType = 0;
; 4967 : 	}
; 4968 : }

  0001e	5d		 pop	 ebp
  0001f	c3		 ret	 0
?gObjUserKill@@YAXH@Z ENDP				; gObjUserKill
_TEXT	ENDS
PUBLIC	??_C@_0BP@FCDEDEIA@?$FL?$CFs?$FN?$FL?$CFs?$FN?5BillType?5?3?5?$CINoCharge?$CJ?$AA@ ; `string'
PUBLIC	??_C@_0DD@EGADHIAE@?$FL?$CFs?$FN?$FL?$CFs?$FN?5BillType?5?3?5?$CIDate?$CJ?5Remai@ ; `string'
PUBLIC	??_C@_0CO@CIBMOLHH@?$FL?$CFs?$FN?$FL?$CFs?$FN?5BillType?5?3?5?$CITime?$CJ?5Remai@ ; `string'
PUBLIC	__$ArrayPad$
PUBLIC	?gObjBillRequest@@YAXPAUOBJECTSTRUCT@@@Z	; gObjBillRequest
EXTRN	?GCServerMsgStringSend@@YAXPADHE@Z:PROC		; GCServerMsgStringSend
EXTRN	_atoi:PROC
EXTRN	_strncpy:PROC
EXTRN	__imp__wsprintfA:PROC
;	COMDAT ??_C@_0BP@FCDEDEIA@?$FL?$CFs?$FN?$FL?$CFs?$FN?5BillType?5?3?5?$CINoCharge?$CJ?$AA@
; File e:\work\tranet_version\gs\gameserver\user.h
CONST	SEGMENT
??_C@_0BP@FCDEDEIA@?$FL?$CFs?$FN?$FL?$CFs?$FN?5BillType?5?3?5?$CINoCharge?$CJ?$AA@ DB '['
	DB	'%s][%s] BillType : (NoCharge)', 00H		; `string'
CONST	ENDS
;	COMDAT ??_C@_0DD@EGADHIAE@?$FL?$CFs?$FN?$FL?$CFs?$FN?5BillType?5?3?5?$CIDate?$CJ?5Remai@
CONST	SEGMENT
??_C@_0DD@EGADHIAE@?$FL?$CFs?$FN?$FL?$CFs?$FN?5BillType?5?3?5?$CIDate?$CJ?5Remai@ DB '['
	DB	'%s][%s] BillType : (Date) RemainDate : (%s-%s-%s)', 00H ; `string'
CONST	ENDS
;	COMDAT ??_C@_0CO@CIBMOLHH@?$FL?$CFs?$FN?$FL?$CFs?$FN?5BillType?5?3?5?$CITime?$CJ?5Remai@
CONST	SEGMENT
??_C@_0CO@CIBMOLHH@?$FL?$CFs?$FN?$FL?$CFs?$FN?5BillType?5?3?5?$CITime?$CJ?5Remai@ DB '['
	DB	'%s][%s] BillType : (Time) RemainPoint : (%d)', 00H ; `string'
; Function compile flags: /Ogtp
; File e:\work\tranet_version\gs\gameserver\user.cpp
CONST	ENDS
;	COMDAT ?gObjBillRequest@@YAXPAUOBJECTSTRUCT@@@Z
_TEXT	SEGMENT
_szDay$241776 = -180					; size = 3
_szMonth$241783 = -176					; size = 3
_szMin$241778 = -176					; size = 3
_szDay$241784 = -172					; size = 3
_szHour$241777 = -172					; size = 3
_szMsg$ = -168						; size = 128
_szTemp$241765 = -40					; size = 20
_szYear$241774 = -20					; size = 5
_szYear$241782 = -12					; size = 5
_szMonth$241775 = -12					; size = 3
_Month$241767 = -12					; size = 4
__$ArrayPad$ = -4					; size = 4
_lpObj$ = 8						; size = 4
?gObjBillRequest@@YAXPAUOBJECTSTRUCT@@@Z PROC		; gObjBillRequest, COMDAT

; 5035 : {

  00000	55		 push	 ebp
  00001	8b ec		 mov	 ebp, esp
  00003	81 ec b4 00 00
	00		 sub	 esp, 180		; 000000b4H
  00009	a1 00 00 00 00	 mov	 eax, DWORD PTR ___security_cookie
  0000e	33 c5		 xor	 eax, ebp
  00010	89 45 fc	 mov	 DWORD PTR __$ArrayPad$[ebp], eax
  00013	53		 push	 ebx
  00014	56		 push	 esi
  00015	8b 75 08	 mov	 esi, DWORD PTR _lpObj$[ebp]
  00018	57		 push	 edi

; 5036 : 	char szMsg[128] = "";

  00019	33 db		 xor	 ebx, ebx
  0001b	6a 7f		 push	 127			; 0000007fH
  0001d	8d 85 59 ff ff
	ff		 lea	 eax, DWORD PTR _szMsg$[ebp+1]
  00023	53		 push	 ebx
  00024	50		 push	 eax
  00025	88 9d 58 ff ff
	ff		 mov	 BYTE PTR _szMsg$[ebp], bl
  0002b	e8 00 00 00 00	 call	 _memset

; 5037 : 
; 5038 : 	if ( m_ObjBill[lpObj->m_Index].GetPayCode() == 0 )

  00030	8b 06		 mov	 eax, DWORD PTR [esi]
  00032	8d 04 40	 lea	 eax, DWORD PTR [eax+eax*2]
  00035	03 c0		 add	 eax, eax
  00037	03 c0		 add	 eax, eax
  00039	8a 8c 00 01 00
	00 00		 mov	 cl, BYTE PTR ?m_ObjBill@@3PAVBILL_CLASS@@A[eax+eax+1]
  00040	03 c0		 add	 eax, eax
  00042	83 c4 0c	 add	 esp, 12			; 0000000cH
  00045	3a cb		 cmp	 cl, bl
  00047	75 73		 jne	 SHORT $LN17@gObjBillRe

; 5039 : 	{
; 5040 : 		if ( m_ObjBill[lpObj->m_Index].GetCertify() == 0 )

  00049	8a 88 00 00 00
	00		 mov	 cl, BYTE PTR ?m_ObjBill@@3PAVBILL_CLASS@@A[eax]
  0004f	3a cb		 cmp	 cl, bl
  00051	75 2c		 jne	 SHORT $LN16@gObjBillRe

; 5041 : 		{
; 5042 : 			wsprintf(szMsg, lMsg.Get(MSGGET(4, 85)), m_ObjBill[lpObj->m_Index].GetEndTime());

  00053	8b 80 04 00 00
	00		 mov	 eax, DWORD PTR ?m_ObjBill@@3PAVBILL_CLASS@@A[eax+4]
  00059	50		 push	 eax
  0005a	68 55 04 00 00	 push	 1109			; 00000455H
  0005f	b9 00 00 00 00	 mov	 ecx, OFFSET ?lMsg@@3VCMsg@@A ; lMsg
  00064	e8 00 00 00 00	 call	 ?Get@CMsg@@QAEPADH@Z	; CMsg::Get
  00069	50		 push	 eax
  0006a	8d 8d 58 ff ff
	ff		 lea	 ecx, DWORD PTR _szMsg$[ebp]
  00070	51		 push	 ecx
  00071	ff 15 00 00 00
	00		 call	 DWORD PTR __imp__wsprintfA
  00077	83 c4 0c	 add	 esp, 12			; 0000000cH

; 5043 : 		}
; 5044 : 		else if ( m_ObjBill[lpObj->m_Index].GetCertify() == 1 )

  0007a	e9 77 03 00 00	 jmp	 $LN1@gObjBillRe
$LN16@gObjBillRe:
  0007f	80 f9 01	 cmp	 cl, 1
  00082	0f 85 6e 03 00
	00		 jne	 $LN1@gObjBillRe

; 5045 : 		{
; 5046 : 			if ( m_ObjBill[lpObj->m_Index].GetEndTime() != 0 )

  00088	8b 80 04 00 00
	00		 mov	 eax, DWORD PTR ?m_ObjBill@@3PAVBILL_CLASS@@A[eax+4]
  0008e	3b c3		 cmp	 eax, ebx
  00090	0f 84 60 03 00
	00		 je	 $LN1@gObjBillRe

; 5047 : 			{
; 5048 : 				wsprintf(szMsg, lMsg.Get(MSGGET(4, 86)), m_ObjBill[lpObj->m_Index].GetEndTime());

  00096	50		 push	 eax
  00097	68 56 04 00 00	 push	 1110			; 00000456H
  0009c	b9 00 00 00 00	 mov	 ecx, OFFSET ?lMsg@@3VCMsg@@A ; lMsg
  000a1	e8 00 00 00 00	 call	 ?Get@CMsg@@QAEPADH@Z	; CMsg::Get
  000a6	50		 push	 eax
  000a7	8d 95 58 ff ff
	ff		 lea	 edx, DWORD PTR _szMsg$[ebp]
  000ad	52		 push	 edx
  000ae	ff 15 00 00 00
	00		 call	 DWORD PTR __imp__wsprintfA
  000b4	83 c4 0c	 add	 esp, 12			; 0000000cH

; 5049 : 			}
; 5050 : 		}
; 5051 : 	}

  000b7	e9 3a 03 00 00	 jmp	 $LN1@gObjBillRe
$LN17@gObjBillRe:

; 5052 : 	else if ( m_ObjBill[lpObj->m_Index].GetPayCode() == 1 )

  000bc	80 f9 01	 cmp	 cl, 1
  000bf	0f 85 dd 00 00
	00		 jne	 $LN11@gObjBillRe

; 5053 : 	{
; 5054 : 		char szTemp[20];
; 5055 : 		szTemp[4] = 0;
; 5056 : 		strncpy(szTemp, m_ObjBill[lpObj->m_Index].GetEndsDays(), 4);

  000c5	6a 04		 push	 4
  000c7	8d 80 08 00 00
	00		 lea	 eax, DWORD PTR ?m_ObjBill@@3PAVBILL_CLASS@@A[eax+8]
  000cd	50		 push	 eax
  000ce	8d 4d d8	 lea	 ecx, DWORD PTR _szTemp$241765[ebp]
  000d1	51		 push	 ecx
  000d2	88 5d dc	 mov	 BYTE PTR _szTemp$241765[ebp+4], bl
  000d5	e8 00 00 00 00	 call	 _strncpy

; 5057 : 		int Day = atoi(szTemp);

  000da	8d 55 d8	 lea	 edx, DWORD PTR _szTemp$241765[ebp]
  000dd	52		 push	 edx
  000de	e8 00 00 00 00	 call	 _atoi
  000e3	8b f8		 mov	 edi, eax

; 5058 : 
; 5059 : 		strncpy(szTemp, m_ObjBill[lpObj->m_Index].GetEndsDays()+4, 2);

  000e5	8b 06		 mov	 eax, DWORD PTR [esi]
  000e7	8d 04 40	 lea	 eax, DWORD PTR [eax+eax*2]
  000ea	6a 02		 push	 2
  000ec	8d 0c c5 0c 00
	00 00		 lea	 ecx, DWORD PTR ?m_ObjBill@@3PAVBILL_CLASS@@A[eax*8+12]
  000f3	51		 push	 ecx
  000f4	8d 55 d8	 lea	 edx, DWORD PTR _szTemp$241765[ebp]
  000f7	52		 push	 edx
  000f8	e8 00 00 00 00	 call	 _strncpy

; 5060 : 		szTemp[2] = 0;
; 5061 : 		int Month = atoi(szTemp);

  000fd	8d 45 d8	 lea	 eax, DWORD PTR _szTemp$241765[ebp]
  00100	50		 push	 eax
  00101	88 5d da	 mov	 BYTE PTR _szTemp$241765[ebp+2], bl
  00104	e8 00 00 00 00	 call	 _atoi
  00109	89 45 f4	 mov	 DWORD PTR _Month$241767[ebp], eax

; 5062 : 
; 5063 : 		strncpy(szTemp, m_ObjBill[lpObj->m_Index].GetEndsDays()+6, 2);

  0010c	8b 06		 mov	 eax, DWORD PTR [esi]
  0010e	8d 0c 40	 lea	 ecx, DWORD PTR [eax+eax*2]
  00111	6a 02		 push	 2
  00113	8d 14 cd 0e 00
	00 00		 lea	 edx, DWORD PTR ?m_ObjBill@@3PAVBILL_CLASS@@A[ecx*8+14]
  0011a	52		 push	 edx
  0011b	8d 45 d8	 lea	 eax, DWORD PTR _szTemp$241765[ebp]
  0011e	50		 push	 eax
  0011f	e8 00 00 00 00	 call	 _strncpy

; 5064 : 		szTemp[2] = 0;
; 5065 : 		int Year = atoi(szTemp);

  00124	8d 4d d8	 lea	 ecx, DWORD PTR _szTemp$241765[ebp]
  00127	51		 push	 ecx
  00128	88 5d da	 mov	 BYTE PTR _szTemp$241765[ebp+2], bl
  0012b	e8 00 00 00 00	 call	 _atoi

; 5066 : 
; 5067 : 		if ( m_ObjBill[lpObj->m_Index].GetCertify() == 0 )

  00130	8b 0e		 mov	 ecx, DWORD PTR [esi]
  00132	8d 14 49	 lea	 edx, DWORD PTR [ecx+ecx*2]
  00135	8a 0c d5 00 00
	00 00		 mov	 cl, BYTE PTR ?m_ObjBill@@3PAVBILL_CLASS@@A[edx*8]
  0013c	83 c4 30	 add	 esp, 48			; 00000030H
  0013f	3a cb		 cmp	 cl, bl
  00141	75 2b		 jne	 SHORT $LN10@gObjBillRe

; 5068 : 		{
; 5069 : 			wsprintf(szMsg, lMsg.Get(MSGGET(4, 87)), Day, Month, Year);

  00143	50		 push	 eax
  00144	8b 45 f4	 mov	 eax, DWORD PTR _Month$241767[ebp]
  00147	50		 push	 eax
  00148	57		 push	 edi
  00149	68 57 04 00 00	 push	 1111			; 00000457H
  0014e	b9 00 00 00 00	 mov	 ecx, OFFSET ?lMsg@@3VCMsg@@A ; lMsg
  00153	e8 00 00 00 00	 call	 ?Get@CMsg@@QAEPADH@Z	; CMsg::Get
  00158	50		 push	 eax
  00159	8d 8d 58 ff ff
	ff		 lea	 ecx, DWORD PTR _szMsg$[ebp]
  0015f	51		 push	 ecx
  00160	ff 15 00 00 00
	00		 call	 DWORD PTR __imp__wsprintfA
  00166	83 c4 14	 add	 esp, 20			; 00000014H

; 5070 : 		}
; 5071 : 		else if ( m_ObjBill[lpObj->m_Index].GetCertify() == 1 )

  00169	e9 88 02 00 00	 jmp	 $LN1@gObjBillRe
$LN10@gObjBillRe:
  0016e	80 f9 01	 cmp	 cl, 1
  00171	0f 85 7f 02 00
	00		 jne	 $LN1@gObjBillRe

; 5072 : 		{
; 5073 : 			wsprintf(szMsg, lMsg.Get(MSGGET(4, 88)), Day, Month, Year);

  00177	8b 55 f4	 mov	 edx, DWORD PTR _Month$241767[ebp]
  0017a	50		 push	 eax
  0017b	52		 push	 edx
  0017c	57		 push	 edi
  0017d	68 58 04 00 00	 push	 1112			; 00000458H
  00182	b9 00 00 00 00	 mov	 ecx, OFFSET ?lMsg@@3VCMsg@@A ; lMsg
  00187	e8 00 00 00 00	 call	 ?Get@CMsg@@QAEPADH@Z	; CMsg::Get
  0018c	50		 push	 eax
  0018d	8d 85 58 ff ff
	ff		 lea	 eax, DWORD PTR _szMsg$[ebp]
  00193	50		 push	 eax
  00194	ff 15 00 00 00
	00		 call	 DWORD PTR __imp__wsprintfA
  0019a	83 c4 14	 add	 esp, 20			; 00000014H

; 5074 : 		}
; 5075 : 	}

  0019d	e9 54 02 00 00	 jmp	 $LN1@gObjBillRe
$LN11@gObjBillRe:

; 5076 : 	else if ( m_ObjBill[lpObj->m_Index].GetPayCode() == 3)

  001a2	80 f9 03	 cmp	 cl, 3
  001a5	0f 85 25 01 00
	00		 jne	 $LN6@gObjBillRe

; 5077 : 	{
; 5078 : 		char szYear[5] = "";
; 5079 : 		char szMonth[3] = "";

  001ab	33 c9		 xor	 ecx, ecx

; 5080 : 		char szDay[3] = "";
; 5081 : 		char szHour[3] = "";
; 5082 : 		char szMin[3] = "";
; 5083 : 
; 5084 : 		strncpy(szYear, m_ObjBill[lpObj->m_Index].GetEndsDays(), 4);

  001ad	6a 04		 push	 4
  001af	8d 80 08 00 00
	00		 lea	 eax, DWORD PTR ?m_ObjBill@@3PAVBILL_CLASS@@A[eax+8]
  001b5	66 89 4d f5	 mov	 WORD PTR _szMonth$241775[ebp+1], cx
  001b9	66 89 8d 55 ff
	ff ff		 mov	 WORD PTR _szHour$241777[ebp+1], cx
  001c0	33 d2		 xor	 edx, edx
  001c2	50		 push	 eax
  001c3	8d 4d ec	 lea	 ecx, DWORD PTR _szYear$241774[ebp]
  001c6	51		 push	 ecx
  001c7	88 5d ec	 mov	 BYTE PTR _szYear$241774[ebp], bl
  001ca	89 5d ed	 mov	 DWORD PTR _szYear$241774[ebp+1], ebx
  001cd	88 5d f4	 mov	 BYTE PTR _szMonth$241775[ebp], bl
  001d0	88 9d 4c ff ff
	ff		 mov	 BYTE PTR _szDay$241776[ebp], bl
  001d6	66 89 95 4d ff
	ff ff		 mov	 WORD PTR _szDay$241776[ebp+1], dx
  001dd	88 9d 54 ff ff
	ff		 mov	 BYTE PTR _szHour$241777[ebp], bl
  001e3	88 9d 50 ff ff
	ff		 mov	 BYTE PTR _szMin$241778[ebp], bl
  001e9	66 89 95 51 ff
	ff ff		 mov	 WORD PTR _szMin$241778[ebp+1], dx
  001f0	e8 00 00 00 00	 call	 _strncpy

; 5085 : 		strncpy(szMonth, m_ObjBill[lpObj->m_Index].GetEndsDays()+4, 2);

  001f5	8b 06		 mov	 eax, DWORD PTR [esi]
  001f7	8d 14 40	 lea	 edx, DWORD PTR [eax+eax*2]
  001fa	6a 02		 push	 2
  001fc	8d 04 d5 0c 00
	00 00		 lea	 eax, DWORD PTR ?m_ObjBill@@3PAVBILL_CLASS@@A[edx*8+12]
  00203	50		 push	 eax
  00204	8d 4d f4	 lea	 ecx, DWORD PTR _szMonth$241775[ebp]
  00207	51		 push	 ecx
  00208	e8 00 00 00 00	 call	 _strncpy

; 5086 : 		strncpy(szDay, m_ObjBill[lpObj->m_Index].GetEndsDays()+6, 2);

  0020d	8b 06		 mov	 eax, DWORD PTR [esi]
  0020f	8d 14 40	 lea	 edx, DWORD PTR [eax+eax*2]
  00212	6a 02		 push	 2
  00214	8d 04 d5 0e 00
	00 00		 lea	 eax, DWORD PTR ?m_ObjBill@@3PAVBILL_CLASS@@A[edx*8+14]
  0021b	50		 push	 eax
  0021c	8d 8d 4c ff ff
	ff		 lea	 ecx, DWORD PTR _szDay$241776[ebp]
  00222	51		 push	 ecx
  00223	e8 00 00 00 00	 call	 _strncpy

; 5087 : 		strncpy(szHour, m_ObjBill[lpObj->m_Index].GetEndsDays()+8, 2);

  00228	8b 06		 mov	 eax, DWORD PTR [esi]
  0022a	8d 14 40	 lea	 edx, DWORD PTR [eax+eax*2]
  0022d	6a 02		 push	 2
  0022f	8d 04 d5 10 00
	00 00		 lea	 eax, DWORD PTR ?m_ObjBill@@3PAVBILL_CLASS@@A[edx*8+16]
  00236	50		 push	 eax
  00237	8d 8d 54 ff ff
	ff		 lea	 ecx, DWORD PTR _szHour$241777[ebp]
  0023d	51		 push	 ecx
  0023e	e8 00 00 00 00	 call	 _strncpy

; 5088 : 		strncpy(szMin, m_ObjBill[lpObj->m_Index].GetEndsDays()+10, 2);

  00243	8b 06		 mov	 eax, DWORD PTR [esi]
  00245	8d 14 40	 lea	 edx, DWORD PTR [eax+eax*2]
  00248	6a 02		 push	 2
  0024a	8d 04 d5 12 00
	00 00		 lea	 eax, DWORD PTR ?m_ObjBill@@3PAVBILL_CLASS@@A[edx*8+18]
  00251	50		 push	 eax
  00252	8d 8d 50 ff ff
	ff		 lea	 ecx, DWORD PTR _szMin$241778[ebp]
  00258	51		 push	 ecx
  00259	e8 00 00 00 00	 call	 _strncpy

; 5089 : 
; 5090 : 		wsprintf(szMsg, lMsg.Get(MSGGET(5, 220)), m_ObjBill[lpObj->m_Index].GetEndTime(), szYear, szMonth, szDay, szHour, szMin);

  0025e	8b 06		 mov	 eax, DWORD PTR [esi]
  00260	83 c4 3c	 add	 esp, 60			; 0000003cH
  00263	8d 14 40	 lea	 edx, DWORD PTR [eax+eax*2]
  00266	8b 04 d5 04 00
	00 00		 mov	 eax, DWORD PTR ?m_ObjBill@@3PAVBILL_CLASS@@A[edx*8+4]
  0026d	8d 8d 50 ff ff
	ff		 lea	 ecx, DWORD PTR _szMin$241778[ebp]
  00273	51		 push	 ecx
  00274	8d 95 54 ff ff
	ff		 lea	 edx, DWORD PTR _szHour$241777[ebp]
  0027a	52		 push	 edx
  0027b	8d 8d 4c ff ff
	ff		 lea	 ecx, DWORD PTR _szDay$241776[ebp]
  00281	51		 push	 ecx
  00282	8d 55 f4	 lea	 edx, DWORD PTR _szMonth$241775[ebp]
  00285	52		 push	 edx
  00286	8d 4d ec	 lea	 ecx, DWORD PTR _szYear$241774[ebp]
  00289	51		 push	 ecx
  0028a	50		 push	 eax
  0028b	68 dc 05 00 00	 push	 1500			; 000005dcH
  00290	b9 00 00 00 00	 mov	 ecx, OFFSET ?lMsg@@3VCMsg@@A ; lMsg
  00295	e8 00 00 00 00	 call	 ?Get@CMsg@@QAEPADH@Z	; CMsg::Get
  0029a	50		 push	 eax
  0029b	8d 95 58 ff ff
	ff		 lea	 edx, DWORD PTR _szMsg$[ebp]
  002a1	52		 push	 edx
  002a2	ff 15 00 00 00
	00		 call	 DWORD PTR __imp__wsprintfA

; 5091 : 
; 5092 : 		LogAddTD("[%s][%s] BillType : (Time) RemainPoint : (%d)", lpObj->AccountID, lpObj->Name, m_ObjBill[lpObj->m_Index].GetEndTime());

  002a8	8b 06		 mov	 eax, DWORD PTR [esi]
  002aa	8d 04 40	 lea	 eax, DWORD PTR [eax+eax*2]
  002ad	8b 0c c5 04 00
	00 00		 mov	 ecx, DWORD PTR ?m_ObjBill@@3PAVBILL_CLASS@@A[eax*8+4]
  002b4	51		 push	 ecx
  002b5	8d 56 77	 lea	 edx, DWORD PTR [esi+119]
  002b8	52		 push	 edx
  002b9	8d 46 6c	 lea	 eax, DWORD PTR [esi+108]
  002bc	50		 push	 eax
  002bd	68 00 00 00 00	 push	 OFFSET ??_C@_0CO@CIBMOLHH@?$FL?$CFs?$FN?$FL?$CFs?$FN?5BillType?5?3?5?$CITime?$CJ?5Remai@
  002c2	ff 15 00 00 00
	00		 call	 DWORD PTR ?LogAddTD@@3P6AXPADZZA ; LogAddTD
  002c8	83 c4 30	 add	 esp, 48			; 00000030H
  002cb	e9 26 01 00 00	 jmp	 $LN1@gObjBillRe
$LN6@gObjBillRe:

; 5093 : 	}
; 5094 : 	else if ( m_ObjBill[lpObj->m_Index].GetPayCode() == 4)

  002d0	80 f9 04	 cmp	 cl, 4
  002d3	0f 85 c8 00 00
	00		 jne	 $LN4@gObjBillRe

; 5095 : 	{
; 5096 : 		char szYear[5] = "";
; 5097 : 		char szMonth[3] = "";

  002d9	33 c9		 xor	 ecx, ecx

; 5098 : 		char szDay[3] = "";
; 5099 : 
; 5100 : 		strncpy(szYear, m_ObjBill[lpObj->m_Index].GetEndsDays(), 4);

  002db	6a 04		 push	 4
  002dd	8d 80 08 00 00
	00		 lea	 eax, DWORD PTR ?m_ObjBill@@3PAVBILL_CLASS@@A[eax+8]
  002e3	66 89 8d 51 ff
	ff ff		 mov	 WORD PTR _szMonth$241783[ebp+1], cx
  002ea	50		 push	 eax
  002eb	8d 4d f4	 lea	 ecx, DWORD PTR _szYear$241782[ebp]
  002ee	33 d2		 xor	 edx, edx
  002f0	51		 push	 ecx
  002f1	88 5d f4	 mov	 BYTE PTR _szYear$241782[ebp], bl
  002f4	89 5d f5	 mov	 DWORD PTR _szYear$241782[ebp+1], ebx
  002f7	88 9d 50 ff ff
	ff		 mov	 BYTE PTR _szMonth$241783[ebp], bl
  002fd	88 9d 54 ff ff
	ff		 mov	 BYTE PTR _szDay$241784[ebp], bl
  00303	66 89 95 55 ff
	ff ff		 mov	 WORD PTR _szDay$241784[ebp+1], dx
  0030a	e8 00 00 00 00	 call	 _strncpy

; 5101 : 		strncpy(szMonth, m_ObjBill[lpObj->m_Index].GetEndsDays()+4, 2);

  0030f	8b 06		 mov	 eax, DWORD PTR [esi]
  00311	8d 14 40	 lea	 edx, DWORD PTR [eax+eax*2]
  00314	6a 02		 push	 2
  00316	8d 04 d5 0c 00
	00 00		 lea	 eax, DWORD PTR ?m_ObjBill@@3PAVBILL_CLASS@@A[edx*8+12]
  0031d	50		 push	 eax
  0031e	8d 8d 50 ff ff
	ff		 lea	 ecx, DWORD PTR _szMonth$241783[ebp]
  00324	51		 push	 ecx
  00325	e8 00 00 00 00	 call	 _strncpy

; 5102 : 		strncpy(szDay, m_ObjBill[lpObj->m_Index].GetEndsDays()+6, 2);

  0032a	8b 06		 mov	 eax, DWORD PTR [esi]
  0032c	8d 14 40	 lea	 edx, DWORD PTR [eax+eax*2]
  0032f	6a 02		 push	 2
  00331	8d 04 d5 0e 00
	00 00		 lea	 eax, DWORD PTR ?m_ObjBill@@3PAVBILL_CLASS@@A[edx*8+14]
  00338	50		 push	 eax
  00339	8d 8d 54 ff ff
	ff		 lea	 ecx, DWORD PTR _szDay$241784[ebp]
  0033f	51		 push	 ecx
  00340	e8 00 00 00 00	 call	 _strncpy
  00345	83 c4 24	 add	 esp, 36			; 00000024H

; 5103 : 
; 5104 : 		wsprintf(szMsg, lMsg.Get(MSGGET(5, 221)),  szYear, szMonth,	szDay);

  00348	8d 95 54 ff ff
	ff		 lea	 edx, DWORD PTR _szDay$241784[ebp]
  0034e	52		 push	 edx
  0034f	8d 85 50 ff ff
	ff		 lea	 eax, DWORD PTR _szMonth$241783[ebp]
  00355	50		 push	 eax
  00356	8d 4d f4	 lea	 ecx, DWORD PTR _szYear$241782[ebp]
  00359	51		 push	 ecx
  0035a	68 dd 05 00 00	 push	 1501			; 000005ddH
  0035f	b9 00 00 00 00	 mov	 ecx, OFFSET ?lMsg@@3VCMsg@@A ; lMsg
  00364	e8 00 00 00 00	 call	 ?Get@CMsg@@QAEPADH@Z	; CMsg::Get
  00369	50		 push	 eax
  0036a	8d 95 58 ff ff
	ff		 lea	 edx, DWORD PTR _szMsg$[ebp]
  00370	52		 push	 edx
  00371	ff 15 00 00 00
	00		 call	 DWORD PTR __imp__wsprintfA

; 5105 : 
; 5106 : 		LogAddTD("[%s][%s] BillType : (Date) RemainDate : (%s-%s-%s)",
; 5107 : 			lpObj->AccountID, lpObj->Name, szYear, szMonth, szDay);

  00377	8d 85 54 ff ff
	ff		 lea	 eax, DWORD PTR _szDay$241784[ebp]
  0037d	50		 push	 eax
  0037e	8d 8d 50 ff ff
	ff		 lea	 ecx, DWORD PTR _szMonth$241783[ebp]
  00384	51		 push	 ecx
  00385	8d 55 f4	 lea	 edx, DWORD PTR _szYear$241782[ebp]
  00388	52		 push	 edx
  00389	8d 46 77	 lea	 eax, DWORD PTR [esi+119]
  0038c	50		 push	 eax
  0038d	8d 4e 6c	 lea	 ecx, DWORD PTR [esi+108]
  00390	51		 push	 ecx
  00391	68 00 00 00 00	 push	 OFFSET ??_C@_0DD@EGADHIAE@?$FL?$CFs?$FN?$FL?$CFs?$FN?5BillType?5?3?5?$CIDate?$CJ?5Remai@
  00396	ff 15 00 00 00
	00		 call	 DWORD PTR ?LogAddTD@@3P6AXPADZZA ; LogAddTD
  0039c	83 c4 2c	 add	 esp, 44			; 0000002cH
  0039f	eb 55		 jmp	 SHORT $LN1@gObjBillRe
$LN4@gObjBillRe:

; 5108 : 	}
; 5109 : 	else if ( m_ObjBill[lpObj->m_Index].GetPayCode() == 5)

  003a1	80 f9 05	 cmp	 cl, 5

; 5110 : 	{
; 5111 : 		wsprintf(szMsg, lMsg.Get(MSGGET(5, 222)));

  003a4	b9 00 00 00 00	 mov	 ecx, OFFSET ?lMsg@@3VCMsg@@A ; lMsg
  003a9	75 30		 jne	 SHORT $LN2@gObjBillRe
  003ab	68 de 05 00 00	 push	 1502			; 000005deH
  003b0	e8 00 00 00 00	 call	 ?Get@CMsg@@QAEPADH@Z	; CMsg::Get
  003b5	50		 push	 eax
  003b6	8d 95 58 ff ff
	ff		 lea	 edx, DWORD PTR _szMsg$[ebp]
  003bc	52		 push	 edx
  003bd	ff 15 00 00 00
	00		 call	 DWORD PTR __imp__wsprintfA

; 5112 : 		LogAddTD("[%s][%s] BillType : (NoCharge)", lpObj->AccountID, lpObj->Name);

  003c3	8d 46 77	 lea	 eax, DWORD PTR [esi+119]
  003c6	50		 push	 eax
  003c7	8d 4e 6c	 lea	 ecx, DWORD PTR [esi+108]
  003ca	51		 push	 ecx
  003cb	68 00 00 00 00	 push	 OFFSET ??_C@_0BP@FCDEDEIA@?$FL?$CFs?$FN?$FL?$CFs?$FN?5BillType?5?3?5?$CINoCharge?$CJ?$AA@
  003d0	ff 15 00 00 00
	00		 call	 DWORD PTR ?LogAddTD@@3P6AXPADZZA ; LogAddTD
  003d6	83 c4 14	 add	 esp, 20			; 00000014H

; 5113 : 	}
; 5114 : 	else

  003d9	eb 1b		 jmp	 SHORT $LN1@gObjBillRe
$LN2@gObjBillRe:

; 5115 : 	{
; 5116 : 		wsprintf(szMsg, lMsg.Get(MSGGET(4, 89)));

  003db	68 59 04 00 00	 push	 1113			; 00000459H
  003e0	e8 00 00 00 00	 call	 ?Get@CMsg@@QAEPADH@Z	; CMsg::Get
  003e5	50		 push	 eax
  003e6	8d 95 58 ff ff
	ff		 lea	 edx, DWORD PTR _szMsg$[ebp]
  003ec	52		 push	 edx
  003ed	ff 15 00 00 00
	00		 call	 DWORD PTR __imp__wsprintfA
  003f3	83 c4 08	 add	 esp, 8
$LN1@gObjBillRe:

; 5117 : 	}
; 5118 : 
; 5119 : 
; 5120 : 	LogAdd(szMsg);

  003f6	8d 85 58 ff ff
	ff		 lea	 eax, DWORD PTR _szMsg$[ebp]
  003fc	50		 push	 eax
  003fd	ff 15 00 00 00
	00		 call	 DWORD PTR ?LogAdd@@3P6AXPADZZA ; LogAdd

; 5121 : 	GCServerMsgStringSend(szMsg, lpObj->m_Index, 1);

  00403	8b 0e		 mov	 ecx, DWORD PTR [esi]
  00405	6a 01		 push	 1
  00407	51		 push	 ecx
  00408	8d 95 58 ff ff
	ff		 lea	 edx, DWORD PTR _szMsg$[ebp]
  0040e	52		 push	 edx
  0040f	e8 00 00 00 00	 call	 ?GCServerMsgStringSend@@YAXPADHE@Z ; GCServerMsgStringSend

; 5122 : }

  00414	8b 4d fc	 mov	 ecx, DWORD PTR __$ArrayPad$[ebp]
  00417	83 c4 10	 add	 esp, 16			; 00000010H
  0041a	5f		 pop	 edi
  0041b	5e		 pop	 esi
  0041c	33 cd		 xor	 ecx, ebp
  0041e	5b		 pop	 ebx
  0041f	e8 00 00 00 00	 call	 @__security_check_cookie@4
  00424	8b e5		 mov	 esp, ebp
  00426	5d		 pop	 ebp
  00427	c3		 ret	 0
?gObjBillRequest@@YAXPAUOBJECTSTRUCT@@@Z ENDP		; gObjBillRequest
_TEXT	ENDS
PUBLIC	?gObjIsGamePlaing@@YAHPAUOBJECTSTRUCT@@@Z	; gObjIsGamePlaing
; Function compile flags: /Ogtp
;	COMDAT ?gObjIsGamePlaing@@YAHPAUOBJECTSTRUCT@@@Z
_TEXT	SEGMENT
_lpObj$ = 8						; size = 4
?gObjIsGamePlaing@@YAHPAUOBJECTSTRUCT@@@Z PROC		; gObjIsGamePlaing, COMDAT

; 5480 : {

  00000	55		 push	 ebp
  00001	8b ec		 mov	 ebp, esp

; 5481 : 	if ( lpObj->Connected < PLAYER_PLAYING )

  00003	8b 4d 08	 mov	 ecx, DWORD PTR _lpObj$[ebp]
  00006	33 c0		 xor	 eax, eax
  00008	83 79 04 03	 cmp	 DWORD PTR [ecx+4], 3
  0000c	0f 9d c0	 setge	 al

; 5482 : 	{
; 5483 : 		return false;
; 5484 : 	}
; 5485 : 
; 5486 : 	return TRUE;
; 5487 : }

  0000f	5d		 pop	 ebp
  00010	c3		 ret	 0
?gObjIsGamePlaing@@YAHPAUOBJECTSTRUCT@@@Z ENDP		; gObjIsGamePlaing
_TEXT	ENDS
PUBLIC	?gObjIsConnectedGP@@YAHH@Z			; gObjIsConnectedGP
; Function compile flags: /Ogtp
;	COMDAT ?gObjIsConnectedGP@@YAHH@Z
_TEXT	SEGMENT
_aIndex$ = 8						; size = 4
?gObjIsConnectedGP@@YAHH@Z PROC				; gObjIsConnectedGP, COMDAT

; 5490 : {

  00000	55		 push	 ebp
  00001	8b ec		 mov	 ebp, esp

; 5491 : 	if (aIndex < 0 || aIndex > OBJMAX-1 )

  00003	8b 45 08	 mov	 eax, DWORD PTR _aIndex$[ebp]
  00006	3d 97 3a 00 00	 cmp	 eax, 14999		; 00003a97H
  0000b	77 28		 ja	 SHORT $LN4@gObjIsConn

; 5494 : 	}
; 5495 : 	
; 5496 : 	if ( gObj[aIndex].Type != OBJ_USER )

  0000d	8b 0d 00 00 00
	00		 mov	 ecx, DWORD PTR ?gObj@@3PAUOBJECTSTRUCT@@A ; gObj
  00013	69 c0 50 2b 00
	00		 imul	 eax, 11088		; 00002b50H
  00019	66 83 7c 08 68
	01		 cmp	 WORD PTR [eax+ecx+104], 1

; 5497 : 	{
; 5498 : 		return FALSE;

  0001f	75 14		 jne	 SHORT $LN4@gObjIsConn

; 5499 : 	}
; 5500 : 
; 5501 : 	if ( gObj[aIndex].Connected < PLAYER_PLAYING )

  00021	83 7c 08 04 03	 cmp	 DWORD PTR [eax+ecx+4], 3

; 5502 : 	{
; 5503 : 		return FALSE;

  00026	7c 0d		 jl	 SHORT $LN4@gObjIsConn

; 5504 : 	}
; 5505 : 
; 5506 : 	if ( gObj[aIndex].CloseCount > 0 )

  00028	33 d2		 xor	 edx, edx
  0002a	38 54 08 0a	 cmp	 BYTE PTR [eax+ecx+10], dl
  0002e	0f 9e c2	 setle	 dl
  00031	8b c2		 mov	 eax, edx

; 5507 : 	{
; 5508 : 		return FALSE;
; 5509 : 	}
; 5510 : 
; 5511 : 	return TRUE;
; 5512 : }

  00033	5d		 pop	 ebp
  00034	c3		 ret	 0
$LN4@gObjIsConn:

; 5492 : 	{
; 5493 : 		return FALSE;

  00035	33 c0		 xor	 eax, eax

; 5507 : 	{
; 5508 : 		return FALSE;
; 5509 : 	}
; 5510 : 
; 5511 : 	return TRUE;
; 5512 : }

  00037	5d		 pop	 ebp
  00038	c3		 ret	 0
?gObjIsConnectedGP@@YAHH@Z ENDP				; gObjIsConnectedGP
_TEXT	ENDS
PUBLIC	?gObjIsConnectedGP@@YAHHPAD@Z			; gObjIsConnectedGP
; Function compile flags: /Ogtp
;	COMDAT ?gObjIsConnectedGP@@YAHHPAD@Z
_TEXT	SEGMENT
_aIndex$ = 8						; size = 4
_CharName$ = 12						; size = 4
?gObjIsConnectedGP@@YAHHPAD@Z PROC			; gObjIsConnectedGP, COMDAT

; 5515 : {

  00000	55		 push	 ebp
  00001	8b ec		 mov	 ebp, esp

; 5516 : 	if (aIndex < 0 || aIndex > OBJMAX-1 )

  00003	8b 45 08	 mov	 eax, DWORD PTR _aIndex$[ebp]
  00006	3d 97 3a 00 00	 cmp	 eax, 14999		; 00003a97H
  0000b	77 5e		 ja	 SHORT $LN5@gObjIsConn@2

; 5519 : 	}
; 5520 : 	
; 5521 : 	if ( gObj[aIndex].Type != OBJ_USER )

  0000d	69 c0 50 2b 00
	00		 imul	 eax, 11088		; 00002b50H
  00013	03 05 00 00 00
	00		 add	 eax, DWORD PTR ?gObj@@3PAUOBJECTSTRUCT@@A ; gObj
  00019	66 83 78 68 01	 cmp	 WORD PTR [eax+104], 1

; 5522 : 	{
; 5523 : 		return FALSE;

  0001e	75 4b		 jne	 SHORT $LN5@gObjIsConn@2

; 5524 : 	}
; 5525 : 
; 5526 : 	if ( gObj[aIndex].Connected < PLAYER_PLAYING )

  00020	83 78 04 03	 cmp	 DWORD PTR [eax+4], 3

; 5527 : 	{
; 5528 : 		return FALSE;

  00024	7c 45		 jl	 SHORT $LN5@gObjIsConn@2

; 5529 : 	}
; 5530 : 
; 5531 : 	if ( gObj[aIndex].CloseCount > 0 )

  00026	80 78 0a 00	 cmp	 BYTE PTR [eax+10], 0

; 5532 : 	{
; 5533 : 		return FALSE;

  0002a	7f 3f		 jg	 SHORT $LN5@gObjIsConn@2

; 5534 : 	}
; 5535 : 
; 5536 : 	if ( strcmp(gObj[aIndex].Name, CharName) != 0 )

  0002c	8b 4d 0c	 mov	 ecx, DWORD PTR _CharName$[ebp]
  0002f	83 c0 77	 add	 eax, 119		; 00000077H
$LL9@gObjIsConn@2:
  00032	8a 10		 mov	 dl, BYTE PTR [eax]
  00034	3a 11		 cmp	 dl, BYTE PTR [ecx]
  00036	75 23		 jne	 SHORT $LN10@gObjIsConn@2
  00038	84 d2		 test	 dl, dl
  0003a	74 12		 je	 SHORT $LN11@gObjIsConn@2
  0003c	8a 50 01	 mov	 dl, BYTE PTR [eax+1]
  0003f	3a 51 01	 cmp	 dl, BYTE PTR [ecx+1]
  00042	75 17		 jne	 SHORT $LN10@gObjIsConn@2
  00044	83 c0 02	 add	 eax, 2
  00047	83 c1 02	 add	 ecx, 2
  0004a	84 d2		 test	 dl, dl
  0004c	75 e4		 jne	 SHORT $LL9@gObjIsConn@2
$LN11@gObjIsConn@2:
  0004e	33 c0		 xor	 eax, eax
  00050	33 d2		 xor	 edx, edx
  00052	85 c0		 test	 eax, eax
  00054	0f 94 c2	 sete	 dl
  00057	8b c2		 mov	 eax, edx

; 5537 : 	{
; 5538 : 		return FALSE;
; 5539 : 	}
; 5540 : 
; 5541 : 	return TRUE;
; 5542 : }

  00059	5d		 pop	 ebp
  0005a	c3		 ret	 0
$LN10@gObjIsConn@2:

; 5534 : 	}
; 5535 : 
; 5536 : 	if ( strcmp(gObj[aIndex].Name, CharName) != 0 )

  0005b	1b c0		 sbb	 eax, eax
  0005d	83 d8 ff	 sbb	 eax, -1
  00060	33 d2		 xor	 edx, edx
  00062	85 c0		 test	 eax, eax
  00064	0f 94 c2	 sete	 dl
  00067	8b c2		 mov	 eax, edx

; 5537 : 	{
; 5538 : 		return FALSE;
; 5539 : 	}
; 5540 : 
; 5541 : 	return TRUE;
; 5542 : }

  00069	5d		 pop	 ebp
  0006a	c3		 ret	 0
$LN5@gObjIsConn@2:

; 5517 : 	{
; 5518 : 		return FALSE;

  0006b	33 c0		 xor	 eax, eax

; 5537 : 	{
; 5538 : 		return FALSE;
; 5539 : 	}
; 5540 : 
; 5541 : 	return TRUE;
; 5542 : }

  0006d	5d		 pop	 ebp
  0006e	c3		 ret	 0
?gObjIsConnectedGP@@YAHHPAD@Z ENDP			; gObjIsConnectedGP
_TEXT	ENDS
PUBLIC	?gObjIsConnected@@YAHPAUOBJECTSTRUCT@@@Z	; gObjIsConnected
; Function compile flags: /Ogtp
;	COMDAT ?gObjIsConnected@@YAHPAUOBJECTSTRUCT@@@Z
_TEXT	SEGMENT
_lpObj$ = 8						; size = 4
?gObjIsConnected@@YAHPAUOBJECTSTRUCT@@@Z PROC		; gObjIsConnected, COMDAT

; 5545 : {

  00000	55		 push	 ebp
  00001	8b ec		 mov	 ebp, esp

; 5546 : 	if ( lpObj->Type != OBJ_USER )

  00003	8b 45 08	 mov	 eax, DWORD PTR _lpObj$[ebp]
  00006	66 83 78 68 01	 cmp	 WORD PTR [eax+104], 1
  0000b	74 04		 je	 SHORT $LN3@gObjIsConn@3
$LN6@gObjIsConn@3:

; 5547 : 	{
; 5548 : 		return FALSE;

  0000d	33 c0		 xor	 eax, eax

; 5557 : 	{
; 5558 : 		return FALSE;
; 5559 : 	}
; 5560 : 
; 5561 : 	return TRUE;
; 5562 : }

  0000f	5d		 pop	 ebp
  00010	c3		 ret	 0
$LN3@gObjIsConn@3:

; 5549 : 	}
; 5550 : 
; 5551 : 	if ( lpObj->Connected < PLAYER_PLAYING )

  00011	83 78 04 03	 cmp	 DWORD PTR [eax+4], 3

; 5552 : 	{
; 5553 : 		return FALSE;

  00015	7c f6		 jl	 SHORT $LN6@gObjIsConn@3

; 5554 : 	}
; 5555 : 
; 5556 : 	if ( lpObj->CloseCount > 0 )

  00017	33 c9		 xor	 ecx, ecx
  00019	38 48 0a	 cmp	 BYTE PTR [eax+10], cl
  0001c	0f 9e c1	 setle	 cl
  0001f	8b c1		 mov	 eax, ecx

; 5557 : 	{
; 5558 : 		return FALSE;
; 5559 : 	}
; 5560 : 
; 5561 : 	return TRUE;
; 5562 : }

  00021	5d		 pop	 ebp
  00022	c3		 ret	 0
?gObjIsConnected@@YAHPAUOBJECTSTRUCT@@@Z ENDP		; gObjIsConnected
_TEXT	ENDS
PUBLIC	?gObjIsConnected@@YAHH@Z			; gObjIsConnected
; Function compile flags: /Ogtp
;	COMDAT ?gObjIsConnected@@YAHH@Z
_TEXT	SEGMENT
_aIndex$ = 8						; size = 4
?gObjIsConnected@@YAHH@Z PROC				; gObjIsConnected, COMDAT

; 5565 : {

  00000	55		 push	 ebp
  00001	8b ec		 mov	 ebp, esp

; 5566 : 	if ( aIndex < 0 || aIndex > OBJMAX-1)

  00003	8b 45 08	 mov	 eax, DWORD PTR _aIndex$[ebp]
  00006	3d 97 3a 00 00	 cmp	 eax, 14999		; 00003a97H
  0000b	77 1a		 ja	 SHORT $LN2@gObjIsConn@4

; 5569 : 	}
; 5570 : 	if ( gObj[aIndex].Connected < PLAYER_PLAYING )

  0000d	8b 15 00 00 00
	00		 mov	 edx, DWORD PTR ?gObj@@3PAUOBJECTSTRUCT@@A ; gObj
  00013	69 c0 50 2b 00
	00		 imul	 eax, 11088		; 00002b50H
  00019	33 c9		 xor	 ecx, ecx
  0001b	83 7c 10 04 03	 cmp	 DWORD PTR [eax+edx+4], 3
  00020	0f 9d c1	 setge	 cl
  00023	8b c1		 mov	 eax, ecx

; 5571 : 	{
; 5572 : 		return FALSE;
; 5573 : 	}
; 5574 : 	return TRUE;
; 5575 : }

  00025	5d		 pop	 ebp
  00026	c3		 ret	 0
$LN2@gObjIsConn@4:

; 5567 : 	{
; 5568 : 		return FALSE;

  00027	33 c0		 xor	 eax, eax

; 5571 : 	{
; 5572 : 		return FALSE;
; 5573 : 	}
; 5574 : 	return TRUE;
; 5575 : }

  00029	5d		 pop	 ebp
  0002a	c3		 ret	 0
?gObjIsConnected@@YAHH@Z ENDP				; gObjIsConnected
_TEXT	ENDS
PUBLIC	?gObjIsConnectedZt@@YA_NH@Z			; gObjIsConnectedZt
; Function compile flags: /Ogtp
;	COMDAT ?gObjIsConnectedZt@@YA_NH@Z
_TEXT	SEGMENT
_aIndex$ = 8						; size = 4
?gObjIsConnectedZt@@YA_NH@Z PROC			; gObjIsConnectedZt, COMDAT

; 5578 : {

  00000	55		 push	 ebp
  00001	8b ec		 mov	 ebp, esp

; 5579 : 	if ( aIndex < 0 || aIndex > OBJMAX-1)

  00003	8b 45 08	 mov	 eax, DWORD PTR _aIndex$[ebp]
  00006	3d 97 3a 00 00	 cmp	 eax, 14999		; 00003a97H
  0000b	77 1c		 ja	 SHORT $LN3@gObjIsConn@5

; 5582 : 	}
; 5583 : 	if ( gObj[aIndex].Connected < PLAYER_PLAYING )

  0000d	69 c0 50 2b 00
	00		 imul	 eax, 11088		; 00002b50H
  00013	03 05 00 00 00
	00		 add	 eax, DWORD PTR ?gObj@@3PAUOBJECTSTRUCT@@A ; gObj
  00019	83 78 04 03	 cmp	 DWORD PTR [eax+4], 3

; 5584 : 	{
; 5585 : 		return FALSE;

  0001d	7c 0a		 jl	 SHORT $LN3@gObjIsConn@5

; 5586 : 	}
; 5587 : 	if(gObj[aIndex].Type != OBJ_USER)

  0001f	66 83 78 68 01	 cmp	 WORD PTR [eax+104], 1
  00024	0f 94 c0	 sete	 al

; 5588 : 	{
; 5589 : 		return FALSE;
; 5590 : 	}
; 5591 : 
; 5592 : 	return TRUE;
; 5593 : }

  00027	5d		 pop	 ebp
  00028	c3		 ret	 0
$LN3@gObjIsConn@5:

; 5580 : 	{
; 5581 : 		return FALSE;

  00029	32 c0		 xor	 al, al

; 5588 : 	{
; 5589 : 		return FALSE;
; 5590 : 	}
; 5591 : 
; 5592 : 	return TRUE;
; 5593 : }

  0002b	5d		 pop	 ebp
  0002c	c3		 ret	 0
?gObjIsConnectedZt@@YA_NH@Z ENDP			; gObjIsConnectedZt
_TEXT	ENDS
PUBLIC	?gObjIsConnected@@YAHPAUOBJECTSTRUCT@@H@Z	; gObjIsConnected
; Function compile flags: /Ogtp
;	COMDAT ?gObjIsConnected@@YAHPAUOBJECTSTRUCT@@H@Z
_TEXT	SEGMENT
_lpObj$ = 8						; size = 4
_dbnumber$ = 12						; size = 4
?gObjIsConnected@@YAHPAUOBJECTSTRUCT@@H@Z PROC		; gObjIsConnected, COMDAT

; 5596 : {

  00000	55		 push	 ebp
  00001	8b ec		 mov	 ebp, esp

; 5597 : 	if (lpObj->Connected < PLAYER_PLAYING)

  00003	8b 45 08	 mov	 eax, DWORD PTR _lpObj$[ebp]
  00006	83 78 04 03	 cmp	 DWORD PTR [eax+4], 3
  0000a	7d 04		 jge	 SHORT $LN2@gObjIsConn@6

; 5598 : 	{
; 5599 : 		return 0;

  0000c	33 c0		 xor	 eax, eax

; 5603 : 	{
; 5604 : 		return 0;
; 5605 : 	}
; 5606 : 
; 5607 : 	return 1;
; 5608 : }

  0000e	5d		 pop	 ebp
  0000f	c3		 ret	 0
$LN2@gObjIsConn@6:

; 5600 : 	}
; 5601 : 
; 5602 : 	if (lpObj->DBNumber != dbnumber)

  00010	8b 50 2c	 mov	 edx, DWORD PTR [eax+44]
  00013	33 c9		 xor	 ecx, ecx
  00015	3b 55 0c	 cmp	 edx, DWORD PTR _dbnumber$[ebp]
  00018	0f 94 c1	 sete	 cl
  0001b	8b c1		 mov	 eax, ecx

; 5603 : 	{
; 5604 : 		return 0;
; 5605 : 	}
; 5606 : 
; 5607 : 	return 1;
; 5608 : }

  0001d	5d		 pop	 ebp
  0001e	c3		 ret	 0
?gObjIsConnected@@YAHPAUOBJECTSTRUCT@@H@Z ENDP		; gObjIsConnected
_TEXT	ENDS
PUBLIC	?gObjIsAccontConnect@@YAHHPAD@Z			; gObjIsAccontConnect
; Function compile flags: /Ogtp
;	COMDAT ?gObjIsAccontConnect@@YAHHPAD@Z
_TEXT	SEGMENT
_aIndex$ = 8						; size = 4
_accountid$ = 12					; size = 4
?gObjIsAccontConnect@@YAHHPAD@Z PROC			; gObjIsAccontConnect, COMDAT

; 5611 : {

  00000	55		 push	 ebp
  00001	8b ec		 mov	 ebp, esp

; 5612 : 	if (aIndex <0 || aIndex > OBJMAX-1)

  00003	8b 45 08	 mov	 eax, DWORD PTR _aIndex$[ebp]
  00006	3d 97 3a 00 00	 cmp	 eax, 14999		; 00003a97H
  0000b	77 6e		 ja	 SHORT $LN4@gObjIsAcco

; 5615 : 	}
; 5616 : 
; 5617 : 	if (gObj[aIndex].Connected< PLAYER_CONNECTED)

  0000d	8b 0d 00 00 00
	00		 mov	 ecx, DWORD PTR ?gObj@@3PAUOBJECTSTRUCT@@A ; gObj
  00013	69 c0 50 2b 00
	00		 imul	 eax, 11088		; 00002b50H
  00019	83 7c 08 04 01	 cmp	 DWORD PTR [eax+ecx+4], 1

; 5618 : 	{
; 5619 : 		return 0;

  0001e	7c 5b		 jl	 SHORT $LN4@gObjIsAcco

; 5620 : 	}
; 5621 : 
; 5622 : 	if (strlen(&gObj[aIndex].AccountID[0]) < 1 )

  00020	8d 4c 08 6c	 lea	 ecx, DWORD PTR [eax+ecx+108]
  00024	8b c1		 mov	 eax, ecx
  00026	56		 push	 esi
  00027	8d 70 01	 lea	 esi, DWORD PTR [eax+1]
  0002a	8d 9b 00 00 00
	00		 npad	 6
$LL8@gObjIsAcco:
  00030	8a 10		 mov	 dl, BYTE PTR [eax]
  00032	40		 inc	 eax
  00033	84 d2		 test	 dl, dl
  00035	75 f9		 jne	 SHORT $LL8@gObjIsAcco
  00037	2b c6		 sub	 eax, esi
  00039	5e		 pop	 esi
  0003a	83 f8 01	 cmp	 eax, 1

; 5623 : 	{
; 5624 : 		return 0;

  0003d	72 3c		 jb	 SHORT $LN4@gObjIsAcco

; 5625 : 	}
; 5626 : 
; 5627 : 	if ( strcmp(accountid, &gObj[aIndex].AccountID[0]) != 0)

  0003f	8b 45 0c	 mov	 eax, DWORD PTR _accountid$[ebp]
$LL9@gObjIsAcco:
  00042	8a 10		 mov	 dl, BYTE PTR [eax]
  00044	3a 11		 cmp	 dl, BYTE PTR [ecx]
  00046	75 23		 jne	 SHORT $LN10@gObjIsAcco
  00048	84 d2		 test	 dl, dl
  0004a	74 12		 je	 SHORT $LN11@gObjIsAcco
  0004c	8a 50 01	 mov	 dl, BYTE PTR [eax+1]
  0004f	3a 51 01	 cmp	 dl, BYTE PTR [ecx+1]
  00052	75 17		 jne	 SHORT $LN10@gObjIsAcco
  00054	83 c0 02	 add	 eax, 2
  00057	83 c1 02	 add	 ecx, 2
  0005a	84 d2		 test	 dl, dl
  0005c	75 e4		 jne	 SHORT $LL9@gObjIsAcco
$LN11@gObjIsAcco:
  0005e	33 c0		 xor	 eax, eax
  00060	33 d2		 xor	 edx, edx
  00062	85 c0		 test	 eax, eax
  00064	0f 94 c2	 sete	 dl
  00067	8b c2		 mov	 eax, edx

; 5628 : 	{
; 5629 : 		return 0;
; 5630 : 	}
; 5631 : 	return 1;
; 5632 : }

  00069	5d		 pop	 ebp
  0006a	c3		 ret	 0
$LN10@gObjIsAcco:

; 5625 : 	}
; 5626 : 
; 5627 : 	if ( strcmp(accountid, &gObj[aIndex].AccountID[0]) != 0)

  0006b	1b c0		 sbb	 eax, eax
  0006d	83 d8 ff	 sbb	 eax, -1
  00070	33 d2		 xor	 edx, edx
  00072	85 c0		 test	 eax, eax
  00074	0f 94 c2	 sete	 dl
  00077	8b c2		 mov	 eax, edx

; 5628 : 	{
; 5629 : 		return 0;
; 5630 : 	}
; 5631 : 	return 1;
; 5632 : }

  00079	5d		 pop	 ebp
  0007a	c3		 ret	 0
$LN4@gObjIsAcco:

; 5613 : 	{
; 5614 : 		return 0;

  0007b	33 c0		 xor	 eax, eax

; 5628 : 	{
; 5629 : 		return 0;
; 5630 : 	}
; 5631 : 	return 1;
; 5632 : }

  0007d	5d		 pop	 ebp
  0007e	c3		 ret	 0
?gObjIsAccontConnect@@YAHHPAD@Z ENDP			; gObjIsAccontConnect
_TEXT	ENDS
PUBLIC	?gObjJoominCheck@@YA_NHPAD@Z			; gObjJoominCheck
EXTRN	_strcmpi:PROC
EXTRN	_strncmp:PROC
EXTRN	?gLanguage@@3HA:DWORD				; gLanguage
EXTRN	?ZtConfig@@3VcZtConfigs@@A:BYTE			; ZtConfig
; Function compile flags: /Ogtp
;	COMDAT ?gObjJoominCheck@@YA_NHPAD@Z
_TEXT	SEGMENT
_aIndex$ = 8						; size = 4
_szInJN$ = 12						; size = 4
?gObjJoominCheck@@YA_NHPAD@Z PROC			; gObjJoominCheck, COMDAT

; 5635 : {

  00000	55		 push	 ebp
  00001	8b ec		 mov	 ebp, esp

; 5636 : 	//int Zt_PersonalID = GetPrivateProfileInt("Common","PersonalID",0,"..\\Data\\ZtData\\CommonServer.ini");
; 5637 : 	if(!ZtConfig.CommonServer.Zt_PersonalID)

  00003	83 3d 2c 00 00
	00 00		 cmp	 DWORD PTR ?ZtConfig@@3VcZtConfigs@@A+44, 0
  0000a	75 04		 jne	 SHORT $LN19@gObjJoomin

; 5638 : 		return true;

  0000c	b0 01		 mov	 al, 1

; 5698 : }

  0000e	5d		 pop	 ebp
  0000f	c3		 ret	 0
$LN19@gObjJoomin:

; 5639 : 
; 5640 : 	LPOBJ lpObj = &gObj[aIndex];
; 5641 : 	
; 5642 : 	switch ( gLanguage )

  00010	a1 00 00 00 00	 mov	 eax, DWORD PTR ?gLanguage@@3HA ; gLanguage
  00015	56		 push	 esi
  00016	8b 75 08	 mov	 esi, DWORD PTR _aIndex$[ebp]
  00019	69 f6 50 2b 00
	00		 imul	 esi, 11088		; 00002b50H
  0001f	03 35 00 00 00
	00		 add	 esi, DWORD PTR ?gObj@@3PAUOBJECTSTRUCT@@A ; gObj
  00025	48		 dec	 eax
  00026	57		 push	 edi
  00027	83 f8 07	 cmp	 eax, 7
  0002a	0f 87 9f 00 00
	00		 ja	 $LN2@gObjJoomin
  00030	8b 7d 0c	 mov	 edi, DWORD PTR _szInJN$[ebp]
  00033	ff 24 85 00 00
	00 00		 jmp	 DWORD PTR $LN28@gObjJoomin[eax*4]
$LN16@gObjJoomin:

; 5643 : 	{
; 5644 : 		case 1:
; 5645 : 		case 5:
; 5646 : 		case 6:
; 5647 : 		case 8:
; 5648 : 			if ( strncmp(szInJN, lpObj->LastJoominNumber, 7) == 0 )

  0003a	6a 07		 push	 7
  0003c	8d 86 97 00 00
	00		 lea	 eax, DWORD PTR [esi+151]
  00042	50		 push	 eax
  00043	57		 push	 edi
  00044	e8 00 00 00 00	 call	 _strncmp
  00049	83 c4 0c	 add	 esp, 12			; 0000000cH
  0004c	85 c0		 test	 eax, eax

; 5649 : 			{
; 5650 : 				return TRUE;

  0004e	0f 84 94 00 00
	00		 je	 $LN27@gObjJoomin
$LN15@gObjJoomin:

; 5651 : 			}
; 5652 : 		case 2:
; 5653 : 			if ( strncmp(szInJN, &lpObj->LastJoominNumber[5], 8) == 0 )

  00054	6a 08		 push	 8
  00056	8d 8e 9c 00 00
	00		 lea	 ecx, DWORD PTR [esi+156]
  0005c	51		 push	 ecx
  0005d	57		 push	 edi
  0005e	e8 00 00 00 00	 call	 _strncmp
  00063	83 c4 0c	 add	 esp, 12			; 0000000cH
  00066	85 c0		 test	 eax, eax

; 5654 : 			{
; 5655 : 				return TRUE;

  00068	0f 84 7a 00 00
	00		 je	 $LN27@gObjJoomin
$LN13@gObjJoomin:

; 5656 : 			}
; 5657 : 		case 3:
; 5658 : 			if ( strcmpi(szInJN, &lpObj->LastJoominNumber[6]) == 0 )

  0006e	81 c6 9d 00 00
	00		 add	 esi, 157		; 0000009dH
  00074	56		 push	 esi
  00075	57		 push	 edi
  00076	e8 00 00 00 00	 call	 _strcmpi
  0007b	83 c4 08	 add	 esp, 8

; 5659 : 			{
; 5660 : 				return TRUE;

  0007e	eb 64		 jmp	 SHORT $LN26@gObjJoomin
$LN10@gObjJoomin:

; 5661 : 			}
; 5662 : 			break;
; 5663 : 		case 4:
; 5664 : 			if ( strlen(szInJN) < 2 )

  00080	8b c7		 mov	 eax, edi
  00082	8d 50 01	 lea	 edx, DWORD PTR [eax+1]
$LL22@gObjJoomin:
  00085	8a 08		 mov	 cl, BYTE PTR [eax]
  00087	40		 inc	 eax
  00088	84 c9		 test	 cl, cl
  0008a	75 f9		 jne	 SHORT $LL22@gObjJoomin
  0008c	2b c2		 sub	 eax, edx
  0008e	83 f8 02	 cmp	 eax, 2

; 5665 : 			{
; 5666 : 				return FALSE;

  00091	72 5b		 jb	 SHORT $LN1@gObjJoomin

; 5667 : 			}
; 5668 : 
; 5669 : 			if ( (szInJN[0] >= 'A' && szInJN[0] <= 'Z') || (szInJN[0] >= 'a' && szInJN[0] <= 'z') )

  00093	8a 07		 mov	 al, BYTE PTR [edi]
  00095	3c 41		 cmp	 al, 65			; 00000041H
  00097	7c 04		 jl	 SHORT $LN6@gObjJoomin
  00099	3c 5a		 cmp	 al, 90			; 0000005aH
  0009b	7e 08		 jle	 SHORT $LN7@gObjJoomin
$LN6@gObjJoomin:
  0009d	3c 61		 cmp	 al, 97			; 00000061H
  0009f	7c 4d		 jl	 SHORT $LN1@gObjJoomin
  000a1	3c 7a		 cmp	 al, 122			; 0000007aH
  000a3	7f 49		 jg	 SHORT $LN1@gObjJoomin
$LN7@gObjJoomin:

; 5670 : 			{
; 5671 : 				if ( szInJN[0] >= 'A' && szInJN[0] <= 'Z' )

  000a5	3c 41		 cmp	 al, 65			; 00000041H
  000a7	7c 08		 jl	 SHORT $LN5@gObjJoomin
  000a9	3c 5a		 cmp	 al, 90			; 0000005aH
  000ab	7f 04		 jg	 SHORT $LN5@gObjJoomin

; 5672 : 				{
; 5673 : 					szInJN[0] = szInJN[0] + 32;

  000ad	04 20		 add	 al, 32			; 00000020H
  000af	88 07		 mov	 BYTE PTR [edi], al
$LN5@gObjJoomin:

; 5674 : 				}
; 5675 : 
; 5676 : 				if ( lpObj->LastJoominNumber[0] >= 'A' && lpObj->LastJoominNumber[0] <= 'Z' )

  000b1	8a 86 97 00 00
	00		 mov	 al, BYTE PTR [esi+151]
  000b7	8d 8e 97 00 00
	00		 lea	 ecx, DWORD PTR [esi+151]
  000bd	3c 41		 cmp	 al, 65			; 00000041H
  000bf	7c 08		 jl	 SHORT $LN4@gObjJoomin
  000c1	3c 5a		 cmp	 al, 90			; 0000005aH
  000c3	7f 04		 jg	 SHORT $LN4@gObjJoomin

; 5677 : 				{
; 5678 : 					lpObj->LastJoominNumber[0] = lpObj->LastJoominNumber[0] + 32;

  000c5	04 20		 add	 al, 32			; 00000020H
  000c7	88 01		 mov	 BYTE PTR [ecx], al
$LN4@gObjJoomin:

; 5679 : 				}
; 5680 : 
; 5681 : 				if ( strncmp(lpObj->LastJoominNumber, szInJN, 10) == 0 )

  000c9	6a 0a		 push	 10			; 0000000aH
  000cb	57		 push	 edi
  000cc	51		 push	 ecx

; 5682 : 				{
; 5683 : 					return TRUE;

  000cd	eb 0d		 jmp	 SHORT $LN25@gObjJoomin
$LN2@gObjJoomin:

; 5684 : 				}
; 5685 : 			}
; 5686 : 
; 5687 : 			break;
; 5688 : 
; 5689 : 		default:
; 5690 : 
; 5691 : 			if ( strncmp(szInJN, &lpObj->LastJoominNumber[6], 7) == 0 )

  000cf	8b 55 0c	 mov	 edx, DWORD PTR _szInJN$[ebp]
  000d2	6a 07		 push	 7
  000d4	81 c6 9d 00 00
	00		 add	 esi, 157		; 0000009dH
  000da	56		 push	 esi
  000db	52		 push	 edx
$LN25@gObjJoomin:
  000dc	e8 00 00 00 00	 call	 _strncmp
  000e1	83 c4 0c	 add	 esp, 12			; 0000000cH
$LN26@gObjJoomin:
  000e4	85 c0		 test	 eax, eax
  000e6	75 06		 jne	 SHORT $LN1@gObjJoomin
$LN27@gObjJoomin:
  000e8	5f		 pop	 edi

; 5692 : 			{
; 5693 : 				return TRUE;

  000e9	b0 01		 mov	 al, 1
  000eb	5e		 pop	 esi

; 5698 : }

  000ec	5d		 pop	 ebp
  000ed	c3		 ret	 0
$LN1@gObjJoomin:
  000ee	5f		 pop	 edi

; 5694 : 			}
; 5695 : 	}
; 5696 : 
; 5697 : 	return FALSE;

  000ef	32 c0		 xor	 al, al
  000f1	5e		 pop	 esi

; 5698 : }

  000f2	5d		 pop	 ebp
  000f3	c3		 ret	 0
$LN28@gObjJoomin:
  000f4	00 00 00 00	 DD	 $LN16@gObjJoomin
  000f8	00 00 00 00	 DD	 $LN15@gObjJoomin
  000fc	00 00 00 00	 DD	 $LN13@gObjJoomin
  00100	00 00 00 00	 DD	 $LN10@gObjJoomin
  00104	00 00 00 00	 DD	 $LN16@gObjJoomin
  00108	00 00 00 00	 DD	 $LN16@gObjJoomin
  0010c	00 00 00 00	 DD	 $LN2@gObjJoomin
  00110	00 00 00 00	 DD	 $LN16@gObjJoomin
?gObjJoominCheck@@YA_NHPAD@Z ENDP			; gObjJoominCheck
_TEXT	ENDS
PUBLIC	?gObjTaiwanJoominCheck@@YAHHPAD@Z		; gObjTaiwanJoominCheck
; Function compile flags: /Ogtp
;	COMDAT ?gObjTaiwanJoominCheck@@YAHHPAD@Z
_TEXT	SEGMENT
_aIndex$ = 8						; size = 4
_szInJN$ = 12						; size = 4
?gObjTaiwanJoominCheck@@YAHHPAD@Z PROC			; gObjTaiwanJoominCheck, COMDAT

; 5701 : {

  00000	55		 push	 ebp
  00001	8b ec		 mov	 ebp, esp

; 5702 : 	LPOBJ lpObj = &gObj[aIndex];

  00003	8b 4d 08	 mov	 ecx, DWORD PTR _aIndex$[ebp]
  00006	69 c9 50 2b 00
	00		 imul	 ecx, 11088		; 00002b50H
  0000c	03 0d 00 00 00
	00		 add	 ecx, DWORD PTR ?gObj@@3PAUOBJECTSTRUCT@@A ; gObj
  00012	56		 push	 esi
  00013	57		 push	 edi

; 5703 : 
; 5704 : 	if ( strlen(szInJN) < 2 )

  00014	8b 7d 0c	 mov	 edi, DWORD PTR _szInJN$[ebp]
  00017	8b c7		 mov	 eax, edi
  00019	8d 70 01	 lea	 esi, DWORD PTR [eax+1]
  0001c	8d 64 24 00	 npad	 4
$LL5@gObjTaiwan:
  00020	8a 10		 mov	 dl, BYTE PTR [eax]
  00022	40		 inc	 eax
  00023	84 d2		 test	 dl, dl
  00025	75 f9		 jne	 SHORT $LL5@gObjTaiwan
  00027	2b c6		 sub	 eax, esi
  00029	83 f8 02	 cmp	 eax, 2
  0002c	73 06		 jae	 SHORT $LN2@gObjTaiwan

; 5705 : 	{
; 5706 : 		return FALSE;

  0002e	5f		 pop	 edi
  0002f	33 c0		 xor	 eax, eax
  00031	5e		 pop	 esi

; 5710 : 	{
; 5711 : 		return TRUE;
; 5712 : 	}
; 5713 : 
; 5714 : 	return FALSE;
; 5715 : }

  00032	5d		 pop	 ebp
  00033	c3		 ret	 0
$LN2@gObjTaiwan:

; 5707 : 	}
; 5708 : 	
; 5709 : 	if ( strncmp(&lpObj->LastJoominNumber[1], szInJN, 9) == 0 )

  00034	6a 09		 push	 9
  00036	81 c1 98 00 00
	00		 add	 ecx, 152		; 00000098H
  0003c	57		 push	 edi
  0003d	51		 push	 ecx
  0003e	e8 00 00 00 00	 call	 _strncmp
  00043	83 c4 0c	 add	 esp, 12			; 0000000cH
  00046	f7 d8		 neg	 eax
  00048	1b c0		 sbb	 eax, eax
  0004a	5f		 pop	 edi
  0004b	40		 inc	 eax
  0004c	5e		 pop	 esi

; 5710 : 	{
; 5711 : 		return TRUE;
; 5712 : 	}
; 5713 : 
; 5714 : 	return FALSE;
; 5715 : }

  0004d	5d		 pop	 ebp
  0004e	c3		 ret	 0
?gObjTaiwanJoominCheck@@YAHHPAD@Z ENDP			; gObjTaiwanJoominCheck
_TEXT	ENDS
PUBLIC	?gObjSetAccountLogin@@YAHHPADHHH0E@Z		; gObjSetAccountLogin
EXTRN	?GDReqLoad@CAccountSecurity@@QAEXH@Z:PROC	; CAccountSecurity::GDReqLoad
EXTRN	?g_AccountSecurity@@3VCAccountSecurity@@A:BYTE	; g_AccountSecurity
; Function compile flags: /Ogtp
;	COMDAT ?gObjSetAccountLogin@@YAHHPADHHH0E@Z
_TEXT	SEGMENT
_aIndex$ = 8						; size = 4
_szId$ = 12						; size = 4
_aUserNumber$ = 16					; size = 4
_aDBNumber$ = 20					; size = 4
_ukn_30$ = 24						; size = 4
_JoominNumber$ = 28					; size = 4
_PcBangRoom$ = 32					; size = 1
?gObjSetAccountLogin@@YAHHPADHHH0E@Z PROC		; gObjSetAccountLogin, COMDAT

; 5892 : {

  00000	55		 push	 ebp
  00001	8b ec		 mov	 ebp, esp

; 5893 : 
; 5894 : 	if ( !OBJMAX_RANGE(aIndex) )

  00003	8b 55 08	 mov	 edx, DWORD PTR _aIndex$[ebp]
  00006	85 d2		 test	 edx, edx
  00008	78 0f		 js	 SHORT $LN10@gObjSetAcc
  0000a	33 c0		 xor	 eax, eax
  0000c	81 fa 97 3a 00
	00		 cmp	 edx, 14999		; 00003a97H
  00012	0f 9e c0	 setle	 al
  00015	85 c0		 test	 eax, eax
  00017	75 1c		 jne	 SHORT $LN3@gObjSetAcc
$LN10@gObjSetAcc:

; 5895 : 	{
; 5896 : 		LogAdd("error : %s %d", __FILE__, __LINE__);

  00019	68 08 17 00 00	 push	 5896			; 00001708H
  0001e	68 00 00 00 00	 push	 OFFSET ??_C@_08DCNFOMBO@user?4cpp?$AA@
  00023	68 00 00 00 00	 push	 OFFSET ??_C@_0O@CKAEPJAF@error?5?3?5?$CFs?5?$CFd?$AA@
  00028	ff 15 00 00 00
	00		 call	 DWORD PTR ?LogAdd@@3P6AXPADZZA ; LogAdd
  0002e	83 c4 0c	 add	 esp, 12			; 0000000cH

; 5897 : 		return 0;

  00031	33 c0		 xor	 eax, eax

; 5944 : 
; 5945 : }

  00033	5d		 pop	 ebp
  00034	c3		 ret	 0
$LN3@gObjSetAcc:

; 5898 : 	}
; 5899 : 
; 5900 : 	if ( gObj[aIndex].Connected != PLAYER_CONNECTED )

  00035	8b ca		 mov	 ecx, edx
  00037	69 c9 50 2b 00
	00		 imul	 ecx, 11088		; 00002b50H
  0003d	57		 push	 edi
  0003e	8b 3d 00 00 00
	00		 mov	 edi, DWORD PTR ?gObj@@3PAUOBJECTSTRUCT@@A ; gObj
  00044	83 7c 39 04 01	 cmp	 DWORD PTR [ecx+edi+4], 1
  00049	74 31		 je	 SHORT $LN2@gObjSetAcc

; 5901 : 	{
; 5902 : 		LogAddTD(lMsg.Get(MSGGET(2, 6)), aIndex, szId, aDBNumber, __FILE__, __LINE__);

  0004b	8b 45 14	 mov	 eax, DWORD PTR _aDBNumber$[ebp]
  0004e	8b 4d 0c	 mov	 ecx, DWORD PTR _szId$[ebp]
  00051	68 0e 17 00 00	 push	 5902			; 0000170eH
  00056	68 00 00 00 00	 push	 OFFSET ??_C@_08DCNFOMBO@user?4cpp?$AA@
  0005b	50		 push	 eax
  0005c	51		 push	 ecx
  0005d	52		 push	 edx
  0005e	68 06 02 00 00	 push	 518			; 00000206H
  00063	b9 00 00 00 00	 mov	 ecx, OFFSET ?lMsg@@3VCMsg@@A ; lMsg
  00068	e8 00 00 00 00	 call	 ?Get@CMsg@@QAEPADH@Z	; CMsg::Get
  0006d	50		 push	 eax
  0006e	ff 15 00 00 00
	00		 call	 DWORD PTR ?LogAddTD@@3P6AXPADZZA ; LogAddTD
  00074	83 c4 18	 add	 esp, 24			; 00000018H

; 5903 : 		return 0;

  00077	33 c0		 xor	 eax, eax
  00079	5f		 pop	 edi

; 5944 : 
; 5945 : }

  0007a	5d		 pop	 ebp
  0007b	c3		 ret	 0
$LN2@gObjSetAcc:
  0007c	53		 push	 ebx

; 5904 : 	}
; 5905 : 
; 5906 : 	if ( strcmp(gObj[aIndex].AccountID, szId) != 0 )

  0007d	8b 5d 0c	 mov	 ebx, DWORD PTR _szId$[ebp]
  00080	56		 push	 esi
  00081	8b f3		 mov	 esi, ebx
  00083	8d 44 39 6c	 lea	 eax, DWORD PTR [ecx+edi+108]
$LL11@gObjSetAcc:
  00087	8a 10		 mov	 dl, BYTE PTR [eax]
  00089	3a 16		 cmp	 dl, BYTE PTR [esi]
  0008b	75 1a		 jne	 SHORT $LN12@gObjSetAcc
  0008d	84 d2		 test	 dl, dl
  0008f	74 12		 je	 SHORT $LN13@gObjSetAcc
  00091	8a 50 01	 mov	 dl, BYTE PTR [eax+1]
  00094	3a 56 01	 cmp	 dl, BYTE PTR [esi+1]
  00097	75 0e		 jne	 SHORT $LN12@gObjSetAcc
  00099	83 c0 02	 add	 eax, 2
  0009c	83 c6 02	 add	 esi, 2
  0009f	84 d2		 test	 dl, dl
  000a1	75 e4		 jne	 SHORT $LL11@gObjSetAcc
$LN13@gObjSetAcc:
  000a3	33 c0		 xor	 eax, eax
  000a5	eb 05		 jmp	 SHORT $LN14@gObjSetAcc
$LN12@gObjSetAcc:
  000a7	1b c0		 sbb	 eax, eax
  000a9	83 d8 ff	 sbb	 eax, -1
$LN14@gObjSetAcc:
  000ac	85 c0		 test	 eax, eax
  000ae	74 21		 je	 SHORT $LN1@gObjSetAcc

; 5907 : 	{
; 5908 : 		LogAdd(lMsg.Get(MSGGET(2, 7)), szId);

  000b0	53		 push	 ebx
  000b1	68 07 02 00 00	 push	 519			; 00000207H
  000b6	b9 00 00 00 00	 mov	 ecx, OFFSET ?lMsg@@3VCMsg@@A ; lMsg
  000bb	e8 00 00 00 00	 call	 ?Get@CMsg@@QAEPADH@Z	; CMsg::Get
  000c0	50		 push	 eax
  000c1	ff 15 00 00 00
	00		 call	 DWORD PTR ?LogAdd@@3P6AXPADZZA ; LogAdd
  000c7	83 c4 08	 add	 esp, 8
  000ca	5e		 pop	 esi
  000cb	5b		 pop	 ebx

; 5909 : 		return 0;

  000cc	33 c0		 xor	 eax, eax
  000ce	5f		 pop	 edi

; 5944 : 
; 5945 : }

  000cf	5d		 pop	 ebp
  000d0	c3		 ret	 0
$LN1@gObjSetAcc:

; 5910 : 	}
; 5911 : 
; 5912 : #if(CUSTOM_ACCOUNT_SECURITY)
; 5913 : 	#if(DEBUG_ACCOUNT_SECURITY)
; 5914 : 	if(g_AccountSecurity.m_bEnable)
; 5915 : 	{
; 5916 : 		gObj[aIndex].Join_aUserNumber = aUserNumber;
; 5917 : 		gObj[aIndex].Join_aDBNumber = aDBNumber;
; 5918 : 		strcpy(gObj[aIndex].Join_JoominNumber, JoominNumber);
; 5919 : 		gObj[aIndex].Join_ukn_30 = ukn_30;
; 5920 : 		gObj[aIndex].Join_PcBangRoom = PcBangRoom;
; 5921 : 
; 5922 : 		return TRUE;
; 5923 : 	}
; 5924 : 	#endif
; 5925 : #endif
; 5926 : 
; 5927 : 	gObj[aIndex].UserNumber = aUserNumber;

  000d1	8b 55 10	 mov	 edx, DWORD PTR _aUserNumber$[ebp]
  000d4	89 54 39 28	 mov	 DWORD PTR [ecx+edi+40], edx

; 5928 : 	gObj[aIndex].DBNumber = aDBNumber;

  000d8	a1 00 00 00 00	 mov	 eax, DWORD PTR ?gObj@@3PAUOBJECTSTRUCT@@A ; gObj
  000dd	8b 55 14	 mov	 edx, DWORD PTR _aDBNumber$[ebp]
  000e0	89 54 01 2c	 mov	 DWORD PTR [ecx+eax+44], edx

; 5929 : 	gObj[aIndex].Connected = PLAYER_LOGGED;

  000e4	a1 00 00 00 00	 mov	 eax, DWORD PTR ?gObj@@3PAUOBJECTSTRUCT@@A ; gObj

; 5930 : 	strcpy(gObj[aIndex].LastJoominNumber, JoominNumber);

  000e9	8b 55 1c	 mov	 edx, DWORD PTR _JoominNumber$[ebp]
  000ec	c7 44 01 04 02
	00 00 00	 mov	 DWORD PTR [ecx+eax+4], 2
  000f4	a1 00 00 00 00	 mov	 eax, DWORD PTR ?gObj@@3PAUOBJECTSTRUCT@@A ; gObj
  000f9	8d b4 01 97 00
	00 00		 lea	 esi, DWORD PTR [ecx+eax+151]
$LL8@gObjSetAcc:
  00100	8a 02		 mov	 al, BYTE PTR [edx]
  00102	88 06		 mov	 BYTE PTR [esi], al
  00104	42		 inc	 edx
  00105	46		 inc	 esi
  00106	84 c0		 test	 al, al
  00108	75 f6		 jne	 SHORT $LL8@gObjSetAcc

; 5931 : 
; 5932 : 	 //Season 4.5 addon start
; 5933 : 	gObj[aIndex].ukn_30 = ukn_30;

  0010a	8b 15 00 00 00
	00		 mov	 edx, DWORD PTR ?gObj@@3PAUOBJECTSTRUCT@@A ; gObj
  00110	8b 45 18	 mov	 eax, DWORD PTR _ukn_30$[ebp]
  00113	89 44 11 30	 mov	 DWORD PTR [ecx+edx+48], eax

; 5934 : 	gObj[aIndex].m_iPcBangRoom = PcBangRoom;

  00117	0f b6 55 20	 movzx	 edx, BYTE PTR _PcBangRoom$[ebp]
  0011b	a1 00 00 00 00	 mov	 eax, DWORD PTR ?gObj@@3PAUOBJECTSTRUCT@@A ; gObj
  00120	89 94 01 c4 1f
	00 00		 mov	 DWORD PTR [ecx+eax+8132], edx

; 5935 : #if(PC_BANG_POINT_SYSTEM==1)
; 5936 : 	g_PCBangPointSystem.SetPointUser(aIndex,PcBangRoom);
; 5937 : #endif
; 5938 : 
; 5939 : #if(CUSTOM_ACCOUNT_SECURITY)
; 5940 : 	g_AccountSecurity.GDReqLoad(aIndex);

  00127	8b 4d 08	 mov	 ecx, DWORD PTR _aIndex$[ebp]
  0012a	51		 push	 ecx
  0012b	b9 00 00 00 00	 mov	 ecx, OFFSET ?g_AccountSecurity@@3VCAccountSecurity@@A ; g_AccountSecurity
  00130	e8 00 00 00 00	 call	 ?GDReqLoad@CAccountSecurity@@QAEXH@Z ; CAccountSecurity::GDReqLoad
  00135	5e		 pop	 esi
  00136	5b		 pop	 ebx

; 5941 : #endif
; 5942 : 
; 5943 : 	return TRUE;

  00137	b8 01 00 00 00	 mov	 eax, 1
  0013c	5f		 pop	 edi

; 5944 : 
; 5945 : }

  0013d	5d		 pop	 ebp
  0013e	c3		 ret	 0
?gObjSetAccountLogin@@YAHHPADHHH0E@Z ENDP		; gObjSetAccountLogin
_TEXT	ENDS
PUBLIC	?gObjGetUserNumber@@YAHH@Z			; gObjGetUserNumber
; Function compile flags: /Ogtp
;	COMDAT ?gObjGetUserNumber@@YAHH@Z
_TEXT	SEGMENT
_aIndex$ = 8						; size = 4
?gObjGetUserNumber@@YAHH@Z PROC				; gObjGetUserNumber, COMDAT

; 5948 : {

  00000	55		 push	 ebp
  00001	8b ec		 mov	 ebp, esp

; 5949 : 	int usernumber;
; 5950 : 
; 5951 : 	if ( !OBJMAX_RANGE(aIndex))

  00003	8b 45 08	 mov	 eax, DWORD PTR _aIndex$[ebp]
  00006	85 c0		 test	 eax, eax
  00008	78 0e		 js	 SHORT $LN6@gObjGetUse
  0000a	33 c9		 xor	 ecx, ecx
  0000c	3d 97 3a 00 00	 cmp	 eax, 14999		; 00003a97H
  00011	0f 9e c1	 setle	 cl
  00014	85 c9		 test	 ecx, ecx
  00016	75 1c		 jne	 SHORT $LN1@gObjGetUse
$LN6@gObjGetUse:

; 5952 : 	{
; 5953 : 		LogAdd("error : %s %d",__FILE__, __LINE__);

  00018	68 41 17 00 00	 push	 5953			; 00001741H
  0001d	68 00 00 00 00	 push	 OFFSET ??_C@_08DCNFOMBO@user?4cpp?$AA@
  00022	68 00 00 00 00	 push	 OFFSET ??_C@_0O@CKAEPJAF@error?5?3?5?$CFs?5?$CFd?$AA@
  00027	ff 15 00 00 00
	00		 call	 DWORD PTR ?LogAdd@@3P6AXPADZZA ; LogAdd
  0002d	83 c4 0c	 add	 esp, 12			; 0000000cH

; 5954 : 		return 0;

  00030	33 c0		 xor	 eax, eax

; 5959 : }

  00032	5d		 pop	 ebp
  00033	c3		 ret	 0
$LN1@gObjGetUse:

; 5955 : 	}
; 5956 : 
; 5957 : 	usernumber=gObj[aIndex].UserNumber;
; 5958 : 	return usernumber;

  00034	8b 0d 00 00 00
	00		 mov	 ecx, DWORD PTR ?gObj@@3PAUOBJECTSTRUCT@@A ; gObj
  0003a	69 c0 50 2b 00
	00		 imul	 eax, 11088		; 00002b50H
  00040	8b 44 08 28	 mov	 eax, DWORD PTR [eax+ecx+40]

; 5959 : }

  00044	5d		 pop	 ebp
  00045	c3		 ret	 0
?gObjGetUserNumber@@YAHH@Z ENDP				; gObjGetUserNumber
_TEXT	ENDS
PUBLIC	?gObjGetNumber@@YAHHAAH0@Z			; gObjGetNumber
; Function compile flags: /Ogtp
;	COMDAT ?gObjGetNumber@@YAHHAAH0@Z
_TEXT	SEGMENT
_aIndex$ = 8						; size = 4
_UN$ = 12						; size = 4
_DBN$ = 16						; size = 4
?gObjGetNumber@@YAHHAAH0@Z PROC				; gObjGetNumber, COMDAT

; 5962 : {

  00000	55		 push	 ebp
  00001	8b ec		 mov	 ebp, esp

; 5963 : 	if ( aIndex < 0 || aIndex > OBJMAX-1)

  00003	8b 45 08	 mov	 eax, DWORD PTR _aIndex$[ebp]
  00006	3d 97 3a 00 00	 cmp	 eax, 14999		; 00003a97H
  0000b	77 2b		 ja	 SHORT $LN1@gObjGetNum

; 5967 : 	}
; 5968 : 	UN=gObj[aIndex].UserNumber;

  0000d	8b 0d 00 00 00
	00		 mov	 ecx, DWORD PTR ?gObj@@3PAUOBJECTSTRUCT@@A ; gObj
  00013	69 c0 50 2b 00
	00		 imul	 eax, 11088		; 00002b50H
  00019	8b 54 08 28	 mov	 edx, DWORD PTR [eax+ecx+40]
  0001d	8b 4d 0c	 mov	 ecx, DWORD PTR _UN$[ebp]
  00020	89 11		 mov	 DWORD PTR [ecx], edx

; 5969 : 	DBN=gObj[aIndex].DBNumber;

  00022	8b 15 00 00 00
	00		 mov	 edx, DWORD PTR ?gObj@@3PAUOBJECTSTRUCT@@A ; gObj
  00028	8b 44 10 2c	 mov	 eax, DWORD PTR [eax+edx+44]
  0002c	8b 4d 10	 mov	 ecx, DWORD PTR _DBN$[ebp]
  0002f	89 01		 mov	 DWORD PTR [ecx], eax

; 5970 : 	return 1;

  00031	b8 01 00 00 00	 mov	 eax, 1

; 5971 : }

  00036	5d		 pop	 ebp
  00037	c3		 ret	 0
$LN1@gObjGetNum:

; 5964 : 	{
; 5965 : 		LogAdd("error : %s %d",__FILE__, __LINE__);

  00038	68 4d 17 00 00	 push	 5965			; 0000174dH
  0003d	68 00 00 00 00	 push	 OFFSET ??_C@_08DCNFOMBO@user?4cpp?$AA@
  00042	68 00 00 00 00	 push	 OFFSET ??_C@_0O@CKAEPJAF@error?5?3?5?$CFs?5?$CFd?$AA@
  00047	ff 15 00 00 00
	00		 call	 DWORD PTR ?LogAdd@@3P6AXPADZZA ; LogAdd
  0004d	83 c4 0c	 add	 esp, 12			; 0000000cH

; 5966 : 		return 0;

  00050	33 c0		 xor	 eax, eax

; 5971 : }

  00052	5d		 pop	 ebp
  00053	c3		 ret	 0
?gObjGetNumber@@YAHHAAH0@Z ENDP				; gObjGetNumber
_TEXT	ENDS
PUBLIC	?gObjGetAccountId@@YAPADH@Z			; gObjGetAccountId
; Function compile flags: /Ogtp
;	COMDAT ?gObjGetAccountId@@YAPADH@Z
_TEXT	SEGMENT
_aIndex$ = 8						; size = 4
?gObjGetAccountId@@YAPADH@Z PROC			; gObjGetAccountId, COMDAT

; 5974 : {

  00000	55		 push	 ebp
  00001	8b ec		 mov	 ebp, esp

; 5975 : 	if ( aIndex < 0 || aIndex > OBJMAX-1)

  00003	8b 45 08	 mov	 eax, DWORD PTR _aIndex$[ebp]
  00006	3d 97 3a 00 00	 cmp	 eax, 14999		; 00003a97H
  0000b	77 17		 ja	 SHORT $LN2@gObjGetAcc

; 5979 : 	}
; 5980 : 
; 5981 : 	if ( gObj[aIndex].Connected == 2)

  0000d	69 c0 50 2b 00
	00		 imul	 eax, 11088		; 00002b50H
  00013	03 05 00 00 00
	00		 add	 eax, DWORD PTR ?gObj@@3PAUOBJECTSTRUCT@@A ; gObj
  00019	83 78 04 02	 cmp	 DWORD PTR [eax+4], 2
  0001d	75 1d		 jne	 SHORT $LN1@gObjGetAcc

; 5982 : 	{
; 5983 : 		return &gObj[aIndex].AccountID[0];

  0001f	83 c0 6c	 add	 eax, 108		; 0000006cH

; 5984 : 	}
; 5985 : 	return 0;
; 5986 : }

  00022	5d		 pop	 ebp
  00023	c3		 ret	 0
$LN2@gObjGetAcc:

; 5976 : 	{
; 5977 : 		LogAdd("error : %s %d",__FILE__, __LINE__);

  00024	68 59 17 00 00	 push	 5977			; 00001759H
  00029	68 00 00 00 00	 push	 OFFSET ??_C@_08DCNFOMBO@user?4cpp?$AA@
  0002e	68 00 00 00 00	 push	 OFFSET ??_C@_0O@CKAEPJAF@error?5?3?5?$CFs?5?$CFd?$AA@
  00033	ff 15 00 00 00
	00		 call	 DWORD PTR ?LogAdd@@3P6AXPADZZA ; LogAdd
  00039	83 c4 0c	 add	 esp, 12			; 0000000cH
$LN1@gObjGetAcc:

; 5978 : 		return 0;

  0003c	33 c0		 xor	 eax, eax

; 5984 : 	}
; 5985 : 	return 0;
; 5986 : }

  0003e	5d		 pop	 ebp
  0003f	c3		 ret	 0
?gObjGetAccountId@@YAPADH@Z ENDP			; gObjGetAccountId
_TEXT	ENDS
PUBLIC	?gObjGetIndex@@YAHPAD@Z				; gObjGetIndex
; Function compile flags: /Ogtp
;	COMDAT ?gObjGetIndex@@YAHPAD@Z
_TEXT	SEGMENT
_szId$ = 8						; size = 4
?gObjGetIndex@@YAHPAD@Z PROC				; gObjGetIndex, COMDAT

; 5989 : {

  00000	55		 push	 ebp
  00001	8b ec		 mov	 ebp, esp
  00003	57		 push	 edi

; 5990 : #ifdef _FIX_
; 5991 : 	if(szId == NULL) return -1;

  00004	8b 7d 08	 mov	 edi, DWORD PTR _szId$[ebp]
  00007	85 ff		 test	 edi, edi
  00009	75 06		 jne	 SHORT $LN7@gObjGetInd
  0000b	83 c8 ff	 or	 eax, -1
  0000e	5f		 pop	 edi

; 6024 : }

  0000f	5d		 pop	 ebp
  00010	c3		 ret	 0
$LN7@gObjGetInd:
  00011	56		 push	 esi

; 5992 : #endif
; 5993 : 
; 5994 : 	int n;
; 5995 : 
; 5996 : 	for (n=OBJ_STARTUSERINDZT;n<OBJMAX; n++)

  00012	8b 35 00 00 00
	00		 mov	 esi, DWORD PTR ?gObj@@3PAUOBJECTSTRUCT@@A ; gObj
  00018	b8 b0 36 00 00	 mov	 eax, 14000		; 000036b0H
  0001d	81 c6 77 a7 40
	09		 add	 esi, 155232119		; 0940a777H
  00023	53		 push	 ebx
$LL6@gObjGetInd:

; 5997 : 	{
; 5998 : 		if ( gObj[n].Connected >= PLAYER_PLAYING)

  00024	83 7e 8d 03	 cmp	 DWORD PTR [esi-115], 3
  00028	7c 33		 jl	 SHORT $LN5@gObjGetInd

; 5999 : 		{
; 6000 : #ifdef _FIX_
; 6001 : 			//if ( strcmp(gObj[n].Name , szId) == 0)
; 6002 : 			//{
; 6003 : 			//	return n;
; 6004 : 			//}
; 6005 : 			if ( gObj[n].Name[0] == szId[0] )

  0002a	8a 0e		 mov	 cl, BYTE PTR [esi]
  0002c	3a 0f		 cmp	 cl, BYTE PTR [edi]
  0002e	75 2d		 jne	 SHORT $LN5@gObjGetInd

; 6006 : 			{
; 6007 : 				if ( strcmp(&gObj[n].Name[0] , szId) == 0)

  00030	8b d7		 mov	 edx, edi
  00032	8b ce		 mov	 ecx, esi
$LL13@gObjGetInd:
  00034	8a 19		 mov	 bl, BYTE PTR [ecx]
  00036	3a 1a		 cmp	 bl, BYTE PTR [edx]
  00038	75 1a		 jne	 SHORT $LN14@gObjGetInd
  0003a	84 db		 test	 bl, bl
  0003c	74 12		 je	 SHORT $LN15@gObjGetInd
  0003e	8a 59 01	 mov	 bl, BYTE PTR [ecx+1]
  00041	3a 5a 01	 cmp	 bl, BYTE PTR [edx+1]
  00044	75 0e		 jne	 SHORT $LN14@gObjGetInd
  00046	83 c1 02	 add	 ecx, 2
  00049	83 c2 02	 add	 edx, 2
  0004c	84 db		 test	 bl, bl
  0004e	75 e4		 jne	 SHORT $LL13@gObjGetInd
$LN15@gObjGetInd:
  00050	33 c9		 xor	 ecx, ecx
  00052	eb 05		 jmp	 SHORT $LN16@gObjGetInd
$LN14@gObjGetInd:
  00054	1b c9		 sbb	 ecx, ecx
  00056	83 d9 ff	 sbb	 ecx, -1
$LN16@gObjGetInd:
  00059	85 c9		 test	 ecx, ecx
  0005b	74 11		 je	 SHORT $LN18@gObjGetInd
$LN5@gObjGetInd:

; 5992 : #endif
; 5993 : 
; 5994 : 	int n;
; 5995 : 
; 5996 : 	for (n=OBJ_STARTUSERINDZT;n<OBJMAX; n++)

  0005d	40		 inc	 eax
  0005e	81 c6 50 2b 00
	00		 add	 esi, 11088		; 00002b50H
  00064	3d 98 3a 00 00	 cmp	 eax, 15000		; 00003a98H
  00069	7c b9		 jl	 SHORT $LL6@gObjGetInd

; 6008 : 				{
; 6009 : 					return n;
; 6010 : 				}
; 6011 : 			}
; 6012 : #else
; 6013 : 			if ( gObj[n].Name[0] == *szId )
; 6014 : 			{
; 6015 : 				if ( strcmp(&gObj[n].Name[0] , szId) == 0)
; 6016 : 				{
; 6017 : 					return n;
; 6018 : 				}
; 6019 : 			}
; 6020 : #endif
; 6021 : 		}
; 6022 : 	}
; 6023 : 	return -1;

  0006b	83 c8 ff	 or	 eax, -1
$LN18@gObjGetInd:
  0006e	5b		 pop	 ebx
  0006f	5e		 pop	 esi
  00070	5f		 pop	 edi

; 6024 : }

  00071	5d		 pop	 ebp
  00072	c3		 ret	 0
?gObjGetIndex@@YAHPAD@Z ENDP				; gObjGetIndex
_TEXT	ENDS
PUBLIC	??_C@_0BN@NCIMKKEA@error?5?3?5index?5error?5?$CB?$CB?5?$CFs?5?$CFd?$AA@ ; `string'
PUBLIC	?gObjUserIdConnectCheck@@YAHPADH@Z		; gObjUserIdConnectCheck
;	COMDAT ??_C@_0BN@NCIMKKEA@error?5?3?5index?5error?5?$CB?$CB?5?$CFs?5?$CFd?$AA@
CONST	SEGMENT
??_C@_0BN@NCIMKKEA@error?5?3?5index?5error?5?$CB?$CB?5?$CFs?5?$CFd?$AA@ DB 'e'
	DB	'rror : index error !! %s %d', 00H		; `string'
; Function compile flags: /Ogtp
CONST	ENDS
;	COMDAT ?gObjUserIdConnectCheck@@YAHPADH@Z
_TEXT	SEGMENT
_szId$ = 8						; size = 4
_index$ = 12						; size = 4
?gObjUserIdConnectCheck@@YAHPADH@Z PROC			; gObjUserIdConnectCheck, COMDAT

; 6027 : {

  00000	55		 push	 ebp
  00001	8b ec		 mov	 ebp, esp

; 6028 : 	if ( index < 0 || index > OBJMAX)

  00003	8b 45 0c	 mov	 eax, DWORD PTR _index$[ebp]
  00006	3d 98 3a 00 00	 cmp	 eax, 15000		; 00003a98H
  0000b	77 5c		 ja	 SHORT $LN4@gObjUserId

; 6032 : 	}
; 6033 : 
; 6034 : 	if ( gObj[index].Connected < PLAYER_PLAYING)

  0000d	69 c0 50 2b 00
	00		 imul	 eax, 11088		; 00002b50H
  00013	03 05 00 00 00
	00		 add	 eax, DWORD PTR ?gObj@@3PAUOBJECTSTRUCT@@A ; gObj
  00019	83 78 04 03	 cmp	 DWORD PTR [eax+4], 3

; 6035 : 	{
; 6036 : 		return 0;

  0001d	7c 62		 jl	 SHORT $LN12@gObjUserId

; 6037 : 	}
; 6038 : 
; 6039 : #ifdef _FIX_
; 6040 : 	if (gObj[index].Name[0] != szId[0])

  0001f	8a 50 77	 mov	 dl, BYTE PTR [eax+119]
  00022	8b 4d 08	 mov	 ecx, DWORD PTR _szId$[ebp]
  00025	83 c0 77	 add	 eax, 119		; 00000077H
  00028	3a 11		 cmp	 dl, BYTE PTR [ecx]

; 6041 : 	{
; 6042 : 		return 0;

  0002a	75 55		 jne	 SHORT $LN12@gObjUserId
  0002c	8d 64 24 00	 npad	 4
$LL2@gObjUserId:

; 6043 : 	}
; 6044 : #endif
; 6045 : 
; 6046 : 	if ( strcmp(gObj[index].Name , szId) == 0)

  00030	8a 10		 mov	 dl, BYTE PTR [eax]
  00032	3a 11		 cmp	 dl, BYTE PTR [ecx]
  00034	75 23		 jne	 SHORT $LN9@gObjUserId
  00036	84 d2		 test	 dl, dl
  00038	74 12		 je	 SHORT $LN10@gObjUserId
  0003a	8a 50 01	 mov	 dl, BYTE PTR [eax+1]
  0003d	3a 51 01	 cmp	 dl, BYTE PTR [ecx+1]
  00040	75 17		 jne	 SHORT $LN9@gObjUserId
  00042	83 c0 02	 add	 eax, 2
  00045	83 c1 02	 add	 ecx, 2
  00048	84 d2		 test	 dl, dl
  0004a	75 e4		 jne	 SHORT $LL2@gObjUserId
$LN10@gObjUserId:
  0004c	33 c0		 xor	 eax, eax
  0004e	33 c9		 xor	 ecx, ecx
  00050	85 c0		 test	 eax, eax
  00052	0f 94 c1	 sete	 cl
  00055	8b c1		 mov	 eax, ecx

; 6047 : 	{
; 6048 : 		return 1;
; 6049 : 	}
; 6050 : 	return 0;
; 6051 : }

  00057	5d		 pop	 ebp
  00058	c3		 ret	 0
$LN9@gObjUserId:

; 6043 : 	}
; 6044 : #endif
; 6045 : 
; 6046 : 	if ( strcmp(gObj[index].Name , szId) == 0)

  00059	1b c0		 sbb	 eax, eax
  0005b	83 d8 ff	 sbb	 eax, -1
  0005e	33 c9		 xor	 ecx, ecx
  00060	85 c0		 test	 eax, eax
  00062	0f 94 c1	 sete	 cl
  00065	8b c1		 mov	 eax, ecx

; 6047 : 	{
; 6048 : 		return 1;
; 6049 : 	}
; 6050 : 	return 0;
; 6051 : }

  00067	5d		 pop	 ebp
  00068	c3		 ret	 0
$LN4@gObjUserId:

; 6029 : 	{
; 6030 : 		LogAdd("error : index error !! %s %d",__FILE__, __LINE__);

  00069	68 8e 17 00 00	 push	 6030			; 0000178eH
  0006e	68 00 00 00 00	 push	 OFFSET ??_C@_08DCNFOMBO@user?4cpp?$AA@
  00073	68 00 00 00 00	 push	 OFFSET ??_C@_0BN@NCIMKKEA@error?5?3?5index?5error?5?$CB?$CB?5?$CFs?5?$CFd?$AA@
  00078	ff 15 00 00 00
	00		 call	 DWORD PTR ?LogAdd@@3P6AXPADZZA ; LogAdd
  0007e	83 c4 0c	 add	 esp, 12			; 0000000cH
$LN12@gObjUserId:

; 6031 : 		return 0;

  00081	33 c0		 xor	 eax, eax

; 6047 : 	{
; 6048 : 		return 1;
; 6049 : 	}
; 6050 : 	return 0;
; 6051 : }

  00083	5d		 pop	 ebp
  00084	c3		 ret	 0
?gObjUserIdConnectCheck@@YAHPADH@Z ENDP			; gObjUserIdConnectCheck
_TEXT	ENDS
PUBLIC	?GetPathPacketDirPos@@YAEHH@Z			; GetPathPacketDirPos
; Function compile flags: /Ogtp
;	COMDAT ?GetPathPacketDirPos@@YAEHH@Z
_TEXT	SEGMENT
_px$ = 8						; size = 4
_py$ = 12						; size = 4
?GetPathPacketDirPos@@YAEHH@Z PROC			; GetPathPacketDirPos, COMDAT

; 6054 : {

  00000	55		 push	 ebp
  00001	8b ec		 mov	 ebp, esp

; 6055 : 	BYTE pos = 0;
; 6056 : 
; 6057 : 	if (px <= -1 && py <= -1)

  00003	8b 55 08	 mov	 edx, DWORD PTR _px$[ebp]
  00006	8b 4d 0c	 mov	 ecx, DWORD PTR _py$[ebp]
  00009	32 c0		 xor	 al, al
  0000b	83 fa ff	 cmp	 edx, -1
  0000e	7f 18		 jg	 SHORT $LN11@GetPathPac
  00010	83 f9 ff	 cmp	 ecx, -1
  00013	7f 02		 jg	 SHORT $LN15@GetPathPac

; 6088 : 	}
; 6089 : 
; 6090 : 	return pos;
; 6091 : }

  00015	5d		 pop	 ebp
  00016	c3		 ret	 0
$LN15@GetPathPac:

; 6058 : 	{
; 6059 : 		pos=0;
; 6060 : 	}
; 6061 : 	else if (px <= -1 && py == 0)

  00017	85 c9		 test	 ecx, ecx
  00019	75 04		 jne	 SHORT $LN13@GetPathPac

; 6062 : 	{
; 6063 : 		pos=7;

  0001b	b0 07		 mov	 al, 7

; 6088 : 	}
; 6089 : 
; 6090 : 	return pos;
; 6091 : }

  0001d	5d		 pop	 ebp
  0001e	c3		 ret	 0
$LN13@GetPathPac:

; 6064 : 	}
; 6065 : 	else if ( px <= -1 && py >= 1)

  0001f	83 f9 01	 cmp	 ecx, 1
  00022	7c 04		 jl	 SHORT $LN11@GetPathPac

; 6066 : 	{
; 6067 : 		pos=6;

  00024	b0 06		 mov	 al, 6

; 6088 : 	}
; 6089 : 
; 6090 : 	return pos;
; 6091 : }

  00026	5d		 pop	 ebp
  00027	c3		 ret	 0
$LN11@GetPathPac:

; 6068 : 	}
; 6069 : 	else if ( px == 0 && py <= -1)

  00028	85 d2		 test	 edx, edx
  0002a	75 12		 jne	 SHORT $LN7@GetPathPac
  0002c	83 f9 ff	 cmp	 ecx, -1
  0002f	7f 04		 jg	 SHORT $LN18@GetPathPac

; 6070 : 	{
; 6071 : 		pos= 1;

  00031	b0 01		 mov	 al, 1

; 6088 : 	}
; 6089 : 
; 6090 : 	return pos;
; 6091 : }

  00033	5d		 pop	 ebp
  00034	c3		 ret	 0
$LN18@GetPathPac:

; 6072 : 	}
; 6073 : 	else if ( px == 0 && py >= 1)

  00035	83 f9 01	 cmp	 ecx, 1
  00038	7c 21		 jl	 SHORT $LN1@GetPathPac

; 6074 : 	{
; 6075 : 		pos = 5;

  0003a	b0 05		 mov	 al, 5

; 6088 : 	}
; 6089 : 
; 6090 : 	return pos;
; 6091 : }

  0003c	5d		 pop	 ebp
  0003d	c3		 ret	 0
$LN7@GetPathPac:

; 6076 : 	}
; 6077 : 	else if ( px >= 1 && py <=-1)

  0003e	83 fa 01	 cmp	 edx, 1
  00041	7c 18		 jl	 SHORT $LN1@GetPathPac
  00043	83 f9 ff	 cmp	 ecx, -1
  00046	7f 04		 jg	 SHORT $LN5@GetPathPac

; 6078 : 	{
; 6079 : 		pos=2;

  00048	b0 02		 mov	 al, 2

; 6088 : 	}
; 6089 : 
; 6090 : 	return pos;
; 6091 : }

  0004a	5d		 pop	 ebp
  0004b	c3		 ret	 0
$LN5@GetPathPac:

; 6080 : 	}
; 6081 : 	else if ( px >= 1 && py == 0)

  0004c	85 c9		 test	 ecx, ecx
  0004e	75 04		 jne	 SHORT $LN3@GetPathPac

; 6082 : 	{
; 6083 : 		pos = 3;

  00050	b0 03		 mov	 al, 3

; 6088 : 	}
; 6089 : 
; 6090 : 	return pos;
; 6091 : }

  00052	5d		 pop	 ebp
  00053	c3		 ret	 0
$LN3@GetPathPac:

; 6084 : 	}
; 6085 : 	else if ( px >=1  && py >= 1)

  00054	83 f9 01	 cmp	 ecx, 1
  00057	7c 02		 jl	 SHORT $LN1@GetPathPac

; 6086 : 	{
; 6087 : 		pos = 4;

  00059	b0 04		 mov	 al, 4
$LN1@GetPathPac:

; 6088 : 	}
; 6089 : 
; 6090 : 	return pos;
; 6091 : }

  0005b	5d		 pop	 ebp
  0005c	c3		 ret	 0
?GetPathPacketDirPos@@YAEHH@Z ENDP			; GetPathPacketDirPos
_TEXT	ENDS
PUBLIC	?gObjPositionCheck@@YAHPAUOBJECTSTRUCT@@@Z	; gObjPositionCheck
; Function compile flags: /Ogtp
;	COMDAT ?gObjPositionCheck@@YAHPAUOBJECTSTRUCT@@@Z
_TEXT	SEGMENT
_lpObj$ = 8						; size = 4
?gObjPositionCheck@@YAHPAUOBJECTSTRUCT@@@Z PROC		; gObjPositionCheck, COMDAT

; 6107 : {

  00000	55		 push	 ebp
  00001	8b ec		 mov	 ebp, esp

; 6108 : 	int ix = lpObj->m_OldX - lpObj->TX;

  00003	8b 45 08	 mov	 eax, DWORD PTR _lpObj$[ebp]
  00006	0f bf 90 7c 01
	00 00		 movsx	 edx, WORD PTR [eax+380]
  0000d	0f bf 88 78 01
	00 00		 movsx	 ecx, WORD PTR [eax+376]
  00014	2b ca		 sub	 ecx, edx

; 6109 : 	int iy = lpObj->m_OldY - lpObj->TY;

  00016	0f bf 90 7e 01
	00 00		 movsx	 edx, WORD PTR [eax+382]
  0001d	0f bf 80 7a 01
	00 00		 movsx	 eax, WORD PTR [eax+378]

; 6110 : 
; 6111 : 	if ( ix <= -15 ||  ix >= 15 )

  00024	83 c1 0e	 add	 ecx, 14			; 0000000eH
  00027	2b c2		 sub	 eax, edx
  00029	83 f9 1c	 cmp	 ecx, 28			; 0000001cH
  0002c	77 0f		 ja	 SHORT $LN3@gObjPositi

; 6114 : 	}
; 6115 : 
; 6116 : 	if ( iy <= -15 ||  iy >= 15 )

  0002e	83 c0 0e	 add	 eax, 14			; 0000000eH
  00031	b9 1c 00 00 00	 mov	 ecx, 28			; 0000001cH
  00036	3b c8		 cmp	 ecx, eax
  00038	1b c0		 sbb	 eax, eax
  0003a	40		 inc	 eax

; 6117 : 	{
; 6118 : 		return FALSE;
; 6119 : 	}
; 6120 : 
; 6121 : 	return TRUE;
; 6122 : }

  0003b	5d		 pop	 ebp
  0003c	c3		 ret	 0
$LN3@gObjPositi:

; 6112 : 	{
; 6113 : 		return FALSE;

  0003d	33 c0		 xor	 eax, eax

; 6117 : 	{
; 6118 : 		return FALSE;
; 6119 : 	}
; 6120 : 
; 6121 : 	return TRUE;
; 6122 : }

  0003f	5d		 pop	 ebp
  00040	c3		 ret	 0
?gObjPositionCheck@@YAHPAUOBJECTSTRUCT@@@Z ENDP		; gObjPositionCheck
_TEXT	ENDS
PUBLIC	?gObjCheckTileArea@@YAHHHHH@Z			; gObjCheckTileArea
; Function compile flags: /Ogtp
;	COMDAT ?gObjCheckTileArea@@YAHHHHH@Z
_TEXT	SEGMENT
_aIndex$ = 8						; size = 4
_x$ = 12						; size = 4
_y$ = 16						; size = 4
_dis$ = 20						; size = 4
?gObjCheckTileArea@@YAHHHHH@Z PROC			; gObjCheckTileArea, COMDAT

; 6125 : {

  00000	55		 push	 ebp
  00001	8b ec		 mov	 ebp, esp

; 6126 : 	LPOBJ lpObj = & gObj[aIndex];

  00003	8b 45 08	 mov	 eax, DWORD PTR _aIndex$[ebp]

; 6127 : 
; 6128 : 	if ( x < (lpObj->X - dis) || x > (lpObj->X + dis) || y < (lpObj->Y - dis) || y > (lpObj->Y + dis) )

  00006	8b 4d 14	 mov	 ecx, DWORD PTR _dis$[ebp]
  00009	69 c0 50 2b 00
	00		 imul	 eax, 11088		; 00002b50H
  0000f	03 05 00 00 00
	00		 add	 eax, DWORD PTR ?gObj@@3PAUOBJECTSTRUCT@@A ; gObj
  00015	56		 push	 esi
  00016	0f bf 90 44 01
	00 00		 movsx	 edx, WORD PTR [eax+324]
  0001d	8b 75 0c	 mov	 esi, DWORD PTR _x$[ebp]
  00020	57		 push	 edi
  00021	8b fa		 mov	 edi, edx
  00023	2b f9		 sub	 edi, ecx
  00025	3b f7		 cmp	 esi, edi
  00027	7c 27		 jl	 SHORT $LN1@gObjCheckT
  00029	03 d1		 add	 edx, ecx
  0002b	3b f2		 cmp	 esi, edx
  0002d	7f 21		 jg	 SHORT $LN1@gObjCheckT
  0002f	0f bf 80 46 01
	00 00		 movsx	 eax, WORD PTR [eax+326]
  00036	8b 55 10	 mov	 edx, DWORD PTR _y$[ebp]
  00039	8b f0		 mov	 esi, eax
  0003b	2b f1		 sub	 esi, ecx
  0003d	3b d6		 cmp	 edx, esi
  0003f	7c 0f		 jl	 SHORT $LN1@gObjCheckT
  00041	03 c1		 add	 eax, ecx
  00043	3b d0		 cmp	 edx, eax
  00045	7f 09		 jg	 SHORT $LN1@gObjCheckT

; 6131 : 	}
; 6132 : 	return TRUE;

  00047	5f		 pop	 edi
  00048	b8 01 00 00 00	 mov	 eax, 1
  0004d	5e		 pop	 esi

; 6133 : }

  0004e	5d		 pop	 ebp
  0004f	c3		 ret	 0
$LN1@gObjCheckT:
  00050	5f		 pop	 edi

; 6129 : 	{
; 6130 : 		return FALSE;

  00051	33 c0		 xor	 eax, eax
  00053	5e		 pop	 esi

; 6133 : }

  00054	5d		 pop	 ebp
  00055	c3		 ret	 0
?gObjCheckTileArea@@YAHHHHH@Z ENDP			; gObjCheckTileArea
_TEXT	ENDS
PUBLIC	?ExtentCheck@@YAHHHHH@Z				; ExtentCheck
; Function compile flags: /Ogtp
;	COMDAT ?ExtentCheck@@YAHHHHH@Z
_TEXT	SEGMENT
_x$ = 8							; size = 4
_y$ = 12						; size = 4
_w$ = 16						; size = 4
_h$ = 20						; size = 4
?ExtentCheck@@YAHHHHH@Z PROC				; ExtentCheck, COMDAT

; 6136 : {

  00000	55		 push	 ebp
  00001	8b ec		 mov	 ebp, esp

; 6137 : 	if ( (x >=0) && (x<w) && (y >=0) && (y<h) )

  00003	8b 45 08	 mov	 eax, DWORD PTR _x$[ebp]
  00006	85 c0		 test	 eax, eax
  00008	78 18		 js	 SHORT $LN1@ExtentChec
  0000a	3b 45 10	 cmp	 eax, DWORD PTR _w$[ebp]
  0000d	7d 13		 jge	 SHORT $LN1@ExtentChec
  0000f	8b 45 0c	 mov	 eax, DWORD PTR _y$[ebp]
  00012	85 c0		 test	 eax, eax
  00014	78 0c		 js	 SHORT $LN1@ExtentChec
  00016	3b 45 14	 cmp	 eax, DWORD PTR _h$[ebp]
  00019	7d 07		 jge	 SHORT $LN1@ExtentChec

; 6138 : 	{
; 6139 : 		return 1;

  0001b	b8 01 00 00 00	 mov	 eax, 1

; 6142 : }

  00020	5d		 pop	 ebp
  00021	c3		 ret	 0
$LN1@ExtentChec:

; 6140 : 	}
; 6141 : 	return 0;

  00022	33 c0		 xor	 eax, eax

; 6142 : }

  00024	5d		 pop	 ebp
  00025	c3		 ret	 0
?ExtentCheck@@YAHHHHH@Z ENDP				; ExtentCheck
_TEXT	ENDS
PUBLIC	?gObjSetInventory1Pointer@@YAXPAUOBJECTSTRUCT@@@Z ; gObjSetInventory1Pointer
; Function compile flags: /Ogtp
;	COMDAT ?gObjSetInventory1Pointer@@YAXPAUOBJECTSTRUCT@@@Z
_TEXT	SEGMENT
_lpObj$ = 8						; size = 4
?gObjSetInventory1Pointer@@YAXPAUOBJECTSTRUCT@@@Z PROC	; gObjSetInventory1Pointer, COMDAT

; 6145 : {

  00000	55		 push	 ebp
  00001	8b ec		 mov	 ebp, esp

; 6146 : 	lpObj->pInventory = lpObj->Inventory1;

  00003	8b 45 08	 mov	 eax, DWORD PTR _lpObj$[ebp]
  00006	8b 88 34 0e 00
	00		 mov	 ecx, DWORD PTR [eax+3636]

; 6147 : 	lpObj->pInventoryMap = lpObj->InventoryMap1;

  0000c	8b 90 38 0e 00
	00		 mov	 edx, DWORD PTR [eax+3640]
  00012	89 88 24 0e 00
	00		 mov	 DWORD PTR [eax+3620], ecx

; 6148 : 	lpObj->pInventoryCount  = &lpObj->InventoryCount1;

  00018	8d 88 3c 0e 00
	00		 lea	 ecx, DWORD PTR [eax+3644]
  0001e	89 90 28 0e 00
	00		 mov	 DWORD PTR [eax+3624], edx
  00024	89 88 2c 0e 00
	00		 mov	 DWORD PTR [eax+3628], ecx

; 6149 : }

  0002a	5d		 pop	 ebp
  0002b	c3		 ret	 0
?gObjSetInventory1Pointer@@YAXPAUOBJECTSTRUCT@@@Z ENDP	; gObjSetInventory1Pointer
_TEXT	ENDS
PUBLIC	?gObjSetInventory2Pointer@@YAXPAUOBJECTSTRUCT@@@Z ; gObjSetInventory2Pointer
; Function compile flags: /Ogtp
;	COMDAT ?gObjSetInventory2Pointer@@YAXPAUOBJECTSTRUCT@@@Z
_TEXT	SEGMENT
_lpObj$ = 8						; size = 4
?gObjSetInventory2Pointer@@YAXPAUOBJECTSTRUCT@@@Z PROC	; gObjSetInventory2Pointer, COMDAT

; 6152 : {

  00000	55		 push	 ebp
  00001	8b ec		 mov	 ebp, esp

; 6153 : 	lpObj->pInventory = lpObj->Inventory2;

  00003	8b 45 08	 mov	 eax, DWORD PTR _lpObj$[ebp]
  00006	8b 88 40 0e 00
	00		 mov	 ecx, DWORD PTR [eax+3648]

; 6154 : 	lpObj->pInventoryMap = lpObj->InventoryMap2;

  0000c	8b 90 44 0e 00
	00		 mov	 edx, DWORD PTR [eax+3652]
  00012	89 88 24 0e 00
	00		 mov	 DWORD PTR [eax+3620], ecx

; 6155 : 	lpObj->pInventoryCount  = &lpObj->InventoryCount2;

  00018	8d 88 48 0e 00
	00		 lea	 ecx, DWORD PTR [eax+3656]
  0001e	89 90 28 0e 00
	00		 mov	 DWORD PTR [eax+3624], edx
  00024	89 88 2c 0e 00
	00		 mov	 DWORD PTR [eax+3628], ecx

; 6156 : }

  0002a	5d		 pop	 ebp
  0002b	c3		 ret	 0
?gObjSetInventory2Pointer@@YAXPAUOBJECTSTRUCT@@@Z ENDP	; gObjSetInventory2Pointer
_TEXT	ENDS
PUBLIC	?gObjAddMsgSend@@YAXPAUOBJECTSTRUCT@@HHH@Z	; gObjAddMsgSend
; Function compile flags: /Ogtp
;	COMDAT ?gObjAddMsgSend@@YAXPAUOBJECTSTRUCT@@HHH@Z
_TEXT	SEGMENT
_lpObj$ = 8						; size = 4
_aMsgCode$ = 12						; size = 4
_aIndex$ = 16						; size = 4
_SubCode$ = 20						; size = 4
?gObjAddMsgSend@@YAXPAUOBJECTSTRUCT@@HHH@Z PROC		; gObjAddMsgSend, COMDAT

; 6159 : {

  00000	55		 push	 ebp
  00001	8b ec		 mov	 ebp, esp
  00003	56		 push	 esi
  00004	57		 push	 edi

; 6160 : 	for ( int n=0;n<MAX_MONSTER_SEND_MSG;n++)

  00005	8b 7d 08	 mov	 edi, DWORD PTR _lpObj$[ebp]
  00008	8b 0f		 mov	 ecx, DWORD PTR [edi]
  0000a	8b c1		 mov	 eax, ecx
  0000c	33 f6		 xor	 esi, esi
  0000e	69 c0 20 03 00
	00		 imul	 eax, 800		; 00000320H
  00014	8d 90 00 00 00
	00		 lea	 edx, DWORD PTR ?gSMMsg@@3PAY0DC@UMessageStateMachine@@A[eax]
  0001a	8b c2		 mov	 eax, edx
  0001c	8d 64 24 00	 npad	 4
$LL9@gObjAddMsg:

; 6161 : 	{
; 6162 : 		if ( gSMMsg[lpObj->m_Index][n].MsgCode < 0 )

  00020	83 38 00	 cmp	 DWORD PTR [eax], 0
  00023	7c 29		 jl	 SHORT $LN14@gObjAddMsg

; 6160 : 	for ( int n=0;n<MAX_MONSTER_SEND_MSG;n++)

  00025	46		 inc	 esi
  00026	83 c0 10	 add	 eax, 16			; 00000010H
  00029	83 fe 32	 cmp	 esi, 50			; 00000032H
  0002c	7c f2		 jl	 SHORT $LL9@gObjAddMsg

; 6170 : 		}
; 6171 : 	}
; 6172 : 
; 6173 : 	for (int n=0;n<MAX_MONSTER_SEND_MSG;n++)

  0002e	33 f6		 xor	 esi, esi
$LL5@gObjAddMsg:

; 6174 : 	{
; 6175 : 		if ( gSMMsg[lpObj->m_Index][n].MsgCode == 2 || gSMMsg[lpObj->m_Index][n].MsgCode == 6 || gSMMsg[lpObj->m_Index][n].MsgCode == 7 )

  00030	8b 02		 mov	 eax, DWORD PTR [edx]
  00032	83 f8 02	 cmp	 eax, 2
  00035	74 2a		 je	 SHORT $LN15@gObjAddMsg
  00037	83 f8 06	 cmp	 eax, 6
  0003a	74 25		 je	 SHORT $LN15@gObjAddMsg
  0003c	83 f8 07	 cmp	 eax, 7
  0003f	74 20		 je	 SHORT $LN15@gObjAddMsg

; 6170 : 		}
; 6171 : 	}
; 6172 : 
; 6173 : 	for (int n=0;n<MAX_MONSTER_SEND_MSG;n++)

  00041	46		 inc	 esi
  00042	83 c2 10	 add	 edx, 16			; 00000010H
  00045	83 fe 32	 cmp	 esi, 50			; 00000032H
  00048	7c e6		 jl	 SHORT $LL5@gObjAddMsg
  0004a	5f		 pop	 edi
  0004b	5e		 pop	 esi

; 6181 : 			
; 6182 : 			return;
; 6183 : 		}
; 6184 : 	}
; 6185 : }

  0004c	5d		 pop	 ebp
  0004d	c3		 ret	 0
$LN14@gObjAddMsg:

; 6163 : 		{
; 6164 : 			gSMMsg[lpObj->m_Index][n].MsgCode = aMsgCode;

  0004e	8b 55 0c	 mov	 edx, DWORD PTR _aMsgCode$[ebp]
  00051	6b c9 32	 imul	 ecx, 50			; 00000032H
  00054	03 ce		 add	 ecx, esi
  00056	c1 e1 04	 shl	 ecx, 4
  00059	89 91 00 00 00
	00		 mov	 DWORD PTR ?gSMMsg@@3PAY0DC@UMessageStateMachine@@A[ecx], edx

; 6165 : 			gSMMsg[lpObj->m_Index][n].MsgTime = GetTickCount();
; 6166 : 			gSMMsg[lpObj->m_Index][n].SendUser = aIndex;
; 6167 : 			gSMMsg[lpObj->m_Index][n].SubCode = SubCode;
; 6168 : 
; 6169 : 			return;

  0005f	eb 11		 jmp	 SHORT $LN18@gObjAddMsg
$LN15@gObjAddMsg:

; 6176 : 		{
; 6177 : 			gSMMsg[lpObj->m_Index][n].MsgCode = aMsgCode;

  00061	8b 45 0c	 mov	 eax, DWORD PTR _aMsgCode$[ebp]
  00064	6b c9 32	 imul	 ecx, 50			; 00000032H
  00067	03 ce		 add	 ecx, esi
  00069	c1 e1 04	 shl	 ecx, 4
  0006c	89 81 00 00 00
	00		 mov	 DWORD PTR ?gSMMsg@@3PAY0DC@UMessageStateMachine@@A[ecx], eax
$LN18@gObjAddMsg:

; 6178 : 			gSMMsg[lpObj->m_Index][n].MsgTime = GetTickCount();

  00072	ff 15 00 00 00
	00		 call	 DWORD PTR __imp__GetTickCount@0
  00078	8b 0f		 mov	 ecx, DWORD PTR [edi]
  0007a	6b c9 32	 imul	 ecx, 50			; 00000032H
  0007d	03 ce		 add	 ecx, esi
  0007f	c1 e1 04	 shl	 ecx, 4
  00082	89 81 08 00 00
	00		 mov	 DWORD PTR ?gSMMsg@@3PAY0DC@UMessageStateMachine@@A[ecx+8], eax

; 6179 : 			gSMMsg[lpObj->m_Index][n].SendUser = aIndex;

  00088	8b 17		 mov	 edx, DWORD PTR [edi]
  0008a	8b 45 10	 mov	 eax, DWORD PTR _aIndex$[ebp]
  0008d	6b d2 32	 imul	 edx, 50			; 00000032H
  00090	03 d6		 add	 edx, esi
  00092	c1 e2 04	 shl	 edx, 4
  00095	89 82 04 00 00
	00		 mov	 DWORD PTR ?gSMMsg@@3PAY0DC@UMessageStateMachine@@A[edx+4], eax

; 6180 : 			gSMMsg[lpObj->m_Index][n].SubCode = SubCode;

  0009b	8b 0f		 mov	 ecx, DWORD PTR [edi]
  0009d	8b 55 14	 mov	 edx, DWORD PTR _SubCode$[ebp]
  000a0	6b c9 32	 imul	 ecx, 50			; 00000032H
  000a3	03 ce		 add	 ecx, esi
  000a5	c1 e1 04	 shl	 ecx, 4
  000a8	5f		 pop	 edi
  000a9	89 91 0c 00 00
	00		 mov	 DWORD PTR ?gSMMsg@@3PAY0DC@UMessageStateMachine@@A[ecx+12], edx
  000af	5e		 pop	 esi

; 6181 : 			
; 6182 : 			return;
; 6183 : 		}
; 6184 : 	}
; 6185 : }

  000b0	5d		 pop	 ebp
  000b1	c3		 ret	 0
?gObjAddMsgSend@@YAXPAUOBJECTSTRUCT@@HHH@Z ENDP		; gObjAddMsgSend
_TEXT	ENDS
PUBLIC	?gObjAddMsgSendDelay@@YAXPAUOBJECTSTRUCT@@HHHH@Z ; gObjAddMsgSendDelay
; Function compile flags: /Ogtp
;	COMDAT ?gObjAddMsgSendDelay@@YAXPAUOBJECTSTRUCT@@HHHH@Z
_TEXT	SEGMENT
_lpObj$ = 8						; size = 4
_aMsgCode$ = 12						; size = 4
_aIndex$ = 16						; size = 4
_delay$ = 20						; size = 4
_SubCode$ = 24						; size = 4
?gObjAddMsgSendDelay@@YAXPAUOBJECTSTRUCT@@HHHH@Z PROC	; gObjAddMsgSendDelay, COMDAT

; 6188 : {

  00000	55		 push	 ebp
  00001	8b ec		 mov	 ebp, esp
  00003	56		 push	 esi
  00004	57		 push	 edi

; 6189 : 	for ( int n=0;n<MAX_MONSTER_SEND_MSG;n++)

  00005	8b 7d 08	 mov	 edi, DWORD PTR _lpObj$[ebp]
  00008	8b 0f		 mov	 ecx, DWORD PTR [edi]
  0000a	8b c1		 mov	 eax, ecx
  0000c	33 f6		 xor	 esi, esi
  0000e	69 c0 20 03 00
	00		 imul	 eax, 800		; 00000320H
  00014	8d 90 00 00 00
	00		 lea	 edx, DWORD PTR ?gSMMsg@@3PAY0DC@UMessageStateMachine@@A[eax]
  0001a	8b c2		 mov	 eax, edx
  0001c	8d 64 24 00	 npad	 4
$LL9@gObjAddMsg@2:

; 6190 : 	{
; 6191 : 		if ( gSMMsg[lpObj->m_Index][n].MsgCode < 0 )

  00020	83 38 00	 cmp	 DWORD PTR [eax], 0
  00023	7c 29		 jl	 SHORT $LN14@gObjAddMsg@2

; 6189 : 	for ( int n=0;n<MAX_MONSTER_SEND_MSG;n++)

  00025	46		 inc	 esi
  00026	83 c0 10	 add	 eax, 16			; 00000010H
  00029	83 fe 32	 cmp	 esi, 50			; 00000032H
  0002c	7c f2		 jl	 SHORT $LL9@gObjAddMsg@2

; 6206 : 		}
; 6207 : 	}
; 6208 : 
; 6209 : 	for (int n=0;n<MAX_MONSTER_SEND_MSG;n++)

  0002e	33 f6		 xor	 esi, esi
$LL5@gObjAddMsg@2:

; 6210 : 	{
; 6211 : 		if ( gSMMsg[lpObj->m_Index][n].MsgCode == 2 || gSMMsg[lpObj->m_Index][n].MsgCode == 6 || gSMMsg[lpObj->m_Index][n].MsgCode == 7 )

  00030	8b 02		 mov	 eax, DWORD PTR [edx]
  00032	83 f8 02	 cmp	 eax, 2
  00035	74 33		 je	 SHORT $LN15@gObjAddMsg@2
  00037	83 f8 06	 cmp	 eax, 6
  0003a	74 2e		 je	 SHORT $LN15@gObjAddMsg@2
  0003c	83 f8 07	 cmp	 eax, 7
  0003f	74 29		 je	 SHORT $LN15@gObjAddMsg@2

; 6206 : 		}
; 6207 : 	}
; 6208 : 
; 6209 : 	for (int n=0;n<MAX_MONSTER_SEND_MSG;n++)

  00041	46		 inc	 esi
  00042	83 c2 10	 add	 edx, 16			; 00000010H
  00045	83 fe 32	 cmp	 esi, 50			; 00000032H
  00048	7c e6		 jl	 SHORT $LL5@gObjAddMsg@2
  0004a	5f		 pop	 edi
  0004b	5e		 pop	 esi

; 6217 : 			
; 6218 : 			return;
; 6219 : 		}
; 6220 : 	}
; 6221 : 
; 6222 : }

  0004c	5d		 pop	 ebp
  0004d	c3		 ret	 0
$LN14@gObjAddMsg@2:

; 6192 : 		{
; 6193 : #if(FIX_REF_ON_REF == TRUE)
; 6194 : 			//if(lpObj->FixRefOnRef == true && aMsgCode == 10)
; 6195 : 			//{
; 6196 : 			//	return;
; 6197 : 			//}
; 6198 : 			//lpObj->FixRefOnRef = true;
; 6199 : #endif
; 6200 : 			gSMMsg[lpObj->m_Index][n].MsgCode = aMsgCode;

  0004e	8b 55 0c	 mov	 edx, DWORD PTR _aMsgCode$[ebp]
  00051	6b c9 32	 imul	 ecx, 50			; 00000032H
  00054	03 ce		 add	 ecx, esi
  00056	c1 e1 04	 shl	 ecx, 4
  00059	89 91 00 00 00
	00		 mov	 DWORD PTR ?gSMMsg@@3PAY0DC@UMessageStateMachine@@A[ecx], edx

; 6201 : 			gSMMsg[lpObj->m_Index][n].MsgTime = GetTickCount() + delay;

  0005f	ff 15 00 00 00
	00		 call	 DWORD PTR __imp__GetTickCount@0
  00065	03 45 14	 add	 eax, DWORD PTR _delay$[ebp]

; 6202 : 			gSMMsg[lpObj->m_Index][n].SendUser = aIndex;
; 6203 : 			gSMMsg[lpObj->m_Index][n].SubCode = SubCode;
; 6204 : 
; 6205 : 			return;

  00068	eb 17		 jmp	 SHORT $LN18@gObjAddMsg@2
$LN15@gObjAddMsg@2:

; 6212 : 		{
; 6213 : 			gSMMsg[lpObj->m_Index][n].MsgCode = aMsgCode;

  0006a	8b 45 0c	 mov	 eax, DWORD PTR _aMsgCode$[ebp]
  0006d	6b c9 32	 imul	 ecx, 50			; 00000032H
  00070	03 ce		 add	 ecx, esi
  00072	c1 e1 04	 shl	 ecx, 4
  00075	89 81 00 00 00
	00		 mov	 DWORD PTR ?gSMMsg@@3PAY0DC@UMessageStateMachine@@A[ecx], eax

; 6214 : 			gSMMsg[lpObj->m_Index][n].MsgTime = GetTickCount();

  0007b	ff 15 00 00 00
	00		 call	 DWORD PTR __imp__GetTickCount@0
$LN18@gObjAddMsg@2:
  00081	8b 0f		 mov	 ecx, DWORD PTR [edi]
  00083	6b c9 32	 imul	 ecx, 50			; 00000032H
  00086	03 ce		 add	 ecx, esi
  00088	c1 e1 04	 shl	 ecx, 4
  0008b	89 81 08 00 00
	00		 mov	 DWORD PTR ?gSMMsg@@3PAY0DC@UMessageStateMachine@@A[ecx+8], eax

; 6215 : 			gSMMsg[lpObj->m_Index][n].SendUser= aIndex;

  00091	8b 17		 mov	 edx, DWORD PTR [edi]
  00093	8b 45 10	 mov	 eax, DWORD PTR _aIndex$[ebp]
  00096	6b d2 32	 imul	 edx, 50			; 00000032H
  00099	03 d6		 add	 edx, esi
  0009b	c1 e2 04	 shl	 edx, 4
  0009e	89 82 04 00 00
	00		 mov	 DWORD PTR ?gSMMsg@@3PAY0DC@UMessageStateMachine@@A[edx+4], eax

; 6216 : 			gSMMsg[lpObj->m_Index][n].SubCode = SubCode;

  000a4	8b 0f		 mov	 ecx, DWORD PTR [edi]
  000a6	8b 55 18	 mov	 edx, DWORD PTR _SubCode$[ebp]
  000a9	6b c9 32	 imul	 ecx, 50			; 00000032H
  000ac	03 ce		 add	 ecx, esi
  000ae	c1 e1 04	 shl	 ecx, 4
  000b1	5f		 pop	 edi
  000b2	89 91 0c 00 00
	00		 mov	 DWORD PTR ?gSMMsg@@3PAY0DC@UMessageStateMachine@@A[ecx+12], edx
  000b8	5e		 pop	 esi

; 6217 : 			
; 6218 : 			return;
; 6219 : 		}
; 6220 : 	}
; 6221 : 
; 6222 : }

  000b9	5d		 pop	 ebp
  000ba	c3		 ret	 0
?gObjAddMsgSendDelay@@YAXPAUOBJECTSTRUCT@@HHHH@Z ENDP	; gObjAddMsgSendDelay
_TEXT	ENDS
PUBLIC	?gObjAddMsgSendDelayInSpecificQPos@@YAXPAUOBJECTSTRUCT@@HHHHH@Z ; gObjAddMsgSendDelayInSpecificQPos
; Function compile flags: /Ogtp
;	COMDAT ?gObjAddMsgSendDelayInSpecificQPos@@YAXPAUOBJECTSTRUCT@@HHHHH@Z
_TEXT	SEGMENT
_lpObj$ = 8						; size = 4
_aMsgCode$ = 12						; size = 4
_aIndex$ = 16						; size = 4
_delay$ = 20						; size = 4
_SubCode$ = 24						; size = 4
_iQPosition$ = 28					; size = 4
?gObjAddMsgSendDelayInSpecificQPos@@YAXPAUOBJECTSTRUCT@@HHHHH@Z PROC ; gObjAddMsgSendDelayInSpecificQPos, COMDAT

; 6225 : {

  00000	55		 push	 ebp
  00001	8b ec		 mov	 ebp, esp
  00003	56		 push	 esi

; 6226 : 	if ( iQPosition >= 0 &&  iQPosition < MAX_MONSTER_SEND_MSG )

  00004	8b 75 1c	 mov	 esi, DWORD PTR _iQPosition$[ebp]
  00007	83 fe 31	 cmp	 esi, 49			; 00000031H
  0000a	77 54		 ja	 SHORT $LN1@gObjAddMsg@3

; 6227 : 	{
; 6228 : 		gSMMsg[lpObj->m_Index][iQPosition].MsgCode = aMsgCode;

  0000c	8b 4d 0c	 mov	 ecx, DWORD PTR _aMsgCode$[ebp]
  0000f	57		 push	 edi
  00010	8b 7d 08	 mov	 edi, DWORD PTR _lpObj$[ebp]
  00013	8b 07		 mov	 eax, DWORD PTR [edi]
  00015	6b c0 32	 imul	 eax, 50			; 00000032H
  00018	03 c6		 add	 eax, esi
  0001a	c1 e0 04	 shl	 eax, 4
  0001d	89 88 00 00 00
	00		 mov	 DWORD PTR ?gSMMsg@@3PAY0DC@UMessageStateMachine@@A[eax], ecx

; 6229 : 		gSMMsg[lpObj->m_Index][iQPosition].MsgTime = GetTickCount();

  00023	ff 15 00 00 00
	00		 call	 DWORD PTR __imp__GetTickCount@0
  00029	8b 17		 mov	 edx, DWORD PTR [edi]
  0002b	6b d2 32	 imul	 edx, 50			; 00000032H

; 6230 : 		gSMMsg[lpObj->m_Index][iQPosition].SendUser = aIndex;

  0002e	8b 4d 10	 mov	 ecx, DWORD PTR _aIndex$[ebp]
  00031	03 d6		 add	 edx, esi
  00033	c1 e2 04	 shl	 edx, 4
  00036	89 82 08 00 00
	00		 mov	 DWORD PTR ?gSMMsg@@3PAY0DC@UMessageStateMachine@@A[edx+8], eax
  0003c	8b 07		 mov	 eax, DWORD PTR [edi]
  0003e	6b c0 32	 imul	 eax, 50			; 00000032H
  00041	03 c6		 add	 eax, esi
  00043	c1 e0 04	 shl	 eax, 4
  00046	89 88 04 00 00
	00		 mov	 DWORD PTR ?gSMMsg@@3PAY0DC@UMessageStateMachine@@A[eax+4], ecx

; 6231 : 		gSMMsg[lpObj->m_Index][iQPosition].SubCode = SubCode;

  0004c	8b 17		 mov	 edx, DWORD PTR [edi]
  0004e	8b 45 18	 mov	 eax, DWORD PTR _SubCode$[ebp]
  00051	6b d2 32	 imul	 edx, 50			; 00000032H
  00054	03 d6		 add	 edx, esi
  00056	c1 e2 04	 shl	 edx, 4
  00059	89 82 0c 00 00
	00		 mov	 DWORD PTR ?gSMMsg@@3PAY0DC@UMessageStateMachine@@A[edx+12], eax
  0005f	5f		 pop	 edi
$LN1@gObjAddMsg@3:
  00060	5e		 pop	 esi

; 6232 : 	}
; 6233 : 
; 6234 : }

  00061	5d		 pop	 ebp
  00062	c3		 ret	 0
?gObjAddMsgSendDelayInSpecificQPos@@YAXPAUOBJECTSTRUCT@@HHHHH@Z ENDP ; gObjAddMsgSendDelayInSpecificQPos
_TEXT	ENDS
PUBLIC	?gObjAddAttackProcMsgSendDelay@@YAXPAUOBJECTSTRUCT@@HHHHH@Z ; gObjAddAttackProcMsgSendDelay
; Function compile flags: /Ogtp
;	COMDAT ?gObjAddAttackProcMsgSendDelay@@YAXPAUOBJECTSTRUCT@@HHHHH@Z
_TEXT	SEGMENT
_lpObj$ = 8						; size = 4
_aMsgCode$ = 12						; size = 4
_aIndex$ = 16						; size = 4
_delay$ = 20						; size = 4
_SubCode$ = 24						; size = 4
_SubCode2$ = 28						; size = 4
?gObjAddAttackProcMsgSendDelay@@YAXPAUOBJECTSTRUCT@@HHHHH@Z PROC ; gObjAddAttackProcMsgSendDelay, COMDAT

; 6237 : {

  00000	55		 push	 ebp
  00001	8b ec		 mov	 ebp, esp

; 6239 : 	{
; 6240 : 		int iIndex = lpObj->m_Index - OBJ_STARTUSERINDZT;

  00003	8b 4d 08	 mov	 ecx, DWORD PTR _lpObj$[ebp]
  00006	8b 11		 mov	 edx, DWORD PTR [ecx]
  00008	81 ea b0 36 00
	00		 sub	 edx, 14000		; 000036b0H
  0000e	33 c0		 xor	 eax, eax
  00010	6b d2 32	 imul	 edx, 50			; 00000032H
  00013	eb 0b 8d a4 24
	00 00 00 00 8d
	64 24 00	 npad	 13
$LL4@gObjAddAtt:

; 6241 : 
; 6242 : 		if ( gSMAttackProcMsg[iIndex][n].MsgCode < 0 )

  00020	8d 0c 02	 lea	 ecx, DWORD PTR [edx+eax]
  00023	8d 0c 89	 lea	 ecx, DWORD PTR [ecx+ecx*4]
  00026	83 3c 8d 00 00
	00 00 00	 cmp	 DWORD PTR ?gSMAttackProcMsg@@3PAY0DC@UZtMessageStateMachine@@A[ecx*4], 0
  0002e	7c 08		 jl	 SHORT $LN8@gObjAddAtt

; 6238 : 	for ( int n=0;n<MAX_MONSTER_SEND_ATTACK_MSG;n++)

  00030	40		 inc	 eax
  00031	83 f8 32	 cmp	 eax, 50			; 00000032H
  00034	7c ea		 jl	 SHORT $LL4@gObjAddAtt

; 6249 : 			return;
; 6250 : 		}
; 6251 : 	}
; 6252 : 
; 6253 : }

  00036	5d		 pop	 ebp
  00037	c3		 ret	 0
$LN8@gObjAddAtt:
  00038	56		 push	 esi

; 6243 : 		{
; 6244 : 			gSMAttackProcMsg[iIndex][n].MsgCode = aMsgCode;

  00039	03 c2		 add	 eax, edx
  0003b	8b 55 0c	 mov	 edx, DWORD PTR _aMsgCode$[ebp]
  0003e	8d 34 80	 lea	 esi, DWORD PTR [eax+eax*4]
  00041	03 f6		 add	 esi, esi
  00043	03 f6		 add	 esi, esi
  00045	89 96 00 00 00
	00		 mov	 DWORD PTR ?gSMAttackProcMsg@@3PAY0DC@UZtMessageStateMachine@@A[esi], edx

; 6245 : 			gSMAttackProcMsg[iIndex][n].MsgTime = GetTickCount() + delay;

  0004b	ff 15 00 00 00
	00		 call	 DWORD PTR __imp__GetTickCount@0
  00051	03 45 14	 add	 eax, DWORD PTR _delay$[ebp]

; 6246 : 			gSMAttackProcMsg[iIndex][n].SendUser = aIndex;
; 6247 : 			gSMAttackProcMsg[iIndex][n].SubCode = SubCode;

  00054	8b 4d 18	 mov	 ecx, DWORD PTR _SubCode$[ebp]

; 6248 : 			gSMAttackProcMsg[iIndex][n].SubCode2 = SubCode2;

  00057	8b 55 1c	 mov	 edx, DWORD PTR _SubCode2$[ebp]
  0005a	89 86 08 00 00
	00		 mov	 DWORD PTR ?gSMAttackProcMsg@@3PAY0DC@UZtMessageStateMachine@@A[esi+8], eax
  00060	8b 45 10	 mov	 eax, DWORD PTR _aIndex$[ebp]
  00063	89 86 04 00 00
	00		 mov	 DWORD PTR ?gSMAttackProcMsg@@3PAY0DC@UZtMessageStateMachine@@A[esi+4], eax
  00069	89 8e 0c 00 00
	00		 mov	 DWORD PTR ?gSMAttackProcMsg@@3PAY0DC@UZtMessageStateMachine@@A[esi+12], ecx
  0006f	89 96 10 00 00
	00		 mov	 DWORD PTR ?gSMAttackProcMsg@@3PAY0DC@UZtMessageStateMachine@@A[esi+16], edx
  00075	5e		 pop	 esi

; 6249 : 			return;
; 6250 : 		}
; 6251 : 	}
; 6252 : 
; 6253 : }

  00076	5d		 pop	 ebp
  00077	c3		 ret	 0
?gObjAddAttackProcMsgSendDelay@@YAXPAUOBJECTSTRUCT@@HHHHH@Z ENDP ; gObjAddAttackProcMsgSendDelay
_TEXT	ENDS
PUBLIC	?gObjBackSpring@@YAHPAUOBJECTSTRUCT@@0@Z	; gObjBackSpring
EXTRN	?RecvPositionSetProc@@YAXPAUPMSG_POSISTION_SET@@H@Z:PROC ; RecvPositionSetProc
EXTRN	?SetStandAttr@MapClass@@QAEXHH@Z:PROC		; MapClass::SetStandAttr
EXTRN	?ClearStandAttr@MapClass@@QAEXHH@Z:PROC		; MapClass::ClearStandAttr
EXTRN	?GetAttr@MapClass@@QAEEHH@Z:PROC		; MapClass::GetAttr
EXTRN	?MapC@@3PAVMapClass@@A:BYTE			; MapC
EXTRN	_rand:PROC
EXTRN	?GetAltarUserIndex@CCrywolfAltar@@QAEHH@Z:PROC	; CCrywolfAltar::GetAltarUserIndex
EXTRN	?g_CrywolfNPC_Altar@@3VCCrywolfAltar@@A:BYTE	; g_CrywolfNPC_Altar
EXTRN	?g_Crywolf@@3VCCrywolf@@A:BYTE			; g_Crywolf
; Function compile flags: /Ogtp
;	COMDAT ?gObjBackSpring@@YAHPAUOBJECTSTRUCT@@0@Z
_TEXT	SEGMENT
_pMove$ = -8						; size = 5
_y$ = 8							; size = 4
_lpObj$ = 8						; size = 4
_lpTargetObj$ = 12					; size = 4
?gObjBackSpring@@YAHPAUOBJECTSTRUCT@@0@Z PROC		; gObjBackSpring, COMDAT

; 6432 : {

  00000	55		 push	 ebp
  00001	8b ec		 mov	 ebp, esp
  00003	83 ec 08	 sub	 esp, 8
  00006	56		 push	 esi

; 6433 : 	int tdir;
; 6434 : 
; 6435 : 	if ( MAX_MAP_RANGE(lpObj->MapNumber) == FALSE )

  00007	8b 75 08	 mov	 esi, DWORD PTR _lpObj$[ebp]
  0000a	b8 52 00 00 00	 mov	 eax, 82			; 00000052H
  0000f	3a 86 49 01 00
	00		 cmp	 al, BYTE PTR [esi+329]
  00015	1b c0		 sbb	 eax, eax
  00017	40		 inc	 eax
  00018	75 1f		 jne	 SHORT $LN34@gObjBackSp

; 6436 : 	{
; 6437 : 		LogAdd("error : %s %d", __FILE__, __LINE__);

  0001a	68 25 19 00 00	 push	 6437			; 00001925H
  0001f	68 00 00 00 00	 push	 OFFSET ??_C@_08DCNFOMBO@user?4cpp?$AA@
  00024	68 00 00 00 00	 push	 OFFSET ??_C@_0O@CKAEPJAF@error?5?3?5?$CFs?5?$CFd?$AA@
  00029	ff 15 00 00 00
	00		 call	 DWORD PTR ?LogAdd@@3P6AXPADZZA ; LogAdd
  0002f	83 c4 0c	 add	 esp, 12			; 0000000cH
$LN55@gObjBackSp:

; 6438 : 		return FALSE;

  00032	33 c0		 xor	 eax, eax
  00034	5e		 pop	 esi

; 6599 : 	}
; 6600 : 
; 6601 : 	return TRUE;
; 6602 : }

  00035	8b e5		 mov	 esp, ebp
  00037	5d		 pop	 ebp
  00038	c3		 ret	 0
$LN34@gObjBackSp:

; 6439 : 	}
; 6440 : 
; 6441 : 	if ( lpObj->Type == OBJ_USER )

  00039	0f b7 4e 68	 movzx	 ecx, WORD PTR [esi+104]
  0003d	83 f9 01	 cmp	 ecx, 1
  00040	75 16		 jne	 SHORT $LN30@gObjBackSp

; 6442 : 	{
; 6443 : 		if ( lpObj->m_LastTeleportTime > 0 )

  00042	80 be e6 10 00
	00 00		 cmp	 BYTE PTR [esi+4326], 0

; 6444 : 		{
; 6445 : 			return FALSE;

  00049	7f e7		 jg	 SHORT $LN55@gObjBackSp

; 6446 : 		}
; 6447 : 	}
; 6448 : 
; 6449 : //#if(GS_CASTLE==1)
; 6450 : 	if( lpObj->Type == OBJ_USER)

  0004b	3b c9		 cmp	 ecx, ecx
  0004d	75 09		 jne	 SHORT $LN30@gObjBackSp

; 6451 : 	{
; 6452 : 		if((lpObj->Authority &0x02) == 2)

  0004f	f6 86 0c 02 00
	00 02		 test	 BYTE PTR [esi+524], 2

; 6453 : 		{
; 6454 : 			return FALSE;

  00056	75 da		 jne	 SHORT $LN55@gObjBackSp
$LN30@gObjBackSp:

; 6455 : 		}
; 6456 : 	}
; 6457 : //#endif
; 6458 : 
; 6459 : 	if ( lpObj->Class >= 131 && lpObj->Class <= 134 )

  00058	0f b7 86 b8 00
	00 00		 movzx	 eax, WORD PTR [esi+184]
  0005f	ba 83 00 00 00	 mov	 edx, 131		; 00000083H
  00064	66 3b c2	 cmp	 ax, dx
  00067	72 0a		 jb	 SHORT $LN29@gObjBackSp
  00069	ba 86 00 00 00	 mov	 edx, 134		; 00000086H
  0006e	66 3b c2	 cmp	 ax, dx

; 6460 : 	{
; 6461 : 		return FALSE;

  00071	76 bf		 jbe	 SHORT $LN55@gObjBackSp
$LN29@gObjBackSp:

; 6462 : 	}
; 6463 : 
; 6464 : //#if(GS_CASTLE==1)
; 6465 : 	if( lpObj->Class == 277 ||//castle siege ??
; 6466 : 		lpObj->Class == 283 ||
; 6467 : 		lpObj->Class == 288 ||
; 6468 : 		lpObj->Class == 278 ||
; 6469 : 		lpObj->Class == 215 ||
; 6470 : 		lpObj->Class == 216 ||
; 6471 : 		lpObj->Class == 217 ||
; 6472 : 		lpObj->Class == 218 ||
; 6473 : 		lpObj->Class == 219 )

  00073	ba 15 01 00 00	 mov	 edx, 277		; 00000115H
  00078	66 3b c2	 cmp	 ax, dx
  0007b	74 b5		 je	 SHORT $LN55@gObjBackSp
  0007d	ba 1b 01 00 00	 mov	 edx, 283		; 0000011bH
  00082	66 3b c2	 cmp	 ax, dx
  00085	74 ab		 je	 SHORT $LN55@gObjBackSp
  00087	ba 20 01 00 00	 mov	 edx, 288		; 00000120H
  0008c	66 3b c2	 cmp	 ax, dx
  0008f	74 a1		 je	 SHORT $LN55@gObjBackSp
  00091	ba 16 01 00 00	 mov	 edx, 278		; 00000116H
  00096	66 3b c2	 cmp	 ax, dx
  00099	74 97		 je	 SHORT $LN55@gObjBackSp
  0009b	ba d7 00 00 00	 mov	 edx, 215		; 000000d7H
  000a0	66 3b c2	 cmp	 ax, dx
  000a3	74 8d		 je	 SHORT $LN55@gObjBackSp
  000a5	ba d8 00 00 00	 mov	 edx, 216		; 000000d8H
  000aa	66 3b c2	 cmp	 ax, dx
  000ad	74 83		 je	 SHORT $LN55@gObjBackSp
  000af	ba d9 00 00 00	 mov	 edx, 217		; 000000d9H
  000b4	66 3b c2	 cmp	 ax, dx
  000b7	0f 84 75 ff ff
	ff		 je	 $LN55@gObjBackSp
  000bd	ba da 00 00 00	 mov	 edx, 218		; 000000daH
  000c2	66 3b c2	 cmp	 ax, dx
  000c5	0f 84 67 ff ff
	ff		 je	 $LN55@gObjBackSp
  000cb	ba db 00 00 00	 mov	 edx, 219		; 000000dbH
  000d0	66 3b c2	 cmp	 ax, dx
  000d3	0f 84 59 ff ff
	ff		 je	 $LN55@gObjBackSp

; 6474 : 	{
; 6475 : 		return FALSE;
; 6476 : 	}
; 6477 : #if(FIX_DL_HORSE_IN_CROWN==FALSE)	
; 6478 : 	if(g_CastleSiege.GetCrownUserIndex() == lpObj->m_Index)
; 6479 : 	{
; 6480 : 		if(lpObj->pInventory[8].m_Type == ITEMGET(13,4))
; 6481 : 		{
; 6482 : 			return FALSE;
; 6483 : 		}
; 6484 : 	}
; 6485 : #endif
; 6486 : 	if(g_Crywolf.GetCrywolfState() == 4 || g_Crywolf.GetCrywolfState() == 3)

  000d9	a1 ec b7 0f 00	 mov	 eax, DWORD PTR ?g_Crywolf@@3VCCrywolf@@A+1030124
  000de	57		 push	 edi
  000df	83 f8 04	 cmp	 eax, 4
  000e2	74 05		 je	 SHORT $LN25@gObjBackSp
  000e4	83 f8 03	 cmp	 eax, 3
  000e7	75 2b		 jne	 SHORT $LN21@gObjBackSp
$LN25@gObjBackSp:

; 6487 : 	{
; 6488 : 		if(lpObj->Type == OBJ_USER)

  000e9	83 f9 01	 cmp	 ecx, 1
  000ec	75 26		 jne	 SHORT $LN21@gObjBackSp

; 6489 : 		{
; 6490 : 			for(int i=205;i<=209;i++)//crywolf altar

  000ee	bf cd 00 00 00	 mov	 edi, 205		; 000000cdH
$LL23@gObjBackSp:

; 6491 : 			{
; 6492 : 				int iAltarIndex = g_CrywolfNPC_Altar.GetAltarUserIndex(i);

  000f3	57		 push	 edi
  000f4	b9 00 00 00 00	 mov	 ecx, OFFSET ?g_CrywolfNPC_Altar@@3VCCrywolfAltar@@A ; g_CrywolfNPC_Altar
  000f9	e8 00 00 00 00	 call	 ?GetAltarUserIndex@CCrywolfAltar@@QAEHH@Z ; CCrywolfAltar::GetAltarUserIndex

; 6493 : 				
; 6494 : 				if(iAltarIndex != -1)

  000fe	83 f8 ff	 cmp	 eax, -1
  00101	74 08		 je	 SHORT $LN22@gObjBackSp

; 6495 : 				{
; 6496 : 					if(iAltarIndex == lpObj->m_Index)

  00103	3b 06		 cmp	 eax, DWORD PTR [esi]
  00105	0f 84 f6 01 00
	00		 je	 $LN17@gObjBackSp
$LN22@gObjBackSp:

; 6489 : 		{
; 6490 : 			for(int i=205;i<=209;i++)//crywolf altar

  0010b	47		 inc	 edi
  0010c	81 ff d1 00 00
	00		 cmp	 edi, 209		; 000000d1H
  00112	7e df		 jle	 SHORT $LL23@gObjBackSp
$LN21@gObjBackSp:

; 6497 : 					{
; 6498 : 						return FALSE;
; 6499 : 					}
; 6500 : 				}
; 6501 : 			}
; 6502 : 		}
; 6503 : 	}
; 6504 : 	
; 6505 : 	if(CRYWOLF_ALTAR_CLASS_RANGE(lpObj->Class) || CHECK_CLASS(204,lpObj->Class) != FALSE) //HermeX Fix

  00114	0f b7 86 b8 00
	00 00		 movzx	 eax, WORD PTR [esi+184]
  0011b	b9 cd 00 00 00	 mov	 ecx, 205		; 000000cdH
  00120	66 3b c1	 cmp	 ax, cx
  00123	72 11		 jb	 SHORT $LN51@gObjBackSp
  00125	ba d1 00 00 00	 mov	 edx, 209		; 000000d1H
  0012a	66 3b d0	 cmp	 dx, ax
  0012d	1b c9		 sbb	 ecx, ecx
  0012f	41		 inc	 ecx
  00130	0f 85 cb 01 00
	00		 jne	 $LN17@gObjBackSp
$LN51@gObjBackSp:
  00136	b9 cc 00 00 00	 mov	 ecx, 204		; 000000ccH
  0013b	66 3b c8	 cmp	 cx, ax
  0013e	0f 84 bd 01 00
	00		 je	 $LN17@gObjBackSp

; 6508 : 	}
; 6509 : 	if(lpObj->Class == 348)//balista

  00144	ba 5c 01 00 00	 mov	 edx, 348		; 0000015cH
  00149	66 3b c2	 cmp	 ax, dx

; 6510 : 	{
; 6511 : 		return FALSE;

  0014c	0f 84 af 01 00
	00		 je	 $LN17@gObjBackSp

; 6512 : 	}
; 6513 : //#endif
; 6514 : 
; 6515 : 	if(lpObj->Class == 275) //Season 2.5 add-on (Kundun Fix)

  00152	b9 13 01 00 00	 mov	 ecx, 275		; 00000113H
  00157	66 3b c1	 cmp	 ax, cx

; 6516 : 	{
; 6517 : 		return FALSE;

  0015a	0f 84 a1 01 00
	00		 je	 $LN17@gObjBackSp

; 6518 : 	}
; 6519 : 
; 6520 : 	//Season 4.0 add-on
; 6521 : 	if(lpObj->Class == 459 ||
; 6522 : 		lpObj->Class == 460 ||
; 6523 : 		lpObj->Class == 461 ||
; 6524 : 		lpObj->Class == 462)

  00160	ba cb 01 00 00	 mov	 edx, 459		; 000001cbH
  00165	66 3b c2	 cmp	 ax, dx
  00168	0f 84 93 01 00
	00		 je	 $LN17@gObjBackSp
  0016e	b9 cc 01 00 00	 mov	 ecx, 460		; 000001ccH
  00173	66 3b c1	 cmp	 ax, cx
  00176	0f 84 85 01 00
	00		 je	 $LN17@gObjBackSp
  0017c	ba cd 01 00 00	 mov	 edx, 461		; 000001cdH
  00181	66 3b c2	 cmp	 ax, dx
  00184	0f 84 77 01 00
	00		 je	 $LN17@gObjBackSp
  0018a	b9 ce 01 00 00	 mov	 ecx, 462		; 000001ceH
  0018f	66 3b c1	 cmp	 ax, cx
  00192	0f 84 69 01 00
	00		 je	 $LN17@gObjBackSp

; 6525 : 	{
; 6526 : 		return FALSE;
; 6527 : 	}
; 6528 : 
; 6529 : 	int EffectID = -1;
; 6530 : 	for(int i=0;i<lpObj->m_btViewStateCount;i++) //season4 add-on

  00198	33 c9		 xor	 ecx, ecx
  0019a	38 8e 27 02 00
	00		 cmp	 BYTE PTR [esi+551], cl
  001a0	76 3b		 jbe	 SHORT $LN10@gObjBackSp
  001a2	8d 96 28 02 00
	00		 lea	 edx, DWORD PTR [esi+552]
  001a8	eb 06 8d 9b 00
	00 00 00	 npad	 8
$LL12@gObjBackSp:

; 6531 : 	{
; 6532 : 		EffectID = lpObj->m_BuffEffectState[i].btBuffIndex;

  001b0	0f b6 02	 movzx	 eax, BYTE PTR [edx]

; 6533 : 
; 6534 : 		if( EffectID == AT_ICE_ARROW ||
; 6535 : 			EffectID == AT_STUN ||
; 6536 : 			EffectID == AT_ILLUSION_RESTRICTION_SPELL)

  001b3	83 f8 39	 cmp	 eax, 57			; 00000039H
  001b6	0f 84 45 01 00
	00		 je	 $LN17@gObjBackSp
  001bc	83 f8 3d	 cmp	 eax, 61			; 0000003dH
  001bf	0f 84 3c 01 00
	00		 je	 $LN17@gObjBackSp
  001c5	83 f8 41	 cmp	 eax, 65			; 00000041H
  001c8	0f 84 33 01 00
	00		 je	 $LN17@gObjBackSp

; 6525 : 	{
; 6526 : 		return FALSE;
; 6527 : 	}
; 6528 : 
; 6529 : 	int EffectID = -1;
; 6530 : 	for(int i=0;i<lpObj->m_btViewStateCount;i++) //season4 add-on

  001ce	0f b6 86 27 02
	00 00		 movzx	 eax, BYTE PTR [esi+551]
  001d5	41		 inc	 ecx
  001d6	83 c2 14	 add	 edx, 20			; 00000014H
  001d9	3b c8		 cmp	 ecx, eax
  001db	7c d3		 jl	 SHORT $LL12@gObjBackSp
$LN10@gObjBackSp:

; 6537 : 		{
; 6538 : 			return FALSE;
; 6539 : 		}
; 6540 : 	}
; 6541 : 	
; 6542 : 	if ( (rand()%3) == 0 )

  001dd	e8 00 00 00 00	 call	 _rand
  001e2	99		 cdq
  001e3	b9 03 00 00 00	 mov	 ecx, 3
  001e8	f7 f9		 idiv	 ecx
  001ea	85 d2		 test	 edx, edx
  001ec	75 1a		 jne	 SHORT $LN7@gObjBackSp

; 6543 : 	{
; 6544 : 		if ( lpTargetObj->Dir < 4 )

  001ee	8b 55 0c	 mov	 edx, DWORD PTR _lpTargetObj$[ebp]
  001f1	8a 82 48 01 00
	00		 mov	 al, BYTE PTR [edx+328]
  001f7	3c 04		 cmp	 al, 4

; 6545 : 		{
; 6546 : 			tdir = lpTargetObj->Dir + 4;

  001f9	0f b6 c0	 movzx	 eax, al
  001fc	73 05		 jae	 SHORT $LN6@gObjBackSp
  001fe	83 c0 04	 add	 eax, 4

; 6547 : 		}
; 6548 : 		else

  00201	eb 0f		 jmp	 SHORT $LN5@gObjBackSp
$LN6@gObjBackSp:

; 6549 : 		{
; 6550 : 			tdir = lpTargetObj->Dir - 4;

  00203	83 e8 04	 sub	 eax, 4

; 6551 : 		}
; 6552 : 
; 6553 : 		tdir *= 2;
; 6554 : 	}
; 6555 : 	else

  00206	eb 0a		 jmp	 SHORT $LN5@gObjBackSp
$LN7@gObjBackSp:

; 6556 : 	{
; 6557 : 		tdir = lpTargetObj->Dir * 2;

  00208	8b 45 0c	 mov	 eax, DWORD PTR _lpTargetObj$[ebp]
  0020b	0f b6 80 48 01
	00 00		 movzx	 eax, BYTE PTR [eax+328]
$LN5@gObjBackSp:

; 6558 : 	}
; 6559 : 
; 6560 : 	int x;
; 6561 : 	int y;
; 6562 : 	BYTE attr;
; 6563 : 
; 6564 : 	x = lpObj->X;
; 6565 : 	y = lpObj->Y;
; 6566 : 	x += RoadPathTable[tdir];

  00212	0f bf 8e 44 01
	00 00		 movsx	 ecx, WORD PTR [esi+324]

; 6567 : 	y += RoadPathTable[1+tdir];

  00219	0f bf 96 46 01
	00 00		 movsx	 edx, WORD PTR [esi+326]
  00220	03 c0		 add	 eax, eax
  00222	53		 push	 ebx
  00223	0f bf 1c 45 00
	00 00 00	 movsx	 ebx, WORD PTR ?RoadPathTable@@3PAFA[eax*2]
  0022b	0f bf 04 45 02
	00 00 00	 movsx	 eax, WORD PTR ?RoadPathTable@@3PAFA[eax*2+2]
  00233	03 d9		 add	 ebx, ecx

; 6568 : 	attr = MapC[lpObj->MapNumber].GetAttr(x, y);

  00235	0f b6 8e 49 01
	00 00		 movzx	 ecx, BYTE PTR [esi+329]
  0023c	69 c9 48 3d 05
	00		 imul	 ecx, 343368		; 00053d48H
  00242	03 c2		 add	 eax, edx
  00244	50		 push	 eax
  00245	53		 push	 ebx
  00246	81 c1 00 00 00
	00		 add	 ecx, OFFSET ?MapC@@3PAVMapClass@@A ; MapC
  0024c	89 45 08	 mov	 DWORD PTR _y$[ebp], eax
  0024f	e8 00 00 00 00	 call	 ?GetAttr@MapClass@@QAEEHH@Z ; MapClass::GetAttr

; 6569 : 
; 6570 : 	if ( (attr&1)==1 ||
; 6571 : 		(attr&2)==2 || 
; 6572 : 		(attr&4)== 4 || 
; 6573 : 		(attr&8)== 8 
; 6574 : //#if(GS_CASTLE==1)
; 6575 : 		||(attr&16)== 16 
; 6576 : //#endif
; 6577 : 		)

  00254	a8 1f		 test	 al, 31			; 0000001fH
  00256	0f 85 9c 00 00
	00		 jne	 $LN2@gObjBackSp

; 6580 : 	}
; 6581 : 
; 6582 : 	PMSG_POSISTION_SET pMove;
; 6583 : 	pMove.h.c = 0xC1;
; 6584 : 	pMove.h.headcode = PROTOCOL_POSITION;
; 6585 : 	pMove.h.size = sizeof(pMove);
; 6586 : 	pMove.X = x;
; 6587 : 	pMove.Y = y;
; 6588 : 
; 6589 : 	lpObj->m_Rest = 0;
; 6590 : 	MapC[lpObj->MapNumber].ClearStandAttr(lpObj->m_OldX, lpObj->m_OldY);

  0025c	0f bf 8e 7a 01
	00 00		 movsx	 ecx, WORD PTR [esi+378]
  00263	0f bf 96 78 01
	00 00		 movsx	 edx, WORD PTR [esi+376]
  0026a	8a 45 08	 mov	 al, BYTE PTR _y$[ebp]
  0026d	51		 push	 ecx
  0026e	0f b6 8e 49 01
	00 00		 movzx	 ecx, BYTE PTR [esi+329]
  00275	69 c9 48 3d 05
	00		 imul	 ecx, 343368		; 00053d48H
  0027b	52		 push	 edx
  0027c	81 c1 00 00 00
	00		 add	 ecx, OFFSET ?MapC@@3PAVMapClass@@A ; MapC
  00282	c6 45 f8 c1	 mov	 BYTE PTR _pMove$[ebp], 193 ; 000000c1H
  00286	66 c7 45 f9 05
	15		 mov	 WORD PTR _pMove$[ebp+1], 5381 ; 00001505H
  0028c	88 5d fb	 mov	 BYTE PTR _pMove$[ebp+3], bl
  0028f	88 45 fc	 mov	 BYTE PTR _pMove$[ebp+4], al
  00292	c6 86 25 02 00
	00 00		 mov	 BYTE PTR [esi+549], 0
  00299	e8 00 00 00 00	 call	 ?ClearStandAttr@MapClass@@QAEXHH@Z ; MapClass::ClearStandAttr

; 6591 : 	MapC[lpObj->MapNumber].SetStandAttr(x, y);

  0029e	0f b6 8e 49 01
	00 00		 movzx	 ecx, BYTE PTR [esi+329]
  002a5	8b 45 08	 mov	 eax, DWORD PTR _y$[ebp]
  002a8	69 c9 48 3d 05
	00		 imul	 ecx, 343368		; 00053d48H
  002ae	50		 push	 eax
  002af	53		 push	 ebx
  002b0	81 c1 00 00 00
	00		 add	 ecx, OFFSET ?MapC@@3PAVMapClass@@A ; MapC
  002b6	e8 00 00 00 00	 call	 ?SetStandAttr@MapClass@@QAEXHH@Z ; MapClass::SetStandAttr

; 6592 : 	lpObj->m_OldX = x;
; 6593 : 	lpObj->m_OldY = y;
; 6594 : 	RecvPositionSetProc(&pMove, lpObj->m_Index);

  002bb	8b 16		 mov	 edx, DWORD PTR [esi]
  002bd	66 8b 4d 08	 mov	 cx, WORD PTR _y$[ebp]
  002c1	52		 push	 edx
  002c2	8d 45 f8	 lea	 eax, DWORD PTR _pMove$[ebp]
  002c5	50		 push	 eax
  002c6	66 89 9e 78 01
	00 00		 mov	 WORD PTR [esi+376], bx
  002cd	66 89 8e 7a 01
	00 00		 mov	 WORD PTR [esi+378], cx
  002d4	e8 00 00 00 00	 call	 ?RecvPositionSetProc@@YAXPAUPMSG_POSISTION_SET@@H@Z ; RecvPositionSetProc

; 6595 : 
; 6596 : 	if ( lpObj->Type == OBJ_USER )

  002d9	b8 01 00 00 00	 mov	 eax, 1
  002de	83 c4 08	 add	 esp, 8
  002e1	66 39 46 68	 cmp	 WORD PTR [esi+104], ax
  002e5	75 0a		 jne	 SHORT $LN53@gObjBackSp

; 6597 : 	{
; 6598 : 		lpObj->PathCount = 0;

  002e7	c7 86 84 01 00
	00 00 00 00 00	 mov	 DWORD PTR [esi+388], 0
$LN53@gObjBackSp:
  002f1	5b		 pop	 ebx
  002f2	5f		 pop	 edi
  002f3	5e		 pop	 esi

; 6599 : 	}
; 6600 : 
; 6601 : 	return TRUE;
; 6602 : }

  002f4	8b e5		 mov	 esp, ebp
  002f6	5d		 pop	 ebp
  002f7	c3		 ret	 0
$LN2@gObjBackSp:
  002f8	5b		 pop	 ebx
  002f9	5f		 pop	 edi

; 6578 : 	{
; 6579 : 		return FALSE;

  002fa	33 c0		 xor	 eax, eax
  002fc	5e		 pop	 esi

; 6599 : 	}
; 6600 : 
; 6601 : 	return TRUE;
; 6602 : }

  002fd	8b e5		 mov	 esp, ebp
  002ff	5d		 pop	 ebp
  00300	c3		 ret	 0
$LN17@gObjBackSp:
  00301	5f		 pop	 edi

; 6506 : 	{
; 6507 : 		return FALSE;

  00302	33 c0		 xor	 eax, eax
  00304	5e		 pop	 esi

; 6599 : 	}
; 6600 : 
; 6601 : 	return TRUE;
; 6602 : }

  00305	8b e5		 mov	 esp, ebp
  00307	5d		 pop	 ebp
  00308	c3		 ret	 0
?gObjBackSpring@@YAHPAUOBJECTSTRUCT@@0@Z ENDP		; gObjBackSpring
_TEXT	ENDS
PUBLIC	?BackSpringCheck@@YAHAAH00E@Z			; BackSpringCheck
; Function compile flags: /Ogtp
;	COMDAT ?BackSpringCheck@@YAHAAH00E@Z
_TEXT	SEGMENT
_x$ = 8							; size = 4
_y$ = 12						; size = 4
_dir$ = 16						; size = 4
_map$ = 20						; size = 1
?BackSpringCheck@@YAHAAH00E@Z PROC			; BackSpringCheck, COMDAT

; 6605 : {

  00000	55		 push	 ebp
  00001	8b ec		 mov	 ebp, esp

; 6606 : 	BYTE attr;
; 6607 : 	int tx = x;
; 6608 : 	int ty = y;
; 6609 : 	int tdir = dir/2;

  00003	8b 45 10	 mov	 eax, DWORD PTR _dir$[ebp]
  00006	8b 08		 mov	 ecx, DWORD PTR [eax]
  00008	53		 push	 ebx
  00009	56		 push	 esi

; 6610 : 
; 6611 : 	tx = tx + RoadPathTable[dir];

  0000a	0f bf 34 4d 00
	00 00 00	 movsx	 esi, WORD PTR ?RoadPathTable@@3PAFA[ecx*2]
  00012	57		 push	 edi

; 6612 : 	ty = ty + RoadPathTable[1+dir];

  00013	0f bf 3c 4d 02
	00 00 00	 movsx	 edi, WORD PTR ?RoadPathTable@@3PAFA[ecx*2+2]
  0001b	8b c1		 mov	 eax, ecx

; 6613 : 
; 6614 : 	attr = MapC[map].GetAttr(tx, ty);

  0001d	0f b6 4d 14	 movzx	 ecx, BYTE PTR _map$[ebp]
  00021	99		 cdq
  00022	69 c9 48 3d 05
	00		 imul	 ecx, 343368		; 00053d48H
  00028	2b c2		 sub	 eax, edx
  0002a	8b 55 08	 mov	 edx, DWORD PTR _x$[ebp]
  0002d	03 32		 add	 esi, DWORD PTR [edx]
  0002f	8b d8		 mov	 ebx, eax
  00031	8b 45 0c	 mov	 eax, DWORD PTR _y$[ebp]
  00034	03 38		 add	 edi, DWORD PTR [eax]
  00036	81 c1 00 00 00
	00		 add	 ecx, OFFSET ?MapC@@3PAVMapClass@@A ; MapC
  0003c	57		 push	 edi
  0003d	56		 push	 esi
  0003e	d1 fb		 sar	 ebx, 1
  00040	e8 00 00 00 00	 call	 ?GetAttr@MapClass@@QAEEHH@Z ; MapClass::GetAttr

; 6615 : 
; 6616 : 	if	(  (attr&1)==1 || 
; 6617 : 		(attr&4)== 4 || 
; 6618 : 		(attr&8)== 8
; 6619 : //#if(GS_CASTLE==1)
; 6620 : 		||(attr&16)== 16 
; 6621 : //#endif
; 6622 : 		)

  00045	a8 1d		 test	 al, 29			; 0000001dH
  00047	75 14		 jne	 SHORT $LN2@BackSpring

; 6633 : 	}
; 6634 : 
; 6635 : 	x = tx;

  00049	8b 4d 08	 mov	 ecx, DWORD PTR _x$[ebp]

; 6636 : 	y = ty;

  0004c	8b 55 0c	 mov	 edx, DWORD PTR _y$[ebp]
  0004f	89 31		 mov	 DWORD PTR [ecx], esi
  00051	89 3a		 mov	 DWORD PTR [edx], edi
  00053	5f		 pop	 edi
  00054	5e		 pop	 esi

; 6637 : 
; 6638 : 	return TRUE;

  00055	b8 01 00 00 00	 mov	 eax, 1
  0005a	5b		 pop	 ebx

; 6639 : }

  0005b	5d		 pop	 ebp
  0005c	c3		 ret	 0
$LN2@BackSpring:

; 6623 : 	{
; 6624 : 		tdir += 4;

  0005d	83 c3 04	 add	 ebx, 4

; 6625 : 		
; 6626 : 		if ( tdir > 7 )

  00060	83 fb 07	 cmp	 ebx, 7
  00063	7e 03		 jle	 SHORT $LN1@BackSpring

; 6627 : 		{
; 6628 : 			tdir -= 8;

  00065	83 eb 08	 sub	 ebx, 8
$LN1@BackSpring:

; 6629 : 		}
; 6630 : 		
; 6631 : 		dir = tdir * 2;

  00068	8b 4d 10	 mov	 ecx, DWORD PTR _dir$[ebp]
  0006b	8d 04 1b	 lea	 eax, DWORD PTR [ebx+ebx]
  0006e	5f		 pop	 edi
  0006f	5e		 pop	 esi
  00070	89 01		 mov	 DWORD PTR [ecx], eax

; 6632 : 		return FALSE;

  00072	33 c0		 xor	 eax, eax
  00074	5b		 pop	 ebx

; 6639 : }

  00075	5d		 pop	 ebp
  00076	c3		 ret	 0
?BackSpringCheck@@YAHAAH00E@Z ENDP			; BackSpringCheck
_TEXT	ENDS
PUBLIC	?gObjBackSpring2@@YAHPAUOBJECTSTRUCT@@0H@Z	; gObjBackSpring2
; Function compile flags: /Ogtp
;	COMDAT ?gObjBackSpring2@@YAHPAUOBJECTSTRUCT@@0H@Z
_TEXT	SEGMENT
_pMove$ = -16						; size = 5
_tdir$ = -8						; size = 4
_x$ = -4						; size = 4
_y$ = 8							; size = 4
_lpObj$ = 8						; size = 4
_lpTargetObj$ = 12					; size = 4
_count$ = 16						; size = 4
?gObjBackSpring2@@YAHPAUOBJECTSTRUCT@@0H@Z PROC		; gObjBackSpring2, COMDAT

; 6642 : {

  00000	55		 push	 ebp
  00001	8b ec		 mov	 ebp, esp
  00003	83 ec 10	 sub	 esp, 16			; 00000010H
  00006	56		 push	 esi

; 6643 : 	int tdir;
; 6644 : 
; 6645 : 	if ( MAX_MAP_RANGE(lpObj->MapNumber) == FALSE )

  00007	8b 75 08	 mov	 esi, DWORD PTR _lpObj$[ebp]
  0000a	b8 52 00 00 00	 mov	 eax, 82			; 00000052H
  0000f	3a 86 49 01 00
	00		 cmp	 al, BYTE PTR [esi+329]
  00015	1b c0		 sbb	 eax, eax
  00017	40		 inc	 eax
  00018	75 1f		 jne	 SHORT $LN35@gObjBackSp@2

; 6646 : 	{
; 6647 : 		LogAdd("error : %s %d", __FILE__, __LINE__);

  0001a	68 f7 19 00 00	 push	 6647			; 000019f7H
  0001f	68 00 00 00 00	 push	 OFFSET ??_C@_08DCNFOMBO@user?4cpp?$AA@
  00024	68 00 00 00 00	 push	 OFFSET ??_C@_0O@CKAEPJAF@error?5?3?5?$CFs?5?$CFd?$AA@
  00029	ff 15 00 00 00
	00		 call	 DWORD PTR ?LogAdd@@3P6AXPADZZA ; LogAdd
  0002f	83 c4 0c	 add	 esp, 12			; 0000000cH
$LN58@gObjBackSp@2:

; 6648 : 		return FALSE;

  00032	33 c0		 xor	 eax, eax
  00034	5e		 pop	 esi

; 6796 : }

  00035	8b e5		 mov	 esp, ebp
  00037	5d		 pop	 ebp
  00038	c3		 ret	 0
$LN35@gObjBackSp@2:

; 6649 : 	}
; 6650 : 
; 6651 : //#if(GS_CASTLE==1)
; 6652 : 	if( lpObj->Type == OBJ_USER)

  00039	0f b7 4e 68	 movzx	 ecx, WORD PTR [esi+104]
  0003d	83 f9 01	 cmp	 ecx, 1
  00040	75 09		 jne	 SHORT $LN33@gObjBackSp@2

; 6653 : 	{
; 6654 : 		if((lpObj->Authority &0x02) == 2)

  00042	f6 86 0c 02 00
	00 02		 test	 BYTE PTR [esi+524], 2

; 6655 : 		{
; 6656 : 			return FALSE;

  00049	75 e7		 jne	 SHORT $LN58@gObjBackSp@2
$LN33@gObjBackSp@2:

; 6657 : 		}
; 6658 : 	}
; 6659 : //#endif
; 6660 : 
; 6661 : 	if ( lpObj->Class == 287 || lpObj->Class == 286 )

  0004b	0f b7 86 b8 00
	00 00		 movzx	 eax, WORD PTR [esi+184]
  00052	ba 1f 01 00 00	 mov	 edx, 287		; 0000011fH
  00057	66 3b c2	 cmp	 ax, dx
  0005a	74 d6		 je	 SHORT $LN58@gObjBackSp@2
  0005c	ba 1e 01 00 00	 mov	 edx, 286		; 0000011eH
  00061	66 3b c2	 cmp	 ax, dx
  00064	74 cc		 je	 SHORT $LN58@gObjBackSp@2

; 6662 : 	{
; 6663 : 		return FALSE;
; 6664 : 	}
; 6665 : 
; 6666 : //#if(GS_CASTLE==1)
; 6667 : 	if ( lpObj->Class == 278 )

  00066	ba 16 01 00 00	 mov	 edx, 278		; 00000116H
  0006b	66 3b c2	 cmp	 ax, dx

; 6668 : 	{
; 6669 : 		return FALSE;

  0006e	74 c2		 je	 SHORT $LN58@gObjBackSp@2

; 6670 : 	}
; 6671 : //#endif
; 6672 : 
; 6673 : 	if ( lpObj->Class >= 131 && lpObj->Class <= 134 )

  00070	ba 83 00 00 00	 mov	 edx, 131		; 00000083H
  00075	66 3b c2	 cmp	 ax, dx
  00078	72 0a		 jb	 SHORT $LN29@gObjBackSp@2
  0007a	ba 86 00 00 00	 mov	 edx, 134		; 00000086H
  0007f	66 3b c2	 cmp	 ax, dx

; 6674 : 	{
; 6675 : 		return FALSE;

  00082	76 ae		 jbe	 SHORT $LN58@gObjBackSp@2
$LN29@gObjBackSp@2:

; 6676 : 	}
; 6677 : 
; 6678 : //#if(GS_CASTLE==1)
; 6679 : 	if( lpObj->Class == 277 ||//castle siege ??
; 6680 : 		lpObj->Class == 283 ||
; 6681 : 		lpObj->Class == 288 ||
; 6682 : 		lpObj->Class == 278 ||
; 6683 : 		lpObj->Class == 215 ||
; 6684 : 		lpObj->Class == 216 ||
; 6685 : 		lpObj->Class == 217 ||
; 6686 : 		lpObj->Class == 218 ||
; 6687 : 		lpObj->Class == 219 )

  00084	ba 15 01 00 00	 mov	 edx, 277		; 00000115H
  00089	66 3b c2	 cmp	 ax, dx
  0008c	74 a4		 je	 SHORT $LN58@gObjBackSp@2
  0008e	ba 1b 01 00 00	 mov	 edx, 283		; 0000011bH
  00093	66 3b c2	 cmp	 ax, dx
  00096	74 9a		 je	 SHORT $LN58@gObjBackSp@2
  00098	ba 20 01 00 00	 mov	 edx, 288		; 00000120H
  0009d	66 3b c2	 cmp	 ax, dx
  000a0	74 90		 je	 SHORT $LN58@gObjBackSp@2
  000a2	ba d7 00 00 00	 mov	 edx, 215		; 000000d7H
  000a7	66 3b c2	 cmp	 ax, dx
  000aa	74 86		 je	 SHORT $LN58@gObjBackSp@2
  000ac	ba d8 00 00 00	 mov	 edx, 216		; 000000d8H
  000b1	66 3b c2	 cmp	 ax, dx
  000b4	0f 84 78 ff ff
	ff		 je	 $LN58@gObjBackSp@2
  000ba	ba d9 00 00 00	 mov	 edx, 217		; 000000d9H
  000bf	66 3b c2	 cmp	 ax, dx
  000c2	0f 84 6a ff ff
	ff		 je	 $LN58@gObjBackSp@2
  000c8	ba da 00 00 00	 mov	 edx, 218		; 000000daH
  000cd	66 3b c2	 cmp	 ax, dx
  000d0	0f 84 5c ff ff
	ff		 je	 $LN58@gObjBackSp@2
  000d6	ba db 00 00 00	 mov	 edx, 219		; 000000dbH
  000db	66 3b c2	 cmp	 ax, dx
  000de	0f 84 4e ff ff
	ff		 je	 $LN58@gObjBackSp@2

; 6688 : 	{
; 6689 : 		return FALSE;
; 6690 : 	}
; 6691 : #if(FIX_DL_HORSE_IN_CROWN == FALSE)
; 6692 : 	if(g_CastleSiege.GetCrownUserIndex() == lpObj->m_Index)
; 6693 : 	{
; 6694 : 		if(lpObj->pInventory[8].m_Type == ITEMGET(13,4))
; 6695 : 		{
; 6696 : 			return FALSE;
; 6697 : 		}
; 6698 : 	}
; 6699 : #endif
; 6700 : 	if(g_Crywolf.GetCrywolfState() == 4 || g_Crywolf.GetCrywolfState() == 3)

  000e4	a1 ec b7 0f 00	 mov	 eax, DWORD PTR ?g_Crywolf@@3VCCrywolf@@A+1030124
  000e9	57		 push	 edi
  000ea	83 f8 04	 cmp	 eax, 4
  000ed	74 05		 je	 SHORT $LN25@gObjBackSp@2
  000ef	83 f8 03	 cmp	 eax, 3
  000f2	75 2d		 jne	 SHORT $LN21@gObjBackSp@2
$LN25@gObjBackSp@2:

; 6701 : 	{
; 6702 : 		if(lpObj->Type == OBJ_USER)

  000f4	83 f9 01	 cmp	 ecx, 1
  000f7	75 28		 jne	 SHORT $LN21@gObjBackSp@2

; 6703 : 		{
; 6704 : 			for(int i=205;i<=209;i++)//crywolf altar

  000f9	bf cd 00 00 00	 mov	 edi, 205		; 000000cdH
  000fe	8b ff		 npad	 2
$LL23@gObjBackSp@2:

; 6705 : 			{
; 6706 : 				int iAltarIndex = g_CrywolfNPC_Altar.GetAltarUserIndex(i);

  00100	57		 push	 edi
  00101	b9 00 00 00 00	 mov	 ecx, OFFSET ?g_CrywolfNPC_Altar@@3VCCrywolfAltar@@A ; g_CrywolfNPC_Altar
  00106	e8 00 00 00 00	 call	 ?GetAltarUserIndex@CCrywolfAltar@@QAEHH@Z ; CCrywolfAltar::GetAltarUserIndex

; 6707 : 				
; 6708 : 				if(iAltarIndex != -1)

  0010b	83 f8 ff	 cmp	 eax, -1
  0010e	74 08		 je	 SHORT $LN22@gObjBackSp@2

; 6709 : 				{
; 6710 : 					if(iAltarIndex == lpObj->m_Index)

  00110	3b 06		 cmp	 eax, DWORD PTR [esi]
  00112	0f 84 fe 01 00
	00		 je	 $LN17@gObjBackSp@2
$LN22@gObjBackSp@2:

; 6703 : 		{
; 6704 : 			for(int i=205;i<=209;i++)//crywolf altar

  00118	47		 inc	 edi
  00119	81 ff d1 00 00
	00		 cmp	 edi, 209		; 000000d1H
  0011f	7e df		 jle	 SHORT $LL23@gObjBackSp@2
$LN21@gObjBackSp@2:

; 6711 : 					{
; 6712 : 						return FALSE;
; 6713 : 					}
; 6714 : 				}
; 6715 : 			}
; 6716 : 		}
; 6717 : 	}
; 6718 : 	
; 6719 : 	if(CRYWOLF_ALTAR_CLASS_RANGE(lpObj->Class) || CHECK_CLASS(204,lpObj->Class) != FALSE) //HermeX Fix

  00121	0f b7 86 b8 00
	00 00		 movzx	 eax, WORD PTR [esi+184]
  00128	b9 cd 00 00 00	 mov	 ecx, 205		; 000000cdH
  0012d	66 3b c1	 cmp	 ax, cx
  00130	72 11		 jb	 SHORT $LN54@gObjBackSp@2
  00132	ba d1 00 00 00	 mov	 edx, 209		; 000000d1H
  00137	66 3b d0	 cmp	 dx, ax
  0013a	1b c9		 sbb	 ecx, ecx
  0013c	41		 inc	 ecx
  0013d	0f 85 d3 01 00
	00		 jne	 $LN17@gObjBackSp@2
$LN54@gObjBackSp@2:
  00143	b9 cc 00 00 00	 mov	 ecx, 204		; 000000ccH
  00148	66 3b c8	 cmp	 cx, ax
  0014b	0f 84 c5 01 00
	00		 je	 $LN17@gObjBackSp@2

; 6722 : 	}	
; 6723 : 	if(lpObj->Class == 348)//balista

  00151	ba 5c 01 00 00	 mov	 edx, 348		; 0000015cH
  00156	66 3b c2	 cmp	 ax, dx

; 6724 : 	{
; 6725 : 		return FALSE;

  00159	0f 84 b7 01 00
	00		 je	 $LN17@gObjBackSp@2

; 6726 : 	}
; 6727 : //#endif
; 6728 : 	
; 6729 : 	if(lpObj->Class == 275) //Season 2.5 add-on (Kundun Fix)

  0015f	b9 13 01 00 00	 mov	 ecx, 275		; 00000113H
  00164	66 3b c1	 cmp	 ax, cx

; 6730 : 	{
; 6731 : 		return FALSE;

  00167	0f 84 a9 01 00
	00		 je	 $LN17@gObjBackSp@2

; 6732 : 	}
; 6733 : 
; 6734 : 	//Season 4.0 add-on
; 6735 : 	if(lpObj->Class == 459 ||
; 6736 : 		lpObj->Class == 460 ||
; 6737 : 		lpObj->Class == 461 ||
; 6738 : 		lpObj->Class == 462)

  0016d	ba cb 01 00 00	 mov	 edx, 459		; 000001cbH
  00172	66 3b c2	 cmp	 ax, dx
  00175	0f 84 9b 01 00
	00		 je	 $LN17@gObjBackSp@2
  0017b	b9 cc 01 00 00	 mov	 ecx, 460		; 000001ccH
  00180	66 3b c1	 cmp	 ax, cx
  00183	0f 84 8d 01 00
	00		 je	 $LN17@gObjBackSp@2
  00189	ba cd 01 00 00	 mov	 edx, 461		; 000001cdH
  0018e	66 3b c2	 cmp	 ax, dx
  00191	0f 84 7f 01 00
	00		 je	 $LN17@gObjBackSp@2
  00197	b9 ce 01 00 00	 mov	 ecx, 462		; 000001ceH
  0019c	66 3b c1	 cmp	 ax, cx
  0019f	0f 84 71 01 00
	00		 je	 $LN17@gObjBackSp@2

; 6739 : 	{
; 6740 : 		return FALSE;
; 6741 : 	}
; 6742 : 
; 6743 : 	int EffectID = -1;
; 6744 : 	for(int i=0;i<lpObj->m_btViewStateCount;i++) //season4 add-on

  001a5	33 c9		 xor	 ecx, ecx
  001a7	38 8e 27 02 00
	00		 cmp	 BYTE PTR [esi+551], cl
  001ad	76 3e		 jbe	 SHORT $LN10@gObjBackSp@2
  001af	8d 96 28 02 00
	00		 lea	 edx, DWORD PTR [esi+552]
  001b5	eb 09 8d a4 24
	00 00 00 00 8b
	ff		 npad	 11
$LL12@gObjBackSp@2:

; 6745 : 	{
; 6746 : 		EffectID = lpObj->m_BuffEffectState[i].btBuffIndex;

  001c0	0f b6 02	 movzx	 eax, BYTE PTR [edx]

; 6747 : 
; 6748 : 		if( EffectID == AT_ICE_ARROW ||
; 6749 : 			EffectID == AT_STUN ||
; 6750 : 			EffectID == AT_ILLUSION_RESTRICTION_SPELL)

  001c3	83 f8 39	 cmp	 eax, 57			; 00000039H
  001c6	0f 84 4a 01 00
	00		 je	 $LN17@gObjBackSp@2
  001cc	83 f8 3d	 cmp	 eax, 61			; 0000003dH
  001cf	0f 84 41 01 00
	00		 je	 $LN17@gObjBackSp@2
  001d5	83 f8 41	 cmp	 eax, 65			; 00000041H
  001d8	0f 84 38 01 00
	00		 je	 $LN17@gObjBackSp@2

; 6739 : 	{
; 6740 : 		return FALSE;
; 6741 : 	}
; 6742 : 
; 6743 : 	int EffectID = -1;
; 6744 : 	for(int i=0;i<lpObj->m_btViewStateCount;i++) //season4 add-on

  001de	0f b6 86 27 02
	00 00		 movzx	 eax, BYTE PTR [esi+551]
  001e5	41		 inc	 ecx
  001e6	83 c2 14	 add	 edx, 20			; 00000014H
  001e9	3b c8		 cmp	 ecx, eax
  001eb	7c d3		 jl	 SHORT $LL12@gObjBackSp@2
$LN10@gObjBackSp@2:

; 6751 : 		{
; 6752 : 			return FALSE;
; 6753 : 		}
; 6754 : 	}
; 6755 : 
; 6756 : //#if(GS_CASTLE==1)
; 6757 : 	tdir = GetPathPacketDirPos(lpObj->X - lpTargetObj->X, lpObj->Y - lpTargetObj->Y) * 2;
; 6758 : //#else
; 6759 : 	tdir = GetPathPacketDirPos(lpObj->X - lpTargetObj->X, lpObj->Y - lpTargetObj->Y) * 2;

  001ed	8b 45 0c	 mov	 eax, DWORD PTR _lpTargetObj$[ebp]
  001f0	0f bf 88 46 01
	00 00		 movsx	 ecx, WORD PTR [eax+326]
  001f7	0f bf be 46 01
	00 00		 movsx	 edi, WORD PTR [esi+326]
  001fe	0f bf 80 44 01
	00 00		 movsx	 eax, WORD PTR [eax+324]
  00205	53		 push	 ebx
  00206	0f bf 9e 44 01
	00 00		 movsx	 ebx, WORD PTR [esi+324]
  0020d	8b d7		 mov	 edx, edi
  0020f	2b d1		 sub	 edx, ecx
  00211	8b cb		 mov	 ecx, ebx
  00213	52		 push	 edx
  00214	2b c8		 sub	 ecx, eax
  00216	51		 push	 ecx
  00217	e8 00 00 00 00	 call	 ?GetPathPacketDirPos@@YAEHH@Z ; GetPathPacketDirPos
  0021c	0f b6 d0	 movzx	 edx, al

; 6760 : //#endif
; 6761 : 
; 6762 : 	int x = lpObj->X;
; 6763 : 	int y = lpObj->Y;

  0021f	89 7d 08	 mov	 DWORD PTR _y$[ebp], edi
  00222	03 d2		 add	 edx, edx

; 6764 : 
; 6765 : 	for ( int n=0;n<count;n++)

  00224	33 ff		 xor	 edi, edi
  00226	83 c4 08	 add	 esp, 8
  00229	89 55 f8	 mov	 DWORD PTR _tdir$[ebp], edx
  0022c	89 5d fc	 mov	 DWORD PTR _x$[ebp], ebx
  0022f	39 7d 10	 cmp	 DWORD PTR _count$[ebp], edi
  00232	7e 56		 jle	 SHORT $LN5@gObjBackSp@2
$LL7@gObjBackSp@2:

; 6766 : 	{
; 6767 : 		if ( n >= 2 )

  00234	83 ff 02	 cmp	 edi, 2
  00237	7c 2c		 jl	 SHORT $LN4@gObjBackSp@2

; 6768 : 		{
; 6769 : 			if ( lpObj->Class == 4 || lpObj->Class == 3 || lpObj->Class == 1 )

  00239	0f b7 86 b8 00
	00 00		 movzx	 eax, WORD PTR [esi+184]
  00240	83 f8 04	 cmp	 eax, 4
  00243	74 0a		 je	 SHORT $LN55@gObjBackSp@2
  00245	83 f8 03	 cmp	 eax, 3
  00248	74 05		 je	 SHORT $LN55@gObjBackSp@2
  0024a	83 f8 01	 cmp	 eax, 1
  0024d	75 32		 jne	 SHORT $LN6@gObjBackSp@2
$LN55@gObjBackSp@2:

; 6770 : 			{
; 6771 : 				BackSpringCheck(x, y, tdir, lpObj->MapNumber);

  0024f	0f b6 86 49 01
	00 00		 movzx	 eax, BYTE PTR [esi+329]
  00256	50		 push	 eax
  00257	8d 4d f8	 lea	 ecx, DWORD PTR _tdir$[ebp]
  0025a	51		 push	 ecx
  0025b	8d 55 08	 lea	 edx, DWORD PTR _y$[ebp]
  0025e	52		 push	 edx
  0025f	8d 45 fc	 lea	 eax, DWORD PTR _x$[ebp]
  00262	50		 push	 eax

; 6772 : 			}
; 6773 : 		}
; 6774 : 		else

  00263	eb 14		 jmp	 SHORT $LN57@gObjBackSp@2
$LN4@gObjBackSp@2:

; 6775 : 		{
; 6776 : 			BackSpringCheck(x, y, tdir, lpObj->MapNumber);

  00265	0f b6 8e 49 01
	00 00		 movzx	 ecx, BYTE PTR [esi+329]
  0026c	51		 push	 ecx
  0026d	8d 55 f8	 lea	 edx, DWORD PTR _tdir$[ebp]
  00270	52		 push	 edx
  00271	8d 45 08	 lea	 eax, DWORD PTR _y$[ebp]
  00274	50		 push	 eax
  00275	8d 4d fc	 lea	 ecx, DWORD PTR _x$[ebp]
  00278	51		 push	 ecx
$LN57@gObjBackSp@2:
  00279	e8 00 00 00 00	 call	 ?BackSpringCheck@@YAHAAH00E@Z ; BackSpringCheck
  0027e	83 c4 10	 add	 esp, 16			; 00000010H
$LN6@gObjBackSp@2:

; 6764 : 
; 6765 : 	for ( int n=0;n<count;n++)

  00281	47		 inc	 edi
  00282	3b 7d 10	 cmp	 edi, DWORD PTR _count$[ebp]
  00285	7c ad		 jl	 SHORT $LL7@gObjBackSp@2
  00287	8b 5d fc	 mov	 ebx, DWORD PTR _x$[ebp]
$LN5@gObjBackSp@2:

; 6777 : 		}
; 6778 : 	}
; 6779 : 
; 6780 : 	PMSG_POSISTION_SET pMove;
; 6781 : 
; 6782 : 	pMove.h.c = 0xC1;
; 6783 : 	pMove.h.headcode = PROTOCOL_POSITION;
; 6784 : 	pMove.h.size = sizeof(pMove);
; 6785 : 	pMove.X = x;
; 6786 : 	pMove.Y = y;
; 6787 : 
; 6788 : 	lpObj->m_Rest = 0;
; 6789 : 	MapC[lpObj->MapNumber].ClearStandAttr(lpObj->m_OldX, lpObj->m_OldY);

  0028a	0f bf 86 7a 01
	00 00		 movsx	 eax, WORD PTR [esi+378]
  00291	0f bf 8e 78 01
	00 00		 movsx	 ecx, WORD PTR [esi+376]
  00298	8a 55 08	 mov	 dl, BYTE PTR _y$[ebp]
  0029b	50		 push	 eax
  0029c	51		 push	 ecx
  0029d	0f b6 8e 49 01
	00 00		 movzx	 ecx, BYTE PTR [esi+329]
  002a4	69 c9 48 3d 05
	00		 imul	 ecx, 343368		; 00053d48H
  002aa	81 c1 00 00 00
	00		 add	 ecx, OFFSET ?MapC@@3PAVMapClass@@A ; MapC
  002b0	c6 45 f0 c1	 mov	 BYTE PTR _pMove$[ebp], 193 ; 000000c1H
  002b4	66 c7 45 f1 05
	15		 mov	 WORD PTR _pMove$[ebp+1], 5381 ; 00001505H
  002ba	88 5d f3	 mov	 BYTE PTR _pMove$[ebp+3], bl
  002bd	88 55 f4	 mov	 BYTE PTR _pMove$[ebp+4], dl
  002c0	c6 86 25 02 00
	00 00		 mov	 BYTE PTR [esi+549], 0
  002c7	e8 00 00 00 00	 call	 ?ClearStandAttr@MapClass@@QAEXHH@Z ; MapClass::ClearStandAttr

; 6790 : 	MapC[lpObj->MapNumber].SetStandAttr(x, y);

  002cc	0f b6 8e 49 01
	00 00		 movzx	 ecx, BYTE PTR [esi+329]
  002d3	8b 55 08	 mov	 edx, DWORD PTR _y$[ebp]
  002d6	69 c9 48 3d 05
	00		 imul	 ecx, 343368		; 00053d48H
  002dc	52		 push	 edx
  002dd	53		 push	 ebx
  002de	81 c1 00 00 00
	00		 add	 ecx, OFFSET ?MapC@@3PAVMapClass@@A ; MapC
  002e4	e8 00 00 00 00	 call	 ?SetStandAttr@MapClass@@QAEXHH@Z ; MapClass::SetStandAttr

; 6791 : 	lpObj->m_OldX = x;
; 6792 : 	lpObj->m_OldY = y;
; 6793 : 	RecvPositionSetProc(&pMove, lpObj->m_Index);

  002e9	8b 0e		 mov	 ecx, DWORD PTR [esi]
  002eb	66 8b 45 08	 mov	 ax, WORD PTR _y$[ebp]
  002ef	51		 push	 ecx
  002f0	8d 55 f0	 lea	 edx, DWORD PTR _pMove$[ebp]
  002f3	52		 push	 edx
  002f4	66 89 9e 78 01
	00 00		 mov	 WORD PTR [esi+376], bx
  002fb	66 89 86 7a 01
	00 00		 mov	 WORD PTR [esi+378], ax
  00302	e8 00 00 00 00	 call	 ?RecvPositionSetProc@@YAXPAUPMSG_POSISTION_SET@@H@Z ; RecvPositionSetProc
  00307	83 c4 08	 add	 esp, 8
  0030a	5b		 pop	 ebx
  0030b	5f		 pop	 edi

; 6794 : 
; 6795 : 	return TRUE;

  0030c	b8 01 00 00 00	 mov	 eax, 1
  00311	5e		 pop	 esi

; 6796 : }

  00312	8b e5		 mov	 esp, ebp
  00314	5d		 pop	 ebp
  00315	c3		 ret	 0
$LN17@gObjBackSp@2:
  00316	5f		 pop	 edi

; 6720 : 	{
; 6721 : 		return FALSE;

  00317	33 c0		 xor	 eax, eax
  00319	5e		 pop	 esi

; 6796 : }

  0031a	8b e5		 mov	 esp, ebp
  0031c	5d		 pop	 ebp
  0031d	c3		 ret	 0
?gObjBackSpring2@@YAHPAUOBJECTSTRUCT@@0H@Z ENDP		; gObjBackSpring2
_TEXT	ENDS
PUBLIC	__$ArrayPad$
PUBLIC	?gObjWarehouseInsertItem@@YAEPAUOBJECTSTRUCT@@HHHH@Z ; gObjWarehouseInsertItem
EXTRN	?Convert@CItem@@QAEXHEEEEEEPAEEEE@Z:PROC	; CItem::Convert
EXTRN	?ItemGetNumberMake@@YAHHH@Z:PROC		; ItemGetNumberMake
EXTRN	??0CItem@@QAE@XZ:PROC				; CItem::CItem
