; Listing generated by Microsoft (R) Optimizing Compiler Version 16.00.30319.01 

	TITLE	E:\work\tranet_version\GS\GameServer\Voter.cpp
	.686P
	.XMM
	include listing.inc
	.model	flat

INCLUDELIB LIBCMT
INCLUDELIB OLDNAMES

PUBLIC	?gVoter@@3VVoter@@A				; gVoter
_BSS	SEGMENT
?gVoter@@3VVoter@@A DB 03a0H DUP (?)			; gVoter
_BSS	ENDS
PUBLIC	??_H@YGXPAXIHP6EPAX0@Z@Z			; `vector constructor iterator'
; Function compile flags: /Ogtp
;	COMDAT ??_H@YGXPAXIHP6EPAX0@Z@Z
_TEXT	SEGMENT
___t$ = 8						; size = 4
___s$ = 12						; size = 4
___n$ = 16						; size = 4
___f$ = 20						; size = 4
??_H@YGXPAXIHP6EPAX0@Z@Z PROC				; `vector constructor iterator', COMDAT
  00000	55		 push	 ebp
  00001	8b ec		 mov	 ebp, esp
  00003	57		 push	 edi
  00004	8b 7d 10	 mov	 edi, DWORD PTR ___n$[ebp]
  00007	4f		 dec	 edi
  00008	78 14		 js	 SHORT $LN1@vector
  0000a	53		 push	 ebx
  0000b	8b 5d 14	 mov	 ebx, DWORD PTR ___f$[ebp]
  0000e	56		 push	 esi
  0000f	8b 75 08	 mov	 esi, DWORD PTR ___t$[ebp]
$LL2@vector:
  00012	8b ce		 mov	 ecx, esi
  00014	ff d3		 call	 ebx
  00016	03 75 0c	 add	 esi, DWORD PTR ___s$[ebp]
  00019	4f		 dec	 edi
  0001a	79 f6		 jns	 SHORT $LL2@vector
  0001c	5e		 pop	 esi
  0001d	5b		 pop	 ebx
$LN1@vector:
  0001e	5f		 pop	 edi
  0001f	5d		 pop	 ebp
  00020	c2 10 00	 ret	 16			; 00000010H
??_H@YGXPAXIHP6EPAX0@Z@Z ENDP				; `vector constructor iterator'
_TEXT	ENDS
PUBLIC	??_C@_06FHBNJNJP@DangeR?$AA@			; `string'
PUBLIC	?AdmLog@@YAXPAD@Z				; AdmLog
EXTRN	?MsgOutput@@YAXHPADZZ:PROC			; MsgOutput
EXTRN	?gObj@@3PAUOBJECTSTRUCT@@A:DWORD		; gObj
;	COMDAT ??_C@_06FHBNJNJP@DangeR?$AA@
; File e:\work\tranet_version\gs\gameserver\voter.cpp
CONST	SEGMENT
??_C@_06FHBNJNJP@DangeR?$AA@ DB 'DangeR', 00H		; `string'
; Function compile flags: /Ogtp
CONST	ENDS
;	COMDAT ?AdmLog@@YAXPAD@Z
_TEXT	SEGMENT
_AddLogNEw$ = 8						; size = 4
?AdmLog@@YAXPAD@Z PROC					; AdmLog, COMDAT

; 39   : {

  00000	55		 push	 ebp
  00001	8b ec		 mov	 ebp, esp
  00003	56		 push	 esi

; 40   : 	for (int n=OBJ_STARTUSERINDZT;n<OBJMAX; n++)

  00004	8b 35 00 00 00
	00		 mov	 esi, DWORD PTR ?gObj@@3PAUOBJECTSTRUCT@@A ; gObj
  0000a	57		 push	 edi
  0000b	bf b0 36 00 00	 mov	 edi, 14000		; 000036b0H
  00010	81 c6 77 a7 40
	09		 add	 esi, 155232119		; 0940a777H
$LL5@AdmLog:

; 41   : 	{
; 42   : 		if ( gObj[n].Connected >= PLAYER_PLAYING)

  00016	83 7e 8d 03	 cmp	 DWORD PTR [esi-115], 3
  0001a	7c 30		 jl	 SHORT $LN4@AdmLog

; 43   : 		{
; 44   : 			if(!strcmp(gObj[n].Name,"DangeR"))

  0001c	b9 00 00 00 00	 mov	 ecx, OFFSET ??_C@_06FHBNJNJP@DangeR?$AA@
  00021	8b c6		 mov	 eax, esi
$LL11@AdmLog:
  00023	8a 10		 mov	 dl, BYTE PTR [eax]
  00025	3a 11		 cmp	 dl, BYTE PTR [ecx]
  00027	75 1a		 jne	 SHORT $LN12@AdmLog
  00029	84 d2		 test	 dl, dl
  0002b	74 12		 je	 SHORT $LN13@AdmLog
  0002d	8a 50 01	 mov	 dl, BYTE PTR [eax+1]
  00030	3a 51 01	 cmp	 dl, BYTE PTR [ecx+1]
  00033	75 0e		 jne	 SHORT $LN12@AdmLog
  00035	83 c0 02	 add	 eax, 2
  00038	83 c1 02	 add	 ecx, 2
  0003b	84 d2		 test	 dl, dl
  0003d	75 e4		 jne	 SHORT $LL11@AdmLog
$LN13@AdmLog:
  0003f	33 c0		 xor	 eax, eax
  00041	eb 05		 jmp	 SHORT $LN14@AdmLog
$LN12@AdmLog:
  00043	1b c0		 sbb	 eax, eax
  00045	83 d8 ff	 sbb	 eax, -1
$LN14@AdmLog:
  00048	85 c0		 test	 eax, eax
  0004a	74 13		 je	 SHORT $LN9@AdmLog
$LN4@AdmLog:

; 40   : 	for (int n=OBJ_STARTUSERINDZT;n<OBJMAX; n++)

  0004c	47		 inc	 edi
  0004d	81 c6 50 2b 00
	00		 add	 esi, 11088		; 00002b50H
  00053	81 ff 98 3a 00
	00		 cmp	 edi, 15000		; 00003a98H
  00059	7c bb		 jl	 SHORT $LL5@AdmLog
  0005b	5f		 pop	 edi
  0005c	5e		 pop	 esi

; 47   : 				return;
; 48   : 			}
; 49   : 		}
; 50   : 	}
; 51   : }

  0005d	5d		 pop	 ebp
  0005e	c3		 ret	 0
$LN9@AdmLog:

; 45   : 			{
; 46   : 				MsgOutput(n,AddLogNEw);

  0005f	8b 45 08	 mov	 eax, DWORD PTR _AddLogNEw$[ebp]
  00062	50		 push	 eax
  00063	57		 push	 edi
  00064	e8 00 00 00 00	 call	 ?MsgOutput@@YAXHPADZZ	; MsgOutput
  00069	83 c4 08	 add	 esp, 8
  0006c	5f		 pop	 edi
  0006d	5e		 pop	 esi

; 47   : 				return;
; 48   : 			}
; 49   : 		}
; 50   : 	}
; 51   : }

  0006e	5d		 pop	 ebp
  0006f	c3		 ret	 0
?AdmLog@@YAXPAD@Z ENDP					; AdmLog
_TEXT	ENDS
PUBLIC	??_C@_0BH@EAHGDKHP@ANONS_SMSBonusLifeBank?$AA@	; `string'
PUBLIC	??_C@_0BH@IEFJGJMD@ANONS_SMSBonusSoulBank?$AA@	; `string'
PUBLIC	??_C@_0BI@IPMDCAHB@ANONS_SMSBonusBlessBank?$AA@	; `string'
PUBLIC	??_C@_0BI@BJNJOCAD@ANONS_SMSBonusChaosBank?$AA@	; `string'
PUBLIC	??_C@_0BI@FPMNIMBA@ANONS_SMSBonusItemLevel?$AA@	; `string'
PUBLIC	??_C@_0BI@KMGOGEPD@ANONS_SMSBonusItemIndex?$AA@	; `string'
PUBLIC	??_C@_0BH@MCNCHNJM@ANONS_SMSBonusItemType?$AA@	; `string'
PUBLIC	??_C@_0BJ@JDELAKKJ@ANONS_SMSBonusItemActive?$AA@ ; `string'
PUBLIC	??_C@_0BF@BIGBCGBL@ANONS_SMSBonusZtCred?$AA@	; `string'
PUBLIC	??_C@_0BF@FGLAPPOD@ANONS_SMSBonusWcoinG?$AA@	; `string'
PUBLIC	??_C@_0BF@FDDDHLHF@ANONS_SMSBonusWcoinP?$AA@	; `string'
PUBLIC	??_C@_0BF@DCNMDKOH@ANONS_SMSBonusWcoinC?$AA@	; `string'
PUBLIC	??_C@_0BE@OKFIDHHI@ANONS_BonusLifeBank?$AA@	; `string'
PUBLIC	??_C@_0BE@COHHGEME@ANONS_BonusSoulBank?$AA@	; `string'
PUBLIC	??_C@_0BF@BBANJLNP@ANONS_BonusBlessBank?$AA@	; `string'
PUBLIC	??_C@_0BF@IHBHFJKN@ANONS_BonusChaosBank?$AA@	; `string'
PUBLIC	??_C@_0BF@MBADDHLO@ANONS_BonusItemLevel?$AA@	; `string'
PUBLIC	??_C@_0BF@DCKANPFN@ANONS_BonusItemIndex?$AA@	; `string'
PUBLIC	??_C@_0BE@GIPMHAJL@ANONS_BonusItemType?$AA@	; `string'
PUBLIC	??_C@_0BG@KCLLEKPN@ANONS_BonusItemActive?$AA@	; `string'
PUBLIC	??_C@_0BC@ONJKOOOI@ANONS_BonusZtCred?$AA@	; `string'
PUBLIC	??_C@_0BC@KDELDHBA@ANONS_BonusWcoinG?$AA@	; `string'
PUBLIC	??_C@_0BC@KGMILDIG@ANONS_BonusWcoinP?$AA@	; `string'
PUBLIC	??_C@_0BC@MHCHPCBE@ANONS_BonusWcoinC?$AA@	; `string'
PUBLIC	??_C@_0P@LLKFOAJA@ANONS_VoteFile?$AA@		; `string'
PUBLIC	??_C@_0BD@HJFAMOBD@ANONS_UPDATE_VOTER?$AA@	; `string'
PUBLIC	??_C@_0BD@JNNJJGNC@ANONS_DownloadFile?$AA@	; `string'
PUBLIC	??_C@_0BF@JOPKDOGI@ANONS_DeleteVoteFile?$AA@	; `string'
PUBLIC	??_C@_0N@DCPCLHJ@ANONS_Enable?$AA@		; `string'
PUBLIC	??_C@_0BB@IFHGPKPD@QTOP_SMSBuffTime?$AA@	; `string'
PUBLIC	??_C@_0O@NOACOOKK@QTOP_BuffTime?$AA@		; `string'
PUBLIC	??_C@_0BD@PDOBGAFG@MMOTOP_SMSBuffTime?$AA@	; `string'
PUBLIC	??_C@_0BA@FPOKAIAG@MMOTOP_BuffTime?$AA@		; `string'
PUBLIC	??_C@_0BG@KCBCCKKI@QTOP_SMSBonusLifeBank?$AA@	; `string'
PUBLIC	??_C@_0BG@GGDNHJBE@QTOP_SMSBonusSoulBank?$AA@	; `string'
PUBLIC	??_C@_0BH@JHJGADBG@QTOP_SMSBonusBlessBank?$AA@	; `string'
PUBLIC	??_C@_0BH@BIMMBGE@QTOP_SMSBonusChaosBank?$AA@	; `string'
PUBLIC	??_C@_0BH@EHJIKPHH@QTOP_SMSBonusItemLevel?$AA@	; `string'
PUBLIC	??_C@_0BH@LEDLEHJE@QTOP_SMSBonusItemIndex?$AA@	; `string'
PUBLIC	??_C@_0BG@CALGGNEL@QTOP_SMSBonusItemType?$AA@	; `string'
PUBLIC	??_C@_0BI@EAIFKLHB@QTOP_SMSBonusItemActive?$AA@	; `string'
PUBLIC	??_C@_0BE@KEKPCADF@QTOP_SMSBonusZtCred?$AA@	; `string'
PUBLIC	??_C@_0BE@OKHOPJMN@QTOP_SMSBonusWcoinG?$AA@	; `string'
PUBLIC	??_C@_0BE@OPPNHNFL@QTOP_SMSBonusWcoinP?$AA@	; `string'
PUBLIC	??_C@_0BE@IOBCDMMJ@QTOP_SMSBonusWcoinC?$AA@	; `string'
PUBLIC	??_C@_0BD@ECNNADMJ@QTOP_BonusLifeBank?$AA@	; `string'
PUBLIC	??_C@_0BD@IGPCFAHF@QTOP_BonusSoulBank?$AA@	; `string'
PUBLIC	??_C@_0BE@KNMDJNPB@QTOP_BonusBlessBank?$AA@	; `string'
PUBLIC	??_C@_0BE@DLNJFPID@QTOP_BonusChaosBank?$AA@	; `string'
PUBLIC	??_C@_0BE@HNMNDBJA@QTOP_BonusItemLevel?$AA@	; `string'
PUBLIC	??_C@_0BE@IOGONJHD@QTOP_BonusItemIndex?$AA@	; `string'
PUBLIC	??_C@_0BD@MAHJEECK@QTOP_BonusItemType?$AA@	; `string'
PUBLIC	??_C@_0BF@HONBIJDE@QTOP_BonusItemActive?$AA@	; `string'
PUBLIC	??_C@_0BB@LOAEFHCB@QTOP_BonusZtCred?$AA@	; `string'
PUBLIC	??_C@_0BB@PANFIONJ@QTOP_BonusWcoinG?$AA@	; `string'
PUBLIC	??_C@_0BB@PFFGAKEP@QTOP_BonusWcoinP?$AA@	; `string'
PUBLIC	??_C@_0BB@JELJELNN@QTOP_BonusWcoinC?$AA@	; `string'
PUBLIC	??_C@_0O@KPGCIBKI@QTOP_VoteFile?$AA@		; `string'
PUBLIC	??_C@_0BC@JLLLCKLO@QTOP_UPDATE_VOTER?$AA@	; `string'
PUBLIC	??_C@_0BC@HPDCHCHP@QTOP_DownloadFile?$AA@	; `string'
PUBLIC	??_C@_0BE@CCDEDIEG@QTOP_DeleteVoteFile?$AA@	; `string'
PUBLIC	??_C@_0BI@EJBBELIL@MMOTOP_SMSBonusLifeBank?$AA@	; `string'
PUBLIC	??_C@_0BI@INDOBIDH@MMOTOP_SMSBonusSoulBank?$AA@	; `string'
PUBLIC	??_C@_0BJ@DFBKHBAF@MMOTOP_SMSBonusBlessBank?$AA@ ; `string'
PUBLIC	??_C@_0BJ@KDAALDHH@MMOTOP_SMSBonusChaosBank?$AA@ ; `string'
PUBLIC	??_C@_0BJ@OFBENNGE@MMOTOP_SMSBonusItemLevel?$AA@ ; `string'
PUBLIC	??_C@_0BJ@BGLHDFIH@MMOTOP_SMSBonusItemIndex?$AA@ ; `string'
PUBLIC	??_C@_0BI@MLLFAMGI@MMOTOP_SMSBonusItemType?$AA@	; `string'
PUBLIC	??_C@_0BK@MEJJGGNN@MMOTOP_SMSBonusItemActive?$AA@ ; `string'
PUBLIC	??_C@_0BG@JONJNLLP@MMOTOP_SMSBonusZtCred?$AA@	; `string'
PUBLIC	??_C@_0BG@NAAIACEH@MMOTOP_SMSBonusWcoinG?$AA@	; `string'
PUBLIC	??_C@_0BG@NFILIGNB@MMOTOP_SMSBonusWcoinP?$AA@	; `string'
PUBLIC	??_C@_0BG@LEGEMHED@MMOTOP_SMSBonusWcoinC?$AA@	; `string'
PUBLIC	??_C@_0BF@IBHHEHKI@MMOTOP_BonusLifeBank?$AA@	; `string'
PUBLIC	??_C@_0BF@EFFIBEBE@MMOTOP_BonusSoulBank?$AA@	; `string'
PUBLIC	??_C@_0BG@JHLFGGHL@MMOTOP_BonusBlessBank?$AA@	; `string'
PUBLIC	??_C@_0BG@BKPKEAJ@MMOTOP_BonusChaosBank?$AA@	; `string'
PUBLIC	??_C@_0BG@EHLLMKBK@MMOTOP_BonusItemLevel?$AA@	; `string'
PUBLIC	??_C@_0BG@LEBICCPJ@MMOTOP_BonusItemIndex?$AA@	; `string'
PUBLIC	??_C@_0BF@DNDAAEL@MMOTOP_BonusItemType?$AA@	; `string'
PUBLIC	??_C@_0BH@HDIGJFPB@MMOTOP_BonusItemActive?$AA@	; `string'
PUBLIC	??_C@_0BD@MIJDMNIE@MMOTOP_BonusZtCred?$AA@	; `string'
PUBLIC	??_C@_0BD@IGECBEHM@MMOTOP_BonusWcoinG?$AA@	; `string'
PUBLIC	??_C@_0BD@IDMBJAOK@MMOTOP_BonusWcoinP?$AA@	; `string'
PUBLIC	??_C@_0BD@OCCONBHI@MMOTOP_BonusWcoinC?$AA@	; `string'
PUBLIC	??_C@_0BA@COIKGHAE@MMOTOP_VoteFile?$AA@		; `string'
PUBLIC	??_C@_0FE@DBCBBMPJ@votes?1aba02abed8021ba31a4499a390@ ; `string'
PUBLIC	??_C@_0BE@DNHBOKED@MMOTOP_UPDATE_VOTER?$AA@	; `string'
PUBLIC	??_C@_0BE@NJPILCIC@MMOTOP_DownloadFile?$AA@	; `string'
PUBLIC	??_C@_0BG@BIECMDMM@MMOTOP_DeleteVoteFile?$AA@	; `string'
PUBLIC	??_C@_0M@DCIBIFED@QTOP_Enable?$AA@		; `string'
PUBLIC	??_C@_06CNKIADGI@ZtTeam?$AA@			; `string'
PUBLIC	??_C@_0O@HBCEHCHG@MMOTOP_Enable?$AA@		; `string'
PUBLIC	??_C@_0BJ@HBNPCLMO@?4?4?2Data?2ZtData?2Voter?4ini?$AA@ ; `string'
PUBLIC	?Init@Voter@@QAEXXZ				; Voter::Init
EXTRN	__imp__GetPrivateProfileStringA@24:PROC
EXTRN	__imp__GetPrivateProfileIntA@16:PROC
;	COMDAT ??_C@_0BH@EAHGDKHP@ANONS_SMSBonusLifeBank?$AA@
CONST	SEGMENT
??_C@_0BH@EAHGDKHP@ANONS_SMSBonusLifeBank?$AA@ DB 'ANONS_SMSBonusLifeBank'
	DB	00H						; `string'
CONST	ENDS
;	COMDAT ??_C@_0BH@IEFJGJMD@ANONS_SMSBonusSoulBank?$AA@
CONST	SEGMENT
??_C@_0BH@IEFJGJMD@ANONS_SMSBonusSoulBank?$AA@ DB 'ANONS_SMSBonusSoulBank'
	DB	00H						; `string'
CONST	ENDS
;	COMDAT ??_C@_0BI@IPMDCAHB@ANONS_SMSBonusBlessBank?$AA@
CONST	SEGMENT
??_C@_0BI@IPMDCAHB@ANONS_SMSBonusBlessBank?$AA@ DB 'ANONS_SMSBonusBlessBa'
	DB	'nk', 00H					; `string'
CONST	ENDS
;	COMDAT ??_C@_0BI@BJNJOCAD@ANONS_SMSBonusChaosBank?$AA@
CONST	SEGMENT
??_C@_0BI@BJNJOCAD@ANONS_SMSBonusChaosBank?$AA@ DB 'ANONS_SMSBonusChaosBa'
	DB	'nk', 00H					; `string'
CONST	ENDS
;	COMDAT ??_C@_0BI@FPMNIMBA@ANONS_SMSBonusItemLevel?$AA@
CONST	SEGMENT
??_C@_0BI@FPMNIMBA@ANONS_SMSBonusItemLevel?$AA@ DB 'ANONS_SMSBonusItemLev'
	DB	'el', 00H					; `string'
CONST	ENDS
;	COMDAT ??_C@_0BI@KMGOGEPD@ANONS_SMSBonusItemIndex?$AA@
CONST	SEGMENT
??_C@_0BI@KMGOGEPD@ANONS_SMSBonusItemIndex?$AA@ DB 'ANONS_SMSBonusItemInd'
	DB	'ex', 00H					; `string'
CONST	ENDS
;	COMDAT ??_C@_0BH@MCNCHNJM@ANONS_SMSBonusItemType?$AA@
CONST	SEGMENT
??_C@_0BH@MCNCHNJM@ANONS_SMSBonusItemType?$AA@ DB 'ANONS_SMSBonusItemType'
	DB	00H						; `string'
CONST	ENDS
;	COMDAT ??_C@_0BJ@JDELAKKJ@ANONS_SMSBonusItemActive?$AA@
CONST	SEGMENT
??_C@_0BJ@JDELAKKJ@ANONS_SMSBonusItemActive?$AA@ DB 'ANONS_SMSBonusItemAc'
	DB	'tive', 00H					; `string'
CONST	ENDS
;	COMDAT ??_C@_0BF@BIGBCGBL@ANONS_SMSBonusZtCred?$AA@
CONST	SEGMENT
??_C@_0BF@BIGBCGBL@ANONS_SMSBonusZtCred?$AA@ DB 'ANONS_SMSBonusZtCred', 00H ; `string'
CONST	ENDS
;	COMDAT ??_C@_0BF@FGLAPPOD@ANONS_SMSBonusWcoinG?$AA@
CONST	SEGMENT
??_C@_0BF@FGLAPPOD@ANONS_SMSBonusWcoinG?$AA@ DB 'ANONS_SMSBonusWcoinG', 00H ; `string'
CONST	ENDS
;	COMDAT ??_C@_0BF@FDDDHLHF@ANONS_SMSBonusWcoinP?$AA@
CONST	SEGMENT
??_C@_0BF@FDDDHLHF@ANONS_SMSBonusWcoinP?$AA@ DB 'ANONS_SMSBonusWcoinP', 00H ; `string'
CONST	ENDS
;	COMDAT ??_C@_0BF@DCNMDKOH@ANONS_SMSBonusWcoinC?$AA@
CONST	SEGMENT
??_C@_0BF@DCNMDKOH@ANONS_SMSBonusWcoinC?$AA@ DB 'ANONS_SMSBonusWcoinC', 00H ; `string'
CONST	ENDS
;	COMDAT ??_C@_0BE@OKFIDHHI@ANONS_BonusLifeBank?$AA@
CONST	SEGMENT
??_C@_0BE@OKFIDHHI@ANONS_BonusLifeBank?$AA@ DB 'ANONS_BonusLifeBank', 00H ; `string'
CONST	ENDS
;	COMDAT ??_C@_0BE@COHHGEME@ANONS_BonusSoulBank?$AA@
CONST	SEGMENT
??_C@_0BE@COHHGEME@ANONS_BonusSoulBank?$AA@ DB 'ANONS_BonusSoulBank', 00H ; `string'
CONST	ENDS
;	COMDAT ??_C@_0BF@BBANJLNP@ANONS_BonusBlessBank?$AA@
CONST	SEGMENT
??_C@_0BF@BBANJLNP@ANONS_BonusBlessBank?$AA@ DB 'ANONS_BonusBlessBank', 00H ; `string'
CONST	ENDS
;	COMDAT ??_C@_0BF@IHBHFJKN@ANONS_BonusChaosBank?$AA@
CONST	SEGMENT
??_C@_0BF@IHBHFJKN@ANONS_BonusChaosBank?$AA@ DB 'ANONS_BonusChaosBank', 00H ; `string'
CONST	ENDS
;	COMDAT ??_C@_0BF@MBADDHLO@ANONS_BonusItemLevel?$AA@
CONST	SEGMENT
??_C@_0BF@MBADDHLO@ANONS_BonusItemLevel?$AA@ DB 'ANONS_BonusItemLevel', 00H ; `string'
CONST	ENDS
;	COMDAT ??_C@_0BF@DCKANPFN@ANONS_BonusItemIndex?$AA@
CONST	SEGMENT
??_C@_0BF@DCKANPFN@ANONS_BonusItemIndex?$AA@ DB 'ANONS_BonusItemIndex', 00H ; `string'
CONST	ENDS
;	COMDAT ??_C@_0BE@GIPMHAJL@ANONS_BonusItemType?$AA@
CONST	SEGMENT
??_C@_0BE@GIPMHAJL@ANONS_BonusItemType?$AA@ DB 'ANONS_BonusItemType', 00H ; `string'
CONST	ENDS
;	COMDAT ??_C@_0BG@KCLLEKPN@ANONS_BonusItemActive?$AA@
CONST	SEGMENT
??_C@_0BG@KCLLEKPN@ANONS_BonusItemActive?$AA@ DB 'ANONS_BonusItemActive', 00H ; `string'
CONST	ENDS
;	COMDAT ??_C@_0BC@ONJKOOOI@ANONS_BonusZtCred?$AA@
CONST	SEGMENT
??_C@_0BC@ONJKOOOI@ANONS_BonusZtCred?$AA@ DB 'ANONS_BonusZtCred', 00H ; `string'
CONST	ENDS
;	COMDAT ??_C@_0BC@KDELDHBA@ANONS_BonusWcoinG?$AA@
CONST	SEGMENT
??_C@_0BC@KDELDHBA@ANONS_BonusWcoinG?$AA@ DB 'ANONS_BonusWcoinG', 00H ; `string'
CONST	ENDS
;	COMDAT ??_C@_0BC@KGMILDIG@ANONS_BonusWcoinP?$AA@
CONST	SEGMENT
??_C@_0BC@KGMILDIG@ANONS_BonusWcoinP?$AA@ DB 'ANONS_BonusWcoinP', 00H ; `string'
CONST	ENDS
;	COMDAT ??_C@_0BC@MHCHPCBE@ANONS_BonusWcoinC?$AA@
CONST	SEGMENT
??_C@_0BC@MHCHPCBE@ANONS_BonusWcoinC?$AA@ DB 'ANONS_BonusWcoinC', 00H ; `string'
CONST	ENDS
;	COMDAT ??_C@_0P@LLKFOAJA@ANONS_VoteFile?$AA@
CONST	SEGMENT
??_C@_0P@LLKFOAJA@ANONS_VoteFile?$AA@ DB 'ANONS_VoteFile', 00H ; `string'
CONST	ENDS
;	COMDAT ??_C@_0BD@HJFAMOBD@ANONS_UPDATE_VOTER?$AA@
CONST	SEGMENT
??_C@_0BD@HJFAMOBD@ANONS_UPDATE_VOTER?$AA@ DB 'ANONS_UPDATE_VOTER', 00H ; `string'
CONST	ENDS
;	COMDAT ??_C@_0BD@JNNJJGNC@ANONS_DownloadFile?$AA@
CONST	SEGMENT
??_C@_0BD@JNNJJGNC@ANONS_DownloadFile?$AA@ DB 'ANONS_DownloadFile', 00H ; `string'
CONST	ENDS
;	COMDAT ??_C@_0BF@JOPKDOGI@ANONS_DeleteVoteFile?$AA@
CONST	SEGMENT
??_C@_0BF@JOPKDOGI@ANONS_DeleteVoteFile?$AA@ DB 'ANONS_DeleteVoteFile', 00H ; `string'
CONST	ENDS
;	COMDAT ??_C@_0N@DCPCLHJ@ANONS_Enable?$AA@
CONST	SEGMENT
??_C@_0N@DCPCLHJ@ANONS_Enable?$AA@ DB 'ANONS_Enable', 00H ; `string'
CONST	ENDS
;	COMDAT ??_C@_0BB@IFHGPKPD@QTOP_SMSBuffTime?$AA@
CONST	SEGMENT
??_C@_0BB@IFHGPKPD@QTOP_SMSBuffTime?$AA@ DB 'QTOP_SMSBuffTime', 00H ; `string'
CONST	ENDS
;	COMDAT ??_C@_0O@NOACOOKK@QTOP_BuffTime?$AA@
CONST	SEGMENT
??_C@_0O@NOACOOKK@QTOP_BuffTime?$AA@ DB 'QTOP_BuffTime', 00H ; `string'
CONST	ENDS
;	COMDAT ??_C@_0BD@PDOBGAFG@MMOTOP_SMSBuffTime?$AA@
CONST	SEGMENT
??_C@_0BD@PDOBGAFG@MMOTOP_SMSBuffTime?$AA@ DB 'MMOTOP_SMSBuffTime', 00H ; `string'
CONST	ENDS
;	COMDAT ??_C@_0BA@FPOKAIAG@MMOTOP_BuffTime?$AA@
CONST	SEGMENT
??_C@_0BA@FPOKAIAG@MMOTOP_BuffTime?$AA@ DB 'MMOTOP_BuffTime', 00H ; `string'
CONST	ENDS
;	COMDAT ??_C@_0BG@KCBCCKKI@QTOP_SMSBonusLifeBank?$AA@
CONST	SEGMENT
??_C@_0BG@KCBCCKKI@QTOP_SMSBonusLifeBank?$AA@ DB 'QTOP_SMSBonusLifeBank', 00H ; `string'
CONST	ENDS
;	COMDAT ??_C@_0BG@GGDNHJBE@QTOP_SMSBonusSoulBank?$AA@
CONST	SEGMENT
??_C@_0BG@GGDNHJBE@QTOP_SMSBonusSoulBank?$AA@ DB 'QTOP_SMSBonusSoulBank', 00H ; `string'
CONST	ENDS
;	COMDAT ??_C@_0BH@JHJGADBG@QTOP_SMSBonusBlessBank?$AA@
CONST	SEGMENT
??_C@_0BH@JHJGADBG@QTOP_SMSBonusBlessBank?$AA@ DB 'QTOP_SMSBonusBlessBank'
	DB	00H						; `string'
CONST	ENDS
;	COMDAT ??_C@_0BH@BIMMBGE@QTOP_SMSBonusChaosBank?$AA@
CONST	SEGMENT
??_C@_0BH@BIMMBGE@QTOP_SMSBonusChaosBank?$AA@ DB 'QTOP_SMSBonusChaosBank', 00H ; `string'
CONST	ENDS
;	COMDAT ??_C@_0BH@EHJIKPHH@QTOP_SMSBonusItemLevel?$AA@
CONST	SEGMENT
??_C@_0BH@EHJIKPHH@QTOP_SMSBonusItemLevel?$AA@ DB 'QTOP_SMSBonusItemLevel'
	DB	00H						; `string'
CONST	ENDS
;	COMDAT ??_C@_0BH@LEDLEHJE@QTOP_SMSBonusItemIndex?$AA@
CONST	SEGMENT
??_C@_0BH@LEDLEHJE@QTOP_SMSBonusItemIndex?$AA@ DB 'QTOP_SMSBonusItemIndex'
	DB	00H						; `string'
CONST	ENDS
;	COMDAT ??_C@_0BG@CALGGNEL@QTOP_SMSBonusItemType?$AA@
CONST	SEGMENT
??_C@_0BG@CALGGNEL@QTOP_SMSBonusItemType?$AA@ DB 'QTOP_SMSBonusItemType', 00H ; `string'
CONST	ENDS
;	COMDAT ??_C@_0BI@EAIFKLHB@QTOP_SMSBonusItemActive?$AA@
CONST	SEGMENT
??_C@_0BI@EAIFKLHB@QTOP_SMSBonusItemActive?$AA@ DB 'QTOP_SMSBonusItemActi'
	DB	've', 00H					; `string'
CONST	ENDS
;	COMDAT ??_C@_0BE@KEKPCADF@QTOP_SMSBonusZtCred?$AA@
CONST	SEGMENT
??_C@_0BE@KEKPCADF@QTOP_SMSBonusZtCred?$AA@ DB 'QTOP_SMSBonusZtCred', 00H ; `string'
CONST	ENDS
;	COMDAT ??_C@_0BE@OKHOPJMN@QTOP_SMSBonusWcoinG?$AA@
CONST	SEGMENT
??_C@_0BE@OKHOPJMN@QTOP_SMSBonusWcoinG?$AA@ DB 'QTOP_SMSBonusWcoinG', 00H ; `string'
CONST	ENDS
;	COMDAT ??_C@_0BE@OPPNHNFL@QTOP_SMSBonusWcoinP?$AA@
CONST	SEGMENT
??_C@_0BE@OPPNHNFL@QTOP_SMSBonusWcoinP?$AA@ DB 'QTOP_SMSBonusWcoinP', 00H ; `string'
CONST	ENDS
;	COMDAT ??_C@_0BE@IOBCDMMJ@QTOP_SMSBonusWcoinC?$AA@
CONST	SEGMENT
??_C@_0BE@IOBCDMMJ@QTOP_SMSBonusWcoinC?$AA@ DB 'QTOP_SMSBonusWcoinC', 00H ; `string'
CONST	ENDS
;	COMDAT ??_C@_0BD@ECNNADMJ@QTOP_BonusLifeBank?$AA@
CONST	SEGMENT
??_C@_0BD@ECNNADMJ@QTOP_BonusLifeBank?$AA@ DB 'QTOP_BonusLifeBank', 00H ; `string'
CONST	ENDS
;	COMDAT ??_C@_0BD@IGPCFAHF@QTOP_BonusSoulBank?$AA@
CONST	SEGMENT
??_C@_0BD@IGPCFAHF@QTOP_BonusSoulBank?$AA@ DB 'QTOP_BonusSoulBank', 00H ; `string'
CONST	ENDS
;	COMDAT ??_C@_0BE@KNMDJNPB@QTOP_BonusBlessBank?$AA@
CONST	SEGMENT
??_C@_0BE@KNMDJNPB@QTOP_BonusBlessBank?$AA@ DB 'QTOP_BonusBlessBank', 00H ; `string'
CONST	ENDS
;	COMDAT ??_C@_0BE@DLNJFPID@QTOP_BonusChaosBank?$AA@
CONST	SEGMENT
??_C@_0BE@DLNJFPID@QTOP_BonusChaosBank?$AA@ DB 'QTOP_BonusChaosBank', 00H ; `string'
CONST	ENDS
;	COMDAT ??_C@_0BE@HNMNDBJA@QTOP_BonusItemLevel?$AA@
CONST	SEGMENT
??_C@_0BE@HNMNDBJA@QTOP_BonusItemLevel?$AA@ DB 'QTOP_BonusItemLevel', 00H ; `string'
CONST	ENDS
;	COMDAT ??_C@_0BE@IOGONJHD@QTOP_BonusItemIndex?$AA@
CONST	SEGMENT
??_C@_0BE@IOGONJHD@QTOP_BonusItemIndex?$AA@ DB 'QTOP_BonusItemIndex', 00H ; `string'
CONST	ENDS
;	COMDAT ??_C@_0BD@MAHJEECK@QTOP_BonusItemType?$AA@
CONST	SEGMENT
??_C@_0BD@MAHJEECK@QTOP_BonusItemType?$AA@ DB 'QTOP_BonusItemType', 00H ; `string'
CONST	ENDS
;	COMDAT ??_C@_0BF@HONBIJDE@QTOP_BonusItemActive?$AA@
CONST	SEGMENT
??_C@_0BF@HONBIJDE@QTOP_BonusItemActive?$AA@ DB 'QTOP_BonusItemActive', 00H ; `string'
CONST	ENDS
;	COMDAT ??_C@_0BB@LOAEFHCB@QTOP_BonusZtCred?$AA@
CONST	SEGMENT
??_C@_0BB@LOAEFHCB@QTOP_BonusZtCred?$AA@ DB 'QTOP_BonusZtCred', 00H ; `string'
CONST	ENDS
;	COMDAT ??_C@_0BB@PANFIONJ@QTOP_BonusWcoinG?$AA@
CONST	SEGMENT
??_C@_0BB@PANFIONJ@QTOP_BonusWcoinG?$AA@ DB 'QTOP_BonusWcoinG', 00H ; `string'
CONST	ENDS
;	COMDAT ??_C@_0BB@PFFGAKEP@QTOP_BonusWcoinP?$AA@
CONST	SEGMENT
??_C@_0BB@PFFGAKEP@QTOP_BonusWcoinP?$AA@ DB 'QTOP_BonusWcoinP', 00H ; `string'
CONST	ENDS
;	COMDAT ??_C@_0BB@JELJELNN@QTOP_BonusWcoinC?$AA@
CONST	SEGMENT
??_C@_0BB@JELJELNN@QTOP_BonusWcoinC?$AA@ DB 'QTOP_BonusWcoinC', 00H ; `string'
CONST	ENDS
;	COMDAT ??_C@_0O@KPGCIBKI@QTOP_VoteFile?$AA@
CONST	SEGMENT
??_C@_0O@KPGCIBKI@QTOP_VoteFile?$AA@ DB 'QTOP_VoteFile', 00H ; `string'
CONST	ENDS
;	COMDAT ??_C@_0BC@JLLLCKLO@QTOP_UPDATE_VOTER?$AA@
CONST	SEGMENT
??_C@_0BC@JLLLCKLO@QTOP_UPDATE_VOTER?$AA@ DB 'QTOP_UPDATE_VOTER', 00H ; `string'
CONST	ENDS
;	COMDAT ??_C@_0BC@HPDCHCHP@QTOP_DownloadFile?$AA@
CONST	SEGMENT
??_C@_0BC@HPDCHCHP@QTOP_DownloadFile?$AA@ DB 'QTOP_DownloadFile', 00H ; `string'
CONST	ENDS
;	COMDAT ??_C@_0BE@CCDEDIEG@QTOP_DeleteVoteFile?$AA@
CONST	SEGMENT
??_C@_0BE@CCDEDIEG@QTOP_DeleteVoteFile?$AA@ DB 'QTOP_DeleteVoteFile', 00H ; `string'
CONST	ENDS
;	COMDAT ??_C@_0BI@EJBBELIL@MMOTOP_SMSBonusLifeBank?$AA@
CONST	SEGMENT
??_C@_0BI@EJBBELIL@MMOTOP_SMSBonusLifeBank?$AA@ DB 'MMOTOP_SMSBonusLifeBa'
	DB	'nk', 00H					; `string'
CONST	ENDS
;	COMDAT ??_C@_0BI@INDOBIDH@MMOTOP_SMSBonusSoulBank?$AA@
CONST	SEGMENT
??_C@_0BI@INDOBIDH@MMOTOP_SMSBonusSoulBank?$AA@ DB 'MMOTOP_SMSBonusSoulBa'
	DB	'nk', 00H					; `string'
CONST	ENDS
;	COMDAT ??_C@_0BJ@DFBKHBAF@MMOTOP_SMSBonusBlessBank?$AA@
CONST	SEGMENT
??_C@_0BJ@DFBKHBAF@MMOTOP_SMSBonusBlessBank?$AA@ DB 'MMOTOP_SMSBonusBless'
	DB	'Bank', 00H					; `string'
CONST	ENDS
;	COMDAT ??_C@_0BJ@KDAALDHH@MMOTOP_SMSBonusChaosBank?$AA@
CONST	SEGMENT
??_C@_0BJ@KDAALDHH@MMOTOP_SMSBonusChaosBank?$AA@ DB 'MMOTOP_SMSBonusChaos'
	DB	'Bank', 00H					; `string'
CONST	ENDS
;	COMDAT ??_C@_0BJ@OFBENNGE@MMOTOP_SMSBonusItemLevel?$AA@
CONST	SEGMENT
??_C@_0BJ@OFBENNGE@MMOTOP_SMSBonusItemLevel?$AA@ DB 'MMOTOP_SMSBonusItemL'
	DB	'evel', 00H					; `string'
CONST	ENDS
;	COMDAT ??_C@_0BJ@BGLHDFIH@MMOTOP_SMSBonusItemIndex?$AA@
CONST	SEGMENT
??_C@_0BJ@BGLHDFIH@MMOTOP_SMSBonusItemIndex?$AA@ DB 'MMOTOP_SMSBonusItemI'
	DB	'ndex', 00H					; `string'
CONST	ENDS
;	COMDAT ??_C@_0BI@MLLFAMGI@MMOTOP_SMSBonusItemType?$AA@
CONST	SEGMENT
??_C@_0BI@MLLFAMGI@MMOTOP_SMSBonusItemType?$AA@ DB 'MMOTOP_SMSBonusItemTy'
	DB	'pe', 00H					; `string'
CONST	ENDS
;	COMDAT ??_C@_0BK@MEJJGGNN@MMOTOP_SMSBonusItemActive?$AA@
CONST	SEGMENT
??_C@_0BK@MEJJGGNN@MMOTOP_SMSBonusItemActive?$AA@ DB 'MMOTOP_SMSBonusItem'
	DB	'Active', 00H				; `string'
CONST	ENDS
;	COMDAT ??_C@_0BG@JONJNLLP@MMOTOP_SMSBonusZtCred?$AA@
CONST	SEGMENT
??_C@_0BG@JONJNLLP@MMOTOP_SMSBonusZtCred?$AA@ DB 'MMOTOP_SMSBonusZtCred', 00H ; `string'
CONST	ENDS
;	COMDAT ??_C@_0BG@NAAIACEH@MMOTOP_SMSBonusWcoinG?$AA@
CONST	SEGMENT
??_C@_0BG@NAAIACEH@MMOTOP_SMSBonusWcoinG?$AA@ DB 'MMOTOP_SMSBonusWcoinG', 00H ; `string'
CONST	ENDS
;	COMDAT ??_C@_0BG@NFILIGNB@MMOTOP_SMSBonusWcoinP?$AA@
CONST	SEGMENT
??_C@_0BG@NFILIGNB@MMOTOP_SMSBonusWcoinP?$AA@ DB 'MMOTOP_SMSBonusWcoinP', 00H ; `string'
CONST	ENDS
;	COMDAT ??_C@_0BG@LEGEMHED@MMOTOP_SMSBonusWcoinC?$AA@
CONST	SEGMENT
??_C@_0BG@LEGEMHED@MMOTOP_SMSBonusWcoinC?$AA@ DB 'MMOTOP_SMSBonusWcoinC', 00H ; `string'
CONST	ENDS
;	COMDAT ??_C@_0BF@IBHHEHKI@MMOTOP_BonusLifeBank?$AA@
CONST	SEGMENT
??_C@_0BF@IBHHEHKI@MMOTOP_BonusLifeBank?$AA@ DB 'MMOTOP_BonusLifeBank', 00H ; `string'
CONST	ENDS
;	COMDAT ??_C@_0BF@EFFIBEBE@MMOTOP_BonusSoulBank?$AA@
CONST	SEGMENT
??_C@_0BF@EFFIBEBE@MMOTOP_BonusSoulBank?$AA@ DB 'MMOTOP_BonusSoulBank', 00H ; `string'
CONST	ENDS
;	COMDAT ??_C@_0BG@JHLFGGHL@MMOTOP_BonusBlessBank?$AA@
CONST	SEGMENT
??_C@_0BG@JHLFGGHL@MMOTOP_BonusBlessBank?$AA@ DB 'MMOTOP_BonusBlessBank', 00H ; `string'
CONST	ENDS
;	COMDAT ??_C@_0BG@BKPKEAJ@MMOTOP_BonusChaosBank?$AA@
CONST	SEGMENT
??_C@_0BG@BKPKEAJ@MMOTOP_BonusChaosBank?$AA@ DB 'MMOTOP_BonusChaosBank', 00H ; `string'
CONST	ENDS
;	COMDAT ??_C@_0BG@EHLLMKBK@MMOTOP_BonusItemLevel?$AA@
CONST	SEGMENT
??_C@_0BG@EHLLMKBK@MMOTOP_BonusItemLevel?$AA@ DB 'MMOTOP_BonusItemLevel', 00H ; `string'
CONST	ENDS
;	COMDAT ??_C@_0BG@LEBICCPJ@MMOTOP_BonusItemIndex?$AA@
CONST	SEGMENT
??_C@_0BG@LEBICCPJ@MMOTOP_BonusItemIndex?$AA@ DB 'MMOTOP_BonusItemIndex', 00H ; `string'
CONST	ENDS
;	COMDAT ??_C@_0BF@DNDAAEL@MMOTOP_BonusItemType?$AA@
CONST	SEGMENT
??_C@_0BF@DNDAAEL@MMOTOP_BonusItemType?$AA@ DB 'MMOTOP_BonusItemType', 00H ; `string'
CONST	ENDS
;	COMDAT ??_C@_0BH@HDIGJFPB@MMOTOP_BonusItemActive?$AA@
CONST	SEGMENT
??_C@_0BH@HDIGJFPB@MMOTOP_BonusItemActive?$AA@ DB 'MMOTOP_BonusItemActive'
	DB	00H						; `string'
CONST	ENDS
;	COMDAT ??_C@_0BD@MIJDMNIE@MMOTOP_BonusZtCred?$AA@
CONST	SEGMENT
??_C@_0BD@MIJDMNIE@MMOTOP_BonusZtCred?$AA@ DB 'MMOTOP_BonusZtCred', 00H ; `string'
CONST	ENDS
;	COMDAT ??_C@_0BD@IGECBEHM@MMOTOP_BonusWcoinG?$AA@
CONST	SEGMENT
??_C@_0BD@IGECBEHM@MMOTOP_BonusWcoinG?$AA@ DB 'MMOTOP_BonusWcoinG', 00H ; `string'
CONST	ENDS
;	COMDAT ??_C@_0BD@IDMBJAOK@MMOTOP_BonusWcoinP?$AA@
CONST	SEGMENT
??_C@_0BD@IDMBJAOK@MMOTOP_BonusWcoinP?$AA@ DB 'MMOTOP_BonusWcoinP', 00H ; `string'
CONST	ENDS
;	COMDAT ??_C@_0BD@OCCONBHI@MMOTOP_BonusWcoinC?$AA@
CONST	SEGMENT
??_C@_0BD@OCCONBHI@MMOTOP_BonusWcoinC?$AA@ DB 'MMOTOP_BonusWcoinC', 00H ; `string'
CONST	ENDS
;	COMDAT ??_C@_0BA@COIKGHAE@MMOTOP_VoteFile?$AA@
CONST	SEGMENT
??_C@_0BA@COIKGHAE@MMOTOP_VoteFile?$AA@ DB 'MMOTOP_VoteFile', 00H ; `string'
CONST	ENDS
;	COMDAT ??_C@_0FE@DBCBBMPJ@votes?1aba02abed8021ba31a4499a390@
CONST	SEGMENT
??_C@_0FE@DBCBBMPJ@votes?1aba02abed8021ba31a4499a390@ DB 'votes/aba02abed'
	DB	'8021ba31a4499a390aa8afa4679c6d1.txt?454b02beba57cfd5896709ff1'
	DB	'ea8f1aa', 00H				; `string'
CONST	ENDS
;	COMDAT ??_C@_0BE@DNHBOKED@MMOTOP_UPDATE_VOTER?$AA@
CONST	SEGMENT
??_C@_0BE@DNHBOKED@MMOTOP_UPDATE_VOTER?$AA@ DB 'MMOTOP_UPDATE_VOTER', 00H ; `string'
CONST	ENDS
;	COMDAT ??_C@_0BE@NJPILCIC@MMOTOP_DownloadFile?$AA@
CONST	SEGMENT
??_C@_0BE@NJPILCIC@MMOTOP_DownloadFile?$AA@ DB 'MMOTOP_DownloadFile', 00H ; `string'
CONST	ENDS
;	COMDAT ??_C@_0BG@BIECMDMM@MMOTOP_DeleteVoteFile?$AA@
CONST	SEGMENT
??_C@_0BG@BIECMDMM@MMOTOP_DeleteVoteFile?$AA@ DB 'MMOTOP_DeleteVoteFile', 00H ; `string'
CONST	ENDS
;	COMDAT ??_C@_0M@DCIBIFED@QTOP_Enable?$AA@
CONST	SEGMENT
??_C@_0M@DCIBIFED@QTOP_Enable?$AA@ DB 'QTOP_Enable', 00H ; `string'
CONST	ENDS
;	COMDAT ??_C@_06CNKIADGI@ZtTeam?$AA@
CONST	SEGMENT
??_C@_06CNKIADGI@ZtTeam?$AA@ DB 'ZtTeam', 00H		; `string'
CONST	ENDS
;	COMDAT ??_C@_0O@HBCEHCHG@MMOTOP_Enable?$AA@
CONST	SEGMENT
??_C@_0O@HBCEHCHG@MMOTOP_Enable?$AA@ DB 'MMOTOP_Enable', 00H ; `string'
CONST	ENDS
;	COMDAT ??_C@_0BJ@HBNPCLMO@?4?4?2Data?2ZtData?2Voter?4ini?$AA@
CONST	SEGMENT
??_C@_0BJ@HBNPCLMO@?4?4?2Data?2ZtData?2Voter?4ini?$AA@ DB '..\Data\ZtData'
	DB	'\Voter.ini', 00H				; `string'
; Function compile flags: /Ogtp
CONST	ENDS
;	COMDAT ?Init@Voter@@QAEXXZ
_TEXT	SEGMENT
?Init@Voter@@QAEXXZ PROC				; Voter::Init, COMDAT
; _this$ = ecx

; 54   : {

  00000	53		 push	 ebx
  00001	56		 push	 esi
  00002	57		 push	 edi

; 55   : 	this->MMOTOP_Enable = GetPrivateProfileInt("ZtTeam","MMOTOP_Enable",0,VOTER_DIR);

  00003	8b 3d 00 00 00
	00		 mov	 edi, DWORD PTR __imp__GetPrivateProfileIntA@16
  00009	68 00 00 00 00	 push	 OFFSET ??_C@_0BJ@HBNPCLMO@?4?4?2Data?2ZtData?2Voter?4ini?$AA@
  0000e	6a 00		 push	 0
  00010	68 00 00 00 00	 push	 OFFSET ??_C@_0O@HBCEHCHG@MMOTOP_Enable?$AA@
  00015	68 00 00 00 00	 push	 OFFSET ??_C@_06CNKIADGI@ZtTeam?$AA@
  0001a	8b f1		 mov	 esi, ecx
  0001c	ff d7		 call	 edi

; 56   : 	this->QTOP_Enable = GetPrivateProfileInt("ZtTeam", "QTOP_Enable", 0, VOTER_DIR);

  0001e	68 00 00 00 00	 push	 OFFSET ??_C@_0BJ@HBNPCLMO@?4?4?2Data?2ZtData?2Voter?4ini?$AA@
  00023	6a 00		 push	 0
  00025	85 c0		 test	 eax, eax
  00027	68 00 00 00 00	 push	 OFFSET ??_C@_0M@DCIBIFED@QTOP_Enable?$AA@
  0002c	0f 95 c0	 setne	 al
  0002f	68 00 00 00 00	 push	 OFFSET ??_C@_06CNKIADGI@ZtTeam?$AA@
  00034	88 06		 mov	 BYTE PTR [esi], al
  00036	ff d7		 call	 edi

; 57   : 	// ----
; 58   : 
; 59   : 	this->MMOTOP_DeleteVoteFile = GetPrivateProfileInt("ZtTeam", "MMOTOP_DeleteVoteFile", 1, VOTER_DIR);

  00038	68 00 00 00 00	 push	 OFFSET ??_C@_0BJ@HBNPCLMO@?4?4?2Data?2ZtData?2Voter?4ini?$AA@
  0003d	6a 01		 push	 1
  0003f	85 c0		 test	 eax, eax
  00041	68 00 00 00 00	 push	 OFFSET ??_C@_0BG@BIECMDMM@MMOTOP_DeleteVoteFile?$AA@
  00046	0f 95 c1	 setne	 cl
  00049	68 00 00 00 00	 push	 OFFSET ??_C@_06CNKIADGI@ZtTeam?$AA@
  0004e	88 8e 30 01 00
	00		 mov	 BYTE PTR [esi+304], cl
  00054	ff d7		 call	 edi

; 60   : 	this->MMOTOP_DownloadFile = GetPrivateProfileInt("ZtTeam", "MMOTOP_DownloadFile", 1, VOTER_DIR);

  00056	68 00 00 00 00	 push	 OFFSET ??_C@_0BJ@HBNPCLMO@?4?4?2Data?2ZtData?2Voter?4ini?$AA@
  0005b	6a 01		 push	 1
  0005d	85 c0		 test	 eax, eax
  0005f	68 00 00 00 00	 push	 OFFSET ??_C@_0BE@NJPILCIC@MMOTOP_DownloadFile?$AA@
  00064	0f 95 c2	 setne	 dl
  00067	68 00 00 00 00	 push	 OFFSET ??_C@_06CNKIADGI@ZtTeam?$AA@
  0006c	88 56 01	 mov	 BYTE PTR [esi+1], dl
  0006f	ff d7		 call	 edi

; 61   : 
; 62   : 	this->MMOTOP_UPDATE_VOTER = GetPrivateProfileInt("ZtTeam", "MMOTOP_UPDATE_VOTER", 2, VOTER_DIR);

  00071	68 00 00 00 00	 push	 OFFSET ??_C@_0BJ@HBNPCLMO@?4?4?2Data?2ZtData?2Voter?4ini?$AA@
  00076	6a 02		 push	 2
  00078	85 c0		 test	 eax, eax
  0007a	68 00 00 00 00	 push	 OFFSET ??_C@_0BE@DNHBOKED@MMOTOP_UPDATE_VOTER?$AA@
  0007f	0f 95 c0	 setne	 al
  00082	68 00 00 00 00	 push	 OFFSET ??_C@_06CNKIADGI@ZtTeam?$AA@
  00087	88 46 02	 mov	 BYTE PTR [esi+2], al
  0008a	ff d7		 call	 edi

; 63   : 
; 64   : 	GetPrivateProfileString("ZtTeam", "MMOTOP_VoteFile", "votes/aba02abed8021ba31a4499a390aa8afa4679c6d1.txt?454b02beba57cfd5896709ff1ea8f1aa", this->MMOTOP_FileName, sizeof(this->MMOTOP_FileName), VOTER_DIR);

  0008c	8b 1d 00 00 00
	00		 mov	 ebx, DWORD PTR __imp__GetPrivateProfileStringA@24
  00092	68 00 00 00 00	 push	 OFFSET ??_C@_0BJ@HBNPCLMO@?4?4?2Data?2ZtData?2Voter?4ini?$AA@
  00097	68 c8 00 00 00	 push	 200			; 000000c8H
  0009c	8d 4e 08	 lea	 ecx, DWORD PTR [esi+8]
  0009f	51		 push	 ecx
  000a0	68 00 00 00 00	 push	 OFFSET ??_C@_0FE@DBCBBMPJ@votes?1aba02abed8021ba31a4499a390@
  000a5	68 00 00 00 00	 push	 OFFSET ??_C@_0BA@COIKGHAE@MMOTOP_VoteFile?$AA@
  000aa	68 00 00 00 00	 push	 OFFSET ??_C@_06CNKIADGI@ZtTeam?$AA@
  000af	89 46 04	 mov	 DWORD PTR [esi+4], eax
  000b2	ff d3		 call	 ebx

; 65   : 
; 66   : 	this->MMOTOP_BonusWcoinC = GetPrivateProfileInt("ZtTeam", "MMOTOP_BonusWcoinC", 0, VOTER_DIR);

  000b4	68 00 00 00 00	 push	 OFFSET ??_C@_0BJ@HBNPCLMO@?4?4?2Data?2ZtData?2Voter?4ini?$AA@
  000b9	6a 00		 push	 0
  000bb	68 00 00 00 00	 push	 OFFSET ??_C@_0BD@OCCONBHI@MMOTOP_BonusWcoinC?$AA@
  000c0	68 00 00 00 00	 push	 OFFSET ??_C@_06CNKIADGI@ZtTeam?$AA@
  000c5	ff d7		 call	 edi

; 67   : 	this->MMOTOP_BonusWcoinP = GetPrivateProfileInt("ZtTeam", "MMOTOP_BonusWcoinP", 0, VOTER_DIR);

  000c7	68 00 00 00 00	 push	 OFFSET ??_C@_0BJ@HBNPCLMO@?4?4?2Data?2ZtData?2Voter?4ini?$AA@
  000cc	6a 00		 push	 0
  000ce	68 00 00 00 00	 push	 OFFSET ??_C@_0BD@IDMBJAOK@MMOTOP_BonusWcoinP?$AA@
  000d3	68 00 00 00 00	 push	 OFFSET ??_C@_06CNKIADGI@ZtTeam?$AA@
  000d8	89 86 d0 00 00
	00		 mov	 DWORD PTR [esi+208], eax
  000de	ff d7		 call	 edi

; 68   : 	this->MMOTOP_BonusWcoinG = GetPrivateProfileInt("ZtTeam", "MMOTOP_BonusWcoinG", 0, VOTER_DIR);

  000e0	68 00 00 00 00	 push	 OFFSET ??_C@_0BJ@HBNPCLMO@?4?4?2Data?2ZtData?2Voter?4ini?$AA@
  000e5	6a 00		 push	 0
  000e7	68 00 00 00 00	 push	 OFFSET ??_C@_0BD@IGECBEHM@MMOTOP_BonusWcoinG?$AA@
  000ec	68 00 00 00 00	 push	 OFFSET ??_C@_06CNKIADGI@ZtTeam?$AA@
  000f1	89 86 d4 00 00
	00		 mov	 DWORD PTR [esi+212], eax
  000f7	ff d7		 call	 edi

; 69   : 	this->MMOTOP_BonusZtCred = GetPrivateProfileInt("ZtTeam", "MMOTOP_BonusZtCred", 0, VOTER_DIR);

  000f9	68 00 00 00 00	 push	 OFFSET ??_C@_0BJ@HBNPCLMO@?4?4?2Data?2ZtData?2Voter?4ini?$AA@
  000fe	6a 00		 push	 0
  00100	68 00 00 00 00	 push	 OFFSET ??_C@_0BD@MIJDMNIE@MMOTOP_BonusZtCred?$AA@
  00105	68 00 00 00 00	 push	 OFFSET ??_C@_06CNKIADGI@ZtTeam?$AA@
  0010a	89 86 d8 00 00
	00		 mov	 DWORD PTR [esi+216], eax
  00110	ff d7		 call	 edi

; 70   : 
; 71   : 	this->MMOTOP_BonusItemActive = GetPrivateProfileInt("ZtTeam", "MMOTOP_BonusItemActive", 0, VOTER_DIR);

  00112	68 00 00 00 00	 push	 OFFSET ??_C@_0BJ@HBNPCLMO@?4?4?2Data?2ZtData?2Voter?4ini?$AA@
  00117	6a 00		 push	 0
  00119	68 00 00 00 00	 push	 OFFSET ??_C@_0BH@HDIGJFPB@MMOTOP_BonusItemActive?$AA@
  0011e	68 00 00 00 00	 push	 OFFSET ??_C@_06CNKIADGI@ZtTeam?$AA@
  00123	89 86 dc 00 00
	00		 mov	 DWORD PTR [esi+220], eax
  00129	ff d7		 call	 edi

; 72   : 	this->MMOTOP_BonusItemType = GetPrivateProfileInt("ZtTeam", "MMOTOP_BonusItemType", 0, VOTER_DIR);

  0012b	68 00 00 00 00	 push	 OFFSET ??_C@_0BJ@HBNPCLMO@?4?4?2Data?2ZtData?2Voter?4ini?$AA@
  00130	6a 00		 push	 0
  00132	68 00 00 00 00	 push	 OFFSET ??_C@_0BF@DNDAAEL@MMOTOP_BonusItemType?$AA@
  00137	68 00 00 00 00	 push	 OFFSET ??_C@_06CNKIADGI@ZtTeam?$AA@
  0013c	89 86 e0 00 00
	00		 mov	 DWORD PTR [esi+224], eax
  00142	ff d7		 call	 edi

; 73   : 	this->MMOTOP_BonusItemIndex = GetPrivateProfileInt("ZtTeam", "MMOTOP_BonusItemIndex", 0, VOTER_DIR);

  00144	68 00 00 00 00	 push	 OFFSET ??_C@_0BJ@HBNPCLMO@?4?4?2Data?2ZtData?2Voter?4ini?$AA@
  00149	6a 00		 push	 0
  0014b	68 00 00 00 00	 push	 OFFSET ??_C@_0BG@LEBICCPJ@MMOTOP_BonusItemIndex?$AA@
  00150	68 00 00 00 00	 push	 OFFSET ??_C@_06CNKIADGI@ZtTeam?$AA@
  00155	89 86 e4 00 00
	00		 mov	 DWORD PTR [esi+228], eax
  0015b	ff d7		 call	 edi

; 74   : 	this->MMOTOP_BonusItemLevel = GetPrivateProfileInt("ZtTeam", "MMOTOP_BonusItemLevel", 0, VOTER_DIR);

  0015d	68 00 00 00 00	 push	 OFFSET ??_C@_0BJ@HBNPCLMO@?4?4?2Data?2ZtData?2Voter?4ini?$AA@
  00162	6a 00		 push	 0
  00164	68 00 00 00 00	 push	 OFFSET ??_C@_0BG@EHLLMKBK@MMOTOP_BonusItemLevel?$AA@
  00169	68 00 00 00 00	 push	 OFFSET ??_C@_06CNKIADGI@ZtTeam?$AA@
  0016e	89 86 e8 00 00
	00		 mov	 DWORD PTR [esi+232], eax
  00174	ff d7		 call	 edi

; 75   : 
; 76   : 	this->MMOTOP_BonusChaosBank = GetPrivateProfileInt("ZtTeam", "MMOTOP_BonusChaosBank", 0, VOTER_DIR);

  00176	68 00 00 00 00	 push	 OFFSET ??_C@_0BJ@HBNPCLMO@?4?4?2Data?2ZtData?2Voter?4ini?$AA@
  0017b	6a 00		 push	 0
  0017d	68 00 00 00 00	 push	 OFFSET ??_C@_0BG@BKPKEAJ@MMOTOP_BonusChaosBank?$AA@
  00182	68 00 00 00 00	 push	 OFFSET ??_C@_06CNKIADGI@ZtTeam?$AA@
  00187	89 86 ec 00 00
	00		 mov	 DWORD PTR [esi+236], eax
  0018d	ff d7		 call	 edi

; 77   : 	this->MMOTOP_BonusBlessBank = GetPrivateProfileInt("ZtTeam", "MMOTOP_BonusBlessBank", 0, VOTER_DIR);

  0018f	68 00 00 00 00	 push	 OFFSET ??_C@_0BJ@HBNPCLMO@?4?4?2Data?2ZtData?2Voter?4ini?$AA@
  00194	6a 00		 push	 0
  00196	68 00 00 00 00	 push	 OFFSET ??_C@_0BG@JHLFGGHL@MMOTOP_BonusBlessBank?$AA@
  0019b	68 00 00 00 00	 push	 OFFSET ??_C@_06CNKIADGI@ZtTeam?$AA@
  001a0	89 86 f0 00 00
	00		 mov	 DWORD PTR [esi+240], eax
  001a6	ff d7		 call	 edi

; 78   : 	this->MMOTOP_BonusSoulBank = GetPrivateProfileInt("ZtTeam", "MMOTOP_BonusSoulBank", 0, VOTER_DIR);

  001a8	68 00 00 00 00	 push	 OFFSET ??_C@_0BJ@HBNPCLMO@?4?4?2Data?2ZtData?2Voter?4ini?$AA@
  001ad	6a 00		 push	 0
  001af	68 00 00 00 00	 push	 OFFSET ??_C@_0BF@EFFIBEBE@MMOTOP_BonusSoulBank?$AA@
  001b4	68 00 00 00 00	 push	 OFFSET ??_C@_06CNKIADGI@ZtTeam?$AA@
  001b9	89 86 f4 00 00
	00		 mov	 DWORD PTR [esi+244], eax
  001bf	ff d7		 call	 edi

; 79   : 	this->MMOTOP_BonusLifeBank = GetPrivateProfileInt("ZtTeam", "MMOTOP_BonusLifeBank", 0, VOTER_DIR);

  001c1	68 00 00 00 00	 push	 OFFSET ??_C@_0BJ@HBNPCLMO@?4?4?2Data?2ZtData?2Voter?4ini?$AA@
  001c6	6a 00		 push	 0
  001c8	68 00 00 00 00	 push	 OFFSET ??_C@_0BF@IBHHEHKI@MMOTOP_BonusLifeBank?$AA@
  001cd	68 00 00 00 00	 push	 OFFSET ??_C@_06CNKIADGI@ZtTeam?$AA@
  001d2	89 86 f8 00 00
	00		 mov	 DWORD PTR [esi+248], eax
  001d8	ff d7		 call	 edi

; 80   : 
; 81   : 	this->MMOTOP_SMSBonusWcoinC = GetPrivateProfileInt("ZtTeam", "MMOTOP_SMSBonusWcoinC", 0, VOTER_DIR);

  001da	68 00 00 00 00	 push	 OFFSET ??_C@_0BJ@HBNPCLMO@?4?4?2Data?2ZtData?2Voter?4ini?$AA@
  001df	6a 00		 push	 0
  001e1	68 00 00 00 00	 push	 OFFSET ??_C@_0BG@LEGEMHED@MMOTOP_SMSBonusWcoinC?$AA@
  001e6	68 00 00 00 00	 push	 OFFSET ??_C@_06CNKIADGI@ZtTeam?$AA@
  001eb	89 86 fc 00 00
	00		 mov	 DWORD PTR [esi+252], eax
  001f1	ff d7		 call	 edi

; 82   : 	this->MMOTOP_SMSBonusWcoinP = GetPrivateProfileInt("ZtTeam", "MMOTOP_SMSBonusWcoinP", 0, VOTER_DIR);

  001f3	68 00 00 00 00	 push	 OFFSET ??_C@_0BJ@HBNPCLMO@?4?4?2Data?2ZtData?2Voter?4ini?$AA@
  001f8	6a 00		 push	 0
  001fa	68 00 00 00 00	 push	 OFFSET ??_C@_0BG@NFILIGNB@MMOTOP_SMSBonusWcoinP?$AA@
  001ff	68 00 00 00 00	 push	 OFFSET ??_C@_06CNKIADGI@ZtTeam?$AA@
  00204	89 86 00 01 00
	00		 mov	 DWORD PTR [esi+256], eax
  0020a	ff d7		 call	 edi

; 83   : 	this->MMOTOP_SMSBonusWcoinG = GetPrivateProfileInt("ZtTeam", "MMOTOP_SMSBonusWcoinG", 0, VOTER_DIR);

  0020c	68 00 00 00 00	 push	 OFFSET ??_C@_0BJ@HBNPCLMO@?4?4?2Data?2ZtData?2Voter?4ini?$AA@
  00211	6a 00		 push	 0
  00213	68 00 00 00 00	 push	 OFFSET ??_C@_0BG@NAAIACEH@MMOTOP_SMSBonusWcoinG?$AA@
  00218	68 00 00 00 00	 push	 OFFSET ??_C@_06CNKIADGI@ZtTeam?$AA@
  0021d	89 86 04 01 00
	00		 mov	 DWORD PTR [esi+260], eax
  00223	ff d7		 call	 edi

; 84   : 	this->MMOTOP_SMSBonusZtCred = GetPrivateProfileInt("ZtTeam", "MMOTOP_SMSBonusZtCred", 0, VOTER_DIR);

  00225	68 00 00 00 00	 push	 OFFSET ??_C@_0BJ@HBNPCLMO@?4?4?2Data?2ZtData?2Voter?4ini?$AA@
  0022a	6a 00		 push	 0
  0022c	68 00 00 00 00	 push	 OFFSET ??_C@_0BG@JONJNLLP@MMOTOP_SMSBonusZtCred?$AA@
  00231	68 00 00 00 00	 push	 OFFSET ??_C@_06CNKIADGI@ZtTeam?$AA@
  00236	89 86 08 01 00
	00		 mov	 DWORD PTR [esi+264], eax
  0023c	ff d7		 call	 edi

; 85   : 
; 86   : 	this->MMOTOP_SMSBonusItemActive = GetPrivateProfileInt("ZtTeam", "MMOTOP_SMSBonusItemActive", 0, VOTER_DIR);

  0023e	68 00 00 00 00	 push	 OFFSET ??_C@_0BJ@HBNPCLMO@?4?4?2Data?2ZtData?2Voter?4ini?$AA@
  00243	6a 00		 push	 0
  00245	68 00 00 00 00	 push	 OFFSET ??_C@_0BK@MEJJGGNN@MMOTOP_SMSBonusItemActive?$AA@
  0024a	68 00 00 00 00	 push	 OFFSET ??_C@_06CNKIADGI@ZtTeam?$AA@
  0024f	89 86 0c 01 00
	00		 mov	 DWORD PTR [esi+268], eax
  00255	ff d7		 call	 edi

; 87   : 	this->MMOTOP_SMSBonusItemType = GetPrivateProfileInt("ZtTeam", "MMOTOP_SMSBonusItemType", 0, VOTER_DIR);

  00257	68 00 00 00 00	 push	 OFFSET ??_C@_0BJ@HBNPCLMO@?4?4?2Data?2ZtData?2Voter?4ini?$AA@
  0025c	6a 00		 push	 0
  0025e	68 00 00 00 00	 push	 OFFSET ??_C@_0BI@MLLFAMGI@MMOTOP_SMSBonusItemType?$AA@
  00263	68 00 00 00 00	 push	 OFFSET ??_C@_06CNKIADGI@ZtTeam?$AA@
  00268	89 86 10 01 00
	00		 mov	 DWORD PTR [esi+272], eax
  0026e	ff d7		 call	 edi

; 88   : 	this->MMOTOP_SMSBonusItemIndex = GetPrivateProfileInt("ZtTeam", "MMOTOP_SMSBonusItemIndex", 0, VOTER_DIR);

  00270	68 00 00 00 00	 push	 OFFSET ??_C@_0BJ@HBNPCLMO@?4?4?2Data?2ZtData?2Voter?4ini?$AA@
  00275	89 86 14 01 00
	00		 mov	 DWORD PTR [esi+276], eax
  0027b	6a 00		 push	 0
  0027d	68 00 00 00 00	 push	 OFFSET ??_C@_0BJ@BGLHDFIH@MMOTOP_SMSBonusItemIndex?$AA@
  00282	68 00 00 00 00	 push	 OFFSET ??_C@_06CNKIADGI@ZtTeam?$AA@
  00287	ff d7		 call	 edi

; 89   : 	this->MMOTOP_SMSBonusItemLevel = GetPrivateProfileInt("ZtTeam", "MMOTOP_SMSBonusItemLevel", 0, VOTER_DIR);

  00289	68 00 00 00 00	 push	 OFFSET ??_C@_0BJ@HBNPCLMO@?4?4?2Data?2ZtData?2Voter?4ini?$AA@
  0028e	6a 00		 push	 0
  00290	68 00 00 00 00	 push	 OFFSET ??_C@_0BJ@OFBENNGE@MMOTOP_SMSBonusItemLevel?$AA@
  00295	68 00 00 00 00	 push	 OFFSET ??_C@_06CNKIADGI@ZtTeam?$AA@
  0029a	89 86 18 01 00
	00		 mov	 DWORD PTR [esi+280], eax
  002a0	ff d7		 call	 edi

; 90   : 
; 91   : 	this->MMOTOP_SMSBonusChaosBank = GetPrivateProfileInt("ZtTeam", "MMOTOP_SMSBonusChaosBank", 0, VOTER_DIR);

  002a2	68 00 00 00 00	 push	 OFFSET ??_C@_0BJ@HBNPCLMO@?4?4?2Data?2ZtData?2Voter?4ini?$AA@
  002a7	6a 00		 push	 0
  002a9	68 00 00 00 00	 push	 OFFSET ??_C@_0BJ@KDAALDHH@MMOTOP_SMSBonusChaosBank?$AA@
  002ae	68 00 00 00 00	 push	 OFFSET ??_C@_06CNKIADGI@ZtTeam?$AA@
  002b3	89 86 1c 01 00
	00		 mov	 DWORD PTR [esi+284], eax
  002b9	ff d7		 call	 edi

; 92   : 	this->MMOTOP_SMSBonusBlessBank = GetPrivateProfileInt("ZtTeam", "MMOTOP_SMSBonusBlessBank", 0, VOTER_DIR);

  002bb	68 00 00 00 00	 push	 OFFSET ??_C@_0BJ@HBNPCLMO@?4?4?2Data?2ZtData?2Voter?4ini?$AA@
  002c0	6a 00		 push	 0
  002c2	68 00 00 00 00	 push	 OFFSET ??_C@_0BJ@DFBKHBAF@MMOTOP_SMSBonusBlessBank?$AA@
  002c7	68 00 00 00 00	 push	 OFFSET ??_C@_06CNKIADGI@ZtTeam?$AA@
  002cc	89 86 20 01 00
	00		 mov	 DWORD PTR [esi+288], eax
  002d2	ff d7		 call	 edi

; 93   : 	this->MMOTOP_SMSBonusSoulBank = GetPrivateProfileInt("ZtTeam", "MMOTOP_SMSBonusSoulBank", 0, VOTER_DIR);

  002d4	68 00 00 00 00	 push	 OFFSET ??_C@_0BJ@HBNPCLMO@?4?4?2Data?2ZtData?2Voter?4ini?$AA@
  002d9	6a 00		 push	 0
  002db	68 00 00 00 00	 push	 OFFSET ??_C@_0BI@INDOBIDH@MMOTOP_SMSBonusSoulBank?$AA@
  002e0	68 00 00 00 00	 push	 OFFSET ??_C@_06CNKIADGI@ZtTeam?$AA@
  002e5	89 86 24 01 00
	00		 mov	 DWORD PTR [esi+292], eax
  002eb	ff d7		 call	 edi

; 94   : 	this->MMOTOP_SMSBonusLifeBank = GetPrivateProfileInt("ZtTeam", "MMOTOP_SMSBonusLifeBank", 0, VOTER_DIR);

  002ed	68 00 00 00 00	 push	 OFFSET ??_C@_0BJ@HBNPCLMO@?4?4?2Data?2ZtData?2Voter?4ini?$AA@
  002f2	6a 00		 push	 0
  002f4	68 00 00 00 00	 push	 OFFSET ??_C@_0BI@EJBBELIL@MMOTOP_SMSBonusLifeBank?$AA@
  002f9	68 00 00 00 00	 push	 OFFSET ??_C@_06CNKIADGI@ZtTeam?$AA@
  002fe	89 86 28 01 00
	00		 mov	 DWORD PTR [esi+296], eax
  00304	ff d7		 call	 edi

; 95   : 
; 96   : 	// ----
; 97   : 
; 98   : 	this->QTOP_DeleteVoteFile = GetPrivateProfileInt("ZtTeam", "QTOP_DeleteVoteFile", 1, VOTER_DIR);

  00306	68 00 00 00 00	 push	 OFFSET ??_C@_0BJ@HBNPCLMO@?4?4?2Data?2ZtData?2Voter?4ini?$AA@
  0030b	6a 01		 push	 1
  0030d	68 00 00 00 00	 push	 OFFSET ??_C@_0BE@CCDEDIEG@QTOP_DeleteVoteFile?$AA@
  00312	68 00 00 00 00	 push	 OFFSET ??_C@_06CNKIADGI@ZtTeam?$AA@
  00317	89 86 2c 01 00
	00		 mov	 DWORD PTR [esi+300], eax
  0031d	ff d7		 call	 edi

; 99   : 	this->QTOP_DownloadFile = GetPrivateProfileInt("ZtTeam", "QTOP_DownloadFile", 1, VOTER_DIR);

  0031f	68 00 00 00 00	 push	 OFFSET ??_C@_0BJ@HBNPCLMO@?4?4?2Data?2ZtData?2Voter?4ini?$AA@
  00324	6a 01		 push	 1
  00326	85 c0		 test	 eax, eax
  00328	68 00 00 00 00	 push	 OFFSET ??_C@_0BC@HPDCHCHP@QTOP_DownloadFile?$AA@
  0032d	0f 95 c2	 setne	 dl
  00330	68 00 00 00 00	 push	 OFFSET ??_C@_06CNKIADGI@ZtTeam?$AA@
  00335	88 96 31 01 00
	00		 mov	 BYTE PTR [esi+305], dl
  0033b	ff d7		 call	 edi

; 100  : 
; 101  : 	this->QTOP_UPDATE_VOTER = GetPrivateProfileInt("ZtTeam", "QTOP_UPDATE_VOTER", 2, VOTER_DIR);

  0033d	68 00 00 00 00	 push	 OFFSET ??_C@_0BJ@HBNPCLMO@?4?4?2Data?2ZtData?2Voter?4ini?$AA@
  00342	6a 02		 push	 2
  00344	85 c0		 test	 eax, eax
  00346	68 00 00 00 00	 push	 OFFSET ??_C@_0BC@JLLLCKLO@QTOP_UPDATE_VOTER?$AA@
  0034b	0f 95 c0	 setne	 al
  0034e	68 00 00 00 00	 push	 OFFSET ??_C@_06CNKIADGI@ZtTeam?$AA@
  00353	88 86 32 01 00
	00		 mov	 BYTE PTR [esi+306], al
  00359	ff d7		 call	 edi

; 102  : 
; 103  : 	GetPrivateProfileString("ZtTeam", "QTOP_VoteFile", "votes/aba02abed8021ba31a4499a390aa8afa4679c6d1.txt?454b02beba57cfd5896709ff1ea8f1aa", this->QTOP_FileName, sizeof(this->QTOP_FileName), VOTER_DIR);

  0035b	68 00 00 00 00	 push	 OFFSET ??_C@_0BJ@HBNPCLMO@?4?4?2Data?2ZtData?2Voter?4ini?$AA@
  00360	68 c8 00 00 00	 push	 200			; 000000c8H
  00365	8d 8e 38 01 00
	00		 lea	 ecx, DWORD PTR [esi+312]
  0036b	51		 push	 ecx
  0036c	68 00 00 00 00	 push	 OFFSET ??_C@_0FE@DBCBBMPJ@votes?1aba02abed8021ba31a4499a390@
  00371	68 00 00 00 00	 push	 OFFSET ??_C@_0O@KPGCIBKI@QTOP_VoteFile?$AA@
  00376	68 00 00 00 00	 push	 OFFSET ??_C@_06CNKIADGI@ZtTeam?$AA@
  0037b	89 86 34 01 00
	00		 mov	 DWORD PTR [esi+308], eax
  00381	ff d3		 call	 ebx

; 104  : 
; 105  : 	this->QTOP_BonusWcoinC = GetPrivateProfileInt("ZtTeam", "QTOP_BonusWcoinC", 0, VOTER_DIR);

  00383	68 00 00 00 00	 push	 OFFSET ??_C@_0BJ@HBNPCLMO@?4?4?2Data?2ZtData?2Voter?4ini?$AA@
  00388	6a 00		 push	 0
  0038a	68 00 00 00 00	 push	 OFFSET ??_C@_0BB@JELJELNN@QTOP_BonusWcoinC?$AA@
  0038f	68 00 00 00 00	 push	 OFFSET ??_C@_06CNKIADGI@ZtTeam?$AA@
  00394	ff d7		 call	 edi

; 106  : 	this->QTOP_BonusWcoinP = GetPrivateProfileInt("ZtTeam", "QTOP_BonusWcoinP", 0, VOTER_DIR);

  00396	68 00 00 00 00	 push	 OFFSET ??_C@_0BJ@HBNPCLMO@?4?4?2Data?2ZtData?2Voter?4ini?$AA@
  0039b	6a 00		 push	 0
  0039d	68 00 00 00 00	 push	 OFFSET ??_C@_0BB@PFFGAKEP@QTOP_BonusWcoinP?$AA@
  003a2	68 00 00 00 00	 push	 OFFSET ??_C@_06CNKIADGI@ZtTeam?$AA@
  003a7	89 86 00 02 00
	00		 mov	 DWORD PTR [esi+512], eax
  003ad	ff d7		 call	 edi

; 107  : 	this->QTOP_BonusWcoinG = GetPrivateProfileInt("ZtTeam", "QTOP_BonusWcoinG", 0, VOTER_DIR);

  003af	68 00 00 00 00	 push	 OFFSET ??_C@_0BJ@HBNPCLMO@?4?4?2Data?2ZtData?2Voter?4ini?$AA@
  003b4	6a 00		 push	 0
  003b6	68 00 00 00 00	 push	 OFFSET ??_C@_0BB@PANFIONJ@QTOP_BonusWcoinG?$AA@
  003bb	68 00 00 00 00	 push	 OFFSET ??_C@_06CNKIADGI@ZtTeam?$AA@
  003c0	89 86 04 02 00
	00		 mov	 DWORD PTR [esi+516], eax
  003c6	ff d7		 call	 edi

; 108  : 	this->QTOP_BonusZtCred = GetPrivateProfileInt("ZtTeam", "QTOP_BonusZtCred", 0, VOTER_DIR);

  003c8	68 00 00 00 00	 push	 OFFSET ??_C@_0BJ@HBNPCLMO@?4?4?2Data?2ZtData?2Voter?4ini?$AA@
  003cd	6a 00		 push	 0
  003cf	68 00 00 00 00	 push	 OFFSET ??_C@_0BB@LOAEFHCB@QTOP_BonusZtCred?$AA@
  003d4	68 00 00 00 00	 push	 OFFSET ??_C@_06CNKIADGI@ZtTeam?$AA@
  003d9	89 86 08 02 00
	00		 mov	 DWORD PTR [esi+520], eax
  003df	ff d7		 call	 edi

; 109  : 
; 110  : 	this->QTOP_BonusItemActive = GetPrivateProfileInt("ZtTeam", "QTOP_BonusItemActive", 0, VOTER_DIR);

  003e1	68 00 00 00 00	 push	 OFFSET ??_C@_0BJ@HBNPCLMO@?4?4?2Data?2ZtData?2Voter?4ini?$AA@
  003e6	6a 00		 push	 0
  003e8	68 00 00 00 00	 push	 OFFSET ??_C@_0BF@HONBIJDE@QTOP_BonusItemActive?$AA@
  003ed	68 00 00 00 00	 push	 OFFSET ??_C@_06CNKIADGI@ZtTeam?$AA@
  003f2	89 86 0c 02 00
	00		 mov	 DWORD PTR [esi+524], eax
  003f8	ff d7		 call	 edi

; 111  : 	this->QTOP_BonusItemType = GetPrivateProfileInt("ZtTeam", "QTOP_BonusItemType", 0, VOTER_DIR);

  003fa	68 00 00 00 00	 push	 OFFSET ??_C@_0BJ@HBNPCLMO@?4?4?2Data?2ZtData?2Voter?4ini?$AA@
  003ff	6a 00		 push	 0
  00401	68 00 00 00 00	 push	 OFFSET ??_C@_0BD@MAHJEECK@QTOP_BonusItemType?$AA@
  00406	68 00 00 00 00	 push	 OFFSET ??_C@_06CNKIADGI@ZtTeam?$AA@
  0040b	89 86 10 02 00
	00		 mov	 DWORD PTR [esi+528], eax
  00411	ff d7		 call	 edi

; 112  : 	this->QTOP_BonusItemIndex = GetPrivateProfileInt("ZtTeam", "QTOP_BonusItemIndex", 0, VOTER_DIR);

  00413	68 00 00 00 00	 push	 OFFSET ??_C@_0BJ@HBNPCLMO@?4?4?2Data?2ZtData?2Voter?4ini?$AA@
  00418	6a 00		 push	 0
  0041a	68 00 00 00 00	 push	 OFFSET ??_C@_0BE@IOGONJHD@QTOP_BonusItemIndex?$AA@
  0041f	68 00 00 00 00	 push	 OFFSET ??_C@_06CNKIADGI@ZtTeam?$AA@
  00424	89 86 14 02 00
	00		 mov	 DWORD PTR [esi+532], eax
  0042a	ff d7		 call	 edi

; 113  : 	this->QTOP_BonusItemLevel = GetPrivateProfileInt("ZtTeam", "QTOP_BonusItemLevel", 0, VOTER_DIR);

  0042c	68 00 00 00 00	 push	 OFFSET ??_C@_0BJ@HBNPCLMO@?4?4?2Data?2ZtData?2Voter?4ini?$AA@
  00431	6a 00		 push	 0
  00433	68 00 00 00 00	 push	 OFFSET ??_C@_0BE@HNMNDBJA@QTOP_BonusItemLevel?$AA@
  00438	68 00 00 00 00	 push	 OFFSET ??_C@_06CNKIADGI@ZtTeam?$AA@
  0043d	89 86 18 02 00
	00		 mov	 DWORD PTR [esi+536], eax
  00443	ff d7		 call	 edi

; 114  : 
; 115  : 	this->QTOP_BonusChaosBank = GetPrivateProfileInt("ZtTeam", "QTOP_BonusChaosBank", 0, VOTER_DIR);

  00445	68 00 00 00 00	 push	 OFFSET ??_C@_0BJ@HBNPCLMO@?4?4?2Data?2ZtData?2Voter?4ini?$AA@
  0044a	6a 00		 push	 0
  0044c	68 00 00 00 00	 push	 OFFSET ??_C@_0BE@DLNJFPID@QTOP_BonusChaosBank?$AA@
  00451	68 00 00 00 00	 push	 OFFSET ??_C@_06CNKIADGI@ZtTeam?$AA@
  00456	89 86 1c 02 00
	00		 mov	 DWORD PTR [esi+540], eax
  0045c	ff d7		 call	 edi

; 116  : 	this->QTOP_BonusBlessBank = GetPrivateProfileInt("ZtTeam", "QTOP_BonusBlessBank", 0, VOTER_DIR);

  0045e	68 00 00 00 00	 push	 OFFSET ??_C@_0BJ@HBNPCLMO@?4?4?2Data?2ZtData?2Voter?4ini?$AA@
  00463	6a 00		 push	 0
  00465	68 00 00 00 00	 push	 OFFSET ??_C@_0BE@KNMDJNPB@QTOP_BonusBlessBank?$AA@
  0046a	68 00 00 00 00	 push	 OFFSET ??_C@_06CNKIADGI@ZtTeam?$AA@
  0046f	89 86 20 02 00
	00		 mov	 DWORD PTR [esi+544], eax
  00475	ff d7		 call	 edi

; 117  : 	this->QTOP_BonusSoulBank = GetPrivateProfileInt("ZtTeam", "QTOP_BonusSoulBank", 0, VOTER_DIR);

  00477	68 00 00 00 00	 push	 OFFSET ??_C@_0BJ@HBNPCLMO@?4?4?2Data?2ZtData?2Voter?4ini?$AA@
  0047c	6a 00		 push	 0
  0047e	68 00 00 00 00	 push	 OFFSET ??_C@_0BD@IGPCFAHF@QTOP_BonusSoulBank?$AA@
  00483	68 00 00 00 00	 push	 OFFSET ??_C@_06CNKIADGI@ZtTeam?$AA@
  00488	89 86 24 02 00
	00		 mov	 DWORD PTR [esi+548], eax
  0048e	ff d7		 call	 edi

; 118  : 	this->QTOP_BonusLifeBank = GetPrivateProfileInt("ZtTeam", "QTOP_BonusLifeBank", 0, VOTER_DIR);

  00490	68 00 00 00 00	 push	 OFFSET ??_C@_0BJ@HBNPCLMO@?4?4?2Data?2ZtData?2Voter?4ini?$AA@
  00495	6a 00		 push	 0
  00497	68 00 00 00 00	 push	 OFFSET ??_C@_0BD@ECNNADMJ@QTOP_BonusLifeBank?$AA@
  0049c	68 00 00 00 00	 push	 OFFSET ??_C@_06CNKIADGI@ZtTeam?$AA@
  004a1	89 86 28 02 00
	00		 mov	 DWORD PTR [esi+552], eax
  004a7	ff d7		 call	 edi

; 119  : 
; 120  : 	this->QTOP_SMSBonusWcoinC = GetPrivateProfileInt("ZtTeam", "QTOP_SMSBonusWcoinC", 0, VOTER_DIR);

  004a9	68 00 00 00 00	 push	 OFFSET ??_C@_0BJ@HBNPCLMO@?4?4?2Data?2ZtData?2Voter?4ini?$AA@
  004ae	6a 00		 push	 0
  004b0	68 00 00 00 00	 push	 OFFSET ??_C@_0BE@IOBCDMMJ@QTOP_SMSBonusWcoinC?$AA@
  004b5	68 00 00 00 00	 push	 OFFSET ??_C@_06CNKIADGI@ZtTeam?$AA@
  004ba	89 86 2c 02 00
	00		 mov	 DWORD PTR [esi+556], eax
  004c0	ff d7		 call	 edi

; 121  : 	this->QTOP_SMSBonusWcoinP = GetPrivateProfileInt("ZtTeam", "QTOP_SMSBonusWcoinP", 0, VOTER_DIR);

  004c2	68 00 00 00 00	 push	 OFFSET ??_C@_0BJ@HBNPCLMO@?4?4?2Data?2ZtData?2Voter?4ini?$AA@
  004c7	6a 00		 push	 0
  004c9	68 00 00 00 00	 push	 OFFSET ??_C@_0BE@OPPNHNFL@QTOP_SMSBonusWcoinP?$AA@
  004ce	68 00 00 00 00	 push	 OFFSET ??_C@_06CNKIADGI@ZtTeam?$AA@
  004d3	89 86 30 02 00
	00		 mov	 DWORD PTR [esi+560], eax
  004d9	ff d7		 call	 edi

; 122  : 	this->QTOP_SMSBonusWcoinG = GetPrivateProfileInt("ZtTeam", "QTOP_SMSBonusWcoinG", 0, VOTER_DIR);

  004db	68 00 00 00 00	 push	 OFFSET ??_C@_0BJ@HBNPCLMO@?4?4?2Data?2ZtData?2Voter?4ini?$AA@
  004e0	6a 00		 push	 0
  004e2	68 00 00 00 00	 push	 OFFSET ??_C@_0BE@OKHOPJMN@QTOP_SMSBonusWcoinG?$AA@
  004e7	68 00 00 00 00	 push	 OFFSET ??_C@_06CNKIADGI@ZtTeam?$AA@
  004ec	89 86 34 02 00
	00		 mov	 DWORD PTR [esi+564], eax
  004f2	ff d7		 call	 edi

; 123  : 	this->QTOP_SMSBonusZtCred = GetPrivateProfileInt("ZtTeam", "QTOP_SMSBonusZtCred", 0, VOTER_DIR);

  004f4	68 00 00 00 00	 push	 OFFSET ??_C@_0BJ@HBNPCLMO@?4?4?2Data?2ZtData?2Voter?4ini?$AA@
  004f9	6a 00		 push	 0
  004fb	68 00 00 00 00	 push	 OFFSET ??_C@_0BE@KEKPCADF@QTOP_SMSBonusZtCred?$AA@
  00500	68 00 00 00 00	 push	 OFFSET ??_C@_06CNKIADGI@ZtTeam?$AA@
  00505	89 86 38 02 00
	00		 mov	 DWORD PTR [esi+568], eax
  0050b	ff d7		 call	 edi

; 124  : 
; 125  : 	this->QTOP_SMSBonusItemActive = GetPrivateProfileInt("ZtTeam", "QTOP_SMSBonusItemActive", 0, VOTER_DIR);

  0050d	68 00 00 00 00	 push	 OFFSET ??_C@_0BJ@HBNPCLMO@?4?4?2Data?2ZtData?2Voter?4ini?$AA@
  00512	89 86 3c 02 00
	00		 mov	 DWORD PTR [esi+572], eax
  00518	6a 00		 push	 0
  0051a	68 00 00 00 00	 push	 OFFSET ??_C@_0BI@EAIFKLHB@QTOP_SMSBonusItemActive?$AA@
  0051f	68 00 00 00 00	 push	 OFFSET ??_C@_06CNKIADGI@ZtTeam?$AA@
  00524	ff d7		 call	 edi

; 126  : 	this->QTOP_SMSBonusItemType = GetPrivateProfileInt("ZtTeam", "QTOP_SMSBonusItemType", 0, VOTER_DIR);

  00526	68 00 00 00 00	 push	 OFFSET ??_C@_0BJ@HBNPCLMO@?4?4?2Data?2ZtData?2Voter?4ini?$AA@
  0052b	6a 00		 push	 0
  0052d	68 00 00 00 00	 push	 OFFSET ??_C@_0BG@CALGGNEL@QTOP_SMSBonusItemType?$AA@
  00532	68 00 00 00 00	 push	 OFFSET ??_C@_06CNKIADGI@ZtTeam?$AA@
  00537	89 86 40 02 00
	00		 mov	 DWORD PTR [esi+576], eax
  0053d	ff d7		 call	 edi

; 127  : 	this->QTOP_SMSBonusItemIndex = GetPrivateProfileInt("ZtTeam", "QTOP_SMSBonusItemIndex", 0, VOTER_DIR);

  0053f	68 00 00 00 00	 push	 OFFSET ??_C@_0BJ@HBNPCLMO@?4?4?2Data?2ZtData?2Voter?4ini?$AA@
  00544	6a 00		 push	 0
  00546	68 00 00 00 00	 push	 OFFSET ??_C@_0BH@LEDLEHJE@QTOP_SMSBonusItemIndex?$AA@
  0054b	68 00 00 00 00	 push	 OFFSET ??_C@_06CNKIADGI@ZtTeam?$AA@
  00550	89 86 44 02 00
	00		 mov	 DWORD PTR [esi+580], eax
  00556	ff d7		 call	 edi

; 128  : 	this->QTOP_SMSBonusItemLevel = GetPrivateProfileInt("ZtTeam", "QTOP_SMSBonusItemLevel", 0, VOTER_DIR);

  00558	68 00 00 00 00	 push	 OFFSET ??_C@_0BJ@HBNPCLMO@?4?4?2Data?2ZtData?2Voter?4ini?$AA@
  0055d	6a 00		 push	 0
  0055f	68 00 00 00 00	 push	 OFFSET ??_C@_0BH@EHJIKPHH@QTOP_SMSBonusItemLevel?$AA@
  00564	68 00 00 00 00	 push	 OFFSET ??_C@_06CNKIADGI@ZtTeam?$AA@
  00569	89 86 48 02 00
	00		 mov	 DWORD PTR [esi+584], eax
  0056f	ff d7		 call	 edi

; 129  : 
; 130  : 	this->QTOP_SMSBonusChaosBank = GetPrivateProfileInt("ZtTeam", "QTOP_SMSBonusChaosBank", 0, VOTER_DIR);

  00571	68 00 00 00 00	 push	 OFFSET ??_C@_0BJ@HBNPCLMO@?4?4?2Data?2ZtData?2Voter?4ini?$AA@
  00576	6a 00		 push	 0
  00578	68 00 00 00 00	 push	 OFFSET ??_C@_0BH@BIMMBGE@QTOP_SMSBonusChaosBank?$AA@
  0057d	68 00 00 00 00	 push	 OFFSET ??_C@_06CNKIADGI@ZtTeam?$AA@
  00582	89 86 4c 02 00
	00		 mov	 DWORD PTR [esi+588], eax
  00588	ff d7		 call	 edi

; 131  : 	this->QTOP_SMSBonusBlessBank = GetPrivateProfileInt("ZtTeam", "QTOP_SMSBonusBlessBank", 0, VOTER_DIR);

  0058a	68 00 00 00 00	 push	 OFFSET ??_C@_0BJ@HBNPCLMO@?4?4?2Data?2ZtData?2Voter?4ini?$AA@
  0058f	6a 00		 push	 0
  00591	68 00 00 00 00	 push	 OFFSET ??_C@_0BH@JHJGADBG@QTOP_SMSBonusBlessBank?$AA@
  00596	68 00 00 00 00	 push	 OFFSET ??_C@_06CNKIADGI@ZtTeam?$AA@
  0059b	89 86 50 02 00
	00		 mov	 DWORD PTR [esi+592], eax
  005a1	ff d7		 call	 edi

; 132  : 	this->QTOP_SMSBonusSoulBank = GetPrivateProfileInt("ZtTeam", "QTOP_SMSBonusSoulBank", 0, VOTER_DIR);

  005a3	68 00 00 00 00	 push	 OFFSET ??_C@_0BJ@HBNPCLMO@?4?4?2Data?2ZtData?2Voter?4ini?$AA@
  005a8	6a 00		 push	 0
  005aa	68 00 00 00 00	 push	 OFFSET ??_C@_0BG@GGDNHJBE@QTOP_SMSBonusSoulBank?$AA@
  005af	68 00 00 00 00	 push	 OFFSET ??_C@_06CNKIADGI@ZtTeam?$AA@
  005b4	89 86 54 02 00
	00		 mov	 DWORD PTR [esi+596], eax
  005ba	ff d7		 call	 edi

; 133  : 	this->QTOP_SMSBonusLifeBank = GetPrivateProfileInt("ZtTeam", "QTOP_SMSBonusLifeBank", 0, VOTER_DIR);

  005bc	68 00 00 00 00	 push	 OFFSET ??_C@_0BJ@HBNPCLMO@?4?4?2Data?2ZtData?2Voter?4ini?$AA@
  005c1	6a 00		 push	 0
  005c3	68 00 00 00 00	 push	 OFFSET ??_C@_0BG@KCBCCKKI@QTOP_SMSBonusLifeBank?$AA@
  005c8	68 00 00 00 00	 push	 OFFSET ??_C@_06CNKIADGI@ZtTeam?$AA@
  005cd	89 86 58 02 00
	00		 mov	 DWORD PTR [esi+600], eax
  005d3	ff d7		 call	 edi

; 134  : 
; 135  : 	// ----
; 136  : 
; 137  : 	this->MMOTOP_BuffTime = GetPrivateProfileInt("ZtTeam", "MMOTOP_BuffTime", 0, VOTER_DIR);

  005d5	68 00 00 00 00	 push	 OFFSET ??_C@_0BJ@HBNPCLMO@?4?4?2Data?2ZtData?2Voter?4ini?$AA@
  005da	6a 00		 push	 0
  005dc	68 00 00 00 00	 push	 OFFSET ??_C@_0BA@FPOKAIAG@MMOTOP_BuffTime?$AA@
  005e1	68 00 00 00 00	 push	 OFFSET ??_C@_06CNKIADGI@ZtTeam?$AA@
  005e6	89 86 5c 02 00
	00		 mov	 DWORD PTR [esi+604], eax
  005ec	ff d7		 call	 edi

; 138  : 	this->MMOTOP_SMSBuffTime = GetPrivateProfileInt("ZtTeam", "MMOTOP_SMSBuffTime", 0, VOTER_DIR);

  005ee	68 00 00 00 00	 push	 OFFSET ??_C@_0BJ@HBNPCLMO@?4?4?2Data?2ZtData?2Voter?4ini?$AA@
  005f3	6a 00		 push	 0
  005f5	68 00 00 00 00	 push	 OFFSET ??_C@_0BD@PDOBGAFG@MMOTOP_SMSBuffTime?$AA@
  005fa	68 00 00 00 00	 push	 OFFSET ??_C@_06CNKIADGI@ZtTeam?$AA@
  005ff	89 86 60 02 00
	00		 mov	 DWORD PTR [esi+608], eax
  00605	ff d7		 call	 edi

; 139  : 	this->QTOP_BuffTime = GetPrivateProfileInt("ZtTeam", "QTOP_BuffTime", 0, VOTER_DIR);

  00607	68 00 00 00 00	 push	 OFFSET ??_C@_0BJ@HBNPCLMO@?4?4?2Data?2ZtData?2Voter?4ini?$AA@
  0060c	6a 00		 push	 0
  0060e	68 00 00 00 00	 push	 OFFSET ??_C@_0O@NOACOOKK@QTOP_BuffTime?$AA@
  00613	68 00 00 00 00	 push	 OFFSET ??_C@_06CNKIADGI@ZtTeam?$AA@
  00618	89 86 64 02 00
	00		 mov	 DWORD PTR [esi+612], eax
  0061e	ff d7		 call	 edi

; 140  : 	this->QTOP_SMSBuffTime = GetPrivateProfileInt("ZtTeam", "QTOP_SMSBuffTime", 0, VOTER_DIR);

  00620	68 00 00 00 00	 push	 OFFSET ??_C@_0BJ@HBNPCLMO@?4?4?2Data?2ZtData?2Voter?4ini?$AA@
  00625	6a 00		 push	 0
  00627	68 00 00 00 00	 push	 OFFSET ??_C@_0BB@IFHGPKPD@QTOP_SMSBuffTime?$AA@
  0062c	68 00 00 00 00	 push	 OFFSET ??_C@_06CNKIADGI@ZtTeam?$AA@
  00631	89 86 68 02 00
	00		 mov	 DWORD PTR [esi+616], eax
  00637	ff d7		 call	 edi

; 141  : 
; 142  : 
; 143  : 
; 144  : 
; 145  : 	#if(ENABLE_GAMESERVER_DLL)
; 146  : 
; 147  : 	this->ANONS_Enable = GetPrivateProfileInt("ZtTeam","ANONS_Enable",0,VOTER_DIR);

  00639	68 00 00 00 00	 push	 OFFSET ??_C@_0BJ@HBNPCLMO@?4?4?2Data?2ZtData?2Voter?4ini?$AA@
  0063e	6a 00		 push	 0
  00640	68 00 00 00 00	 push	 OFFSET ??_C@_0N@DCPCLHJ@ANONS_Enable?$AA@
  00645	68 00 00 00 00	 push	 OFFSET ??_C@_06CNKIADGI@ZtTeam?$AA@
  0064a	89 86 6c 02 00
	00		 mov	 DWORD PTR [esi+620], eax
  00650	ff d7		 call	 edi

; 148  : 	// ----
; 149  : 
; 150  : 	this->ANONS_DeleteVoteFile = GetPrivateProfileInt("ZtTeam", "ANONS_DeleteVoteFile", 1, VOTER_DIR);

  00652	68 00 00 00 00	 push	 OFFSET ??_C@_0BJ@HBNPCLMO@?4?4?2Data?2ZtData?2Voter?4ini?$AA@
  00657	85 c0		 test	 eax, eax
  00659	0f 95 c2	 setne	 dl
  0065c	6a 01		 push	 1
  0065e	88 96 70 02 00
	00		 mov	 BYTE PTR [esi+624], dl
  00664	68 00 00 00 00	 push	 OFFSET ??_C@_0BF@JOPKDOGI@ANONS_DeleteVoteFile?$AA@
  00669	68 00 00 00 00	 push	 OFFSET ??_C@_06CNKIADGI@ZtTeam?$AA@
  0066e	ff d7		 call	 edi

; 151  : 	this->ANONS_DownloadFile = GetPrivateProfileInt("ZtTeam", "ANONS_DownloadFile", 1, VOTER_DIR);

  00670	68 00 00 00 00	 push	 OFFSET ??_C@_0BJ@HBNPCLMO@?4?4?2Data?2ZtData?2Voter?4ini?$AA@
  00675	6a 01		 push	 1
  00677	85 c0		 test	 eax, eax
  00679	68 00 00 00 00	 push	 OFFSET ??_C@_0BD@JNNJJGNC@ANONS_DownloadFile?$AA@
  0067e	0f 95 c0	 setne	 al
  00681	68 00 00 00 00	 push	 OFFSET ??_C@_06CNKIADGI@ZtTeam?$AA@
  00686	88 86 71 02 00
	00		 mov	 BYTE PTR [esi+625], al
  0068c	ff d7		 call	 edi

; 152  : 
; 153  : 	this->ANONS_UPDATE_VOTER = GetPrivateProfileInt("ZtTeam", "ANONS_UPDATE_VOTER", 2, VOTER_DIR);

  0068e	68 00 00 00 00	 push	 OFFSET ??_C@_0BJ@HBNPCLMO@?4?4?2Data?2ZtData?2Voter?4ini?$AA@
  00693	6a 02		 push	 2
  00695	85 c0		 test	 eax, eax
  00697	68 00 00 00 00	 push	 OFFSET ??_C@_0BD@HJFAMOBD@ANONS_UPDATE_VOTER?$AA@
  0069c	0f 95 c1	 setne	 cl
  0069f	68 00 00 00 00	 push	 OFFSET ??_C@_06CNKIADGI@ZtTeam?$AA@
  006a4	88 8e 72 02 00
	00		 mov	 BYTE PTR [esi+626], cl
  006aa	ff d7		 call	 edi

; 154  : 
; 155  : 	GetPrivateProfileString("ZtTeam", "ANONS_VoteFile", "votes/aba02abed8021ba31a4499a390aa8afa4679c6d1.txt?454b02beba57cfd5896709ff1ea8f1aa", this->ANONS_FileName, sizeof(this->ANONS_FileName), VOTER_DIR);

  006ac	68 00 00 00 00	 push	 OFFSET ??_C@_0BJ@HBNPCLMO@?4?4?2Data?2ZtData?2Voter?4ini?$AA@
  006b1	68 c8 00 00 00	 push	 200			; 000000c8H
  006b6	8d 96 78 02 00
	00		 lea	 edx, DWORD PTR [esi+632]
  006bc	52		 push	 edx
  006bd	68 00 00 00 00	 push	 OFFSET ??_C@_0FE@DBCBBMPJ@votes?1aba02abed8021ba31a4499a390@
  006c2	68 00 00 00 00	 push	 OFFSET ??_C@_0P@LLKFOAJA@ANONS_VoteFile?$AA@
  006c7	68 00 00 00 00	 push	 OFFSET ??_C@_06CNKIADGI@ZtTeam?$AA@
  006cc	89 86 74 02 00
	00		 mov	 DWORD PTR [esi+628], eax
  006d2	ff d3		 call	 ebx

; 156  : 
; 157  : 	this->ANONS_BonusWcoinC = GetPrivateProfileInt("ZtTeam", "ANONS_BonusWcoinC", 0, VOTER_DIR);

  006d4	68 00 00 00 00	 push	 OFFSET ??_C@_0BJ@HBNPCLMO@?4?4?2Data?2ZtData?2Voter?4ini?$AA@
  006d9	6a 00		 push	 0
  006db	68 00 00 00 00	 push	 OFFSET ??_C@_0BC@MHCHPCBE@ANONS_BonusWcoinC?$AA@
  006e0	68 00 00 00 00	 push	 OFFSET ??_C@_06CNKIADGI@ZtTeam?$AA@
  006e5	ff d7		 call	 edi

; 158  : 	this->ANONS_BonusWcoinP = GetPrivateProfileInt("ZtTeam", "ANONS_BonusWcoinP", 0, VOTER_DIR);

  006e7	68 00 00 00 00	 push	 OFFSET ??_C@_0BJ@HBNPCLMO@?4?4?2Data?2ZtData?2Voter?4ini?$AA@
  006ec	6a 00		 push	 0
  006ee	68 00 00 00 00	 push	 OFFSET ??_C@_0BC@KGMILDIG@ANONS_BonusWcoinP?$AA@
  006f3	68 00 00 00 00	 push	 OFFSET ??_C@_06CNKIADGI@ZtTeam?$AA@
  006f8	89 86 40 03 00
	00		 mov	 DWORD PTR [esi+832], eax
  006fe	ff d7		 call	 edi

; 159  : 	this->ANONS_BonusWcoinG = GetPrivateProfileInt("ZtTeam", "ANONS_BonusWcoinG", 0, VOTER_DIR);

  00700	68 00 00 00 00	 push	 OFFSET ??_C@_0BJ@HBNPCLMO@?4?4?2Data?2ZtData?2Voter?4ini?$AA@
  00705	6a 00		 push	 0
  00707	68 00 00 00 00	 push	 OFFSET ??_C@_0BC@KDELDHBA@ANONS_BonusWcoinG?$AA@
  0070c	68 00 00 00 00	 push	 OFFSET ??_C@_06CNKIADGI@ZtTeam?$AA@
  00711	89 86 44 03 00
	00		 mov	 DWORD PTR [esi+836], eax
  00717	ff d7		 call	 edi

; 160  : 	this->ANONS_BonusZtCred = GetPrivateProfileInt("ZtTeam", "ANONS_BonusZtCred", 0, VOTER_DIR);

  00719	68 00 00 00 00	 push	 OFFSET ??_C@_0BJ@HBNPCLMO@?4?4?2Data?2ZtData?2Voter?4ini?$AA@
  0071e	6a 00		 push	 0
  00720	68 00 00 00 00	 push	 OFFSET ??_C@_0BC@ONJKOOOI@ANONS_BonusZtCred?$AA@
  00725	68 00 00 00 00	 push	 OFFSET ??_C@_06CNKIADGI@ZtTeam?$AA@
  0072a	89 86 48 03 00
	00		 mov	 DWORD PTR [esi+840], eax
  00730	ff d7		 call	 edi

; 161  : 
; 162  : 	this->ANONS_BonusItemActive = GetPrivateProfileInt("ZtTeam", "ANONS_BonusItemActive", 0, VOTER_DIR);

  00732	68 00 00 00 00	 push	 OFFSET ??_C@_0BJ@HBNPCLMO@?4?4?2Data?2ZtData?2Voter?4ini?$AA@
  00737	6a 00		 push	 0
  00739	68 00 00 00 00	 push	 OFFSET ??_C@_0BG@KCLLEKPN@ANONS_BonusItemActive?$AA@
  0073e	68 00 00 00 00	 push	 OFFSET ??_C@_06CNKIADGI@ZtTeam?$AA@
  00743	89 86 4c 03 00
	00		 mov	 DWORD PTR [esi+844], eax
  00749	ff d7		 call	 edi

; 163  : 	this->ANONS_BonusItemType = GetPrivateProfileInt("ZtTeam", "ANONS_BonusItemType", 0, VOTER_DIR);

  0074b	68 00 00 00 00	 push	 OFFSET ??_C@_0BJ@HBNPCLMO@?4?4?2Data?2ZtData?2Voter?4ini?$AA@
  00750	6a 00		 push	 0
  00752	68 00 00 00 00	 push	 OFFSET ??_C@_0BE@GIPMHAJL@ANONS_BonusItemType?$AA@
  00757	68 00 00 00 00	 push	 OFFSET ??_C@_06CNKIADGI@ZtTeam?$AA@
  0075c	89 86 50 03 00
	00		 mov	 DWORD PTR [esi+848], eax
  00762	ff d7		 call	 edi

; 164  : 	this->ANONS_BonusItemIndex = GetPrivateProfileInt("ZtTeam", "ANONS_BonusItemIndex", 0, VOTER_DIR);

  00764	68 00 00 00 00	 push	 OFFSET ??_C@_0BJ@HBNPCLMO@?4?4?2Data?2ZtData?2Voter?4ini?$AA@
  00769	6a 00		 push	 0
  0076b	68 00 00 00 00	 push	 OFFSET ??_C@_0BF@DCKANPFN@ANONS_BonusItemIndex?$AA@
  00770	68 00 00 00 00	 push	 OFFSET ??_C@_06CNKIADGI@ZtTeam?$AA@
  00775	89 86 54 03 00
	00		 mov	 DWORD PTR [esi+852], eax
  0077b	ff d7		 call	 edi

; 165  : 	this->ANONS_BonusItemLevel = GetPrivateProfileInt("ZtTeam", "ANONS_BonusItemLevel", 0, VOTER_DIR);

  0077d	68 00 00 00 00	 push	 OFFSET ??_C@_0BJ@HBNPCLMO@?4?4?2Data?2ZtData?2Voter?4ini?$AA@
  00782	6a 00		 push	 0
  00784	68 00 00 00 00	 push	 OFFSET ??_C@_0BF@MBADDHLO@ANONS_BonusItemLevel?$AA@
  00789	68 00 00 00 00	 push	 OFFSET ??_C@_06CNKIADGI@ZtTeam?$AA@
  0078e	89 86 58 03 00
	00		 mov	 DWORD PTR [esi+856], eax
  00794	ff d7		 call	 edi

; 166  : 
; 167  : 	this->ANONS_BonusChaosBank = GetPrivateProfileInt("ZtTeam", "ANONS_BonusChaosBank", 0, VOTER_DIR);

  00796	68 00 00 00 00	 push	 OFFSET ??_C@_0BJ@HBNPCLMO@?4?4?2Data?2ZtData?2Voter?4ini?$AA@
  0079b	6a 00		 push	 0
  0079d	68 00 00 00 00	 push	 OFFSET ??_C@_0BF@IHBHFJKN@ANONS_BonusChaosBank?$AA@
  007a2	68 00 00 00 00	 push	 OFFSET ??_C@_06CNKIADGI@ZtTeam?$AA@
  007a7	89 86 5c 03 00
	00		 mov	 DWORD PTR [esi+860], eax
  007ad	ff d7		 call	 edi
  007af	89 86 60 03 00
	00		 mov	 DWORD PTR [esi+864], eax

; 168  : 	this->ANONS_BonusBlessBank = GetPrivateProfileInt("ZtTeam", "ANONS_BonusBlessBank", 0, VOTER_DIR);

  007b5	68 00 00 00 00	 push	 OFFSET ??_C@_0BJ@HBNPCLMO@?4?4?2Data?2ZtData?2Voter?4ini?$AA@
  007ba	6a 00		 push	 0
  007bc	68 00 00 00 00	 push	 OFFSET ??_C@_0BF@BBANJLNP@ANONS_BonusBlessBank?$AA@
  007c1	68 00 00 00 00	 push	 OFFSET ??_C@_06CNKIADGI@ZtTeam?$AA@
  007c6	ff d7		 call	 edi

; 169  : 	this->ANONS_BonusSoulBank = GetPrivateProfileInt("ZtTeam", "ANONS_BonusSoulBank", 0, VOTER_DIR);

  007c8	68 00 00 00 00	 push	 OFFSET ??_C@_0BJ@HBNPCLMO@?4?4?2Data?2ZtData?2Voter?4ini?$AA@
  007cd	6a 00		 push	 0
  007cf	68 00 00 00 00	 push	 OFFSET ??_C@_0BE@COHHGEME@ANONS_BonusSoulBank?$AA@
  007d4	68 00 00 00 00	 push	 OFFSET ??_C@_06CNKIADGI@ZtTeam?$AA@
  007d9	89 86 64 03 00
	00		 mov	 DWORD PTR [esi+868], eax
  007df	ff d7		 call	 edi

; 170  : 	this->ANONS_BonusLifeBank = GetPrivateProfileInt("ZtTeam", "ANONS_BonusLifeBank", 0, VOTER_DIR);

  007e1	68 00 00 00 00	 push	 OFFSET ??_C@_0BJ@HBNPCLMO@?4?4?2Data?2ZtData?2Voter?4ini?$AA@
  007e6	6a 00		 push	 0
  007e8	68 00 00 00 00	 push	 OFFSET ??_C@_0BE@OKFIDHHI@ANONS_BonusLifeBank?$AA@
  007ed	68 00 00 00 00	 push	 OFFSET ??_C@_06CNKIADGI@ZtTeam?$AA@
  007f2	89 86 68 03 00
	00		 mov	 DWORD PTR [esi+872], eax
  007f8	ff d7		 call	 edi

; 171  : 
; 172  : 	this->ANONS_SMSBonusWcoinC = GetPrivateProfileInt("ZtTeam", "ANONS_SMSBonusWcoinC", 0, VOTER_DIR);

  007fa	68 00 00 00 00	 push	 OFFSET ??_C@_0BJ@HBNPCLMO@?4?4?2Data?2ZtData?2Voter?4ini?$AA@
  007ff	6a 00		 push	 0
  00801	68 00 00 00 00	 push	 OFFSET ??_C@_0BF@DCNMDKOH@ANONS_SMSBonusWcoinC?$AA@
  00806	68 00 00 00 00	 push	 OFFSET ??_C@_06CNKIADGI@ZtTeam?$AA@
  0080b	89 86 6c 03 00
	00		 mov	 DWORD PTR [esi+876], eax
  00811	ff d7		 call	 edi

; 173  : 	this->ANONS_SMSBonusWcoinP = GetPrivateProfileInt("ZtTeam", "ANONS_SMSBonusWcoinP", 0, VOTER_DIR);

  00813	68 00 00 00 00	 push	 OFFSET ??_C@_0BJ@HBNPCLMO@?4?4?2Data?2ZtData?2Voter?4ini?$AA@
  00818	6a 00		 push	 0
  0081a	68 00 00 00 00	 push	 OFFSET ??_C@_0BF@FDDDHLHF@ANONS_SMSBonusWcoinP?$AA@
  0081f	68 00 00 00 00	 push	 OFFSET ??_C@_06CNKIADGI@ZtTeam?$AA@
  00824	89 86 70 03 00
	00		 mov	 DWORD PTR [esi+880], eax
  0082a	ff d7		 call	 edi

; 174  : 	this->ANONS_SMSBonusWcoinG = GetPrivateProfileInt("ZtTeam", "ANONS_SMSBonusWcoinG", 0, VOTER_DIR);

  0082c	68 00 00 00 00	 push	 OFFSET ??_C@_0BJ@HBNPCLMO@?4?4?2Data?2ZtData?2Voter?4ini?$AA@
  00831	6a 00		 push	 0
  00833	68 00 00 00 00	 push	 OFFSET ??_C@_0BF@FGLAPPOD@ANONS_SMSBonusWcoinG?$AA@
  00838	68 00 00 00 00	 push	 OFFSET ??_C@_06CNKIADGI@ZtTeam?$AA@
  0083d	89 86 74 03 00
	00		 mov	 DWORD PTR [esi+884], eax
  00843	ff d7		 call	 edi

; 175  : 	this->ANONS_SMSBonusZtCred = GetPrivateProfileInt("ZtTeam", "ANONS_SMSBonusZtCred", 0, VOTER_DIR);

  00845	68 00 00 00 00	 push	 OFFSET ??_C@_0BJ@HBNPCLMO@?4?4?2Data?2ZtData?2Voter?4ini?$AA@
  0084a	6a 00		 push	 0
  0084c	68 00 00 00 00	 push	 OFFSET ??_C@_0BF@BIGBCGBL@ANONS_SMSBonusZtCred?$AA@
  00851	68 00 00 00 00	 push	 OFFSET ??_C@_06CNKIADGI@ZtTeam?$AA@
  00856	89 86 78 03 00
	00		 mov	 DWORD PTR [esi+888], eax
  0085c	ff d7		 call	 edi

; 176  : 
; 177  : 	this->ANONS_SMSBonusItemActive = GetPrivateProfileInt("ZtTeam", "ANONS_SMSBonusItemActive", 0, VOTER_DIR);

  0085e	68 00 00 00 00	 push	 OFFSET ??_C@_0BJ@HBNPCLMO@?4?4?2Data?2ZtData?2Voter?4ini?$AA@
  00863	6a 00		 push	 0
  00865	68 00 00 00 00	 push	 OFFSET ??_C@_0BJ@JDELAKKJ@ANONS_SMSBonusItemActive?$AA@
  0086a	68 00 00 00 00	 push	 OFFSET ??_C@_06CNKIADGI@ZtTeam?$AA@
  0086f	89 86 7c 03 00
	00		 mov	 DWORD PTR [esi+892], eax
  00875	ff d7		 call	 edi

; 178  : 	this->ANONS_SMSBonusItemType = GetPrivateProfileInt("ZtTeam", "ANONS_SMSBonusItemType", 0, VOTER_DIR);

  00877	68 00 00 00 00	 push	 OFFSET ??_C@_0BJ@HBNPCLMO@?4?4?2Data?2ZtData?2Voter?4ini?$AA@
  0087c	6a 00		 push	 0
  0087e	68 00 00 00 00	 push	 OFFSET ??_C@_0BH@MCNCHNJM@ANONS_SMSBonusItemType?$AA@
  00883	68 00 00 00 00	 push	 OFFSET ??_C@_06CNKIADGI@ZtTeam?$AA@
  00888	89 86 80 03 00
	00		 mov	 DWORD PTR [esi+896], eax
  0088e	ff d7		 call	 edi

; 179  : 	this->ANONS_SMSBonusItemIndex = GetPrivateProfileInt("ZtTeam", "ANONS_SMSBonusItemIndex", 0, VOTER_DIR);

  00890	68 00 00 00 00	 push	 OFFSET ??_C@_0BJ@HBNPCLMO@?4?4?2Data?2ZtData?2Voter?4ini?$AA@
  00895	6a 00		 push	 0
  00897	68 00 00 00 00	 push	 OFFSET ??_C@_0BI@KMGOGEPD@ANONS_SMSBonusItemIndex?$AA@
  0089c	68 00 00 00 00	 push	 OFFSET ??_C@_06CNKIADGI@ZtTeam?$AA@
  008a1	89 86 84 03 00
	00		 mov	 DWORD PTR [esi+900], eax
  008a7	ff d7		 call	 edi

; 180  : 	this->ANONS_SMSBonusItemLevel = GetPrivateProfileInt("ZtTeam", "ANONS_SMSBonusItemLevel", 0, VOTER_DIR);

  008a9	68 00 00 00 00	 push	 OFFSET ??_C@_0BJ@HBNPCLMO@?4?4?2Data?2ZtData?2Voter?4ini?$AA@
  008ae	6a 00		 push	 0
  008b0	68 00 00 00 00	 push	 OFFSET ??_C@_0BI@FPMNIMBA@ANONS_SMSBonusItemLevel?$AA@
  008b5	68 00 00 00 00	 push	 OFFSET ??_C@_06CNKIADGI@ZtTeam?$AA@
  008ba	89 86 88 03 00
	00		 mov	 DWORD PTR [esi+904], eax
  008c0	ff d7		 call	 edi

; 181  : 
; 182  : 	this->ANONS_SMSBonusChaosBank = GetPrivateProfileInt("ZtTeam", "ANONS_SMSBonusChaosBank", 0, VOTER_DIR);

  008c2	68 00 00 00 00	 push	 OFFSET ??_C@_0BJ@HBNPCLMO@?4?4?2Data?2ZtData?2Voter?4ini?$AA@
  008c7	6a 00		 push	 0
  008c9	68 00 00 00 00	 push	 OFFSET ??_C@_0BI@BJNJOCAD@ANONS_SMSBonusChaosBank?$AA@
  008ce	68 00 00 00 00	 push	 OFFSET ??_C@_06CNKIADGI@ZtTeam?$AA@
  008d3	89 86 8c 03 00
	00		 mov	 DWORD PTR [esi+908], eax
  008d9	ff d7		 call	 edi

; 183  : 	this->ANONS_SMSBonusBlessBank = GetPrivateProfileInt("ZtTeam", "ANONS_SMSBonusBlessBank", 0, VOTER_DIR);

  008db	68 00 00 00 00	 push	 OFFSET ??_C@_0BJ@HBNPCLMO@?4?4?2Data?2ZtData?2Voter?4ini?$AA@
  008e0	6a 00		 push	 0
  008e2	68 00 00 00 00	 push	 OFFSET ??_C@_0BI@IPMDCAHB@ANONS_SMSBonusBlessBank?$AA@
  008e7	68 00 00 00 00	 push	 OFFSET ??_C@_06CNKIADGI@ZtTeam?$AA@
  008ec	89 86 90 03 00
	00		 mov	 DWORD PTR [esi+912], eax
  008f2	ff d7		 call	 edi

; 184  : 	this->ANONS_SMSBonusSoulBank = GetPrivateProfileInt("ZtTeam", "ANONS_SMSBonusSoulBank", 0, VOTER_DIR);

  008f4	68 00 00 00 00	 push	 OFFSET ??_C@_0BJ@HBNPCLMO@?4?4?2Data?2ZtData?2Voter?4ini?$AA@
  008f9	6a 00		 push	 0
  008fb	89 86 94 03 00
	00		 mov	 DWORD PTR [esi+916], eax
  00901	68 00 00 00 00	 push	 OFFSET ??_C@_0BH@IEFJGJMD@ANONS_SMSBonusSoulBank?$AA@
  00906	68 00 00 00 00	 push	 OFFSET ??_C@_06CNKIADGI@ZtTeam?$AA@
  0090b	ff d7		 call	 edi

; 185  : 	this->ANONS_SMSBonusLifeBank = GetPrivateProfileInt("ZtTeam", "ANONS_SMSBonusLifeBank", 0, VOTER_DIR);

  0090d	68 00 00 00 00	 push	 OFFSET ??_C@_0BJ@HBNPCLMO@?4?4?2Data?2ZtData?2Voter?4ini?$AA@
  00912	6a 00		 push	 0
  00914	68 00 00 00 00	 push	 OFFSET ??_C@_0BH@EAHGDKHP@ANONS_SMSBonusLifeBank?$AA@
  00919	68 00 00 00 00	 push	 OFFSET ??_C@_06CNKIADGI@ZtTeam?$AA@
  0091e	89 86 98 03 00
	00		 mov	 DWORD PTR [esi+920], eax
  00924	ff d7		 call	 edi
  00926	5f		 pop	 edi
  00927	89 86 9c 03 00
	00		 mov	 DWORD PTR [esi+924], eax
  0092d	5e		 pop	 esi
  0092e	5b		 pop	 ebx

; 186  : 
; 187  : 	// ----
; 188  : 
; 189  : 	#endif
; 190  : }

  0092f	c3		 ret	 0
?Init@Voter@@QAEXXZ ENDP				; Voter::Init
_TEXT	ENDS
PUBLIC	?Run@Voter@@QAEXXZ				; Voter::Run
EXTRN	?gObjRemoveBuffEffect@@YAEPAUOBJECTSTRUCT@@H@Z:PROC ; gObjRemoveBuffEffect
; Function compile flags: /Ogtp
;	COMDAT ?Run@Voter@@QAEXXZ
_TEXT	SEGMENT
?Run@Voter@@QAEXXZ PROC					; Voter::Run, COMDAT
; _this$ = ecx

; 1504 : {

  00000	56		 push	 esi
  00001	57		 push	 edi

; 1505 : 	for (int n = OBJ_STARTUSERINDZT; n < OBJMAX; n++)

  00002	bf 00 a7 40 09	 mov	 edi, 155232000		; 0940a700H
  00007	eb 07 8d a4 24
	00 00 00 00	 npad	 9
$LL8@Run:

; 1506 : 	{
; 1507 : 		LPOBJ sObj = &gObj[n];

  00010	a1 00 00 00 00	 mov	 eax, DWORD PTR ?gObj@@3PAUOBJECTSTRUCT@@A ; gObj

; 1508 : 
; 1509 : 		if (gObj[n].Connected >= PLAYER_PLAYING)

  00015	83 7c 07 04 03	 cmp	 DWORD PTR [edi+eax+4], 3
  0001a	8d 34 07	 lea	 esi, DWORD PTR [edi+eax]
  0001d	7c 53		 jl	 SHORT $LN7@Run

; 1510 : 		{
; 1511 : 			if(sObj->MT_BuffTime > 0)

  0001f	8b 86 dc 2a 00
	00		 mov	 eax, DWORD PTR [esi+10972]
  00025	85 c0		 test	 eax, eax
  00027	7e 20		 jle	 SHORT $LN13@Run

; 1512 : 			{
; 1513 : 				sObj->MT_BuffTime--;

  00029	48		 dec	 eax
  0002a	89 86 dc 2a 00
	00		 mov	 DWORD PTR [esi+10972], eax

; 1514 : 
; 1515 : 				if(sObj->MT_BuffTime == 0)

  00030	75 17		 jne	 SHORT $LN13@Run

; 1516 : 				{
; 1517 : 					gObjRemoveBuffEffect(&gObj[n], AT_MMOTOP_BUFF);

  00032	8b 0d 00 00 00
	00		 mov	 ecx, DWORD PTR ?gObj@@3PAUOBJECTSTRUCT@@A ; gObj
  00038	8d 14 0f	 lea	 edx, DWORD PTR [edi+ecx]
  0003b	68 c2 00 00 00	 push	 194			; 000000c2H
  00040	52		 push	 edx
  00041	e8 00 00 00 00	 call	 ?gObjRemoveBuffEffect@@YAEPAUOBJECTSTRUCT@@H@Z ; gObjRemoveBuffEffect
  00046	83 c4 08	 add	 esp, 8
$LN13@Run:

; 1518 : 				}
; 1519 : 			}
; 1520 : 
; 1521 : 			if(sObj->QT_BuffTime > 0)

  00049	8b 86 e0 2a 00
	00		 mov	 eax, DWORD PTR [esi+10976]
  0004f	85 c0		 test	 eax, eax
  00051	7e 1f		 jle	 SHORT $LN7@Run

; 1522 : 			{
; 1523 : 				sObj->QT_BuffTime--;

  00053	48		 dec	 eax
  00054	89 86 e0 2a 00
	00		 mov	 DWORD PTR [esi+10976], eax

; 1524 : 
; 1525 : 				if(sObj->QT_BuffTime == 0)

  0005a	75 16		 jne	 SHORT $LN7@Run

; 1526 : 				{
; 1527 : 					gObjRemoveBuffEffect(&gObj[n], AT_QTOP_BUFF);

  0005c	a1 00 00 00 00	 mov	 eax, DWORD PTR ?gObj@@3PAUOBJECTSTRUCT@@A ; gObj
  00061	8d 0c 07	 lea	 ecx, DWORD PTR [edi+eax]
  00064	68 c3 00 00 00	 push	 195			; 000000c3H
  00069	51		 push	 ecx
  0006a	e8 00 00 00 00	 call	 ?gObjRemoveBuffEffect@@YAEPAUOBJECTSTRUCT@@H@Z ; gObjRemoveBuffEffect
  0006f	83 c4 08	 add	 esp, 8
$LN7@Run:

; 1505 : 	for (int n = OBJ_STARTUSERINDZT; n < OBJMAX; n++)

  00072	81 c7 50 2b 00
	00		 add	 edi, 11088		; 00002b50H
  00078	81 ff 80 d7 e9
	09		 cmp	 edi, 166320000		; 09e9d780H
  0007e	7c 90		 jl	 SHORT $LL8@Run

; 1528 : 				}
; 1529 : 			}
; 1530 : 		}
; 1531 : 	}
; 1532 : }

  00080	5f		 pop	 edi
  00081	5e		 pop	 esi
  00082	c3		 ret	 0
?Run@Voter@@QAEXXZ ENDP					; Voter::Run
_TEXT	ENDS
PUBLIC	?PlayerCalculator@Voter@@QAEXH@Z		; Voter::PlayerCalculator
; Function compile flags: /Ogtp
;	COMDAT ?PlayerCalculator@Voter@@QAEXH@Z
_TEXT	SEGMENT
_aIndex$ = 8						; size = 4
?PlayerCalculator@Voter@@QAEXH@Z PROC			; Voter::PlayerCalculator, COMDAT
; _this$ = ecx

; 1535 : {

  00000	55		 push	 ebp
  00001	8b ec		 mov	 ebp, esp

; 1536 : 	LPOBJ lpUser = &gObj[aIndex];

  00003	8b 4d 08	 mov	 ecx, DWORD PTR _aIndex$[ebp]
  00006	69 c9 50 2b 00
	00		 imul	 ecx, 11088		; 00002b50H
  0000c	03 0d 00 00 00
	00		 add	 ecx, DWORD PTR ?gObj@@3PAUOBJECTSTRUCT@@A ; gObj
  00012	56		 push	 esi

; 1537 : 
; 1538 : 	if(lpUser->MT_BuffTime > 0)

  00013	83 b9 dc 2a 00
	00 00		 cmp	 DWORD PTR [ecx+10972], 0
  0001a	0f 8e d8 00 00
	00		 jle	 $LN2@PlayerCalc

; 1539 : 	{
; 1540 : 		int iPlusDamagePercent = 10;
; 1541 : 		lpUser->m_AttackDamageMinRight	+= ( lpUser->m_AttackDamageMinRight * iPlusDamagePercent ) / 100;

  00020	8b b1 84 04 00
	00		 mov	 esi, DWORD PTR [ecx+1156]
  00026	8d 14 b6	 lea	 edx, DWORD PTR [esi+esi*4]
  00029	03 d2		 add	 edx, edx
  0002b	b8 1f 85 eb 51	 mov	 eax, 1374389535		; 51eb851fH
  00030	f7 ea		 imul	 edx
  00032	c1 fa 05	 sar	 edx, 5
  00035	8b c2		 mov	 eax, edx
  00037	c1 e8 1f	 shr	 eax, 31			; 0000001fH
  0003a	03 c2		 add	 eax, edx
  0003c	03 c6		 add	 eax, esi

; 1542 : 		lpUser->m_AttackDamageMaxRight	+= ( lpUser->m_AttackDamageMaxRight * iPlusDamagePercent ) / 100;

  0003e	8b b1 80 04 00
	00		 mov	 esi, DWORD PTR [ecx+1152]
  00044	89 81 84 04 00
	00		 mov	 DWORD PTR [ecx+1156], eax
  0004a	8d 14 b6	 lea	 edx, DWORD PTR [esi+esi*4]
  0004d	03 d2		 add	 edx, edx
  0004f	b8 1f 85 eb 51	 mov	 eax, 1374389535		; 51eb851fH
  00054	f7 ea		 imul	 edx
  00056	c1 fa 05	 sar	 edx, 5
  00059	8b c2		 mov	 eax, edx
  0005b	c1 e8 1f	 shr	 eax, 31			; 0000001fH
  0005e	03 c2		 add	 eax, edx
  00060	03 c6		 add	 eax, esi

; 1543 : 		lpUser->m_AttackDamageMinLeft	+= ( lpUser->m_AttackDamageMinLeft * iPlusDamagePercent ) / 100;

  00062	8b b1 7c 04 00
	00		 mov	 esi, DWORD PTR [ecx+1148]
  00068	89 81 80 04 00
	00		 mov	 DWORD PTR [ecx+1152], eax
  0006e	8d 14 b6	 lea	 edx, DWORD PTR [esi+esi*4]
  00071	03 d2		 add	 edx, edx
  00073	b8 1f 85 eb 51	 mov	 eax, 1374389535		; 51eb851fH
  00078	f7 ea		 imul	 edx
  0007a	c1 fa 05	 sar	 edx, 5
  0007d	8b c2		 mov	 eax, edx
  0007f	c1 e8 1f	 shr	 eax, 31			; 0000001fH
  00082	03 c2		 add	 eax, edx
  00084	03 c6		 add	 eax, esi

; 1544 : 		lpUser->m_AttackDamageMaxLeft	+= ( lpUser->m_AttackDamageMaxLeft * iPlusDamagePercent ) / 100;

  00086	8b b1 78 04 00
	00		 mov	 esi, DWORD PTR [ecx+1144]
  0008c	89 81 7c 04 00
	00		 mov	 DWORD PTR [ecx+1148], eax
  00092	8d 14 b6	 lea	 edx, DWORD PTR [esi+esi*4]
  00095	03 d2		 add	 edx, edx
  00097	b8 1f 85 eb 51	 mov	 eax, 1374389535		; 51eb851fH
  0009c	f7 ea		 imul	 edx
  0009e	c1 fa 05	 sar	 edx, 5
  000a1	8b c2		 mov	 eax, edx
  000a3	c1 e8 1f	 shr	 eax, 31			; 0000001fH
  000a6	03 c2		 add	 eax, edx
  000a8	03 c6		 add	 eax, esi

; 1545 : 		lpUser->m_MagicDamageMin		+= ( lpUser->m_MagicDamageMin * iPlusDamagePercent ) / 100;

  000aa	8b b1 68 04 00
	00		 mov	 esi, DWORD PTR [ecx+1128]
  000b0	89 81 78 04 00
	00		 mov	 DWORD PTR [ecx+1144], eax
  000b6	8d 14 b6	 lea	 edx, DWORD PTR [esi+esi*4]
  000b9	03 d2		 add	 edx, edx
  000bb	b8 1f 85 eb 51	 mov	 eax, 1374389535		; 51eb851fH
  000c0	f7 ea		 imul	 edx
  000c2	c1 fa 05	 sar	 edx, 5
  000c5	8b c2		 mov	 eax, edx
  000c7	c1 e8 1f	 shr	 eax, 31			; 0000001fH
  000ca	03 c2		 add	 eax, edx
  000cc	03 c6		 add	 eax, esi

; 1546 : 		lpUser->m_MagicDamageMax		+= ( lpUser->m_MagicDamageMax * iPlusDamagePercent ) / 100;

  000ce	8b b1 6c 04 00
	00		 mov	 esi, DWORD PTR [ecx+1132]
  000d4	89 81 68 04 00
	00		 mov	 DWORD PTR [ecx+1128], eax
  000da	8d 14 b6	 lea	 edx, DWORD PTR [esi+esi*4]
  000dd	03 d2		 add	 edx, edx
  000df	b8 1f 85 eb 51	 mov	 eax, 1374389535		; 51eb851fH
  000e4	f7 ea		 imul	 edx
  000e6	c1 fa 05	 sar	 edx, 5
  000e9	8b c2		 mov	 eax, edx
  000eb	c1 e8 1f	 shr	 eax, 31			; 0000001fH
  000ee	03 c2		 add	 eax, edx
  000f0	03 c6		 add	 eax, esi
  000f2	89 81 6c 04 00
	00		 mov	 DWORD PTR [ecx+1132], eax
$LN2@PlayerCalc:

; 1547 : 	}
; 1548 : 
; 1549 : 	if(lpUser->QT_BuffTime > 0)

  000f8	83 b9 e0 2a 00
	00 00		 cmp	 DWORD PTR [ecx+10976], 0
  000ff	7e 48		 jle	 SHORT $LN1@PlayerCalc

; 1550 : 	{
; 1551 : 		int iPlusDefencePercent = 10;
; 1552 : 		lpUser->m_Defense				+= ( lpUser->m_Defense * iPlusDefencePercent ) / 100;

  00101	8b b1 94 04 00
	00		 mov	 esi, DWORD PTR [ecx+1172]
  00107	8d 14 b6	 lea	 edx, DWORD PTR [esi+esi*4]
  0010a	03 d2		 add	 edx, edx
  0010c	b8 1f 85 eb 51	 mov	 eax, 1374389535		; 51eb851fH
  00111	f7 ea		 imul	 edx
  00113	c1 fa 05	 sar	 edx, 5
  00116	8b c2		 mov	 eax, edx
  00118	c1 e8 1f	 shr	 eax, 31			; 0000001fH
  0011b	03 c2		 add	 eax, edx
  0011d	03 c6		 add	 eax, esi

; 1553 : 		lpUser->m_MagicDefense			+= ( lpUser->m_MagicDefense * iPlusDefencePercent ) / 100;

  0011f	8b b1 98 04 00
	00		 mov	 esi, DWORD PTR [ecx+1176]
  00125	89 81 94 04 00
	00		 mov	 DWORD PTR [ecx+1172], eax
  0012b	8d 14 b6	 lea	 edx, DWORD PTR [esi+esi*4]
  0012e	03 d2		 add	 edx, edx
  00130	b8 1f 85 eb 51	 mov	 eax, 1374389535		; 51eb851fH
  00135	f7 ea		 imul	 edx
  00137	c1 fa 05	 sar	 edx, 5
  0013a	8b c2		 mov	 eax, edx
  0013c	c1 e8 1f	 shr	 eax, 31			; 0000001fH
  0013f	03 c2		 add	 eax, edx
  00141	03 c6		 add	 eax, esi
  00143	89 81 98 04 00
	00		 mov	 DWORD PTR [ecx+1176], eax
$LN1@PlayerCalc:
  00149	5e		 pop	 esi

; 1554 : 	}
; 1555 : }

  0014a	5d		 pop	 ebp
  0014b	c2 04 00	 ret	 4
?PlayerCalculator@Voter@@QAEXH@Z ENDP			; Voter::PlayerCalculator
_TEXT	ENDS
PUBLIC	?eback@?$basic_streambuf@DU?$char_traits@D@std@@@std@@IBEPADXZ ; std::basic_streambuf<char,std::char_traits<char> >::eback
; Function compile flags: /Ogtp
; File d:\program files (x86)\microsoft visual studio 10.0\vc\include\streambuf
;	COMDAT ?eback@?$basic_streambuf@DU?$char_traits@D@std@@@std@@IBEPADXZ
_TEXT	SEGMENT
?eback@?$basic_streambuf@DU?$char_traits@D@std@@@std@@IBEPADXZ PROC ; std::basic_streambuf<char,std::char_traits<char> >::eback, COMDAT
; _this$ = ecx

; 218  : 		return (*_IGfirst);

  00000	8b 41 10	 mov	 eax, DWORD PTR [ecx+16]
  00003	8b 00		 mov	 eax, DWORD PTR [eax]

; 219  : 		}

  00005	c3		 ret	 0
?eback@?$basic_streambuf@DU?$char_traits@D@std@@@std@@IBEPADXZ ENDP ; std::basic_streambuf<char,std::char_traits<char> >::eback
_TEXT	ENDS
PUBLIC	?is_open@?$basic_filebuf@DU?$char_traits@D@std@@@std@@QBE_NXZ ; std::basic_filebuf<char,std::char_traits<char> >::is_open
; Function compile flags: /Ogtp
; File d:\program files (x86)\microsoft visual studio 10.0\vc\include\fstream
;	COMDAT ?is_open@?$basic_filebuf@DU?$char_traits@D@std@@@std@@QBE_NXZ
_TEXT	SEGMENT
?is_open@?$basic_filebuf@DU?$char_traits@D@std@@@std@@QBE_NXZ PROC ; std::basic_filebuf<char,std::char_traits<char> >::is_open, COMDAT
; _this$ = ecx

; 212  : 		return (_Myfile != 0);

  00000	33 c0		 xor	 eax, eax
  00002	39 41 54	 cmp	 DWORD PTR [ecx+84], eax
  00005	0f 95 c0	 setne	 al

; 213  : 		}

  00008	c3		 ret	 0
?is_open@?$basic_filebuf@DU?$char_traits@D@std@@@std@@QBE_NXZ ENDP ; std::basic_filebuf<char,std::char_traits<char> >::is_open
_TEXT	ENDS
PUBLIC	?setg@?$basic_streambuf@DU?$char_traits@D@std@@@std@@IAEXPAD00@Z ; std::basic_streambuf<char,std::char_traits<char> >::setg
; Function compile flags: /Ogtp
; File d:\program files (x86)\microsoft visual studio 10.0\vc\include\streambuf
;	COMDAT ?setg@?$basic_streambuf@DU?$char_traits@D@std@@@std@@IAEXPAD00@Z
_TEXT	SEGMENT
__First$ = 8						; size = 4
__Next$ = 12						; size = 4
__Last$ = 16						; size = 4
?setg@?$basic_streambuf@DU?$char_traits@D@std@@@std@@IAEXPAD00@Z PROC ; std::basic_streambuf<char,std::char_traits<char> >::setg, COMDAT
; _this$ = ecx

; 248  : 		{	// set pointers for read buffer

  00000	55		 push	 ebp
  00001	8b ec		 mov	 ebp, esp

; 249  : 		*_IGfirst = _First;

  00003	8b 41 10	 mov	 eax, DWORD PTR [ecx+16]
  00006	8b 55 08	 mov	 edx, DWORD PTR __First$[ebp]
  00009	89 10		 mov	 DWORD PTR [eax], edx

; 250  : 		*_IGnext = _Next;

  0000b	8b 51 20	 mov	 edx, DWORD PTR [ecx+32]
  0000e	8b 45 0c	 mov	 eax, DWORD PTR __Next$[ebp]
  00011	89 02		 mov	 DWORD PTR [edx], eax

; 251  : 		*_IGcount = (int)(_Last - _Next);

  00013	8b 55 10	 mov	 edx, DWORD PTR __Last$[ebp]
  00016	2b d0		 sub	 edx, eax
  00018	8b 41 30	 mov	 eax, DWORD PTR [ecx+48]
  0001b	89 10		 mov	 DWORD PTR [eax], edx

; 252  : 		}

  0001d	5d		 pop	 ebp
  0001e	c2 0c 00	 ret	 12			; 0000000cH
?setg@?$basic_streambuf@DU?$char_traits@D@std@@@std@@IAEXPAD00@Z ENDP ; std::basic_streambuf<char,std::char_traits<char> >::setg
_TEXT	ENDS
PUBLIC	?_Init@?$basic_streambuf@DU?$char_traits@D@std@@@std@@IAEXPAPAD0PAH001@Z ; std::basic_streambuf<char,std::char_traits<char> >::_Init
; Function compile flags: /Ogtp
;	COMDAT ?_Init@?$basic_streambuf@DU?$char_traits@D@std@@@std@@IAEXPAPAD0PAH001@Z
_TEXT	SEGMENT
__Gf$ = 8						; size = 4
__Gn$ = 12						; size = 4
__Gc$ = 16						; size = 4
__Pf$ = 20						; size = 4
__Pn$ = 24						; size = 4
__Pc$ = 28						; size = 4
?_Init@?$basic_streambuf@DU?$char_traits@D@std@@@std@@IAEXPAPAD0PAH001@Z PROC ; std::basic_streambuf<char,std::char_traits<char> >::_Init, COMDAT
; _this$ = ecx

; 327  : 		{	// initialize buffer parameters as specified

  00000	55		 push	 ebp
  00001	8b ec		 mov	 ebp, esp

; 328  : 		_IGfirst = _Gf;

  00003	8b 45 08	 mov	 eax, DWORD PTR __Gf$[ebp]

; 329  : 		_IPfirst = _Pf;

  00006	8b 55 14	 mov	 edx, DWORD PTR __Pf$[ebp]
  00009	89 41 10	 mov	 DWORD PTR [ecx+16], eax

; 330  : 		_IGnext = _Gn;

  0000c	8b 45 0c	 mov	 eax, DWORD PTR __Gn$[ebp]
  0000f	89 51 14	 mov	 DWORD PTR [ecx+20], edx

; 331  : 		_IPnext = _Pn;

  00012	8b 55 18	 mov	 edx, DWORD PTR __Pn$[ebp]
  00015	89 41 20	 mov	 DWORD PTR [ecx+32], eax

; 332  : 		_IGcount = _Gc;

  00018	8b 45 10	 mov	 eax, DWORD PTR __Gc$[ebp]
  0001b	89 51 24	 mov	 DWORD PTR [ecx+36], edx

; 333  : 		_IPcount = _Pc;

  0001e	8b 55 1c	 mov	 edx, DWORD PTR __Pc$[ebp]
  00021	89 41 30	 mov	 DWORD PTR [ecx+48], eax
  00024	89 51 34	 mov	 DWORD PTR [ecx+52], edx

; 334  : 		}

  00027	5d		 pop	 ebp
  00028	c2 18 00	 ret	 24			; 00000018H
?_Init@?$basic_streambuf@DU?$char_traits@D@std@@@std@@IAEXPAPAD0PAH001@Z ENDP ; std::basic_streambuf<char,std::char_traits<char> >::_Init
_TEXT	ENDS
PUBLIC	??D?$_String_const_iterator@DU?$char_traits@D@std@@V?$allocator@D@2@@std@@QBEABDXZ ; std::_String_const_iterator<char,std::char_traits<char>,std::allocator<char> >::operator*
; Function compile flags: /Ogtp
; File d:\program files (x86)\microsoft visual studio 10.0\vc\include\xstring
;	COMDAT ??D?$_String_const_iterator@DU?$char_traits@D@std@@V?$allocator@D@2@@std@@QBEABDXZ
_TEXT	SEGMENT
??D?$_String_const_iterator@DU?$char_traits@D@std@@V?$allocator@D@2@@std@@QBEABDXZ PROC ; std::_String_const_iterator<char,std::char_traits<char>,std::allocator<char> >::operator*, COMDAT
; _this$ = ecx

; 71   :  #if _ITERATOR_DEBUG_LEVEL == 2
; 72   : 		if (this->_Getcont() == 0
; 73   : 			|| this->_Ptr == 0
; 74   : 			|| this->_Ptr < ((_Mystr *)this->_Getcont())->_Myptr()
; 75   : 			|| ((_Mystr *)this->_Getcont())->_Myptr()
; 76   : 				+ ((_Mystr *)this->_Getcont())->_Mysize <= this->_Ptr)
; 77   : 			{	// report error
; 78   : 			_DEBUG_ERROR("string iterator not dereferencable");
; 79   : 			_SCL_SECURE_OUT_OF_RANGE;
; 80   : 			}
; 81   : 
; 82   :  #elif _ITERATOR_DEBUG_LEVEL == 1
; 83   : 		_SCL_SECURE_VALIDATE(this->_Getcont() != 0 && this->_Ptr != 0);
; 84   : 		_SCL_SECURE_VALIDATE_RANGE(
; 85   : 			((_Mystr *)this->_Getcont())->_Myptr() <= this->_Ptr
; 86   : 			&& this->_Ptr < ((_Mystr *)this->_Getcont())->_Myptr()
; 87   : 				+ ((_Mystr *)this->_Getcont())->_Mysize);
; 88   :  #endif /* _ITERATOR_DEBUG_LEVEL */
; 89   : 
; 90   : 		__analysis_assume(this->_Ptr != 0);
; 91   : 
; 92   : 		return (*this->_Ptr);

  00000	8b 01		 mov	 eax, DWORD PTR [ecx]

; 93   : 		}

  00002	c3		 ret	 0
??D?$_String_const_iterator@DU?$char_traits@D@std@@V?$allocator@D@2@@std@@QBEABDXZ ENDP ; std::_String_const_iterator<char,std::char_traits<char>,std::allocator<char> >::operator*
_TEXT	ENDS
PUBLIC	?unshift@?$codecvt@DDH@std@@QBEHAAHPAD1AAPAD@Z	; std::codecvt<char,char,int>::unshift
; Function compile flags: /Ogtp
; File d:\program files (x86)\microsoft visual studio 10.0\vc\include\xlocale
;	COMDAT ?unshift@?$codecvt@DDH@std@@QBEHAAHPAD1AAPAD@Z
_TEXT	SEGMENT
__State$ = 8						; size = 4
__First2$ = 12						; size = 4
__Last2$ = 16						; size = 4
__Mid2$ = 20						; size = 4
?unshift@?$codecvt@DDH@std@@QBEHAAHPAD1AAPAD@Z PROC	; std::codecvt<char,char,int>::unshift, COMDAT
; _this$ = ecx

; 823  : 		{	// generate bytes to return to default shift state

  00000	55		 push	 ebp
  00001	8b ec		 mov	 ebp, esp

; 824  : 		return (do_unshift(_State, _First2, _Last2, _Mid2));

  00003	8b 01		 mov	 eax, DWORD PTR [ecx]
  00005	8b 40 18	 mov	 eax, DWORD PTR [eax+24]

; 825  : 		}

  00008	5d		 pop	 ebp

; 824  : 		return (do_unshift(_State, _First2, _Last2, _Mid2));

  00009	ff e0		 jmp	 eax
?unshift@?$codecvt@DDH@std@@QBEHAAHPAD1AAPAD@Z ENDP	; std::codecvt<char,char,int>::unshift
_TEXT	ENDS
PUBLIC	?setp@?$basic_streambuf@DU?$char_traits@D@std@@@std@@IAEXPAD0@Z ; std::basic_streambuf<char,std::char_traits<char> >::setp
; Function compile flags: /Ogtp
; File d:\program files (x86)\microsoft visual studio 10.0\vc\include\streambuf
;	COMDAT ?setp@?$basic_streambuf@DU?$char_traits@D@std@@@std@@IAEXPAD0@Z
_TEXT	SEGMENT
__First$ = 8						; size = 4
__Last$ = 12						; size = 4
?setp@?$basic_streambuf@DU?$char_traits@D@std@@@std@@IAEXPAD0@Z PROC ; std::basic_streambuf<char,std::char_traits<char> >::setp, COMDAT
; _this$ = ecx

; 289  : 		{	// set pointers for write buffer

  00000	55		 push	 ebp
  00001	8b ec		 mov	 ebp, esp

; 290  : 		*_IPfirst = _First;

  00003	8b 51 14	 mov	 edx, DWORD PTR [ecx+20]
  00006	8b 45 08	 mov	 eax, DWORD PTR __First$[ebp]
  00009	89 02		 mov	 DWORD PTR [edx], eax

; 291  : 		*_IPnext = _First;

  0000b	8b 51 24	 mov	 edx, DWORD PTR [ecx+36]
  0000e	89 02		 mov	 DWORD PTR [edx], eax

; 292  : 		*_IPcount = (int)(_Last - _First);

  00010	8b 55 0c	 mov	 edx, DWORD PTR __Last$[ebp]
  00013	2b d0		 sub	 edx, eax
  00015	8b 41 34	 mov	 eax, DWORD PTR [ecx+52]
  00018	89 10		 mov	 DWORD PTR [eax], edx

; 293  : 		}

  0001a	5d		 pop	 ebp
  0001b	c2 08 00	 ret	 8
?setp@?$basic_streambuf@DU?$char_traits@D@std@@@std@@IAEXPAD0@Z ENDP ; std::basic_streambuf<char,std::char_traits<char> >::setp
_TEXT	ENDS
PUBLIC	?fill@?$basic_ios@DU?$char_traits@D@std@@@std@@QBEDXZ ; std::basic_ios<char,std::char_traits<char> >::fill
; Function compile flags: /Ogtp
; File d:\program files (x86)\microsoft visual studio 10.0\vc\include\ios
;	COMDAT ?fill@?$basic_ios@DU?$char_traits@D@std@@@std@@QBEDXZ
_TEXT	SEGMENT
?fill@?$basic_ios@DU?$char_traits@D@std@@@std@@QBEDXZ PROC ; std::basic_ios<char,std::char_traits<char> >::fill, COMDAT
; _this$ = ecx

; 107  : 		return (_Fillch);

  00000	8a 41 40	 mov	 al, BYTE PTR [ecx+64]

; 108  : 		}

  00003	c3		 ret	 0
?fill@?$basic_ios@DU?$char_traits@D@std@@@std@@QBEDXZ ENDP ; std::basic_ios<char,std::char_traits<char> >::fill
_TEXT	ENDS
PUBLIC	?sputn@?$basic_streambuf@DU?$char_traits@D@std@@@std@@QAE_JPBD_J@Z ; std::basic_streambuf<char,std::char_traits<char> >::sputn
; Function compile flags: /Ogtp
; File d:\program files (x86)\microsoft visual studio 10.0\vc\include\streambuf
;	COMDAT ?sputn@?$basic_streambuf@DU?$char_traits@D@std@@@std@@QAE_JPBD_J@Z
_TEXT	SEGMENT
__Ptr$ = 8						; size = 4
__Count$ = 12						; size = 8
?sputn@?$basic_streambuf@DU?$char_traits@D@std@@@std@@QAE_JPBD_J@Z PROC ; std::basic_streambuf<char,std::char_traits<char> >::sputn, COMDAT
; _this$ = ecx

; 201  : 		{	// put _Count characters from array beginning at _Ptr

  00000	55		 push	 ebp
  00001	8b ec		 mov	 ebp, esp

; 202  : 		return (xsputn(_Ptr, _Count));

  00003	8b 55 10	 mov	 edx, DWORD PTR __Count$[ebp+4]
  00006	8b 01		 mov	 eax, DWORD PTR [ecx]
  00008	8b 40 24	 mov	 eax, DWORD PTR [eax+36]
  0000b	52		 push	 edx
  0000c	8b 55 0c	 mov	 edx, DWORD PTR __Count$[ebp]
  0000f	52		 push	 edx
  00010	8b 55 08	 mov	 edx, DWORD PTR __Ptr$[ebp]
  00013	52		 push	 edx
  00014	ff d0		 call	 eax

; 203  : 		}

  00016	5d		 pop	 ebp
  00017	c2 0c 00	 ret	 12			; 0000000cH
?sputn@?$basic_streambuf@DU?$char_traits@D@std@@@std@@QAE_JPBD_J@Z ENDP ; std::basic_streambuf<char,std::char_traits<char> >::sputn
_TEXT	ENDS
PUBLIC	?_Init@?$codecvt@DDH@std@@IAEXABV_Locinfo@2@@Z	; std::codecvt<char,char,int>::_Init
; Function compile flags: /Ogtp
; File d:\program files (x86)\microsoft visual studio 10.0\vc\include\xlocale
;	COMDAT ?_Init@?$codecvt@DDH@std@@IAEXABV_Locinfo@2@@Z
_TEXT	SEGMENT
___formal$ = 8						; size = 4
?_Init@?$codecvt@DDH@std@@IAEXABV_Locinfo@2@@Z PROC	; std::codecvt<char,char,int>::_Init, COMDAT
; _this$ = ecx

; 863  : 		}

  00000	c2 04 00	 ret	 4
?_Init@?$codecvt@DDH@std@@IAEXABV_Locinfo@2@@Z ENDP	; std::codecvt<char,char,int>::_Init
_TEXT	ENDS
PUBLIC	?GetTime@CTime@ATL@@QBE_JXZ			; ATL::CTime::GetTime
; Function compile flags: /Ogtp
; File d:\program files (x86)\microsoft visual studio 10.0\vc\atlmfc\include\atltime.inl
;	COMDAT ?GetTime@CTime@ATL@@QBE_JXZ
_TEXT	SEGMENT
?GetTime@CTime@ATL@@QBE_JXZ PROC			; ATL::CTime::GetTime, COMDAT
; _this$ = ecx

; 415  : 	return( m_time );

  00000	8b 01		 mov	 eax, DWORD PTR [ecx]
  00002	8b 51 04	 mov	 edx, DWORD PTR [ecx+4]

; 416  : }

  00005	c3		 ret	 0
?GetTime@CTime@ATL@@QBE_JXZ ENDP			; ATL::CTime::GetTime
_TEXT	ENDS
PUBLIC	??_7bad_alloc@std@@6B@				; std::bad_alloc::`vftable'
PUBLIC	??0bad_alloc@std@@QAE@PBD@Z			; std::bad_alloc::bad_alloc
PUBLIC	??_R4bad_alloc@std@@6B@				; std::bad_alloc::`RTTI Complete Object Locator'
PUBLIC	??_R0?AVbad_alloc@std@@@8			; std::bad_alloc `RTTI Type Descriptor'
PUBLIC	??_R3bad_alloc@std@@8				; std::bad_alloc::`RTTI Class Hierarchy Descriptor'
PUBLIC	??_R2bad_alloc@std@@8				; std::bad_alloc::`RTTI Base Class Array'
PUBLIC	??_R1A@?0A@EA@bad_alloc@std@@8			; std::bad_alloc::`RTTI Base Class Descriptor at (0,-1,0,64)'
PUBLIC	??_R1A@?0A@EA@exception@std@@8			; std::exception::`RTTI Base Class Descriptor at (0,-1,0,64)'
PUBLIC	??_R0?AVexception@std@@@8			; std::exception `RTTI Type Descriptor'
PUBLIC	??_R3exception@std@@8				; std::exception::`RTTI Class Hierarchy Descriptor'
PUBLIC	??_R2exception@std@@8				; std::exception::`RTTI Base Class Array'
EXTRN	??0exception@std@@QAE@ABQBD@Z:PROC		; std::exception::exception
EXTRN	??_7type_info@@6B@:QWORD			; type_info::`vftable'
EXTRN	??_Ebad_alloc@std@@UAEPAXI@Z:PROC		; std::bad_alloc::`vector deleting destructor'
EXTRN	?what@exception@std@@UBEPBDXZ:PROC		; std::exception::what
;	COMDAT ??_R2exception@std@@8
; File d:\program files (x86)\microsoft visual studio 10.0\vc\include\exception
rdata$r	SEGMENT
??_R2exception@std@@8 DD FLAT:??_R1A@?0A@EA@exception@std@@8 ; std::exception::`RTTI Base Class Array'
rdata$r	ENDS
;	COMDAT ??_R3exception@std@@8
rdata$r	SEGMENT
??_R3exception@std@@8 DD 00H				; std::exception::`RTTI Class Hierarchy Descriptor'
	DD	00H
	DD	01H
	DD	FLAT:??_R2exception@std@@8
rdata$r	ENDS
;	COMDAT ??_R0?AVexception@std@@@8
_DATA	SEGMENT
??_R0?AVexception@std@@@8 DD FLAT:??_7type_info@@6B@	; std::exception `RTTI Type Descriptor'
	DD	00H
	DB	'.?AVexception@std@@', 00H
_DATA	ENDS
;	COMDAT ??_R1A@?0A@EA@exception@std@@8
rdata$r	SEGMENT
??_R1A@?0A@EA@exception@std@@8 DD FLAT:??_R0?AVexception@std@@@8 ; std::exception::`RTTI Base Class Descriptor at (0,-1,0,64)'
	DD	00H
	DD	00H
	DD	0ffffffffH
	DD	00H
	DD	040H
	DD	FLAT:??_R3exception@std@@8
rdata$r	ENDS
;	COMDAT ??_R1A@?0A@EA@bad_alloc@std@@8
rdata$r	SEGMENT
??_R1A@?0A@EA@bad_alloc@std@@8 DD FLAT:??_R0?AVbad_alloc@std@@@8 ; std::bad_alloc::`RTTI Base Class Descriptor at (0,-1,0,64)'
	DD	01H
	DD	00H
	DD	0ffffffffH
	DD	00H
	DD	040H
	DD	FLAT:??_R3bad_alloc@std@@8
rdata$r	ENDS
;	COMDAT ??_R2bad_alloc@std@@8
rdata$r	SEGMENT
??_R2bad_alloc@std@@8 DD FLAT:??_R1A@?0A@EA@bad_alloc@std@@8 ; std::bad_alloc::`RTTI Base Class Array'
	DD	FLAT:??_R1A@?0A@EA@exception@std@@8
rdata$r	ENDS
;	COMDAT ??_R3bad_alloc@std@@8
rdata$r	SEGMENT
??_R3bad_alloc@std@@8 DD 00H				; std::bad_alloc::`RTTI Class Hierarchy Descriptor'
	DD	00H
	DD	02H
	DD	FLAT:??_R2bad_alloc@std@@8
rdata$r	ENDS
;	COMDAT ??_R0?AVbad_alloc@std@@@8
_DATA	SEGMENT
??_R0?AVbad_alloc@std@@@8 DD FLAT:??_7type_info@@6B@	; std::bad_alloc `RTTI Type Descriptor'
	DD	00H
	DB	'.?AVbad_alloc@std@@', 00H
_DATA	ENDS
;	COMDAT ??_R4bad_alloc@std@@6B@
rdata$r	SEGMENT
??_R4bad_alloc@std@@6B@ DD 00H				; std::bad_alloc::`RTTI Complete Object Locator'
	DD	00H
	DD	00H
	DD	FLAT:??_R0?AVbad_alloc@std@@@8
	DD	FLAT:??_R3bad_alloc@std@@8
rdata$r	ENDS
;	COMDAT ??_7bad_alloc@std@@6B@
CONST	SEGMENT
??_7bad_alloc@std@@6B@ DD FLAT:??_R4bad_alloc@std@@6B@	; std::bad_alloc::`vftable'
	DD	FLAT:??_Ebad_alloc@std@@UAEPAXI@Z
	DD	FLAT:?what@exception@std@@UBEPBDXZ
; Function compile flags: /Ogtp
CONST	ENDS
;	COMDAT ??0bad_alloc@std@@QAE@PBD@Z
_TEXT	SEGMENT
__Message$ = 8						; size = 4
??0bad_alloc@std@@QAE@PBD@Z PROC			; std::bad_alloc::bad_alloc, COMDAT
; _this$ = ecx

; 345  : 		{	// construct from message string

  00000	55		 push	 ebp
  00001	8b ec		 mov	 ebp, esp
  00003	56		 push	 esi
  00004	8d 45 08	 lea	 eax, DWORD PTR __Message$[ebp]
  00007	50		 push	 eax
  00008	8b f1		 mov	 esi, ecx
  0000a	e8 00 00 00 00	 call	 ??0exception@std@@QAE@ABQBD@Z ; std::exception::exception
  0000f	c7 06 00 00 00
	00		 mov	 DWORD PTR [esi], OFFSET ??_7bad_alloc@std@@6B@

; 346  : 		}

  00015	8b c6		 mov	 eax, esi
  00017	5e		 pop	 esi
  00018	5d		 pop	 ebp
  00019	c2 04 00	 ret	 4
??0bad_alloc@std@@QAE@PBD@Z ENDP			; std::bad_alloc::bad_alloc
_TEXT	ENDS
PUBLIC	??1bad_alloc@std@@UAE@XZ			; std::bad_alloc::~bad_alloc
EXTRN	??1exception@std@@UAE@XZ:PROC			; std::exception::~exception
; Function compile flags: /Ogtp
;	COMDAT ??1bad_alloc@std@@UAE@XZ
_TEXT	SEGMENT
??1bad_alloc@std@@UAE@XZ PROC				; std::bad_alloc::~bad_alloc, COMDAT
; _this$ = ecx

; 354  : 		{	// destroy the object

  00000	c7 01 00 00 00
	00		 mov	 DWORD PTR [ecx], OFFSET ??_7bad_alloc@std@@6B@

; 355  : 		}

  00006	e9 00 00 00 00	 jmp	 ??1exception@std@@UAE@XZ ; std::exception::~exception
??1bad_alloc@std@@UAE@XZ ENDP				; std::bad_alloc::~bad_alloc
_TEXT	ENDS
EXTRN	??3@YAXPAX@Z:PROC				; operator delete
; Function compile flags: /Ogtp
;	COMDAT ??_Gbad_alloc@std@@UAEPAXI@Z
_TEXT	SEGMENT
___flags$ = 8						; size = 4
??_Gbad_alloc@std@@UAEPAXI@Z PROC			; std::bad_alloc::`scalar deleting destructor', COMDAT
; _this$ = ecx
  00000	55		 push	 ebp
  00001	8b ec		 mov	 ebp, esp
  00003	56		 push	 esi
  00004	8b f1		 mov	 esi, ecx
  00006	c7 06 00 00 00
	00		 mov	 DWORD PTR [esi], OFFSET ??_7bad_alloc@std@@6B@
  0000c	e8 00 00 00 00	 call	 ??1exception@std@@UAE@XZ ; std::exception::~exception
  00011	f6 45 08 01	 test	 BYTE PTR ___flags$[ebp], 1
  00015	74 09		 je	 SHORT $LN6@scalar
  00017	56		 push	 esi
  00018	e8 00 00 00 00	 call	 ??3@YAXPAX@Z		; operator delete
  0001d	83 c4 04	 add	 esp, 4
$LN6@scalar:
  00020	8b c6		 mov	 eax, esi
  00022	5e		 pop	 esi
  00023	5d		 pop	 ebp
  00024	c2 04 00	 ret	 4
??_Gbad_alloc@std@@UAEPAXI@Z ENDP			; std::bad_alloc::`scalar deleting destructor'
_TEXT	ENDS
PUBLIC	?length@?$char_traits@D@std@@SAIPBD@Z		; std::char_traits<char>::length
; Function compile flags: /Ogtp
; File d:\program files (x86)\microsoft visual studio 10.0\vc\include\iosfwd
;	COMDAT ?length@?$char_traits@D@std@@SAIPBD@Z
_TEXT	SEGMENT
__First$ = 8						; size = 4
?length@?$char_traits@D@std@@SAIPBD@Z PROC		; std::char_traits<char>::length, COMDAT

; 490  : 		{	// find length of null-terminated string

  00000	55		 push	 ebp
  00001	8b ec		 mov	 ebp, esp

; 491  : 		return (_CSTD strlen(_First));

  00003	8b 45 08	 mov	 eax, DWORD PTR __First$[ebp]
  00006	8d 50 01	 lea	 edx, DWORD PTR [eax+1]
  00009	8d a4 24 00 00
	00 00		 npad	 7
$LL3@length:
  00010	8a 08		 mov	 cl, BYTE PTR [eax]
  00012	40		 inc	 eax
  00013	84 c9		 test	 cl, cl
  00015	75 f9		 jne	 SHORT $LL3@length
  00017	2b c2		 sub	 eax, edx

; 492  : 		}

  00019	5d		 pop	 ebp
  0001a	c3		 ret	 0
?length@?$char_traits@D@std@@SAIPBD@Z ENDP		; std::char_traits<char>::length
_TEXT	ENDS
PUBLIC	?copy@?$char_traits@D@std@@SAPADPADPBDI@Z	; std::char_traits<char>::copy
EXTRN	_memcpy:PROC
; Function compile flags: /Ogtp
;	COMDAT ?copy@?$char_traits@D@std@@SAPADPADPBDI@Z
_TEXT	SEGMENT
__First1$ = 8						; size = 4
__First2$ = 12						; size = 4
__Count$ = 16						; size = 4
?copy@?$char_traits@D@std@@SAPADPADPBDI@Z PROC		; std::char_traits<char>::copy, COMDAT

; 496  : 		{	// copy [_First1, _First1 + _Count) to [_First2, ...)

  00000	55		 push	 ebp
  00001	8b ec		 mov	 ebp, esp

; 498  : 		}

  00003	5d		 pop	 ebp

; 497  : 		return ((_Elem *)_CSTD memcpy(_First1, _First2, _Count));

  00004	e9 00 00 00 00	 jmp	 _memcpy
?copy@?$char_traits@D@std@@SAPADPADPBDI@Z ENDP		; std::char_traits<char>::copy
_TEXT	ENDS
PUBLIC	?assign@?$char_traits@D@std@@SAPADPADID@Z	; std::char_traits<char>::assign
EXTRN	_memset:PROC
; Function compile flags: /Ogtp
;	COMDAT ?assign@?$char_traits@D@std@@SAPADPADID@Z
_TEXT	SEGMENT
__First$ = 8						; size = 4
__Count$ = 12						; size = 4
__Ch$ = 16						; size = 1
?assign@?$char_traits@D@std@@SAPADPADID@Z PROC		; std::char_traits<char>::assign, COMDAT

; 521  : 		{	// assign _Count * _Ch to [_First, ...)

  00000	55		 push	 ebp
  00001	8b ec		 mov	 ebp, esp

; 522  : 		return ((_Elem *)_CSTD memset(_First, _Ch, _Count));

  00003	8b 45 0c	 mov	 eax, DWORD PTR __Count$[ebp]
  00006	0f be 4d 10	 movsx	 ecx, BYTE PTR __Ch$[ebp]
  0000a	8b 55 08	 mov	 edx, DWORD PTR __First$[ebp]
  0000d	50		 push	 eax
  0000e	51		 push	 ecx
  0000f	52		 push	 edx
  00010	e8 00 00 00 00	 call	 _memset
  00015	83 c4 0c	 add	 esp, 12			; 0000000cH

; 523  : 		}

  00018	5d		 pop	 ebp
  00019	c3		 ret	 0
?assign@?$char_traits@D@std@@SAPADPADID@Z ENDP		; std::char_traits<char>::assign
_TEXT	ENDS
PUBLIC	?assign@?$char_traits@D@std@@SAXAADABD@Z	; std::char_traits<char>::assign
; Function compile flags: /Ogtp
;	COMDAT ?assign@?$char_traits@D@std@@SAXAADABD@Z
_TEXT	SEGMENT
__Left$ = 8						; size = 4
__Right$ = 12						; size = 4
?assign@?$char_traits@D@std@@SAXAADABD@Z PROC		; std::char_traits<char>::assign, COMDAT

; 526  : 		{	// assign an element

  00000	55		 push	 ebp
  00001	8b ec		 mov	 ebp, esp

; 527  : 		_Left = _Right;

  00003	8b 45 0c	 mov	 eax, DWORD PTR __Right$[ebp]
  00006	8a 08		 mov	 cl, BYTE PTR [eax]
  00008	8b 55 08	 mov	 edx, DWORD PTR __Left$[ebp]
  0000b	88 0a		 mov	 BYTE PTR [edx], cl

; 528  : 		}

  0000d	5d		 pop	 ebp
  0000e	c3		 ret	 0
?assign@?$char_traits@D@std@@SAXAADABD@Z ENDP		; std::char_traits<char>::assign
_TEXT	ENDS
PUBLIC	?to_int_type@?$char_traits@D@std@@SAHABD@Z	; std::char_traits<char>::to_int_type
; Function compile flags: /Ogtp
;	COMDAT ?to_int_type@?$char_traits@D@std@@SAHABD@Z
_TEXT	SEGMENT
__Ch$ = 8						; size = 4
?to_int_type@?$char_traits@D@std@@SAHABD@Z PROC		; std::char_traits<char>::to_int_type, COMDAT

; 546  : 		{	// convert character to metacharacter

  00000	55		 push	 ebp
  00001	8b ec		 mov	 ebp, esp

; 547  : 		return ((unsigned char)_Ch);

  00003	8b 45 08	 mov	 eax, DWORD PTR __Ch$[ebp]
  00006	0f b6 00	 movzx	 eax, BYTE PTR [eax]

; 548  : 		}

  00009	5d		 pop	 ebp
  0000a	c3		 ret	 0
?to_int_type@?$char_traits@D@std@@SAHABD@Z ENDP		; std::char_traits<char>::to_int_type
_TEXT	ENDS
PUBLIC	?eq_int_type@?$char_traits@D@std@@SA_NABH0@Z	; std::char_traits<char>::eq_int_type
; Function compile flags: /Ogtp
;	COMDAT ?eq_int_type@?$char_traits@D@std@@SA_NABH0@Z
_TEXT	SEGMENT
__Left$ = 8						; size = 4
__Right$ = 12						; size = 4
?eq_int_type@?$char_traits@D@std@@SA_NABH0@Z PROC	; std::char_traits<char>::eq_int_type, COMDAT

; 552  : 		{	// test for metacharacter equality

  00000	55		 push	 ebp
  00001	8b ec		 mov	 ebp, esp

; 553  : 		return (_Left == _Right);

  00003	8b 45 08	 mov	 eax, DWORD PTR __Left$[ebp]
  00006	8b 08		 mov	 ecx, DWORD PTR [eax]
  00008	8b 55 0c	 mov	 edx, DWORD PTR __Right$[ebp]
  0000b	33 c0		 xor	 eax, eax
  0000d	3b 0a		 cmp	 ecx, DWORD PTR [edx]
  0000f	0f 94 c0	 sete	 al

; 554  : 		}

  00012	5d		 pop	 ebp
  00013	c3		 ret	 0
?eq_int_type@?$char_traits@D@std@@SA_NABH0@Z ENDP	; std::char_traits<char>::eq_int_type
_TEXT	ENDS
PUBLIC	?eof@?$char_traits@D@std@@SAHXZ			; std::char_traits<char>::eof
; Function compile flags: /Ogtp
;	COMDAT ?eof@?$char_traits@D@std@@SAHXZ
_TEXT	SEGMENT
?eof@?$char_traits@D@std@@SAHXZ PROC			; std::char_traits<char>::eof, COMDAT

; 563  : 		return (EOF);

  00000	83 c8 ff	 or	 eax, -1

; 564  : 		}

  00003	c3		 ret	 0
?eof@?$char_traits@D@std@@SAHXZ ENDP			; std::char_traits<char>::eof
_TEXT	ENDS
PUBLIC	?_Adopt@_Iterator_base0@std@@QAEXPBX@Z		; std::_Iterator_base0::_Adopt
; Function compile flags: /Ogtp
; File d:\program files (x86)\microsoft visual studio 10.0\vc\include\xutility
;	COMDAT ?_Adopt@_Iterator_base0@std@@QAEXPBX@Z
_TEXT	SEGMENT
___formal$ = 8						; size = 4
?_Adopt@_Iterator_base0@std@@QAEXPBX@Z PROC		; std::_Iterator_base0::_Adopt, COMDAT
; _this$ = ecx

; 49   : 		}

  00000	c2 04 00	 ret	 4
?_Adopt@_Iterator_base0@std@@QAEXPBX@Z ENDP		; std::_Iterator_base0::_Adopt
_TEXT	ENDS
PUBLIC	??_7runtime_error@std@@6B@			; std::runtime_error::`vftable'
PUBLIC	??0runtime_error@std@@QAE@PBD@Z			; std::runtime_error::runtime_error
PUBLIC	??_R4runtime_error@std@@6B@			; std::runtime_error::`RTTI Complete Object Locator'
PUBLIC	??_R0?AVruntime_error@std@@@8			; std::runtime_error `RTTI Type Descriptor'
PUBLIC	??_R3runtime_error@std@@8			; std::runtime_error::`RTTI Class Hierarchy Descriptor'
PUBLIC	??_R2runtime_error@std@@8			; std::runtime_error::`RTTI Base Class Array'
PUBLIC	??_R1A@?0A@EA@runtime_error@std@@8		; std::runtime_error::`RTTI Base Class Descriptor at (0,-1,0,64)'
EXTRN	??_Eruntime_error@std@@UAEPAXI@Z:PROC		; std::runtime_error::`vector deleting destructor'
;	COMDAT ??_R1A@?0A@EA@runtime_error@std@@8
; File d:\program files (x86)\microsoft visual studio 10.0\vc\include\stdexcept
rdata$r	SEGMENT
??_R1A@?0A@EA@runtime_error@std@@8 DD FLAT:??_R0?AVruntime_error@std@@@8 ; std::runtime_error::`RTTI Base Class Descriptor at (0,-1,0,64)'
	DD	01H
	DD	00H
	DD	0ffffffffH
	DD	00H
	DD	040H
	DD	FLAT:??_R3runtime_error@std@@8
rdata$r	ENDS
;	COMDAT ??_R2runtime_error@std@@8
rdata$r	SEGMENT
??_R2runtime_error@std@@8 DD FLAT:??_R1A@?0A@EA@runtime_error@std@@8 ; std::runtime_error::`RTTI Base Class Array'
	DD	FLAT:??_R1A@?0A@EA@exception@std@@8
rdata$r	ENDS
;	COMDAT ??_R3runtime_error@std@@8
rdata$r	SEGMENT
??_R3runtime_error@std@@8 DD 00H			; std::runtime_error::`RTTI Class Hierarchy Descriptor'
	DD	00H
	DD	02H
	DD	FLAT:??_R2runtime_error@std@@8
rdata$r	ENDS
;	COMDAT ??_R0?AVruntime_error@std@@@8
_DATA	SEGMENT
??_R0?AVruntime_error@std@@@8 DD FLAT:??_7type_info@@6B@ ; std::runtime_error `RTTI Type Descriptor'
	DD	00H
	DB	'.?AVruntime_error@std@@', 00H
_DATA	ENDS
;	COMDAT ??_R4runtime_error@std@@6B@
rdata$r	SEGMENT
??_R4runtime_error@std@@6B@ DD 00H			; std::runtime_error::`RTTI Complete Object Locator'
	DD	00H
	DD	00H
	DD	FLAT:??_R0?AVruntime_error@std@@@8
	DD	FLAT:??_R3runtime_error@std@@8
rdata$r	ENDS
;	COMDAT ??_7runtime_error@std@@6B@
CONST	SEGMENT
??_7runtime_error@std@@6B@ DD FLAT:??_R4runtime_error@std@@6B@ ; std::runtime_error::`vftable'
	DD	FLAT:??_Eruntime_error@std@@UAEPAXI@Z
	DD	FLAT:?what@exception@std@@UBEPBDXZ
; Function compile flags: /Ogtp
CONST	ENDS
;	COMDAT ??0runtime_error@std@@QAE@PBD@Z
_TEXT	SEGMENT
__Message$ = 8						; size = 4
??0runtime_error@std@@QAE@PBD@Z PROC			; std::runtime_error::runtime_error, COMDAT
; _this$ = ecx

; 170  : 		{	// construct from message string

  00000	55		 push	 ebp
  00001	8b ec		 mov	 ebp, esp
  00003	56		 push	 esi
  00004	8d 45 08	 lea	 eax, DWORD PTR __Message$[ebp]
  00007	50		 push	 eax
  00008	8b f1		 mov	 esi, ecx
  0000a	e8 00 00 00 00	 call	 ??0exception@std@@QAE@ABQBD@Z ; std::exception::exception
  0000f	c7 06 00 00 00
	00		 mov	 DWORD PTR [esi], OFFSET ??_7runtime_error@std@@6B@

; 171  : 		}

  00015	8b c6		 mov	 eax, esi
  00017	5e		 pop	 esi
  00018	5d		 pop	 ebp
  00019	c2 04 00	 ret	 4
??0runtime_error@std@@QAE@PBD@Z ENDP			; std::runtime_error::runtime_error
_TEXT	ENDS
PUBLIC	??1runtime_error@std@@UAE@XZ			; std::runtime_error::~runtime_error
; Function compile flags: /Ogtp
;	COMDAT ??1runtime_error@std@@UAE@XZ
_TEXT	SEGMENT
??1runtime_error@std@@UAE@XZ PROC			; std::runtime_error::~runtime_error, COMDAT
; _this$ = ecx
  00000	e9 00 00 00 00	 jmp	 ??1exception@std@@UAE@XZ ; std::exception::~exception
??1runtime_error@std@@UAE@XZ ENDP			; std::runtime_error::~runtime_error
_TEXT	ENDS
PUBLIC	?_Getctype@_Locinfo@std@@QBE?AU_Ctypevec@@XZ	; std::_Locinfo::_Getctype
EXTRN	__Getctype:PROC
; Function compile flags: /Ogtp
; File d:\program files (x86)\microsoft visual studio 10.0\vc\include\xlocinfo
;	COMDAT ?_Getctype@_Locinfo@std@@QBE?AU_Ctypevec@@XZ
_TEXT	SEGMENT
$T209453 = -16						; size = 16
___$ReturnUdt$ = 8					; size = 4
?_Getctype@_Locinfo@std@@QBE?AU_Ctypevec@@XZ PROC	; std::_Locinfo::_Getctype, COMDAT
; _this$ = ecx

; 117  : 		{	// return ctype stuff

  00000	55		 push	 ebp
  00001	8b ec		 mov	 ebp, esp

; 118  : 		return (::_Getctype());

  00003	8d 45 f0	 lea	 eax, DWORD PTR $T209453[ebp]
  00006	83 ec 10	 sub	 esp, 16			; 00000010H
  00009	50		 push	 eax
  0000a	e8 00 00 00 00	 call	 __Getctype
  0000f	8b 4d 08	 mov	 ecx, DWORD PTR ___$ReturnUdt$[ebp]
  00012	8b 10		 mov	 edx, DWORD PTR [eax]
  00014	89 11		 mov	 DWORD PTR [ecx], edx
  00016	8b 50 04	 mov	 edx, DWORD PTR [eax+4]
  00019	89 51 04	 mov	 DWORD PTR [ecx+4], edx
  0001c	8b 50 08	 mov	 edx, DWORD PTR [eax+8]
  0001f	8b 40 0c	 mov	 eax, DWORD PTR [eax+12]
  00022	89 51 08	 mov	 DWORD PTR [ecx+8], edx
  00025	89 41 0c	 mov	 DWORD PTR [ecx+12], eax
  00028	83 c4 04	 add	 esp, 4
  0002b	8b c1		 mov	 eax, ecx

; 119  : 		}

  0002d	8b e5		 mov	 esp, ebp
  0002f	5d		 pop	 ebp
  00030	c2 04 00	 ret	 4
?_Getctype@_Locinfo@std@@QBE?AU_Ctypevec@@XZ ENDP	; std::_Locinfo::_Getctype
_TEXT	ENDS
PUBLIC	??0id@locale@std@@QAE@I@Z			; std::locale::id::id
; Function compile flags: /Ogtp
; File d:\program files (x86)\microsoft visual studio 10.0\vc\include\xlocale
;	COMDAT ??0id@locale@std@@QAE@I@Z
_TEXT	SEGMENT
__Val$ = 8						; size = 4
??0id@locale@std@@QAE@I@Z PROC				; std::locale::id::id, COMDAT
; _this$ = ecx

; 71   : 			{	// construct with specified stamp value

  00000	55		 push	 ebp
  00001	8b ec		 mov	 ebp, esp
  00003	8b c1		 mov	 eax, ecx
  00005	8b 4d 08	 mov	 ecx, DWORD PTR __Val$[ebp]
  00008	89 08		 mov	 DWORD PTR [eax], ecx

; 72   : 			}

  0000a	5d		 pop	 ebp
  0000b	c2 04 00	 ret	 4
??0id@locale@std@@QAE@I@Z ENDP				; std::locale::id::id
_TEXT	ENDS
PUBLIC	??Bid@locale@std@@QAEIXZ			; std::locale::id::operator unsigned int
EXTRN	??1_Lockit@std@@QAE@XZ:PROC			; std::_Lockit::~_Lockit
EXTRN	?_Id_cnt@id@locale@std@@0HA:DWORD		; std::locale::id::_Id_cnt
EXTRN	??0_Lockit@std@@QAE@H@Z:PROC			; std::_Lockit::_Lockit
; Function compile flags: /Ogtp
;	COMDAT ??Bid@locale@std@@QAEIXZ
_TEXT	SEGMENT
__Lock$173793 = -4					; size = 4
??Bid@locale@std@@QAEIXZ PROC				; std::locale::id::operator unsigned int, COMDAT
; _this$ = ecx

; 75   : 			{	// get stamp, with lazy allocation

  00000	55		 push	 ebp
  00001	8b ec		 mov	 ebp, esp
  00003	51		 push	 ecx
  00004	56		 push	 esi
  00005	8b f1		 mov	 esi, ecx

; 76   : 			if (_Id == 0)

  00007	83 3e 00	 cmp	 DWORD PTR [esi], 0
  0000a	75 24		 jne	 SHORT $LN6@operator

; 77   : 				{	// still zero, allocate stamp
; 78   : 				_BEGIN_LOCK(_LOCK_LOCALE)

  0000c	6a 00		 push	 0
  0000e	8d 4d fc	 lea	 ecx, DWORD PTR __Lock$173793[ebp]
  00011	e8 00 00 00 00	 call	 ??0_Lockit@std@@QAE@H@Z	; std::_Lockit::_Lockit

; 79   : 					if (_Id == 0)

  00016	83 3e 00	 cmp	 DWORD PTR [esi], 0
  00019	75 0d		 jne	 SHORT $LN1@operator

; 80   : 						_Id = ++_Id_cnt;

  0001b	a1 00 00 00 00	 mov	 eax, DWORD PTR ?_Id_cnt@id@locale@std@@0HA ; std::locale::id::_Id_cnt
  00020	40		 inc	 eax
  00021	a3 00 00 00 00	 mov	 DWORD PTR ?_Id_cnt@id@locale@std@@0HA, eax ; std::locale::id::_Id_cnt
  00026	89 06		 mov	 DWORD PTR [esi], eax
$LN1@operator:

; 81   : 				_END_LOCK()

  00028	8d 4d fc	 lea	 ecx, DWORD PTR __Lock$173793[ebp]
  0002b	e8 00 00 00 00	 call	 ??1_Lockit@std@@QAE@XZ	; std::_Lockit::~_Lockit
$LN6@operator:

; 82   : 				}
; 83   : 			return (_Id);

  00030	8b 06		 mov	 eax, DWORD PTR [esi]
  00032	5e		 pop	 esi

; 84   : 			}

  00033	8b e5		 mov	 esp, ebp
  00035	5d		 pop	 ebp
  00036	c3		 ret	 0
??Bid@locale@std@@QAEIXZ ENDP				; std::locale::id::operator unsigned int
_TEXT	ENDS
PUBLIC	?_Incref@facet@locale@std@@QAEXXZ		; std::locale::facet::_Incref
; Function compile flags: /Ogtp
;	COMDAT ?_Incref@facet@locale@std@@QAEXXZ
_TEXT	SEGMENT
__Lock$173799 = -4					; size = 4
?_Incref@facet@locale@std@@QAEXXZ PROC			; std::locale::facet::_Incref, COMDAT
; _this$ = ecx

; 111  : 			{	// safely increment the reference count

  00000	55		 push	 ebp
  00001	8b ec		 mov	 ebp, esp
  00003	51		 push	 ecx
  00004	56		 push	 esi
  00005	8b f1		 mov	 esi, ecx

; 112  : 			_BEGIN_LOCK(_LOCK_LOCALE)

  00007	6a 00		 push	 0
  00009	8d 4d fc	 lea	 ecx, DWORD PTR __Lock$173799[ebp]
  0000c	e8 00 00 00 00	 call	 ??0_Lockit@std@@QAE@H@Z	; std::_Lockit::_Lockit

; 113  : 				if (_Refs < (size_t)(-1))

  00011	8b 46 04	 mov	 eax, DWORD PTR [esi+4]
  00014	83 f8 ff	 cmp	 eax, -1
  00017	73 04		 jae	 SHORT $LN1@Incref

; 114  : 					++_Refs;

  00019	40		 inc	 eax
  0001a	89 46 04	 mov	 DWORD PTR [esi+4], eax
$LN1@Incref:

; 115  : 			_END_LOCK()

  0001d	8d 4d fc	 lea	 ecx, DWORD PTR __Lock$173799[ebp]
  00020	e8 00 00 00 00	 call	 ??1_Lockit@std@@QAE@XZ	; std::_Lockit::~_Lockit
  00025	5e		 pop	 esi

; 116  : 			}

  00026	8b e5		 mov	 esp, ebp
  00028	5d		 pop	 ebp
  00029	c3		 ret	 0
?_Incref@facet@locale@std@@QAEXXZ ENDP			; std::locale::facet::_Incref
_TEXT	ENDS
PUBLIC	?_Decref@facet@locale@std@@QAEPAV123@XZ		; std::locale::facet::_Decref
; Function compile flags: /Ogtp
;	COMDAT ?_Decref@facet@locale@std@@QAEPAV123@XZ
_TEXT	SEGMENT
__Lock$173804 = -4					; size = 4
?_Decref@facet@locale@std@@QAEPAV123@XZ PROC		; std::locale::facet::_Decref, COMDAT
; _this$ = ecx

; 119  : 			{	// safely decrement the reference count, return this when dead

  00000	55		 push	 ebp
  00001	8b ec		 mov	 ebp, esp
  00003	51		 push	 ecx
  00004	56		 push	 esi
  00005	57		 push	 edi
  00006	8b f9		 mov	 edi, ecx

; 120  : 			_BEGIN_LOCK(_LOCK_LOCALE)

  00008	6a 00		 push	 0
  0000a	8d 4d fc	 lea	 ecx, DWORD PTR __Lock$173804[ebp]
  0000d	e8 00 00 00 00	 call	 ??0_Lockit@std@@QAE@H@Z	; std::_Lockit::_Lockit

; 121  : 				if (0 < _Refs && _Refs < (size_t)(-1))

  00012	8b 47 04	 mov	 eax, DWORD PTR [edi+4]
  00015	85 c0		 test	 eax, eax
  00017	74 09		 je	 SHORT $LN1@Decref
  00019	83 f8 ff	 cmp	 eax, -1
  0001c	73 04		 jae	 SHORT $LN1@Decref

; 122  : 					--_Refs;

  0001e	48		 dec	 eax
  0001f	89 47 04	 mov	 DWORD PTR [edi+4], eax
$LN1@Decref:

; 123  : 				return (_Refs == 0 ? this : 0);

  00022	8b 77 04	 mov	 esi, DWORD PTR [edi+4]
  00025	f7 de		 neg	 esi
  00027	1b f6		 sbb	 esi, esi
  00029	f7 d6		 not	 esi
  0002b	8d 4d fc	 lea	 ecx, DWORD PTR __Lock$173804[ebp]
  0002e	23 f7		 and	 esi, edi
  00030	e8 00 00 00 00	 call	 ??1_Lockit@std@@QAE@XZ	; std::_Lockit::~_Lockit
  00035	5f		 pop	 edi
  00036	8b c6		 mov	 eax, esi
  00038	5e		 pop	 esi

; 124  : 			_END_LOCK()
; 125  : 			}

  00039	8b e5		 mov	 esp, ebp
  0003b	5d		 pop	 ebp
  0003c	c3		 ret	 0
?_Decref@facet@locale@std@@QAEPAV123@XZ ENDP		; std::locale::facet::_Decref
_TEXT	ENDS
PUBLIC	?_Register@facet@locale@std@@QAEXXZ		; std::locale::facet::_Register
EXTRN	?_Facet_Register@facet@locale@std@@CAXPAV123@@Z:PROC ; std::locale::facet::_Facet_Register
; Function compile flags: /Ogtp
;	COMDAT ?_Register@facet@locale@std@@QAEXXZ
_TEXT	SEGMENT
?_Register@facet@locale@std@@QAEXXZ PROC		; std::locale::facet::_Register, COMDAT
; _this$ = ecx

; 129  :  #if defined(_M_CEE)
; 130  : 			_Facet_Register_m(this);
; 131  : 
; 132  :  #else /* defined(_M_CEE) */
; 133  : 			_Facet_Register(this);

  00000	51		 push	 ecx
  00001	e8 00 00 00 00	 call	 ?_Facet_Register@facet@locale@std@@CAXPAV123@@Z ; std::locale::facet::_Facet_Register
  00006	59		 pop	 ecx

; 134  :  #endif /* defined(_M_CEE) */
; 135  : 			}

  00007	c3		 ret	 0
?_Register@facet@locale@std@@QAEXXZ ENDP		; std::locale::facet::_Register
_TEXT	ENDS
PUBLIC	??_7facet@locale@std@@6B@			; std::locale::facet::`vftable'
PUBLIC	??1facet@locale@std@@UAE@XZ			; std::locale::facet::~facet
PUBLIC	??_R4facet@locale@std@@6B@			; std::locale::facet::`RTTI Complete Object Locator'
PUBLIC	??_R0?AVfacet@locale@std@@@8			; std::locale::facet `RTTI Type Descriptor'
PUBLIC	??_R3facet@locale@std@@8			; std::locale::facet::`RTTI Class Hierarchy Descriptor'
PUBLIC	??_R2facet@locale@std@@8			; std::locale::facet::`RTTI Base Class Array'
PUBLIC	??_R1A@?0A@EA@facet@locale@std@@8		; std::locale::facet::`RTTI Base Class Descriptor at (0,-1,0,64)'
EXTRN	??_Efacet@locale@std@@UAEPAXI@Z:PROC		; std::locale::facet::`vector deleting destructor'
;	COMDAT ??_R1A@?0A@EA@facet@locale@std@@8
rdata$r	SEGMENT
??_R1A@?0A@EA@facet@locale@std@@8 DD FLAT:??_R0?AVfacet@locale@std@@@8 ; std::locale::facet::`RTTI Base Class Descriptor at (0,-1,0,64)'
	DD	00H
	DD	00H
	DD	0ffffffffH
	DD	00H
	DD	040H
	DD	FLAT:??_R3facet@locale@std@@8
rdata$r	ENDS
;	COMDAT ??_R2facet@locale@std@@8
rdata$r	SEGMENT
??_R2facet@locale@std@@8 DD FLAT:??_R1A@?0A@EA@facet@locale@std@@8 ; std::locale::facet::`RTTI Base Class Array'
rdata$r	ENDS
;	COMDAT ??_R3facet@locale@std@@8
rdata$r	SEGMENT
??_R3facet@locale@std@@8 DD 00H				; std::locale::facet::`RTTI Class Hierarchy Descriptor'
	DD	00H
	DD	01H
	DD	FLAT:??_R2facet@locale@std@@8
rdata$r	ENDS
;	COMDAT ??_R0?AVfacet@locale@std@@@8
_DATA	SEGMENT
??_R0?AVfacet@locale@std@@@8 DD FLAT:??_7type_info@@6B@	; std::locale::facet `RTTI Type Descriptor'
	DD	00H
	DB	'.?AVfacet@locale@std@@', 00H
_DATA	ENDS
;	COMDAT ??_R4facet@locale@std@@6B@
rdata$r	SEGMENT
??_R4facet@locale@std@@6B@ DD 00H			; std::locale::facet::`RTTI Complete Object Locator'
	DD	00H
	DD	00H
	DD	FLAT:??_R0?AVfacet@locale@std@@@8
	DD	FLAT:??_R3facet@locale@std@@8
rdata$r	ENDS
;	COMDAT ??_7facet@locale@std@@6B@
CONST	SEGMENT
??_7facet@locale@std@@6B@ DD FLAT:??_R4facet@locale@std@@6B@ ; std::locale::facet::`vftable'
	DD	FLAT:??_Efacet@locale@std@@UAEPAXI@Z
; Function compile flags: /Ogtp
CONST	ENDS
;	COMDAT ??1facet@locale@std@@UAE@XZ
_TEXT	SEGMENT
??1facet@locale@std@@UAE@XZ PROC			; std::locale::facet::~facet, COMDAT
; _this$ = ecx

; 164  : 			{	// destroy the object

  00000	c7 01 00 00 00
	00		 mov	 DWORD PTR [ecx], OFFSET ??_7facet@locale@std@@6B@

; 165  : 			}

  00006	c3		 ret	 0
??1facet@locale@std@@UAE@XZ ENDP			; std::locale::facet::~facet
_TEXT	ENDS
PUBLIC	??0facet@locale@std@@IAE@I@Z			; std::locale::facet::facet
; Function compile flags: /Ogtp
;	COMDAT ??0facet@locale@std@@IAE@I@Z
_TEXT	SEGMENT
__Initrefs$ = 8						; size = 4
??0facet@locale@std@@IAE@I@Z PROC			; std::locale::facet::facet, COMDAT
; _this$ = ecx

; 170  : 			{	// construct with initial reference count

  00000	55		 push	 ebp
  00001	8b ec		 mov	 ebp, esp
  00003	8b c1		 mov	 eax, ecx
  00005	8b 4d 08	 mov	 ecx, DWORD PTR __Initrefs$[ebp]
  00008	c7 00 00 00 00
	00		 mov	 DWORD PTR [eax], OFFSET ??_7facet@locale@std@@6B@
  0000e	89 48 04	 mov	 DWORD PTR [eax+4], ecx

; 171  : 			}

  00011	5d		 pop	 ebp
  00012	c2 04 00	 ret	 4
??0facet@locale@std@@IAE@I@Z ENDP			; std::locale::facet::facet
_TEXT	ENDS
PUBLIC	??0locale@std@@QAE@ABV01@@Z			; std::locale::locale
; Function compile flags: /Ogtp
;	COMDAT ??0locale@std@@QAE@ABV01@@Z
_TEXT	SEGMENT
__Lock$209480 = 8					; size = 4
__Right$ = 8						; size = 4
??0locale@std@@QAE@ABV01@@Z PROC			; std::locale::locale, COMDAT
; _this$ = ecx

; 309  : 		{	// construct by copying

  00000	55		 push	 ebp
  00001	8b ec		 mov	 ebp, esp
  00003	8b 45 08	 mov	 eax, DWORD PTR __Right$[ebp]
  00006	56		 push	 esi
  00007	8b 30		 mov	 esi, DWORD PTR [eax]
  00009	57		 push	 edi
  0000a	8b f9		 mov	 edi, ecx

; 310  : 		_Ptr->_Incref();

  0000c	6a 00		 push	 0
  0000e	8d 4d 08	 lea	 ecx, DWORD PTR __Lock$209480[ebp]
  00011	89 37		 mov	 DWORD PTR [edi], esi
  00013	e8 00 00 00 00	 call	 ??0_Lockit@std@@QAE@H@Z	; std::_Lockit::_Lockit
  00018	8b 46 04	 mov	 eax, DWORD PTR [esi+4]
  0001b	83 f8 ff	 cmp	 eax, -1
  0001e	73 04		 jae	 SHORT $LN3@locale
  00020	40		 inc	 eax
  00021	89 46 04	 mov	 DWORD PTR [esi+4], eax
$LN3@locale:
  00024	8d 4d 08	 lea	 ecx, DWORD PTR __Lock$209480[ebp]
  00027	e8 00 00 00 00	 call	 ??1_Lockit@std@@QAE@XZ	; std::_Lockit::~_Lockit

; 311  : 		}

  0002c	8b c7		 mov	 eax, edi
  0002e	5f		 pop	 edi
  0002f	5e		 pop	 esi
  00030	5d		 pop	 ebp
  00031	c2 04 00	 ret	 4
??0locale@std@@QAE@ABV01@@Z ENDP			; std::locale::locale
_TEXT	ENDS
PUBLIC	??0locale@std@@QAE@XZ				; std::locale::locale
EXTRN	?_Getgloballocale@locale@std@@CAPAV_Locimp@12@XZ:PROC ; std::locale::_Getgloballocale
EXTRN	?_Init@locale@std@@CAPAV_Locimp@12@XZ:PROC	; std::locale::_Init
; Function compile flags: /Ogtp
;	COMDAT ??0locale@std@@QAE@XZ
_TEXT	SEGMENT
__Lock$209488 = -4					; size = 4
??0locale@std@@QAE@XZ PROC				; std::locale::locale, COMDAT
; _this$ = ecx

; 315  : 		{	// construct from current locale

  00000	55		 push	 ebp
  00001	8b ec		 mov	 ebp, esp
  00003	51		 push	 ecx
  00004	56		 push	 esi
  00005	57		 push	 edi
  00006	8b f9		 mov	 edi, ecx
  00008	e8 00 00 00 00	 call	 ?_Init@locale@std@@CAPAV_Locimp@12@XZ ; std::locale::_Init
  0000d	89 07		 mov	 DWORD PTR [edi], eax

; 316  : 		_Getgloballocale()->_Incref();

  0000f	e8 00 00 00 00	 call	 ?_Getgloballocale@locale@std@@CAPAV_Locimp@12@XZ ; std::locale::_Getgloballocale
  00014	6a 00		 push	 0
  00016	8d 4d fc	 lea	 ecx, DWORD PTR __Lock$209488[ebp]
  00019	8b f0		 mov	 esi, eax
  0001b	e8 00 00 00 00	 call	 ??0_Lockit@std@@QAE@H@Z	; std::_Lockit::_Lockit
  00020	8b 46 04	 mov	 eax, DWORD PTR [esi+4]
  00023	83 f8 ff	 cmp	 eax, -1
  00026	73 04		 jae	 SHORT $LN3@locale@2
  00028	40		 inc	 eax
  00029	89 46 04	 mov	 DWORD PTR [esi+4], eax
$LN3@locale@2:
  0002c	8d 4d fc	 lea	 ecx, DWORD PTR __Lock$209488[ebp]
  0002f	e8 00 00 00 00	 call	 ??1_Lockit@std@@QAE@XZ	; std::_Lockit::~_Lockit

; 317  : 		}

  00034	8b c7		 mov	 eax, edi
  00036	5f		 pop	 edi
  00037	5e		 pop	 esi
  00038	8b e5		 mov	 esp, ebp
  0003a	5d		 pop	 ebp
  0003b	c3		 ret	 0
??0locale@std@@QAE@XZ ENDP				; std::locale::locale
_TEXT	ENDS
PUBLIC	??1locale@std@@QAE@XZ				; std::locale::~locale
; Function compile flags: /Ogtp
;	COMDAT ??1locale@std@@QAE@XZ
_TEXT	SEGMENT
__Lock$209502 = -4					; size = 4
??1locale@std@@QAE@XZ PROC				; std::locale::~locale, COMDAT
; _this$ = ecx

; 409  : 		{	// destroy the object

  00000	55		 push	 ebp
  00001	8b ec		 mov	 ebp, esp
  00003	51		 push	 ecx
  00004	57		 push	 edi

; 410  : 		if (_Ptr != 0)

  00005	8b 39		 mov	 edi, DWORD PTR [ecx]
  00007	85 ff		 test	 edi, edi
  00009	74 3b		 je	 SHORT $LN4@locale@3

; 411  : 			_DELETE_CRT(_Ptr->_Decref());

  0000b	6a 00		 push	 0
  0000d	8d 4d fc	 lea	 ecx, DWORD PTR __Lock$209502[ebp]
  00010	e8 00 00 00 00	 call	 ??0_Lockit@std@@QAE@H@Z	; std::_Lockit::_Lockit
  00015	8b 47 04	 mov	 eax, DWORD PTR [edi+4]
  00018	85 c0		 test	 eax, eax
  0001a	74 09		 je	 SHORT $LN6@locale@3
  0001c	83 f8 ff	 cmp	 eax, -1
  0001f	73 04		 jae	 SHORT $LN6@locale@3
  00021	48		 dec	 eax
  00022	89 47 04	 mov	 DWORD PTR [edi+4], eax
$LN6@locale@3:
  00025	56		 push	 esi
  00026	8b 77 04	 mov	 esi, DWORD PTR [edi+4]
  00029	f7 de		 neg	 esi
  0002b	1b f6		 sbb	 esi, esi
  0002d	8d 4d fc	 lea	 ecx, DWORD PTR __Lock$209502[ebp]
  00030	f7 d6		 not	 esi
  00032	e8 00 00 00 00	 call	 ??1_Lockit@std@@QAE@XZ	; std::_Lockit::~_Lockit
  00037	23 f7		 and	 esi, edi
  00039	74 0a		 je	 SHORT $LN9@locale@3
  0003b	8b 06		 mov	 eax, DWORD PTR [esi]
  0003d	8b 10		 mov	 edx, DWORD PTR [eax]
  0003f	6a 01		 push	 1
  00041	8b ce		 mov	 ecx, esi
  00043	ff d2		 call	 edx
$LN9@locale@3:
  00045	5e		 pop	 esi
$LN4@locale@3:
  00046	5f		 pop	 edi

; 412  : 		}

  00047	8b e5		 mov	 esp, ebp
  00049	5d		 pop	 ebp
  0004a	c3		 ret	 0
??1locale@std@@QAE@XZ ENDP				; std::locale::~locale
_TEXT	ENDS
PUBLIC	?_Getfacet@locale@std@@QBEPBVfacet@12@I@Z	; std::locale::_Getfacet
; Function compile flags: /Ogtp
;	COMDAT ?_Getfacet@locale@std@@QBEPBVfacet@12@I@Z
_TEXT	SEGMENT
__Id$ = 8						; size = 4
?_Getfacet@locale@std@@QBEPBVfacet@12@I@Z PROC		; std::locale::_Getfacet, COMDAT
; _this$ = ecx

; 436  : 		{	// look up a facet in locale object

  00000	55		 push	 ebp
  00001	8b ec		 mov	 ebp, esp

; 437  : 		const facet *_Facptr = _Id < _Ptr->_Facetcount
; 438  : 			? _Ptr->_Facetvec[_Id] : 0;	// null if id off end

  00003	8b 09		 mov	 ecx, DWORD PTR [ecx]
  00005	56		 push	 esi
  00006	8b 75 08	 mov	 esi, DWORD PTR __Id$[ebp]
  00009	3b 71 0c	 cmp	 esi, DWORD PTR [ecx+12]
  0000c	73 25		 jae	 SHORT $LN6@Getfacet
  0000e	8b 41 08	 mov	 eax, DWORD PTR [ecx+8]
  00011	8b 04 b0	 mov	 eax, DWORD PTR [eax+esi*4]

; 439  : 		if (_Facptr != 0 || !_Ptr->_Xparent)

  00014	85 c0		 test	 eax, eax
  00016	75 21		 jne	 SHORT $LN1@Getfacet
$LN10@Getfacet:
  00018	80 79 14 00	 cmp	 BYTE PTR [ecx+20], 0
  0001c	74 1b		 je	 SHORT $LN1@Getfacet

; 440  : 			return (_Facptr);	// found facet or not transparent
; 441  : 		else
; 442  : 			{	// look in current locale
; 443  : 			locale::_Locimp *_Ptr = _Getgloballocale();

  0001e	e8 00 00 00 00	 call	 ?_Getgloballocale@locale@std@@CAPAV_Locimp@12@XZ ; std::locale::_Getgloballocale

; 444  : 			return (_Id < _Ptr->_Facetcount
; 445  : 				? _Ptr->_Facetvec[_Id]	// get from current locale
; 446  : 				: 0);	// no entry in current locale

  00023	3b 70 0c	 cmp	 esi, DWORD PTR [eax+12]
  00026	73 0f		 jae	 SHORT $LN8@Getfacet
  00028	8b 48 08	 mov	 ecx, DWORD PTR [eax+8]
  0002b	8b 04 b1	 mov	 eax, DWORD PTR [ecx+esi*4]
  0002e	5e		 pop	 esi

; 447  : 			}
; 448  : 		}

  0002f	5d		 pop	 ebp
  00030	c2 04 00	 ret	 4
$LN6@Getfacet:

; 437  : 		const facet *_Facptr = _Id < _Ptr->_Facetcount
; 438  : 			? _Ptr->_Facetvec[_Id] : 0;	// null if id off end

  00033	33 c0		 xor	 eax, eax

; 439  : 		if (_Facptr != 0 || !_Ptr->_Xparent)

  00035	eb e1		 jmp	 SHORT $LN10@Getfacet
$LN8@Getfacet:

; 444  : 			return (_Id < _Ptr->_Facetcount
; 445  : 				? _Ptr->_Facetvec[_Id]	// get from current locale
; 446  : 				: 0);	// no entry in current locale

  00037	33 c0		 xor	 eax, eax
$LN1@Getfacet:
  00039	5e		 pop	 esi

; 447  : 			}
; 448  : 		}

  0003a	5d		 pop	 ebp
  0003b	c2 04 00	 ret	 4
?_Getfacet@locale@std@@QBEPBVfacet@12@I@Z ENDP		; std::locale::_Getfacet
; Function compile flags: /Ogtp
_TEXT	ENDS
;	COMDAT ??_Gfacet@locale@std@@UAEPAXI@Z
_TEXT	SEGMENT
___flags$ = 8						; size = 4
??_Gfacet@locale@std@@UAEPAXI@Z PROC			; std::locale::facet::`scalar deleting destructor', COMDAT
; _this$ = ecx
  00000	55		 push	 ebp
  00001	8b ec		 mov	 ebp, esp
  00003	f6 45 08 01	 test	 BYTE PTR ___flags$[ebp], 1
  00007	56		 push	 esi
  00008	8b f1		 mov	 esi, ecx
  0000a	c7 06 00 00 00
	00		 mov	 DWORD PTR [esi], OFFSET ??_7facet@locale@std@@6B@
  00010	74 09		 je	 SHORT $LN6@scalar@2
  00012	56		 push	 esi
  00013	e8 00 00 00 00	 call	 ??3@YAXPAX@Z		; operator delete
  00018	83 c4 04	 add	 esp, 4
$LN6@scalar@2:
  0001b	8b c6		 mov	 eax, esi
  0001d	5e		 pop	 esi
  0001e	5d		 pop	 ebp
  0001f	c2 04 00	 ret	 4
??_Gfacet@locale@std@@UAEPAXI@Z ENDP			; std::locale::facet::`scalar deleting destructor'
_TEXT	ENDS
PUBLIC	??_7codecvt_base@std@@6B@			; std::codecvt_base::`vftable'
PUBLIC	??0codecvt_base@std@@QAE@I@Z			; std::codecvt_base::codecvt_base
PUBLIC	??_R4codecvt_base@std@@6B@			; std::codecvt_base::`RTTI Complete Object Locator'
PUBLIC	??_R0?AVcodecvt_base@std@@@8			; std::codecvt_base `RTTI Type Descriptor'
PUBLIC	??_R3codecvt_base@std@@8			; std::codecvt_base::`RTTI Class Hierarchy Descriptor'
PUBLIC	??_R2codecvt_base@std@@8			; std::codecvt_base::`RTTI Base Class Array'
PUBLIC	??_R1A@?0A@EA@codecvt_base@std@@8		; std::codecvt_base::`RTTI Base Class Descriptor at (0,-1,0,64)'
PUBLIC	?do_always_noconv@codecvt_base@std@@MBE_NXZ	; std::codecvt_base::do_always_noconv
PUBLIC	?do_max_length@codecvt_base@std@@MBEHXZ		; std::codecvt_base::do_max_length
PUBLIC	?do_encoding@codecvt_base@std@@MBEHXZ		; std::codecvt_base::do_encoding
EXTRN	??_Ecodecvt_base@std@@UAEPAXI@Z:PROC		; std::codecvt_base::`vector deleting destructor'
;	COMDAT ??_R1A@?0A@EA@codecvt_base@std@@8
rdata$r	SEGMENT
??_R1A@?0A@EA@codecvt_base@std@@8 DD FLAT:??_R0?AVcodecvt_base@std@@@8 ; std::codecvt_base::`RTTI Base Class Descriptor at (0,-1,0,64)'
	DD	01H
	DD	00H
	DD	0ffffffffH
	DD	00H
	DD	040H
	DD	FLAT:??_R3codecvt_base@std@@8
rdata$r	ENDS
;	COMDAT ??_R2codecvt_base@std@@8
rdata$r	SEGMENT
??_R2codecvt_base@std@@8 DD FLAT:??_R1A@?0A@EA@codecvt_base@std@@8 ; std::codecvt_base::`RTTI Base Class Array'
	DD	FLAT:??_R1A@?0A@EA@facet@locale@std@@8
rdata$r	ENDS
;	COMDAT ??_R3codecvt_base@std@@8
rdata$r	SEGMENT
??_R3codecvt_base@std@@8 DD 00H				; std::codecvt_base::`RTTI Class Hierarchy Descriptor'
	DD	00H
	DD	02H
	DD	FLAT:??_R2codecvt_base@std@@8
rdata$r	ENDS
;	COMDAT ??_R0?AVcodecvt_base@std@@@8
_DATA	SEGMENT
??_R0?AVcodecvt_base@std@@@8 DD FLAT:??_7type_info@@6B@	; std::codecvt_base `RTTI Type Descriptor'
	DD	00H
	DB	'.?AVcodecvt_base@std@@', 00H
_DATA	ENDS
;	COMDAT ??_R4codecvt_base@std@@6B@
rdata$r	SEGMENT
??_R4codecvt_base@std@@6B@ DD 00H			; std::codecvt_base::`RTTI Complete Object Locator'
	DD	00H
	DD	00H
	DD	FLAT:??_R0?AVcodecvt_base@std@@@8
	DD	FLAT:??_R3codecvt_base@std@@8
rdata$r	ENDS
;	COMDAT ??_7codecvt_base@std@@6B@
CONST	SEGMENT
??_7codecvt_base@std@@6B@ DD FLAT:??_R4codecvt_base@std@@6B@ ; std::codecvt_base::`vftable'
	DD	FLAT:??_Ecodecvt_base@std@@UAEPAXI@Z
	DD	FLAT:?do_always_noconv@codecvt_base@std@@MBE_NXZ
	DD	FLAT:?do_max_length@codecvt_base@std@@MBEHXZ
	DD	FLAT:?do_encoding@codecvt_base@std@@MBEHXZ
; Function compile flags: /Ogtp
CONST	ENDS
;	COMDAT ??0codecvt_base@std@@QAE@I@Z
_TEXT	SEGMENT
__Refs$ = 8						; size = 4
??0codecvt_base@std@@QAE@I@Z PROC			; std::codecvt_base::codecvt_base, COMDAT
; _this$ = ecx

; 752  : 		{	// default constructor

  00000	55		 push	 ebp
  00001	8b ec		 mov	 ebp, esp
  00003	8b c1		 mov	 eax, ecx
  00005	8b 4d 08	 mov	 ecx, DWORD PTR __Refs$[ebp]
  00008	89 48 04	 mov	 DWORD PTR [eax+4], ecx
  0000b	c7 00 00 00 00
	00		 mov	 DWORD PTR [eax], OFFSET ??_7codecvt_base@std@@6B@

; 753  : 		}

  00011	5d		 pop	 ebp
  00012	c2 04 00	 ret	 4
??0codecvt_base@std@@QAE@I@Z ENDP			; std::codecvt_base::codecvt_base
_TEXT	ENDS
PUBLIC	?always_noconv@codecvt_base@std@@QBE_NXZ	; std::codecvt_base::always_noconv
; Function compile flags: /Ogtp
;	COMDAT ?always_noconv@codecvt_base@std@@QBE_NXZ
_TEXT	SEGMENT
?always_noconv@codecvt_base@std@@QBE_NXZ PROC		; std::codecvt_base::always_noconv, COMDAT
; _this$ = ecx

; 757  : 		return (do_always_noconv());

  00000	8b 01		 mov	 eax, DWORD PTR [ecx]
  00002	8b 50 04	 mov	 edx, DWORD PTR [eax+4]
  00005	ff e2		 jmp	 edx
?always_noconv@codecvt_base@std@@QBE_NXZ ENDP		; std::codecvt_base::always_noconv
_TEXT	ENDS
PUBLIC	??1codecvt_base@std@@UAE@XZ			; std::codecvt_base::~codecvt_base
; Function compile flags: /Ogtp
;	COMDAT ??1codecvt_base@std@@UAE@XZ
_TEXT	SEGMENT
??1codecvt_base@std@@UAE@XZ PROC			; std::codecvt_base::~codecvt_base, COMDAT
; _this$ = ecx

; 772  : 		}

  00000	c7 01 00 00 00
	00		 mov	 DWORD PTR [ecx], OFFSET ??_7facet@locale@std@@6B@
  00006	c3		 ret	 0
??1codecvt_base@std@@UAE@XZ ENDP			; std::codecvt_base::~codecvt_base
; Function compile flags: /Ogtp
_TEXT	ENDS
;	COMDAT ?do_always_noconv@codecvt_base@std@@MBE_NXZ
_TEXT	SEGMENT
?do_always_noconv@codecvt_base@std@@MBE_NXZ PROC	; std::codecvt_base::do_always_noconv, COMDAT
; _this$ = ecx

; 777  : 		return (true);

  00000	b0 01		 mov	 al, 1

; 778  : 		}

  00002	c3		 ret	 0
?do_always_noconv@codecvt_base@std@@MBE_NXZ ENDP	; std::codecvt_base::do_always_noconv
; Function compile flags: /Ogtp
_TEXT	ENDS
;	COMDAT ?do_max_length@codecvt_base@std@@MBEHXZ
_TEXT	SEGMENT
?do_max_length@codecvt_base@std@@MBEHXZ PROC		; std::codecvt_base::do_max_length, COMDAT
; _this$ = ecx

; 782  : 		return (1);

  00000	b8 01 00 00 00	 mov	 eax, 1

; 783  : 		}

  00005	c3		 ret	 0
?do_max_length@codecvt_base@std@@MBEHXZ ENDP		; std::codecvt_base::do_max_length
; Function compile flags: /Ogtp
_TEXT	ENDS
;	COMDAT ?do_encoding@codecvt_base@std@@MBEHXZ
_TEXT	SEGMENT
?do_encoding@codecvt_base@std@@MBEHXZ PROC		; std::codecvt_base::do_encoding, COMDAT
; _this$ = ecx

; 787  : 		return (1);	// -1 ==> state dependent, 0 ==> varying length

  00000	b8 01 00 00 00	 mov	 eax, 1

; 788  : 		}

  00005	c3		 ret	 0
?do_encoding@codecvt_base@std@@MBEHXZ ENDP		; std::codecvt_base::do_encoding
; Function compile flags: /Ogtp
_TEXT	ENDS
;	COMDAT ??_Gcodecvt_base@std@@UAEPAXI@Z
_TEXT	SEGMENT
___flags$ = 8						; size = 4
??_Gcodecvt_base@std@@UAEPAXI@Z PROC			; std::codecvt_base::`scalar deleting destructor', COMDAT
; _this$ = ecx
  00000	55		 push	 ebp
  00001	8b ec		 mov	 ebp, esp
  00003	f6 45 08 01	 test	 BYTE PTR ___flags$[ebp], 1
  00007	56		 push	 esi
  00008	8b f1		 mov	 esi, ecx
  0000a	c7 06 00 00 00
	00		 mov	 DWORD PTR [esi], OFFSET ??_7facet@locale@std@@6B@
  00010	74 09		 je	 SHORT $LN8@scalar@3
  00012	56		 push	 esi
  00013	e8 00 00 00 00	 call	 ??3@YAXPAX@Z		; operator delete
  00018	83 c4 04	 add	 esp, 4
$LN8@scalar@3:
  0001b	8b c6		 mov	 eax, esi
  0001d	5e		 pop	 esi
  0001e	5d		 pop	 ebp
  0001f	c2 04 00	 ret	 4
??_Gcodecvt_base@std@@UAEPAXI@Z ENDP			; std::codecvt_base::`scalar deleting destructor'
_TEXT	ENDS
PUBLIC	??_7ctype_base@std@@6B@				; std::ctype_base::`vftable'
PUBLIC	??0ctype_base@std@@QAE@I@Z			; std::ctype_base::ctype_base
PUBLIC	??_R4ctype_base@std@@6B@			; std::ctype_base::`RTTI Complete Object Locator'
PUBLIC	??_R0?AUctype_base@std@@@8			; std::ctype_base `RTTI Type Descriptor'
PUBLIC	??_R3ctype_base@std@@8				; std::ctype_base::`RTTI Class Hierarchy Descriptor'
PUBLIC	??_R2ctype_base@std@@8				; std::ctype_base::`RTTI Base Class Array'
PUBLIC	??_R1A@?0A@EA@ctype_base@std@@8			; std::ctype_base::`RTTI Base Class Descriptor at (0,-1,0,64)'
EXTRN	??_Ectype_base@std@@UAEPAXI@Z:PROC		; std::ctype_base::`vector deleting destructor'
;	COMDAT ??_R1A@?0A@EA@ctype_base@std@@8
rdata$r	SEGMENT
??_R1A@?0A@EA@ctype_base@std@@8 DD FLAT:??_R0?AUctype_base@std@@@8 ; std::ctype_base::`RTTI Base Class Descriptor at (0,-1,0,64)'
	DD	01H
	DD	00H
	DD	0ffffffffH
	DD	00H
	DD	040H
	DD	FLAT:??_R3ctype_base@std@@8
rdata$r	ENDS
;	COMDAT ??_R2ctype_base@std@@8
rdata$r	SEGMENT
??_R2ctype_base@std@@8 DD FLAT:??_R1A@?0A@EA@ctype_base@std@@8 ; std::ctype_base::`RTTI Base Class Array'
	DD	FLAT:??_R1A@?0A@EA@facet@locale@std@@8
rdata$r	ENDS
;	COMDAT ??_R3ctype_base@std@@8
rdata$r	SEGMENT
??_R3ctype_base@std@@8 DD 00H				; std::ctype_base::`RTTI Class Hierarchy Descriptor'
	DD	00H
	DD	02H
	DD	FLAT:??_R2ctype_base@std@@8
rdata$r	ENDS
;	COMDAT ??_R0?AUctype_base@std@@@8
_DATA	SEGMENT
??_R0?AUctype_base@std@@@8 DD FLAT:??_7type_info@@6B@	; std::ctype_base `RTTI Type Descriptor'
	DD	00H
	DB	'.?AUctype_base@std@@', 00H
_DATA	ENDS
;	COMDAT ??_R4ctype_base@std@@6B@
rdata$r	SEGMENT
??_R4ctype_base@std@@6B@ DD 00H				; std::ctype_base::`RTTI Complete Object Locator'
	DD	00H
	DD	00H
	DD	FLAT:??_R0?AUctype_base@std@@@8
	DD	FLAT:??_R3ctype_base@std@@8
rdata$r	ENDS
;	COMDAT ??_7ctype_base@std@@6B@
CONST	SEGMENT
??_7ctype_base@std@@6B@ DD FLAT:??_R4ctype_base@std@@6B@ ; std::ctype_base::`vftable'
	DD	FLAT:??_Ectype_base@std@@UAEPAXI@Z
; Function compile flags: /Ogtp
CONST	ENDS
;	COMDAT ??0ctype_base@std@@QAE@I@Z
_TEXT	SEGMENT
__Refs$ = 8						; size = 4
??0ctype_base@std@@QAE@I@Z PROC				; std::ctype_base::ctype_base, COMDAT
; _this$ = ecx

; 2011 : 		{	// default constructor

  00000	55		 push	 ebp
  00001	8b ec		 mov	 ebp, esp
  00003	8b c1		 mov	 eax, ecx
  00005	8b 4d 08	 mov	 ecx, DWORD PTR __Refs$[ebp]
  00008	89 48 04	 mov	 DWORD PTR [eax+4], ecx
  0000b	c7 00 00 00 00
	00		 mov	 DWORD PTR [eax], OFFSET ??_7ctype_base@std@@6B@

; 2012 : 		}

  00011	5d		 pop	 ebp
  00012	c2 04 00	 ret	 4
??0ctype_base@std@@QAE@I@Z ENDP				; std::ctype_base::ctype_base
_TEXT	ENDS
PUBLIC	??1ctype_base@std@@UAE@XZ			; std::ctype_base::~ctype_base
; Function compile flags: /Ogtp
;	COMDAT ??1ctype_base@std@@UAE@XZ
_TEXT	SEGMENT
??1ctype_base@std@@UAE@XZ PROC				; std::ctype_base::~ctype_base, COMDAT
; _this$ = ecx

; 2016 : 		}

  00000	c7 01 00 00 00
	00		 mov	 DWORD PTR [ecx], OFFSET ??_7facet@locale@std@@6B@
  00006	c3		 ret	 0
??1ctype_base@std@@UAE@XZ ENDP				; std::ctype_base::~ctype_base
; Function compile flags: /Ogtp
_TEXT	ENDS
;	COMDAT ??_Gctype_base@std@@UAEPAXI@Z
_TEXT	SEGMENT
___flags$ = 8						; size = 4
??_Gctype_base@std@@UAEPAXI@Z PROC			; std::ctype_base::`scalar deleting destructor', COMDAT
; _this$ = ecx
  00000	55		 push	 ebp
  00001	8b ec		 mov	 ebp, esp
  00003	f6 45 08 01	 test	 BYTE PTR ___flags$[ebp], 1
  00007	56		 push	 esi
  00008	8b f1		 mov	 esi, ecx
  0000a	c7 06 00 00 00
	00		 mov	 DWORD PTR [esi], OFFSET ??_7facet@locale@std@@6B@
  00010	74 09		 je	 SHORT $LN8@scalar@4
  00012	56		 push	 esi
  00013	e8 00 00 00 00	 call	 ??3@YAXPAX@Z		; operator delete
  00018	83 c4 04	 add	 esp, 4
$LN8@scalar@4:
  0001b	8b c6		 mov	 eax, esi
  0001d	5e		 pop	 esi
  0001e	5d		 pop	 ebp
  0001f	c2 04 00	 ret	 4
??_Gctype_base@std@@UAEPAXI@Z ENDP			; std::ctype_base::`scalar deleting destructor'
_TEXT	ENDS
PUBLIC	?widen@?$ctype@D@std@@QBEDD@Z			; std::ctype<char>::widen
; Function compile flags: /Ogtp
;	COMDAT ?widen@?$ctype@D@std@@QBEDD@Z
_TEXT	SEGMENT
__Byte$ = 8						; size = 1
?widen@?$ctype@D@std@@QBEDD@Z PROC			; std::ctype<char>::widen, COMDAT
; _this$ = ecx

; 2324 : 		{	// widen char

  00000	55		 push	 ebp
  00001	8b ec		 mov	 ebp, esp

; 2325 : 		return (do_widen(_Byte));

  00003	8b 01		 mov	 eax, DWORD PTR [ecx]
  00005	8b 40 18	 mov	 eax, DWORD PTR [eax+24]

; 2326 : 		}

  00008	5d		 pop	 ebp

; 2325 : 		return (do_widen(_Byte));

  00009	ff e0		 jmp	 eax
?widen@?$ctype@D@std@@QBEDD@Z ENDP			; std::ctype<char>::widen
_TEXT	ENDS
PUBLIC	?_Init@?$ctype@D@std@@IAEXABV_Locinfo@2@@Z	; std::ctype<char>::_Init
; Function compile flags: /Ogtp
;	COMDAT ?_Init@?$ctype@D@std@@IAEXABV_Locinfo@2@@Z
_TEXT	SEGMENT
$T209592 = -16						; size = 16
__Lobj$ = 8						; size = 4
?_Init@?$ctype@D@std@@IAEXABV_Locinfo@2@@Z PROC		; std::ctype<char>::_Init, COMDAT
; _this$ = ecx

; 2399 : 		{	// initialize from _Lobj

  00000	55		 push	 ebp
  00001	8b ec		 mov	 ebp, esp
  00003	83 ec 10	 sub	 esp, 16			; 00000010H
  00006	56		 push	 esi

; 2400 : 		_Ctype = _Lobj._Getctype();

  00007	8d 45 f0	 lea	 eax, DWORD PTR $T209592[ebp]
  0000a	50		 push	 eax
  0000b	8b f1		 mov	 esi, ecx
  0000d	e8 00 00 00 00	 call	 __Getctype
  00012	8b 08		 mov	 ecx, DWORD PTR [eax]
  00014	89 4e 08	 mov	 DWORD PTR [esi+8], ecx
  00017	8b 50 04	 mov	 edx, DWORD PTR [eax+4]
  0001a	89 56 0c	 mov	 DWORD PTR [esi+12], edx
  0001d	8b 48 08	 mov	 ecx, DWORD PTR [eax+8]
  00020	89 4e 10	 mov	 DWORD PTR [esi+16], ecx
  00023	8b 50 0c	 mov	 edx, DWORD PTR [eax+12]
  00026	83 c4 04	 add	 esp, 4
  00029	89 56 14	 mov	 DWORD PTR [esi+20], edx
  0002c	5e		 pop	 esi

; 2401 : 		}

  0002d	8b e5		 mov	 esp, ebp
  0002f	5d		 pop	 ebp
  00030	c2 04 00	 ret	 4
?_Init@?$ctype@D@std@@IAEXABV_Locinfo@2@@Z ENDP		; std::ctype<char>::_Init
_TEXT	ENDS
PUBLIC	??0error_code@std@@QAE@HABVerror_category@1@@Z	; std::error_code::error_code
; Function compile flags: /Ogtp
; File d:\program files (x86)\microsoft visual studio 10.0\vc\include\system_error
;	COMDAT ??0error_code@std@@QAE@HABVerror_category@1@@Z
_TEXT	SEGMENT
__Val$ = 8						; size = 4
__Cat$ = 12						; size = 4
??0error_code@std@@QAE@HABVerror_category@1@@Z PROC	; std::error_code::error_code, COMDAT
; _this$ = ecx

; 204  : 		{	// construct from error code and category

  00000	55		 push	 ebp
  00001	8b ec		 mov	 ebp, esp
  00003	8b 55 0c	 mov	 edx, DWORD PTR __Cat$[ebp]
  00006	8b c1		 mov	 eax, ecx
  00008	8b 4d 08	 mov	 ecx, DWORD PTR __Val$[ebp]
  0000b	89 08		 mov	 DWORD PTR [eax], ecx
  0000d	89 50 04	 mov	 DWORD PTR [eax+4], edx

; 205  : 		}

  00010	5d		 pop	 ebp
  00011	c2 08 00	 ret	 8
??0error_code@std@@QAE@HABVerror_category@1@@Z ENDP	; std::error_code::error_code
_TEXT	ENDS
PUBLIC	?make_error_code@std@@YA?AVerror_code@1@W4io_errc@31@@Z ; std::make_error_code
EXTRN	?iostream_category@std@@YAABVerror_category@1@XZ:PROC ; std::iostream_category
; Function compile flags: /Ogtp
;	COMDAT ?make_error_code@std@@YA?AVerror_code@1@W4io_errc@31@@Z
_TEXT	SEGMENT
___$ReturnUdt$ = 8					; size = 4
__Errno$ = 12						; size = 4
?make_error_code@std@@YA?AVerror_code@1@W4io_errc@31@@Z PROC ; std::make_error_code, COMDAT

; 446  : 	{	// make an error_code

  00000	55		 push	 ebp
  00001	8b ec		 mov	 ebp, esp

; 447  : 	return (error_code(_Errno, iostream_category()));

  00003	e8 00 00 00 00	 call	 ?iostream_category@std@@YAABVerror_category@1@XZ ; std::iostream_category
  00008	8b 55 0c	 mov	 edx, DWORD PTR __Errno$[ebp]
  0000b	8b c8		 mov	 ecx, eax
  0000d	8b 45 08	 mov	 eax, DWORD PTR ___$ReturnUdt$[ebp]
  00010	89 10		 mov	 DWORD PTR [eax], edx
  00012	89 48 04	 mov	 DWORD PTR [eax+4], ecx

; 448  : 	}

  00015	5d		 pop	 ebp
  00016	c3		 ret	 0
?make_error_code@std@@YA?AVerror_code@1@W4io_errc@31@@Z ENDP ; std::make_error_code
_TEXT	ENDS
PUBLIC	?_Makestr@system_error@std@@AAEXXZ		; std::system_error::_Makestr
; Function compile flags: /Ogtp
;	COMDAT ?_Makestr@system_error@std@@AAEXXZ
_TEXT	SEGMENT
?_Makestr@system_error@std@@AAEXXZ PROC			; std::system_error::_Makestr, COMDAT
; _this$ = ecx

; 563  : //		_Mymes = this->runtime_error::what();
; 564  : //		if (!_Mymes.empty())
; 565  : //			_Mymes.append(": ");
; 566  : //		_Mymes.append(_Mycode.message());
; 567  : 		}

  00000	c3		 ret	 0
?_Makestr@system_error@std@@AAEXXZ ENDP			; std::system_error::_Makestr
_TEXT	ENDS
PUBLIC	??1system_error@std@@UAE@XZ			; std::system_error::~system_error
; Function compile flags: /Ogtp
;	COMDAT ??1system_error@std@@UAE@XZ
_TEXT	SEGMENT
??1system_error@std@@UAE@XZ PROC			; std::system_error::~system_error, COMDAT
; _this$ = ecx
  00000	e9 00 00 00 00	 jmp	 ??1exception@std@@UAE@XZ ; std::exception::~exception
??1system_error@std@@UAE@XZ ENDP			; std::system_error::~system_error
_TEXT	ENDS
PUBLIC	?rdstate@ios_base@std@@QBEHXZ			; std::ios_base::rdstate
; Function compile flags: /Ogtp
; File d:\program files (x86)\microsoft visual studio 10.0\vc\include\xiosbase
;	COMDAT ?rdstate@ios_base@std@@QBEHXZ
_TEXT	SEGMENT
?rdstate@ios_base@std@@QBEHXZ PROC			; std::ios_base::rdstate, COMDAT
; _this$ = ecx

; 336  : 		return (_Mystate);

  00000	8b 41 0c	 mov	 eax, DWORD PTR [ecx+12]

; 337  : 		}

  00003	c3		 ret	 0
?rdstate@ios_base@std@@QBEHXZ ENDP			; std::ios_base::rdstate
_TEXT	ENDS
PUBLIC	?good@ios_base@std@@QBE_NXZ			; std::ios_base::good
; Function compile flags: /Ogtp
;	COMDAT ?good@ios_base@std@@QBE_NXZ
_TEXT	SEGMENT
?good@ios_base@std@@QBE_NXZ PROC			; std::ios_base::good, COMDAT
; _this$ = ecx

; 358  : 		return (rdstate() == goodbit);

  00000	33 c0		 xor	 eax, eax
  00002	39 41 0c	 cmp	 DWORD PTR [ecx+12], eax
  00005	0f 94 c0	 sete	 al

; 359  : 		}

  00008	c3		 ret	 0
?good@ios_base@std@@QBE_NXZ ENDP			; std::ios_base::good
_TEXT	ENDS
PUBLIC	?fail@ios_base@std@@QBE_NXZ			; std::ios_base::fail
; Function compile flags: /Ogtp
;	COMDAT ?fail@ios_base@std@@QBE_NXZ
_TEXT	SEGMENT
?fail@ios_base@std@@QBE_NXZ PROC			; std::ios_base::fail, COMDAT
; _this$ = ecx

; 368  : 		return (((int)rdstate()
; 369  : 			& ((int)badbit | (int)failbit)) != 0);

  00000	f6 41 0c 06	 test	 BYTE PTR [ecx+12], 6
  00004	b8 00 00 00 00	 mov	 eax, 0
  00009	0f 95 c0	 setne	 al

; 370  : 		}

  0000c	c3		 ret	 0
?fail@ios_base@std@@QBE_NXZ ENDP			; std::ios_base::fail
_TEXT	ENDS
PUBLIC	?flags@ios_base@std@@QBEHXZ			; std::ios_base::flags
; Function compile flags: /Ogtp
;	COMDAT ?flags@ios_base@std@@QBEHXZ
_TEXT	SEGMENT
?flags@ios_base@std@@QBEHXZ PROC			; std::ios_base::flags, COMDAT
; _this$ = ecx

; 395  : 		return (_Fmtfl);

  00000	8b 41 14	 mov	 eax, DWORD PTR [ecx+20]

; 396  : 		}

  00003	c3		 ret	 0
?flags@ios_base@std@@QBEHXZ ENDP			; std::ios_base::flags
_TEXT	ENDS
PUBLIC	?width@ios_base@std@@QBE_JXZ			; std::ios_base::width
; Function compile flags: /Ogtp
;	COMDAT ?width@ios_base@std@@QBE_JXZ
_TEXT	SEGMENT
?width@ios_base@std@@QBE_JXZ PROC			; std::ios_base::width, COMDAT
; _this$ = ecx

; 440  : 		return (_Wide);

  00000	8b 41 20	 mov	 eax, DWORD PTR [ecx+32]
  00003	8b 51 24	 mov	 edx, DWORD PTR [ecx+36]

; 441  : 		}

  00006	c3		 ret	 0
?width@ios_base@std@@QBE_JXZ ENDP			; std::ios_base::width
_TEXT	ENDS
PUBLIC	?width@ios_base@std@@QAE_J_J@Z			; std::ios_base::width
; Function compile flags: /Ogtp
;	COMDAT ?width@ios_base@std@@QAE_J_J@Z
_TEXT	SEGMENT
__Newwidth$ = 8						; size = 8
?width@ios_base@std@@QAE_J_J@Z PROC			; std::ios_base::width, COMDAT
; _this$ = ecx

; 444  : 		{	// set width to argument

  00000	55		 push	 ebp
  00001	8b ec		 mov	 ebp, esp

; 445  : 		streamsize _Oldwidth = _Wide;

  00003	8b 41 20	 mov	 eax, DWORD PTR [ecx+32]
  00006	8b 51 24	 mov	 edx, DWORD PTR [ecx+36]
  00009	56		 push	 esi

; 446  : 		_Wide = _Newwidth;

  0000a	8b 75 08	 mov	 esi, DWORD PTR __Newwidth$[ebp]
  0000d	89 71 20	 mov	 DWORD PTR [ecx+32], esi
  00010	8b 75 0c	 mov	 esi, DWORD PTR __Newwidth$[ebp+4]
  00013	89 71 24	 mov	 DWORD PTR [ecx+36], esi
  00016	5e		 pop	 esi

; 447  : 		return (_Oldwidth);
; 448  : 		}

  00017	5d		 pop	 ebp
  00018	c2 08 00	 ret	 8
?width@ios_base@std@@QAE_J_J@Z ENDP			; std::ios_base::width
_TEXT	ENDS
PUBLIC	?getloc@ios_base@std@@QBE?AVlocale@2@XZ		; std::ios_base::getloc
; Function compile flags: /Ogtp
;	COMDAT ?getloc@ios_base@std@@QBE?AVlocale@2@XZ
_TEXT	SEGMENT
$T209641 = -4						; size = 4
__Lock$209653 = 8					; size = 4
___$ReturnUdt$ = 8					; size = 4
?getloc@ios_base@std@@QBE?AVlocale@2@XZ PROC		; std::ios_base::getloc, COMDAT
; _this$ = ecx

; 451  : 		{	// get locale

  00000	55		 push	 ebp
  00001	8b ec		 mov	 ebp, esp
  00003	51		 push	 ecx

; 452  : 		return (*_Ploc);

  00004	8b 41 30	 mov	 eax, DWORD PTR [ecx+48]
  00007	56		 push	 esi
  00008	8b 30		 mov	 esi, DWORD PTR [eax]
  0000a	57		 push	 edi
  0000b	8b 7d 08	 mov	 edi, DWORD PTR ___$ReturnUdt$[ebp]
  0000e	6a 00		 push	 0
  00010	8d 4d 08	 lea	 ecx, DWORD PTR __Lock$209653[ebp]
  00013	c7 45 fc 00 00
	00 00		 mov	 DWORD PTR $T209641[ebp], 0
  0001a	89 37		 mov	 DWORD PTR [edi], esi
  0001c	e8 00 00 00 00	 call	 ??0_Lockit@std@@QAE@H@Z	; std::_Lockit::_Lockit
  00021	8b 46 04	 mov	 eax, DWORD PTR [esi+4]
  00024	83 f8 ff	 cmp	 eax, -1
  00027	73 04		 jae	 SHORT $LN7@getloc
  00029	40		 inc	 eax
  0002a	89 46 04	 mov	 DWORD PTR [esi+4], eax
$LN7@getloc:
  0002d	8d 4d 08	 lea	 ecx, DWORD PTR __Lock$209653[ebp]
  00030	e8 00 00 00 00	 call	 ??1_Lockit@std@@QAE@XZ	; std::_Lockit::~_Lockit
  00035	8b c7		 mov	 eax, edi
  00037	5f		 pop	 edi
  00038	5e		 pop	 esi

; 453  : 		}

  00039	8b e5		 mov	 esp, ebp
  0003b	5d		 pop	 ebp
  0003c	c2 04 00	 ret	 4
?getloc@ios_base@std@@QBE?AVlocale@2@XZ ENDP		; std::ios_base::getloc
_TEXT	ENDS
PUBLIC	??_7ios_base@std@@6B@				; std::ios_base::`vftable'
PUBLIC	??1ios_base@std@@UAE@XZ				; std::ios_base::~ios_base
PUBLIC	??_R4ios_base@std@@6B@				; std::ios_base::`RTTI Complete Object Locator'
PUBLIC	??_R0?AVios_base@std@@@8			; std::ios_base `RTTI Type Descriptor'
PUBLIC	??_R3ios_base@std@@8				; std::ios_base::`RTTI Class Hierarchy Descriptor'
PUBLIC	??_R2ios_base@std@@8				; std::ios_base::`RTTI Base Class Array'
PUBLIC	??_R1A@?0A@EA@ios_base@std@@8			; std::ios_base::`RTTI Base Class Descriptor at (0,-1,0,64)'
PUBLIC	??_R17?0A@EA@?$_Iosb@H@std@@8			; std::_Iosb<int>::`RTTI Base Class Descriptor at (8,-1,0,64)'
PUBLIC	??_R0?AV?$_Iosb@H@std@@@8			; std::_Iosb<int> `RTTI Type Descriptor'
PUBLIC	??_R3?$_Iosb@H@std@@8				; std::_Iosb<int>::`RTTI Class Hierarchy Descriptor'
PUBLIC	??_R2?$_Iosb@H@std@@8				; std::_Iosb<int>::`RTTI Base Class Array'
PUBLIC	??_R1A@?0A@EA@?$_Iosb@H@std@@8			; std::_Iosb<int>::`RTTI Base Class Descriptor at (0,-1,0,64)'
EXTRN	?_Ios_base_dtor@ios_base@std@@CAXPAV12@@Z:PROC	; std::ios_base::_Ios_base_dtor
EXTRN	??_Eios_base@std@@UAEPAXI@Z:PROC		; std::ios_base::`vector deleting destructor'
;	COMDAT ??_R1A@?0A@EA@?$_Iosb@H@std@@8
rdata$r	SEGMENT
??_R1A@?0A@EA@?$_Iosb@H@std@@8 DD FLAT:??_R0?AV?$_Iosb@H@std@@@8 ; std::_Iosb<int>::`RTTI Base Class Descriptor at (0,-1,0,64)'
	DD	00H
	DD	00H
	DD	0ffffffffH
	DD	00H
	DD	040H
	DD	FLAT:??_R3?$_Iosb@H@std@@8
rdata$r	ENDS
;	COMDAT ??_R2?$_Iosb@H@std@@8
rdata$r	SEGMENT
??_R2?$_Iosb@H@std@@8 DD FLAT:??_R1A@?0A@EA@?$_Iosb@H@std@@8 ; std::_Iosb<int>::`RTTI Base Class Array'
rdata$r	ENDS
;	COMDAT ??_R3?$_Iosb@H@std@@8
rdata$r	SEGMENT
??_R3?$_Iosb@H@std@@8 DD 00H				; std::_Iosb<int>::`RTTI Class Hierarchy Descriptor'
	DD	00H
	DD	01H
	DD	FLAT:??_R2?$_Iosb@H@std@@8
rdata$r	ENDS
;	COMDAT ??_R0?AV?$_Iosb@H@std@@@8
_DATA	SEGMENT
??_R0?AV?$_Iosb@H@std@@@8 DD FLAT:??_7type_info@@6B@	; std::_Iosb<int> `RTTI Type Descriptor'
	DD	00H
	DB	'.?AV?$_Iosb@H@std@@', 00H
_DATA	ENDS
;	COMDAT ??_R17?0A@EA@?$_Iosb@H@std@@8
rdata$r	SEGMENT
??_R17?0A@EA@?$_Iosb@H@std@@8 DD FLAT:??_R0?AV?$_Iosb@H@std@@@8 ; std::_Iosb<int>::`RTTI Base Class Descriptor at (8,-1,0,64)'
	DD	00H
	DD	08H
	DD	0ffffffffH
	DD	00H
	DD	040H
	DD	FLAT:??_R3?$_Iosb@H@std@@8
rdata$r	ENDS
;	COMDAT ??_R1A@?0A@EA@ios_base@std@@8
rdata$r	SEGMENT
??_R1A@?0A@EA@ios_base@std@@8 DD FLAT:??_R0?AVios_base@std@@@8 ; std::ios_base::`RTTI Base Class Descriptor at (0,-1,0,64)'
	DD	01H
	DD	00H
	DD	0ffffffffH
	DD	00H
	DD	040H
	DD	FLAT:??_R3ios_base@std@@8
rdata$r	ENDS
;	COMDAT ??_R2ios_base@std@@8
rdata$r	SEGMENT
??_R2ios_base@std@@8 DD FLAT:??_R1A@?0A@EA@ios_base@std@@8 ; std::ios_base::`RTTI Base Class Array'
	DD	FLAT:??_R17?0A@EA@?$_Iosb@H@std@@8
rdata$r	ENDS
;	COMDAT ??_R3ios_base@std@@8
rdata$r	SEGMENT
??_R3ios_base@std@@8 DD 00H				; std::ios_base::`RTTI Class Hierarchy Descriptor'
	DD	00H
	DD	02H
	DD	FLAT:??_R2ios_base@std@@8
rdata$r	ENDS
;	COMDAT ??_R0?AVios_base@std@@@8
_DATA	SEGMENT
??_R0?AVios_base@std@@@8 DD FLAT:??_7type_info@@6B@	; std::ios_base `RTTI Type Descriptor'
	DD	00H
	DB	'.?AVios_base@std@@', 00H
_DATA	ENDS
;	COMDAT ??_R4ios_base@std@@6B@
rdata$r	SEGMENT
??_R4ios_base@std@@6B@ DD 00H				; std::ios_base::`RTTI Complete Object Locator'
	DD	00H
	DD	00H
	DD	FLAT:??_R0?AVios_base@std@@@8
	DD	FLAT:??_R3ios_base@std@@8
rdata$r	ENDS
;	COMDAT ??_7ios_base@std@@6B@
CONST	SEGMENT
??_7ios_base@std@@6B@ DD FLAT:??_R4ios_base@std@@6B@	; std::ios_base::`vftable'
	DD	FLAT:??_Eios_base@std@@UAEPAXI@Z
; Function compile flags: /Ogtp
CONST	ENDS
;	COMDAT ??1ios_base@std@@UAE@XZ
_TEXT	SEGMENT
??1ios_base@std@@UAE@XZ PROC				; std::ios_base::~ios_base, COMDAT
; _this$ = ecx

; 541  : 		_Ios_base_dtor(this);

  00000	51		 push	 ecx
  00001	c7 01 00 00 00
	00		 mov	 DWORD PTR [ecx], OFFSET ??_7ios_base@std@@6B@
  00007	e8 00 00 00 00	 call	 ?_Ios_base_dtor@ios_base@std@@CAXPAV12@@Z ; std::ios_base::_Ios_base_dtor
  0000c	59		 pop	 ecx

; 542  : 		}

  0000d	c3		 ret	 0
??1ios_base@std@@UAE@XZ ENDP				; std::ios_base::~ios_base
_TEXT	ENDS
PUBLIC	??0ios_base@std@@IAE@XZ				; std::ios_base::ios_base
; Function compile flags: /Ogtp
;	COMDAT ??0ios_base@std@@IAE@XZ
_TEXT	SEGMENT
??0ios_base@std@@IAE@XZ PROC				; std::ios_base::ios_base, COMDAT
; _this$ = ecx

; 549  : 	__CLR_OR_THIS_CALL ios_base()

  00000	8b c1		 mov	 eax, ecx
  00002	c7 00 00 00 00
	00		 mov	 DWORD PTR [eax], OFFSET ??_7ios_base@std@@6B@

; 550  : 		{	// default constructor
; 551  : 		}

  00008	c3		 ret	 0
??0ios_base@std@@IAE@XZ ENDP				; std::ios_base::ios_base
; Function compile flags: /Ogtp
_TEXT	ENDS
;	COMDAT ??_Gios_base@std@@UAEPAXI@Z
_TEXT	SEGMENT
___flags$ = 8						; size = 4
??_Gios_base@std@@UAEPAXI@Z PROC			; std::ios_base::`scalar deleting destructor', COMDAT
; _this$ = ecx
  00000	55		 push	 ebp
  00001	8b ec		 mov	 ebp, esp
  00003	56		 push	 esi
  00004	8b f1		 mov	 esi, ecx
  00006	56		 push	 esi
  00007	c7 06 00 00 00
	00		 mov	 DWORD PTR [esi], OFFSET ??_7ios_base@std@@6B@
  0000d	e8 00 00 00 00	 call	 ?_Ios_base_dtor@ios_base@std@@CAXPAV12@@Z ; std::ios_base::_Ios_base_dtor
  00012	83 c4 04	 add	 esp, 4
  00015	f6 45 08 01	 test	 BYTE PTR ___flags$[ebp], 1
  00019	74 09		 je	 SHORT $LN6@scalar@5
  0001b	56		 push	 esi
  0001c	e8 00 00 00 00	 call	 ??3@YAXPAX@Z		; operator delete
  00021	83 c4 04	 add	 esp, 4
$LN6@scalar@5:
  00024	8b c6		 mov	 eax, esi
  00026	5e		 pop	 esi
  00027	5d		 pop	 ebp
  00028	c2 04 00	 ret	 4
??_Gios_base@std@@UAEPAXI@Z ENDP			; std::ios_base::`scalar deleting destructor'
_TEXT	ENDS
PUBLIC	?size@?$basic_string@DU?$char_traits@D@std@@V?$allocator@D@2@@std@@QBEIXZ ; std::basic_string<char,std::char_traits<char>,std::allocator<char> >::size
; Function compile flags: /Ogtp
; File d:\program files (x86)\microsoft visual studio 10.0\vc\include\xstring
;	COMDAT ?size@?$basic_string@DU?$char_traits@D@std@@V?$allocator@D@2@@std@@QBEIXZ
_TEXT	SEGMENT
?size@?$basic_string@DU?$char_traits@D@std@@V?$allocator@D@2@@std@@QBEIXZ PROC ; std::basic_string<char,std::char_traits<char>,std::allocator<char> >::size, COMDAT
; _this$ = ecx

; 1512 : 		return (this->_Mysize);

  00000	8b 41 10	 mov	 eax, DWORD PTR [ecx+16]

; 1513 : 		}

  00003	c3		 ret	 0
?size@?$basic_string@DU?$char_traits@D@std@@V?$allocator@D@2@@std@@QBEIXZ ENDP ; std::basic_string<char,std::char_traits<char>,std::allocator<char> >::size
_TEXT	ENDS
PUBLIC	??0?$_Yarn@D@std@@QAE@XZ			; std::_Yarn<char>::_Yarn<char>
; Function compile flags: /Ogtp
; File d:\program files (x86)\microsoft visual studio 10.0\vc\include\xutility
;	COMDAT ??0?$_Yarn@D@std@@QAE@XZ
_TEXT	SEGMENT
??0?$_Yarn@D@std@@QAE@XZ PROC				; std::_Yarn<char>::_Yarn<char>, COMDAT
; _this$ = ecx

; 3315 : 		{	// default construct

  00000	8b c1		 mov	 eax, ecx
  00002	c7 00 00 00 00
	00		 mov	 DWORD PTR [eax], 0
  00008	c6 40 04 00	 mov	 BYTE PTR [eax+4], 0

; 3316 : 		}

  0000c	c3		 ret	 0
??0?$_Yarn@D@std@@QAE@XZ ENDP				; std::_Yarn<char>::_Yarn<char>
_TEXT	ENDS
PUBLIC	?c_str@?$_Yarn@D@std@@QBEPBDXZ			; std::_Yarn<char>::c_str
; Function compile flags: /Ogtp
;	COMDAT ?c_str@?$_Yarn@D@std@@QBEPBDXZ
_TEXT	SEGMENT
?c_str@?$_Yarn@D@std@@QBEPBDXZ PROC			; std::_Yarn<char>::c_str, COMDAT
; _this$ = ecx

; 3376 : 		return (_Myptr != 0 ? _Myptr : &_Nul);

  00000	8b 01		 mov	 eax, DWORD PTR [ecx]
  00002	85 c0		 test	 eax, eax
  00004	75 03		 jne	 SHORT $LN4@c_str
  00006	8d 41 04	 lea	 eax, DWORD PTR [ecx+4]
$LN4@c_str:

; 3377 : 		}

  00009	c3		 ret	 0
?c_str@?$_Yarn@D@std@@QBEPBDXZ ENDP			; std::_Yarn<char>::c_str
_TEXT	ENDS
PUBLIC	??_7?$basic_ostream@DU?$char_traits@D@std@@@std@@6B@ ; std::basic_ostream<char,std::char_traits<char> >::`vftable'
PUBLIC	??1?$basic_ostream@DU?$char_traits@D@std@@@std@@UAE@XZ ; std::basic_ostream<char,std::char_traits<char> >::~basic_ostream<char,std::char_traits<char> >
PUBLIC	??_R4?$basic_ostream@DU?$char_traits@D@std@@@std@@6B@ ; std::basic_ostream<char,std::char_traits<char> >::`RTTI Complete Object Locator'
PUBLIC	??_R0?AV?$basic_ostream@DU?$char_traits@D@std@@@std@@@8 ; std::basic_ostream<char,std::char_traits<char> > `RTTI Type Descriptor'
PUBLIC	??_R3?$basic_ostream@DU?$char_traits@D@std@@@std@@8 ; std::basic_ostream<char,std::char_traits<char> >::`RTTI Class Hierarchy Descriptor'
PUBLIC	??_R2?$basic_ostream@DU?$char_traits@D@std@@@std@@8 ; std::basic_ostream<char,std::char_traits<char> >::`RTTI Base Class Array'
PUBLIC	??_R1A@?0A@EA@?$basic_ostream@DU?$char_traits@D@std@@@std@@8 ; std::basic_ostream<char,std::char_traits<char> >::`RTTI Base Class Descriptor at (0,-1,0,64)'
PUBLIC	??_R1A@A@3FA@?$basic_ios@DU?$char_traits@D@std@@@std@@8 ; std::basic_ios<char,std::char_traits<char> >::`RTTI Base Class Descriptor at (0,0,4,80)'
PUBLIC	??_R0?AV?$basic_ios@DU?$char_traits@D@std@@@std@@@8 ; std::basic_ios<char,std::char_traits<char> > `RTTI Type Descriptor'
PUBLIC	??_R3?$basic_ios@DU?$char_traits@D@std@@@std@@8	; std::basic_ios<char,std::char_traits<char> >::`RTTI Class Hierarchy Descriptor'
PUBLIC	??_R2?$basic_ios@DU?$char_traits@D@std@@@std@@8	; std::basic_ios<char,std::char_traits<char> >::`RTTI Base Class Array'
PUBLIC	??_R1A@?0A@EA@?$basic_ios@DU?$char_traits@D@std@@@std@@8 ; std::basic_ios<char,std::char_traits<char> >::`RTTI Base Class Descriptor at (0,-1,0,64)'
PUBLIC	??_R1A@A@3EA@ios_base@std@@8			; std::ios_base::`RTTI Base Class Descriptor at (0,0,4,64)'
PUBLIC	??_R17A@3EA@?$_Iosb@H@std@@8			; std::_Iosb<int>::`RTTI Base Class Descriptor at (8,0,4,64)'
EXTRN	??_E?$basic_ostream@DU?$char_traits@D@std@@@std@@UAEPAXI@Z:PROC ; std::basic_ostream<char,std::char_traits<char> >::`vector deleting destructor'
;	COMDAT ??_R17A@3EA@?$_Iosb@H@std@@8
; File d:\program files (x86)\microsoft visual studio 10.0\vc\include\ostream
rdata$r	SEGMENT
??_R17A@3EA@?$_Iosb@H@std@@8 DD FLAT:??_R0?AV?$_Iosb@H@std@@@8 ; std::_Iosb<int>::`RTTI Base Class Descriptor at (8,0,4,64)'
	DD	00H
	DD	08H
	DD	00H
	DD	04H
	DD	040H
	DD	FLAT:??_R3?$_Iosb@H@std@@8
rdata$r	ENDS
;	COMDAT ??_R1A@A@3EA@ios_base@std@@8
rdata$r	SEGMENT
??_R1A@A@3EA@ios_base@std@@8 DD FLAT:??_R0?AVios_base@std@@@8 ; std::ios_base::`RTTI Base Class Descriptor at (0,0,4,64)'
	DD	01H
	DD	00H
	DD	00H
	DD	04H
	DD	040H
	DD	FLAT:??_R3ios_base@std@@8
rdata$r	ENDS
;	COMDAT ??_R1A@?0A@EA@?$basic_ios@DU?$char_traits@D@std@@@std@@8
rdata$r	SEGMENT
??_R1A@?0A@EA@?$basic_ios@DU?$char_traits@D@std@@@std@@8 DD FLAT:??_R0?AV?$basic_ios@DU?$char_traits@D@std@@@std@@@8 ; std::basic_ios<char,std::char_traits<char> >::`RTTI Base Class Descriptor at (0,-1,0,64)'
	DD	02H
	DD	00H
	DD	0ffffffffH
	DD	00H
	DD	040H
	DD	FLAT:??_R3?$basic_ios@DU?$char_traits@D@std@@@std@@8
rdata$r	ENDS
;	COMDAT ??_R2?$basic_ios@DU?$char_traits@D@std@@@std@@8
rdata$r	SEGMENT
??_R2?$basic_ios@DU?$char_traits@D@std@@@std@@8 DD FLAT:??_R1A@?0A@EA@?$basic_ios@DU?$char_traits@D@std@@@std@@8 ; std::basic_ios<char,std::char_traits<char> >::`RTTI Base Class Array'
	DD	FLAT:??_R1A@?0A@EA@ios_base@std@@8
	DD	FLAT:??_R17?0A@EA@?$_Iosb@H@std@@8
rdata$r	ENDS
;	COMDAT ??_R3?$basic_ios@DU?$char_traits@D@std@@@std@@8
rdata$r	SEGMENT
??_R3?$basic_ios@DU?$char_traits@D@std@@@std@@8 DD 00H	; std::basic_ios<char,std::char_traits<char> >::`RTTI Class Hierarchy Descriptor'
	DD	00H
	DD	03H
	DD	FLAT:??_R2?$basic_ios@DU?$char_traits@D@std@@@std@@8
rdata$r	ENDS
;	COMDAT ??_R0?AV?$basic_ios@DU?$char_traits@D@std@@@std@@@8
_DATA	SEGMENT
??_R0?AV?$basic_ios@DU?$char_traits@D@std@@@std@@@8 DD FLAT:??_7type_info@@6B@ ; std::basic_ios<char,std::char_traits<char> > `RTTI Type Descriptor'
	DD	00H
	DB	'.?AV?$basic_ios@DU?$char_traits@D@std@@@std@@', 00H
_DATA	ENDS
;	COMDAT ??_R1A@A@3FA@?$basic_ios@DU?$char_traits@D@std@@@std@@8
rdata$r	SEGMENT
??_R1A@A@3FA@?$basic_ios@DU?$char_traits@D@std@@@std@@8 DD FLAT:??_R0?AV?$basic_ios@DU?$char_traits@D@std@@@std@@@8 ; std::basic_ios<char,std::char_traits<char> >::`RTTI Base Class Descriptor at (0,0,4,80)'
	DD	02H
	DD	00H
	DD	00H
	DD	04H
	DD	050H
	DD	FLAT:??_R3?$basic_ios@DU?$char_traits@D@std@@@std@@8
rdata$r	ENDS
;	COMDAT ??_R1A@?0A@EA@?$basic_ostream@DU?$char_traits@D@std@@@std@@8
rdata$r	SEGMENT
??_R1A@?0A@EA@?$basic_ostream@DU?$char_traits@D@std@@@std@@8 DD FLAT:??_R0?AV?$basic_ostream@DU?$char_traits@D@std@@@std@@@8 ; std::basic_ostream<char,std::char_traits<char> >::`RTTI Base Class Descriptor at (0,-1,0,64)'
	DD	03H
	DD	00H
	DD	0ffffffffH
	DD	00H
	DD	040H
	DD	FLAT:??_R3?$basic_ostream@DU?$char_traits@D@std@@@std@@8
rdata$r	ENDS
;	COMDAT ??_R2?$basic_ostream@DU?$char_traits@D@std@@@std@@8
rdata$r	SEGMENT
??_R2?$basic_ostream@DU?$char_traits@D@std@@@std@@8 DD FLAT:??_R1A@?0A@EA@?$basic_ostream@DU?$char_traits@D@std@@@std@@8 ; std::basic_ostream<char,std::char_traits<char> >::`RTTI Base Class Array'
	DD	FLAT:??_R1A@A@3FA@?$basic_ios@DU?$char_traits@D@std@@@std@@8
	DD	FLAT:??_R1A@A@3EA@ios_base@std@@8
	DD	FLAT:??_R17A@3EA@?$_Iosb@H@std@@8
rdata$r	ENDS
;	COMDAT ??_R3?$basic_ostream@DU?$char_traits@D@std@@@std@@8
rdata$r	SEGMENT
??_R3?$basic_ostream@DU?$char_traits@D@std@@@std@@8 DD 00H ; std::basic_ostream<char,std::char_traits<char> >::`RTTI Class Hierarchy Descriptor'
	DD	00H
	DD	04H
	DD	FLAT:??_R2?$basic_ostream@DU?$char_traits@D@std@@@std@@8
rdata$r	ENDS
;	COMDAT ??_R0?AV?$basic_ostream@DU?$char_traits@D@std@@@std@@@8
_DATA	SEGMENT
??_R0?AV?$basic_ostream@DU?$char_traits@D@std@@@std@@@8 DD FLAT:??_7type_info@@6B@ ; std::basic_ostream<char,std::char_traits<char> > `RTTI Type Descriptor'
	DD	00H
	DB	'.?AV?$basic_ostream@DU?$char_traits@D@std@@@std@@', 00H
_DATA	ENDS
;	COMDAT ??_R4?$basic_ostream@DU?$char_traits@D@std@@@std@@6B@
rdata$r	SEGMENT
??_R4?$basic_ostream@DU?$char_traits@D@std@@@std@@6B@ DD 00H ; std::basic_ostream<char,std::char_traits<char> >::`RTTI Complete Object Locator'
	DD	08H
	DD	00H
	DD	FLAT:??_R0?AV?$basic_ostream@DU?$char_traits@D@std@@@std@@@8
	DD	FLAT:??_R3?$basic_ostream@DU?$char_traits@D@std@@@std@@8
rdata$r	ENDS
;	COMDAT ??_7?$basic_ostream@DU?$char_traits@D@std@@@std@@6B@
CONST	SEGMENT
??_7?$basic_ostream@DU?$char_traits@D@std@@@std@@6B@ DD FLAT:??_R4?$basic_ostream@DU?$char_traits@D@std@@@std@@6B@ ; std::basic_ostream<char,std::char_traits<char> >::`vftable'
	DD	FLAT:??_E?$basic_ostream@DU?$char_traits@D@std@@@std@@UAEPAXI@Z
; Function compile flags: /Ogtp
CONST	ENDS
;	COMDAT ??1?$basic_ostream@DU?$char_traits@D@std@@@std@@UAE@XZ
_TEXT	SEGMENT
??1?$basic_ostream@DU?$char_traits@D@std@@@std@@UAE@XZ PROC ; std::basic_ostream<char,std::char_traits<char> >::~basic_ostream<char,std::char_traits<char> >, COMDAT
; _this$ = ecx

; 79   : 		{	// destroy the object

  00000	8b 41 f8	 mov	 eax, DWORD PTR [ecx-8]
  00003	8b 50 04	 mov	 edx, DWORD PTR [eax+4]
  00006	c7 44 0a f8 00
	00 00 00	 mov	 DWORD PTR [edx+ecx-8], OFFSET ??_7?$basic_ostream@DU?$char_traits@D@std@@@std@@6B@

; 80   : 		}

  0000e	c3		 ret	 0
??1?$basic_ostream@DU?$char_traits@D@std@@@std@@UAE@XZ ENDP ; std::basic_ostream<char,std::char_traits<char> >::~basic_ostream<char,std::char_traits<char> >
_TEXT	ENDS
PUBLIC	??1?$basic_ios@DU?$char_traits@D@std@@@std@@UAE@XZ ; std::basic_ios<char,std::char_traits<char> >::~basic_ios<char,std::char_traits<char> >
; Function compile flags: /Ogtp
; File d:\program files (x86)\microsoft visual studio 10.0\vc\include\ios
;	COMDAT ??1?$basic_ios@DU?$char_traits@D@std@@@std@@UAE@XZ
_TEXT	SEGMENT
??1?$basic_ios@DU?$char_traits@D@std@@@std@@UAE@XZ PROC	; std::basic_ios<char,std::char_traits<char> >::~basic_ios<char,std::char_traits<char> >, COMDAT
; _this$ = ecx

; 38   : 		}

  00000	51		 push	 ecx
  00001	c7 01 00 00 00
	00		 mov	 DWORD PTR [ecx], OFFSET ??_7ios_base@std@@6B@
  00007	e8 00 00 00 00	 call	 ?_Ios_base_dtor@ios_base@std@@CAXPAV12@@Z ; std::ios_base::_Ios_base_dtor
  0000c	59		 pop	 ecx
  0000d	c3		 ret	 0
??1?$basic_ios@DU?$char_traits@D@std@@@std@@UAE@XZ ENDP	; std::basic_ios<char,std::char_traits<char> >::~basic_ios<char,std::char_traits<char> >
_TEXT	ENDS
PUBLIC	?rdbuf@?$basic_ios@DU?$char_traits@D@std@@@std@@QBEPAV?$basic_streambuf@DU?$char_traits@D@std@@@2@XZ ; std::basic_ios<char,std::char_traits<char> >::rdbuf
; Function compile flags: /Ogtp
;	COMDAT ?rdbuf@?$basic_ios@DU?$char_traits@D@std@@@std@@QBEPAV?$basic_streambuf@DU?$char_traits@D@std@@@2@XZ
_TEXT	SEGMENT
?rdbuf@?$basic_ios@DU?$char_traits@D@std@@@std@@QBEPAV?$basic_streambuf@DU?$char_traits@D@std@@@2@XZ PROC ; std::basic_ios<char,std::char_traits<char> >::rdbuf, COMDAT
; _this$ = ecx

; 86   : 		return (_Mystrbuf);

  00000	8b 41 38	 mov	 eax, DWORD PTR [ecx+56]

; 87   : 		}

  00003	c3		 ret	 0
?rdbuf@?$basic_ios@DU?$char_traits@D@std@@@std@@QBEPAV?$basic_streambuf@DU?$char_traits@D@std@@@2@XZ ENDP ; std::basic_ios<char,std::char_traits<char> >::rdbuf
_TEXT	ENDS
PUBLIC	??_Glocale@std@@QAEPAXI@Z			; std::locale::`scalar deleting destructor'
; Function compile flags: /Ogtp
;	COMDAT ??_Glocale@std@@QAEPAXI@Z
_TEXT	SEGMENT
__Lock$209715 = -4					; size = 4
___flags$ = 8						; size = 4
??_Glocale@std@@QAEPAXI@Z PROC				; std::locale::`scalar deleting destructor', COMDAT
; _this$ = ecx
  00000	55		 push	 ebp
  00001	8b ec		 mov	 ebp, esp
  00003	51		 push	 ecx
  00004	53		 push	 ebx
  00005	8b d9		 mov	 ebx, ecx
  00007	57		 push	 edi
  00008	8b 3b		 mov	 edi, DWORD PTR [ebx]
  0000a	85 ff		 test	 edi, edi
  0000c	74 3b		 je	 SHORT $LN7@scalar@6
  0000e	6a 00		 push	 0
  00010	8d 4d fc	 lea	 ecx, DWORD PTR __Lock$209715[ebp]
  00013	e8 00 00 00 00	 call	 ??0_Lockit@std@@QAE@H@Z	; std::_Lockit::_Lockit
  00018	8b 47 04	 mov	 eax, DWORD PTR [edi+4]
  0001b	85 c0		 test	 eax, eax
  0001d	74 09		 je	 SHORT $LN9@scalar@6
  0001f	83 f8 ff	 cmp	 eax, -1
  00022	73 04		 jae	 SHORT $LN9@scalar@6
  00024	48		 dec	 eax
  00025	89 47 04	 mov	 DWORD PTR [edi+4], eax
$LN9@scalar@6:
  00028	56		 push	 esi
  00029	8b 77 04	 mov	 esi, DWORD PTR [edi+4]
  0002c	f7 de		 neg	 esi
  0002e	1b f6		 sbb	 esi, esi
  00030	8d 4d fc	 lea	 ecx, DWORD PTR __Lock$209715[ebp]
  00033	f7 d6		 not	 esi
  00035	e8 00 00 00 00	 call	 ??1_Lockit@std@@QAE@XZ	; std::_Lockit::~_Lockit
  0003a	23 f7		 and	 esi, edi
  0003c	74 0a		 je	 SHORT $LN13@scalar@6
  0003e	8b 06		 mov	 eax, DWORD PTR [esi]
  00040	8b 10		 mov	 edx, DWORD PTR [eax]
  00042	6a 01		 push	 1
  00044	8b ce		 mov	 ecx, esi
  00046	ff d2		 call	 edx
$LN13@scalar@6:
  00048	5e		 pop	 esi
$LN7@scalar@6:
  00049	f6 45 08 01	 test	 BYTE PTR ___flags$[ebp], 1
  0004d	74 09		 je	 SHORT $LN12@scalar@6
  0004f	53		 push	 ebx
  00050	e8 00 00 00 00	 call	 ??3@YAXPAX@Z		; operator delete
  00055	83 c4 04	 add	 esp, 4
$LN12@scalar@6:
  00058	5f		 pop	 edi
  00059	8b c3		 mov	 eax, ebx
  0005b	5b		 pop	 ebx
  0005c	8b e5		 mov	 esp, ebp
  0005e	5d		 pop	 ebp
  0005f	c2 04 00	 ret	 4
??_Glocale@std@@QAEPAXI@Z ENDP				; std::locale::`scalar deleting destructor'
_TEXT	ENDS
PUBLIC	??_D?$basic_ostream@DU?$char_traits@D@std@@@std@@QAEXXZ ; std::basic_ostream<char,std::char_traits<char> >::`vbase destructor'
; Function compile flags: /Ogtp
;	COMDAT ??_D?$basic_ostream@DU?$char_traits@D@std@@@std@@QAEXXZ
_TEXT	SEGMENT
??_D?$basic_ostream@DU?$char_traits@D@std@@@std@@QAEXXZ PROC ; std::basic_ostream<char,std::char_traits<char> >::`vbase destructor', COMDAT
; _this$ = ecx
  00000	8d 41 08	 lea	 eax, DWORD PTR [ecx+8]
  00003	8b 48 f8	 mov	 ecx, DWORD PTR [eax-8]
  00006	8b 51 04	 mov	 edx, DWORD PTR [ecx+4]
  00009	c7 44 02 f8 00
	00 00 00	 mov	 DWORD PTR [edx+eax-8], OFFSET ??_7?$basic_ostream@DU?$char_traits@D@std@@@std@@6B@
  00011	50		 push	 eax
  00012	c7 00 00 00 00
	00		 mov	 DWORD PTR [eax], OFFSET ??_7ios_base@std@@6B@
  00018	e8 00 00 00 00	 call	 ?_Ios_base_dtor@ios_base@std@@CAXPAV12@@Z ; std::ios_base::_Ios_base_dtor
  0001d	59		 pop	 ecx
  0001e	c3		 ret	 0
??_D?$basic_ostream@DU?$char_traits@D@std@@@std@@QAEXXZ ENDP ; std::basic_ostream<char,std::char_traits<char> >::`vbase destructor'
_TEXT	ENDS
PUBLIC	??1?$_String_val@DV?$allocator@D@std@@@std@@QAE@XZ ; std::_String_val<char,std::allocator<char> >::~_String_val<char,std::allocator<char> >
; Function compile flags: /Ogtp
; File d:\program files (x86)\microsoft visual studio 10.0\vc\include\xstring
;	COMDAT ??1?$_String_val@DV?$allocator@D@std@@@std@@QAE@XZ
_TEXT	SEGMENT
??1?$_String_val@DV?$allocator@D@std@@@std@@QAE@XZ PROC	; std::_String_val<char,std::allocator<char> >::~_String_val<char,std::allocator<char> >, COMDAT
; _this$ = ecx

; 459  : 		}

  00000	c3		 ret	 0
??1?$_String_val@DV?$allocator@D@std@@@std@@QAE@XZ ENDP	; std::_String_val<char,std::allocator<char> >::~_String_val<char,std::allocator<char> >
_TEXT	ENDS
PUBLIC	??0?$allocator@D@std@@QAE@XZ			; std::allocator<char>::allocator<char>
; Function compile flags: /Ogtp
; File d:\program files (x86)\microsoft visual studio 10.0\vc\include\xmemory
;	COMDAT ??0?$allocator@D@std@@QAE@XZ
_TEXT	SEGMENT
??0?$allocator@D@std@@QAE@XZ PROC			; std::allocator<char>::allocator<char>, COMDAT
; _this$ = ecx

; 161  : 	_ALLOCATOR() _THROW0()

  00000	8b c1		 mov	 eax, ecx

; 162  : 		{	// construct default allocator (do nothing)
; 163  : 		}

  00002	c3		 ret	 0
??0?$allocator@D@std@@QAE@XZ ENDP			; std::allocator<char>::allocator<char>
_TEXT	ENDS
PUBLIC	??0?$allocator@D@std@@QAE@ABV01@@Z		; std::allocator<char>::allocator<char>
; Function compile flags: /Ogtp
;	COMDAT ??0?$allocator@D@std@@QAE@ABV01@@Z
_TEXT	SEGMENT
___formal$ = 8						; size = 4
??0?$allocator@D@std@@QAE@ABV01@@Z PROC			; std::allocator<char>::allocator<char>, COMDAT
; _this$ = ecx

; 165  : 	_ALLOCATOR(const _ALLOCATOR<_Ty>&) _THROW0()

  00000	8b c1		 mov	 eax, ecx

; 166  : 		{	// construct by copying (do nothing)
; 167  : 		}

  00002	c2 04 00	 ret	 4
??0?$allocator@D@std@@QAE@ABV01@@Z ENDP			; std::allocator<char>::allocator<char>
_TEXT	ENDS
PUBLIC	?_Tidy@?$_Yarn@D@std@@AAEXXZ			; std::_Yarn<char>::_Tidy
EXTRN	_free:PROC
; Function compile flags: /Ogtp
; File d:\program files (x86)\microsoft visual studio 10.0\vc\include\xutility
;	COMDAT ?_Tidy@?$_Yarn@D@std@@AAEXXZ
_TEXT	SEGMENT
?_Tidy@?$_Yarn@D@std@@AAEXXZ PROC			; std::_Yarn<char>::_Tidy, COMDAT
; _this$ = ecx

; 3391 : 		{	// discard any string

  00000	56		 push	 esi
  00001	8b f1		 mov	 esi, ecx

; 3392 : 		if (_Myptr != 0)

  00003	8b 06		 mov	 eax, DWORD PTR [esi]
  00005	85 c0		 test	 eax, eax
  00007	74 09		 je	 SHORT $LN4@Tidy

; 3393 : 
; 3394 :  #ifdef _DEBUG
; 3395 : 			_free_dbg(_Myptr, _CRT_BLOCK);
; 3396 : 
; 3397 :  #else /* _DEBUG */
; 3398 : 			_CSTD free(_Myptr);

  00009	50		 push	 eax
  0000a	e8 00 00 00 00	 call	 _free
  0000f	83 c4 04	 add	 esp, 4
$LN4@Tidy:

; 3399 :  #endif /* _DEBUG */
; 3400 : 
; 3401 : 		_Myptr = 0;

  00012	c7 06 00 00 00
	00		 mov	 DWORD PTR [esi], 0
  00018	5e		 pop	 esi

; 3402 : 		}

  00019	c3		 ret	 0
?_Tidy@?$_Yarn@D@std@@AAEXXZ ENDP			; std::_Yarn<char>::_Tidy
_TEXT	ENDS
PUBLIC	?pubsync@?$basic_streambuf@DU?$char_traits@D@std@@@std@@QAEHXZ ; std::basic_streambuf<char,std::char_traits<char> >::pubsync
; Function compile flags: /Ogtp
; File d:\program files (x86)\microsoft visual studio 10.0\vc\include\streambuf
;	COMDAT ?pubsync@?$basic_streambuf@DU?$char_traits@D@std@@@std@@QAEHXZ
_TEXT	SEGMENT
?pubsync@?$basic_streambuf@DU?$char_traits@D@std@@@std@@QAEHXZ PROC ; std::basic_streambuf<char,std::char_traits<char> >::pubsync, COMDAT
; _this$ = ecx

; 141  : 		return (sync());

  00000	8b 01		 mov	 eax, DWORD PTR [ecx]
  00002	8b 50 34	 mov	 edx, DWORD PTR [eax+52]
  00005	ff e2		 jmp	 edx
?pubsync@?$basic_streambuf@DU?$char_traits@D@std@@@std@@QAEHXZ ENDP ; std::basic_streambuf<char,std::char_traits<char> >::pubsync
_TEXT	ENDS
PUBLIC	?_Pnavail@?$basic_streambuf@DU?$char_traits@D@std@@@std@@IBE_JXZ ; std::basic_streambuf<char,std::char_traits<char> >::_Pnavail
; Function compile flags: /Ogtp
;	COMDAT ?_Pnavail@?$basic_streambuf@DU?$char_traits@D@std@@@std@@IBE_JXZ
_TEXT	SEGMENT
?_Pnavail@?$basic_streambuf@DU?$char_traits@D@std@@@std@@IBE_JXZ PROC ; std::basic_streambuf<char,std::char_traits<char> >::_Pnavail, COMDAT
; _this$ = ecx

; 310  : 		return (*_IPnext != 0 ? *_IPcount : 0);

  00000	8b 41 24	 mov	 eax, DWORD PTR [ecx+36]
  00003	83 38 00	 cmp	 DWORD PTR [eax], 0
  00006	74 07		 je	 SHORT $LN3@Pnavail
  00008	8b 49 34	 mov	 ecx, DWORD PTR [ecx+52]
  0000b	8b 01		 mov	 eax, DWORD PTR [ecx]
  0000d	99		 cdq

; 311  : 		}

  0000e	c3		 ret	 0
$LN3@Pnavail:

; 310  : 		return (*_IPnext != 0 ? *_IPcount : 0);

  0000f	33 c0		 xor	 eax, eax
  00011	99		 cdq

; 311  : 		}

  00012	c3		 ret	 0
?_Pnavail@?$basic_streambuf@DU?$char_traits@D@std@@@std@@IBE_JXZ ENDP ; std::basic_streambuf<char,std::char_traits<char> >::_Pnavail
_TEXT	ENDS
PUBLIC	??Bsentry@?$basic_ostream@DU?$char_traits@D@std@@@std@@QBEPQ_Bool_struct@2@HXZ ; std::basic_ostream<char,std::char_traits<char> >::sentry::operator int std::_Bool_struct::*
; Function compile flags: /Ogtp
; File d:\program files (x86)\microsoft visual studio 10.0\vc\include\ostream
;	COMDAT ??Bsentry@?$basic_ostream@DU?$char_traits@D@std@@@std@@QBEPQ_Bool_struct@2@HXZ
_TEXT	SEGMENT
??Bsentry@?$basic_ostream@DU?$char_traits@D@std@@@std@@QBEPQ_Bool_struct@2@HXZ PROC ; std::basic_ostream<char,std::char_traits<char> >::sentry::operator int std::_Bool_struct::*, COMDAT
; _this$ = ecx

; 133  : 			return (_Ok ? _CONVERTIBLE_TO_TRUE : 0);

  00000	33 c0		 xor	 eax, eax
  00002	38 41 04	 cmp	 BYTE PTR [ecx+4], al
  00005	0f 95 c0	 setne	 al
  00008	48		 dec	 eax

; 134  : 			}

  00009	c3		 ret	 0
??Bsentry@?$basic_ostream@DU?$char_traits@D@std@@@std@@QBEPQ_Bool_struct@2@HXZ ENDP ; std::basic_ostream<char,std::char_traits<char> >::sentry::operator int std::_Bool_struct::*
_TEXT	ENDS
PUBLIC	?_Myptr@?$basic_string@DU?$char_traits@D@std@@V?$allocator@D@2@@std@@QAEPADXZ ; std::basic_string<char,std::char_traits<char>,std::allocator<char> >::_Myptr
; Function compile flags: /Ogtp
; File d:\program files (x86)\microsoft visual studio 10.0\vc\include\xstring
;	COMDAT ?_Myptr@?$basic_string@DU?$char_traits@D@std@@V?$allocator@D@2@@std@@QAEPADXZ
_TEXT	SEGMENT
?_Myptr@?$basic_string@DU?$char_traits@D@std@@V?$allocator@D@2@@std@@QAEPADXZ PROC ; std::basic_string<char,std::char_traits<char>,std::allocator<char> >::_Myptr, COMDAT
; _this$ = ecx

; 2003 : 		{	// determine current pointer to buffer for mutable string

  00000	8b c1		 mov	 eax, ecx

; 2004 : 		return (this->_BUF_SIZE <= this->_Myres ? this->_Bx._Ptr
; 2005 : 			: this->_Bx._Buf);

  00002	83 78 14 10	 cmp	 DWORD PTR [eax+20], 16	; 00000010H
  00006	72 02		 jb	 SHORT $LN4@Myptr
  00008	8b 00		 mov	 eax, DWORD PTR [eax]
$LN4@Myptr:

; 2006 : 		}

  0000a	c3		 ret	 0
?_Myptr@?$basic_string@DU?$char_traits@D@std@@V?$allocator@D@2@@std@@QAEPADXZ ENDP ; std::basic_string<char,std::char_traits<char>,std::allocator<char> >::_Myptr
_TEXT	ENDS
PUBLIC	?deallocate@?$allocator@D@std@@QAEXPADI@Z	; std::allocator<char>::deallocate
; Function compile flags: /Ogtp
; File d:\program files (x86)\microsoft visual studio 10.0\vc\include\xmemory
;	COMDAT ?deallocate@?$allocator@D@std@@QAEXPADI@Z
_TEXT	SEGMENT
__Ptr$ = 8						; size = 4
___formal$ = 12						; size = 4
?deallocate@?$allocator@D@std@@QAEXPADI@Z PROC		; std::allocator<char>::deallocate, COMDAT
; _this$ = ecx

; 181  : 		{	// deallocate object at _Ptr, ignore size

  00000	55		 push	 ebp
  00001	8b ec		 mov	 ebp, esp

; 182  : 		::operator delete(_Ptr);

  00003	8b 45 08	 mov	 eax, DWORD PTR __Ptr$[ebp]
  00006	50		 push	 eax
  00007	e8 00 00 00 00	 call	 ??3@YAXPAX@Z		; operator delete
  0000c	83 c4 04	 add	 esp, 4

; 183  : 		}

  0000f	5d		 pop	 ebp
  00010	c2 08 00	 ret	 8
?deallocate@?$allocator@D@std@@QAEXPADI@Z ENDP		; std::allocator<char>::deallocate
_TEXT	ENDS
PUBLIC	?tie@?$basic_ios@DU?$char_traits@D@std@@@std@@QBEPAV?$basic_ostream@DU?$char_traits@D@std@@@2@XZ ; std::basic_ios<char,std::char_traits<char> >::tie
; Function compile flags: /Ogtp
; File d:\program files (x86)\microsoft visual studio 10.0\vc\include\ios
;	COMDAT ?tie@?$basic_ios@DU?$char_traits@D@std@@@std@@QBEPAV?$basic_ostream@DU?$char_traits@D@std@@@2@XZ
_TEXT	SEGMENT
?tie@?$basic_ios@DU?$char_traits@D@std@@@std@@QBEPAV?$basic_ostream@DU?$char_traits@D@std@@@2@XZ PROC ; std::basic_ios<char,std::char_traits<char> >::tie, COMDAT
; _this$ = ecx

; 74   : 		return (_Tiestr);

  00000	8b 41 3c	 mov	 eax, DWORD PTR [ecx+60]

; 75   : 		}

  00003	c3		 ret	 0
?tie@?$basic_ios@DU?$char_traits@D@std@@@std@@QBEPAV?$basic_ostream@DU?$char_traits@D@std@@@2@XZ ENDP ; std::basic_ios<char,std::char_traits<char> >::tie
_TEXT	ENDS
PUBLIC	?_Pninc@?$basic_streambuf@DU?$char_traits@D@std@@@std@@IAEPADXZ ; std::basic_streambuf<char,std::char_traits<char> >::_Pninc
; Function compile flags: /Ogtp
; File d:\program files (x86)\microsoft visual studio 10.0\vc\include\streambuf
;	COMDAT ?_Pninc@?$basic_streambuf@DU?$char_traits@D@std@@@std@@IAEPADXZ
_TEXT	SEGMENT
?_Pninc@?$basic_streambuf@DU?$char_traits@D@std@@@std@@IAEPADXZ PROC ; std::basic_streambuf<char,std::char_traits<char> >::_Pninc, COMDAT
; _this$ = ecx

; 304  : 		--*_IPcount;

  00000	8b 41 34	 mov	 eax, DWORD PTR [ecx+52]
  00003	ff 08		 dec	 DWORD PTR [eax]

; 305  : 		return ((*_IPnext)++);

  00005	8b 49 24	 mov	 ecx, DWORD PTR [ecx+36]
  00008	8b 01		 mov	 eax, DWORD PTR [ecx]
  0000a	8d 50 01	 lea	 edx, DWORD PTR [eax+1]
  0000d	89 11		 mov	 DWORD PTR [ecx], edx

; 306  : 		}

  0000f	c3		 ret	 0
?_Pninc@?$basic_streambuf@DU?$char_traits@D@std@@@std@@IAEPADXZ ENDP ; std::basic_streambuf<char,std::char_traits<char> >::_Pninc
_TEXT	ENDS
PUBLIC	??0_Sentry_base@?$basic_ostream@DU?$char_traits@D@std@@@std@@QAE@AAV12@@Z ; std::basic_ostream<char,std::char_traits<char> >::_Sentry_base::_Sentry_base
; Function compile flags: /Ogtp
; File d:\program files (x86)\microsoft visual studio 10.0\vc\include\ostream
;	COMDAT ??0_Sentry_base@?$basic_ostream@DU?$char_traits@D@std@@@std@@QAE@AAV12@@Z
_TEXT	SEGMENT
__Ostr$ = 8						; size = 4
??0_Sentry_base@?$basic_ostream@DU?$char_traits@D@std@@@std@@QAE@AAV12@@Z PROC ; std::basic_ostream<char,std::char_traits<char> >::_Sentry_base::_Sentry_base, COMDAT
; _this$ = ecx

; 91   : 			{	// lock the stream buffer, if there

  00000	55		 push	 ebp
  00001	8b ec		 mov	 ebp, esp
  00003	8b 45 08	 mov	 eax, DWORD PTR __Ostr$[ebp]
  00006	56		 push	 esi
  00007	8b f1		 mov	 esi, ecx
  00009	89 06		 mov	 DWORD PTR [esi], eax

; 92   : 			if (_Myostr.rdbuf() != 0)

  0000b	8b 08		 mov	 ecx, DWORD PTR [eax]
  0000d	8b 51 04	 mov	 edx, DWORD PTR [ecx+4]
  00010	8b 4c 02 38	 mov	 ecx, DWORD PTR [edx+eax+56]
  00014	85 c9		 test	 ecx, ecx
  00016	74 07		 je	 SHORT $LN8@Sentry_bas

; 93   : 				_Myostr.rdbuf()->_Lock();

  00018	8b 01		 mov	 eax, DWORD PTR [ecx]
  0001a	8b 50 04	 mov	 edx, DWORD PTR [eax+4]
  0001d	ff d2		 call	 edx
$LN8@Sentry_bas:

; 94   : 			}

  0001f	8b c6		 mov	 eax, esi
  00021	5e		 pop	 esi
  00022	5d		 pop	 ebp
  00023	c2 04 00	 ret	 4
??0_Sentry_base@?$basic_ostream@DU?$char_traits@D@std@@@std@@QAE@AAV12@@Z ENDP ; std::basic_ostream<char,std::char_traits<char> >::_Sentry_base::_Sentry_base
_TEXT	ENDS
PUBLIC	??1_Sentry_base@?$basic_ostream@DU?$char_traits@D@std@@@std@@QAE@XZ ; std::basic_ostream<char,std::char_traits<char> >::_Sentry_base::~_Sentry_base
; Function compile flags: /Ogtp
;	COMDAT ??1_Sentry_base@?$basic_ostream@DU?$char_traits@D@std@@@std@@QAE@XZ
_TEXT	SEGMENT
??1_Sentry_base@?$basic_ostream@DU?$char_traits@D@std@@@std@@QAE@XZ PROC ; std::basic_ostream<char,std::char_traits<char> >::_Sentry_base::~_Sentry_base, COMDAT
; _this$ = ecx

; 98   : 			if (_Myostr.rdbuf() != 0)

  00000	8b 01		 mov	 eax, DWORD PTR [ecx]
  00002	8b 08		 mov	 ecx, DWORD PTR [eax]
  00004	8b 51 04	 mov	 edx, DWORD PTR [ecx+4]
  00007	8b 44 02 38	 mov	 eax, DWORD PTR [edx+eax+56]
  0000b	85 c0		 test	 eax, eax
  0000d	74 09		 je	 SHORT $LN1@Sentry_bas@2

; 99   : 				_Myostr.rdbuf()->_Unlock();

  0000f	8b 10		 mov	 edx, DWORD PTR [eax]
  00011	8b c8		 mov	 ecx, eax
  00013	8b 42 08	 mov	 eax, DWORD PTR [edx+8]
  00016	ff e0		 jmp	 eax
$LN1@Sentry_bas@2:

; 100  : 			}

  00018	c3		 ret	 0
??1_Sentry_base@?$basic_ostream@DU?$char_traits@D@std@@@std@@QAE@XZ ENDP ; std::basic_ostream<char,std::char_traits<char> >::_Sentry_base::~_Sentry_base
_TEXT	ENDS
PUBLIC	?_Chassign@?$basic_string@DU?$char_traits@D@std@@V?$allocator@D@2@@std@@QAEXIID@Z ; std::basic_string<char,std::char_traits<char>,std::allocator<char> >::_Chassign
; Function compile flags: /Ogtp
; File d:\program files (x86)\microsoft visual studio 10.0\vc\include\xstring
;	COMDAT ?_Chassign@?$basic_string@DU?$char_traits@D@std@@V?$allocator@D@2@@std@@QAEXIID@Z
_TEXT	SEGMENT
__Off$ = 8						; size = 4
__Count$ = 12						; size = 4
__Ch$ = 16						; size = 1
?_Chassign@?$basic_string@DU?$char_traits@D@std@@V?$allocator@D@2@@std@@QAEXIID@Z PROC ; std::basic_string<char,std::char_traits<char>,std::allocator<char> >::_Chassign, COMDAT
; _this$ = ecx

; 1911 : 		{	// assign _Count copies of _Ch beginning at _Off

  00000	55		 push	 ebp
  00001	8b ec		 mov	 ebp, esp

; 1912 : 		if (_Count == 1)

  00003	8b 45 0c	 mov	 eax, DWORD PTR __Count$[ebp]
  00006	83 f8 01	 cmp	 eax, 1
  00009	75 15		 jne	 SHORT $LN2@Chassign

; 1913 : 			_Traits::assign(*(_Myptr() + _Off), _Ch);

  0000b	83 79 14 10	 cmp	 DWORD PTR [ecx+20], 16	; 00000010H
  0000f	72 02		 jb	 SHORT $LN7@Chassign
  00011	8b 09		 mov	 ecx, DWORD PTR [ecx]
$LN7@Chassign:
  00013	8a 45 10	 mov	 al, BYTE PTR __Ch$[ebp]
  00016	8b 55 08	 mov	 edx, DWORD PTR __Off$[ebp]
  00019	88 04 11	 mov	 BYTE PTR [ecx+edx], al

; 1916 : 		}

  0001c	5d		 pop	 ebp
  0001d	c2 0c 00	 ret	 12			; 0000000cH
$LN2@Chassign:

; 1914 : 		else
; 1915 : 			_Traits::assign(_Myptr() + _Off, _Count, _Ch);

  00020	83 79 14 10	 cmp	 DWORD PTR [ecx+20], 16	; 00000010H
  00024	72 02		 jb	 SHORT $LN13@Chassign
  00026	8b 09		 mov	 ecx, DWORD PTR [ecx]
$LN13@Chassign:
  00028	03 4d 08	 add	 ecx, DWORD PTR __Off$[ebp]
  0002b	50		 push	 eax
  0002c	0f be 45 10	 movsx	 eax, BYTE PTR __Ch$[ebp]
  00030	50		 push	 eax
  00031	51		 push	 ecx
  00032	e8 00 00 00 00	 call	 _memset
  00037	83 c4 0c	 add	 esp, 12			; 0000000cH

; 1916 : 		}

  0003a	5d		 pop	 ebp
  0003b	c2 0c 00	 ret	 12			; 0000000cH
?_Chassign@?$basic_string@DU?$char_traits@D@std@@V?$allocator@D@2@@std@@QAEXIID@Z ENDP ; std::basic_string<char,std::char_traits<char>,std::allocator<char> >::_Chassign
_TEXT	ENDS
PUBLIC	??_C@_0BA@JFNIOLAK@string?5too?5long?$AA@	; `string'
PUBLIC	?_Xlen@?$basic_string@DU?$char_traits@D@std@@V?$allocator@D@2@@std@@QBEXXZ ; std::basic_string<char,std::char_traits<char>,std::allocator<char> >::_Xlen
EXTRN	?_Xlength_error@std@@YAXPBD@Z:PROC		; std::_Xlength_error
;	COMDAT ??_C@_0BA@JFNIOLAK@string?5too?5long?$AA@
CONST	SEGMENT
??_C@_0BA@JFNIOLAK@string?5too?5long?$AA@ DB 'string too long', 00H ; `string'
; Function compile flags: /Ogtp
CONST	ENDS
;	COMDAT ?_Xlen@?$basic_string@DU?$char_traits@D@std@@V?$allocator@D@2@@std@@QBEXXZ
_TEXT	SEGMENT
?_Xlen@?$basic_string@DU?$char_traits@D@std@@V?$allocator@D@2@@std@@QBEXXZ PROC ; std::basic_string<char,std::char_traits<char>,std::allocator<char> >::_Xlen, COMDAT
; _this$ = ecx

; 2016 : 		_Xlength_error("string too long");

  00000	68 00 00 00 00	 push	 OFFSET ??_C@_0BA@JFNIOLAK@string?5too?5long?$AA@
  00005	e8 00 00 00 00	 call	 ?_Xlength_error@std@@YAXPBD@Z ; std::_Xlength_error
$LN4@Xlen:
$LN3@Xlen:
  0000a	cc		 int	 3
?_Xlen@?$basic_string@DU?$char_traits@D@std@@V?$allocator@D@2@@std@@QBEXXZ ENDP ; std::basic_string<char,std::char_traits<char>,std::allocator<char> >::_Xlen
_TEXT	ENDS
PUBLIC	??0?$_String_const_iterator@DU?$char_traits@D@std@@V?$allocator@D@2@@std@@QAE@PBDPBU_Container_base0@1@@Z ; std::_String_const_iterator<char,std::char_traits<char>,std::allocator<char> >::_String_const_iterator<char,std::char_traits<char>,std::allocator<char> >
; Function compile flags: /Ogtp
;	COMDAT ??0?$_String_const_iterator@DU?$char_traits@D@std@@V?$allocator@D@2@@std@@QAE@PBDPBU_Container_base0@1@@Z
_TEXT	SEGMENT
__Parg$ = 8						; size = 4
__Pstring$ = 12						; size = 4
??0?$_String_const_iterator@DU?$char_traits@D@std@@V?$allocator@D@2@@std@@QAE@PBDPBU_Container_base0@1@@Z PROC ; std::_String_const_iterator<char,std::char_traits<char>,std::allocator<char> >::_String_const_iterator<char,std::char_traits<char>,std::allocator<char> >, COMDAT
; _this$ = ecx

; 50   : 	_String_const_iterator(pointer _Parg, const _Container_base *_Pstring)

  00000	55		 push	 ebp
  00001	8b ec		 mov	 ebp, esp
  00003	8b c1		 mov	 eax, ecx

; 51   : 		{	// construct with pointer _Parg
; 52   : 		this->_Adopt(_Pstring);
; 53   : 		this->_Ptr = _Parg;

  00005	8b 4d 08	 mov	 ecx, DWORD PTR __Parg$[ebp]
  00008	89 08		 mov	 DWORD PTR [eax], ecx

; 54   : 		}

  0000a	5d		 pop	 ebp
  0000b	c2 08 00	 ret	 8
??0?$_String_const_iterator@DU?$char_traits@D@std@@V?$allocator@D@2@@std@@QAE@PBDPBU_Container_base0@1@@Z ENDP ; std::_String_const_iterator<char,std::char_traits<char>,std::allocator<char> >::_String_const_iterator<char,std::char_traits<char>,std::allocator<char> >
_TEXT	ENDS
PUBLIC	?max_size@?$allocator@D@std@@QBEIXZ		; std::allocator<char>::max_size
; Function compile flags: /Ogtp
; File d:\program files (x86)\microsoft visual studio 10.0\vc\include\xmemory
;	COMDAT ?max_size@?$allocator@D@std@@QBEIXZ
_TEXT	SEGMENT
?max_size@?$allocator@D@std@@QBEIXZ PROC		; std::allocator<char>::max_size, COMDAT
; _this$ = ecx

; 218  : 		_SIZT _Count = (_SIZT)(-1) / sizeof (_Ty);
; 219  : 		return (0 < _Count ? _Count : 1);

  00000	83 c8 ff	 or	 eax, -1

; 220  : 		}

  00003	c3		 ret	 0
?max_size@?$allocator@D@std@@QBEIXZ ENDP		; std::allocator<char>::max_size
_TEXT	ENDS
PUBLIC	__TI2?AVbad_alloc@std@@
PUBLIC	??$_Allocate@D@std@@YAPADIPAD@Z			; std::_Allocate<char>
PUBLIC	__CTA2?AVbad_alloc@std@@
PUBLIC	__CT??_R0?AVbad_alloc@std@@@8??0bad_alloc@std@@QAE@ABV01@@Z12
PUBLIC	??0bad_alloc@std@@QAE@ABV01@@Z			; std::bad_alloc::bad_alloc
PUBLIC	__CT??_R0?AVexception@std@@@8??0exception@std@@QAE@ABV01@@Z12
EXTRN	??2@YAPAXI@Z:PROC				; operator new
EXTRN	__CxxThrowException@8:PROC
EXTRN	??0exception@std@@QAE@ABV01@@Z:PROC		; std::exception::exception
;	COMDAT __CT??_R0?AVexception@std@@@8??0exception@std@@QAE@ABV01@@Z12
; File d:\program files (x86)\microsoft visual studio 10.0\vc\include\exception
xdata$x	SEGMENT
__CT??_R0?AVexception@std@@@8??0exception@std@@QAE@ABV01@@Z12 DD 00H
	DD	FLAT:??_R0?AVexception@std@@@8
	DD	00H
	DD	0ffffffffH
	ORG $+4
	DD	0cH
	DD	FLAT:??0exception@std@@QAE@ABV01@@Z
xdata$x	ENDS
;	COMDAT __CT??_R0?AVbad_alloc@std@@@8??0bad_alloc@std@@QAE@ABV01@@Z12
xdata$x	SEGMENT
__CT??_R0?AVbad_alloc@std@@@8??0bad_alloc@std@@QAE@ABV01@@Z12 DD 00H
	DD	FLAT:??_R0?AVbad_alloc@std@@@8
	DD	00H
	DD	0ffffffffH
	ORG $+4
	DD	0cH
	DD	FLAT:??0bad_alloc@std@@QAE@ABV01@@Z
xdata$x	ENDS
;	COMDAT __CTA2?AVbad_alloc@std@@
xdata$x	SEGMENT
__CTA2?AVbad_alloc@std@@ DD 02H
	DD	FLAT:__CT??_R0?AVbad_alloc@std@@@8??0bad_alloc@std@@QAE@ABV01@@Z12
	DD	FLAT:__CT??_R0?AVexception@std@@@8??0exception@std@@QAE@ABV01@@Z12
xdata$x	ENDS
;	COMDAT __TI2?AVbad_alloc@std@@
xdata$x	SEGMENT
__TI2?AVbad_alloc@std@@ DD 00H
	DD	FLAT:??1bad_alloc@std@@UAE@XZ
	DD	00H
	DD	FLAT:__CTA2?AVbad_alloc@std@@
; Function compile flags: /Ogtp
; File d:\program files (x86)\microsoft visual studio 10.0\vc\include\xmemory
xdata$x	ENDS
;	COMDAT ??$_Allocate@D@std@@YAPADIPAD@Z
_TEXT	SEGMENT
$T209840 = -12						; size = 12
$T209845 = 8						; size = 4
__Count$ = 8						; size = 4
___formal$ = 12						; size = 4
??$_Allocate@D@std@@YAPADIPAD@Z PROC			; std::_Allocate<char>, COMDAT

; 30   : 	{	// allocate storage for _Count elements of type _Ty

  00000	55		 push	 ebp
  00001	8b ec		 mov	 ebp, esp

; 31   : 	void *_Ptr = 0;
; 32   : 
; 33   : 	if (_Count <= 0)

  00003	8b 4d 08	 mov	 ecx, DWORD PTR __Count$[ebp]
  00006	83 ec 0c	 sub	 esp, 12			; 0000000cH
  00009	33 c0		 xor	 eax, eax
  0000b	85 c9		 test	 ecx, ecx

; 34   : 		_Count = 0;
; 35   : 	else if (((_SIZT)(-1) / sizeof (_Ty) < _Count)

  0000d	74 3a		 je	 SHORT $LN5@Allocate

; 36   : 		|| (_Ptr = ::operator new(_Count * sizeof (_Ty))) == 0)

  0000f	83 f9 ff	 cmp	 ecx, -1
  00012	77 0d		 ja	 SHORT $LN1@Allocate
  00014	51		 push	 ecx
  00015	e8 00 00 00 00	 call	 ??2@YAPAXI@Z		; operator new
  0001a	83 c4 04	 add	 esp, 4
  0001d	85 c0		 test	 eax, eax

; 38   : 
; 39   : 	return ((_Ty _FARQ *)_Ptr);

  0001f	75 28		 jne	 SHORT $LN5@Allocate
$LN1@Allocate:

; 37   : 		_THROW_NCEE(bad_alloc, 0);

  00021	8d 45 08	 lea	 eax, DWORD PTR $T209845[ebp]
  00024	50		 push	 eax
  00025	8d 4d f4	 lea	 ecx, DWORD PTR $T209840[ebp]
  00028	c7 45 08 00 00
	00 00		 mov	 DWORD PTR $T209845[ebp], 0
  0002f	e8 00 00 00 00	 call	 ??0exception@std@@QAE@ABQBD@Z ; std::exception::exception
  00034	68 00 00 00 00	 push	 OFFSET __TI2?AVbad_alloc@std@@
  00039	8d 4d f4	 lea	 ecx, DWORD PTR $T209840[ebp]
  0003c	51		 push	 ecx
  0003d	c7 45 f4 00 00
	00 00		 mov	 DWORD PTR $T209840[ebp], OFFSET ??_7bad_alloc@std@@6B@
  00044	e8 00 00 00 00	 call	 __CxxThrowException@8
$LN10@Allocate:
$LN5@Allocate:

; 40   : 	}

  00049	8b e5		 mov	 esp, ebp
  0004b	5d		 pop	 ebp
  0004c	c3		 ret	 0
$LN9@Allocate:
??$_Allocate@D@std@@YAPADIPAD@Z ENDP			; std::_Allocate<char>
; Function compile flags: /Ogtp
_TEXT	ENDS
;	COMDAT ??0bad_alloc@std@@QAE@ABV01@@Z
_TEXT	SEGMENT
___that$ = 8						; size = 4
??0bad_alloc@std@@QAE@ABV01@@Z PROC			; std::bad_alloc::bad_alloc, COMDAT
; _this$ = ecx
  00000	55		 push	 ebp
  00001	8b ec		 mov	 ebp, esp
  00003	8b 45 08	 mov	 eax, DWORD PTR ___that$[ebp]
  00006	56		 push	 esi
  00007	50		 push	 eax
  00008	8b f1		 mov	 esi, ecx
  0000a	e8 00 00 00 00	 call	 ??0exception@std@@QAE@ABV01@@Z ; std::exception::exception
  0000f	c7 06 00 00 00
	00		 mov	 DWORD PTR [esi], OFFSET ??_7bad_alloc@std@@6B@
  00015	8b c6		 mov	 eax, esi
  00017	5e		 pop	 esi
  00018	5d		 pop	 ebp
  00019	c2 04 00	 ret	 4
??0bad_alloc@std@@QAE@ABV01@@Z ENDP			; std::bad_alloc::bad_alloc
_TEXT	ENDS
PUBLIC	??_C@_0BG@BMABLBJK@?$FLMMOTOP?$FN?$FL?$CFs?$FN?5Date?3?5?$CFs?$AA@ ; `string'
PUBLIC	??_C@_0BD@DNPJLPDE@?$EA?$FLMMOTOP?$FN?5Date?3?5?$CFs?$AA@ ; `string'
PUBLIC	??_C@_0BO@GLDGCAIH@?$EA?$FLMMOTOP?$FN?5Life?5Bank?5Bonus?3?5?$CFd?$AA@ ; `string'
PUBLIC	??_C@_0BO@MPCAPFDH@?$EA?$FLMMOTOP?$FN?5Soul?5Bank?5Bonus?3?5?$CFd?$AA@ ; `string'
PUBLIC	??_C@_0BP@JOJEBDFB@?$EA?$FLMMOTOP?$FN?5Bless?5Bank?5Bonus?3?5?$CFd?$AA@ ; `string'
PUBLIC	??_C@_0BP@JEJBFDGG@?$EA?$FLMMOTOP?$FN?5Chaos?5Bank?5Bonus?3?5?$CFd?$AA@ ; `string'
PUBLIC	??_C@_0BL@MIFEJOAN@?$EA?$FLMMOTOP?$FN?5ZtCred?5Bonus?3?5?$CFd?$AA@ ; `string'
PUBLIC	??_C@_0BL@JNNNGMEB@?$EA?$FLMMOTOP?$FN?5Goblin?5Bonus?3?5?$CFd?$AA@ ; `string'
PUBLIC	??_C@_0BL@MCFHKCKK@?$EA?$FLMMOTOP?$FN?5WCoinP?5Bonus?3?5?$CFd?$AA@ ; `string'
PUBLIC	??_C@_0BL@KOOOOGNL@?$EA?$FLMMOTOP?$FN?5WcoinC?5Bonus?3?5?$CFd?$AA@ ; `string'
PUBLIC	??_C@_0BJ@NMLLBIJJ@?$EA?$FLMMOTOP?$FN?5Item?5Bonus?3?5?$CFs?$AA@ ; `string'
PUBLIC	??_C@_0DG@CODMCGBJ@?$EA?$FLMMOTOP?$FN?5Need?5to?5make?5space?5in?5@ ; `string'
PUBLIC	??_C@_0BH@LAAAIICJ@?$EA?$FLSMS?5MMOTOP?$FN?5Date?3?5?$CFs?$AA@ ; `string'
PUBLIC	??_C@_0CC@HGBANFMA@?$EA?$FLSMS?5MMOTOP?$FN?5Life?5Bank?5Bonus?3?5?$CF@ ; `string'
PUBLIC	??_C@_0CC@NCAGAAHA@?$EA?$FLSMS?5MMOTOP?$FN?5Soul?5Bank?5Bonus?3?5?$CF@ ; `string'
PUBLIC	??_C@_0CD@HGDBOBJH@?$EA?$FLSMS?5MMOTOP?$FN?5Bless?5Bank?5Bonus?3?5@ ; `string'
PUBLIC	??_C@_0CD@HMDEKBKA@?$EA?$FLSMS?5MMOTOP?$FN?5Chaos?5Bank?5Bonus?3?5@ ; `string'
PUBLIC	??_C@_0BP@DJMFBNNJ@?$EA?$FLSMS?5MMOTOP?$FN?5ZtCred?5Bonus?3?5?$CFd?$AA@ ; `string'
PUBLIC	??_C@_0BP@GMEMOPJF@?$EA?$FLSMS?5MMOTOP?$FN?5Goblin?5Bonus?3?5?$CFd?$AA@ ; `string'
PUBLIC	??_C@_0BP@DDMGCBHO@?$EA?$FLSMS?5MMOTOP?$FN?5WCoinP?5Bonus?3?5?$CFd?$AA@ ; `string'
PUBLIC	??_C@_0BP@FPHPGFAP@?$EA?$FLSMS?5MMOTOP?$FN?5WcoinC?5Bonus?3?5?$CFd?$AA@ ; `string'
PUBLIC	??_C@_0BN@GCHBLMLE@?$EA?$FLSMS?5MMOTOP?$FN?5Item?5Bonus?3?5?$CFs?$AA@ ; `string'
PUBLIC	??_C@_0DK@LGEFFFOE@?$EA?$FLSMS?5MMOTOP?$FN?5Need?5to?5make?5space@ ; `string'
PUBLIC	??_C@_0BC@FFOHHNEG@?$CFd?4?$CFd?4?$CFd?5?$CFd?3?$CFd?3?$CFd?$AA@ ; `string'
PUBLIC	??_C@_05DNIIFBMG@?$CFs?5?$CFs?$AA@		; `string'
PUBLIC	??_C@_0BC@FDIFMHGC@?$CFd?5?$CFs?5?$CFs?5?$CFs?5?$CFs?5?$CFd?$AA@ ; `string'
PUBLIC	??_C@_0L@HNCANJIK@mmotop?4txt?$AA@		; `string'
PUBLIC	??_C@_01KDCPPGHE@r?$AA@				; `string'
PUBLIC	__$ArrayPad$
PUBLIC	?MootopReed@Voter@@QAEXXZ			; Voter::MootopReed
EXTRN	_remove:PROC
EXTRN	_fclose:PROC
EXTRN	?MootopVoteUp@CAchievements@@QAEXH@Z:PROC	; CAchievements::MootopVoteUp
EXTRN	?g_Achievements@@3VCAchievements@@A:BYTE	; g_Achievements
EXTRN	?Output@CLogToFile@@QAAXPADZZ:PROC		; CLogToFile::Output
EXTRN	?LogAdd@@3P6AXPADZZA:DWORD			; LogAdd
EXTRN	?ZtUserDataSend@@YAXH@Z:PROC			; ZtUserDataSend
EXTRN	?gObjApplyBuffEffectDuration@@YAEPAUOBJECTSTRUCT@@HEHEHH@Z:PROC ; gObjApplyBuffEffectDuration
EXTRN	?CheckUser@CZtLicense@@QAE_NH@Z:PROC		; CZtLicense::CheckUser
EXTRN	?g_ZtLicense@@3VCZtLicense@@A:BYTE		; g_ZtLicense
EXTRN	?GDSaveUserInfo@GameShop@@QAEXH@Z:PROC		; GameShop::GDSaveUserInfo
EXTRN	?gGameShop@@3VGameShop@@A:BYTE			; gGameShop
EXTRN	?ItemSerialCreateSend@@YAXHEEEHEEEEEHEE@Z:PROC	; ItemSerialCreateSend
EXTRN	?MessageChat@@YAXHPADZZ:PROC			; MessageChat
EXTRN	?CheckInventoryEmptySpace@@YAHPAUOBJECTSTRUCT@@HH@Z:PROC ; CheckInventoryEmptySpace
EXTRN	?ItemAttribute@@3PAUITEM_ATTRIBUTE@@A:BYTE	; ItemAttribute
EXTRN	?StrToCTime@@YA?AVCTime@ATL@@PBD@Z:PROC		; StrToCTime
EXTRN	_sprintf:PROC
EXTRN	_sscanf:PROC
EXTRN	_fgets:PROC
EXTRN	_feof:PROC
EXTRN	_fopen:PROC
EXTRN	___security_cookie:DWORD
EXTRN	__fltused:DWORD
EXTRN	@__security_check_cookie@4:PROC
;	COMDAT ??_C@_0BG@BMABLBJK@?$FLMMOTOP?$FN?$FL?$CFs?$FN?5Date?3?5?$CFs?$AA@
; File d:\program files (x86)\microsoft visual studio 10.0\vc\atlmfc\include\atltime.inl
CONST	SEGMENT
??_C@_0BG@BMABLBJK@?$FLMMOTOP?$FN?$FL?$CFs?$FN?5Date?3?5?$CFs?$AA@ DB '[M'
	DB	'MOTOP][%s] Date: %s', 00H			; `string'
CONST	ENDS
;	COMDAT ??_C@_0BD@DNPJLPDE@?$EA?$FLMMOTOP?$FN?5Date?3?5?$CFs?$AA@
CONST	SEGMENT
??_C@_0BD@DNPJLPDE@?$EA?$FLMMOTOP?$FN?5Date?3?5?$CFs?$AA@ DB '@[MMOTOP] D'
	DB	'ate: %s', 00H				; `string'
CONST	ENDS
;	COMDAT ??_C@_0BO@GLDGCAIH@?$EA?$FLMMOTOP?$FN?5Life?5Bank?5Bonus?3?5?$CFd?$AA@
CONST	SEGMENT
??_C@_0BO@GLDGCAIH@?$EA?$FLMMOTOP?$FN?5Life?5Bank?5Bonus?3?5?$CFd?$AA@ DB '@'
	DB	'[MMOTOP] Life Bank Bonus: %d', 00H		; `string'
CONST	ENDS
;	COMDAT ??_C@_0BO@MPCAPFDH@?$EA?$FLMMOTOP?$FN?5Soul?5Bank?5Bonus?3?5?$CFd?$AA@
CONST	SEGMENT
??_C@_0BO@MPCAPFDH@?$EA?$FLMMOTOP?$FN?5Soul?5Bank?5Bonus?3?5?$CFd?$AA@ DB '@'
	DB	'[MMOTOP] Soul Bank Bonus: %d', 00H		; `string'
CONST	ENDS
;	COMDAT ??_C@_0BP@JOJEBDFB@?$EA?$FLMMOTOP?$FN?5Bless?5Bank?5Bonus?3?5?$CFd?$AA@
CONST	SEGMENT
??_C@_0BP@JOJEBDFB@?$EA?$FLMMOTOP?$FN?5Bless?5Bank?5Bonus?3?5?$CFd?$AA@ DB '@'
	DB	'[MMOTOP] Bless Bank Bonus: %d', 00H		; `string'
CONST	ENDS
;	COMDAT ??_C@_0BP@JEJBFDGG@?$EA?$FLMMOTOP?$FN?5Chaos?5Bank?5Bonus?3?5?$CFd?$AA@
CONST	SEGMENT
??_C@_0BP@JEJBFDGG@?$EA?$FLMMOTOP?$FN?5Chaos?5Bank?5Bonus?3?5?$CFd?$AA@ DB '@'
	DB	'[MMOTOP] Chaos Bank Bonus: %d', 00H		; `string'
CONST	ENDS
;	COMDAT ??_C@_0BL@MIFEJOAN@?$EA?$FLMMOTOP?$FN?5ZtCred?5Bonus?3?5?$CFd?$AA@
CONST	SEGMENT
??_C@_0BL@MIFEJOAN@?$EA?$FLMMOTOP?$FN?5ZtCred?5Bonus?3?5?$CFd?$AA@ DB '@['
	DB	'MMOTOP] ZtCred Bonus: %d', 00H		; `string'
CONST	ENDS
;	COMDAT ??_C@_0BL@JNNNGMEB@?$EA?$FLMMOTOP?$FN?5Goblin?5Bonus?3?5?$CFd?$AA@
CONST	SEGMENT
??_C@_0BL@JNNNGMEB@?$EA?$FLMMOTOP?$FN?5Goblin?5Bonus?3?5?$CFd?$AA@ DB '@['
	DB	'MMOTOP] Goblin Bonus: %d', 00H		; `string'
CONST	ENDS
;	COMDAT ??_C@_0BL@MCFHKCKK@?$EA?$FLMMOTOP?$FN?5WCoinP?5Bonus?3?5?$CFd?$AA@
CONST	SEGMENT
??_C@_0BL@MCFHKCKK@?$EA?$FLMMOTOP?$FN?5WCoinP?5Bonus?3?5?$CFd?$AA@ DB '@['
	DB	'MMOTOP] WCoinP Bonus: %d', 00H		; `string'
CONST	ENDS
;	COMDAT ??_C@_0BL@KOOOOGNL@?$EA?$FLMMOTOP?$FN?5WcoinC?5Bonus?3?5?$CFd?$AA@
CONST	SEGMENT
??_C@_0BL@KOOOOGNL@?$EA?$FLMMOTOP?$FN?5WcoinC?5Bonus?3?5?$CFd?$AA@ DB '@['
	DB	'MMOTOP] WcoinC Bonus: %d', 00H		; `string'
CONST	ENDS
;	COMDAT ??_C@_0BJ@NMLLBIJJ@?$EA?$FLMMOTOP?$FN?5Item?5Bonus?3?5?$CFs?$AA@
CONST	SEGMENT
??_C@_0BJ@NMLLBIJJ@?$EA?$FLMMOTOP?$FN?5Item?5Bonus?3?5?$CFs?$AA@ DB '@[MM'
	DB	'OTOP] Item Bonus: %s', 00H			; `string'
CONST	ENDS
;	COMDAT ??_C@_0DG@CODMCGBJ@?$EA?$FLMMOTOP?$FN?5Need?5to?5make?5space?5in?5@
CONST	SEGMENT
??_C@_0DG@CODMCGBJ@?$EA?$FLMMOTOP?$FN?5Need?5to?5make?5space?5in?5@ DB '@'
	DB	'[MMOTOP] Need to make space in the inventory (%dx%d)', 00H ; `string'
CONST	ENDS
;	COMDAT ??_C@_0BH@LAAAIICJ@?$EA?$FLSMS?5MMOTOP?$FN?5Date?3?5?$CFs?$AA@
CONST	SEGMENT
??_C@_0BH@LAAAIICJ@?$EA?$FLSMS?5MMOTOP?$FN?5Date?3?5?$CFs?$AA@ DB '@[SMS '
	DB	'MMOTOP] Date: %s', 00H			; `string'
CONST	ENDS
;	COMDAT ??_C@_0CC@HGBANFMA@?$EA?$FLSMS?5MMOTOP?$FN?5Life?5Bank?5Bonus?3?5?$CF@
CONST	SEGMENT
??_C@_0CC@HGBANFMA@?$EA?$FLSMS?5MMOTOP?$FN?5Life?5Bank?5Bonus?3?5?$CF@ DB '@'
	DB	'[SMS MMOTOP] Life Bank Bonus: %d', 00H	; `string'
CONST	ENDS
;	COMDAT ??_C@_0CC@NCAGAAHA@?$EA?$FLSMS?5MMOTOP?$FN?5Soul?5Bank?5Bonus?3?5?$CF@
CONST	SEGMENT
??_C@_0CC@NCAGAAHA@?$EA?$FLSMS?5MMOTOP?$FN?5Soul?5Bank?5Bonus?3?5?$CF@ DB '@'
	DB	'[SMS MMOTOP] Soul Bank Bonus: %d', 00H	; `string'
CONST	ENDS
;	COMDAT ??_C@_0CD@HGDBOBJH@?$EA?$FLSMS?5MMOTOP?$FN?5Bless?5Bank?5Bonus?3?5@
CONST	SEGMENT
??_C@_0CD@HGDBOBJH@?$EA?$FLSMS?5MMOTOP?$FN?5Bless?5Bank?5Bonus?3?5@ DB '@'
	DB	'[SMS MMOTOP] Bless Bank Bonus: %d', 00H	; `string'
CONST	ENDS
;	COMDAT ??_C@_0CD@HMDEKBKA@?$EA?$FLSMS?5MMOTOP?$FN?5Chaos?5Bank?5Bonus?3?5@
CONST	SEGMENT
??_C@_0CD@HMDEKBKA@?$EA?$FLSMS?5MMOTOP?$FN?5Chaos?5Bank?5Bonus?3?5@ DB '@'
	DB	'[SMS MMOTOP] Chaos Bank Bonus: %d', 00H	; `string'
CONST	ENDS
;	COMDAT ??_C@_0BP@DJMFBNNJ@?$EA?$FLSMS?5MMOTOP?$FN?5ZtCred?5Bonus?3?5?$CFd?$AA@
CONST	SEGMENT
??_C@_0BP@DJMFBNNJ@?$EA?$FLSMS?5MMOTOP?$FN?5ZtCred?5Bonus?3?5?$CFd?$AA@ DB '@'
	DB	'[SMS MMOTOP] ZtCred Bonus: %d', 00H		; `string'
CONST	ENDS
;	COMDAT ??_C@_0BP@GMEMOPJF@?$EA?$FLSMS?5MMOTOP?$FN?5Goblin?5Bonus?3?5?$CFd?$AA@
CONST	SEGMENT
??_C@_0BP@GMEMOPJF@?$EA?$FLSMS?5MMOTOP?$FN?5Goblin?5Bonus?3?5?$CFd?$AA@ DB '@'
	DB	'[SMS MMOTOP] Goblin Bonus: %d', 00H		; `string'
CONST	ENDS
;	COMDAT ??_C@_0BP@DDMGCBHO@?$EA?$FLSMS?5MMOTOP?$FN?5WCoinP?5Bonus?3?5?$CFd?$AA@
CONST	SEGMENT
??_C@_0BP@DDMGCBHO@?$EA?$FLSMS?5MMOTOP?$FN?5WCoinP?5Bonus?3?5?$CFd?$AA@ DB '@'
	DB	'[SMS MMOTOP] WCoinP Bonus: %d', 00H		; `string'
CONST	ENDS
;	COMDAT ??_C@_0BP@FPHPGFAP@?$EA?$FLSMS?5MMOTOP?$FN?5WcoinC?5Bonus?3?5?$CFd?$AA@
CONST	SEGMENT
??_C@_0BP@FPHPGFAP@?$EA?$FLSMS?5MMOTOP?$FN?5WcoinC?5Bonus?3?5?$CFd?$AA@ DB '@'
	DB	'[SMS MMOTOP] WcoinC Bonus: %d', 00H		; `string'
CONST	ENDS
;	COMDAT ??_C@_0BN@GCHBLMLE@?$EA?$FLSMS?5MMOTOP?$FN?5Item?5Bonus?3?5?$CFs?$AA@
CONST	SEGMENT
??_C@_0BN@GCHBLMLE@?$EA?$FLSMS?5MMOTOP?$FN?5Item?5Bonus?3?5?$CFs?$AA@ DB '@'
	DB	'[SMS MMOTOP] Item Bonus: %s', 00H		; `string'
CONST	ENDS
;	COMDAT ??_C@_0DK@LGEFFFOE@?$EA?$FLSMS?5MMOTOP?$FN?5Need?5to?5make?5space@
CONST	SEGMENT
??_C@_0DK@LGEFFFOE@?$EA?$FLSMS?5MMOTOP?$FN?5Need?5to?5make?5space@ DB '@['
	DB	'SMS MMOTOP] Need to make space in the inventory (%dx%d)', 00H ; `string'
CONST	ENDS
;	COMDAT ??_C@_0BC@FFOHHNEG@?$CFd?4?$CFd?4?$CFd?5?$CFd?3?$CFd?3?$CFd?$AA@
CONST	SEGMENT
??_C@_0BC@FFOHHNEG@?$CFd?4?$CFd?4?$CFd?5?$CFd?3?$CFd?3?$CFd?$AA@ DB '%d.%'
	DB	'd.%d %d:%d:%d', 00H				; `string'
CONST	ENDS
;	COMDAT ??_C@_05DNIIFBMG@?$CFs?5?$CFs?$AA@
CONST	SEGMENT
??_C@_05DNIIFBMG@?$CFs?5?$CFs?$AA@ DB '%s %s', 00H	; `string'
CONST	ENDS
;	COMDAT ??_C@_0BC@FDIFMHGC@?$CFd?5?$CFs?5?$CFs?5?$CFs?5?$CFs?5?$CFd?$AA@
CONST	SEGMENT
??_C@_0BC@FDIFMHGC@?$CFd?5?$CFs?5?$CFs?5?$CFs?5?$CFs?5?$CFd?$AA@ DB '%d %'
	DB	's %s %s %s %d', 00H				; `string'
CONST	ENDS
;	COMDAT ??_C@_0L@HNCANJIK@mmotop?4txt?$AA@
CONST	SEGMENT
??_C@_0L@HNCANJIK@mmotop?4txt?$AA@ DB 'mmotop.txt', 00H	; `string'
CONST	ENDS
;	COMDAT ??_C@_01KDCPPGHE@r?$AA@
CONST	SEGMENT
??_C@_01KDCPPGHE@r?$AA@ DB 'r', 00H			; `string'
; Function compile flags: /Ogtp
; File e:\work\tranet_version\gs\gameserver\voter.cpp
CONST	ENDS
;	COMDAT ?MootopReed@Voter@@QAEXXZ
_TEXT	SEGMENT
_ct$207833 = -1264					; size = 8
_nDay$207814 = -1256					; size = 4
_mId$207803 = -1252					; size = 4
_nMin$207816 = -1248					; size = 4
_nMonth$207813 = -1244					; size = 4
_nHour$207815 = -1240					; size = 4
_nYear$207812 = -1236					; size = 4
_file$ = -1232						; size = 4
_nSec$207817 = -1228					; size = 4
_tData$207835 = -1224					; size = 4
_mRewerd$207808 = -1220					; size = 4
tv948 = -1216						; size = 4
tv942 = -1216						; size = 4
tv936 = -1216						; size = 4
_Height$207866 = -1216					; size = 4
tv832 = -1212						; size = 4
tv823 = -1212						; size = 4
tv803 = -1212						; size = 4
_Width$207867 = -1212					; size = 4
_Buff$ = -1208						; size = 512
_Buff2$207891 = -696					; size = 512
_DataTime$207810 = -184					; size = 100
_mGetIp$207806 = -84					; size = 20
_mGetDate$207804 = -64					; size = 20
_mGetTime$207805 = -44					; size = 20
_mGetAccaunt$207807 = -24				; size = 20
__$ArrayPad$ = -4					; size = 4
?MootopReed@Voter@@QAEXXZ PROC				; Voter::MootopReed, COMDAT
; _this$ = ecx

; 356  : {

  00000	55		 push	 ebp
  00001	8b ec		 mov	 ebp, esp
  00003	81 ec f0 04 00
	00		 sub	 esp, 1264		; 000004f0H
  00009	a1 00 00 00 00	 mov	 eax, DWORD PTR ___security_cookie
  0000e	33 c5		 xor	 eax, ebp
  00010	89 45 fc	 mov	 DWORD PTR __$ArrayPad$[ebp], eax
  00013	57		 push	 edi
  00014	8b f9		 mov	 edi, ecx

; 357  : 	if(!this->MMOTOP_Enable) return;

  00016	80 3f 00	 cmp	 BYTE PTR [edi], 0
  00019	0f 84 63 08 00
	00		 je	 $LN1@MootopReed

; 358  : 
; 359  : 	FILE * file = fopen(MMOTOP_FILE, "r");

  0001f	56		 push	 esi
  00020	68 00 00 00 00	 push	 OFFSET ??_C@_01KDCPPGHE@r?$AA@
  00025	68 00 00 00 00	 push	 OFFSET ??_C@_0L@HNCANJIK@mmotop?4txt?$AA@
  0002a	e8 00 00 00 00	 call	 _fopen
  0002f	8b f0		 mov	 esi, eax
  00031	83 c4 08	 add	 esp, 8
  00034	89 b5 30 fb ff
	ff		 mov	 DWORD PTR _file$[ebp], esi

; 360  : 
; 361  : 	if (file == NULL)

  0003a	85 f6		 test	 esi, esi
  0003c	0f 84 3f 08 00
	00		 je	 $LN69@MootopReed

; 362  : 	{
; 363  : #ifdef VOTE_DEBUG
; 364  : 		LogAddC(2,"[VOTE]No FILE");
; 365  : #endif
; 366  : 		return;
; 367  : 	}
; 368  : 
; 369  : 	char Buff[512];
; 370  : 
; 371  : 	int Count = 0;
; 372  : 
; 373  : 	while (!feof(file))

  00042	56		 push	 esi
  00043	e8 00 00 00 00	 call	 _feof
  00048	83 c4 04	 add	 esp, 4
  0004b	85 c0		 test	 eax, eax
  0004d	0f 85 12 08 00
	00		 jne	 $LN41@MootopReed
  00053	53		 push	 ebx
$LL42@MootopReed:

; 374  : 	{
; 375  : 		fgets(Buff,512,file);

  00054	56		 push	 esi
  00055	8d 85 48 fb ff
	ff		 lea	 eax, DWORD PTR _Buff$[ebp]
  0005b	68 00 02 00 00	 push	 512			; 00000200H
  00060	50		 push	 eax
  00061	e8 00 00 00 00	 call	 _fgets

; 376  : 
; 377  : 		int mId;
; 378  : 		char mGetDate[20];
; 379  : 		char mGetTime[20];
; 380  : 		char mGetIp[20];
; 381  : 		char mGetAccaunt[20];
; 382  : 		int mRewerd;
; 383  : 
; 384  : 		sscanf(Buff, "%d %s %s %s %s %d",&mId, &mGetDate, &mGetTime, &mGetIp, &mGetAccaunt, &mRewerd);

  00066	8d 8d 3c fb ff
	ff		 lea	 ecx, DWORD PTR _mRewerd$207808[ebp]
  0006c	51		 push	 ecx
  0006d	8d 55 e8	 lea	 edx, DWORD PTR _mGetAccaunt$207807[ebp]
  00070	52		 push	 edx
  00071	8d 45 ac	 lea	 eax, DWORD PTR _mGetIp$207806[ebp]
  00074	50		 push	 eax
  00075	8d 4d d4	 lea	 ecx, DWORD PTR _mGetTime$207805[ebp]
  00078	51		 push	 ecx
  00079	8d 55 c0	 lea	 edx, DWORD PTR _mGetDate$207804[ebp]
  0007c	52		 push	 edx
  0007d	8d 85 1c fb ff
	ff		 lea	 eax, DWORD PTR _mId$207803[ebp]
  00083	50		 push	 eax
  00084	8d 8d 48 fb ff
	ff		 lea	 ecx, DWORD PTR _Buff$[ebp]
  0008a	68 00 00 00 00	 push	 OFFSET ??_C@_0BC@FDIFMHGC@?$CFd?5?$CFs?5?$CFs?5?$CFs?5?$CFs?5?$CFd?$AA@
  0008f	51		 push	 ecx
  00090	e8 00 00 00 00	 call	 _sscanf

; 385  : 
; 386  : 		char DataTime[100];
; 387  : 		sprintf(DataTime, "%s %s",mGetDate, mGetTime);

  00095	8d 55 d4	 lea	 edx, DWORD PTR _mGetTime$207805[ebp]
  00098	52		 push	 edx
  00099	8d 45 c0	 lea	 eax, DWORD PTR _mGetDate$207804[ebp]
  0009c	50		 push	 eax
  0009d	8d 8d 48 ff ff
	ff		 lea	 ecx, DWORD PTR _DataTime$207810[ebp]
  000a3	68 00 00 00 00	 push	 OFFSET ??_C@_05DNIIFBMG@?$CFs?5?$CFs?$AA@
  000a8	51		 push	 ecx
  000a9	e8 00 00 00 00	 call	 _sprintf

; 388  : 
; 389  : 		int nYear, nMonth, nDay, nHour, nMin, nSec;
; 390  : 		sscanf(DataTime, "%d.%d.%d %d:%d:%d", &nDay, &nMonth, &nYear, &nHour, &nMin, &nSec);

  000ae	8d 95 34 fb ff
	ff		 lea	 edx, DWORD PTR _nSec$207817[ebp]
  000b4	52		 push	 edx
  000b5	8d 85 20 fb ff
	ff		 lea	 eax, DWORD PTR _nMin$207816[ebp]
  000bb	50		 push	 eax
  000bc	8d 8d 28 fb ff
	ff		 lea	 ecx, DWORD PTR _nHour$207815[ebp]
  000c2	51		 push	 ecx
  000c3	8d 95 2c fb ff
	ff		 lea	 edx, DWORD PTR _nYear$207812[ebp]
  000c9	52		 push	 edx
  000ca	8d 85 24 fb ff
	ff		 lea	 eax, DWORD PTR _nMonth$207813[ebp]
  000d0	50		 push	 eax
  000d1	8d 8d 18 fb ff
	ff		 lea	 ecx, DWORD PTR _nDay$207814[ebp]
  000d7	51		 push	 ecx
  000d8	8d 95 48 ff ff
	ff		 lea	 edx, DWORD PTR _DataTime$207810[ebp]
  000de	68 00 00 00 00	 push	 OFFSET ??_C@_0BC@FFOHHNEG@?$CFd?4?$CFd?4?$CFd?5?$CFd?3?$CFd?3?$CFd?$AA@
  000e3	52		 push	 edx
  000e4	e8 00 00 00 00	 call	 _sscanf
  000e9	83 c4 5c	 add	 esp, 92			; 0000005cH

; 391  : 		//20140215010507
; 392  : 		if( ((nYear >= 1900)  && (nMonth >= 1 && nMonth <= 12) && (nDay >= 1 && nDay <= 31) && (nHour >= 0 && nHour <= 23) && (nMin >= 0 && nMin <= 59) && (nSec >= 0 && nSec <= 59)) )

  000ec	81 bd 2c fb ff
	ff 6c 07 00 00	 cmp	 DWORD PTR _nYear$207812[ebp], 1900 ; 0000076cH
  000f6	0f 8c 51 07 00
	00		 jl	 $LN67@MootopReed
  000fc	8b 85 24 fb ff
	ff		 mov	 eax, DWORD PTR _nMonth$207813[ebp]
  00102	48		 dec	 eax
  00103	83 f8 0b	 cmp	 eax, 11			; 0000000bH
  00106	0f 87 41 07 00
	00		 ja	 $LN67@MootopReed
  0010c	8b 8d 18 fb ff
	ff		 mov	 ecx, DWORD PTR _nDay$207814[ebp]
  00112	49		 dec	 ecx
  00113	83 f9 1e	 cmp	 ecx, 30			; 0000001eH
  00116	0f 87 31 07 00
	00		 ja	 $LN67@MootopReed
  0011c	83 bd 28 fb ff
	ff 17		 cmp	 DWORD PTR _nHour$207815[ebp], 23 ; 00000017H
  00123	0f 87 24 07 00
	00		 ja	 $LN67@MootopReed
  00129	b8 3b 00 00 00	 mov	 eax, 59			; 0000003bH
  0012e	39 85 20 fb ff
	ff		 cmp	 DWORD PTR _nMin$207816[ebp], eax
  00134	0f 87 13 07 00
	00		 ja	 $LN67@MootopReed
  0013a	39 85 34 fb ff
	ff		 cmp	 DWORD PTR _nSec$207817[ebp], eax
  00140	0f 87 07 07 00
	00		 ja	 $LN67@MootopReed

; 393  : 		{
; 394  : 
; 395  : 		}
; 396  : 		else
; 397  : 		{
; 398  : 			continue;
; 399  : 		}
; 400  : 
; 401  : 		int aIndex = -1;
; 402  : 
; 403  : 		for (int n = OBJ_STARTUSERINDZT; n<OBJMAX; n++)

  00146	8b 15 00 00 00
	00		 mov	 edx, DWORD PTR ?gObj@@3PAUOBJECTSTRUCT@@A ; gObj
  0014c	bb b0 36 00 00	 mov	 ebx, 14000		; 000036b0H
  00151	81 c2 6c a7 40
	09		 add	 edx, 155232108		; 0940a76cH
$LL38@MootopReed:

; 404  : 		{
; 405  : 			if (gObj[n].Connected >= PLAYER_PLAYING)

  00157	83 7a 98 03	 cmp	 DWORD PTR [edx-104], 3
  0015b	7c 6c		 jl	 SHORT $LN37@MootopReed

; 406  : 			{
; 407  : 				if (gObj[n].AccountID[0] == mGetAccaunt[0])

  0015d	8a 4d e8	 mov	 cl, BYTE PTR _mGetAccaunt$207807[ebp]
  00160	38 0a		 cmp	 BYTE PTR [edx], cl
  00162	75 2c		 jne	 SHORT $LN34@MootopReed

; 408  : 				{
; 409  : 					if (!strcmp(gObj[n].AccountID, mGetAccaunt))

  00164	8d 75 e8	 lea	 esi, DWORD PTR _mGetAccaunt$207807[ebp]
  00167	8b c2		 mov	 eax, edx
  00169	8d a4 24 00 00
	00 00		 npad	 7
$LL58@MootopReed:
  00170	8a 08		 mov	 cl, BYTE PTR [eax]
  00172	3a 0e		 cmp	 cl, BYTE PTR [esi]
  00174	75 4a		 jne	 SHORT $LN63@MootopReed
  00176	84 c9		 test	 cl, cl
  00178	74 12		 je	 SHORT $LN60@MootopReed
  0017a	8a 48 01	 mov	 cl, BYTE PTR [eax+1]
  0017d	3a 4e 01	 cmp	 cl, BYTE PTR [esi+1]
  00180	75 3e		 jne	 SHORT $LN63@MootopReed
  00182	83 c0 02	 add	 eax, 2
  00185	83 c6 02	 add	 esi, 2
  00188	84 c9		 test	 cl, cl
  0018a	75 e4		 jne	 SHORT $LL58@MootopReed
$LN60@MootopReed:
  0018c	33 c0		 xor	 eax, eax
  0018e	eb 35		 jmp	 SHORT $LN65@MootopReed
$LN34@MootopReed:

; 410  : 					{
; 411  : 						aIndex = n;
; 412  : 						break;
; 413  : 					}
; 414  : 				}
; 415  : 				else if(gObj[n].Name[0] == mGetAccaunt[0])

  00190	38 4a 0b	 cmp	 BYTE PTR [edx+11], cl
  00193	8d 42 0b	 lea	 eax, DWORD PTR [edx+11]
  00196	75 31		 jne	 SHORT $LN37@MootopReed

; 416  : 				{
; 417  : 					if (!strcmp(gObj[n].Name, mGetAccaunt))

  00198	8d 75 e8	 lea	 esi, DWORD PTR _mGetAccaunt$207807[ebp]
  0019b	eb 03 8d 49 00	 npad	 5
$LL62@MootopReed:
  001a0	8a 08		 mov	 cl, BYTE PTR [eax]
  001a2	3a 0e		 cmp	 cl, BYTE PTR [esi]
  001a4	75 1a		 jne	 SHORT $LN63@MootopReed
  001a6	84 c9		 test	 cl, cl
  001a8	74 12		 je	 SHORT $LN64@MootopReed
  001aa	8a 48 01	 mov	 cl, BYTE PTR [eax+1]
  001ad	3a 4e 01	 cmp	 cl, BYTE PTR [esi+1]
  001b0	75 0e		 jne	 SHORT $LN63@MootopReed
  001b2	83 c0 02	 add	 eax, 2
  001b5	83 c6 02	 add	 esi, 2
  001b8	84 c9		 test	 cl, cl
  001ba	75 e4		 jne	 SHORT $LL62@MootopReed
$LN64@MootopReed:
  001bc	33 c0		 xor	 eax, eax
  001be	eb 05		 jmp	 SHORT $LN65@MootopReed
$LN63@MootopReed:
  001c0	1b c0		 sbb	 eax, eax
  001c2	83 d8 ff	 sbb	 eax, -1
$LN65@MootopReed:
  001c5	85 c0		 test	 eax, eax
  001c7	74 18		 je	 SHORT $LN66@MootopReed
$LN37@MootopReed:

; 393  : 		{
; 394  : 
; 395  : 		}
; 396  : 		else
; 397  : 		{
; 398  : 			continue;
; 399  : 		}
; 400  : 
; 401  : 		int aIndex = -1;
; 402  : 
; 403  : 		for (int n = OBJ_STARTUSERINDZT; n<OBJMAX; n++)

  001c9	43		 inc	 ebx
  001ca	81 c2 50 2b 00
	00		 add	 edx, 11088		; 00002b50H
  001d0	81 fb 98 3a 00
	00		 cmp	 ebx, 15000		; 00003a98H
  001d6	0f 8c 7b ff ff
	ff		 jl	 $LL38@MootopReed

; 416  : 				{
; 417  : 					if (!strcmp(gObj[n].Name, mGetAccaunt))

  001dc	e9 6c 06 00 00	 jmp	 $LN67@MootopReed
$LN66@MootopReed:

; 418  : 					{
; 419  : 						aIndex = n;
; 420  : 						break;
; 421  : 					}
; 422  : 				}
; 423  : 			}
; 424  : 		}
; 425  : 
; 426  : 		if(aIndex == -1) continue;

  001e1	83 fb ff	 cmp	 ebx, -1
  001e4	0f 84 63 06 00
	00		 je	 $LN67@MootopReed

; 427  : 
; 428  : 		CTime ct = StrToCTime(DataTime);

  001ea	8d 95 48 ff ff
	ff		 lea	 edx, DWORD PTR _DataTime$207810[ebp]
  001f0	52		 push	 edx
  001f1	8d 85 10 fb ff
	ff		 lea	 eax, DWORD PTR _ct$207833[ebp]
  001f7	50		 push	 eax
  001f8	e8 00 00 00 00	 call	 ?StrToCTime@@YA?AVCTime@ATL@@PBD@Z ; StrToCTime

; 429  : 		DWORD tData = ct.GetTime();

  001fd	8b 85 10 fb ff
	ff		 mov	 eax, DWORD PTR _ct$207833[ebp]

; 430  : 
; 431  : 		LPOBJ lpObj = &gObj[aIndex];

  00203	8b f3		 mov	 esi, ebx
  00205	69 f6 50 2b 00
	00		 imul	 esi, 11088		; 00002b50H
  0020b	03 35 00 00 00
	00		 add	 esi, DWORD PTR ?gObj@@3PAUOBJECTSTRUCT@@A ; gObj
  00211	83 c4 08	 add	 esp, 8
  00214	89 85 38 fb ff
	ff		 mov	 DWORD PTR _tData$207835[ebp], eax

; 432  : 
; 433  : 
; 434  : 		if(tData > lpObj->MTDate)

  0021a	3b 86 0c 28 00
	00		 cmp	 eax, DWORD PTR [esi+10252]
  00220	0f 86 27 06 00
	00		 jbe	 $LN67@MootopReed

; 435  : 		{
; 436  : 			if(mRewerd == 2)

  00226	83 bd 3c fb ff
	ff 02		 cmp	 DWORD PTR _mRewerd$207808[ebp], 2
  0022d	0f 85 b9 02 00
	00		 jne	 $LN27@MootopReed

; 437  : 			{
; 438  : 			//~~~~~~~~~~~~~~~~~~~~~~~~~~~~~~~~~~~~~~~~~~~~~~~~~
; 439  : 				if (this->MMOTOP_SMSBonusItemActive)

  00233	83 bf 10 01 00
	00 00		 cmp	 DWORD PTR [edi+272], 0
  0023a	0f 84 a4 00 00
	00		 je	 $LN26@MootopReed

; 440  : 				{
; 441  : 					int Height = ItemAttribute[ITEMGET(this->MMOTOP_SMSBonusItemType, this->MMOTOP_SMSBonusItemIndex)].Height;

  00240	8b 87 14 01 00
	00		 mov	 eax, DWORD PTR [edi+276]
  00246	c1 e0 09	 shl	 eax, 9
  00249	03 87 18 01 00
	00		 add	 eax, DWORD PTR [edi+280]
  0024f	6b c0 70	 imul	 eax, 112		; 00000070H
  00252	0f b6 88 24 00
	00 00		 movzx	 ecx, BYTE PTR ?ItemAttribute@@3PAUITEM_ATTRIBUTE@@A[eax+36]

; 442  : 					int Width = ItemAttribute[ITEMGET(this->MMOTOP_SMSBonusItemType, this->MMOTOP_SMSBonusItemIndex)].Width;

  00259	0f b6 80 23 00
	00 00		 movzx	 eax, BYTE PTR ?ItemAttribute@@3PAUITEM_ATTRIBUTE@@A[eax+35]

; 443  : 
; 444  : 					if(!CheckInventoryEmptySpace(lpObj, Height, Width))

  00260	50		 push	 eax
  00261	51		 push	 ecx
  00262	56		 push	 esi
  00263	e8 00 00 00 00	 call	 ?CheckInventoryEmptySpace@@YAHPAUOBJECTSTRUCT@@HH@Z ; CheckInventoryEmptySpace
  00268	83 c4 0c	 add	 esp, 12			; 0000000cH
  0026b	85 c0		 test	 eax, eax
  0026d	75 1a		 jne	 SHORT $LN25@MootopReed

; 445  : 					{
; 446  : 						MessageChat(aIndex, "@[SMS MMOTOP] Need to make space in the inventory (%dx%d)", this->MMOTOP_SMSBonusWcoinC);

  0026f	8b 8f 00 01 00
	00		 mov	 ecx, DWORD PTR [edi+256]
  00275	51		 push	 ecx
  00276	68 00 00 00 00	 push	 OFFSET ??_C@_0DK@LGEFFFOE@?$EA?$FLSMS?5MMOTOP?$FN?5Need?5to?5make?5space@
  0027b	53		 push	 ebx
  0027c	e8 00 00 00 00	 call	 ?MessageChat@@YAXHPADZZ	; MessageChat
  00281	83 c4 0c	 add	 esp, 12			; 0000000cH

; 447  : 						continue;

  00284	e9 c4 05 00 00	 jmp	 $LN67@MootopReed
$LN25@MootopReed:

; 448  : 					}
; 449  : 
; 450  : 					ItemSerialCreateSend(aIndex, 235, 0, 0, ITEMGET(this->MMOTOP_SMSBonusItemType, this->MMOTOP_SMSBonusItemIndex), this->MMOTOP_SMSBonusItemLevel, 0, 0, 0, 0, aIndex, 0, 0);

  00289	8b 87 14 01 00
	00		 mov	 eax, DWORD PTR [edi+276]
  0028f	0f b6 97 1c 01
	00 00		 movzx	 edx, BYTE PTR [edi+284]
  00296	6a 00		 push	 0
  00298	6a 00		 push	 0
  0029a	53		 push	 ebx
  0029b	6a 00		 push	 0
  0029d	6a 00		 push	 0
  0029f	6a 00		 push	 0
  002a1	6a 00		 push	 0
  002a3	52		 push	 edx
  002a4	c1 e0 09	 shl	 eax, 9
  002a7	03 87 18 01 00
	00		 add	 eax, DWORD PTR [edi+280]
  002ad	50		 push	 eax
  002ae	6a 00		 push	 0
  002b0	6a 00		 push	 0
  002b2	68 eb 00 00 00	 push	 235			; 000000ebH
  002b7	53		 push	 ebx
  002b8	e8 00 00 00 00	 call	 ?ItemSerialCreateSend@@YAXHEEEHEEEEEHEE@Z ; ItemSerialCreateSend

; 451  : 					MessageChat(aIndex, "@[SMS MMOTOP] Item Bonus: %s", ItemAttribute[ITEMGET(this->MMOTOP_SMSBonusItemType, this->MMOTOP_SMSBonusItemIndex)].Name);

  002bd	8b 8f 14 01 00
	00		 mov	 ecx, DWORD PTR [edi+276]
  002c3	c1 e1 09	 shl	 ecx, 9
  002c6	03 8f 18 01 00
	00		 add	 ecx, DWORD PTR [edi+280]
  002cc	6b c9 70	 imul	 ecx, 112		; 00000070H
  002cf	81 c1 00 00 00
	00		 add	 ecx, OFFSET ?ItemAttribute@@3PAUITEM_ATTRIBUTE@@A ; ItemAttribute
  002d5	51		 push	 ecx
  002d6	68 00 00 00 00	 push	 OFFSET ??_C@_0BN@GCHBLMLE@?$EA?$FLSMS?5MMOTOP?$FN?5Item?5Bonus?3?5?$CFs?$AA@
  002db	53		 push	 ebx
  002dc	e8 00 00 00 00	 call	 ?MessageChat@@YAXHPADZZ	; MessageChat
  002e1	83 c4 40	 add	 esp, 64			; 00000040H
$LN26@MootopReed:

; 452  : 				}
; 453  : 
; 454  : 				if (this->MMOTOP_SMSBonusWcoinC > 0)

  002e4	8b 87 00 01 00
	00		 mov	 eax, DWORD PTR [edi+256]
  002ea	89 85 44 fb ff
	ff		 mov	 DWORD PTR tv803[ebp], eax
  002f0	85 c0		 test	 eax, eax
  002f2	7e 32		 jle	 SHORT $LN24@MootopReed

; 455  : 				{
; 456  : 					lpObj->GameShop.WCoinC += this->MMOTOP_SMSBonusWcoinC;

  002f4	db 85 44 fb ff
	ff		 fild	 DWORD PTR tv803[ebp]

; 457  : 					gGameShop.GDSaveUserInfo(aIndex);

  002fa	53		 push	 ebx
  002fb	b9 00 00 00 00	 mov	 ecx, OFFSET ?gGameShop@@3VGameShop@@A ; gGameShop
  00300	dc 86 00 23 00
	00		 fadd	 QWORD PTR [esi+8960]
  00306	dd 9e 00 23 00
	00		 fstp	 QWORD PTR [esi+8960]
  0030c	e8 00 00 00 00	 call	 ?GDSaveUserInfo@GameShop@@QAEXH@Z ; GameShop::GDSaveUserInfo

; 458  : 					MessageChat(aIndex, "@[SMS MMOTOP] WcoinC Bonus: %d", this->MMOTOP_SMSBonusWcoinC);

  00311	8b 97 00 01 00
	00		 mov	 edx, DWORD PTR [edi+256]
  00317	52		 push	 edx
  00318	68 00 00 00 00	 push	 OFFSET ??_C@_0BP@FPHPGFAP@?$EA?$FLSMS?5MMOTOP?$FN?5WcoinC?5Bonus?3?5?$CFd?$AA@
  0031d	53		 push	 ebx
  0031e	e8 00 00 00 00	 call	 ?MessageChat@@YAXHPADZZ	; MessageChat
  00323	83 c4 0c	 add	 esp, 12			; 0000000cH
$LN24@MootopReed:

; 459  : 				}
; 460  : 
; 461  : 				if (this->MMOTOP_SMSBonusWcoinP > 0)

  00326	8b 87 04 01 00
	00		 mov	 eax, DWORD PTR [edi+260]
  0032c	89 85 44 fb ff
	ff		 mov	 DWORD PTR tv823[ebp], eax
  00332	85 c0		 test	 eax, eax
  00334	7e 32		 jle	 SHORT $LN23@MootopReed

; 462  : 				{
; 463  : 					lpObj->GameShop.WCoinP += this->MMOTOP_SMSBonusWcoinP;

  00336	db 85 44 fb ff
	ff		 fild	 DWORD PTR tv823[ebp]

; 464  : 					gGameShop.GDSaveUserInfo(aIndex);

  0033c	53		 push	 ebx
  0033d	b9 00 00 00 00	 mov	 ecx, OFFSET ?gGameShop@@3VGameShop@@A ; gGameShop
  00342	dc 86 f8 22 00
	00		 fadd	 QWORD PTR [esi+8952]
  00348	dd 9e f8 22 00
	00		 fstp	 QWORD PTR [esi+8952]
  0034e	e8 00 00 00 00	 call	 ?GDSaveUserInfo@GameShop@@QAEXH@Z ; GameShop::GDSaveUserInfo

; 465  : 					MessageChat(aIndex, "@[SMS MMOTOP] WCoinP Bonus: %d", this->MMOTOP_SMSBonusWcoinP);

  00353	8b 87 04 01 00
	00		 mov	 eax, DWORD PTR [edi+260]
  00359	50		 push	 eax
  0035a	68 00 00 00 00	 push	 OFFSET ??_C@_0BP@DDMGCBHO@?$EA?$FLSMS?5MMOTOP?$FN?5WCoinP?5Bonus?3?5?$CFd?$AA@
  0035f	53		 push	 ebx
  00360	e8 00 00 00 00	 call	 ?MessageChat@@YAXHPADZZ	; MessageChat
  00365	83 c4 0c	 add	 esp, 12			; 0000000cH
$LN23@MootopReed:

; 466  : 				}
; 467  : 
; 468  : 				if (this->MMOTOP_SMSBonusWcoinG > 0)

  00368	8b 87 08 01 00
	00		 mov	 eax, DWORD PTR [edi+264]
  0036e	89 85 44 fb ff
	ff		 mov	 DWORD PTR tv832[ebp], eax
  00374	85 c0		 test	 eax, eax
  00376	7e 32		 jle	 SHORT $LN22@MootopReed

; 469  : 				{
; 470  : 					lpObj->GameShop.GoblinPoint += this->MMOTOP_SMSBonusWcoinG;

  00378	db 85 44 fb ff
	ff		 fild	 DWORD PTR tv832[ebp]

; 471  : 					gGameShop.GDSaveUserInfo(aIndex);

  0037e	53		 push	 ebx
  0037f	b9 00 00 00 00	 mov	 ecx, OFFSET ?gGameShop@@3VGameShop@@A ; gGameShop
  00384	dc 86 08 23 00
	00		 fadd	 QWORD PTR [esi+8968]
  0038a	dd 9e 08 23 00
	00		 fstp	 QWORD PTR [esi+8968]
  00390	e8 00 00 00 00	 call	 ?GDSaveUserInfo@GameShop@@QAEXH@Z ; GameShop::GDSaveUserInfo

; 472  : 					MessageChat(aIndex, "@[SMS MMOTOP] Goblin Bonus: %d", this->MMOTOP_SMSBonusWcoinG);

  00395	8b 8f 08 01 00
	00		 mov	 ecx, DWORD PTR [edi+264]
  0039b	51		 push	 ecx
  0039c	68 00 00 00 00	 push	 OFFSET ??_C@_0BP@GMEMOPJF@?$EA?$FLSMS?5MMOTOP?$FN?5Goblin?5Bonus?3?5?$CFd?$AA@
  003a1	53		 push	 ebx
  003a2	e8 00 00 00 00	 call	 ?MessageChat@@YAXHPADZZ	; MessageChat
  003a7	83 c4 0c	 add	 esp, 12			; 0000000cH
$LN22@MootopReed:

; 473  : 				}
; 474  : 
; 475  : 				if (this->MMOTOP_SMSBonusZtCred > 0)

  003aa	83 bf 0c 01 00
	00 00		 cmp	 DWORD PTR [edi+268], 0
  003b1	7e 27		 jle	 SHORT $LN21@MootopReed

; 476  : 				{
; 477  : 					lpObj->ZtCred += this->MMOTOP_SMSBonusZtCred;

  003b3	db 87 0c 01 00
	00		 fild	 DWORD PTR [edi+268]
  003b9	d8 86 a8 22 00
	00		 fadd	 DWORD PTR [esi+8872]
  003bf	d9 9e a8 22 00
	00		 fstp	 DWORD PTR [esi+8872]

; 478  : 					MessageChat(aIndex, "@[SMS MMOTOP] ZtCred Bonus: %d", this->MMOTOP_SMSBonusZtCred);

  003c5	8b 97 0c 01 00
	00		 mov	 edx, DWORD PTR [edi+268]
  003cb	52		 push	 edx
  003cc	68 00 00 00 00	 push	 OFFSET ??_C@_0BP@DJMFBNNJ@?$EA?$FLSMS?5MMOTOP?$FN?5ZtCred?5Bonus?3?5?$CFd?$AA@
  003d1	53		 push	 ebx
  003d2	e8 00 00 00 00	 call	 ?MessageChat@@YAXHPADZZ	; MessageChat
  003d7	83 c4 0c	 add	 esp, 12			; 0000000cH
$LN21@MootopReed:

; 479  : 				}
; 480  : 
; 481  : 				if (this->MMOTOP_SMSBonusChaosBank > 0)

  003da	83 bf 20 01 00
	00 00		 cmp	 DWORD PTR [edi+288], 0
  003e1	7e 21		 jle	 SHORT $LN20@MootopReed

; 482  : 				{
; 483  : 					lpObj->ChaosBank += this->MMOTOP_SMSBonusChaosBank;

  003e3	8b 87 20 01 00
	00		 mov	 eax, DWORD PTR [edi+288]
  003e9	01 86 e4 27 00
	00		 add	 DWORD PTR [esi+10212], eax

; 484  : 					MessageChat(aIndex, "@[SMS MMOTOP] Chaos Bank Bonus: %d", this->MMOTOP_SMSBonusChaosBank);

  003ef	8b 8f 20 01 00
	00		 mov	 ecx, DWORD PTR [edi+288]
  003f5	51		 push	 ecx
  003f6	68 00 00 00 00	 push	 OFFSET ??_C@_0CD@HMDEKBKA@?$EA?$FLSMS?5MMOTOP?$FN?5Chaos?5Bank?5Bonus?3?5@
  003fb	53		 push	 ebx
  003fc	e8 00 00 00 00	 call	 ?MessageChat@@YAXHPADZZ	; MessageChat
  00401	83 c4 0c	 add	 esp, 12			; 0000000cH
$LN20@MootopReed:

; 485  : 				}
; 486  : 
; 487  : 				if (this->MMOTOP_SMSBonusBlessBank > 0)

  00404	83 bf 24 01 00
	00 00		 cmp	 DWORD PTR [edi+292], 0
  0040b	7e 21		 jle	 SHORT $LN19@MootopReed

; 488  : 				{
; 489  : 					lpObj->BlessBank += this->MMOTOP_SMSBonusBlessBank;

  0040d	8b 97 24 01 00
	00		 mov	 edx, DWORD PTR [edi+292]
  00413	01 96 e8 27 00
	00		 add	 DWORD PTR [esi+10216], edx

; 490  : 					MessageChat(aIndex, "@[SMS MMOTOP] Bless Bank Bonus: %d", this->MMOTOP_SMSBonusBlessBank);

  00419	8b 87 24 01 00
	00		 mov	 eax, DWORD PTR [edi+292]
  0041f	50		 push	 eax
  00420	68 00 00 00 00	 push	 OFFSET ??_C@_0CD@HGDBOBJH@?$EA?$FLSMS?5MMOTOP?$FN?5Bless?5Bank?5Bonus?3?5@
  00425	53		 push	 ebx
  00426	e8 00 00 00 00	 call	 ?MessageChat@@YAXHPADZZ	; MessageChat
  0042b	83 c4 0c	 add	 esp, 12			; 0000000cH
$LN19@MootopReed:

; 491  : 				}
; 492  : 
; 493  : 				if (this->MMOTOP_SMSBonusSoulBank > 0)

  0042e	83 bf 28 01 00
	00 00		 cmp	 DWORD PTR [edi+296], 0
  00435	7e 21		 jle	 SHORT $LN18@MootopReed

; 494  : 				{
; 495  : 					lpObj->SoulBank += this->MMOTOP_SMSBonusSoulBank;

  00437	8b 8f 28 01 00
	00		 mov	 ecx, DWORD PTR [edi+296]
  0043d	01 8e ec 27 00
	00		 add	 DWORD PTR [esi+10220], ecx

; 496  : 					MessageChat(aIndex, "@[SMS MMOTOP] Soul Bank Bonus: %d", this->MMOTOP_SMSBonusSoulBank);

  00443	8b 97 28 01 00
	00		 mov	 edx, DWORD PTR [edi+296]
  00449	52		 push	 edx
  0044a	68 00 00 00 00	 push	 OFFSET ??_C@_0CC@NCAGAAHA@?$EA?$FLSMS?5MMOTOP?$FN?5Soul?5Bank?5Bonus?3?5?$CF@
  0044f	53		 push	 ebx
  00450	e8 00 00 00 00	 call	 ?MessageChat@@YAXHPADZZ	; MessageChat
  00455	83 c4 0c	 add	 esp, 12			; 0000000cH
$LN18@MootopReed:

; 497  : 				}
; 498  : 
; 499  : 				if (this->MMOTOP_SMSBonusLifeBank > 0)

  00458	83 bf 2c 01 00
	00 00		 cmp	 DWORD PTR [edi+300], 0
  0045f	7e 21		 jle	 SHORT $LN17@MootopReed

; 500  : 				{
; 501  : 					lpObj->LifeBank += this->MMOTOP_SMSBonusLifeBank;

  00461	8b 87 2c 01 00
	00		 mov	 eax, DWORD PTR [edi+300]
  00467	01 86 f0 27 00
	00		 add	 DWORD PTR [esi+10224], eax

; 502  : 					MessageChat(aIndex, "@[SMS MMOTOP] Life Bank Bonus: %d", this->MMOTOP_SMSBonusLifeBank);

  0046d	8b 8f 2c 01 00
	00		 mov	 ecx, DWORD PTR [edi+300]
  00473	51		 push	 ecx
  00474	68 00 00 00 00	 push	 OFFSET ??_C@_0CC@HGBANFMA@?$EA?$FLSMS?5MMOTOP?$FN?5Life?5Bank?5Bonus?3?5?$CF@
  00479	53		 push	 ebx
  0047a	e8 00 00 00 00	 call	 ?MessageChat@@YAXHPADZZ	; MessageChat
  0047f	83 c4 0c	 add	 esp, 12			; 0000000cH
$LN17@MootopReed:

; 503  : 				}
; 504  : 
; 505  : 				// --> Buff Effect Custom
; 506  : 				if(g_ZtLicense.CheckUser(eZtUB::Gredy) || g_ZtLicense.CheckUser(eZtUB::GredyLocal) || g_ZtLicense.CheckUser(eZtUB::Gredy2))

  00482	6a 20		 push	 32			; 00000020H
  00484	b9 00 00 00 00	 mov	 ecx, OFFSET ?g_ZtLicense@@3VCZtLicense@@A ; g_ZtLicense
  00489	e8 00 00 00 00	 call	 ?CheckUser@CZtLicense@@QAE_NH@Z ; CZtLicense::CheckUser
  0048e	84 c0		 test	 al, al
  00490	75 20		 jne	 SHORT $LN15@MootopReed
  00492	6a 21		 push	 33			; 00000021H
  00494	b9 00 00 00 00	 mov	 ecx, OFFSET ?g_ZtLicense@@3VCZtLicense@@A ; g_ZtLicense
  00499	e8 00 00 00 00	 call	 ?CheckUser@CZtLicense@@QAE_NH@Z ; CZtLicense::CheckUser
  0049e	84 c0		 test	 al, al
  004a0	75 10		 jne	 SHORT $LN15@MootopReed
  004a2	6a 22		 push	 34			; 00000022H
  004a4	b9 00 00 00 00	 mov	 ecx, OFFSET ?g_ZtLicense@@3VCZtLicense@@A ; g_ZtLicense
  004a9	e8 00 00 00 00	 call	 ?CheckUser@CZtLicense@@QAE_NH@Z ; CZtLicense::CheckUser
  004ae	84 c0		 test	 al, al
  004b0	74 29		 je	 SHORT $LN16@MootopReed
$LN15@MootopReed:

; 507  : 				{
; 508  : 					lpObj->MT_BuffTime += this->MMOTOP_BuffTime;

  004b2	8b 97 60 02 00
	00		 mov	 edx, DWORD PTR [edi+608]
  004b8	01 96 dc 2a 00
	00		 add	 DWORD PTR [esi+10972], edx

; 509  : 					gObjApplyBuffEffectDuration(lpObj, AT_MMOTOP_BUFF, 0, 0, 0, 0, this->MMOTOP_BuffTime);

  004be	8b 87 60 02 00
	00		 mov	 eax, DWORD PTR [edi+608]
  004c4	50		 push	 eax
  004c5	6a 00		 push	 0
  004c7	6a 00		 push	 0
  004c9	6a 00		 push	 0
  004cb	6a 00		 push	 0
  004cd	68 c2 00 00 00	 push	 194			; 000000c2H
  004d2	56		 push	 esi
  004d3	e8 00 00 00 00	 call	 ?gObjApplyBuffEffectDuration@@YAEPAUOBJECTSTRUCT@@HEHEHH@Z ; gObjApplyBuffEffectDuration
  004d8	83 c4 1c	 add	 esp, 28			; 0000001cH
$LN16@MootopReed:

; 510  : 				}
; 511  : 
; 512  : 				MessageChat(aIndex,"@[SMS MMOTOP] Date: %s",DataTime);

  004db	8d 8d 48 ff ff
	ff		 lea	 ecx, DWORD PTR _DataTime$207810[ebp]
  004e1	51		 push	 ecx
  004e2	68 00 00 00 00	 push	 OFFSET ??_C@_0BH@LAAAIICJ@?$EA?$FLSMS?5MMOTOP?$FN?5Date?3?5?$CFs?$AA@

; 513  : 			}
; 514  : 			else

  004e7	e9 c6 02 00 00	 jmp	 $LN71@MootopReed
$LN27@MootopReed:

; 515  : 			{
; 516  : 			//~~~~~~~~~~~~~~~~~~~~~~~~~~~~~~~~~~~~~~~~~~~~~~~~~
; 517  : 
; 518  : 				if (this->MMOTOP_BonusItemActive)

  004ec	83 bf e0 00 00
	00 00		 cmp	 DWORD PTR [edi+224], 0
  004f3	0f 84 b6 00 00
	00		 je	 $LN13@MootopReed

; 519  : 				{
; 520  : 					int Height = ItemAttribute[ITEMGET(this->MMOTOP_BonusItemType, this->MMOTOP_BonusItemIndex)].Height;

  004f9	8b 87 e4 00 00
	00		 mov	 eax, DWORD PTR [edi+228]
  004ff	c1 e0 09	 shl	 eax, 9
  00502	03 87 e8 00 00
	00		 add	 eax, DWORD PTR [edi+232]
  00508	6b c0 70	 imul	 eax, 112		; 00000070H
  0050b	0f b6 88 24 00
	00 00		 movzx	 ecx, BYTE PTR ?ItemAttribute@@3PAUITEM_ATTRIBUTE@@A[eax+36]

; 521  : 					int Width = ItemAttribute[ITEMGET(this->MMOTOP_BonusItemType, this->MMOTOP_BonusItemIndex)].Width;

  00512	0f b6 80 23 00
	00 00		 movzx	 eax, BYTE PTR ?ItemAttribute@@3PAUITEM_ATTRIBUTE@@A[eax+35]

; 522  : 
; 523  : 					if(!CheckInventoryEmptySpace(lpObj, Height, Width))

  00519	50		 push	 eax
  0051a	51		 push	 ecx
  0051b	56		 push	 esi
  0051c	89 8d 40 fb ff
	ff		 mov	 DWORD PTR _Height$207866[ebp], ecx
  00522	89 85 44 fb ff
	ff		 mov	 DWORD PTR _Width$207867[ebp], eax
  00528	e8 00 00 00 00	 call	 ?CheckInventoryEmptySpace@@YAHPAUOBJECTSTRUCT@@HH@Z ; CheckInventoryEmptySpace
  0052d	83 c4 0c	 add	 esp, 12			; 0000000cH
  00530	85 c0		 test	 eax, eax
  00532	75 21		 jne	 SHORT $LN12@MootopReed

; 524  : 					{
; 525  : 						MessageChat(aIndex,"@[MMOTOP] Need to make space in the inventory (%dx%d)",Height,Width);

  00534	8b 95 44 fb ff
	ff		 mov	 edx, DWORD PTR _Width$207867[ebp]
  0053a	8b 85 40 fb ff
	ff		 mov	 eax, DWORD PTR _Height$207866[ebp]
  00540	52		 push	 edx
  00541	50		 push	 eax
  00542	68 00 00 00 00	 push	 OFFSET ??_C@_0DG@CODMCGBJ@?$EA?$FLMMOTOP?$FN?5Need?5to?5make?5space?5in?5@
  00547	53		 push	 ebx
  00548	e8 00 00 00 00	 call	 ?MessageChat@@YAXHPADZZ	; MessageChat
  0054d	83 c4 10	 add	 esp, 16			; 00000010H

; 526  : 						continue;

  00550	e9 f8 02 00 00	 jmp	 $LN67@MootopReed
$LN12@MootopReed:

; 527  : 					}
; 528  : 
; 529  : 					ItemSerialCreateSend(aIndex, 235, 0, 0, ITEMGET(this->MMOTOP_BonusItemType, this->MMOTOP_BonusItemIndex), this->MMOTOP_BonusItemLevel, 0, 0, 0, 0, aIndex, 0, 0);

  00555	8b 97 e4 00 00
	00		 mov	 edx, DWORD PTR [edi+228]
  0055b	0f b6 8f ec 00
	00 00		 movzx	 ecx, BYTE PTR [edi+236]
  00562	6a 00		 push	 0
  00564	6a 00		 push	 0
  00566	53		 push	 ebx
  00567	6a 00		 push	 0
  00569	6a 00		 push	 0
  0056b	6a 00		 push	 0
  0056d	6a 00		 push	 0
  0056f	51		 push	 ecx
  00570	c1 e2 09	 shl	 edx, 9
  00573	03 97 e8 00 00
	00		 add	 edx, DWORD PTR [edi+232]
  00579	52		 push	 edx
  0057a	6a 00		 push	 0
  0057c	6a 00		 push	 0
  0057e	68 eb 00 00 00	 push	 235			; 000000ebH
  00583	53		 push	 ebx
  00584	e8 00 00 00 00	 call	 ?ItemSerialCreateSend@@YAXHEEEHEEEEEHEE@Z ; ItemSerialCreateSend

; 530  : 					MessageChat(aIndex, "@[MMOTOP] Item Bonus: %s", ItemAttribute[ITEMGET(this->MMOTOP_SMSBonusItemType, this->MMOTOP_SMSBonusItemIndex)].Name);

  00589	8b 87 14 01 00
	00		 mov	 eax, DWORD PTR [edi+276]
  0058f	c1 e0 09	 shl	 eax, 9
  00592	03 87 18 01 00
	00		 add	 eax, DWORD PTR [edi+280]
  00598	6b c0 70	 imul	 eax, 112		; 00000070H
  0059b	05 00 00 00 00	 add	 eax, OFFSET ?ItemAttribute@@3PAUITEM_ATTRIBUTE@@A ; ItemAttribute
  005a0	50		 push	 eax
  005a1	68 00 00 00 00	 push	 OFFSET ??_C@_0BJ@NMLLBIJJ@?$EA?$FLMMOTOP?$FN?5Item?5Bonus?3?5?$CFs?$AA@
  005a6	53		 push	 ebx
  005a7	e8 00 00 00 00	 call	 ?MessageChat@@YAXHPADZZ	; MessageChat
  005ac	83 c4 40	 add	 esp, 64			; 00000040H
$LN13@MootopReed:

; 531  : 				}
; 532  : 
; 533  : 				if (this->MMOTOP_BonusWcoinC > 0)

  005af	8b 87 d0 00 00
	00		 mov	 eax, DWORD PTR [edi+208]
  005b5	89 85 40 fb ff
	ff		 mov	 DWORD PTR tv936[ebp], eax
  005bb	85 c0		 test	 eax, eax
  005bd	7e 32		 jle	 SHORT $LN11@MootopReed

; 534  : 				{
; 535  : 					lpObj->GameShop.WCoinC += this->MMOTOP_BonusWcoinC;

  005bf	db 85 40 fb ff
	ff		 fild	 DWORD PTR tv936[ebp]

; 536  : 					gGameShop.GDSaveUserInfo(aIndex);

  005c5	53		 push	 ebx
  005c6	b9 00 00 00 00	 mov	 ecx, OFFSET ?gGameShop@@3VGameShop@@A ; gGameShop
  005cb	dc 86 00 23 00
	00		 fadd	 QWORD PTR [esi+8960]
  005d1	dd 9e 00 23 00
	00		 fstp	 QWORD PTR [esi+8960]
  005d7	e8 00 00 00 00	 call	 ?GDSaveUserInfo@GameShop@@QAEXH@Z ; GameShop::GDSaveUserInfo

; 537  : 					MessageChat(aIndex, "@[MMOTOP] WcoinC Bonus: %d", this->MMOTOP_BonusWcoinC);

  005dc	8b 8f d0 00 00
	00		 mov	 ecx, DWORD PTR [edi+208]
  005e2	51		 push	 ecx
  005e3	68 00 00 00 00	 push	 OFFSET ??_C@_0BL@KOOOOGNL@?$EA?$FLMMOTOP?$FN?5WcoinC?5Bonus?3?5?$CFd?$AA@
  005e8	53		 push	 ebx
  005e9	e8 00 00 00 00	 call	 ?MessageChat@@YAXHPADZZ	; MessageChat
  005ee	83 c4 0c	 add	 esp, 12			; 0000000cH
$LN11@MootopReed:

; 538  : 				}
; 539  : 
; 540  : 				if (this->MMOTOP_BonusWcoinP > 0)

  005f1	8b 87 d4 00 00
	00		 mov	 eax, DWORD PTR [edi+212]
  005f7	89 85 40 fb ff
	ff		 mov	 DWORD PTR tv942[ebp], eax
  005fd	85 c0		 test	 eax, eax
  005ff	7e 32		 jle	 SHORT $LN10@MootopReed

; 541  : 				{
; 542  : 					lpObj->GameShop.WCoinP += this->MMOTOP_BonusWcoinP;

  00601	db 85 40 fb ff
	ff		 fild	 DWORD PTR tv942[ebp]

; 543  : 					gGameShop.GDSaveUserInfo(aIndex);

  00607	53		 push	 ebx
  00608	b9 00 00 00 00	 mov	 ecx, OFFSET ?gGameShop@@3VGameShop@@A ; gGameShop
  0060d	dc 86 f8 22 00
	00		 fadd	 QWORD PTR [esi+8952]
  00613	dd 9e f8 22 00
	00		 fstp	 QWORD PTR [esi+8952]
  00619	e8 00 00 00 00	 call	 ?GDSaveUserInfo@GameShop@@QAEXH@Z ; GameShop::GDSaveUserInfo

; 544  : 					MessageChat(aIndex, "@[MMOTOP] WCoinP Bonus: %d", this->MMOTOP_BonusWcoinP);

  0061e	8b 97 d4 00 00
	00		 mov	 edx, DWORD PTR [edi+212]
  00624	52		 push	 edx
  00625	68 00 00 00 00	 push	 OFFSET ??_C@_0BL@MCFHKCKK@?$EA?$FLMMOTOP?$FN?5WCoinP?5Bonus?3?5?$CFd?$AA@
  0062a	53		 push	 ebx
  0062b	e8 00 00 00 00	 call	 ?MessageChat@@YAXHPADZZ	; MessageChat
  00630	83 c4 0c	 add	 esp, 12			; 0000000cH
$LN10@MootopReed:

; 545  : 				}
; 546  : 
; 547  : 				if (this->MMOTOP_BonusWcoinG > 0)

  00633	8b 87 d8 00 00
	00		 mov	 eax, DWORD PTR [edi+216]
  00639	89 85 40 fb ff
	ff		 mov	 DWORD PTR tv948[ebp], eax
  0063f	85 c0		 test	 eax, eax
  00641	7e 32		 jle	 SHORT $LN9@MootopReed

; 548  : 				{
; 549  : 					lpObj->GameShop.GoblinPoint += this->MMOTOP_BonusWcoinG;

  00643	db 85 40 fb ff
	ff		 fild	 DWORD PTR tv948[ebp]

; 550  : 					gGameShop.GDSaveUserInfo(aIndex);

  00649	53		 push	 ebx
  0064a	b9 00 00 00 00	 mov	 ecx, OFFSET ?gGameShop@@3VGameShop@@A ; gGameShop
  0064f	dc 86 08 23 00
	00		 fadd	 QWORD PTR [esi+8968]
  00655	dd 9e 08 23 00
	00		 fstp	 QWORD PTR [esi+8968]
  0065b	e8 00 00 00 00	 call	 ?GDSaveUserInfo@GameShop@@QAEXH@Z ; GameShop::GDSaveUserInfo

; 551  : 					MessageChat(aIndex, "@[MMOTOP] Goblin Bonus: %d", this->MMOTOP_BonusWcoinG);

  00660	8b 87 d8 00 00
	00		 mov	 eax, DWORD PTR [edi+216]
  00666	50		 push	 eax
  00667	68 00 00 00 00	 push	 OFFSET ??_C@_0BL@JNNNGMEB@?$EA?$FLMMOTOP?$FN?5Goblin?5Bonus?3?5?$CFd?$AA@
  0066c	53		 push	 ebx
  0066d	e8 00 00 00 00	 call	 ?MessageChat@@YAXHPADZZ	; MessageChat
  00672	83 c4 0c	 add	 esp, 12			; 0000000cH
$LN9@MootopReed:

; 552  : 				}
; 553  : 
; 554  : 				if (this->MMOTOP_BonusZtCred > 0)

  00675	83 bf dc 00 00
	00 00		 cmp	 DWORD PTR [edi+220], 0
  0067c	7e 27		 jle	 SHORT $LN8@MootopReed

; 555  : 				{
; 556  : 					lpObj->ZtCred += this->MMOTOP_BonusZtCred;

  0067e	db 87 dc 00 00
	00		 fild	 DWORD PTR [edi+220]
  00684	d8 86 a8 22 00
	00		 fadd	 DWORD PTR [esi+8872]
  0068a	d9 9e a8 22 00
	00		 fstp	 DWORD PTR [esi+8872]

; 557  : 					MessageChat(aIndex, "@[MMOTOP] ZtCred Bonus: %d", this->MMOTOP_BonusZtCred);

  00690	8b 8f dc 00 00
	00		 mov	 ecx, DWORD PTR [edi+220]
  00696	51		 push	 ecx
  00697	68 00 00 00 00	 push	 OFFSET ??_C@_0BL@MIFEJOAN@?$EA?$FLMMOTOP?$FN?5ZtCred?5Bonus?3?5?$CFd?$AA@
  0069c	53		 push	 ebx
  0069d	e8 00 00 00 00	 call	 ?MessageChat@@YAXHPADZZ	; MessageChat
  006a2	83 c4 0c	 add	 esp, 12			; 0000000cH
$LN8@MootopReed:

; 558  : 				}
; 559  : 
; 560  : 				if (this->MMOTOP_BonusChaosBank > 0)

  006a5	83 bf f0 00 00
	00 00		 cmp	 DWORD PTR [edi+240], 0
  006ac	7e 21		 jle	 SHORT $LN7@MootopReed

; 561  : 				{
; 562  : 					lpObj->ChaosBank += this->MMOTOP_BonusChaosBank;

  006ae	8b 97 f0 00 00
	00		 mov	 edx, DWORD PTR [edi+240]
  006b4	01 96 e4 27 00
	00		 add	 DWORD PTR [esi+10212], edx

; 563  : 					MessageChat(aIndex, "@[MMOTOP] Chaos Bank Bonus: %d", this->MMOTOP_BonusChaosBank);

  006ba	8b 87 f0 00 00
	00		 mov	 eax, DWORD PTR [edi+240]
  006c0	50		 push	 eax
  006c1	68 00 00 00 00	 push	 OFFSET ??_C@_0BP@JEJBFDGG@?$EA?$FLMMOTOP?$FN?5Chaos?5Bank?5Bonus?3?5?$CFd?$AA@
  006c6	53		 push	 ebx
  006c7	e8 00 00 00 00	 call	 ?MessageChat@@YAXHPADZZ	; MessageChat
  006cc	83 c4 0c	 add	 esp, 12			; 0000000cH
$LN7@MootopReed:

; 564  : 				}
; 565  : 
; 566  : 				if (this->MMOTOP_BonusBlessBank > 0)

  006cf	83 bf f4 00 00
	00 00		 cmp	 DWORD PTR [edi+244], 0
  006d6	7e 21		 jle	 SHORT $LN6@MootopReed

; 567  : 				{
; 568  : 					lpObj->BlessBank += this->MMOTOP_BonusBlessBank;

  006d8	8b 8f f4 00 00
	00		 mov	 ecx, DWORD PTR [edi+244]
  006de	01 8e e8 27 00
	00		 add	 DWORD PTR [esi+10216], ecx

; 569  : 					MessageChat(aIndex, "@[MMOTOP] Bless Bank Bonus: %d", this->MMOTOP_BonusBlessBank);

  006e4	8b 97 f4 00 00
	00		 mov	 edx, DWORD PTR [edi+244]
  006ea	52		 push	 edx
  006eb	68 00 00 00 00	 push	 OFFSET ??_C@_0BP@JOJEBDFB@?$EA?$FLMMOTOP?$FN?5Bless?5Bank?5Bonus?3?5?$CFd?$AA@
  006f0	53		 push	 ebx
  006f1	e8 00 00 00 00	 call	 ?MessageChat@@YAXHPADZZ	; MessageChat
  006f6	83 c4 0c	 add	 esp, 12			; 0000000cH
$LN6@MootopReed:

; 570  : 				}
; 571  : 
; 572  : 				if (this->MMOTOP_BonusSoulBank > 0)

  006f9	83 bf f8 00 00
	00 00		 cmp	 DWORD PTR [edi+248], 0
  00700	7e 21		 jle	 SHORT $LN5@MootopReed

; 573  : 				{
; 574  : 					lpObj->SoulBank += this->MMOTOP_BonusSoulBank;

  00702	8b 87 f8 00 00
	00		 mov	 eax, DWORD PTR [edi+248]
  00708	01 86 ec 27 00
	00		 add	 DWORD PTR [esi+10220], eax

; 575  : 					MessageChat(aIndex, "@[MMOTOP] Soul Bank Bonus: %d", this->MMOTOP_BonusSoulBank);

  0070e	8b 8f f8 00 00
	00		 mov	 ecx, DWORD PTR [edi+248]
  00714	51		 push	 ecx
  00715	68 00 00 00 00	 push	 OFFSET ??_C@_0BO@MPCAPFDH@?$EA?$FLMMOTOP?$FN?5Soul?5Bank?5Bonus?3?5?$CFd?$AA@
  0071a	53		 push	 ebx
  0071b	e8 00 00 00 00	 call	 ?MessageChat@@YAXHPADZZ	; MessageChat
  00720	83 c4 0c	 add	 esp, 12			; 0000000cH
$LN5@MootopReed:

; 576  : 				}
; 577  : 
; 578  : 				if (this->MMOTOP_BonusLifeBank > 0)

  00723	83 bf fc 00 00
	00 00		 cmp	 DWORD PTR [edi+252], 0
  0072a	7e 21		 jle	 SHORT $LN4@MootopReed

; 579  : 				{
; 580  : 					lpObj->LifeBank += this->MMOTOP_BonusLifeBank;

  0072c	8b 97 fc 00 00
	00		 mov	 edx, DWORD PTR [edi+252]
  00732	01 96 f0 27 00
	00		 add	 DWORD PTR [esi+10224], edx

; 581  : 					MessageChat(aIndex, "@[MMOTOP] Life Bank Bonus: %d", this->MMOTOP_BonusLifeBank);

  00738	8b 87 fc 00 00
	00		 mov	 eax, DWORD PTR [edi+252]
  0073e	50		 push	 eax
  0073f	68 00 00 00 00	 push	 OFFSET ??_C@_0BO@GLDGCAIH@?$EA?$FLMMOTOP?$FN?5Life?5Bank?5Bonus?3?5?$CFd?$AA@
  00744	53		 push	 ebx
  00745	e8 00 00 00 00	 call	 ?MessageChat@@YAXHPADZZ	; MessageChat
  0074a	83 c4 0c	 add	 esp, 12			; 0000000cH
$LN4@MootopReed:

; 582  : 				}
; 583  : 
; 584  : 				// --> Buff Effect Custom
; 585  : 				if(g_ZtLicense.CheckUser(eZtUB::Gredy) || g_ZtLicense.CheckUser(eZtUB::GredyLocal) || g_ZtLicense.CheckUser(eZtUB::Gredy2))

  0074d	6a 20		 push	 32			; 00000020H
  0074f	b9 00 00 00 00	 mov	 ecx, OFFSET ?g_ZtLicense@@3VCZtLicense@@A ; g_ZtLicense
  00754	e8 00 00 00 00	 call	 ?CheckUser@CZtLicense@@QAE_NH@Z ; CZtLicense::CheckUser
  00759	84 c0		 test	 al, al
  0075b	75 20		 jne	 SHORT $LN2@MootopReed
  0075d	6a 21		 push	 33			; 00000021H
  0075f	b9 00 00 00 00	 mov	 ecx, OFFSET ?g_ZtLicense@@3VCZtLicense@@A ; g_ZtLicense
  00764	e8 00 00 00 00	 call	 ?CheckUser@CZtLicense@@QAE_NH@Z ; CZtLicense::CheckUser
  00769	84 c0		 test	 al, al
  0076b	75 10		 jne	 SHORT $LN2@MootopReed
  0076d	6a 22		 push	 34			; 00000022H
  0076f	b9 00 00 00 00	 mov	 ecx, OFFSET ?g_ZtLicense@@3VCZtLicense@@A ; g_ZtLicense
  00774	e8 00 00 00 00	 call	 ?CheckUser@CZtLicense@@QAE_NH@Z ; CZtLicense::CheckUser
  00779	84 c0		 test	 al, al
  0077b	74 29		 je	 SHORT $LN3@MootopReed
$LN2@MootopReed:

; 586  : 				{
; 587  : 					lpObj->MT_BuffTime += this->MMOTOP_SMSBuffTime;

  0077d	8b 8f 64 02 00
	00		 mov	 ecx, DWORD PTR [edi+612]
  00783	01 8e dc 2a 00
	00		 add	 DWORD PTR [esi+10972], ecx
  00789	8b 86 dc 2a 00
	00		 mov	 eax, DWORD PTR [esi+10972]

; 588  : 					gObjApplyBuffEffectDuration(lpObj, AT_MMOTOP_BUFF, 0, 0, 0, 0, lpObj->MT_BuffTime);

  0078f	50		 push	 eax
  00790	6a 00		 push	 0
  00792	6a 00		 push	 0
  00794	6a 00		 push	 0
  00796	6a 00		 push	 0
  00798	68 c2 00 00 00	 push	 194			; 000000c2H
  0079d	56		 push	 esi
  0079e	e8 00 00 00 00	 call	 ?gObjApplyBuffEffectDuration@@YAEPAUOBJECTSTRUCT@@HEHEHH@Z ; gObjApplyBuffEffectDuration
  007a3	83 c4 1c	 add	 esp, 28			; 0000001cH
$LN3@MootopReed:

; 589  : 				}
; 590  : 
; 591  : 				MessageChat(aIndex,"@[MMOTOP] Date: %s",DataTime);

  007a6	8d 95 48 ff ff
	ff		 lea	 edx, DWORD PTR _DataTime$207810[ebp]
  007ac	52		 push	 edx
  007ad	68 00 00 00 00	 push	 OFFSET ??_C@_0BD@DNPJLPDE@?$EA?$FLMMOTOP?$FN?5Date?3?5?$CFs?$AA@
$LN71@MootopReed:
  007b2	53		 push	 ebx
  007b3	e8 00 00 00 00	 call	 ?MessageChat@@YAXHPADZZ	; MessageChat

; 592  : 			}
; 593  : 
; 594  : 			lpObj->MTDate = tData;

  007b8	8b 85 38 fb ff
	ff		 mov	 eax, DWORD PTR _tData$207835[ebp]
  007be	83 c4 0c	 add	 esp, 12			; 0000000cH

; 595  : 			
; 596  : 			ZtUserDataSend(aIndex);

  007c1	53		 push	 ebx
  007c2	89 86 0c 28 00
	00		 mov	 DWORD PTR [esi+10252], eax
  007c8	e8 00 00 00 00	 call	 ?ZtUserDataSend@@YAXH@Z	; ZtUserDataSend

; 597  : #ifndef FIX_DS_CRASH
; 598  : 			GJSetCharacterInfo(lpObj, lpObj->m_Index, 0);
; 599  : #endif
; 600  : 			LogAdd("[MMOTOP][%s] Date: %s", lpObj->AccountID,DataTime);

  007cd	8d 8d 48 ff ff
	ff		 lea	 ecx, DWORD PTR _DataTime$207810[ebp]
  007d3	51		 push	 ecx
  007d4	8d 56 6c	 lea	 edx, DWORD PTR [esi+108]
  007d7	52		 push	 edx
  007d8	68 00 00 00 00	 push	 OFFSET ??_C@_0BG@BMABLBJK@?$FLMMOTOP?$FN?$FL?$CFs?$FN?5Date?3?5?$CFs?$AA@
  007dd	ff 15 00 00 00
	00		 call	 DWORD PTR ?LogAdd@@3P6AXPADZZA ; LogAdd

; 601  : 
; 602  : #if(MMOTOP_LOG==TRUE)
; 603  : 			char Buff2[512] = { 0 };

  007e3	68 ff 01 00 00	 push	 511			; 000001ffH
  007e8	8d 85 49 fd ff
	ff		 lea	 eax, DWORD PTR _Buff2$207891[ebp+1]
  007ee	6a 00		 push	 0
  007f0	50		 push	 eax
  007f1	c6 85 48 fd ff
	ff 00		 mov	 BYTE PTR _Buff2$207891[ebp], 0
  007f8	e8 00 00 00 00	 call	 _memset

; 604  : 			sprintf(Buff2, "%d %s %s %s %s %d", mId, mGetDate, mGetTime, mGetIp, mGetAccaunt, mRewerd);

  007fd	8b 8d 3c fb ff
	ff		 mov	 ecx, DWORD PTR _mRewerd$207808[ebp]
  00803	51		 push	 ecx
  00804	8d 55 e8	 lea	 edx, DWORD PTR _mGetAccaunt$207807[ebp]
  00807	52		 push	 edx
  00808	8d 45 ac	 lea	 eax, DWORD PTR _mGetIp$207806[ebp]
  0080b	50		 push	 eax
  0080c	8b 85 1c fb ff
	ff		 mov	 eax, DWORD PTR _mId$207803[ebp]
  00812	8d 4d d4	 lea	 ecx, DWORD PTR _mGetTime$207805[ebp]
  00815	51		 push	 ecx
  00816	8d 55 c0	 lea	 edx, DWORD PTR _mGetDate$207804[ebp]
  00819	52		 push	 edx
  0081a	50		 push	 eax
  0081b	8d 8d 48 fd ff
	ff		 lea	 ecx, DWORD PTR _Buff2$207891[ebp]
  00821	68 00 00 00 00	 push	 OFFSET ??_C@_0BC@FDIFMHGC@?$CFd?5?$CFs?5?$CFs?5?$CFs?5?$CFs?5?$CFd?$AA@
  00826	51		 push	 ecx
  00827	e8 00 00 00 00	 call	 _sprintf

; 605  : 			g_MmotopLog.Output(Buff2);

  0082c	8d 95 48 fd ff
	ff		 lea	 edx, DWORD PTR _Buff2$207891[ebp]
  00832	52		 push	 edx
  00833	68 00 00 00 00	 push	 OFFSET ?g_MmotopLog@@3VCLogToFile@@A ; g_MmotopLog
  00838	e8 00 00 00 00	 call	 ?Output@CLogToFile@@QAAXPADZZ ; CLogToFile::Output

; 606  : #endif
; 607  : #if(SYSTEM_ACHIEVEMENTS)
; 608  : 			g_Achievements.MootopVoteUp(lpObj->m_Index);

  0083d	8b 06		 mov	 eax, DWORD PTR [esi]
  0083f	83 c4 44	 add	 esp, 68			; 00000044H
  00842	50		 push	 eax
  00843	b9 00 00 00 00	 mov	 ecx, OFFSET ?g_Achievements@@3VCAchievements@@A ; g_Achievements
  00848	e8 00 00 00 00	 call	 ?MootopVoteUp@CAchievements@@QAEXH@Z ; CAchievements::MootopVoteUp
$LN67@MootopReed:

; 362  : 	{
; 363  : #ifdef VOTE_DEBUG
; 364  : 		LogAddC(2,"[VOTE]No FILE");
; 365  : #endif
; 366  : 		return;
; 367  : 	}
; 368  : 
; 369  : 	char Buff[512];
; 370  : 
; 371  : 	int Count = 0;
; 372  : 
; 373  : 	while (!feof(file))

  0084d	8b b5 30 fb ff
	ff		 mov	 esi, DWORD PTR _file$[ebp]
  00853	56		 push	 esi
  00854	e8 00 00 00 00	 call	 _feof
  00859	83 c4 04	 add	 esp, 4
  0085c	85 c0		 test	 eax, eax
  0085e	0f 84 f0 f7 ff
	ff		 je	 $LL42@MootopReed
  00864	5b		 pop	 ebx
$LN41@MootopReed:

; 609  : #endif
; 610  : 		}
; 611  : 		
; 612  : 	}
; 613  : 
; 614  : 	fclose(file);

  00865	56		 push	 esi
  00866	e8 00 00 00 00	 call	 _fclose
  0086b	83 c4 04	 add	 esp, 4

; 615  : 	if (this->MMOTOP_DeleteVoteFile)

  0086e	80 7f 01 00	 cmp	 BYTE PTR [edi+1], 0
  00872	74 0d		 je	 SHORT $LN69@MootopReed

; 616  : 	{
; 617  : 		remove(MMOTOP_FILE);

  00874	68 00 00 00 00	 push	 OFFSET ??_C@_0L@HNCANJIK@mmotop?4txt?$AA@
  00879	e8 00 00 00 00	 call	 _remove
  0087e	83 c4 04	 add	 esp, 4
$LN69@MootopReed:
  00881	5e		 pop	 esi
$LN1@MootopReed:

; 618  : 	}
; 619  : }

  00882	8b 4d fc	 mov	 ecx, DWORD PTR __$ArrayPad$[ebp]
  00885	33 cd		 xor	 ecx, ebp
  00887	5f		 pop	 edi
  00888	e8 00 00 00 00	 call	 @__security_check_cookie@4
  0088d	8b e5		 mov	 esp, ebp
  0088f	5d		 pop	 ebp
  00890	c3		 ret	 0
?MootopReed@Voter@@QAEXXZ ENDP				; Voter::MootopReed
_TEXT	ENDS
PUBLIC	??_C@_0BE@OHJFKBPP@?$FLQTOP?$FN?$FL?$CFs?$FN?5Date?3?5?$CFs?$AA@ ; `string'
PUBLIC	??_C@_0BB@EPGEHIK@?$EA?$FLQTOP?$FN?5Date?3?5?$CFs?$AA@ ; `string'
PUBLIC	??_C@_0BM@CAGLDOOI@?$EA?$FLQTOP?$FN?5Life?5Bank?5Bonus?3?5?$CFd?$AA@ ; `string'
PUBLIC	??_C@_0BM@IEHNOLFI@?$EA?$FLQTOP?$FN?5Soul?5Bank?5Bonus?3?5?$CFd?$AA@ ; `string'
PUBLIC	??_C@_0BN@EDNCDCIG@?$EA?$FLQTOP?$FN?5Bless?5Bank?5Bonus?3?5?$CFd?$AA@ ; `string'
PUBLIC	??_C@_0BN@EJNHHCLB@?$EA?$FLQTOP?$FN?5Chaos?5Bank?5Bonus?3?5?$CFd?$AA@ ; `string'
PUBLIC	??_C@_0BJ@BNOEGAE@?$EA?$FLQTOP?$FN?5ZtCred?5Bonus?3?5?$CFd?$AA@ ; `string'
PUBLIC	??_C@_0BJ@FEFHLEEI@?$EA?$FLQTOP?$FN?5Goblin?5Bonus?3?5?$CFd?$AA@ ; `string'
PUBLIC	??_C@_0BJ@LNNHKKD@?$EA?$FLQTOP?$FN?5WCoinP?5Bonus?3?5?$CFd?$AA@ ; `string'
PUBLIC	??_C@_0BJ@GHGEDONC@?$EA?$FLQTOP?$FN?5WcoinC?5Bonus?3?5?$CFd?$AA@ ; `string'
PUBLIC	??_C@_0BH@PHOGLPEJ@?$EA?$FLQTOP?$FN?5Item?5Bonus?3?5?$CFs?$AA@ ; `string'
PUBLIC	??_C@_0DE@MCFMOACN@?$EA?$FLQTOP?$FN?5Need?5to?5make?5space?5in?5th@ ; `string'
PUBLIC	??_C@_0BF@OKPMBKFL@?$EA?$FLSMS?5QTOP?$FN?5Date?3?5?$CFs?$AA@ ; `string'
PUBLIC	??_C@_0CA@KBCELJKG@?$EA?$FLSMS?5QTOP?$FN?5Life?5Bank?5Bonus?3?5?$CFd?$AA@ ; `string'
PUBLIC	??_C@_0CA@FDCGMBG@?$EA?$FLSMS?5QTOP?$FN?5Soul?5Bank?5Bonus?3?5?$CFd?$AA@ ; `string'
PUBLIC	??_C@_0CB@NCDHBBJG@?$EA?$FLSMS?5QTOP?$FN?5Bless?5Bank?5Bonus?3?5?$CFd@ ; `string'
PUBLIC	??_C@_0CB@NIDCFBKB@?$EA?$FLSMS?5QTOP?$FN?5Chaos?5Bank?5Bonus?3?5?$CFd@ ; `string'
PUBLIC	??_C@_0BN@LPBEOCCJ@?$EA?$FLSMS?5QTOP?$FN?5ZtCred?5Bonus?3?5?$CFd?$AA@ ; `string'
PUBLIC	??_C@_0BN@OKJNBAGF@?$EA?$FLSMS?5QTOP?$FN?5Goblin?5Bonus?3?5?$CFd?$AA@ ; `string'
PUBLIC	??_C@_0BN@LFBHNOIO@?$EA?$FLSMS?5QTOP?$FN?5WCoinP?5Bonus?3?5?$CFd?$AA@ ; `string'
PUBLIC	??_C@_0BN@NJKOJKPP@?$EA?$FLSMS?5QTOP?$FN?5WcoinC?5Bonus?3?5?$CFd?$AA@ ; `string'
PUBLIC	??_C@_0BL@CCMGGGHH@?$EA?$FLSMS?5QTOP?$FN?5Item?5Bonus?3?5?$CFs?$AA@ ; `string'
PUBLIC	??_C@_0DI@EACAPLAC@?$EA?$FLSMS?5QTOP?$FN?5Need?5to?5make?5space?5i@ ; `string'
PUBLIC	??_C@_08CLPFLBNE@qtop?4txt?$AA@			; `string'
PUBLIC	__$ArrayPad$
PUBLIC	?QtopReed@Voter@@QAEXXZ				; Voter::QtopReed
EXTRN	?GJSetCharacterInfo@@YAXPAUOBJECTSTRUCT@@HH@Z:PROC ; GJSetCharacterInfo
;	COMDAT ??_C@_0BE@OHJFKBPP@?$FLQTOP?$FN?$FL?$CFs?$FN?5Date?3?5?$CFs?$AA@
; File d:\program files (x86)\microsoft visual studio 10.0\vc\atlmfc\include\atltime.inl
CONST	SEGMENT
??_C@_0BE@OHJFKBPP@?$FLQTOP?$FN?$FL?$CFs?$FN?5Date?3?5?$CFs?$AA@ DB '[QTO'
	DB	'P][%s] Date: %s', 00H			; `string'
CONST	ENDS
;	COMDAT ??_C@_0BB@EPGEHIK@?$EA?$FLQTOP?$FN?5Date?3?5?$CFs?$AA@
CONST	SEGMENT
??_C@_0BB@EPGEHIK@?$EA?$FLQTOP?$FN?5Date?3?5?$CFs?$AA@ DB '@[QTOP] Date: '
	DB	'%s', 00H					; `string'
CONST	ENDS
;	COMDAT ??_C@_0BM@CAGLDOOI@?$EA?$FLQTOP?$FN?5Life?5Bank?5Bonus?3?5?$CFd?$AA@
CONST	SEGMENT
??_C@_0BM@CAGLDOOI@?$EA?$FLQTOP?$FN?5Life?5Bank?5Bonus?3?5?$CFd?$AA@ DB '@'
	DB	'[QTOP] Life Bank Bonus: %d', 00H		; `string'
CONST	ENDS
;	COMDAT ??_C@_0BM@IEHNOLFI@?$EA?$FLQTOP?$FN?5Soul?5Bank?5Bonus?3?5?$CFd?$AA@
CONST	SEGMENT
??_C@_0BM@IEHNOLFI@?$EA?$FLQTOP?$FN?5Soul?5Bank?5Bonus?3?5?$CFd?$AA@ DB '@'
	DB	'[QTOP] Soul Bank Bonus: %d', 00H		; `string'
CONST	ENDS
;	COMDAT ??_C@_0BN@EDNCDCIG@?$EA?$FLQTOP?$FN?5Bless?5Bank?5Bonus?3?5?$CFd?$AA@
CONST	SEGMENT
??_C@_0BN@EDNCDCIG@?$EA?$FLQTOP?$FN?5Bless?5Bank?5Bonus?3?5?$CFd?$AA@ DB '@'
	DB	'[QTOP] Bless Bank Bonus: %d', 00H		; `string'
CONST	ENDS
;	COMDAT ??_C@_0BN@EJNHHCLB@?$EA?$FLQTOP?$FN?5Chaos?5Bank?5Bonus?3?5?$CFd?$AA@
CONST	SEGMENT
??_C@_0BN@EJNHHCLB@?$EA?$FLQTOP?$FN?5Chaos?5Bank?5Bonus?3?5?$CFd?$AA@ DB '@'
	DB	'[QTOP] Chaos Bank Bonus: %d', 00H		; `string'
CONST	ENDS
;	COMDAT ??_C@_0BJ@BNOEGAE@?$EA?$FLQTOP?$FN?5ZtCred?5Bonus?3?5?$CFd?$AA@
CONST	SEGMENT
??_C@_0BJ@BNOEGAE@?$EA?$FLQTOP?$FN?5ZtCred?5Bonus?3?5?$CFd?$AA@ DB '@[QTO'
	DB	'P] ZtCred Bonus: %d', 00H			; `string'
CONST	ENDS
;	COMDAT ??_C@_0BJ@FEFHLEEI@?$EA?$FLQTOP?$FN?5Goblin?5Bonus?3?5?$CFd?$AA@
CONST	SEGMENT
??_C@_0BJ@FEFHLEEI@?$EA?$FLQTOP?$FN?5Goblin?5Bonus?3?5?$CFd?$AA@ DB '@[QT'
	DB	'OP] Goblin Bonus: %d', 00H			; `string'
CONST	ENDS
;	COMDAT ??_C@_0BJ@LNNHKKD@?$EA?$FLQTOP?$FN?5WCoinP?5Bonus?3?5?$CFd?$AA@
CONST	SEGMENT
??_C@_0BJ@LNNHKKD@?$EA?$FLQTOP?$FN?5WCoinP?5Bonus?3?5?$CFd?$AA@ DB '@[QTO'
	DB	'P] WCoinP Bonus: %d', 00H			; `string'
CONST	ENDS
;	COMDAT ??_C@_0BJ@GHGEDONC@?$EA?$FLQTOP?$FN?5WcoinC?5Bonus?3?5?$CFd?$AA@
CONST	SEGMENT
??_C@_0BJ@GHGEDONC@?$EA?$FLQTOP?$FN?5WcoinC?5Bonus?3?5?$CFd?$AA@ DB '@[QT'
	DB	'OP] WcoinC Bonus: %d', 00H			; `string'
CONST	ENDS
;	COMDAT ??_C@_0BH@PHOGLPEJ@?$EA?$FLQTOP?$FN?5Item?5Bonus?3?5?$CFs?$AA@
CONST	SEGMENT
??_C@_0BH@PHOGLPEJ@?$EA?$FLQTOP?$FN?5Item?5Bonus?3?5?$CFs?$AA@ DB '@[QTOP'
	DB	'] Item Bonus: %s', 00H			; `string'
CONST	ENDS
;	COMDAT ??_C@_0DE@MCFMOACN@?$EA?$FLQTOP?$FN?5Need?5to?5make?5space?5in?5th@
CONST	SEGMENT
??_C@_0DE@MCFMOACN@?$EA?$FLQTOP?$FN?5Need?5to?5make?5space?5in?5th@ DB '@'
	DB	'[QTOP] Need to make space in the inventory (%dx%d)', 00H ; `string'
CONST	ENDS
;	COMDAT ??_C@_0BF@OKPMBKFL@?$EA?$FLSMS?5QTOP?$FN?5Date?3?5?$CFs?$AA@
CONST	SEGMENT
??_C@_0BF@OKPMBKFL@?$EA?$FLSMS?5QTOP?$FN?5Date?3?5?$CFs?$AA@ DB '@[SMS QT'
	DB	'OP] Date: %s', 00H				; `string'
CONST	ENDS
;	COMDAT ??_C@_0CA@KBCELJKG@?$EA?$FLSMS?5QTOP?$FN?5Life?5Bank?5Bonus?3?5?$CFd?$AA@
CONST	SEGMENT
??_C@_0CA@KBCELJKG@?$EA?$FLSMS?5QTOP?$FN?5Life?5Bank?5Bonus?3?5?$CFd?$AA@ DB '@'
	DB	'[SMS QTOP] Life Bank Bonus: %d', 00H	; `string'
CONST	ENDS
;	COMDAT ??_C@_0CA@FDCGMBG@?$EA?$FLSMS?5QTOP?$FN?5Soul?5Bank?5Bonus?3?5?$CFd?$AA@
CONST	SEGMENT
??_C@_0CA@FDCGMBG@?$EA?$FLSMS?5QTOP?$FN?5Soul?5Bank?5Bonus?3?5?$CFd?$AA@ DB '@'
	DB	'[SMS QTOP] Soul Bank Bonus: %d', 00H	; `string'
CONST	ENDS
;	COMDAT ??_C@_0CB@NCDHBBJG@?$EA?$FLSMS?5QTOP?$FN?5Bless?5Bank?5Bonus?3?5?$CFd@
CONST	SEGMENT
??_C@_0CB@NCDHBBJG@?$EA?$FLSMS?5QTOP?$FN?5Bless?5Bank?5Bonus?3?5?$CFd@ DB '@'
	DB	'[SMS QTOP] Bless Bank Bonus: %d', 00H	; `string'
CONST	ENDS
;	COMDAT ??_C@_0CB@NIDCFBKB@?$EA?$FLSMS?5QTOP?$FN?5Chaos?5Bank?5Bonus?3?5?$CFd@
CONST	SEGMENT
??_C@_0CB@NIDCFBKB@?$EA?$FLSMS?5QTOP?$FN?5Chaos?5Bank?5Bonus?3?5?$CFd@ DB '@'
	DB	'[SMS QTOP] Chaos Bank Bonus: %d', 00H	; `string'
CONST	ENDS
;	COMDAT ??_C@_0BN@LPBEOCCJ@?$EA?$FLSMS?5QTOP?$FN?5ZtCred?5Bonus?3?5?$CFd?$AA@
CONST	SEGMENT
??_C@_0BN@LPBEOCCJ@?$EA?$FLSMS?5QTOP?$FN?5ZtCred?5Bonus?3?5?$CFd?$AA@ DB '@'
	DB	'[SMS QTOP] ZtCred Bonus: %d', 00H		; `string'
CONST	ENDS
;	COMDAT ??_C@_0BN@OKJNBAGF@?$EA?$FLSMS?5QTOP?$FN?5Goblin?5Bonus?3?5?$CFd?$AA@
CONST	SEGMENT
??_C@_0BN@OKJNBAGF@?$EA?$FLSMS?5QTOP?$FN?5Goblin?5Bonus?3?5?$CFd?$AA@ DB '@'
	DB	'[SMS QTOP] Goblin Bonus: %d', 00H		; `string'
CONST	ENDS
;	COMDAT ??_C@_0BN@LFBHNOIO@?$EA?$FLSMS?5QTOP?$FN?5WCoinP?5Bonus?3?5?$CFd?$AA@
CONST	SEGMENT
??_C@_0BN@LFBHNOIO@?$EA?$FLSMS?5QTOP?$FN?5WCoinP?5Bonus?3?5?$CFd?$AA@ DB '@'
	DB	'[SMS QTOP] WCoinP Bonus: %d', 00H		; `string'
CONST	ENDS
;	COMDAT ??_C@_0BN@NJKOJKPP@?$EA?$FLSMS?5QTOP?$FN?5WcoinC?5Bonus?3?5?$CFd?$AA@
CONST	SEGMENT
??_C@_0BN@NJKOJKPP@?$EA?$FLSMS?5QTOP?$FN?5WcoinC?5Bonus?3?5?$CFd?$AA@ DB '@'
	DB	'[SMS QTOP] WcoinC Bonus: %d', 00H		; `string'
CONST	ENDS
;	COMDAT ??_C@_0BL@CCMGGGHH@?$EA?$FLSMS?5QTOP?$FN?5Item?5Bonus?3?5?$CFs?$AA@
CONST	SEGMENT
??_C@_0BL@CCMGGGHH@?$EA?$FLSMS?5QTOP?$FN?5Item?5Bonus?3?5?$CFs?$AA@ DB '@'
	DB	'[SMS QTOP] Item Bonus: %s', 00H		; `string'
CONST	ENDS
;	COMDAT ??_C@_0DI@EACAPLAC@?$EA?$FLSMS?5QTOP?$FN?5Need?5to?5make?5space?5i@
CONST	SEGMENT
??_C@_0DI@EACAPLAC@?$EA?$FLSMS?5QTOP?$FN?5Need?5to?5make?5space?5i@ DB '@'
	DB	'[SMS QTOP] Need to make space in the inventory (%dx%d)', 00H ; `string'
CONST	ENDS
;	COMDAT ??_C@_08CLPFLBNE@qtop?4txt?$AA@
CONST	SEGMENT
??_C@_08CLPFLBNE@qtop?4txt?$AA@ DB 'qtop.txt', 00H	; `string'
; Function compile flags: /Ogtp
; File e:\work\tranet_version\gs\gameserver\voter.cpp
CONST	ENDS
;	COMDAT ?QtopReed@Voter@@QAEXXZ
_TEXT	SEGMENT
_mId$207960 = -752					; size = 4
_ct$207984 = -748					; size = 8
_nMonth$207968 = -740					; size = 4
_nDay$207969 = -736					; size = 4
_mRewerd$207965 = -732					; size = 4
_nYear$207967 = -728					; size = 4
_nSec$207972 = -724					; size = 4
_file$ = -720						; size = 4
_nMin$207971 = -716					; size = 4
_nHour$207970 = -712					; size = 4
_tData$207986 = -708					; size = 4
tv953 = -704						; size = 4
tv947 = -704						; size = 4
tv941 = -704						; size = 4
_Height$208017 = -704					; size = 4
tv837 = -700						; size = 4
tv828 = -700						; size = 4
tv808 = -700						; size = 4
_Width$208018 = -700					; size = 4
_Buff$ = -696						; size = 512
_DataTime$207966 = -184					; size = 100
_mGetIp$207963 = -84					; size = 20
_mGetDate$207961 = -64					; size = 20
_mGetTime$207962 = -44					; size = 20
_mGetAccaunt$207964 = -24				; size = 20
__$ArrayPad$ = -4					; size = 4
?QtopReed@Voter@@QAEXXZ PROC				; Voter::QtopReed, COMDAT
; _this$ = ecx

; 787  : {

  00000	55		 push	 ebp
  00001	8b ec		 mov	 ebp, esp
  00003	81 ec f0 02 00
	00		 sub	 esp, 752		; 000002f0H
  00009	a1 00 00 00 00	 mov	 eax, DWORD PTR ___security_cookie
  0000e	33 c5		 xor	 eax, ebp
  00010	89 45 fc	 mov	 DWORD PTR __$ArrayPad$[ebp], eax
  00013	57		 push	 edi
  00014	8b f9		 mov	 edi, ecx

; 788  : 	if (!this->QTOP_Enable) return;

  00016	80 bf 30 01 00
	00 00		 cmp	 BYTE PTR [edi+304], 0
  0001d	0f 84 97 08 00
	00		 je	 $LN1@QtopReed

; 789  : 
; 790  : 	FILE * file = fopen(QTOP_FILE, "r");

  00023	56		 push	 esi
  00024	68 00 00 00 00	 push	 OFFSET ??_C@_01KDCPPGHE@r?$AA@
  00029	68 00 00 00 00	 push	 OFFSET ??_C@_08CLPFLBNE@qtop?4txt?$AA@
  0002e	e8 00 00 00 00	 call	 _fopen
  00033	8b f0		 mov	 esi, eax
  00035	83 c4 08	 add	 esp, 8
  00038	89 b5 30 fd ff
	ff		 mov	 DWORD PTR _file$[ebp], esi

; 791  : 
; 792  : 	if (file == NULL)

  0003e	85 f6		 test	 esi, esi
  00040	0f 84 73 08 00
	00		 je	 $LN70@QtopReed

; 793  : 	{
; 794  : #ifdef VOTE_DEBUG
; 795  : 		LogAddC(2, "[VOTE]No FILE");
; 796  : #endif
; 797  : 		return;
; 798  : 	}
; 799  : 
; 800  : 	char Buff[512];
; 801  : 
; 802  : 	int Count = 0;
; 803  : 
; 804  : 	while (!feof(file))

  00046	56		 push	 esi
  00047	e8 00 00 00 00	 call	 _feof
  0004c	83 c4 04	 add	 esp, 4
  0004f	85 c0		 test	 eax, eax
  00051	0f 85 43 08 00
	00		 jne	 $LN43@QtopReed
  00057	53		 push	 ebx
  00058	eb 06 8d 9b 00
	00 00 00	 npad	 8
$LL44@QtopReed:

; 805  : 	{
; 806  : 		ZeroMemory(&Buff, sizeof(Buff));

  00060	68 00 02 00 00	 push	 512			; 00000200H
  00065	8d 85 48 fd ff
	ff		 lea	 eax, DWORD PTR _Buff$[ebp]
  0006b	6a 00		 push	 0
  0006d	50		 push	 eax
  0006e	e8 00 00 00 00	 call	 _memset

; 807  : 		fgets(Buff, 512, file);

  00073	56		 push	 esi
  00074	8d 8d 48 fd ff
	ff		 lea	 ecx, DWORD PTR _Buff$[ebp]
  0007a	68 00 02 00 00	 push	 512			; 00000200H
  0007f	51		 push	 ecx
  00080	e8 00 00 00 00	 call	 _fgets

; 808  : 
; 809  : 		int iLen = strlen(Buff);

  00085	8d 85 48 fd ff
	ff		 lea	 eax, DWORD PTR _Buff$[ebp]
  0008b	83 c4 18	 add	 esp, 24			; 00000018H
  0008e	8d 50 01	 lea	 edx, DWORD PTR [eax+1]
$LL62@QtopReed:
  00091	8a 08		 mov	 cl, BYTE PTR [eax]
  00093	40		 inc	 eax
  00094	84 c9		 test	 cl, cl
  00096	75 f9		 jne	 SHORT $LL62@QtopReed
  00098	2b c2		 sub	 eax, edx

; 810  : 
; 811  : 		if(iLen < 10)

  0009a	83 f8 0a	 cmp	 eax, 10			; 0000000aH
  0009d	0f 8c df 07 00
	00		 jl	 $LN67@QtopReed

; 812  : 		{
; 813  : 			continue;
; 814  : 		}
; 815  : 
; 816  : 		for(int i = 0; i < iLen; i++)

  000a3	33 c9		 xor	 ecx, ecx
  000a5	85 c0		 test	 eax, eax
  000a7	7e 1e		 jle	 SHORT $LN39@QtopReed
  000a9	8d a4 24 00 00
	00 00		 npad	 7
$LL41@QtopReed:

; 817  : 		{
; 818  : 			if(Buff[i] == '|')

  000b0	80 bc 0d 48 fd
	ff ff 7c	 cmp	 BYTE PTR _Buff$[ebp+ecx], 124 ; 0000007cH
  000b8	75 08		 jne	 SHORT $LN40@QtopReed

; 819  : 			{
; 820  : 				Buff[i] = ' ';

  000ba	c6 84 0d 48 fd
	ff ff 20	 mov	 BYTE PTR _Buff$[ebp+ecx], 32 ; 00000020H
$LN40@QtopReed:

; 812  : 		{
; 813  : 			continue;
; 814  : 		}
; 815  : 
; 816  : 		for(int i = 0; i < iLen; i++)

  000c2	41		 inc	 ecx
  000c3	3b c8		 cmp	 ecx, eax
  000c5	7c e9		 jl	 SHORT $LL41@QtopReed
$LN39@QtopReed:

; 821  : 			}
; 822  : 		}
; 823  : 
; 824  : 		int mId;// = 0;
; 825  : 		char mGetDate[20] = { 0 };

  000c7	33 c0		 xor	 eax, eax
  000c9	89 45 c1	 mov	 DWORD PTR _mGetDate$207961[ebp+1], eax
  000cc	89 45 c5	 mov	 DWORD PTR _mGetDate$207961[ebp+5], eax
  000cf	89 45 c9	 mov	 DWORD PTR _mGetDate$207961[ebp+9], eax
  000d2	89 45 cd	 mov	 DWORD PTR _mGetDate$207961[ebp+13], eax
  000d5	66 89 45 d1	 mov	 WORD PTR _mGetDate$207961[ebp+17], ax
  000d9	88 45 d3	 mov	 BYTE PTR _mGetDate$207961[ebp+19], al

; 826  : 		char mGetTime[20] = { 0 };

  000dc	88 45 d4	 mov	 BYTE PTR _mGetTime$207962[ebp], al
  000df	89 45 d5	 mov	 DWORD PTR _mGetTime$207962[ebp+1], eax
  000e2	89 45 d9	 mov	 DWORD PTR _mGetTime$207962[ebp+5], eax
  000e5	89 45 dd	 mov	 DWORD PTR _mGetTime$207962[ebp+9], eax
  000e8	89 45 e1	 mov	 DWORD PTR _mGetTime$207962[ebp+13], eax
  000eb	66 89 45 e5	 mov	 WORD PTR _mGetTime$207962[ebp+17], ax
  000ef	88 45 e7	 mov	 BYTE PTR _mGetTime$207962[ebp+19], al

; 827  : 		char mGetIp[20] = { 0 };

  000f2	88 45 ac	 mov	 BYTE PTR _mGetIp$207963[ebp], al
  000f5	89 45 ad	 mov	 DWORD PTR _mGetIp$207963[ebp+1], eax
  000f8	89 45 b1	 mov	 DWORD PTR _mGetIp$207963[ebp+5], eax
  000fb	89 45 b5	 mov	 DWORD PTR _mGetIp$207963[ebp+9], eax
  000fe	89 45 b9	 mov	 DWORD PTR _mGetIp$207963[ebp+13], eax
  00101	66 89 45 bd	 mov	 WORD PTR _mGetIp$207963[ebp+17], ax
  00105	88 45 bf	 mov	 BYTE PTR _mGetIp$207963[ebp+19], al

; 828  : 		char mGetAccaunt[20] = { 0 };

  00108	88 45 e8	 mov	 BYTE PTR _mGetAccaunt$207964[ebp], al
  0010b	89 45 e9	 mov	 DWORD PTR _mGetAccaunt$207964[ebp+1], eax
  0010e	89 45 ed	 mov	 DWORD PTR _mGetAccaunt$207964[ebp+5], eax
  00111	89 45 f1	 mov	 DWORD PTR _mGetAccaunt$207964[ebp+9], eax
  00114	89 45 f5	 mov	 DWORD PTR _mGetAccaunt$207964[ebp+13], eax
  00117	66 89 45 f9	 mov	 WORD PTR _mGetAccaunt$207964[ebp+17], ax
  0011b	88 45 fb	 mov	 BYTE PTR _mGetAccaunt$207964[ebp+19], al

; 829  : 		int mRewerd;
; 830  : 
; 831  : 		sscanf(Buff, "%d %s %s %s %s %d",&mId, &mGetDate, &mGetTime, &mGetIp, &mGetAccaunt, &mRewerd);

  0011e	8d 95 24 fd ff
	ff		 lea	 edx, DWORD PTR _mRewerd$207965[ebp]
  00124	52		 push	 edx
  00125	8d 45 e8	 lea	 eax, DWORD PTR _mGetAccaunt$207964[ebp]
  00128	50		 push	 eax
  00129	8d 4d ac	 lea	 ecx, DWORD PTR _mGetIp$207963[ebp]
  0012c	51		 push	 ecx
  0012d	8d 55 d4	 lea	 edx, DWORD PTR _mGetTime$207962[ebp]
  00130	52		 push	 edx
  00131	8d 45 c0	 lea	 eax, DWORD PTR _mGetDate$207961[ebp]
  00134	50		 push	 eax
  00135	8d 8d 10 fd ff
	ff		 lea	 ecx, DWORD PTR _mId$207960[ebp]
  0013b	51		 push	 ecx
  0013c	8d 95 48 fd ff
	ff		 lea	 edx, DWORD PTR _Buff$[ebp]
  00142	68 00 00 00 00	 push	 OFFSET ??_C@_0BC@FDIFMHGC@?$CFd?5?$CFs?5?$CFs?5?$CFs?5?$CFs?5?$CFd?$AA@
  00147	52		 push	 edx
  00148	c6 45 c0 00	 mov	 BYTE PTR _mGetDate$207961[ebp], 0
  0014c	e8 00 00 00 00	 call	 _sscanf

; 832  : 		
; 833  : 
; 834  : 		//LogAddC(3, Buff);
; 835  : 		//sscanf(Buff, "%d||%s||%s||%s||%s||%d\n", &mId, &mGetDate, &mGetTime, &mGetIp, &mGetAccaunt, &mRewerd);
; 836  : 		//mRewerd[2] = 0;
; 837  : 		//LogAddC(2, "%d %s %s %s %s %d", mId, mGetDate, mGetTime, mGetIp, mGetAccaunt, mRewerd);
; 838  : 		//LogAddC(2, "%s %s", &mGetDate, &mGetTime);
; 839  : 		char DataTime[100];
; 840  : 		ZeroMemory(&DataTime, sizeof(DataTime));

  00151	6a 64		 push	 100			; 00000064H
  00153	8d 85 48 ff ff
	ff		 lea	 eax, DWORD PTR _DataTime$207966[ebp]
  00159	6a 00		 push	 0
  0015b	50		 push	 eax
  0015c	e8 00 00 00 00	 call	 _memset

; 841  : 		sprintf(DataTime, "%s %s", mGetDate, mGetTime);

  00161	8d 4d d4	 lea	 ecx, DWORD PTR _mGetTime$207962[ebp]
  00164	51		 push	 ecx
  00165	8d 55 c0	 lea	 edx, DWORD PTR _mGetDate$207961[ebp]
  00168	52		 push	 edx
  00169	8d 85 48 ff ff
	ff		 lea	 eax, DWORD PTR _DataTime$207966[ebp]
  0016f	68 00 00 00 00	 push	 OFFSET ??_C@_05DNIIFBMG@?$CFs?5?$CFs?$AA@
  00174	50		 push	 eax
  00175	e8 00 00 00 00	 call	 _sprintf

; 842  : 		
; 843  : 		int nYear, nMonth, nDay, nHour, nMin, nSec;
; 844  : 		sscanf(DataTime, "%d.%d.%d %d:%d:%d", &nDay, &nMonth, &nYear, &nHour, &nMin, &nSec);

  0017a	8d 8d 2c fd ff
	ff		 lea	 ecx, DWORD PTR _nSec$207972[ebp]
  00180	51		 push	 ecx
  00181	8d 95 34 fd ff
	ff		 lea	 edx, DWORD PTR _nMin$207971[ebp]
  00187	52		 push	 edx
  00188	8d 85 38 fd ff
	ff		 lea	 eax, DWORD PTR _nHour$207970[ebp]
  0018e	50		 push	 eax
  0018f	8d 8d 28 fd ff
	ff		 lea	 ecx, DWORD PTR _nYear$207967[ebp]
  00195	51		 push	 ecx
  00196	8d 95 1c fd ff
	ff		 lea	 edx, DWORD PTR _nMonth$207968[ebp]
  0019c	52		 push	 edx
  0019d	8d 85 20 fd ff
	ff		 lea	 eax, DWORD PTR _nDay$207969[ebp]
  001a3	50		 push	 eax
  001a4	8d 8d 48 ff ff
	ff		 lea	 ecx, DWORD PTR _DataTime$207966[ebp]
  001aa	68 00 00 00 00	 push	 OFFSET ??_C@_0BC@FFOHHNEG@?$CFd?4?$CFd?4?$CFd?5?$CFd?3?$CFd?3?$CFd?$AA@
  001af	51		 push	 ecx
  001b0	e8 00 00 00 00	 call	 _sscanf
  001b5	83 c4 5c	 add	 esp, 92			; 0000005cH

; 845  : 		//20140215010507
; 846  : 		//LogAddC(2, "%d.%d.%d %d:%d:%d", &nDay, &nMonth, &nYear, &nHour, &nMin, &nSec);
; 847  : 		if (((nYear >= 1900) && (nMonth >= 1 && nMonth <= 12) && (nDay >= 1 && nDay <= 31) && (nHour >= 0 && nHour <= 23) && (nMin >= 0 && nMin <= 59) && (nSec >= 0 && nSec <= 59)))

  001b8	81 bd 28 fd ff
	ff 6c 07 00 00	 cmp	 DWORD PTR _nYear$207967[ebp], 1900 ; 0000076cH
  001c2	0f 8c ba 06 00
	00		 jl	 $LN67@QtopReed
  001c8	8b 95 1c fd ff
	ff		 mov	 edx, DWORD PTR _nMonth$207968[ebp]
  001ce	4a		 dec	 edx
  001cf	83 fa 0b	 cmp	 edx, 11			; 0000000bH
  001d2	0f 87 aa 06 00
	00		 ja	 $LN67@QtopReed
  001d8	8b 85 20 fd ff
	ff		 mov	 eax, DWORD PTR _nDay$207969[ebp]
  001de	48		 dec	 eax
  001df	83 f8 1e	 cmp	 eax, 30			; 0000001eH
  001e2	0f 87 9a 06 00
	00		 ja	 $LN67@QtopReed
  001e8	83 bd 38 fd ff
	ff 17		 cmp	 DWORD PTR _nHour$207970[ebp], 23 ; 00000017H
  001ef	0f 87 8d 06 00
	00		 ja	 $LN67@QtopReed
  001f5	b8 3b 00 00 00	 mov	 eax, 59			; 0000003bH
  001fa	39 85 34 fd ff
	ff		 cmp	 DWORD PTR _nMin$207971[ebp], eax
  00200	0f 87 7c 06 00
	00		 ja	 $LN67@QtopReed
  00206	39 85 2c fd ff
	ff		 cmp	 DWORD PTR _nSec$207972[ebp], eax
  0020c	0f 87 70 06 00
	00		 ja	 $LN67@QtopReed

; 848  : 		{
; 849  : 
; 850  : 		}
; 851  : 		else
; 852  : 		{
; 853  : 			continue;
; 854  : 		}
; 855  : 
; 856  : 
; 857  : 		int aIndex = -1;
; 858  : 
; 859  : 		for (int n = OBJ_STARTUSERINDZT; n<OBJMAX; n++)

  00212	8b 15 00 00 00
	00		 mov	 edx, DWORD PTR ?gObj@@3PAUOBJECTSTRUCT@@A ; gObj
  00218	bb b0 36 00 00	 mov	 ebx, 14000		; 000036b0H
  0021d	81 c2 6c a7 40
	09		 add	 edx, 155232108		; 0940a76cH
$LL35@QtopReed:

; 860  : 		{
; 861  : 			if (gObj[n].Connected >= PLAYER_PLAYING)

  00223	83 7a 98 03	 cmp	 DWORD PTR [edx-104], 3
  00227	7c 35		 jl	 SHORT $LN34@QtopReed

; 862  : 			{
; 863  : 				if (gObj[n].AccountID[0] == mGetAccaunt[0])

  00229	8a 4d e8	 mov	 cl, BYTE PTR _mGetAccaunt$207964[ebp]
  0022c	38 0a		 cmp	 BYTE PTR [edx], cl
  0022e	75 2e		 jne	 SHORT $LN34@QtopReed

; 864  : 				{
; 865  : 					if (!strcmp(gObj[n].AccountID, mGetAccaunt))

  00230	8d 75 e8	 lea	 esi, DWORD PTR _mGetAccaunt$207964[ebp]
  00233	8b c2		 mov	 eax, edx
$LL63@QtopReed:
  00235	8a 08		 mov	 cl, BYTE PTR [eax]
  00237	3a 0e		 cmp	 cl, BYTE PTR [esi]
  00239	75 1a		 jne	 SHORT $LN64@QtopReed
  0023b	84 c9		 test	 cl, cl
  0023d	74 12		 je	 SHORT $LN65@QtopReed
  0023f	8a 48 01	 mov	 cl, BYTE PTR [eax+1]
  00242	3a 4e 01	 cmp	 cl, BYTE PTR [esi+1]
  00245	75 0e		 jne	 SHORT $LN64@QtopReed
  00247	83 c0 02	 add	 eax, 2
  0024a	83 c6 02	 add	 esi, 2
  0024d	84 c9		 test	 cl, cl
  0024f	75 e4		 jne	 SHORT $LL63@QtopReed
$LN65@QtopReed:
  00251	33 c0		 xor	 eax, eax
  00253	eb 05		 jmp	 SHORT $LN66@QtopReed
$LN64@QtopReed:
  00255	1b c0		 sbb	 eax, eax
  00257	83 d8 ff	 sbb	 eax, -1
$LN66@QtopReed:
  0025a	85 c0		 test	 eax, eax
  0025c	74 14		 je	 SHORT $LN59@QtopReed
$LN34@QtopReed:

; 848  : 		{
; 849  : 
; 850  : 		}
; 851  : 		else
; 852  : 		{
; 853  : 			continue;
; 854  : 		}
; 855  : 
; 856  : 
; 857  : 		int aIndex = -1;
; 858  : 
; 859  : 		for (int n = OBJ_STARTUSERINDZT; n<OBJMAX; n++)

  0025e	43		 inc	 ebx
  0025f	81 c2 50 2b 00
	00		 add	 edx, 11088		; 00002b50H
  00265	81 fb 98 3a 00
	00		 cmp	 ebx, 15000		; 00003a98H
  0026b	7c b6		 jl	 SHORT $LL35@QtopReed

; 864  : 				{
; 865  : 					if (!strcmp(gObj[n].AccountID, mGetAccaunt))

  0026d	e9 10 06 00 00	 jmp	 $LN67@QtopReed
$LN59@QtopReed:

; 866  : 					{
; 867  : 						aIndex = n;
; 868  : 						break;
; 869  : 					}
; 870  : 				}
; 871  : 			}
; 872  : 		}
; 873  : 
; 874  : 		if (aIndex == -1) continue;

  00272	83 fb ff	 cmp	 ebx, -1
  00275	0f 84 07 06 00
	00		 je	 $LN67@QtopReed

; 875  : 
; 876  : 		CTime ct = StrToCTime(DataTime);

  0027b	8d 95 48 ff ff
	ff		 lea	 edx, DWORD PTR _DataTime$207966[ebp]
  00281	52		 push	 edx
  00282	8d 85 14 fd ff
	ff		 lea	 eax, DWORD PTR _ct$207984[ebp]
  00288	50		 push	 eax
  00289	e8 00 00 00 00	 call	 ?StrToCTime@@YA?AVCTime@ATL@@PBD@Z ; StrToCTime

; 877  : 		DWORD tData = ct.GetTime();

  0028e	8b 85 14 fd ff
	ff		 mov	 eax, DWORD PTR _ct$207984[ebp]

; 878  : 
; 879  : 		LPOBJ lpObj = &gObj[aIndex];

  00294	8b f3		 mov	 esi, ebx
  00296	69 f6 50 2b 00
	00		 imul	 esi, 11088		; 00002b50H
  0029c	03 35 00 00 00
	00		 add	 esi, DWORD PTR ?gObj@@3PAUOBJECTSTRUCT@@A ; gObj
  002a2	83 c4 08	 add	 esp, 8
  002a5	89 85 3c fd ff
	ff		 mov	 DWORD PTR _tData$207986[ebp], eax

; 880  : 
; 881  : 		if (tData > lpObj->QTDate)

  002ab	3b 86 18 28 00
	00		 cmp	 eax, DWORD PTR [esi+10264]
  002b1	0f 86 cb 05 00
	00		 jbe	 $LN67@QtopReed

; 882  : 		{
; 883  : 			if (mRewerd == 2)

  002b7	83 bd 24 fd ff
	ff 02		 cmp	 DWORD PTR _mRewerd$207965[ebp], 2
  002be	0f 85 b9 02 00
	00		 jne	 $LN27@QtopReed

; 884  : 			{
; 885  : 				//~~~~~~~~~~~~~~~~~~~~~~~~~~~~~~~~~~~~~~~~~~~~~~~~~
; 886  : 				if (this->QTOP_SMSBonusItemActive)

  002c4	83 bf 40 02 00
	00 00		 cmp	 DWORD PTR [edi+576], 0
  002cb	0f 84 a4 00 00
	00		 je	 $LN26@QtopReed

; 887  : 				{
; 888  : 					int Height = ItemAttribute[ITEMGET(this->QTOP_SMSBonusItemType, this->QTOP_SMSBonusItemIndex)].Height;

  002d1	8b 87 44 02 00
	00		 mov	 eax, DWORD PTR [edi+580]
  002d7	c1 e0 09	 shl	 eax, 9
  002da	03 87 48 02 00
	00		 add	 eax, DWORD PTR [edi+584]
  002e0	6b c0 70	 imul	 eax, 112		; 00000070H
  002e3	0f b6 88 24 00
	00 00		 movzx	 ecx, BYTE PTR ?ItemAttribute@@3PAUITEM_ATTRIBUTE@@A[eax+36]

; 889  : 					int Width = ItemAttribute[ITEMGET(this->QTOP_SMSBonusItemType, this->QTOP_SMSBonusItemIndex)].Width;

  002ea	0f b6 80 23 00
	00 00		 movzx	 eax, BYTE PTR ?ItemAttribute@@3PAUITEM_ATTRIBUTE@@A[eax+35]

; 890  : 
; 891  : 					if (!CheckInventoryEmptySpace(lpObj, Height, Width))

  002f1	50		 push	 eax
  002f2	51		 push	 ecx
  002f3	56		 push	 esi
  002f4	e8 00 00 00 00	 call	 ?CheckInventoryEmptySpace@@YAHPAUOBJECTSTRUCT@@HH@Z ; CheckInventoryEmptySpace
  002f9	83 c4 0c	 add	 esp, 12			; 0000000cH
  002fc	85 c0		 test	 eax, eax
  002fe	75 1a		 jne	 SHORT $LN25@QtopReed

; 892  : 					{
; 893  : 						MessageChat(aIndex, "@[SMS QTOP] Need to make space in the inventory (%dx%d)", this->QTOP_SMSBonusWcoinC);

  00300	8b 8f 30 02 00
	00		 mov	 ecx, DWORD PTR [edi+560]
  00306	51		 push	 ecx
  00307	68 00 00 00 00	 push	 OFFSET ??_C@_0DI@EACAPLAC@?$EA?$FLSMS?5QTOP?$FN?5Need?5to?5make?5space?5i@
  0030c	53		 push	 ebx
  0030d	e8 00 00 00 00	 call	 ?MessageChat@@YAXHPADZZ	; MessageChat
  00312	83 c4 0c	 add	 esp, 12			; 0000000cH

; 894  : 						continue;

  00315	e9 68 05 00 00	 jmp	 $LN67@QtopReed
$LN25@QtopReed:

; 895  : 					}
; 896  : 
; 897  : 					ItemSerialCreateSend(aIndex, 235, 0, 0, ITEMGET(this->QTOP_SMSBonusItemType, this->QTOP_SMSBonusItemIndex), this->QTOP_SMSBonusItemLevel, 0, 0, 0, 0, aIndex, 0, 0);

  0031a	8b 87 44 02 00
	00		 mov	 eax, DWORD PTR [edi+580]
  00320	0f b6 97 4c 02
	00 00		 movzx	 edx, BYTE PTR [edi+588]
  00327	6a 00		 push	 0
  00329	6a 00		 push	 0
  0032b	53		 push	 ebx
  0032c	6a 00		 push	 0
  0032e	6a 00		 push	 0
  00330	6a 00		 push	 0
  00332	6a 00		 push	 0
  00334	52		 push	 edx
  00335	c1 e0 09	 shl	 eax, 9
  00338	03 87 48 02 00
	00		 add	 eax, DWORD PTR [edi+584]
  0033e	50		 push	 eax
  0033f	6a 00		 push	 0
  00341	6a 00		 push	 0
  00343	68 eb 00 00 00	 push	 235			; 000000ebH
  00348	53		 push	 ebx
  00349	e8 00 00 00 00	 call	 ?ItemSerialCreateSend@@YAXHEEEHEEEEEHEE@Z ; ItemSerialCreateSend

; 898  : 					MessageChat(aIndex, "@[SMS QTOP] Item Bonus: %s", ItemAttribute[ITEMGET(this->QTOP_SMSBonusItemType, this->QTOP_SMSBonusItemIndex)].Name);

  0034e	8b 8f 44 02 00
	00		 mov	 ecx, DWORD PTR [edi+580]
  00354	c1 e1 09	 shl	 ecx, 9
  00357	03 8f 48 02 00
	00		 add	 ecx, DWORD PTR [edi+584]
  0035d	6b c9 70	 imul	 ecx, 112		; 00000070H
  00360	81 c1 00 00 00
	00		 add	 ecx, OFFSET ?ItemAttribute@@3PAUITEM_ATTRIBUTE@@A ; ItemAttribute
  00366	51		 push	 ecx
  00367	68 00 00 00 00	 push	 OFFSET ??_C@_0BL@CCMGGGHH@?$EA?$FLSMS?5QTOP?$FN?5Item?5Bonus?3?5?$CFs?$AA@
  0036c	53		 push	 ebx
  0036d	e8 00 00 00 00	 call	 ?MessageChat@@YAXHPADZZ	; MessageChat
  00372	83 c4 40	 add	 esp, 64			; 00000040H
$LN26@QtopReed:

; 899  : 				}
; 900  : 
; 901  : 				if (this->QTOP_SMSBonusWcoinC > 0)

  00375	8b 87 30 02 00
	00		 mov	 eax, DWORD PTR [edi+560]
  0037b	89 85 44 fd ff
	ff		 mov	 DWORD PTR tv808[ebp], eax
  00381	85 c0		 test	 eax, eax
  00383	7e 32		 jle	 SHORT $LN24@QtopReed

; 902  : 				{
; 903  : 					lpObj->GameShop.WCoinC += this->QTOP_SMSBonusWcoinC;

  00385	db 85 44 fd ff
	ff		 fild	 DWORD PTR tv808[ebp]

; 904  : 					gGameShop.GDSaveUserInfo(aIndex);

  0038b	53		 push	 ebx
  0038c	b9 00 00 00 00	 mov	 ecx, OFFSET ?gGameShop@@3VGameShop@@A ; gGameShop
  00391	dc 86 00 23 00
	00		 fadd	 QWORD PTR [esi+8960]
  00397	dd 9e 00 23 00
	00		 fstp	 QWORD PTR [esi+8960]
  0039d	e8 00 00 00 00	 call	 ?GDSaveUserInfo@GameShop@@QAEXH@Z ; GameShop::GDSaveUserInfo

; 905  : 					MessageChat(aIndex, "@[SMS QTOP] WcoinC Bonus: %d", this->QTOP_SMSBonusWcoinC);

  003a2	8b 97 30 02 00
	00		 mov	 edx, DWORD PTR [edi+560]
  003a8	52		 push	 edx
  003a9	68 00 00 00 00	 push	 OFFSET ??_C@_0BN@NJKOJKPP@?$EA?$FLSMS?5QTOP?$FN?5WcoinC?5Bonus?3?5?$CFd?$AA@
  003ae	53		 push	 ebx
  003af	e8 00 00 00 00	 call	 ?MessageChat@@YAXHPADZZ	; MessageChat
  003b4	83 c4 0c	 add	 esp, 12			; 0000000cH
$LN24@QtopReed:

; 906  : 				}
; 907  : 
; 908  : 				if (this->QTOP_SMSBonusWcoinP > 0)

  003b7	8b 87 34 02 00
	00		 mov	 eax, DWORD PTR [edi+564]
  003bd	89 85 44 fd ff
	ff		 mov	 DWORD PTR tv828[ebp], eax
  003c3	85 c0		 test	 eax, eax
  003c5	7e 32		 jle	 SHORT $LN23@QtopReed

; 909  : 				{
; 910  : 					lpObj->GameShop.WCoinP += this->QTOP_SMSBonusWcoinP;

  003c7	db 85 44 fd ff
	ff		 fild	 DWORD PTR tv828[ebp]

; 911  : 					gGameShop.GDSaveUserInfo(aIndex);

  003cd	53		 push	 ebx
  003ce	b9 00 00 00 00	 mov	 ecx, OFFSET ?gGameShop@@3VGameShop@@A ; gGameShop
  003d3	dc 86 f8 22 00
	00		 fadd	 QWORD PTR [esi+8952]
  003d9	dd 9e f8 22 00
	00		 fstp	 QWORD PTR [esi+8952]
  003df	e8 00 00 00 00	 call	 ?GDSaveUserInfo@GameShop@@QAEXH@Z ; GameShop::GDSaveUserInfo

; 912  : 					MessageChat(aIndex, "@[SMS QTOP] WCoinP Bonus: %d", this->QTOP_SMSBonusWcoinP);

  003e4	8b 87 34 02 00
	00		 mov	 eax, DWORD PTR [edi+564]
  003ea	50		 push	 eax
  003eb	68 00 00 00 00	 push	 OFFSET ??_C@_0BN@LFBHNOIO@?$EA?$FLSMS?5QTOP?$FN?5WCoinP?5Bonus?3?5?$CFd?$AA@
  003f0	53		 push	 ebx
  003f1	e8 00 00 00 00	 call	 ?MessageChat@@YAXHPADZZ	; MessageChat
  003f6	83 c4 0c	 add	 esp, 12			; 0000000cH
$LN23@QtopReed:

; 913  : 				}
; 914  : 
; 915  : 				if (this->QTOP_SMSBonusWcoinG > 0)

  003f9	8b 87 38 02 00
	00		 mov	 eax, DWORD PTR [edi+568]
  003ff	89 85 44 fd ff
	ff		 mov	 DWORD PTR tv837[ebp], eax
  00405	85 c0		 test	 eax, eax
  00407	7e 32		 jle	 SHORT $LN22@QtopReed

; 916  : 				{
; 917  : 					lpObj->GameShop.GoblinPoint += this->QTOP_SMSBonusWcoinG;

  00409	db 85 44 fd ff
	ff		 fild	 DWORD PTR tv837[ebp]

; 918  : 					gGameShop.GDSaveUserInfo(aIndex);

  0040f	53		 push	 ebx
  00410	b9 00 00 00 00	 mov	 ecx, OFFSET ?gGameShop@@3VGameShop@@A ; gGameShop
  00415	dc 86 08 23 00
	00		 fadd	 QWORD PTR [esi+8968]
  0041b	dd 9e 08 23 00
	00		 fstp	 QWORD PTR [esi+8968]
  00421	e8 00 00 00 00	 call	 ?GDSaveUserInfo@GameShop@@QAEXH@Z ; GameShop::GDSaveUserInfo

; 919  : 					MessageChat(aIndex, "@[SMS QTOP] Goblin Bonus: %d", this->QTOP_SMSBonusWcoinG);

  00426	8b 8f 38 02 00
	00		 mov	 ecx, DWORD PTR [edi+568]
  0042c	51		 push	 ecx
  0042d	68 00 00 00 00	 push	 OFFSET ??_C@_0BN@OKJNBAGF@?$EA?$FLSMS?5QTOP?$FN?5Goblin?5Bonus?3?5?$CFd?$AA@
  00432	53		 push	 ebx
  00433	e8 00 00 00 00	 call	 ?MessageChat@@YAXHPADZZ	; MessageChat
  00438	83 c4 0c	 add	 esp, 12			; 0000000cH
$LN22@QtopReed:

; 920  : 				}
; 921  : 
; 922  : 				if (this->QTOP_SMSBonusZtCred > 0)

  0043b	83 bf 3c 02 00
	00 00		 cmp	 DWORD PTR [edi+572], 0
  00442	7e 27		 jle	 SHORT $LN21@QtopReed

; 923  : 				{
; 924  : 					lpObj->ZtCred += this->QTOP_SMSBonusZtCred;

  00444	db 87 3c 02 00
	00		 fild	 DWORD PTR [edi+572]
  0044a	d8 86 a8 22 00
	00		 fadd	 DWORD PTR [esi+8872]
  00450	d9 9e a8 22 00
	00		 fstp	 DWORD PTR [esi+8872]

; 925  : 					MessageChat(aIndex, "@[SMS QTOP] ZtCred Bonus: %d", this->QTOP_SMSBonusZtCred);

  00456	8b 97 3c 02 00
	00		 mov	 edx, DWORD PTR [edi+572]
  0045c	52		 push	 edx
  0045d	68 00 00 00 00	 push	 OFFSET ??_C@_0BN@LPBEOCCJ@?$EA?$FLSMS?5QTOP?$FN?5ZtCred?5Bonus?3?5?$CFd?$AA@
  00462	53		 push	 ebx
  00463	e8 00 00 00 00	 call	 ?MessageChat@@YAXHPADZZ	; MessageChat
  00468	83 c4 0c	 add	 esp, 12			; 0000000cH
$LN21@QtopReed:

; 926  : 				}
; 927  : 
; 928  : 				if (this->QTOP_SMSBonusChaosBank > 0)

  0046b	83 bf 50 02 00
	00 00		 cmp	 DWORD PTR [edi+592], 0
  00472	7e 21		 jle	 SHORT $LN20@QtopReed

; 929  : 				{
; 930  : 					lpObj->ChaosBank += this->QTOP_SMSBonusChaosBank;

  00474	8b 87 50 02 00
	00		 mov	 eax, DWORD PTR [edi+592]
  0047a	01 86 e4 27 00
	00		 add	 DWORD PTR [esi+10212], eax

; 931  : 					MessageChat(aIndex, "@[SMS QTOP] Chaos Bank Bonus: %d", this->QTOP_SMSBonusChaosBank);

  00480	8b 8f 50 02 00
	00		 mov	 ecx, DWORD PTR [edi+592]
  00486	51		 push	 ecx
  00487	68 00 00 00 00	 push	 OFFSET ??_C@_0CB@NIDCFBKB@?$EA?$FLSMS?5QTOP?$FN?5Chaos?5Bank?5Bonus?3?5?$CFd@
  0048c	53		 push	 ebx
  0048d	e8 00 00 00 00	 call	 ?MessageChat@@YAXHPADZZ	; MessageChat
  00492	83 c4 0c	 add	 esp, 12			; 0000000cH
$LN20@QtopReed:

; 932  : 				}
; 933  : 
; 934  : 				if (this->QTOP_SMSBonusBlessBank > 0)

  00495	83 bf 54 02 00
	00 00		 cmp	 DWORD PTR [edi+596], 0
  0049c	7e 21		 jle	 SHORT $LN19@QtopReed

; 935  : 				{
; 936  : 					lpObj->BlessBank += this->QTOP_SMSBonusBlessBank;

  0049e	8b 97 54 02 00
	00		 mov	 edx, DWORD PTR [edi+596]
  004a4	01 96 e8 27 00
	00		 add	 DWORD PTR [esi+10216], edx

; 937  : 					MessageChat(aIndex, "@[SMS QTOP] Bless Bank Bonus: %d", this->QTOP_SMSBonusBlessBank);

  004aa	8b 87 54 02 00
	00		 mov	 eax, DWORD PTR [edi+596]
  004b0	50		 push	 eax
  004b1	68 00 00 00 00	 push	 OFFSET ??_C@_0CB@NCDHBBJG@?$EA?$FLSMS?5QTOP?$FN?5Bless?5Bank?5Bonus?3?5?$CFd@
  004b6	53		 push	 ebx
  004b7	e8 00 00 00 00	 call	 ?MessageChat@@YAXHPADZZ	; MessageChat
  004bc	83 c4 0c	 add	 esp, 12			; 0000000cH
$LN19@QtopReed:

; 938  : 				}
; 939  : 
; 940  : 				if (this->QTOP_SMSBonusSoulBank > 0)

  004bf	83 bf 58 02 00
	00 00		 cmp	 DWORD PTR [edi+600], 0
  004c6	7e 21		 jle	 SHORT $LN18@QtopReed

; 941  : 				{
; 942  : 					lpObj->SoulBank += this->QTOP_SMSBonusSoulBank;

  004c8	8b 8f 58 02 00
	00		 mov	 ecx, DWORD PTR [edi+600]
  004ce	01 8e ec 27 00
	00		 add	 DWORD PTR [esi+10220], ecx

; 943  : 					MessageChat(aIndex, "@[SMS QTOP] Soul Bank Bonus: %d", this->QTOP_SMSBonusSoulBank);

  004d4	8b 97 58 02 00
	00		 mov	 edx, DWORD PTR [edi+600]
  004da	52		 push	 edx
  004db	68 00 00 00 00	 push	 OFFSET ??_C@_0CA@FDCGMBG@?$EA?$FLSMS?5QTOP?$FN?5Soul?5Bank?5Bonus?3?5?$CFd?$AA@
  004e0	53		 push	 ebx
  004e1	e8 00 00 00 00	 call	 ?MessageChat@@YAXHPADZZ	; MessageChat
  004e6	83 c4 0c	 add	 esp, 12			; 0000000cH
$LN18@QtopReed:

; 944  : 				}
; 945  : 
; 946  : 				if (this->QTOP_SMSBonusLifeBank > 0)

  004e9	83 bf 5c 02 00
	00 00		 cmp	 DWORD PTR [edi+604], 0
  004f0	7e 21		 jle	 SHORT $LN17@QtopReed

; 947  : 				{
; 948  : 					lpObj->LifeBank += this->QTOP_SMSBonusLifeBank;

  004f2	8b 87 5c 02 00
	00		 mov	 eax, DWORD PTR [edi+604]
  004f8	01 86 f0 27 00
	00		 add	 DWORD PTR [esi+10224], eax

; 949  : 					MessageChat(aIndex, "@[SMS QTOP] Life Bank Bonus: %d", this->QTOP_SMSBonusLifeBank);

  004fe	8b 8f 5c 02 00
	00		 mov	 ecx, DWORD PTR [edi+604]
  00504	51		 push	 ecx
  00505	68 00 00 00 00	 push	 OFFSET ??_C@_0CA@KBCELJKG@?$EA?$FLSMS?5QTOP?$FN?5Life?5Bank?5Bonus?3?5?$CFd?$AA@
  0050a	53		 push	 ebx
  0050b	e8 00 00 00 00	 call	 ?MessageChat@@YAXHPADZZ	; MessageChat
  00510	83 c4 0c	 add	 esp, 12			; 0000000cH
$LN17@QtopReed:

; 950  : 				}
; 951  : 
; 952  : 				// --> Buff Effect Custom
; 953  : 				if(g_ZtLicense.CheckUser(eZtUB::Gredy) || g_ZtLicense.CheckUser(eZtUB::GredyLocal) || g_ZtLicense.CheckUser(eZtUB::Gredy2))

  00513	6a 20		 push	 32			; 00000020H
  00515	b9 00 00 00 00	 mov	 ecx, OFFSET ?g_ZtLicense@@3VCZtLicense@@A ; g_ZtLicense
  0051a	e8 00 00 00 00	 call	 ?CheckUser@CZtLicense@@QAE_NH@Z ; CZtLicense::CheckUser
  0051f	84 c0		 test	 al, al
  00521	75 20		 jne	 SHORT $LN15@QtopReed
  00523	6a 21		 push	 33			; 00000021H
  00525	b9 00 00 00 00	 mov	 ecx, OFFSET ?g_ZtLicense@@3VCZtLicense@@A ; g_ZtLicense
  0052a	e8 00 00 00 00	 call	 ?CheckUser@CZtLicense@@QAE_NH@Z ; CZtLicense::CheckUser
  0052f	84 c0		 test	 al, al
  00531	75 10		 jne	 SHORT $LN15@QtopReed
  00533	6a 22		 push	 34			; 00000022H
  00535	b9 00 00 00 00	 mov	 ecx, OFFSET ?g_ZtLicense@@3VCZtLicense@@A ; g_ZtLicense
  0053a	e8 00 00 00 00	 call	 ?CheckUser@CZtLicense@@QAE_NH@Z ; CZtLicense::CheckUser
  0053f	84 c0		 test	 al, al
  00541	74 29		 je	 SHORT $LN16@QtopReed
$LN15@QtopReed:

; 954  : 				{
; 955  : 					lpObj->QT_BuffTime += this->QTOP_BuffTime;

  00543	8b 97 68 02 00
	00		 mov	 edx, DWORD PTR [edi+616]
  00549	01 96 e0 2a 00
	00		 add	 DWORD PTR [esi+10976], edx

; 956  : 					gObjApplyBuffEffectDuration(lpObj, AT_QTOP_BUFF, 0, 0, 0, 0, this->QTOP_BuffTime);

  0054f	8b 87 68 02 00
	00		 mov	 eax, DWORD PTR [edi+616]
  00555	50		 push	 eax
  00556	6a 00		 push	 0
  00558	6a 00		 push	 0
  0055a	6a 00		 push	 0
  0055c	6a 00		 push	 0
  0055e	68 c3 00 00 00	 push	 195			; 000000c3H
  00563	56		 push	 esi
  00564	e8 00 00 00 00	 call	 ?gObjApplyBuffEffectDuration@@YAEPAUOBJECTSTRUCT@@HEHEHH@Z ; gObjApplyBuffEffectDuration
  00569	83 c4 1c	 add	 esp, 28			; 0000001cH
$LN16@QtopReed:

; 957  : 				}
; 958  : 
; 959  : 				MessageChat(aIndex, "@[SMS QTOP] Date: %s", DataTime);

  0056c	8d 8d 48 ff ff
	ff		 lea	 ecx, DWORD PTR _DataTime$207966[ebp]
  00572	51		 push	 ecx
  00573	68 00 00 00 00	 push	 OFFSET ??_C@_0BF@OKPMBKFL@?$EA?$FLSMS?5QTOP?$FN?5Date?3?5?$CFs?$AA@

; 960  : 			}
; 961  : 			else

  00578	e9 c6 02 00 00	 jmp	 $LN71@QtopReed
$LN27@QtopReed:

; 962  : 			{
; 963  : 				//~~~~~~~~~~~~~~~~~~~~~~~~~~~~~~~~~~~~~~~~~~~~~~~~~
; 964  : 
; 965  : 				if (this->QTOP_BonusItemActive)

  0057d	83 bf 10 02 00
	00 00		 cmp	 DWORD PTR [edi+528], 0
  00584	0f 84 b6 00 00
	00		 je	 $LN13@QtopReed

; 966  : 				{
; 967  : 					int Height = ItemAttribute[ITEMGET(this->QTOP_BonusItemType, this->QTOP_BonusItemIndex)].Height;

  0058a	8b 87 14 02 00
	00		 mov	 eax, DWORD PTR [edi+532]
  00590	c1 e0 09	 shl	 eax, 9
  00593	03 87 18 02 00
	00		 add	 eax, DWORD PTR [edi+536]
  00599	6b c0 70	 imul	 eax, 112		; 00000070H
  0059c	0f b6 88 24 00
	00 00		 movzx	 ecx, BYTE PTR ?ItemAttribute@@3PAUITEM_ATTRIBUTE@@A[eax+36]

; 968  : 					int Width = ItemAttribute[ITEMGET(this->QTOP_BonusItemType, this->QTOP_BonusItemIndex)].Width;

  005a3	0f b6 80 23 00
	00 00		 movzx	 eax, BYTE PTR ?ItemAttribute@@3PAUITEM_ATTRIBUTE@@A[eax+35]

; 969  : 
; 970  : 					if (!CheckInventoryEmptySpace(lpObj, Height, Width))

  005aa	50		 push	 eax
  005ab	51		 push	 ecx
  005ac	56		 push	 esi
  005ad	89 8d 40 fd ff
	ff		 mov	 DWORD PTR _Height$208017[ebp], ecx
  005b3	89 85 44 fd ff
	ff		 mov	 DWORD PTR _Width$208018[ebp], eax
  005b9	e8 00 00 00 00	 call	 ?CheckInventoryEmptySpace@@YAHPAUOBJECTSTRUCT@@HH@Z ; CheckInventoryEmptySpace
  005be	83 c4 0c	 add	 esp, 12			; 0000000cH
  005c1	85 c0		 test	 eax, eax
  005c3	75 21		 jne	 SHORT $LN12@QtopReed

; 971  : 					{
; 972  : 						MessageChat(aIndex, "@[QTOP] Need to make space in the inventory (%dx%d)", Height, Width);

  005c5	8b 95 44 fd ff
	ff		 mov	 edx, DWORD PTR _Width$208018[ebp]
  005cb	8b 85 40 fd ff
	ff		 mov	 eax, DWORD PTR _Height$208017[ebp]
  005d1	52		 push	 edx
  005d2	50		 push	 eax
  005d3	68 00 00 00 00	 push	 OFFSET ??_C@_0DE@MCFMOACN@?$EA?$FLQTOP?$FN?5Need?5to?5make?5space?5in?5th@
  005d8	53		 push	 ebx
  005d9	e8 00 00 00 00	 call	 ?MessageChat@@YAXHPADZZ	; MessageChat
  005de	83 c4 10	 add	 esp, 16			; 00000010H

; 973  : 						continue;

  005e1	e9 9c 02 00 00	 jmp	 $LN67@QtopReed
$LN12@QtopReed:

; 974  : 					}
; 975  : 
; 976  : 					ItemSerialCreateSend(aIndex, 235, 0, 0, ITEMGET(this->QTOP_BonusItemType, this->QTOP_BonusItemIndex), this->QTOP_BonusItemLevel, 0, 0, 0, 0, aIndex, 0, 0);

  005e6	8b 97 14 02 00
	00		 mov	 edx, DWORD PTR [edi+532]
  005ec	0f b6 8f 1c 02
	00 00		 movzx	 ecx, BYTE PTR [edi+540]
  005f3	6a 00		 push	 0
  005f5	6a 00		 push	 0
  005f7	53		 push	 ebx
  005f8	6a 00		 push	 0
  005fa	6a 00		 push	 0
  005fc	6a 00		 push	 0
  005fe	6a 00		 push	 0
  00600	51		 push	 ecx
  00601	c1 e2 09	 shl	 edx, 9
  00604	03 97 18 02 00
	00		 add	 edx, DWORD PTR [edi+536]
  0060a	52		 push	 edx
  0060b	6a 00		 push	 0
  0060d	6a 00		 push	 0
  0060f	68 eb 00 00 00	 push	 235			; 000000ebH
  00614	53		 push	 ebx
  00615	e8 00 00 00 00	 call	 ?ItemSerialCreateSend@@YAXHEEEHEEEEEHEE@Z ; ItemSerialCreateSend

; 977  : 					MessageChat(aIndex, "@[QTOP] Item Bonus: %s", ItemAttribute[ITEMGET(this->QTOP_SMSBonusItemType, this->QTOP_SMSBonusItemIndex)].Name);

  0061a	8b 87 44 02 00
	00		 mov	 eax, DWORD PTR [edi+580]
  00620	c1 e0 09	 shl	 eax, 9
  00623	03 87 48 02 00
	00		 add	 eax, DWORD PTR [edi+584]
  00629	6b c0 70	 imul	 eax, 112		; 00000070H
  0062c	05 00 00 00 00	 add	 eax, OFFSET ?ItemAttribute@@3PAUITEM_ATTRIBUTE@@A ; ItemAttribute
  00631	50		 push	 eax
  00632	68 00 00 00 00	 push	 OFFSET ??_C@_0BH@PHOGLPEJ@?$EA?$FLQTOP?$FN?5Item?5Bonus?3?5?$CFs?$AA@
  00637	53		 push	 ebx
  00638	e8 00 00 00 00	 call	 ?MessageChat@@YAXHPADZZ	; MessageChat
  0063d	83 c4 40	 add	 esp, 64			; 00000040H
$LN13@QtopReed:

; 978  : 				}
; 979  : 
; 980  : 				if (this->QTOP_BonusWcoinC > 0)

  00640	8b 87 00 02 00
	00		 mov	 eax, DWORD PTR [edi+512]
  00646	89 85 40 fd ff
	ff		 mov	 DWORD PTR tv941[ebp], eax
  0064c	85 c0		 test	 eax, eax
  0064e	7e 32		 jle	 SHORT $LN11@QtopReed

; 981  : 				{
; 982  : 					lpObj->GameShop.WCoinC += this->QTOP_BonusWcoinC;

  00650	db 85 40 fd ff
	ff		 fild	 DWORD PTR tv941[ebp]

; 983  : 					gGameShop.GDSaveUserInfo(aIndex);

  00656	53		 push	 ebx
  00657	b9 00 00 00 00	 mov	 ecx, OFFSET ?gGameShop@@3VGameShop@@A ; gGameShop
  0065c	dc 86 00 23 00
	00		 fadd	 QWORD PTR [esi+8960]
  00662	dd 9e 00 23 00
	00		 fstp	 QWORD PTR [esi+8960]
  00668	e8 00 00 00 00	 call	 ?GDSaveUserInfo@GameShop@@QAEXH@Z ; GameShop::GDSaveUserInfo

; 984  : 					MessageChat(aIndex, "@[QTOP] WcoinC Bonus: %d", this->QTOP_BonusWcoinC);

  0066d	8b 8f 00 02 00
	00		 mov	 ecx, DWORD PTR [edi+512]
  00673	51		 push	 ecx
  00674	68 00 00 00 00	 push	 OFFSET ??_C@_0BJ@GHGEDONC@?$EA?$FLQTOP?$FN?5WcoinC?5Bonus?3?5?$CFd?$AA@
  00679	53		 push	 ebx
  0067a	e8 00 00 00 00	 call	 ?MessageChat@@YAXHPADZZ	; MessageChat
  0067f	83 c4 0c	 add	 esp, 12			; 0000000cH
$LN11@QtopReed:

; 985  : 				}
; 986  : 
; 987  : 				if (this->QTOP_BonusWcoinP > 0)

  00682	8b 87 04 02 00
	00		 mov	 eax, DWORD PTR [edi+516]
  00688	89 85 40 fd ff
	ff		 mov	 DWORD PTR tv947[ebp], eax
  0068e	85 c0		 test	 eax, eax
  00690	7e 32		 jle	 SHORT $LN10@QtopReed

; 988  : 				{
; 989  : 					lpObj->GameShop.WCoinP += this->QTOP_BonusWcoinP;

  00692	db 85 40 fd ff
	ff		 fild	 DWORD PTR tv947[ebp]

; 990  : 					gGameShop.GDSaveUserInfo(aIndex);

  00698	53		 push	 ebx
  00699	b9 00 00 00 00	 mov	 ecx, OFFSET ?gGameShop@@3VGameShop@@A ; gGameShop
  0069e	dc 86 f8 22 00
	00		 fadd	 QWORD PTR [esi+8952]
  006a4	dd 9e f8 22 00
	00		 fstp	 QWORD PTR [esi+8952]
  006aa	e8 00 00 00 00	 call	 ?GDSaveUserInfo@GameShop@@QAEXH@Z ; GameShop::GDSaveUserInfo

; 991  : 					MessageChat(aIndex, "@[QTOP] WCoinP Bonus: %d", this->QTOP_BonusWcoinP);

  006af	8b 97 04 02 00
	00		 mov	 edx, DWORD PTR [edi+516]
  006b5	52		 push	 edx
  006b6	68 00 00 00 00	 push	 OFFSET ??_C@_0BJ@LNNHKKD@?$EA?$FLQTOP?$FN?5WCoinP?5Bonus?3?5?$CFd?$AA@
  006bb	53		 push	 ebx
  006bc	e8 00 00 00 00	 call	 ?MessageChat@@YAXHPADZZ	; MessageChat
  006c1	83 c4 0c	 add	 esp, 12			; 0000000cH
$LN10@QtopReed:

; 992  : 				}
; 993  : 
; 994  : 				if (this->QTOP_BonusWcoinG > 0)

  006c4	8b 87 08 02 00
	00		 mov	 eax, DWORD PTR [edi+520]
  006ca	89 85 40 fd ff
	ff		 mov	 DWORD PTR tv953[ebp], eax
  006d0	85 c0		 test	 eax, eax
  006d2	7e 32		 jle	 SHORT $LN9@QtopReed

; 995  : 				{
; 996  : 					lpObj->GameShop.GoblinPoint += this->QTOP_BonusWcoinG;

  006d4	db 85 40 fd ff
	ff		 fild	 DWORD PTR tv953[ebp]

; 997  : 					gGameShop.GDSaveUserInfo(aIndex);

  006da	53		 push	 ebx
  006db	b9 00 00 00 00	 mov	 ecx, OFFSET ?gGameShop@@3VGameShop@@A ; gGameShop
  006e0	dc 86 08 23 00
	00		 fadd	 QWORD PTR [esi+8968]
  006e6	dd 9e 08 23 00
	00		 fstp	 QWORD PTR [esi+8968]
  006ec	e8 00 00 00 00	 call	 ?GDSaveUserInfo@GameShop@@QAEXH@Z ; GameShop::GDSaveUserInfo

; 998  : 					MessageChat(aIndex, "@[QTOP] Goblin Bonus: %d", this->QTOP_BonusWcoinG);

  006f1	8b 87 08 02 00
	00		 mov	 eax, DWORD PTR [edi+520]
  006f7	50		 push	 eax
  006f8	68 00 00 00 00	 push	 OFFSET ??_C@_0BJ@FEFHLEEI@?$EA?$FLQTOP?$FN?5Goblin?5Bonus?3?5?$CFd?$AA@
  006fd	53		 push	 ebx
  006fe	e8 00 00 00 00	 call	 ?MessageChat@@YAXHPADZZ	; MessageChat
  00703	83 c4 0c	 add	 esp, 12			; 0000000cH
$LN9@QtopReed:

; 999  : 				}
; 1000 : 
; 1001 : 				if (this->QTOP_BonusZtCred > 0)

  00706	83 bf 0c 02 00
	00 00		 cmp	 DWORD PTR [edi+524], 0
  0070d	7e 27		 jle	 SHORT $LN8@QtopReed

; 1002 : 				{
; 1003 : 					lpObj->ZtCred += this->QTOP_BonusZtCred;

  0070f	db 87 0c 02 00
	00		 fild	 DWORD PTR [edi+524]
  00715	d8 86 a8 22 00
	00		 fadd	 DWORD PTR [esi+8872]
  0071b	d9 9e a8 22 00
	00		 fstp	 DWORD PTR [esi+8872]

; 1004 : 					MessageChat(aIndex, "@[QTOP] ZtCred Bonus: %d", this->QTOP_BonusZtCred);

  00721	8b 8f 0c 02 00
	00		 mov	 ecx, DWORD PTR [edi+524]
  00727	51		 push	 ecx
  00728	68 00 00 00 00	 push	 OFFSET ??_C@_0BJ@BNOEGAE@?$EA?$FLQTOP?$FN?5ZtCred?5Bonus?3?5?$CFd?$AA@
  0072d	53		 push	 ebx
  0072e	e8 00 00 00 00	 call	 ?MessageChat@@YAXHPADZZ	; MessageChat
  00733	83 c4 0c	 add	 esp, 12			; 0000000cH
$LN8@QtopReed:

; 1005 : 				}
; 1006 : 
; 1007 : 				if (this->QTOP_BonusChaosBank > 0)

  00736	83 bf 20 02 00
	00 00		 cmp	 DWORD PTR [edi+544], 0
  0073d	7e 21		 jle	 SHORT $LN7@QtopReed

; 1008 : 				{
; 1009 : 					lpObj->ChaosBank += this->QTOP_BonusChaosBank;

  0073f	8b 97 20 02 00
	00		 mov	 edx, DWORD PTR [edi+544]
  00745	01 96 e4 27 00
	00		 add	 DWORD PTR [esi+10212], edx

; 1010 : 					MessageChat(aIndex, "@[QTOP] Chaos Bank Bonus: %d", this->QTOP_BonusChaosBank);

  0074b	8b 87 20 02 00
	00		 mov	 eax, DWORD PTR [edi+544]
  00751	50		 push	 eax
  00752	68 00 00 00 00	 push	 OFFSET ??_C@_0BN@EJNHHCLB@?$EA?$FLQTOP?$FN?5Chaos?5Bank?5Bonus?3?5?$CFd?$AA@
  00757	53		 push	 ebx
  00758	e8 00 00 00 00	 call	 ?MessageChat@@YAXHPADZZ	; MessageChat
  0075d	83 c4 0c	 add	 esp, 12			; 0000000cH
$LN7@QtopReed:

; 1011 : 				}
; 1012 : 
; 1013 : 				if (this->QTOP_BonusBlessBank > 0)

  00760	83 bf 24 02 00
	00 00		 cmp	 DWORD PTR [edi+548], 0
  00767	7e 21		 jle	 SHORT $LN6@QtopReed

; 1014 : 				{
; 1015 : 					lpObj->BlessBank += this->QTOP_BonusBlessBank;

  00769	8b 8f 24 02 00
	00		 mov	 ecx, DWORD PTR [edi+548]
  0076f	01 8e e8 27 00
	00		 add	 DWORD PTR [esi+10216], ecx

; 1016 : 					MessageChat(aIndex, "@[QTOP] Bless Bank Bonus: %d", this->QTOP_BonusBlessBank);

  00775	8b 97 24 02 00
	00		 mov	 edx, DWORD PTR [edi+548]
  0077b	52		 push	 edx
  0077c	68 00 00 00 00	 push	 OFFSET ??_C@_0BN@EDNCDCIG@?$EA?$FLQTOP?$FN?5Bless?5Bank?5Bonus?3?5?$CFd?$AA@
  00781	53		 push	 ebx
  00782	e8 00 00 00 00	 call	 ?MessageChat@@YAXHPADZZ	; MessageChat
  00787	83 c4 0c	 add	 esp, 12			; 0000000cH
$LN6@QtopReed:

; 1017 : 				}
; 1018 : 
; 1019 : 				if (this->QTOP_BonusSoulBank > 0)

  0078a	83 bf 28 02 00
	00 00		 cmp	 DWORD PTR [edi+552], 0
  00791	7e 21		 jle	 SHORT $LN5@QtopReed

; 1020 : 				{
; 1021 : 					lpObj->SoulBank += this->QTOP_BonusSoulBank;

  00793	8b 87 28 02 00
	00		 mov	 eax, DWORD PTR [edi+552]
  00799	01 86 ec 27 00
	00		 add	 DWORD PTR [esi+10220], eax

; 1022 : 					MessageChat(aIndex, "@[QTOP] Soul Bank Bonus: %d", this->QTOP_BonusSoulBank);

  0079f	8b 8f 28 02 00
	00		 mov	 ecx, DWORD PTR [edi+552]
  007a5	51		 push	 ecx
  007a6	68 00 00 00 00	 push	 OFFSET ??_C@_0BM@IEHNOLFI@?$EA?$FLQTOP?$FN?5Soul?5Bank?5Bonus?3?5?$CFd?$AA@
  007ab	53		 push	 ebx
  007ac	e8 00 00 00 00	 call	 ?MessageChat@@YAXHPADZZ	; MessageChat
  007b1	83 c4 0c	 add	 esp, 12			; 0000000cH
$LN5@QtopReed:

; 1023 : 				}
; 1024 : 
; 1025 : 				if (this->QTOP_BonusLifeBank > 0)

  007b4	83 bf 2c 02 00
	00 00		 cmp	 DWORD PTR [edi+556], 0
  007bb	7e 21		 jle	 SHORT $LN4@QtopReed

; 1026 : 				{
; 1027 : 					lpObj->LifeBank += this->QTOP_BonusLifeBank;

  007bd	8b 97 2c 02 00
	00		 mov	 edx, DWORD PTR [edi+556]
  007c3	01 96 f0 27 00
	00		 add	 DWORD PTR [esi+10224], edx

; 1028 : 					MessageChat(aIndex, "@[QTOP] Life Bank Bonus: %d", this->QTOP_BonusLifeBank);

  007c9	8b 87 2c 02 00
	00		 mov	 eax, DWORD PTR [edi+556]
  007cf	50		 push	 eax
  007d0	68 00 00 00 00	 push	 OFFSET ??_C@_0BM@CAGLDOOI@?$EA?$FLQTOP?$FN?5Life?5Bank?5Bonus?3?5?$CFd?$AA@
  007d5	53		 push	 ebx
  007d6	e8 00 00 00 00	 call	 ?MessageChat@@YAXHPADZZ	; MessageChat
  007db	83 c4 0c	 add	 esp, 12			; 0000000cH
$LN4@QtopReed:

; 1029 : 
; 1030 : 				}
; 1031 : 
; 1032 : 				// --> Buff Effect Custom
; 1033 : 				if(g_ZtLicense.CheckUser(eZtUB::Gredy) || g_ZtLicense.CheckUser(eZtUB::GredyLocal) || g_ZtLicense.CheckUser(eZtUB::Gredy2))

  007de	6a 20		 push	 32			; 00000020H
  007e0	b9 00 00 00 00	 mov	 ecx, OFFSET ?g_ZtLicense@@3VCZtLicense@@A ; g_ZtLicense
  007e5	e8 00 00 00 00	 call	 ?CheckUser@CZtLicense@@QAE_NH@Z ; CZtLicense::CheckUser
  007ea	84 c0		 test	 al, al
  007ec	75 20		 jne	 SHORT $LN2@QtopReed
  007ee	6a 21		 push	 33			; 00000021H
  007f0	b9 00 00 00 00	 mov	 ecx, OFFSET ?g_ZtLicense@@3VCZtLicense@@A ; g_ZtLicense
  007f5	e8 00 00 00 00	 call	 ?CheckUser@CZtLicense@@QAE_NH@Z ; CZtLicense::CheckUser
  007fa	84 c0		 test	 al, al
  007fc	75 10		 jne	 SHORT $LN2@QtopReed
  007fe	6a 22		 push	 34			; 00000022H
  00800	b9 00 00 00 00	 mov	 ecx, OFFSET ?g_ZtLicense@@3VCZtLicense@@A ; g_ZtLicense
  00805	e8 00 00 00 00	 call	 ?CheckUser@CZtLicense@@QAE_NH@Z ; CZtLicense::CheckUser
  0080a	84 c0		 test	 al, al
  0080c	74 29		 je	 SHORT $LN3@QtopReed
$LN2@QtopReed:

; 1034 : 				{
; 1035 : 					lpObj->QT_BuffTime += this->QTOP_SMSBuffTime;

  0080e	8b 8f 6c 02 00
	00		 mov	 ecx, DWORD PTR [edi+620]
  00814	01 8e e0 2a 00
	00		 add	 DWORD PTR [esi+10976], ecx
  0081a	8b 86 e0 2a 00
	00		 mov	 eax, DWORD PTR [esi+10976]

; 1036 : 					gObjApplyBuffEffectDuration(lpObj, AT_QTOP_BUFF, 0, 0, 0, 0, lpObj->QT_BuffTime);

  00820	50		 push	 eax
  00821	6a 00		 push	 0
  00823	6a 00		 push	 0
  00825	6a 00		 push	 0
  00827	6a 00		 push	 0
  00829	68 c3 00 00 00	 push	 195			; 000000c3H
  0082e	56		 push	 esi
  0082f	e8 00 00 00 00	 call	 ?gObjApplyBuffEffectDuration@@YAEPAUOBJECTSTRUCT@@HEHEHH@Z ; gObjApplyBuffEffectDuration
  00834	83 c4 1c	 add	 esp, 28			; 0000001cH
$LN3@QtopReed:

; 1037 : 				}
; 1038 : 
; 1039 : 				MessageChat(aIndex, "@[QTOP] Date: %s", DataTime);

  00837	8d 95 48 ff ff
	ff		 lea	 edx, DWORD PTR _DataTime$207966[ebp]
  0083d	52		 push	 edx
  0083e	68 00 00 00 00	 push	 OFFSET ??_C@_0BB@EPGEHIK@?$EA?$FLQTOP?$FN?5Date?3?5?$CFs?$AA@
$LN71@QtopReed:
  00843	53		 push	 ebx
  00844	e8 00 00 00 00	 call	 ?MessageChat@@YAXHPADZZ	; MessageChat

; 1040 : 			}
; 1041 : 
; 1042 : 			lpObj->QTDate = tData;

  00849	8b 85 3c fd ff
	ff		 mov	 eax, DWORD PTR _tData$207986[ebp]
  0084f	83 c4 0c	 add	 esp, 12			; 0000000cH

; 1043 : 
; 1044 : 			ZtUserDataSend(aIndex);

  00852	53		 push	 ebx
  00853	89 86 18 28 00
	00		 mov	 DWORD PTR [esi+10264], eax
  00859	e8 00 00 00 00	 call	 ?ZtUserDataSend@@YAXH@Z	; ZtUserDataSend

; 1045 : 			GJSetCharacterInfo(lpObj, lpObj->m_Index, 0);

  0085e	8b 0e		 mov	 ecx, DWORD PTR [esi]
  00860	6a 00		 push	 0
  00862	51		 push	 ecx
  00863	56		 push	 esi
  00864	e8 00 00 00 00	 call	 ?GJSetCharacterInfo@@YAXPAUOBJECTSTRUCT@@HH@Z ; GJSetCharacterInfo

; 1046 : 			LogAdd("[QTOP][%s] Date: %s", lpObj->AccountID, DataTime);

  00869	8d 95 48 ff ff
	ff		 lea	 edx, DWORD PTR _DataTime$207966[ebp]
  0086f	52		 push	 edx
  00870	83 c6 6c	 add	 esi, 108		; 0000006cH
  00873	56		 push	 esi
  00874	68 00 00 00 00	 push	 OFFSET ??_C@_0BE@OHJFKBPP@?$FLQTOP?$FN?$FL?$CFs?$FN?5Date?3?5?$CFs?$AA@
  00879	ff 15 00 00 00
	00		 call	 DWORD PTR ?LogAdd@@3P6AXPADZZA ; LogAdd
  0087f	83 c4 1c	 add	 esp, 28			; 0000001cH
$LN67@QtopReed:

; 793  : 	{
; 794  : #ifdef VOTE_DEBUG
; 795  : 		LogAddC(2, "[VOTE]No FILE");
; 796  : #endif
; 797  : 		return;
; 798  : 	}
; 799  : 
; 800  : 	char Buff[512];
; 801  : 
; 802  : 	int Count = 0;
; 803  : 
; 804  : 	while (!feof(file))

  00882	8b b5 30 fd ff
	ff		 mov	 esi, DWORD PTR _file$[ebp]
  00888	56		 push	 esi
  00889	e8 00 00 00 00	 call	 _feof
  0088e	83 c4 04	 add	 esp, 4
  00891	85 c0		 test	 eax, eax
  00893	0f 84 c7 f7 ff
	ff		 je	 $LL44@QtopReed
  00899	5b		 pop	 ebx
$LN43@QtopReed:

; 1047 : 		}
; 1048 : 
; 1049 : 	}
; 1050 : 
; 1051 : 	fclose(file);

  0089a	56		 push	 esi
  0089b	e8 00 00 00 00	 call	 _fclose
  008a0	83 c4 04	 add	 esp, 4

; 1052 : 	if (this->QTOP_DeleteVoteFile)

  008a3	80 bf 31 01 00
	00 00		 cmp	 BYTE PTR [edi+305], 0
  008aa	74 0d		 je	 SHORT $LN70@QtopReed

; 1053 : 	{
; 1054 : 		remove(QTOP_FILE);

  008ac	68 00 00 00 00	 push	 OFFSET ??_C@_08CLPFLBNE@qtop?4txt?$AA@
  008b1	e8 00 00 00 00	 call	 _remove
  008b6	83 c4 04	 add	 esp, 4
$LN70@QtopReed:
  008b9	5e		 pop	 esi
$LN1@QtopReed:

; 1055 : 	}
; 1056 : }

  008ba	8b 4d fc	 mov	 ecx, DWORD PTR __$ArrayPad$[ebp]
  008bd	33 cd		 xor	 ecx, ebp
  008bf	5f		 pop	 edi
  008c0	e8 00 00 00 00	 call	 @__security_check_cookie@4
  008c5	8b e5		 mov	 esp, ebp
  008c7	5d		 pop	 ebp
  008c8	c3		 ret	 0
?QtopReed@Voter@@QAEXXZ ENDP				; Voter::QtopReed
_TEXT	ENDS
PUBLIC	??_C@_0BF@NCLJNNGJ@?$FLANONS?$FN?$FL?$CFs?$FN?5Date?3?5?$CFs?$AA@ ; `string'
PUBLIC	??_C@_0BC@DDKIFAOJ@?$EA?$FLANONS?$FN?5Date?3?5?$CFs?$AA@ ; `string'
PUBLIC	??_C@_0BN@BJLHJEMA@?$EA?$FLANONS?$FN?5Life?5Bank?5Bonus?3?5?$CFd?$AA@ ; `string'
PUBLIC	??_C@_0BN@LNKBEBHA@?$EA?$FLANONS?$FN?5Soul?5Bank?5Bonus?3?5?$CFd?$AA@ ; `string'
PUBLIC	??_C@_0BO@HGFOEGNG@?$EA?$FLANONS?$FN?5Bless?5Bank?5Bonus?3?5?$CFd?$AA@ ; `string'
PUBLIC	??_C@_0BO@HMFLAGOB@?$EA?$FLANONS?$FN?5Chaos?5Bank?5Bonus?3?5?$CFd?$AA@ ; `string'
PUBLIC	??_C@_0BK@NIEGEOAN@?$EA?$FLANONS?$FN?5ZtCred?5Bonus?3?5?$CFd?$AA@ ; `string'
PUBLIC	??_C@_0BK@INMPLMEB@?$EA?$FLANONS?$FN?5Goblin?5Bonus?3?5?$CFd?$AA@ ; `string'
PUBLIC	??_C@_0BK@NCEFHCKK@?$EA?$FLANONS?$FN?5WCoinP?5Bonus?3?5?$CFd?$AA@ ; `string'
PUBLIC	??_C@_0BK@LOPMDGNL@?$EA?$FLANONS?$FN?5WcoinC?5Bonus?3?5?$CFd?$AA@ ; `string'
PUBLIC	??_C@_0BI@KBLAACKL@?$EA?$FLANONS?$FN?5Item?5Bonus?3?5?$CFs?$AA@ ; `string'
PUBLIC	??_C@_0DF@KFGLKMEL@?$EA?$FLANONS?$FN?5Need?5to?5make?5space?5in?5t@ ; `string'
PUBLIC	??_C@_0BG@MCJCLIPG@?$EA?$FLSMS?5ANONS?$FN?5Date?3?5?$CFs?$AA@ ; `string'
PUBLIC	??_C@_0CB@IIFCLHNA@?$EA?$FLSMS?5ANONS?$FN?5Life?5Bank?5Bonus?3?5?$CFd@ ; `string'
PUBLIC	??_C@_0CB@CMEEGCGA@?$EA?$FLSMS?5ANONS?$FN?5Soul?5Bank?5Bonus?3?5?$CFd@ ; `string'
PUBLIC	??_C@_0CC@GLHILDJB@?$EA?$FLSMS?5ANONS?$FN?5Bless?5Bank?5Bonus?3?5?$CF@ ; `string'
PUBLIC	??_C@_0CC@GBHNPDKG@?$EA?$FLSMS?5ANONS?$FN?5Chaos?5Bank?5Bonus?3?5?$CF@ ; `string'
PUBLIC	??_C@_0BO@JNCHNINM@?$EA?$FLSMS?5ANONS?$FN?5ZtCred?5Bonus?3?5?$CFd?$AA@ ; `string'
PUBLIC	??_C@_0BO@MIKOCKJA@?$EA?$FLSMS?5ANONS?$FN?5Goblin?5Bonus?3?5?$CFd?$AA@ ; `string'
PUBLIC	??_C@_0BO@JHCEOEHL@?$EA?$FLSMS?5ANONS?$FN?5WCoinP?5Bonus?3?5?$CFd?$AA@ ; `string'
PUBLIC	??_C@_0BO@PLJNKAAK@?$EA?$FLSMS?5ANONS?$FN?5WcoinC?5Bonus?3?5?$CFd?$AA@ ; `string'
PUBLIC	??_C@_0BM@GAAEDPNJ@?$EA?$FLSMS?5ANONS?$FN?5Item?5Bonus?3?5?$CFs?$AA@ ; `string'
PUBLIC	??_C@_0DJ@ODIONAJ@?$EA?$FLSMS?5ANONS?$FN?5Need?5to?5make?5space?5@ ; `string'
PUBLIC	??_C@_0L@ICBDLIDP@anonse?4txt?$AA@		; `string'
PUBLIC	__$ArrayPad$
PUBLIC	?AnonsReed@Voter@@QAEXXZ			; Voter::AnonsReed
EXTRN	?ResetUp@CAchievements@@QAEXH@Z:PROC		; CAchievements::ResetUp
;	COMDAT ??_C@_0BF@NCLJNNGJ@?$FLANONS?$FN?$FL?$CFs?$FN?5Date?3?5?$CFs?$AA@
; File d:\program files (x86)\microsoft visual studio 10.0\vc\atlmfc\include\atltime.inl
CONST	SEGMENT
??_C@_0BF@NCLJNNGJ@?$FLANONS?$FN?$FL?$CFs?$FN?5Date?3?5?$CFs?$AA@ DB '[AN'
	DB	'ONS][%s] Date: %s', 00H			; `string'
CONST	ENDS
;	COMDAT ??_C@_0BC@DDKIFAOJ@?$EA?$FLANONS?$FN?5Date?3?5?$CFs?$AA@
CONST	SEGMENT
??_C@_0BC@DDKIFAOJ@?$EA?$FLANONS?$FN?5Date?3?5?$CFs?$AA@ DB '@[ANONS] Dat'
	DB	'e: %s', 00H					; `string'
CONST	ENDS
;	COMDAT ??_C@_0BN@BJLHJEMA@?$EA?$FLANONS?$FN?5Life?5Bank?5Bonus?3?5?$CFd?$AA@
CONST	SEGMENT
??_C@_0BN@BJLHJEMA@?$EA?$FLANONS?$FN?5Life?5Bank?5Bonus?3?5?$CFd?$AA@ DB '@'
	DB	'[ANONS] Life Bank Bonus: %d', 00H		; `string'
CONST	ENDS
;	COMDAT ??_C@_0BN@LNKBEBHA@?$EA?$FLANONS?$FN?5Soul?5Bank?5Bonus?3?5?$CFd?$AA@
CONST	SEGMENT
??_C@_0BN@LNKBEBHA@?$EA?$FLANONS?$FN?5Soul?5Bank?5Bonus?3?5?$CFd?$AA@ DB '@'
	DB	'[ANONS] Soul Bank Bonus: %d', 00H		; `string'
CONST	ENDS
;	COMDAT ??_C@_0BO@HGFOEGNG@?$EA?$FLANONS?$FN?5Bless?5Bank?5Bonus?3?5?$CFd?$AA@
CONST	SEGMENT
??_C@_0BO@HGFOEGNG@?$EA?$FLANONS?$FN?5Bless?5Bank?5Bonus?3?5?$CFd?$AA@ DB '@'
	DB	'[ANONS] Bless Bank Bonus: %d', 00H		; `string'
CONST	ENDS
;	COMDAT ??_C@_0BO@HMFLAGOB@?$EA?$FLANONS?$FN?5Chaos?5Bank?5Bonus?3?5?$CFd?$AA@
CONST	SEGMENT
??_C@_0BO@HMFLAGOB@?$EA?$FLANONS?$FN?5Chaos?5Bank?5Bonus?3?5?$CFd?$AA@ DB '@'
	DB	'[ANONS] Chaos Bank Bonus: %d', 00H		; `string'
CONST	ENDS
;	COMDAT ??_C@_0BK@NIEGEOAN@?$EA?$FLANONS?$FN?5ZtCred?5Bonus?3?5?$CFd?$AA@
CONST	SEGMENT
??_C@_0BK@NIEGEOAN@?$EA?$FLANONS?$FN?5ZtCred?5Bonus?3?5?$CFd?$AA@ DB '@[A'
	DB	'NONS] ZtCred Bonus: %d', 00H		; `string'
CONST	ENDS
;	COMDAT ??_C@_0BK@INMPLMEB@?$EA?$FLANONS?$FN?5Goblin?5Bonus?3?5?$CFd?$AA@
CONST	SEGMENT
??_C@_0BK@INMPLMEB@?$EA?$FLANONS?$FN?5Goblin?5Bonus?3?5?$CFd?$AA@ DB '@[A'
	DB	'NONS] Goblin Bonus: %d', 00H		; `string'
CONST	ENDS
;	COMDAT ??_C@_0BK@NCEFHCKK@?$EA?$FLANONS?$FN?5WCoinP?5Bonus?3?5?$CFd?$AA@
CONST	SEGMENT
??_C@_0BK@NCEFHCKK@?$EA?$FLANONS?$FN?5WCoinP?5Bonus?3?5?$CFd?$AA@ DB '@[A'
	DB	'NONS] WCoinP Bonus: %d', 00H		; `string'
CONST	ENDS
;	COMDAT ??_C@_0BK@LOPMDGNL@?$EA?$FLANONS?$FN?5WcoinC?5Bonus?3?5?$CFd?$AA@
CONST	SEGMENT
??_C@_0BK@LOPMDGNL@?$EA?$FLANONS?$FN?5WcoinC?5Bonus?3?5?$CFd?$AA@ DB '@[A'
	DB	'NONS] WcoinC Bonus: %d', 00H		; `string'
CONST	ENDS
;	COMDAT ??_C@_0BI@KBLAACKL@?$EA?$FLANONS?$FN?5Item?5Bonus?3?5?$CFs?$AA@
CONST	SEGMENT
??_C@_0BI@KBLAACKL@?$EA?$FLANONS?$FN?5Item?5Bonus?3?5?$CFs?$AA@ DB '@[ANO'
	DB	'NS] Item Bonus: %s', 00H			; `string'
CONST	ENDS
;	COMDAT ??_C@_0DF@KFGLKMEL@?$EA?$FLANONS?$FN?5Need?5to?5make?5space?5in?5t@
CONST	SEGMENT
??_C@_0DF@KFGLKMEL@?$EA?$FLANONS?$FN?5Need?5to?5make?5space?5in?5t@ DB '@'
	DB	'[ANONS] Need to make space in the inventory (%dx%d)', 00H ; `string'
CONST	ENDS
;	COMDAT ??_C@_0BG@MCJCLIPG@?$EA?$FLSMS?5ANONS?$FN?5Date?3?5?$CFs?$AA@
CONST	SEGMENT
??_C@_0BG@MCJCLIPG@?$EA?$FLSMS?5ANONS?$FN?5Date?3?5?$CFs?$AA@ DB '@[SMS A'
	DB	'NONS] Date: %s', 00H			; `string'
CONST	ENDS
;	COMDAT ??_C@_0CB@IIFCLHNA@?$EA?$FLSMS?5ANONS?$FN?5Life?5Bank?5Bonus?3?5?$CFd@
CONST	SEGMENT
??_C@_0CB@IIFCLHNA@?$EA?$FLSMS?5ANONS?$FN?5Life?5Bank?5Bonus?3?5?$CFd@ DB '@'
	DB	'[SMS ANONS] Life Bank Bonus: %d', 00H	; `string'
CONST	ENDS
;	COMDAT ??_C@_0CB@CMEEGCGA@?$EA?$FLSMS?5ANONS?$FN?5Soul?5Bank?5Bonus?3?5?$CFd@
CONST	SEGMENT
??_C@_0CB@CMEEGCGA@?$EA?$FLSMS?5ANONS?$FN?5Soul?5Bank?5Bonus?3?5?$CFd@ DB '@'
	DB	'[SMS ANONS] Soul Bank Bonus: %d', 00H	; `string'
CONST	ENDS
;	COMDAT ??_C@_0CC@GLHILDJB@?$EA?$FLSMS?5ANONS?$FN?5Bless?5Bank?5Bonus?3?5?$CF@
CONST	SEGMENT
??_C@_0CC@GLHILDJB@?$EA?$FLSMS?5ANONS?$FN?5Bless?5Bank?5Bonus?3?5?$CF@ DB '@'
	DB	'[SMS ANONS] Bless Bank Bonus: %d', 00H	; `string'
CONST	ENDS
;	COMDAT ??_C@_0CC@GBHNPDKG@?$EA?$FLSMS?5ANONS?$FN?5Chaos?5Bank?5Bonus?3?5?$CF@
CONST	SEGMENT
??_C@_0CC@GBHNPDKG@?$EA?$FLSMS?5ANONS?$FN?5Chaos?5Bank?5Bonus?3?5?$CF@ DB '@'
	DB	'[SMS ANONS] Chaos Bank Bonus: %d', 00H	; `string'
CONST	ENDS
;	COMDAT ??_C@_0BO@JNCHNINM@?$EA?$FLSMS?5ANONS?$FN?5ZtCred?5Bonus?3?5?$CFd?$AA@
CONST	SEGMENT
??_C@_0BO@JNCHNINM@?$EA?$FLSMS?5ANONS?$FN?5ZtCred?5Bonus?3?5?$CFd?$AA@ DB '@'
	DB	'[SMS ANONS] ZtCred Bonus: %d', 00H		; `string'
CONST	ENDS
;	COMDAT ??_C@_0BO@MIKOCKJA@?$EA?$FLSMS?5ANONS?$FN?5Goblin?5Bonus?3?5?$CFd?$AA@
CONST	SEGMENT
??_C@_0BO@MIKOCKJA@?$EA?$FLSMS?5ANONS?$FN?5Goblin?5Bonus?3?5?$CFd?$AA@ DB '@'
	DB	'[SMS ANONS] Goblin Bonus: %d', 00H		; `string'
CONST	ENDS
;	COMDAT ??_C@_0BO@JHCEOEHL@?$EA?$FLSMS?5ANONS?$FN?5WCoinP?5Bonus?3?5?$CFd?$AA@
CONST	SEGMENT
??_C@_0BO@JHCEOEHL@?$EA?$FLSMS?5ANONS?$FN?5WCoinP?5Bonus?3?5?$CFd?$AA@ DB '@'
	DB	'[SMS ANONS] WCoinP Bonus: %d', 00H		; `string'
CONST	ENDS
;	COMDAT ??_C@_0BO@PLJNKAAK@?$EA?$FLSMS?5ANONS?$FN?5WcoinC?5Bonus?3?5?$CFd?$AA@
CONST	SEGMENT
??_C@_0BO@PLJNKAAK@?$EA?$FLSMS?5ANONS?$FN?5WcoinC?5Bonus?3?5?$CFd?$AA@ DB '@'
	DB	'[SMS ANONS] WcoinC Bonus: %d', 00H		; `string'
CONST	ENDS
;	COMDAT ??_C@_0BM@GAAEDPNJ@?$EA?$FLSMS?5ANONS?$FN?5Item?5Bonus?3?5?$CFs?$AA@
CONST	SEGMENT
??_C@_0BM@GAAEDPNJ@?$EA?$FLSMS?5ANONS?$FN?5Item?5Bonus?3?5?$CFs?$AA@ DB '@'
	DB	'[SMS ANONS] Item Bonus: %s', 00H		; `string'
CONST	ENDS
;	COMDAT ??_C@_0DJ@ODIONAJ@?$EA?$FLSMS?5ANONS?$FN?5Need?5to?5make?5space?5@
CONST	SEGMENT
??_C@_0DJ@ODIONAJ@?$EA?$FLSMS?5ANONS?$FN?5Need?5to?5make?5space?5@ DB '@['
	DB	'SMS ANONS] Need to make space in the inventory (%dx%d)', 00H ; `string'
CONST	ENDS
;	COMDAT ??_C@_0L@ICBDLIDP@anonse?4txt?$AA@
CONST	SEGMENT
??_C@_0L@ICBDLIDP@anonse?4txt?$AA@ DB 'anonse.txt', 00H	; `string'
; Function compile flags: /Ogtp
; File e:\work\tranet_version\gs\gameserver\voter.cpp
CONST	ENDS
;	COMDAT ?AnonsReed@Voter@@QAEXXZ
_TEXT	SEGMENT
_mId$208103 = -752					; size = 4
_ct$208130 = -748					; size = 8
_nMonth$208111 = -740					; size = 4
_nDay$208112 = -736					; size = 4
_mRewerd$208108 = -732					; size = 4
_nYear$208110 = -728					; size = 4
_nSec$208115 = -724					; size = 4
_file$ = -720						; size = 4
_nMin$208114 = -716					; size = 4
_nHour$208113 = -712					; size = 4
_tData$208132 = -708					; size = 4
tv843 = -704						; size = 4
tv837 = -704						; size = 4
tv831 = -704						; size = 4
_Height$208161 = -704					; size = 4
tv737 = -700						; size = 4
tv728 = -700						; size = 4
tv708 = -700						; size = 4
_Width$208162 = -700					; size = 4
_Buff$ = -696						; size = 512
_mGetIp$208106 = -184					; size = 20
_DataTime$208109 = -164					; size = 100
_mGetDate$208104 = -64					; size = 20
_mGetTime$208105 = -44					; size = 20
_mGetAccaunt$208107 = -24				; size = 20
__$ArrayPad$ = -4					; size = 4
?AnonsReed@Voter@@QAEXXZ PROC				; Voter::AnonsReed, COMDAT
; _this$ = ecx

; 1226 : {

  00000	55		 push	 ebp
  00001	8b ec		 mov	 ebp, esp
  00003	81 ec f0 02 00
	00		 sub	 esp, 752		; 000002f0H
  00009	a1 00 00 00 00	 mov	 eax, DWORD PTR ___security_cookie
  0000e	33 c5		 xor	 eax, ebp
  00010	89 45 fc	 mov	 DWORD PTR __$ArrayPad$[ebp], eax
  00013	57		 push	 edi
  00014	8b f9		 mov	 edi, ecx

; 1227 : 	if(!this->ANONS_Enable) return;

  00016	80 bf 70 02 00
	00 00		 cmp	 BYTE PTR [edi+624], 0
  0001d	0f 84 64 07 00
	00		 je	 $LN1@AnonsReed

; 1228 : 
; 1229 : 	FILE * file = fopen(ANONS_FILE, "r");

  00023	56		 push	 esi
  00024	68 00 00 00 00	 push	 OFFSET ??_C@_01KDCPPGHE@r?$AA@
  00029	68 00 00 00 00	 push	 OFFSET ??_C@_0L@ICBDLIDP@anonse?4txt?$AA@
  0002e	e8 00 00 00 00	 call	 _fopen
  00033	8b f0		 mov	 esi, eax
  00035	83 c4 08	 add	 esp, 8
  00038	89 b5 30 fd ff
	ff		 mov	 DWORD PTR _file$[ebp], esi

; 1230 : 
; 1231 : 	if (file == NULL)

  0003e	85 f6		 test	 esi, esi
  00040	0f 84 40 07 00
	00		 je	 $LN66@AnonsReed

; 1232 : 	{
; 1233 : #ifdef VOTE_DEBUG
; 1234 : 		LogAddC(2,"[VOTE]No FILE");
; 1235 : #endif
; 1236 : 		return;
; 1237 : 	}
; 1238 : 
; 1239 : 	char Buff[512];
; 1240 : 
; 1241 : 	int Count = 0;
; 1242 : 
; 1243 : 	while (!feof(file))

  00046	56		 push	 esi
  00047	e8 00 00 00 00	 call	 _feof
  0004c	83 c4 04	 add	 esp, 4
  0004f	85 c0		 test	 eax, eax
  00051	0f 85 10 07 00
	00		 jne	 $LN38@AnonsReed
  00057	53		 push	 ebx
  00058	eb 06 8d 9b 00
	00 00 00	 npad	 8
$LL39@AnonsReed:

; 1244 : 	{
; 1245 : 		fgets(Buff,512,file);

  00060	56		 push	 esi
  00061	8d 85 48 fd ff
	ff		 lea	 eax, DWORD PTR _Buff$[ebp]
  00067	68 00 02 00 00	 push	 512			; 00000200H
  0006c	50		 push	 eax
  0006d	e8 00 00 00 00	 call	 _fgets

; 1246 : 
; 1247 : 		int mId;
; 1248 : 		char mGetDate[20];
; 1249 : 		char mGetTime[20];
; 1250 : 		char mGetIp[20];
; 1251 : 		char mGetAccaunt[20];
; 1252 : 		int mRewerd;
; 1253 : 
; 1254 : 		sscanf(Buff, "%d %s %s %s %s %d",&mId, &mGetDate, &mGetTime, &mGetIp, &mGetAccaunt, &mRewerd);

  00072	8d 8d 24 fd ff
	ff		 lea	 ecx, DWORD PTR _mRewerd$208108[ebp]
  00078	51		 push	 ecx
  00079	8d 55 e8	 lea	 edx, DWORD PTR _mGetAccaunt$208107[ebp]
  0007c	52		 push	 edx
  0007d	8d 85 48 ff ff
	ff		 lea	 eax, DWORD PTR _mGetIp$208106[ebp]
  00083	50		 push	 eax
  00084	8d 4d d4	 lea	 ecx, DWORD PTR _mGetTime$208105[ebp]
  00087	51		 push	 ecx
  00088	8d 55 c0	 lea	 edx, DWORD PTR _mGetDate$208104[ebp]
  0008b	52		 push	 edx
  0008c	8d 85 10 fd ff
	ff		 lea	 eax, DWORD PTR _mId$208103[ebp]
  00092	50		 push	 eax
  00093	8d 8d 48 fd ff
	ff		 lea	 ecx, DWORD PTR _Buff$[ebp]
  00099	68 00 00 00 00	 push	 OFFSET ??_C@_0BC@FDIFMHGC@?$CFd?5?$CFs?5?$CFs?5?$CFs?5?$CFs?5?$CFd?$AA@
  0009e	51		 push	 ecx
  0009f	e8 00 00 00 00	 call	 _sscanf

; 1255 : 
; 1256 : 		char DataTime[100];
; 1257 : 		sprintf(DataTime, "%s %s",mGetDate, mGetTime);

  000a4	8d 55 d4	 lea	 edx, DWORD PTR _mGetTime$208105[ebp]
  000a7	52		 push	 edx
  000a8	8d 45 c0	 lea	 eax, DWORD PTR _mGetDate$208104[ebp]
  000ab	50		 push	 eax
  000ac	8d 8d 5c ff ff
	ff		 lea	 ecx, DWORD PTR _DataTime$208109[ebp]
  000b2	68 00 00 00 00	 push	 OFFSET ??_C@_05DNIIFBMG@?$CFs?5?$CFs?$AA@
  000b7	51		 push	 ecx
  000b8	e8 00 00 00 00	 call	 _sprintf

; 1258 : 
; 1259 : 		int nYear, nMonth, nDay, nHour, nMin, nSec;
; 1260 : 		sscanf(DataTime, "%d.%d.%d %d:%d:%d", &nDay, &nMonth, &nYear, &nHour, &nMin, &nSec);

  000bd	8d 95 2c fd ff
	ff		 lea	 edx, DWORD PTR _nSec$208115[ebp]
  000c3	52		 push	 edx
  000c4	8d 85 34 fd ff
	ff		 lea	 eax, DWORD PTR _nMin$208114[ebp]
  000ca	50		 push	 eax
  000cb	8d 8d 38 fd ff
	ff		 lea	 ecx, DWORD PTR _nHour$208113[ebp]
  000d1	51		 push	 ecx
  000d2	8d 95 28 fd ff
	ff		 lea	 edx, DWORD PTR _nYear$208110[ebp]
  000d8	52		 push	 edx
  000d9	8d 85 1c fd ff
	ff		 lea	 eax, DWORD PTR _nMonth$208111[ebp]
  000df	50		 push	 eax
  000e0	8d 8d 20 fd ff
	ff		 lea	 ecx, DWORD PTR _nDay$208112[ebp]
  000e6	51		 push	 ecx
  000e7	8d 95 5c ff ff
	ff		 lea	 edx, DWORD PTR _DataTime$208109[ebp]
  000ed	68 00 00 00 00	 push	 OFFSET ??_C@_0BC@FFOHHNEG@?$CFd?4?$CFd?4?$CFd?5?$CFd?3?$CFd?3?$CFd?$AA@
  000f2	52		 push	 edx
  000f3	e8 00 00 00 00	 call	 _sscanf
  000f8	83 c4 5c	 add	 esp, 92			; 0000005cH

; 1261 : 		//20140215010507
; 1262 : 		if( ((nYear >= 1900)  && (nMonth >= 1 && nMonth <= 12) && (nDay >= 1 && nDay <= 31) && (nHour >= 0 && nHour <= 23) && (nMin >= 0 && nMin <= 59) && (nSec >= 0 && nSec <= 59)) )

  000fb	81 bd 28 fd ff
	ff 6c 07 00 00	 cmp	 DWORD PTR _nYear$208110[ebp], 1900 ; 0000076cH
  00105	0f 8c 44 06 00
	00		 jl	 $LN64@AnonsReed
  0010b	8b 85 1c fd ff
	ff		 mov	 eax, DWORD PTR _nMonth$208111[ebp]
  00111	48		 dec	 eax
  00112	83 f8 0b	 cmp	 eax, 11			; 0000000bH
  00115	0f 87 34 06 00
	00		 ja	 $LN64@AnonsReed
  0011b	8b 8d 20 fd ff
	ff		 mov	 ecx, DWORD PTR _nDay$208112[ebp]
  00121	49		 dec	 ecx
  00122	83 f9 1e	 cmp	 ecx, 30			; 0000001eH
  00125	0f 87 24 06 00
	00		 ja	 $LN64@AnonsReed
  0012b	83 bd 38 fd ff
	ff 17		 cmp	 DWORD PTR _nHour$208113[ebp], 23 ; 00000017H
  00132	0f 87 17 06 00
	00		 ja	 $LN64@AnonsReed
  00138	b8 3b 00 00 00	 mov	 eax, 59			; 0000003bH
  0013d	39 85 34 fd ff
	ff		 cmp	 DWORD PTR _nMin$208114[ebp], eax
  00143	0f 87 06 06 00
	00		 ja	 $LN64@AnonsReed
  00149	39 85 2c fd ff
	ff		 cmp	 DWORD PTR _nSec$208115[ebp], eax
  0014f	0f 87 fa 05 00
	00		 ja	 $LN64@AnonsReed

; 1263 : 		{
; 1264 : 
; 1265 : 		}
; 1266 : 		else
; 1267 : 		{
; 1268 : 			continue;
; 1269 : 		}
; 1270 : 
; 1271 : 		int aIndex = -1;
; 1272 : 
; 1273 : 		for (int n = OBJ_STARTUSERINDZT; n<OBJMAX; n++)

  00155	8b 15 00 00 00
	00		 mov	 edx, DWORD PTR ?gObj@@3PAUOBJECTSTRUCT@@A ; gObj
  0015b	bb b0 36 00 00	 mov	 ebx, 14000		; 000036b0H
  00160	81 c2 6c a7 40
	09		 add	 edx, 155232108		; 0940a76cH
$LL35@AnonsReed:

; 1274 : 		{
; 1275 : 			if (gObj[n].Connected >= PLAYER_PLAYING)

  00166	83 7a 98 03	 cmp	 DWORD PTR [edx-104], 3
  0016a	7c 60		 jl	 SHORT $LN34@AnonsReed

; 1276 : 			{
; 1277 : 				if (gObj[n].AccountID[0] == mGetAccaunt[0])

  0016c	8a 4d e8	 mov	 cl, BYTE PTR _mGetAccaunt$208107[ebp]
  0016f	38 0a		 cmp	 BYTE PTR [edx], cl
  00171	75 25		 jne	 SHORT $LN31@AnonsReed

; 1278 : 				{
; 1279 : 					if (!strcmp(gObj[n].AccountID, mGetAccaunt))

  00173	8d 75 e8	 lea	 esi, DWORD PTR _mGetAccaunt$208107[ebp]
  00176	8b c2		 mov	 eax, edx
$LL55@AnonsReed:
  00178	8a 08		 mov	 cl, BYTE PTR [eax]
  0017a	3a 0e		 cmp	 cl, BYTE PTR [esi]
  0017c	75 45		 jne	 SHORT $LN60@AnonsReed
  0017e	84 c9		 test	 cl, cl
  00180	74 12		 je	 SHORT $LN57@AnonsReed
  00182	8a 48 01	 mov	 cl, BYTE PTR [eax+1]
  00185	3a 4e 01	 cmp	 cl, BYTE PTR [esi+1]
  00188	75 39		 jne	 SHORT $LN60@AnonsReed
  0018a	83 c0 02	 add	 eax, 2
  0018d	83 c6 02	 add	 esi, 2
  00190	84 c9		 test	 cl, cl
  00192	75 e4		 jne	 SHORT $LL55@AnonsReed
$LN57@AnonsReed:
  00194	33 c0		 xor	 eax, eax
  00196	eb 30		 jmp	 SHORT $LN62@AnonsReed
$LN31@AnonsReed:

; 1280 : 					{
; 1281 : 						aIndex = n;
; 1282 : 						break;
; 1283 : 					}
; 1284 : 				}
; 1285 : 				else if(gObj[n].Name[0] == mGetAccaunt[0])

  00198	38 4a 0b	 cmp	 BYTE PTR [edx+11], cl
  0019b	8d 42 0b	 lea	 eax, DWORD PTR [edx+11]
  0019e	75 2c		 jne	 SHORT $LN34@AnonsReed

; 1286 : 				{
; 1287 : 					if (!strcmp(gObj[n].Name, mGetAccaunt))

  001a0	8d 75 e8	 lea	 esi, DWORD PTR _mGetAccaunt$208107[ebp]
$LL59@AnonsReed:
  001a3	8a 08		 mov	 cl, BYTE PTR [eax]
  001a5	3a 0e		 cmp	 cl, BYTE PTR [esi]
  001a7	75 1a		 jne	 SHORT $LN60@AnonsReed
  001a9	84 c9		 test	 cl, cl
  001ab	74 12		 je	 SHORT $LN61@AnonsReed
  001ad	8a 48 01	 mov	 cl, BYTE PTR [eax+1]
  001b0	3a 4e 01	 cmp	 cl, BYTE PTR [esi+1]
  001b3	75 0e		 jne	 SHORT $LN60@AnonsReed
  001b5	83 c0 02	 add	 eax, 2
  001b8	83 c6 02	 add	 esi, 2
  001bb	84 c9		 test	 cl, cl
  001bd	75 e4		 jne	 SHORT $LL59@AnonsReed
$LN61@AnonsReed:
  001bf	33 c0		 xor	 eax, eax
  001c1	eb 05		 jmp	 SHORT $LN62@AnonsReed
$LN60@AnonsReed:
  001c3	1b c0		 sbb	 eax, eax
  001c5	83 d8 ff	 sbb	 eax, -1
$LN62@AnonsReed:
  001c8	85 c0		 test	 eax, eax
  001ca	74 14		 je	 SHORT $LN63@AnonsReed
$LN34@AnonsReed:

; 1263 : 		{
; 1264 : 
; 1265 : 		}
; 1266 : 		else
; 1267 : 		{
; 1268 : 			continue;
; 1269 : 		}
; 1270 : 
; 1271 : 		int aIndex = -1;
; 1272 : 
; 1273 : 		for (int n = OBJ_STARTUSERINDZT; n<OBJMAX; n++)

  001cc	43		 inc	 ebx
  001cd	81 c2 50 2b 00
	00		 add	 edx, 11088		; 00002b50H
  001d3	81 fb 98 3a 00
	00		 cmp	 ebx, 15000		; 00003a98H
  001d9	7c 8b		 jl	 SHORT $LL35@AnonsReed

; 1286 : 				{
; 1287 : 					if (!strcmp(gObj[n].Name, mGetAccaunt))

  001db	e9 6f 05 00 00	 jmp	 $LN64@AnonsReed
$LN63@AnonsReed:

; 1288 : 					{
; 1289 : 						aIndex = n;
; 1290 : 						break;
; 1291 : 					}
; 1292 : 				}
; 1293 : 			}
; 1294 : 		}
; 1295 : 
; 1296 : 		if(aIndex == -1) continue;

  001e0	83 fb ff	 cmp	 ebx, -1
  001e3	0f 84 66 05 00
	00		 je	 $LN64@AnonsReed

; 1297 : 
; 1298 : 		CTime ct = StrToCTime(DataTime);

  001e9	8d 95 5c ff ff
	ff		 lea	 edx, DWORD PTR _DataTime$208109[ebp]
  001ef	52		 push	 edx
  001f0	8d 85 14 fd ff
	ff		 lea	 eax, DWORD PTR _ct$208130[ebp]
  001f6	50		 push	 eax
  001f7	e8 00 00 00 00	 call	 ?StrToCTime@@YA?AVCTime@ATL@@PBD@Z ; StrToCTime

; 1299 : 		DWORD tData = ct.GetTime();

  001fc	8b 85 14 fd ff
	ff		 mov	 eax, DWORD PTR _ct$208130[ebp]

; 1300 : 
; 1301 : 		LPOBJ lpObj = &gObj[aIndex];

  00202	8b f3		 mov	 esi, ebx
  00204	69 f6 50 2b 00
	00		 imul	 esi, 11088		; 00002b50H
  0020a	03 35 00 00 00
	00		 add	 esi, DWORD PTR ?gObj@@3PAUOBJECTSTRUCT@@A ; gObj
  00210	83 c4 08	 add	 esp, 8
  00213	89 85 3c fd ff
	ff		 mov	 DWORD PTR _tData$208132[ebp], eax

; 1302 : 
; 1303 : 
; 1304 : 		if(tData > lpObj->ATDate)

  00219	3b 86 40 2b 00
	00		 cmp	 eax, DWORD PTR [esi+11072]
  0021f	0f 86 2a 05 00
	00		 jbe	 $LN64@AnonsReed

; 1305 : 		{
; 1306 : 			if(mRewerd == 2)

  00225	83 bd 24 fd ff
	ff 02		 cmp	 DWORD PTR _mRewerd$208108[ebp], 2
  0022c	0f 85 60 02 00
	00		 jne	 $LN24@AnonsReed

; 1307 : 			{
; 1308 : 			//~~~~~~~~~~~~~~~~~~~~~~~~~~~~~~~~~~~~~~~~~~~~~~~~~
; 1309 : 				if (this->ANONS_SMSBonusItemActive)

  00232	83 bf 80 03 00
	00 00		 cmp	 DWORD PTR [edi+896], 0
  00239	0f 84 a4 00 00
	00		 je	 $LN23@AnonsReed

; 1310 : 				{
; 1311 : 					int Height = ItemAttribute[ITEMGET(this->ANONS_SMSBonusItemType, this->ANONS_SMSBonusItemIndex)].Height;

  0023f	8b 87 84 03 00
	00		 mov	 eax, DWORD PTR [edi+900]
  00245	c1 e0 09	 shl	 eax, 9
  00248	03 87 88 03 00
	00		 add	 eax, DWORD PTR [edi+904]
  0024e	6b c0 70	 imul	 eax, 112		; 00000070H
  00251	0f b6 88 24 00
	00 00		 movzx	 ecx, BYTE PTR ?ItemAttribute@@3PAUITEM_ATTRIBUTE@@A[eax+36]

; 1312 : 					int Width = ItemAttribute[ITEMGET(this->ANONS_SMSBonusItemType, this->ANONS_SMSBonusItemIndex)].Width;

  00258	0f b6 80 23 00
	00 00		 movzx	 eax, BYTE PTR ?ItemAttribute@@3PAUITEM_ATTRIBUTE@@A[eax+35]

; 1313 : 
; 1314 : 					if(!CheckInventoryEmptySpace(lpObj, Height, Width))

  0025f	50		 push	 eax
  00260	51		 push	 ecx
  00261	56		 push	 esi
  00262	e8 00 00 00 00	 call	 ?CheckInventoryEmptySpace@@YAHPAUOBJECTSTRUCT@@HH@Z ; CheckInventoryEmptySpace
  00267	83 c4 0c	 add	 esp, 12			; 0000000cH
  0026a	85 c0		 test	 eax, eax
  0026c	75 1a		 jne	 SHORT $LN22@AnonsReed

; 1315 : 					{
; 1316 : 						MessageChat(aIndex, "@[SMS ANONS] Need to make space in the inventory (%dx%d)", this->ANONS_SMSBonusWcoinC);

  0026e	8b 8f 70 03 00
	00		 mov	 ecx, DWORD PTR [edi+880]
  00274	51		 push	 ecx
  00275	68 00 00 00 00	 push	 OFFSET ??_C@_0DJ@ODIONAJ@?$EA?$FLSMS?5ANONS?$FN?5Need?5to?5make?5space?5@
  0027a	53		 push	 ebx
  0027b	e8 00 00 00 00	 call	 ?MessageChat@@YAXHPADZZ	; MessageChat
  00280	83 c4 0c	 add	 esp, 12			; 0000000cH

; 1317 : 						continue;

  00283	e9 c7 04 00 00	 jmp	 $LN64@AnonsReed
$LN22@AnonsReed:

; 1318 : 					}
; 1319 : 
; 1320 : 					ItemSerialCreateSend(aIndex, 235, 0, 0, ITEMGET(this->ANONS_SMSBonusItemType, this->ANONS_SMSBonusItemIndex), this->ANONS_SMSBonusItemLevel, 0, 0, 0, 0, aIndex, 0, 0);

  00288	8b 87 84 03 00
	00		 mov	 eax, DWORD PTR [edi+900]
  0028e	0f b6 97 8c 03
	00 00		 movzx	 edx, BYTE PTR [edi+908]
  00295	6a 00		 push	 0
  00297	6a 00		 push	 0
  00299	53		 push	 ebx
  0029a	6a 00		 push	 0
  0029c	6a 00		 push	 0
  0029e	6a 00		 push	 0
  002a0	6a 00		 push	 0
  002a2	52		 push	 edx
  002a3	c1 e0 09	 shl	 eax, 9
  002a6	03 87 88 03 00
	00		 add	 eax, DWORD PTR [edi+904]
  002ac	50		 push	 eax
  002ad	6a 00		 push	 0
  002af	6a 00		 push	 0
  002b1	68 eb 00 00 00	 push	 235			; 000000ebH
  002b6	53		 push	 ebx
  002b7	e8 00 00 00 00	 call	 ?ItemSerialCreateSend@@YAXHEEEHEEEEEHEE@Z ; ItemSerialCreateSend

; 1321 : 					MessageChat(aIndex, "@[SMS ANONS] Item Bonus: %s", ItemAttribute[ITEMGET(this->ANONS_SMSBonusItemType, this->ANONS_SMSBonusItemIndex)].Name);

  002bc	8b 8f 84 03 00
	00		 mov	 ecx, DWORD PTR [edi+900]
  002c2	c1 e1 09	 shl	 ecx, 9
  002c5	03 8f 88 03 00
	00		 add	 ecx, DWORD PTR [edi+904]
  002cb	6b c9 70	 imul	 ecx, 112		; 00000070H
  002ce	81 c1 00 00 00
	00		 add	 ecx, OFFSET ?ItemAttribute@@3PAUITEM_ATTRIBUTE@@A ; ItemAttribute
  002d4	51		 push	 ecx
  002d5	68 00 00 00 00	 push	 OFFSET ??_C@_0BM@GAAEDPNJ@?$EA?$FLSMS?5ANONS?$FN?5Item?5Bonus?3?5?$CFs?$AA@
  002da	53		 push	 ebx
  002db	e8 00 00 00 00	 call	 ?MessageChat@@YAXHPADZZ	; MessageChat
  002e0	83 c4 40	 add	 esp, 64			; 00000040H
$LN23@AnonsReed:

; 1322 : 				}
; 1323 : 
; 1324 : 				if (this->ANONS_SMSBonusWcoinC > 0)

  002e3	8b 87 70 03 00
	00		 mov	 eax, DWORD PTR [edi+880]
  002e9	89 85 44 fd ff
	ff		 mov	 DWORD PTR tv708[ebp], eax
  002ef	85 c0		 test	 eax, eax
  002f1	7e 32		 jle	 SHORT $LN21@AnonsReed

; 1325 : 				{
; 1326 : 					lpObj->GameShop.WCoinC += this->ANONS_SMSBonusWcoinC;

  002f3	db 85 44 fd ff
	ff		 fild	 DWORD PTR tv708[ebp]

; 1327 : 					gGameShop.GDSaveUserInfo(aIndex);

  002f9	53		 push	 ebx
  002fa	b9 00 00 00 00	 mov	 ecx, OFFSET ?gGameShop@@3VGameShop@@A ; gGameShop
  002ff	dc 86 00 23 00
	00		 fadd	 QWORD PTR [esi+8960]
  00305	dd 9e 00 23 00
	00		 fstp	 QWORD PTR [esi+8960]
  0030b	e8 00 00 00 00	 call	 ?GDSaveUserInfo@GameShop@@QAEXH@Z ; GameShop::GDSaveUserInfo

; 1328 : 					MessageChat(aIndex, "@[SMS ANONS] WcoinC Bonus: %d", this->ANONS_SMSBonusWcoinC);

  00310	8b 97 70 03 00
	00		 mov	 edx, DWORD PTR [edi+880]
  00316	52		 push	 edx
  00317	68 00 00 00 00	 push	 OFFSET ??_C@_0BO@PLJNKAAK@?$EA?$FLSMS?5ANONS?$FN?5WcoinC?5Bonus?3?5?$CFd?$AA@
  0031c	53		 push	 ebx
  0031d	e8 00 00 00 00	 call	 ?MessageChat@@YAXHPADZZ	; MessageChat
  00322	83 c4 0c	 add	 esp, 12			; 0000000cH
$LN21@AnonsReed:

; 1329 : 				}
; 1330 : 
; 1331 : 				if (this->ANONS_SMSBonusWcoinP > 0)

  00325	8b 87 74 03 00
	00		 mov	 eax, DWORD PTR [edi+884]
  0032b	89 85 44 fd ff
	ff		 mov	 DWORD PTR tv728[ebp], eax
  00331	85 c0		 test	 eax, eax
  00333	7e 32		 jle	 SHORT $LN20@AnonsReed

; 1332 : 				{
; 1333 : 					lpObj->GameShop.WCoinP += this->ANONS_SMSBonusWcoinP;

  00335	db 85 44 fd ff
	ff		 fild	 DWORD PTR tv728[ebp]

; 1334 : 					gGameShop.GDSaveUserInfo(aIndex);

  0033b	53		 push	 ebx
  0033c	b9 00 00 00 00	 mov	 ecx, OFFSET ?gGameShop@@3VGameShop@@A ; gGameShop
  00341	dc 86 f8 22 00
	00		 fadd	 QWORD PTR [esi+8952]
  00347	dd 9e f8 22 00
	00		 fstp	 QWORD PTR [esi+8952]
  0034d	e8 00 00 00 00	 call	 ?GDSaveUserInfo@GameShop@@QAEXH@Z ; GameShop::GDSaveUserInfo

; 1335 : 					MessageChat(aIndex, "@[SMS ANONS] WCoinP Bonus: %d", this->ANONS_SMSBonusWcoinP);

  00352	8b 87 74 03 00
	00		 mov	 eax, DWORD PTR [edi+884]
  00358	50		 push	 eax
  00359	68 00 00 00 00	 push	 OFFSET ??_C@_0BO@JHCEOEHL@?$EA?$FLSMS?5ANONS?$FN?5WCoinP?5Bonus?3?5?$CFd?$AA@
  0035e	53		 push	 ebx
  0035f	e8 00 00 00 00	 call	 ?MessageChat@@YAXHPADZZ	; MessageChat
  00364	83 c4 0c	 add	 esp, 12			; 0000000cH
$LN20@AnonsReed:

; 1336 : 				}
; 1337 : 
; 1338 : 				if (this->ANONS_SMSBonusWcoinG > 0)

  00367	8b 87 78 03 00
	00		 mov	 eax, DWORD PTR [edi+888]
  0036d	89 85 44 fd ff
	ff		 mov	 DWORD PTR tv737[ebp], eax
  00373	85 c0		 test	 eax, eax
  00375	7e 32		 jle	 SHORT $LN19@AnonsReed

; 1339 : 				{
; 1340 : 					lpObj->GameShop.GoblinPoint += this->ANONS_SMSBonusWcoinG;

  00377	db 85 44 fd ff
	ff		 fild	 DWORD PTR tv737[ebp]

; 1341 : 					gGameShop.GDSaveUserInfo(aIndex);

  0037d	53		 push	 ebx
  0037e	b9 00 00 00 00	 mov	 ecx, OFFSET ?gGameShop@@3VGameShop@@A ; gGameShop
  00383	dc 86 08 23 00
	00		 fadd	 QWORD PTR [esi+8968]
  00389	dd 9e 08 23 00
	00		 fstp	 QWORD PTR [esi+8968]
  0038f	e8 00 00 00 00	 call	 ?GDSaveUserInfo@GameShop@@QAEXH@Z ; GameShop::GDSaveUserInfo

; 1342 : 					MessageChat(aIndex, "@[SMS ANONS] Goblin Bonus: %d", this->ANONS_SMSBonusWcoinG);

  00394	8b 8f 78 03 00
	00		 mov	 ecx, DWORD PTR [edi+888]
  0039a	51		 push	 ecx
  0039b	68 00 00 00 00	 push	 OFFSET ??_C@_0BO@MIKOCKJA@?$EA?$FLSMS?5ANONS?$FN?5Goblin?5Bonus?3?5?$CFd?$AA@
  003a0	53		 push	 ebx
  003a1	e8 00 00 00 00	 call	 ?MessageChat@@YAXHPADZZ	; MessageChat
  003a6	83 c4 0c	 add	 esp, 12			; 0000000cH
$LN19@AnonsReed:

; 1343 : 				}
; 1344 : 
; 1345 : 				if (this->ANONS_SMSBonusZtCred > 0)

  003a9	83 bf 7c 03 00
	00 00		 cmp	 DWORD PTR [edi+892], 0
  003b0	7e 27		 jle	 SHORT $LN18@AnonsReed

; 1346 : 				{
; 1347 : 					lpObj->ZtCred += this->ANONS_SMSBonusZtCred;

  003b2	db 87 7c 03 00
	00		 fild	 DWORD PTR [edi+892]
  003b8	d8 86 a8 22 00
	00		 fadd	 DWORD PTR [esi+8872]
  003be	d9 9e a8 22 00
	00		 fstp	 DWORD PTR [esi+8872]

; 1348 : 					MessageChat(aIndex, "@[SMS ANONS] ZtCred Bonus: %d", this->ANONS_SMSBonusZtCred);

  003c4	8b 97 7c 03 00
	00		 mov	 edx, DWORD PTR [edi+892]
  003ca	52		 push	 edx
  003cb	68 00 00 00 00	 push	 OFFSET ??_C@_0BO@JNCHNINM@?$EA?$FLSMS?5ANONS?$FN?5ZtCred?5Bonus?3?5?$CFd?$AA@
  003d0	53		 push	 ebx
  003d1	e8 00 00 00 00	 call	 ?MessageChat@@YAXHPADZZ	; MessageChat
  003d6	83 c4 0c	 add	 esp, 12			; 0000000cH
$LN18@AnonsReed:

; 1349 : 				}
; 1350 : 
; 1351 : 				if (this->ANONS_SMSBonusChaosBank > 0)

  003d9	83 bf 90 03 00
	00 00		 cmp	 DWORD PTR [edi+912], 0
  003e0	7e 21		 jle	 SHORT $LN17@AnonsReed

; 1352 : 				{
; 1353 : 					lpObj->ChaosBank += this->ANONS_SMSBonusChaosBank;

  003e2	8b 87 90 03 00
	00		 mov	 eax, DWORD PTR [edi+912]
  003e8	01 86 e4 27 00
	00		 add	 DWORD PTR [esi+10212], eax

; 1354 : 					MessageChat(aIndex, "@[SMS ANONS] Chaos Bank Bonus: %d", this->ANONS_SMSBonusChaosBank);

  003ee	8b 8f 90 03 00
	00		 mov	 ecx, DWORD PTR [edi+912]
  003f4	51		 push	 ecx
  003f5	68 00 00 00 00	 push	 OFFSET ??_C@_0CC@GBHNPDKG@?$EA?$FLSMS?5ANONS?$FN?5Chaos?5Bank?5Bonus?3?5?$CF@
  003fa	53		 push	 ebx
  003fb	e8 00 00 00 00	 call	 ?MessageChat@@YAXHPADZZ	; MessageChat
  00400	83 c4 0c	 add	 esp, 12			; 0000000cH
$LN17@AnonsReed:

; 1355 : 				}
; 1356 : 
; 1357 : 				if (this->ANONS_SMSBonusBlessBank > 0)

  00403	83 bf 94 03 00
	00 00		 cmp	 DWORD PTR [edi+916], 0
  0040a	7e 21		 jle	 SHORT $LN16@AnonsReed

; 1358 : 				{
; 1359 : 					lpObj->BlessBank += this->ANONS_SMSBonusBlessBank;

  0040c	8b 97 94 03 00
	00		 mov	 edx, DWORD PTR [edi+916]
  00412	01 96 e8 27 00
	00		 add	 DWORD PTR [esi+10216], edx

; 1360 : 					MessageChat(aIndex, "@[SMS ANONS] Bless Bank Bonus: %d", this->ANONS_SMSBonusBlessBank);

  00418	8b 87 94 03 00
	00		 mov	 eax, DWORD PTR [edi+916]
  0041e	50		 push	 eax
  0041f	68 00 00 00 00	 push	 OFFSET ??_C@_0CC@GLHILDJB@?$EA?$FLSMS?5ANONS?$FN?5Bless?5Bank?5Bonus?3?5?$CF@
  00424	53		 push	 ebx
  00425	e8 00 00 00 00	 call	 ?MessageChat@@YAXHPADZZ	; MessageChat
  0042a	83 c4 0c	 add	 esp, 12			; 0000000cH
$LN16@AnonsReed:

; 1361 : 				}
; 1362 : 
; 1363 : 				if (this->ANONS_SMSBonusSoulBank > 0)

  0042d	83 bf 98 03 00
	00 00		 cmp	 DWORD PTR [edi+920], 0
  00434	7e 21		 jle	 SHORT $LN15@AnonsReed

; 1364 : 				{
; 1365 : 					lpObj->SoulBank += this->ANONS_SMSBonusSoulBank;

  00436	8b 8f 98 03 00
	00		 mov	 ecx, DWORD PTR [edi+920]
  0043c	01 8e ec 27 00
	00		 add	 DWORD PTR [esi+10220], ecx

; 1366 : 					MessageChat(aIndex, "@[SMS ANONS] Soul Bank Bonus: %d", this->ANONS_SMSBonusSoulBank);

  00442	8b 97 98 03 00
	00		 mov	 edx, DWORD PTR [edi+920]
  00448	52		 push	 edx
  00449	68 00 00 00 00	 push	 OFFSET ??_C@_0CB@CMEEGCGA@?$EA?$FLSMS?5ANONS?$FN?5Soul?5Bank?5Bonus?3?5?$CFd@
  0044e	53		 push	 ebx
  0044f	e8 00 00 00 00	 call	 ?MessageChat@@YAXHPADZZ	; MessageChat
  00454	83 c4 0c	 add	 esp, 12			; 0000000cH
$LN15@AnonsReed:

; 1367 : 				}
; 1368 : 
; 1369 : 				if (this->ANONS_SMSBonusLifeBank > 0)

  00457	83 bf 9c 03 00
	00 00		 cmp	 DWORD PTR [edi+924], 0
  0045e	7e 21		 jle	 SHORT $LN14@AnonsReed

; 1370 : 				{
; 1371 : 					lpObj->LifeBank += this->ANONS_SMSBonusLifeBank;

  00460	8b 87 9c 03 00
	00		 mov	 eax, DWORD PTR [edi+924]
  00466	01 86 f0 27 00
	00		 add	 DWORD PTR [esi+10224], eax

; 1372 : 					MessageChat(aIndex, "@[SMS ANONS] Life Bank Bonus: %d", this->ANONS_SMSBonusLifeBank);

  0046c	8b 8f 9c 03 00
	00		 mov	 ecx, DWORD PTR [edi+924]
  00472	51		 push	 ecx
  00473	68 00 00 00 00	 push	 OFFSET ??_C@_0CB@IIFCLHNA@?$EA?$FLSMS?5ANONS?$FN?5Life?5Bank?5Bonus?3?5?$CFd@
  00478	53		 push	 ebx
  00479	e8 00 00 00 00	 call	 ?MessageChat@@YAXHPADZZ	; MessageChat
  0047e	83 c4 0c	 add	 esp, 12			; 0000000cH
$LN14@AnonsReed:

; 1373 : 				}
; 1374 : 
; 1375 : 				// --> Buff Effect Custom
; 1376 : 				/*
; 1377 : 				if(g_ZtLicense.CheckUser(eZtUB::Gredy) || g_ZtLicense.CheckUser(eZtUB::GredyLocal) || g_ZtLicense.CheckUser(eZtUB::Gredy2))
; 1378 : 				{
; 1379 : 					lpObj->MT_BuffTime += this->ANONS_BuffTime;
; 1380 : 					gObjApplyBuffEffectDuration(lpObj, AT_ANONS_BUFF, 0, 0, 0, 0, this->ANONS_BuffTime);
; 1381 : 				}
; 1382 : 				*/
; 1383 : 				MessageChat(aIndex,"@[SMS ANONS] Date: %s",DataTime);

  00481	8d 95 5c ff ff
	ff		 lea	 edx, DWORD PTR _DataTime$208109[ebp]
  00487	52		 push	 edx
  00488	68 00 00 00 00	 push	 OFFSET ??_C@_0BG@MCJCLIPG@?$EA?$FLSMS?5ANONS?$FN?5Date?3?5?$CFs?$AA@

; 1384 : 			}
; 1385 : 			else

  0048d	e9 6e 02 00 00	 jmp	 $LN68@AnonsReed
$LN24@AnonsReed:

; 1386 : 			{
; 1387 : 			//~~~~~~~~~~~~~~~~~~~~~~~~~~~~~~~~~~~~~~~~~~~~~~~~~
; 1388 : 
; 1389 : 				if (this->ANONS_BonusItemActive)

  00492	83 bf 50 03 00
	00 00		 cmp	 DWORD PTR [edi+848], 0
  00499	0f 84 b7 00 00
	00		 je	 $LN12@AnonsReed

; 1390 : 				{
; 1391 : 					int Height = ItemAttribute[ITEMGET(this->ANONS_BonusItemType, this->ANONS_BonusItemIndex)].Height;

  0049f	8b 87 54 03 00
	00		 mov	 eax, DWORD PTR [edi+852]
  004a5	c1 e0 09	 shl	 eax, 9
  004a8	03 87 58 03 00
	00		 add	 eax, DWORD PTR [edi+856]
  004ae	6b c0 70	 imul	 eax, 112		; 00000070H
  004b1	0f b6 88 24 00
	00 00		 movzx	 ecx, BYTE PTR ?ItemAttribute@@3PAUITEM_ATTRIBUTE@@A[eax+36]

; 1392 : 					int Width = ItemAttribute[ITEMGET(this->ANONS_BonusItemType, this->ANONS_BonusItemIndex)].Width;

  004b8	0f b6 80 23 00
	00 00		 movzx	 eax, BYTE PTR ?ItemAttribute@@3PAUITEM_ATTRIBUTE@@A[eax+35]

; 1393 : 
; 1394 : 					if(!CheckInventoryEmptySpace(lpObj, Height, Width))

  004bf	50		 push	 eax
  004c0	51		 push	 ecx
  004c1	56		 push	 esi
  004c2	89 8d 40 fd ff
	ff		 mov	 DWORD PTR _Height$208161[ebp], ecx
  004c8	89 85 44 fd ff
	ff		 mov	 DWORD PTR _Width$208162[ebp], eax
  004ce	e8 00 00 00 00	 call	 ?CheckInventoryEmptySpace@@YAHPAUOBJECTSTRUCT@@HH@Z ; CheckInventoryEmptySpace
  004d3	83 c4 0c	 add	 esp, 12			; 0000000cH
  004d6	85 c0		 test	 eax, eax
  004d8	75 21		 jne	 SHORT $LN11@AnonsReed

; 1395 : 					{
; 1396 : 						MessageChat(aIndex,"@[ANONS] Need to make space in the inventory (%dx%d)",Height,Width);

  004da	8b 85 44 fd ff
	ff		 mov	 eax, DWORD PTR _Width$208162[ebp]
  004e0	8b 8d 40 fd ff
	ff		 mov	 ecx, DWORD PTR _Height$208161[ebp]
  004e6	50		 push	 eax
  004e7	51		 push	 ecx
  004e8	68 00 00 00 00	 push	 OFFSET ??_C@_0DF@KFGLKMEL@?$EA?$FLANONS?$FN?5Need?5to?5make?5space?5in?5t@
  004ed	53		 push	 ebx
  004ee	e8 00 00 00 00	 call	 ?MessageChat@@YAXHPADZZ	; MessageChat
  004f3	83 c4 10	 add	 esp, 16			; 00000010H

; 1397 : 						continue;

  004f6	e9 54 02 00 00	 jmp	 $LN64@AnonsReed
$LN11@AnonsReed:

; 1398 : 					}
; 1399 : 
; 1400 : 					ItemSerialCreateSend(aIndex, 235, 0, 0, ITEMGET(this->ANONS_BonusItemType, this->ANONS_BonusItemIndex), this->ANONS_BonusItemLevel, 0, 0, 0, 0, aIndex, 0, 0);

  004fb	8b 87 54 03 00
	00		 mov	 eax, DWORD PTR [edi+852]
  00501	0f b6 97 5c 03
	00 00		 movzx	 edx, BYTE PTR [edi+860]
  00508	6a 00		 push	 0
  0050a	6a 00		 push	 0
  0050c	53		 push	 ebx
  0050d	6a 00		 push	 0
  0050f	6a 00		 push	 0
  00511	6a 00		 push	 0
  00513	6a 00		 push	 0
  00515	52		 push	 edx
  00516	c1 e0 09	 shl	 eax, 9
  00519	03 87 58 03 00
	00		 add	 eax, DWORD PTR [edi+856]
  0051f	50		 push	 eax
  00520	6a 00		 push	 0
  00522	6a 00		 push	 0
  00524	68 eb 00 00 00	 push	 235			; 000000ebH
  00529	53		 push	 ebx
  0052a	e8 00 00 00 00	 call	 ?ItemSerialCreateSend@@YAXHEEEHEEEEEHEE@Z ; ItemSerialCreateSend

; 1401 : 					MessageChat(aIndex, "@[ANONS] Item Bonus: %s", ItemAttribute[ITEMGET(this->ANONS_SMSBonusItemType, this->ANONS_SMSBonusItemIndex)].Name);

  0052f	8b 8f 84 03 00
	00		 mov	 ecx, DWORD PTR [edi+900]
  00535	c1 e1 09	 shl	 ecx, 9
  00538	03 8f 88 03 00
	00		 add	 ecx, DWORD PTR [edi+904]
  0053e	6b c9 70	 imul	 ecx, 112		; 00000070H
  00541	81 c1 00 00 00
	00		 add	 ecx, OFFSET ?ItemAttribute@@3PAUITEM_ATTRIBUTE@@A ; ItemAttribute
  00547	51		 push	 ecx
  00548	68 00 00 00 00	 push	 OFFSET ??_C@_0BI@KBLAACKL@?$EA?$FLANONS?$FN?5Item?5Bonus?3?5?$CFs?$AA@
  0054d	53		 push	 ebx
  0054e	e8 00 00 00 00	 call	 ?MessageChat@@YAXHPADZZ	; MessageChat
  00553	83 c4 40	 add	 esp, 64			; 00000040H
$LN12@AnonsReed:

; 1402 : 				}
; 1403 : 
; 1404 : 				if (this->ANONS_BonusWcoinC > 0)

  00556	8b 87 40 03 00
	00		 mov	 eax, DWORD PTR [edi+832]
  0055c	89 85 40 fd ff
	ff		 mov	 DWORD PTR tv831[ebp], eax
  00562	85 c0		 test	 eax, eax
  00564	7e 32		 jle	 SHORT $LN10@AnonsReed

; 1405 : 				{
; 1406 : 					lpObj->GameShop.WCoinC += this->ANONS_BonusWcoinC;

  00566	db 85 40 fd ff
	ff		 fild	 DWORD PTR tv831[ebp]

; 1407 : 					gGameShop.GDSaveUserInfo(aIndex);

  0056c	53		 push	 ebx
  0056d	b9 00 00 00 00	 mov	 ecx, OFFSET ?gGameShop@@3VGameShop@@A ; gGameShop
  00572	dc 86 00 23 00
	00		 fadd	 QWORD PTR [esi+8960]
  00578	dd 9e 00 23 00
	00		 fstp	 QWORD PTR [esi+8960]
  0057e	e8 00 00 00 00	 call	 ?GDSaveUserInfo@GameShop@@QAEXH@Z ; GameShop::GDSaveUserInfo

; 1408 : 					MessageChat(aIndex, "@[ANONS] WcoinC Bonus: %d", this->ANONS_BonusWcoinC);

  00583	8b 97 40 03 00
	00		 mov	 edx, DWORD PTR [edi+832]
  00589	52		 push	 edx
  0058a	68 00 00 00 00	 push	 OFFSET ??_C@_0BK@LOPMDGNL@?$EA?$FLANONS?$FN?5WcoinC?5Bonus?3?5?$CFd?$AA@
  0058f	53		 push	 ebx
  00590	e8 00 00 00 00	 call	 ?MessageChat@@YAXHPADZZ	; MessageChat
  00595	83 c4 0c	 add	 esp, 12			; 0000000cH
$LN10@AnonsReed:

; 1409 : 				}
; 1410 : 
; 1411 : 				if (this->ANONS_BonusWcoinP > 0)

  00598	8b 87 44 03 00
	00		 mov	 eax, DWORD PTR [edi+836]
  0059e	89 85 40 fd ff
	ff		 mov	 DWORD PTR tv837[ebp], eax
  005a4	85 c0		 test	 eax, eax
  005a6	7e 32		 jle	 SHORT $LN9@AnonsReed

; 1412 : 				{
; 1413 : 					lpObj->GameShop.WCoinP += this->ANONS_BonusWcoinP;

  005a8	db 85 40 fd ff
	ff		 fild	 DWORD PTR tv837[ebp]

; 1414 : 					gGameShop.GDSaveUserInfo(aIndex);

  005ae	53		 push	 ebx
  005af	b9 00 00 00 00	 mov	 ecx, OFFSET ?gGameShop@@3VGameShop@@A ; gGameShop
  005b4	dc 86 f8 22 00
	00		 fadd	 QWORD PTR [esi+8952]
  005ba	dd 9e f8 22 00
	00		 fstp	 QWORD PTR [esi+8952]
  005c0	e8 00 00 00 00	 call	 ?GDSaveUserInfo@GameShop@@QAEXH@Z ; GameShop::GDSaveUserInfo

; 1415 : 					MessageChat(aIndex, "@[ANONS] WCoinP Bonus: %d", this->ANONS_BonusWcoinP);

  005c5	8b 87 44 03 00
	00		 mov	 eax, DWORD PTR [edi+836]
  005cb	50		 push	 eax
  005cc	68 00 00 00 00	 push	 OFFSET ??_C@_0BK@NCEFHCKK@?$EA?$FLANONS?$FN?5WCoinP?5Bonus?3?5?$CFd?$AA@
  005d1	53		 push	 ebx
  005d2	e8 00 00 00 00	 call	 ?MessageChat@@YAXHPADZZ	; MessageChat
  005d7	83 c4 0c	 add	 esp, 12			; 0000000cH
$LN9@AnonsReed:

; 1416 : 				}
; 1417 : 
; 1418 : 				if (this->ANONS_BonusWcoinG > 0)

  005da	8b 87 48 03 00
	00		 mov	 eax, DWORD PTR [edi+840]
  005e0	89 85 40 fd ff
	ff		 mov	 DWORD PTR tv843[ebp], eax
  005e6	85 c0		 test	 eax, eax
  005e8	7e 32		 jle	 SHORT $LN8@AnonsReed

; 1419 : 				{
; 1420 : 					lpObj->GameShop.GoblinPoint += this->ANONS_BonusWcoinG;

  005ea	db 85 40 fd ff
	ff		 fild	 DWORD PTR tv843[ebp]

; 1421 : 					gGameShop.GDSaveUserInfo(aIndex);

  005f0	53		 push	 ebx
  005f1	b9 00 00 00 00	 mov	 ecx, OFFSET ?gGameShop@@3VGameShop@@A ; gGameShop
  005f6	dc 86 08 23 00
	00		 fadd	 QWORD PTR [esi+8968]
  005fc	dd 9e 08 23 00
	00		 fstp	 QWORD PTR [esi+8968]
  00602	e8 00 00 00 00	 call	 ?GDSaveUserInfo@GameShop@@QAEXH@Z ; GameShop::GDSaveUserInfo

; 1422 : 					MessageChat(aIndex, "@[ANONS] Goblin Bonus: %d", this->ANONS_BonusWcoinG);

  00607	8b 8f 48 03 00
	00		 mov	 ecx, DWORD PTR [edi+840]
  0060d	51		 push	 ecx
  0060e	68 00 00 00 00	 push	 OFFSET ??_C@_0BK@INMPLMEB@?$EA?$FLANONS?$FN?5Goblin?5Bonus?3?5?$CFd?$AA@
  00613	53		 push	 ebx
  00614	e8 00 00 00 00	 call	 ?MessageChat@@YAXHPADZZ	; MessageChat
  00619	83 c4 0c	 add	 esp, 12			; 0000000cH
$LN8@AnonsReed:

; 1423 : 				}
; 1424 : 
; 1425 : 				if (this->ANONS_BonusZtCred > 0)

  0061c	83 bf 4c 03 00
	00 00		 cmp	 DWORD PTR [edi+844], 0
  00623	7e 27		 jle	 SHORT $LN7@AnonsReed

; 1426 : 				{
; 1427 : 					lpObj->ZtCred += this->ANONS_BonusZtCred;

  00625	db 87 4c 03 00
	00		 fild	 DWORD PTR [edi+844]
  0062b	d8 86 a8 22 00
	00		 fadd	 DWORD PTR [esi+8872]
  00631	d9 9e a8 22 00
	00		 fstp	 DWORD PTR [esi+8872]

; 1428 : 					MessageChat(aIndex, "@[ANONS] ZtCred Bonus: %d", this->ANONS_BonusZtCred);

  00637	8b 97 4c 03 00
	00		 mov	 edx, DWORD PTR [edi+844]
  0063d	52		 push	 edx
  0063e	68 00 00 00 00	 push	 OFFSET ??_C@_0BK@NIEGEOAN@?$EA?$FLANONS?$FN?5ZtCred?5Bonus?3?5?$CFd?$AA@
  00643	53		 push	 ebx
  00644	e8 00 00 00 00	 call	 ?MessageChat@@YAXHPADZZ	; MessageChat
  00649	83 c4 0c	 add	 esp, 12			; 0000000cH
$LN7@AnonsReed:

; 1429 : 				}
; 1430 : 
; 1431 : 				if (this->ANONS_BonusChaosBank > 0)

  0064c	83 bf 60 03 00
	00 00		 cmp	 DWORD PTR [edi+864], 0
  00653	7e 21		 jle	 SHORT $LN6@AnonsReed

; 1432 : 				{
; 1433 : 					lpObj->ChaosBank += this->ANONS_BonusChaosBank;

  00655	8b 87 60 03 00
	00		 mov	 eax, DWORD PTR [edi+864]
  0065b	01 86 e4 27 00
	00		 add	 DWORD PTR [esi+10212], eax

; 1434 : 					MessageChat(aIndex, "@[ANONS] Chaos Bank Bonus: %d", this->ANONS_BonusChaosBank);

  00661	8b 8f 60 03 00
	00		 mov	 ecx, DWORD PTR [edi+864]
  00667	51		 push	 ecx
  00668	68 00 00 00 00	 push	 OFFSET ??_C@_0BO@HMFLAGOB@?$EA?$FLANONS?$FN?5Chaos?5Bank?5Bonus?3?5?$CFd?$AA@
  0066d	53		 push	 ebx
  0066e	e8 00 00 00 00	 call	 ?MessageChat@@YAXHPADZZ	; MessageChat
  00673	83 c4 0c	 add	 esp, 12			; 0000000cH
$LN6@AnonsReed:

; 1435 : 				}
; 1436 : 
; 1437 : 				if (this->ANONS_BonusBlessBank > 0)

  00676	83 bf 64 03 00
	00 00		 cmp	 DWORD PTR [edi+868], 0
  0067d	7e 21		 jle	 SHORT $LN5@AnonsReed

; 1438 : 				{
; 1439 : 					lpObj->BlessBank += this->ANONS_BonusBlessBank;

  0067f	8b 97 64 03 00
	00		 mov	 edx, DWORD PTR [edi+868]
  00685	01 96 e8 27 00
	00		 add	 DWORD PTR [esi+10216], edx

; 1440 : 					MessageChat(aIndex, "@[ANONS] Bless Bank Bonus: %d", this->ANONS_BonusBlessBank);

  0068b	8b 87 64 03 00
	00		 mov	 eax, DWORD PTR [edi+868]
  00691	50		 push	 eax
  00692	68 00 00 00 00	 push	 OFFSET ??_C@_0BO@HGFOEGNG@?$EA?$FLANONS?$FN?5Bless?5Bank?5Bonus?3?5?$CFd?$AA@
  00697	53		 push	 ebx
  00698	e8 00 00 00 00	 call	 ?MessageChat@@YAXHPADZZ	; MessageChat
  0069d	83 c4 0c	 add	 esp, 12			; 0000000cH
$LN5@AnonsReed:

; 1441 : 				}
; 1442 : 
; 1443 : 				if (this->ANONS_BonusSoulBank > 0)

  006a0	83 bf 68 03 00
	00 00		 cmp	 DWORD PTR [edi+872], 0
  006a7	7e 21		 jle	 SHORT $LN4@AnonsReed

; 1444 : 				{
; 1445 : 					lpObj->SoulBank += this->ANONS_BonusSoulBank;

  006a9	8b 8f 68 03 00
	00		 mov	 ecx, DWORD PTR [edi+872]
  006af	01 8e ec 27 00
	00		 add	 DWORD PTR [esi+10220], ecx

; 1446 : 					MessageChat(aIndex, "@[ANONS] Soul Bank Bonus: %d", this->ANONS_BonusSoulBank);

  006b5	8b 97 68 03 00
	00		 mov	 edx, DWORD PTR [edi+872]
  006bb	52		 push	 edx
  006bc	68 00 00 00 00	 push	 OFFSET ??_C@_0BN@LNKBEBHA@?$EA?$FLANONS?$FN?5Soul?5Bank?5Bonus?3?5?$CFd?$AA@
  006c1	53		 push	 ebx
  006c2	e8 00 00 00 00	 call	 ?MessageChat@@YAXHPADZZ	; MessageChat
  006c7	83 c4 0c	 add	 esp, 12			; 0000000cH
$LN4@AnonsReed:

; 1447 : 				}
; 1448 : 
; 1449 : 				if (this->ANONS_BonusLifeBank > 0)

  006ca	83 bf 6c 03 00
	00 00		 cmp	 DWORD PTR [edi+876], 0
  006d1	7e 21		 jle	 SHORT $LN3@AnonsReed

; 1450 : 				{
; 1451 : 					lpObj->LifeBank += this->ANONS_BonusLifeBank;

  006d3	8b 87 6c 03 00
	00		 mov	 eax, DWORD PTR [edi+876]
  006d9	01 86 f0 27 00
	00		 add	 DWORD PTR [esi+10224], eax

; 1452 : 					MessageChat(aIndex, "@[ANONS] Life Bank Bonus: %d", this->ANONS_BonusLifeBank);

  006df	8b 8f 6c 03 00
	00		 mov	 ecx, DWORD PTR [edi+876]
  006e5	51		 push	 ecx
  006e6	68 00 00 00 00	 push	 OFFSET ??_C@_0BN@BJLHJEMA@?$EA?$FLANONS?$FN?5Life?5Bank?5Bonus?3?5?$CFd?$AA@
  006eb	53		 push	 ebx
  006ec	e8 00 00 00 00	 call	 ?MessageChat@@YAXHPADZZ	; MessageChat
  006f1	83 c4 0c	 add	 esp, 12			; 0000000cH
$LN3@AnonsReed:

; 1453 : 				}
; 1454 : 
; 1455 : 				// --> Buff Effect Custom
; 1456 : 				/*
; 1457 : 				if(g_ZtLicense.CheckUser(eZtUB::Gredy) || g_ZtLicense.CheckUser(eZtUB::GredyLocal) || g_ZtLicense.CheckUser(eZtUB::Gredy2))
; 1458 : 				{
; 1459 : 					lpObj->MT_BuffTime += this->ANONS_SMSBuffTime;
; 1460 : 					gObjApplyBuffEffectDuration(lpObj, AT_ANONS_BUFF, 0, 0, 0, 0, lpObj->MT_BuffTime);
; 1461 : 				}
; 1462 : 				*/
; 1463 : 				MessageChat(aIndex,"@[ANONS] Date: %s",DataTime);

  006f4	8d 95 5c ff ff
	ff		 lea	 edx, DWORD PTR _DataTime$208109[ebp]
  006fa	52		 push	 edx
  006fb	68 00 00 00 00	 push	 OFFSET ??_C@_0BC@DDKIFAOJ@?$EA?$FLANONS?$FN?5Date?3?5?$CFs?$AA@
$LN68@AnonsReed:
  00700	53		 push	 ebx
  00701	e8 00 00 00 00	 call	 ?MessageChat@@YAXHPADZZ	; MessageChat

; 1464 : 			}
; 1465 : 
; 1466 : 			lpObj->ATDate = tData;

  00706	8b 85 3c fd ff
	ff		 mov	 eax, DWORD PTR _tData$208132[ebp]
  0070c	83 c4 0c	 add	 esp, 12			; 0000000cH

; 1467 : 			
; 1468 : 			ZtUserDataSend(aIndex);

  0070f	53		 push	 ebx
  00710	89 86 40 2b 00
	00		 mov	 DWORD PTR [esi+11072], eax
  00716	e8 00 00 00 00	 call	 ?ZtUserDataSend@@YAXH@Z	; ZtUserDataSend

; 1469 : #ifndef FIX_DS_CRASH
; 1470 : 			GJSetCharacterInfo(lpObj, lpObj->m_Index, 0);
; 1471 : #endif
; 1472 : 			LogAdd("[ANONS][%s] Date: %s", lpObj->AccountID,DataTime);

  0071b	8d 8d 5c ff ff
	ff		 lea	 ecx, DWORD PTR _DataTime$208109[ebp]
  00721	51		 push	 ecx
  00722	83 c6 6c	 add	 esi, 108		; 0000006cH
  00725	56		 push	 esi
  00726	68 00 00 00 00	 push	 OFFSET ??_C@_0BF@NCLJNNGJ@?$FLANONS?$FN?$FL?$CFs?$FN?5Date?3?5?$CFs?$AA@
  0072b	ff 15 00 00 00
	00		 call	 DWORD PTR ?LogAdd@@3P6AXPADZZA ; LogAdd
  00731	83 c4 10	 add	 esp, 16			; 00000010H

; 1473 : 
; 1474 : #if(ANONS_LOG==TRUE)
; 1475 : 			char Buff2[512] = { 0 };
; 1476 : 			sprintf(Buff2, "%d %s %s %s %s %d", mId, mGetDate, mGetTime, mGetIp, mGetAccaunt, mRewerd);
; 1477 : 			g_MmotopLog.Output(Buff2);
; 1478 : #endif
; 1479 : #if(ENABLE_NSGAME_UPDATE)
; 1480 : 	#if(SYSTEM_ACHIEVEMENTS)
; 1481 : 				//g_Achievements.MootopVoteUp(lpObj->m_Index);
; 1482 : 				if(g_ZtLicense.CheckUser(NSGames))

  00734	6a 51		 push	 81			; 00000051H
  00736	b9 00 00 00 00	 mov	 ecx, OFFSET ?g_ZtLicense@@3VCZtLicense@@A ; g_ZtLicense
  0073b	e8 00 00 00 00	 call	 ?CheckUser@CZtLicense@@QAE_NH@Z ; CZtLicense::CheckUser
  00740	84 c0		 test	 al, al
  00742	74 0b		 je	 SHORT $LN64@AnonsReed

; 1483 : 				{
; 1484 : 					g_Achievements.ResetUp(aIndex);

  00744	53		 push	 ebx
  00745	b9 00 00 00 00	 mov	 ecx, OFFSET ?g_Achievements@@3VCAchievements@@A ; g_Achievements
  0074a	e8 00 00 00 00	 call	 ?ResetUp@CAchievements@@QAEXH@Z ; CAchievements::ResetUp
$LN64@AnonsReed:

; 1232 : 	{
; 1233 : #ifdef VOTE_DEBUG
; 1234 : 		LogAddC(2,"[VOTE]No FILE");
; 1235 : #endif
; 1236 : 		return;
; 1237 : 	}
; 1238 : 
; 1239 : 	char Buff[512];
; 1240 : 
; 1241 : 	int Count = 0;
; 1242 : 
; 1243 : 	while (!feof(file))

  0074f	8b b5 30 fd ff
	ff		 mov	 esi, DWORD PTR _file$[ebp]
  00755	56		 push	 esi
  00756	e8 00 00 00 00	 call	 _feof
  0075b	83 c4 04	 add	 esp, 4
  0075e	85 c0		 test	 eax, eax
  00760	0f 84 fa f8 ff
	ff		 je	 $LL39@AnonsReed
  00766	5b		 pop	 ebx
$LN38@AnonsReed:

; 1485 : 				}
; 1486 : 	#endif
; 1487 : #endif
; 1488 : 		}
; 1489 : 		
; 1490 : 	}
; 1491 : 
; 1492 : 	fclose(file);

  00767	56		 push	 esi
  00768	e8 00 00 00 00	 call	 _fclose
  0076d	83 c4 04	 add	 esp, 4

; 1493 : 	if (this->ANONS_DeleteVoteFile)

  00770	80 bf 71 02 00
	00 00		 cmp	 BYTE PTR [edi+625], 0
  00777	74 0d		 je	 SHORT $LN66@AnonsReed

; 1494 : 	{
; 1495 : 		remove(ANONS_FILE);

  00779	68 00 00 00 00	 push	 OFFSET ??_C@_0L@ICBDLIDP@anonse?4txt?$AA@
  0077e	e8 00 00 00 00	 call	 _remove
  00783	83 c4 04	 add	 esp, 4
$LN66@AnonsReed:
  00786	5e		 pop	 esi
$LN1@AnonsReed:

; 1496 : 	}
; 1497 : }

  00787	8b 4d fc	 mov	 ecx, DWORD PTR __$ArrayPad$[ebp]
  0078a	33 cd		 xor	 ecx, ebp
  0078c	5f		 pop	 edi
  0078d	e8 00 00 00 00	 call	 @__security_check_cookie@4
  00792	8b e5		 mov	 esp, ebp
  00794	5d		 pop	 ebp
  00795	c3		 ret	 0
?AnonsReed@Voter@@QAEXXZ ENDP				; Voter::AnonsReed
_TEXT	ENDS
PUBLIC	?is_open@?$basic_ofstream@DU?$char_traits@D@std@@@std@@QBE_NXZ ; std::basic_ofstream<char,std::char_traits<char> >::is_open
; Function compile flags: /Ogtp
; File d:\program files (x86)\microsoft visual studio 10.0\vc\include\fstream
;	COMDAT ?is_open@?$basic_ofstream@DU?$char_traits@D@std@@@std@@QBE_NXZ
_TEXT	SEGMENT
?is_open@?$basic_ofstream@DU?$char_traits@D@std@@@std@@QBE_NXZ PROC ; std::basic_ofstream<char,std::char_traits<char> >::is_open, COMDAT
; _this$ = ecx

; 1081 : 		return (_Filebuffer.is_open());

  00000	33 c0		 xor	 eax, eax
  00002	39 41 58	 cmp	 DWORD PTR [ecx+88], eax
  00005	0f 95 c0	 setne	 al

; 1082 : 		}

  00008	c3		 ret	 0
?is_open@?$basic_ofstream@DU?$char_traits@D@std@@@std@@QBE_NXZ ENDP ; std::basic_ofstream<char,std::char_traits<char> >::is_open
_TEXT	ENDS
PUBLIC	??_7?$basic_ios@DU?$char_traits@D@std@@@std@@6B@ ; std::basic_ios<char,std::char_traits<char> >::`vftable'
PUBLIC	??0?$basic_ios@DU?$char_traits@D@std@@@std@@IAE@XZ ; std::basic_ios<char,std::char_traits<char> >::basic_ios<char,std::char_traits<char> >
PUBLIC	??_R4?$basic_ios@DU?$char_traits@D@std@@@std@@6B@ ; std::basic_ios<char,std::char_traits<char> >::`RTTI Complete Object Locator'
EXTRN	??_E?$basic_ios@DU?$char_traits@D@std@@@std@@UAEPAXI@Z:PROC ; std::basic_ios<char,std::char_traits<char> >::`vector deleting destructor'
;	COMDAT ??_R4?$basic_ios@DU?$char_traits@D@std@@@std@@6B@
; File d:\program files (x86)\microsoft visual studio 10.0\vc\include\xiosbase
rdata$r	SEGMENT
??_R4?$basic_ios@DU?$char_traits@D@std@@@std@@6B@ DD 00H ; std::basic_ios<char,std::char_traits<char> >::`RTTI Complete Object Locator'
	DD	00H
	DD	00H
	DD	FLAT:??_R0?AV?$basic_ios@DU?$char_traits@D@std@@@std@@@8
	DD	FLAT:??_R3?$basic_ios@DU?$char_traits@D@std@@@std@@8
rdata$r	ENDS
;	COMDAT ??_7?$basic_ios@DU?$char_traits@D@std@@@std@@6B@
CONST	SEGMENT
??_7?$basic_ios@DU?$char_traits@D@std@@@std@@6B@ DD FLAT:??_R4?$basic_ios@DU?$char_traits@D@std@@@std@@6B@ ; std::basic_ios<char,std::char_traits<char> >::`vftable'
	DD	FLAT:??_E?$basic_ios@DU?$char_traits@D@std@@@std@@UAEPAXI@Z
; Function compile flags: /Ogtp
; File d:\program files (x86)\microsoft visual studio 10.0\vc\include\ios
CONST	ENDS
;	COMDAT ??0?$basic_ios@DU?$char_traits@D@std@@@std@@IAE@XZ
_TEXT	SEGMENT
??0?$basic_ios@DU?$char_traits@D@std@@@std@@IAE@XZ PROC	; std::basic_ios<char,std::char_traits<char> >::basic_ios<char,std::char_traits<char> >, COMDAT
; _this$ = ecx

; 167  : 	__CLR_OR_THIS_CALL basic_ios()

  00000	8b c1		 mov	 eax, ecx
  00002	c7 00 00 00 00
	00		 mov	 DWORD PTR [eax], OFFSET ??_7?$basic_ios@DU?$char_traits@D@std@@@std@@6B@

; 168  : 		{	// default constructor, do nothing
; 169  : 		}

  00008	c3		 ret	 0
??0?$basic_ios@DU?$char_traits@D@std@@@std@@IAE@XZ ENDP	; std::basic_ios<char,std::char_traits<char> >::basic_ios<char,std::char_traits<char> >
; Function compile flags: /Ogtp
_TEXT	ENDS
;	COMDAT ??_G?$basic_ios@DU?$char_traits@D@std@@@std@@UAEPAXI@Z
_TEXT	SEGMENT
___flags$ = 8						; size = 4
??_G?$basic_ios@DU?$char_traits@D@std@@@std@@UAEPAXI@Z PROC ; std::basic_ios<char,std::char_traits<char> >::`scalar deleting destructor', COMDAT
; _this$ = ecx
  00000	55		 push	 ebp
  00001	8b ec		 mov	 ebp, esp
  00003	56		 push	 esi
  00004	8b f1		 mov	 esi, ecx
  00006	56		 push	 esi
  00007	c7 06 00 00 00
	00		 mov	 DWORD PTR [esi], OFFSET ??_7ios_base@std@@6B@
  0000d	e8 00 00 00 00	 call	 ?_Ios_base_dtor@ios_base@std@@CAXPAV12@@Z ; std::ios_base::_Ios_base_dtor
  00012	83 c4 04	 add	 esp, 4
  00015	f6 45 08 01	 test	 BYTE PTR ___flags$[ebp], 1
  00019	74 09		 je	 SHORT $LN9@scalar@7
  0001b	56		 push	 esi
  0001c	e8 00 00 00 00	 call	 ??3@YAXPAX@Z		; operator delete
  00021	83 c4 04	 add	 esp, 4
$LN9@scalar@7:
  00024	8b c6		 mov	 eax, esi
  00026	5e		 pop	 esi
  00027	5d		 pop	 ebp
  00028	c2 04 00	 ret	 4
??_G?$basic_ios@DU?$char_traits@D@std@@@std@@UAEPAXI@Z ENDP ; std::basic_ios<char,std::char_traits<char> >::`scalar deleting destructor'
_TEXT	ENDS
PUBLIC	??D?$_String_iterator@DU?$char_traits@D@std@@V?$allocator@D@2@@std@@QBEAADXZ ; std::_String_iterator<char,std::char_traits<char>,std::allocator<char> >::operator*
; Function compile flags: /Ogtp
; File d:\program files (x86)\microsoft visual studio 10.0\vc\include\xstring
;	COMDAT ??D?$_String_iterator@DU?$char_traits@D@std@@V?$allocator@D@2@@std@@QBEAADXZ
_TEXT	SEGMENT
??D?$_String_iterator@DU?$char_traits@D@std@@V?$allocator@D@2@@std@@QBEAADXZ PROC ; std::_String_iterator<char,std::char_traits<char>,std::allocator<char> >::operator*, COMDAT
; _this$ = ecx

; 343  : 		return ((reference)**(_Mybase *)this);

  00000	8b 01		 mov	 eax, DWORD PTR [ecx]

; 344  : 		}

  00002	c3		 ret	 0
??D?$_String_iterator@DU?$char_traits@D@std@@V?$allocator@D@2@@std@@QBEAADXZ ENDP ; std::_String_iterator<char,std::char_traits<char>,std::allocator<char> >::operator*
_TEXT	ENDS
PUBLIC	?_Reset_back@?$basic_filebuf@DU?$char_traits@D@std@@@std@@AAEXXZ ; std::basic_filebuf<char,std::char_traits<char> >::_Reset_back
; Function compile flags: /Ogtp
; File d:\program files (x86)\microsoft visual studio 10.0\vc\include\fstream
;	COMDAT ?_Reset_back@?$basic_filebuf@DU?$char_traits@D@std@@@std@@AAEXXZ
_TEXT	SEGMENT
?_Reset_back@?$basic_filebuf@DU?$char_traits@D@std@@@std@@AAEXXZ PROC ; std::basic_filebuf<char,std::char_traits<char> >::_Reset_back, COMDAT
; _this$ = ecx

; 641  : 		if (_Mysb::eback() == &_Mychar)

  00000	8b 51 10	 mov	 edx, DWORD PTR [ecx+16]
  00003	8d 41 48	 lea	 eax, DWORD PTR [ecx+72]
  00006	39 02		 cmp	 DWORD PTR [edx], eax
  00008	75 16		 jne	 SHORT $LN6@Reset_back

; 642  : 			_Mysb::setg(_Set_eback, _Set_egptr, _Set_egptr);

  0000a	8b 41 40	 mov	 eax, DWORD PTR [ecx+64]
  0000d	56		 push	 esi
  0000e	8b 71 3c	 mov	 esi, DWORD PTR [ecx+60]
  00011	89 32		 mov	 DWORD PTR [edx], esi
  00013	8b 51 20	 mov	 edx, DWORD PTR [ecx+32]
  00016	89 02		 mov	 DWORD PTR [edx], eax
  00018	8b 49 30	 mov	 ecx, DWORD PTR [ecx+48]
  0001b	2b c0		 sub	 eax, eax
  0001d	89 01		 mov	 DWORD PTR [ecx], eax
  0001f	5e		 pop	 esi
$LN6@Reset_back:

; 643  : 		}

  00020	c3		 ret	 0
?_Reset_back@?$basic_filebuf@DU?$char_traits@D@std@@@std@@AAEXXZ ENDP ; std::basic_filebuf<char,std::char_traits<char> >::_Reset_back
_TEXT	ENDS
PUBLIC	?getloc@?$basic_streambuf@DU?$char_traits@D@std@@@std@@QBE?AVlocale@2@XZ ; std::basic_streambuf<char,std::char_traits<char> >::getloc
; Function compile flags: /Ogtp
; File d:\program files (x86)\microsoft visual studio 10.0\vc\include\streambuf
;	COMDAT ?getloc@?$basic_streambuf@DU?$char_traits@D@std@@@std@@QBE?AVlocale@2@XZ
_TEXT	SEGMENT
$T209993 = -4						; size = 4
__Lock$210006 = 8					; size = 4
___$ReturnUdt$ = 8					; size = 4
?getloc@?$basic_streambuf@DU?$char_traits@D@std@@@std@@QBE?AVlocale@2@XZ PROC ; std::basic_streambuf<char,std::char_traits<char> >::getloc, COMDAT
; _this$ = ecx

; 129  : 		{	// get locale

  00000	55		 push	 ebp
  00001	8b ec		 mov	 ebp, esp
  00003	51		 push	 ecx

; 130  : 		return (*_Plocale);

  00004	8b 41 38	 mov	 eax, DWORD PTR [ecx+56]
  00007	56		 push	 esi
  00008	8b 30		 mov	 esi, DWORD PTR [eax]
  0000a	57		 push	 edi
  0000b	8b 7d 08	 mov	 edi, DWORD PTR ___$ReturnUdt$[ebp]
  0000e	6a 00		 push	 0
  00010	8d 4d 08	 lea	 ecx, DWORD PTR __Lock$210006[ebp]
  00013	c7 45 fc 00 00
	00 00		 mov	 DWORD PTR $T209993[ebp], 0
  0001a	89 37		 mov	 DWORD PTR [edi], esi
  0001c	e8 00 00 00 00	 call	 ??0_Lockit@std@@QAE@H@Z	; std::_Lockit::_Lockit
  00021	8b 46 04	 mov	 eax, DWORD PTR [esi+4]
  00024	83 f8 ff	 cmp	 eax, -1
  00027	73 04		 jae	 SHORT $LN7@getloc@2
  00029	40		 inc	 eax
  0002a	89 46 04	 mov	 DWORD PTR [esi+4], eax
$LN7@getloc@2:
  0002d	8d 4d 08	 lea	 ecx, DWORD PTR __Lock$210006[ebp]
  00030	e8 00 00 00 00	 call	 ??1_Lockit@std@@QAE@XZ	; std::_Lockit::~_Lockit
  00035	8b c7		 mov	 eax, edi
  00037	5f		 pop	 edi
  00038	5e		 pop	 esi

; 131  : 		}

  00039	8b e5		 mov	 esp, ebp
  0003b	5d		 pop	 ebp
  0003c	c2 04 00	 ret	 4
?getloc@?$basic_streambuf@DU?$char_traits@D@std@@@std@@QBE?AVlocale@2@XZ ENDP ; std::basic_streambuf<char,std::char_traits<char> >::getloc
_TEXT	ENDS
PUBLIC	?_Init@?$basic_streambuf@DU?$char_traits@D@std@@@std@@IAEXXZ ; std::basic_streambuf<char,std::char_traits<char> >::_Init
; Function compile flags: /Ogtp
;	COMDAT ?_Init@?$basic_streambuf@DU?$char_traits@D@std@@@std@@IAEXXZ
_TEXT	SEGMENT
?_Init@?$basic_streambuf@DU?$char_traits@D@std@@@std@@IAEXXZ PROC ; std::basic_streambuf<char,std::char_traits<char> >::_Init, COMDAT
; _this$ = ecx

; 315  : 		_IGfirst = &_Gfirst;
; 316  : 		_IPfirst = &_Pfirst;
; 317  : 		_IGnext = &_Gnext;

  00000	8d 51 18	 lea	 edx, DWORD PTR [ecx+24]
  00003	89 51 20	 mov	 DWORD PTR [ecx+32], edx

; 318  : 		_IPnext = &_Pnext;

  00006	8d 51 1c	 lea	 edx, DWORD PTR [ecx+28]
  00009	89 51 24	 mov	 DWORD PTR [ecx+36], edx
  0000c	8d 41 08	 lea	 eax, DWORD PTR [ecx+8]
  0000f	89 41 10	 mov	 DWORD PTR [ecx+16], eax

; 319  : 		_IGcount = &_Gcount;

  00012	8d 51 28	 lea	 edx, DWORD PTR [ecx+40]
  00015	89 51 30	 mov	 DWORD PTR [ecx+48], edx
  00018	8d 41 0c	 lea	 eax, DWORD PTR [ecx+12]
  0001b	89 41 14	 mov	 DWORD PTR [ecx+20], eax

; 320  : 		_IPcount = &_Pcount;

  0001e	8d 51 2c	 lea	 edx, DWORD PTR [ecx+44]
  00021	89 51 34	 mov	 DWORD PTR [ecx+52], edx

; 321  : 		setp(0, 0);

  00024	c7 00 00 00 00
	00		 mov	 DWORD PTR [eax], 0
  0002a	8b 41 24	 mov	 eax, DWORD PTR [ecx+36]
  0002d	c7 00 00 00 00
	00		 mov	 DWORD PTR [eax], 0
  00033	8b 51 34	 mov	 edx, DWORD PTR [ecx+52]
  00036	c7 02 00 00 00
	00		 mov	 DWORD PTR [edx], 0

; 322  : 		setg(0, 0, 0);

  0003c	8b 41 10	 mov	 eax, DWORD PTR [ecx+16]
  0003f	c7 00 00 00 00
	00		 mov	 DWORD PTR [eax], 0
  00045	8b 51 20	 mov	 edx, DWORD PTR [ecx+32]
  00048	c7 02 00 00 00
	00		 mov	 DWORD PTR [edx], 0
  0004e	8b 41 30	 mov	 eax, DWORD PTR [ecx+48]
  00051	c7 00 00 00 00
	00		 mov	 DWORD PTR [eax], 0

; 323  : 		}

  00057	c3		 ret	 0
?_Init@?$basic_streambuf@DU?$char_traits@D@std@@@std@@IAEXXZ ENDP ; std::basic_streambuf<char,std::char_traits<char> >::_Init
_TEXT	ENDS
PUBLIC	??_7?$codecvt@DDH@std@@6B@			; std::codecvt<char,char,int>::`vftable'
PUBLIC	??0?$codecvt@DDH@std@@QAE@ABV_Locinfo@1@I@Z	; std::codecvt<char,char,int>::codecvt<char,char,int>
PUBLIC	??_R4?$codecvt@DDH@std@@6B@			; std::codecvt<char,char,int>::`RTTI Complete Object Locator'
PUBLIC	??_R0?AV?$codecvt@DDH@std@@@8			; std::codecvt<char,char,int> `RTTI Type Descriptor'
PUBLIC	??_R3?$codecvt@DDH@std@@8			; std::codecvt<char,char,int>::`RTTI Class Hierarchy Descriptor'
PUBLIC	??_R2?$codecvt@DDH@std@@8			; std::codecvt<char,char,int>::`RTTI Base Class Array'
PUBLIC	??_R1A@?0A@EA@?$codecvt@DDH@std@@8		; std::codecvt<char,char,int>::`RTTI Base Class Descriptor at (0,-1,0,64)'
PUBLIC	?do_in@?$codecvt@DDH@std@@MBEHAAHPBD1AAPBDPAD3AAPAD@Z ; std::codecvt<char,char,int>::do_in
PUBLIC	?do_out@?$codecvt@DDH@std@@MBEHAAHPBD1AAPBDPAD3AAPAD@Z ; std::codecvt<char,char,int>::do_out
PUBLIC	?do_unshift@?$codecvt@DDH@std@@MBEHAAHPAD1AAPAD@Z ; std::codecvt<char,char,int>::do_unshift
PUBLIC	?do_length@?$codecvt@DDH@std@@MBEHABHPBD1I@Z	; std::codecvt<char,char,int>::do_length
EXTRN	??_E?$codecvt@DDH@std@@MAEPAXI@Z:PROC		; std::codecvt<char,char,int>::`vector deleting destructor'
;	COMDAT ??_R1A@?0A@EA@?$codecvt@DDH@std@@8
; File d:\program files (x86)\microsoft visual studio 10.0\vc\include\xlocale
rdata$r	SEGMENT
??_R1A@?0A@EA@?$codecvt@DDH@std@@8 DD FLAT:??_R0?AV?$codecvt@DDH@std@@@8 ; std::codecvt<char,char,int>::`RTTI Base Class Descriptor at (0,-1,0,64)'
	DD	02H
	DD	00H
	DD	0ffffffffH
	DD	00H
	DD	040H
	DD	FLAT:??_R3?$codecvt@DDH@std@@8
rdata$r	ENDS
;	COMDAT ??_R2?$codecvt@DDH@std@@8
rdata$r	SEGMENT
??_R2?$codecvt@DDH@std@@8 DD FLAT:??_R1A@?0A@EA@?$codecvt@DDH@std@@8 ; std::codecvt<char,char,int>::`RTTI Base Class Array'
	DD	FLAT:??_R1A@?0A@EA@codecvt_base@std@@8
	DD	FLAT:??_R1A@?0A@EA@facet@locale@std@@8
rdata$r	ENDS
;	COMDAT ??_R3?$codecvt@DDH@std@@8
rdata$r	SEGMENT
??_R3?$codecvt@DDH@std@@8 DD 00H			; std::codecvt<char,char,int>::`RTTI Class Hierarchy Descriptor'
	DD	00H
	DD	03H
	DD	FLAT:??_R2?$codecvt@DDH@std@@8
rdata$r	ENDS
;	COMDAT ??_R0?AV?$codecvt@DDH@std@@@8
_DATA	SEGMENT
??_R0?AV?$codecvt@DDH@std@@@8 DD FLAT:??_7type_info@@6B@ ; std::codecvt<char,char,int> `RTTI Type Descriptor'
	DD	00H
	DB	'.?AV?$codecvt@DDH@std@@', 00H
_DATA	ENDS
;	COMDAT ??_R4?$codecvt@DDH@std@@6B@
rdata$r	SEGMENT
??_R4?$codecvt@DDH@std@@6B@ DD 00H			; std::codecvt<char,char,int>::`RTTI Complete Object Locator'
	DD	00H
	DD	00H
	DD	FLAT:??_R0?AV?$codecvt@DDH@std@@@8
	DD	FLAT:??_R3?$codecvt@DDH@std@@8
rdata$r	ENDS
;	COMDAT ??_7?$codecvt@DDH@std@@6B@
CONST	SEGMENT
??_7?$codecvt@DDH@std@@6B@ DD FLAT:??_R4?$codecvt@DDH@std@@6B@ ; std::codecvt<char,char,int>::`vftable'
	DD	FLAT:??_E?$codecvt@DDH@std@@MAEPAXI@Z
	DD	FLAT:?do_always_noconv@codecvt_base@std@@MBE_NXZ
	DD	FLAT:?do_max_length@codecvt_base@std@@MBEHXZ
	DD	FLAT:?do_encoding@codecvt_base@std@@MBEHXZ
	DD	FLAT:?do_in@?$codecvt@DDH@std@@MBEHAAHPBD1AAPBDPAD3AAPAD@Z
	DD	FLAT:?do_out@?$codecvt@DDH@std@@MBEHAAHPBD1AAPBDPAD3AAPAD@Z
	DD	FLAT:?do_unshift@?$codecvt@DDH@std@@MBEHAAHPAD1AAPAD@Z
	DD	FLAT:?do_length@?$codecvt@DDH@std@@MBEHABHPBD1I@Z
; Function compile flags: /Ogtp
CONST	ENDS
;	COMDAT ??0?$codecvt@DDH@std@@QAE@ABV_Locinfo@1@I@Z
_TEXT	SEGMENT
__Lobj$ = 8						; size = 4
__Refs$ = 12						; size = 4
??0?$codecvt@DDH@std@@QAE@ABV_Locinfo@1@I@Z PROC	; std::codecvt<char,char,int>::codecvt<char,char,int>, COMDAT
; _this$ = ecx

; 843  : 		{	// construct from specified locale

  00000	55		 push	 ebp
  00001	8b ec		 mov	 ebp, esp
  00003	8b c1		 mov	 eax, ecx
  00005	8b 4d 0c	 mov	 ecx, DWORD PTR __Refs$[ebp]
  00008	89 48 04	 mov	 DWORD PTR [eax+4], ecx
  0000b	c7 00 00 00 00
	00		 mov	 DWORD PTR [eax], OFFSET ??_7?$codecvt@DDH@std@@6B@

; 844  : 		_Init(_Lobj);
; 845  : 		}

  00011	5d		 pop	 ebp
  00012	c2 08 00	 ret	 8
??0?$codecvt@DDH@std@@QAE@ABV_Locinfo@1@I@Z ENDP	; std::codecvt<char,char,int>::codecvt<char,char,int>
; Function compile flags: /Ogtp
_TEXT	ENDS
;	COMDAT ?do_in@?$codecvt@DDH@std@@MBEHAAHPBD1AAPBDPAD3AAPAD@Z
_TEXT	SEGMENT
___formal$ = 8						; size = 4
__First1$ = 12						; size = 4
___formal$ = 16						; size = 4
__Mid1$ = 20						; size = 4
__First2$ = 24						; size = 4
___formal$ = 28						; size = 4
__Mid2$ = 32						; size = 4
?do_in@?$codecvt@DDH@std@@MBEHAAHPBD1AAPBDPAD3AAPAD@Z PROC ; std::codecvt<char,char,int>::do_in, COMDAT
; _this$ = ecx

; 868  : 		{	// convert bytes [_First1, _Last1) to [_First2, _Last)

  00000	55		 push	 ebp
  00001	8b ec		 mov	 ebp, esp

; 869  : 		_Mid1 = _First1, _Mid2 = _First2;

  00003	8b 45 14	 mov	 eax, DWORD PTR __Mid1$[ebp]
  00006	8b 4d 0c	 mov	 ecx, DWORD PTR __First1$[ebp]
  00009	8b 55 20	 mov	 edx, DWORD PTR __Mid2$[ebp]
  0000c	89 08		 mov	 DWORD PTR [eax], ecx
  0000e	8b 45 18	 mov	 eax, DWORD PTR __First2$[ebp]
  00011	89 02		 mov	 DWORD PTR [edx], eax

; 870  : 		return (noconv);	// convert nothing

  00013	b8 03 00 00 00	 mov	 eax, 3

; 871  : 		}

  00018	5d		 pop	 ebp
  00019	c2 1c 00	 ret	 28			; 0000001cH
?do_in@?$codecvt@DDH@std@@MBEHAAHPBD1AAPBDPAD3AAPAD@Z ENDP ; std::codecvt<char,char,int>::do_in
; Function compile flags: /Ogtp
_TEXT	ENDS
;	COMDAT ?do_out@?$codecvt@DDH@std@@MBEHAAHPBD1AAPBDPAD3AAPAD@Z
_TEXT	SEGMENT
___formal$ = 8						; size = 4
__First1$ = 12						; size = 4
___formal$ = 16						; size = 4
__Mid1$ = 20						; size = 4
__First2$ = 24						; size = 4
___formal$ = 28						; size = 4
__Mid2$ = 32						; size = 4
?do_out@?$codecvt@DDH@std@@MBEHAAHPBD1AAPBDPAD3AAPAD@Z PROC ; std::codecvt<char,char,int>::do_out, COMDAT
; _this$ = ecx

; 876  : 		{	// convert [_First1, _Last1) to bytes [_First2, _Last)

  00000	55		 push	 ebp
  00001	8b ec		 mov	 ebp, esp

; 877  : 		_Mid1 = _First1, _Mid2 = _First2;

  00003	8b 45 14	 mov	 eax, DWORD PTR __Mid1$[ebp]
  00006	8b 4d 0c	 mov	 ecx, DWORD PTR __First1$[ebp]
  00009	8b 55 20	 mov	 edx, DWORD PTR __Mid2$[ebp]
  0000c	89 08		 mov	 DWORD PTR [eax], ecx
  0000e	8b 45 18	 mov	 eax, DWORD PTR __First2$[ebp]
  00011	89 02		 mov	 DWORD PTR [edx], eax

; 878  : 		return (noconv);	// convert nothing

  00013	b8 03 00 00 00	 mov	 eax, 3

; 879  : 		}

  00018	5d		 pop	 ebp
  00019	c2 1c 00	 ret	 28			; 0000001cH
?do_out@?$codecvt@DDH@std@@MBEHAAHPBD1AAPBDPAD3AAPAD@Z ENDP ; std::codecvt<char,char,int>::do_out
; Function compile flags: /Ogtp
_TEXT	ENDS
;	COMDAT ?do_unshift@?$codecvt@DDH@std@@MBEHAAHPAD1AAPAD@Z
_TEXT	SEGMENT
___formal$ = 8						; size = 4
__First2$ = 12						; size = 4
___formal$ = 16						; size = 4
__Mid2$ = 20						; size = 4
?do_unshift@?$codecvt@DDH@std@@MBEHAAHPAD1AAPAD@Z PROC	; std::codecvt<char,char,int>::do_unshift, COMDAT
; _this$ = ecx

; 883  : 		{	// generate bytes to return to default shift state

  00000	55		 push	 ebp
  00001	8b ec		 mov	 ebp, esp

; 884  : 		_Mid2 = _First2;

  00003	8b 45 14	 mov	 eax, DWORD PTR __Mid2$[ebp]
  00006	8b 4d 0c	 mov	 ecx, DWORD PTR __First2$[ebp]
  00009	89 08		 mov	 DWORD PTR [eax], ecx

; 885  : 		return (noconv);	// convert nothing

  0000b	b8 03 00 00 00	 mov	 eax, 3

; 886  : 		}

  00010	5d		 pop	 ebp
  00011	c2 10 00	 ret	 16			; 00000010H
?do_unshift@?$codecvt@DDH@std@@MBEHAAHPAD1AAPAD@Z ENDP	; std::codecvt<char,char,int>::do_unshift
; Function compile flags: /Ogtp
_TEXT	ENDS
;	COMDAT ?do_length@?$codecvt@DDH@std@@MBEHABHPBD1I@Z
_TEXT	SEGMENT
___formal$ = 8						; size = 4
__First1$ = 12						; size = 4
__Last1$ = 16						; size = 4
__Count$ = 20						; size = 4
?do_length@?$codecvt@DDH@std@@MBEHABHPBD1I@Z PROC	; std::codecvt<char,char,int>::do_length, COMDAT
; _this$ = ecx

; 890  : 		{	// return min(_Count, converted length of bytes [_First1, _Last1))

  00000	55		 push	 ebp
  00001	8b ec		 mov	 ebp, esp

; 891  : 		return ((int)(_Count < (size_t)(_Last1 - _First1)
; 892  : 			? _Count : _Last1 - _First1));	// assume 1-to-1 conversion

  00003	8b 45 10	 mov	 eax, DWORD PTR __Last1$[ebp]
  00006	2b 45 0c	 sub	 eax, DWORD PTR __First1$[ebp]
  00009	8b 4d 14	 mov	 ecx, DWORD PTR __Count$[ebp]
  0000c	3b c8		 cmp	 ecx, eax
  0000e	73 02		 jae	 SHORT $LN4@do_length
  00010	8b c1		 mov	 eax, ecx
$LN4@do_length:

; 893  : 		}

  00012	5d		 pop	 ebp
  00013	c2 10 00	 ret	 16			; 00000010H
?do_length@?$codecvt@DDH@std@@MBEHABHPBD1I@Z ENDP	; std::codecvt<char,char,int>::do_length
_TEXT	ENDS
PUBLIC	??1?$codecvt@DDH@std@@MAE@XZ			; std::codecvt<char,char,int>::~codecvt<char,char,int>
; Function compile flags: /Ogtp
;	COMDAT ??1?$codecvt@DDH@std@@MAE@XZ
_TEXT	SEGMENT
??1?$codecvt@DDH@std@@MAE@XZ PROC			; std::codecvt<char,char,int>::~codecvt<char,char,int>, COMDAT
; _this$ = ecx

; 859  : 		}

  00000	c7 01 00 00 00
	00		 mov	 DWORD PTR [ecx], OFFSET ??_7facet@locale@std@@6B@
  00006	c3		 ret	 0
??1?$codecvt@DDH@std@@MAE@XZ ENDP			; std::codecvt<char,char,int>::~codecvt<char,char,int>
; Function compile flags: /Ogtp
_TEXT	ENDS
;	COMDAT ??_G?$codecvt@DDH@std@@MAEPAXI@Z
_TEXT	SEGMENT
___flags$ = 8						; size = 4
??_G?$codecvt@DDH@std@@MAEPAXI@Z PROC			; std::codecvt<char,char,int>::`scalar deleting destructor', COMDAT
; _this$ = ecx
  00000	55		 push	 ebp
  00001	8b ec		 mov	 ebp, esp
  00003	f6 45 08 01	 test	 BYTE PTR ___flags$[ebp], 1
  00007	56		 push	 esi
  00008	8b f1		 mov	 esi, ecx
  0000a	c7 06 00 00 00
	00		 mov	 DWORD PTR [esi], OFFSET ??_7facet@locale@std@@6B@
  00010	74 09		 je	 SHORT $LN10@scalar@8
  00012	56		 push	 esi
  00013	e8 00 00 00 00	 call	 ??3@YAXPAX@Z		; operator delete
  00018	83 c4 04	 add	 esp, 4
$LN10@scalar@8:
  0001b	8b c6		 mov	 eax, esi
  0001d	5e		 pop	 esi
  0001e	5d		 pop	 ebp
  0001f	c2 04 00	 ret	 4
??_G?$codecvt@DDH@std@@MAEPAXI@Z ENDP			; std::codecvt<char,char,int>::`scalar deleting destructor'
; Function compile flags: /Ogtp
_TEXT	ENDS
;	COMDAT ??_Gruntime_error@std@@UAEPAXI@Z
_TEXT	SEGMENT
___flags$ = 8						; size = 4
??_Gruntime_error@std@@UAEPAXI@Z PROC			; std::runtime_error::`scalar deleting destructor', COMDAT
; _this$ = ecx
  00000	55		 push	 ebp
  00001	8b ec		 mov	 ebp, esp
  00003	56		 push	 esi
  00004	8b f1		 mov	 esi, ecx
  00006	e8 00 00 00 00	 call	 ??1exception@std@@UAE@XZ ; std::exception::~exception
  0000b	f6 45 08 01	 test	 BYTE PTR ___flags$[ebp], 1
  0000f	74 09		 je	 SHORT $LN7@scalar@9
  00011	56		 push	 esi
  00012	e8 00 00 00 00	 call	 ??3@YAXPAX@Z		; operator delete
  00017	83 c4 04	 add	 esp, 4
$LN7@scalar@9:
  0001a	8b c6		 mov	 eax, esi
  0001c	5e		 pop	 esi
  0001d	5d		 pop	 ebp
  0001e	c2 04 00	 ret	 4
??_Gruntime_error@std@@UAEPAXI@Z ENDP			; std::runtime_error::`scalar deleting destructor'
_TEXT	ENDS
PUBLIC	?c_str@locale@std@@QBEPBDXZ			; std::locale::c_str
; Function compile flags: /Ogtp
;	COMDAT ?c_str@locale@std@@QBEPBDXZ
_TEXT	SEGMENT
?c_str@locale@std@@QBEPBDXZ PROC			; std::locale::c_str, COMDAT
; _this$ = ecx

; 432  : 		return (_Ptr->_Name.c_str());

  00000	8b 09		 mov	 ecx, DWORD PTR [ecx]
  00002	8b 41 18	 mov	 eax, DWORD PTR [ecx+24]
  00005	85 c0		 test	 eax, eax
  00007	75 03		 jne	 SHORT $LN6@c_str@2
  00009	8d 41 1c	 lea	 eax, DWORD PTR [ecx+28]
$LN6@c_str@2:

; 433  : 		}

  0000c	c3		 ret	 0
?c_str@locale@std@@QBEPBDXZ ENDP			; std::locale::c_str
_TEXT	ENDS
PUBLIC	??_7?$ctype@D@std@@6B@				; std::ctype<char>::`vftable'
PUBLIC	??0?$ctype@D@std@@QAE@ABV_Locinfo@1@I@Z		; std::ctype<char>::ctype<char>
PUBLIC	??_R4?$ctype@D@std@@6B@				; std::ctype<char>::`RTTI Complete Object Locator'
PUBLIC	??_R0?AV?$ctype@D@std@@@8			; std::ctype<char> `RTTI Type Descriptor'
PUBLIC	??_R3?$ctype@D@std@@8				; std::ctype<char>::`RTTI Class Hierarchy Descriptor'
PUBLIC	??_R2?$ctype@D@std@@8				; std::ctype<char>::`RTTI Base Class Array'
PUBLIC	??_R1A@?0A@EA@?$ctype@D@std@@8			; std::ctype<char>::`RTTI Base Class Descriptor at (0,-1,0,64)'
PUBLIC	?do_tolower@?$ctype@D@std@@MBEPBDPADPBD@Z	; std::ctype<char>::do_tolower
PUBLIC	?do_tolower@?$ctype@D@std@@MBEDD@Z		; std::ctype<char>::do_tolower
PUBLIC	?do_toupper@?$ctype@D@std@@MBEPBDPADPBD@Z	; std::ctype<char>::do_toupper
PUBLIC	?do_toupper@?$ctype@D@std@@MBEDD@Z		; std::ctype<char>::do_toupper
PUBLIC	?do_widen@?$ctype@D@std@@MBEPBDPBD0PAD@Z	; std::ctype<char>::do_widen
PUBLIC	?do_widen@?$ctype@D@std@@MBEDD@Z		; std::ctype<char>::do_widen
PUBLIC	?do_narrow@?$ctype@D@std@@MBEPBDPBD0DPAD@Z	; std::ctype<char>::do_narrow
PUBLIC	?do_narrow@?$ctype@D@std@@MBEDDD@Z		; std::ctype<char>::do_narrow
EXTRN	??_E?$ctype@D@std@@MAEPAXI@Z:PROC		; std::ctype<char>::`vector deleting destructor'
;	COMDAT ??_R1A@?0A@EA@?$ctype@D@std@@8
; File d:\program files (x86)\microsoft visual studio 10.0\vc\include\xlocinfo
rdata$r	SEGMENT
??_R1A@?0A@EA@?$ctype@D@std@@8 DD FLAT:??_R0?AV?$ctype@D@std@@@8 ; std::ctype<char>::`RTTI Base Class Descriptor at (0,-1,0,64)'
	DD	02H
	DD	00H
	DD	0ffffffffH
	DD	00H
	DD	040H
	DD	FLAT:??_R3?$ctype@D@std@@8
rdata$r	ENDS
;	COMDAT ??_R2?$ctype@D@std@@8
rdata$r	SEGMENT
??_R2?$ctype@D@std@@8 DD FLAT:??_R1A@?0A@EA@?$ctype@D@std@@8 ; std::ctype<char>::`RTTI Base Class Array'
	DD	FLAT:??_R1A@?0A@EA@ctype_base@std@@8
	DD	FLAT:??_R1A@?0A@EA@facet@locale@std@@8
rdata$r	ENDS
;	COMDAT ??_R3?$ctype@D@std@@8
rdata$r	SEGMENT
??_R3?$ctype@D@std@@8 DD 00H				; std::ctype<char>::`RTTI Class Hierarchy Descriptor'
	DD	00H
	DD	03H
	DD	FLAT:??_R2?$ctype@D@std@@8
rdata$r	ENDS
;	COMDAT ??_R0?AV?$ctype@D@std@@@8
_DATA	SEGMENT
??_R0?AV?$ctype@D@std@@@8 DD FLAT:??_7type_info@@6B@	; std::ctype<char> `RTTI Type Descriptor'
	DD	00H
	DB	'.?AV?$ctype@D@std@@', 00H
_DATA	ENDS
;	COMDAT ??_R4?$ctype@D@std@@6B@
rdata$r	SEGMENT
??_R4?$ctype@D@std@@6B@ DD 00H				; std::ctype<char>::`RTTI Complete Object Locator'
	DD	00H
	DD	00H
	DD	FLAT:??_R0?AV?$ctype@D@std@@@8
	DD	FLAT:??_R3?$ctype@D@std@@8
rdata$r	ENDS
;	COMDAT ??_7?$ctype@D@std@@6B@
CONST	SEGMENT
??_7?$ctype@D@std@@6B@ DD FLAT:??_R4?$ctype@D@std@@6B@	; std::ctype<char>::`vftable'
	DD	FLAT:??_E?$ctype@D@std@@MAEPAXI@Z
	DD	FLAT:?do_tolower@?$ctype@D@std@@MBEPBDPADPBD@Z
	DD	FLAT:?do_tolower@?$ctype@D@std@@MBEDD@Z
	DD	FLAT:?do_toupper@?$ctype@D@std@@MBEPBDPADPBD@Z
	DD	FLAT:?do_toupper@?$ctype@D@std@@MBEDD@Z
	DD	FLAT:?do_widen@?$ctype@D@std@@MBEPBDPBD0PAD@Z
	DD	FLAT:?do_widen@?$ctype@D@std@@MBEDD@Z
	DD	FLAT:?do_narrow@?$ctype@D@std@@MBEPBDPBD0DPAD@Z
	DD	FLAT:?do_narrow@?$ctype@D@std@@MBEDDD@Z
; Function compile flags: /Ogtp
; File d:\program files (x86)\microsoft visual studio 10.0\vc\include\xlocale
CONST	ENDS
;	COMDAT ??0?$ctype@D@std@@QAE@ABV_Locinfo@1@I@Z
_TEXT	SEGMENT
$T210115 = -16						; size = 16
__Lobj$ = 8						; size = 4
__Refs$ = 12						; size = 4
??0?$ctype@D@std@@QAE@ABV_Locinfo@1@I@Z PROC		; std::ctype<char>::ctype<char>, COMDAT
; _this$ = ecx

; 2365 : 		{	// construct from current locale

  00000	55		 push	 ebp
  00001	8b ec		 mov	 ebp, esp
  00003	8b 45 0c	 mov	 eax, DWORD PTR __Refs$[ebp]
  00006	83 ec 10	 sub	 esp, 16			; 00000010H
  00009	56		 push	 esi
  0000a	8b f1		 mov	 esi, ecx

; 2366 : 		_Init(_Lobj);

  0000c	8d 4d f0	 lea	 ecx, DWORD PTR $T210115[ebp]
  0000f	51		 push	 ecx
  00010	89 46 04	 mov	 DWORD PTR [esi+4], eax
  00013	c7 06 00 00 00
	00		 mov	 DWORD PTR [esi], OFFSET ??_7?$ctype@D@std@@6B@
  00019	e8 00 00 00 00	 call	 __Getctype
  0001e	8b 10		 mov	 edx, DWORD PTR [eax]
  00020	89 56 08	 mov	 DWORD PTR [esi+8], edx
  00023	8b 48 04	 mov	 ecx, DWORD PTR [eax+4]
  00026	89 4e 0c	 mov	 DWORD PTR [esi+12], ecx
  00029	8b 50 08	 mov	 edx, DWORD PTR [eax+8]
  0002c	89 56 10	 mov	 DWORD PTR [esi+16], edx
  0002f	8b 40 0c	 mov	 eax, DWORD PTR [eax+12]
  00032	89 46 14	 mov	 DWORD PTR [esi+20], eax
  00035	83 c4 04	 add	 esp, 4

; 2367 : 		}

  00038	8b c6		 mov	 eax, esi
  0003a	5e		 pop	 esi
  0003b	8b e5		 mov	 esp, ebp
  0003d	5d		 pop	 ebp
  0003e	c2 08 00	 ret	 8
??0?$ctype@D@std@@QAE@ABV_Locinfo@1@I@Z ENDP		; std::ctype<char>::ctype<char>
_TEXT	ENDS
PUBLIC	?_Tidy@?$ctype@D@std@@IAEXXZ			; std::ctype<char>::_Tidy
EXTRN	??_V@YAXPAX@Z:PROC				; operator delete[]
; Function compile flags: /Ogtp
;	COMDAT ?_Tidy@?$ctype@D@std@@IAEXXZ
_TEXT	SEGMENT
?_Tidy@?$ctype@D@std@@IAEXXZ PROC			; std::ctype<char>::_Tidy, COMDAT
; _this$ = ecx

; 2405 : 		if (0 < _Ctype._Delfl)

  00000	8b 41 14	 mov	 eax, DWORD PTR [ecx+20]
  00003	85 c0		 test	 eax, eax
  00005	7e 0d		 jle	 SHORT $LN6@Tidy@2

; 2406 : 			free((void *)_Ctype._Table);

  00007	8b 41 10	 mov	 eax, DWORD PTR [ecx+16]
  0000a	50		 push	 eax
  0000b	e8 00 00 00 00	 call	 _free
  00010	83 c4 04	 add	 esp, 4

; 2409 : 		}

  00013	c3		 ret	 0
$LN6@Tidy@2:

; 2407 : 		else if (_Ctype._Delfl < 0)

  00014	79 0a		 jns	 SHORT $LN1@Tidy@2

; 2408 : 			delete[] (void *)_Ctype._Table;

  00016	8b 49 10	 mov	 ecx, DWORD PTR [ecx+16]
  00019	51		 push	 ecx
  0001a	e8 00 00 00 00	 call	 ??_V@YAXPAX@Z		; operator delete[]
  0001f	59		 pop	 ecx
$LN1@Tidy@2:

; 2409 : 		}

  00020	c3		 ret	 0
?_Tidy@?$ctype@D@std@@IAEXXZ ENDP			; std::ctype<char>::_Tidy
_TEXT	ENDS
EXTRN	__Tolower:PROC
; Function compile flags: /Ogtp
;	COMDAT ?do_tolower@?$ctype@D@std@@MBEDD@Z
_TEXT	SEGMENT
__Ch$ = 8						; size = 1
?do_tolower@?$ctype@D@std@@MBEDD@Z PROC			; std::ctype<char>::do_tolower, COMDAT
; _this$ = ecx

; 2412 : 		{	// convert element to lower case

  00000	55		 push	 ebp
  00001	8b ec		 mov	 ebp, esp

; 2413 : 		return ((_Elem)_Tolower((unsigned char)_Ch, &_Ctype));

  00003	0f b6 45 08	 movzx	 eax, BYTE PTR __Ch$[ebp]
  00007	83 c1 08	 add	 ecx, 8
  0000a	51		 push	 ecx
  0000b	50		 push	 eax
  0000c	e8 00 00 00 00	 call	 __Tolower
  00011	83 c4 08	 add	 esp, 8

; 2414 : 		}

  00014	5d		 pop	 ebp
  00015	c2 04 00	 ret	 4
?do_tolower@?$ctype@D@std@@MBEDD@Z ENDP			; std::ctype<char>::do_tolower
; Function compile flags: /Ogtp
_TEXT	ENDS
;	COMDAT ?do_tolower@?$ctype@D@std@@MBEPBDPADPBD@Z
_TEXT	SEGMENT
__First$ = 8						; size = 4
__Last$ = 12						; size = 4
?do_tolower@?$ctype@D@std@@MBEPBDPADPBD@Z PROC		; std::ctype<char>::do_tolower, COMDAT
; _this$ = ecx

; 2418 : 		{	// convert [_First, _Last) in place to lower case

  00000	55		 push	 ebp
  00001	8b ec		 mov	 ebp, esp
  00003	53		 push	 ebx

; 2419 : 		_DEBUG_RANGE((const _Elem *)_First, _Last);
; 2420 : 		for (; _First != _Last; ++_First)

  00004	8b 5d 0c	 mov	 ebx, DWORD PTR __Last$[ebp]
  00007	56		 push	 esi
  00008	8b 75 08	 mov	 esi, DWORD PTR __First$[ebp]
  0000b	3b f3		 cmp	 esi, ebx
  0000d	74 19		 je	 SHORT $LN8@do_tolower
  0000f	57		 push	 edi
  00010	8d 79 08	 lea	 edi, DWORD PTR [ecx+8]
$LL3@do_tolower:

; 2421 : 			*_First = (_Elem)_Tolower((unsigned char)*_First, &_Ctype);

  00013	0f b6 06	 movzx	 eax, BYTE PTR [esi]
  00016	57		 push	 edi
  00017	50		 push	 eax
  00018	e8 00 00 00 00	 call	 __Tolower
  0001d	88 06		 mov	 BYTE PTR [esi], al
  0001f	46		 inc	 esi
  00020	83 c4 08	 add	 esp, 8
  00023	3b f3		 cmp	 esi, ebx
  00025	75 ec		 jne	 SHORT $LL3@do_tolower
  00027	5f		 pop	 edi
$LN8@do_tolower:

; 2422 : 		return ((const _Elem *)_First);

  00028	8b c6		 mov	 eax, esi
  0002a	5e		 pop	 esi
  0002b	5b		 pop	 ebx

; 2423 : 		}

  0002c	5d		 pop	 ebp
  0002d	c2 08 00	 ret	 8
?do_tolower@?$ctype@D@std@@MBEPBDPADPBD@Z ENDP		; std::ctype<char>::do_tolower
_TEXT	ENDS
EXTRN	__Toupper:PROC
; Function compile flags: /Ogtp
;	COMDAT ?do_toupper@?$ctype@D@std@@MBEDD@Z
_TEXT	SEGMENT
__Ch$ = 8						; size = 1
?do_toupper@?$ctype@D@std@@MBEDD@Z PROC			; std::ctype<char>::do_toupper, COMDAT
; _this$ = ecx

; 2426 : 		{	// convert element to upper case

  00000	55		 push	 ebp
  00001	8b ec		 mov	 ebp, esp

; 2427 : 		return ((_Elem)_Toupper((unsigned char)_Ch, &_Ctype));

  00003	0f b6 45 08	 movzx	 eax, BYTE PTR __Ch$[ebp]
  00007	83 c1 08	 add	 ecx, 8
  0000a	51		 push	 ecx
  0000b	50		 push	 eax
  0000c	e8 00 00 00 00	 call	 __Toupper
  00011	83 c4 08	 add	 esp, 8

; 2428 : 		}

  00014	5d		 pop	 ebp
  00015	c2 04 00	 ret	 4
?do_toupper@?$ctype@D@std@@MBEDD@Z ENDP			; std::ctype<char>::do_toupper
; Function compile flags: /Ogtp
_TEXT	ENDS
;	COMDAT ?do_toupper@?$ctype@D@std@@MBEPBDPADPBD@Z
_TEXT	SEGMENT
__First$ = 8						; size = 4
__Last$ = 12						; size = 4
?do_toupper@?$ctype@D@std@@MBEPBDPADPBD@Z PROC		; std::ctype<char>::do_toupper, COMDAT
; _this$ = ecx

; 2432 : 		{	// convert [_First, _Last) in place to upper case

  00000	55		 push	 ebp
  00001	8b ec		 mov	 ebp, esp
  00003	53		 push	 ebx

; 2433 : 		_DEBUG_RANGE((const _Elem *)_First, _Last);
; 2434 : 		for (; _First != _Last; ++_First)

  00004	8b 5d 0c	 mov	 ebx, DWORD PTR __Last$[ebp]
  00007	56		 push	 esi
  00008	8b 75 08	 mov	 esi, DWORD PTR __First$[ebp]
  0000b	3b f3		 cmp	 esi, ebx
  0000d	74 19		 je	 SHORT $LN8@do_toupper
  0000f	57		 push	 edi
  00010	8d 79 08	 lea	 edi, DWORD PTR [ecx+8]
$LL3@do_toupper:

; 2435 : 			*_First = (_Elem)_Toupper((unsigned char)*_First, &_Ctype);

  00013	0f b6 06	 movzx	 eax, BYTE PTR [esi]
  00016	57		 push	 edi
  00017	50		 push	 eax
  00018	e8 00 00 00 00	 call	 __Toupper
  0001d	88 06		 mov	 BYTE PTR [esi], al
  0001f	46		 inc	 esi
  00020	83 c4 08	 add	 esp, 8
  00023	3b f3		 cmp	 esi, ebx
  00025	75 ec		 jne	 SHORT $LL3@do_toupper
  00027	5f		 pop	 edi
$LN8@do_toupper:

; 2436 : 		return ((const _Elem *)_First);

  00028	8b c6		 mov	 eax, esi
  0002a	5e		 pop	 esi
  0002b	5b		 pop	 ebx

; 2437 : 		}

  0002c	5d		 pop	 ebp
  0002d	c2 08 00	 ret	 8
?do_toupper@?$ctype@D@std@@MBEPBDPADPBD@Z ENDP		; std::ctype<char>::do_toupper
; Function compile flags: /Ogtp
_TEXT	ENDS
;	COMDAT ?do_widen@?$ctype@D@std@@MBEDD@Z
_TEXT	SEGMENT
__Byte$ = 8						; size = 1
?do_widen@?$ctype@D@std@@MBEDD@Z PROC			; std::ctype<char>::do_widen, COMDAT
; _this$ = ecx

; 2440 : 		{	// widen char

  00000	55		 push	 ebp
  00001	8b ec		 mov	 ebp, esp

; 2441 : 		return (_Byte);

  00003	8a 45 08	 mov	 al, BYTE PTR __Byte$[ebp]

; 2442 : 		}

  00006	5d		 pop	 ebp
  00007	c2 04 00	 ret	 4
?do_widen@?$ctype@D@std@@MBEDD@Z ENDP			; std::ctype<char>::do_widen
; Function compile flags: /Ogtp
_TEXT	ENDS
;	COMDAT ?do_widen@?$ctype@D@std@@MBEPBDPBD0PAD@Z
_TEXT	SEGMENT
__First$ = 8						; size = 4
__Last$ = 12						; size = 4
__Dest$ = 16						; size = 4
?do_widen@?$ctype@D@std@@MBEPBDPBD0PAD@Z PROC		; std::ctype<char>::do_widen, COMDAT
; _this$ = ecx

; 2446 : 		{	// widen chars in [_First, _Last)

  00000	55		 push	 ebp
  00001	8b ec		 mov	 ebp, esp

; 2447 : 		_DEBUG_RANGE(_First, _Last);
; 2448 : 		_DEBUG_POINTER(_Dest);
; 2449 : 		_CSTD memcpy(_Dest, _First, _Last - _First);

  00003	8b 45 08	 mov	 eax, DWORD PTR __First$[ebp]
  00006	8b 55 10	 mov	 edx, DWORD PTR __Dest$[ebp]
  00009	56		 push	 esi
  0000a	8b 75 0c	 mov	 esi, DWORD PTR __Last$[ebp]
  0000d	8b ce		 mov	 ecx, esi
  0000f	2b c8		 sub	 ecx, eax
  00011	51		 push	 ecx
  00012	50		 push	 eax
  00013	52		 push	 edx
  00014	e8 00 00 00 00	 call	 _memcpy
  00019	83 c4 0c	 add	 esp, 12			; 0000000cH

; 2450 : 		return (_Last);

  0001c	8b c6		 mov	 eax, esi
  0001e	5e		 pop	 esi

; 2451 : 		}

  0001f	5d		 pop	 ebp
  00020	c2 0c 00	 ret	 12			; 0000000cH
?do_widen@?$ctype@D@std@@MBEPBDPBD0PAD@Z ENDP		; std::ctype<char>::do_widen
; Function compile flags: /Ogtp
_TEXT	ENDS
;	COMDAT ?do_narrow@?$ctype@D@std@@MBEDDD@Z
_TEXT	SEGMENT
__Ch$ = 8						; size = 1
___formal$ = 12						; size = 1
?do_narrow@?$ctype@D@std@@MBEDDD@Z PROC			; std::ctype<char>::do_narrow, COMDAT
; _this$ = ecx

; 2454 : 		{	// narrow char

  00000	55		 push	 ebp
  00001	8b ec		 mov	 ebp, esp

; 2455 : 		return (_Ch);

  00003	8a 45 08	 mov	 al, BYTE PTR __Ch$[ebp]

; 2456 : 		}

  00006	5d		 pop	 ebp
  00007	c2 08 00	 ret	 8
?do_narrow@?$ctype@D@std@@MBEDDD@Z ENDP			; std::ctype<char>::do_narrow
; Function compile flags: /Ogtp
_TEXT	ENDS
;	COMDAT ?do_narrow@?$ctype@D@std@@MBEPBDPBD0DPAD@Z
_TEXT	SEGMENT
__First$ = 8						; size = 4
__Last$ = 12						; size = 4
___formal$ = 16						; size = 1
__Dest$ = 20						; size = 4
?do_narrow@?$ctype@D@std@@MBEPBDPBD0DPAD@Z PROC		; std::ctype<char>::do_narrow, COMDAT
; _this$ = ecx

; 2460 : 		{	// narrow elements in [_First, _Last) to chars

  00000	55		 push	 ebp
  00001	8b ec		 mov	 ebp, esp

; 2461 : 		_DEBUG_RANGE(_First, _Last);
; 2462 : 		_DEBUG_POINTER(_Dest);
; 2463 : 		_CSTD memcpy(_Dest, _First, _Last - _First);

  00003	8b 45 08	 mov	 eax, DWORD PTR __First$[ebp]
  00006	8b 55 14	 mov	 edx, DWORD PTR __Dest$[ebp]
  00009	56		 push	 esi
  0000a	8b 75 0c	 mov	 esi, DWORD PTR __Last$[ebp]
  0000d	8b ce		 mov	 ecx, esi
  0000f	2b c8		 sub	 ecx, eax
  00011	51		 push	 ecx
  00012	50		 push	 eax
  00013	52		 push	 edx
  00014	e8 00 00 00 00	 call	 _memcpy
  00019	83 c4 0c	 add	 esp, 12			; 0000000cH

; 2464 : 		return (_Last);

  0001c	8b c6		 mov	 eax, esi
  0001e	5e		 pop	 esi

; 2465 : 		}

  0001f	5d		 pop	 ebp
  00020	c2 10 00	 ret	 16			; 00000010H
?do_narrow@?$ctype@D@std@@MBEPBDPBD0DPAD@Z ENDP		; std::ctype<char>::do_narrow
_TEXT	ENDS
PUBLIC	??1?$ctype@D@std@@MAE@XZ			; std::ctype<char>::~ctype<char>
; Function compile flags: /Ogtp
;	COMDAT ??1?$ctype@D@std@@MAE@XZ
_TEXT	SEGMENT
??1?$ctype@D@std@@MAE@XZ PROC				; std::ctype<char>::~ctype<char>, COMDAT
; _this$ = ecx

; 2394 : 		{	// destroy the object

  00000	56		 push	 esi
  00001	8b f1		 mov	 esi, ecx

; 2395 : 		_Tidy();

  00003	8b 46 14	 mov	 eax, DWORD PTR [esi+20]
  00006	c7 06 00 00 00
	00		 mov	 DWORD PTR [esi], OFFSET ??_7?$ctype@D@std@@6B@
  0000c	85 c0		 test	 eax, eax
  0000e	7e 14		 jle	 SHORT $LN14@ctype
  00010	8b 46 10	 mov	 eax, DWORD PTR [esi+16]
  00013	50		 push	 eax
  00014	e8 00 00 00 00	 call	 _free
  00019	83 c4 04	 add	 esp, 4

; 2396 : 		}

  0001c	c7 06 00 00 00
	00		 mov	 DWORD PTR [esi], OFFSET ??_7facet@locale@std@@6B@
  00022	5e		 pop	 esi
  00023	c3		 ret	 0
$LN14@ctype:

; 2395 : 		_Tidy();

  00024	79 0c		 jns	 SHORT $LN13@ctype
  00026	8b 4e 10	 mov	 ecx, DWORD PTR [esi+16]
  00029	51		 push	 ecx
  0002a	e8 00 00 00 00	 call	 ??_V@YAXPAX@Z		; operator delete[]
  0002f	83 c4 04	 add	 esp, 4
$LN13@ctype:

; 2396 : 		}

  00032	c7 06 00 00 00
	00		 mov	 DWORD PTR [esi], OFFSET ??_7facet@locale@std@@6B@
  00038	5e		 pop	 esi
  00039	c3		 ret	 0
??1?$ctype@D@std@@MAE@XZ ENDP				; std::ctype<char>::~ctype<char>
; Function compile flags: /Ogtp
_TEXT	ENDS
;	COMDAT ??_G?$ctype@D@std@@MAEPAXI@Z
_TEXT	SEGMENT
___flags$ = 8						; size = 4
??_G?$ctype@D@std@@MAEPAXI@Z PROC			; std::ctype<char>::`scalar deleting destructor', COMDAT
; _this$ = ecx
  00000	55		 push	 ebp
  00001	8b ec		 mov	 ebp, esp
  00003	56		 push	 esi
  00004	8b f1		 mov	 esi, ecx
  00006	8b 46 14	 mov	 eax, DWORD PTR [esi+20]
  00009	c7 06 00 00 00
	00		 mov	 DWORD PTR [esi], OFFSET ??_7?$ctype@D@std@@6B@
  0000f	85 c0		 test	 eax, eax
  00011	7e 0b		 jle	 SHORT $LN16@scalar@10
  00013	8b 46 10	 mov	 eax, DWORD PTR [esi+16]
  00016	50		 push	 eax
  00017	e8 00 00 00 00	 call	 _free
  0001c	eb 0b		 jmp	 SHORT $LN17@scalar@10
$LN16@scalar@10:
  0001e	79 0c		 jns	 SHORT $LN6@scalar@10
  00020	8b 4e 10	 mov	 ecx, DWORD PTR [esi+16]
  00023	51		 push	 ecx
  00024	e8 00 00 00 00	 call	 ??_V@YAXPAX@Z		; operator delete[]
$LN17@scalar@10:
  00029	83 c4 04	 add	 esp, 4
$LN6@scalar@10:
  0002c	f6 45 08 01	 test	 BYTE PTR ___flags$[ebp], 1
  00030	c7 06 00 00 00
	00		 mov	 DWORD PTR [esi], OFFSET ??_7facet@locale@std@@6B@
  00036	74 09		 je	 SHORT $LN15@scalar@10
  00038	56		 push	 esi
  00039	e8 00 00 00 00	 call	 ??3@YAXPAX@Z		; operator delete
  0003e	83 c4 04	 add	 esp, 4
$LN15@scalar@10:
  00041	8b c6		 mov	 eax, esi
  00043	5e		 pop	 esi
  00044	5d		 pop	 ebp
  00045	c2 04 00	 ret	 4
??_G?$ctype@D@std@@MAEPAXI@Z ENDP			; std::ctype<char>::`scalar deleting destructor'
_TEXT	ENDS
PUBLIC	??_7system_error@std@@6B@			; std::system_error::`vftable'
PUBLIC	??0system_error@std@@QAE@Verror_code@1@PBD@Z	; std::system_error::system_error
PUBLIC	??_R4system_error@std@@6B@			; std::system_error::`RTTI Complete Object Locator'
PUBLIC	??_R0?AVsystem_error@std@@@8			; std::system_error `RTTI Type Descriptor'
PUBLIC	??_R3system_error@std@@8			; std::system_error::`RTTI Class Hierarchy Descriptor'
PUBLIC	??_R2system_error@std@@8			; std::system_error::`RTTI Base Class Array'
PUBLIC	??_R1A@?0A@EA@system_error@std@@8		; std::system_error::`RTTI Base Class Descriptor at (0,-1,0,64)'
EXTRN	??_Esystem_error@std@@UAEPAXI@Z:PROC		; std::system_error::`vector deleting destructor'
;	COMDAT ??_R1A@?0A@EA@system_error@std@@8
; File d:\program files (x86)\microsoft visual studio 10.0\vc\include\system_error
rdata$r	SEGMENT
??_R1A@?0A@EA@system_error@std@@8 DD FLAT:??_R0?AVsystem_error@std@@@8 ; std::system_error::`RTTI Base Class Descriptor at (0,-1,0,64)'
	DD	02H
	DD	00H
	DD	0ffffffffH
	DD	00H
	DD	040H
	DD	FLAT:??_R3system_error@std@@8
rdata$r	ENDS
;	COMDAT ??_R2system_error@std@@8
rdata$r	SEGMENT
??_R2system_error@std@@8 DD FLAT:??_R1A@?0A@EA@system_error@std@@8 ; std::system_error::`RTTI Base Class Array'
	DD	FLAT:??_R1A@?0A@EA@runtime_error@std@@8
	DD	FLAT:??_R1A@?0A@EA@exception@std@@8
rdata$r	ENDS
;	COMDAT ??_R3system_error@std@@8
rdata$r	SEGMENT
??_R3system_error@std@@8 DD 00H				; std::system_error::`RTTI Class Hierarchy Descriptor'
	DD	00H
	DD	03H
	DD	FLAT:??_R2system_error@std@@8
rdata$r	ENDS
;	COMDAT ??_R0?AVsystem_error@std@@@8
_DATA	SEGMENT
??_R0?AVsystem_error@std@@@8 DD FLAT:??_7type_info@@6B@	; std::system_error `RTTI Type Descriptor'
	DD	00H
	DB	'.?AVsystem_error@std@@', 00H
_DATA	ENDS
;	COMDAT ??_R4system_error@std@@6B@
rdata$r	SEGMENT
??_R4system_error@std@@6B@ DD 00H			; std::system_error::`RTTI Complete Object Locator'
	DD	00H
	DD	00H
	DD	FLAT:??_R0?AVsystem_error@std@@@8
	DD	FLAT:??_R3system_error@std@@8
rdata$r	ENDS
;	COMDAT ??_7system_error@std@@6B@
CONST	SEGMENT
??_7system_error@std@@6B@ DD FLAT:??_R4system_error@std@@6B@ ; std::system_error::`vftable'
	DD	FLAT:??_Esystem_error@std@@UAEPAXI@Z
	DD	FLAT:?what@exception@std@@UBEPBDXZ
; Function compile flags: /Ogtp
CONST	ENDS
;	COMDAT ??0system_error@std@@QAE@Verror_code@1@PBD@Z
_TEXT	SEGMENT
__Errcode$ = 8						; size = 8
$T210209 = 16						; size = 4
__Message$ = 16						; size = 4
??0system_error@std@@QAE@Verror_code@1@PBD@Z PROC	; std::system_error::system_error, COMDAT
; _this$ = ecx

; 516  : 		{	// construct from error code and message string

  00000	55		 push	 ebp
  00001	8b ec		 mov	 ebp, esp
  00003	8b 45 10	 mov	 eax, DWORD PTR __Message$[ebp]
  00006	56		 push	 esi
  00007	8b f1		 mov	 esi, ecx
  00009	8d 4d 10	 lea	 ecx, DWORD PTR $T210209[ebp]
  0000c	51		 push	 ecx
  0000d	8b ce		 mov	 ecx, esi
  0000f	89 45 10	 mov	 DWORD PTR $T210209[ebp], eax
  00012	e8 00 00 00 00	 call	 ??0exception@std@@QAE@ABQBD@Z ; std::exception::exception
  00017	8b 45 0c	 mov	 eax, DWORD PTR __Errcode$[ebp+4]
  0001a	8b 55 08	 mov	 edx, DWORD PTR __Errcode$[ebp]
  0001d	89 46 10	 mov	 DWORD PTR [esi+16], eax
  00020	c7 06 00 00 00
	00		 mov	 DWORD PTR [esi], OFFSET ??_7system_error@std@@6B@
  00026	89 56 0c	 mov	 DWORD PTR [esi+12], edx

; 517  : 		_Makestr();
; 518  : 		}

  00029	8b c6		 mov	 eax, esi
  0002b	5e		 pop	 esi
  0002c	5d		 pop	 ebp
  0002d	c2 0c 00	 ret	 12			; 0000000cH
??0system_error@std@@QAE@Verror_code@1@PBD@Z ENDP	; std::system_error::system_error
; Function compile flags: /Ogtp
_TEXT	ENDS
;	COMDAT ??_Gsystem_error@std@@UAEPAXI@Z
_TEXT	SEGMENT
___flags$ = 8						; size = 4
??_Gsystem_error@std@@UAEPAXI@Z PROC			; std::system_error::`scalar deleting destructor', COMDAT
; _this$ = ecx
  00000	55		 push	 ebp
  00001	8b ec		 mov	 ebp, esp
  00003	56		 push	 esi
  00004	8b f1		 mov	 esi, ecx
  00006	e8 00 00 00 00	 call	 ??1exception@std@@UAE@XZ ; std::exception::~exception
  0000b	f6 45 08 01	 test	 BYTE PTR ___flags$[ebp], 1
  0000f	74 09		 je	 SHORT $LN10@scalar@11
  00011	56		 push	 esi
  00012	e8 00 00 00 00	 call	 ??3@YAXPAX@Z		; operator delete
  00017	83 c4 04	 add	 esp, 4
$LN10@scalar@11:
  0001a	8b c6		 mov	 eax, esi
  0001c	5e		 pop	 esi
  0001d	5d		 pop	 ebp
  0001e	c2 04 00	 ret	 4
??_Gsystem_error@std@@UAEPAXI@Z ENDP			; std::system_error::`scalar deleting destructor'
_TEXT	ENDS
PUBLIC	??_7failure@ios_base@std@@6B@			; std::ios_base::failure::`vftable'
PUBLIC	??0failure@ios_base@std@@QAE@PBDABVerror_code@2@@Z ; std::ios_base::failure::failure
PUBLIC	??_R4failure@ios_base@std@@6B@			; std::ios_base::failure::`RTTI Complete Object Locator'
PUBLIC	??_R0?AVfailure@ios_base@std@@@8		; std::ios_base::failure `RTTI Type Descriptor'
PUBLIC	??_R3failure@ios_base@std@@8			; std::ios_base::failure::`RTTI Class Hierarchy Descriptor'
PUBLIC	??_R2failure@ios_base@std@@8			; std::ios_base::failure::`RTTI Base Class Array'
PUBLIC	??_R1A@?0A@EA@failure@ios_base@std@@8		; std::ios_base::failure::`RTTI Base Class Descriptor at (0,-1,0,64)'
EXTRN	??_Efailure@ios_base@std@@UAEPAXI@Z:PROC	; std::ios_base::failure::`vector deleting destructor'
;	COMDAT ??_R1A@?0A@EA@failure@ios_base@std@@8
rdata$r	SEGMENT
??_R1A@?0A@EA@failure@ios_base@std@@8 DD FLAT:??_R0?AVfailure@ios_base@std@@@8 ; std::ios_base::failure::`RTTI Base Class Descriptor at (0,-1,0,64)'
	DD	03H
	DD	00H
	DD	0ffffffffH
	DD	00H
	DD	040H
	DD	FLAT:??_R3failure@ios_base@std@@8
rdata$r	ENDS
;	COMDAT ??_R2failure@ios_base@std@@8
rdata$r	SEGMENT
??_R2failure@ios_base@std@@8 DD FLAT:??_R1A@?0A@EA@failure@ios_base@std@@8 ; std::ios_base::failure::`RTTI Base Class Array'
	DD	FLAT:??_R1A@?0A@EA@system_error@std@@8
	DD	FLAT:??_R1A@?0A@EA@runtime_error@std@@8
	DD	FLAT:??_R1A@?0A@EA@exception@std@@8
rdata$r	ENDS
;	COMDAT ??_R3failure@ios_base@std@@8
rdata$r	SEGMENT
??_R3failure@ios_base@std@@8 DD 00H			; std::ios_base::failure::`RTTI Class Hierarchy Descriptor'
	DD	00H
	DD	04H
	DD	FLAT:??_R2failure@ios_base@std@@8
rdata$r	ENDS
;	COMDAT ??_R0?AVfailure@ios_base@std@@@8
_DATA	SEGMENT
??_R0?AVfailure@ios_base@std@@@8 DD FLAT:??_7type_info@@6B@ ; std::ios_base::failure `RTTI Type Descriptor'
	DD	00H
	DB	'.?AVfailure@ios_base@std@@', 00H
_DATA	ENDS
;	COMDAT ??_R4failure@ios_base@std@@6B@
rdata$r	SEGMENT
??_R4failure@ios_base@std@@6B@ DD 00H			; std::ios_base::failure::`RTTI Complete Object Locator'
	DD	00H
	DD	00H
	DD	FLAT:??_R0?AVfailure@ios_base@std@@@8
	DD	FLAT:??_R3failure@ios_base@std@@8
rdata$r	ENDS
;	COMDAT ??_7failure@ios_base@std@@6B@
CONST	SEGMENT
??_7failure@ios_base@std@@6B@ DD FLAT:??_R4failure@ios_base@std@@6B@ ; std::ios_base::failure::`vftable'
	DD	FLAT:??_Efailure@ios_base@std@@UAEPAXI@Z
	DD	FLAT:?what@exception@std@@UBEPBDXZ
; Function compile flags: /Ogtp
; File d:\program files (x86)\microsoft visual studio 10.0\vc\include\xiosbase
CONST	ENDS
;	COMDAT ??0failure@ios_base@std@@QAE@PBDABVerror_code@2@@Z
_TEXT	SEGMENT
__Message$ = 8						; size = 4
$T210235 = 12						; size = 4
__Errcode$ = 12						; size = 4
??0failure@ios_base@std@@QAE@PBDABVerror_code@2@@Z PROC	; std::ios_base::failure::failure, COMDAT
; _this$ = ecx

; 237  : 			{	// construct with message

  00000	55		 push	 ebp
  00001	8b ec		 mov	 ebp, esp
  00003	8b 45 0c	 mov	 eax, DWORD PTR __Errcode$[ebp]
  00006	53		 push	 ebx
  00007	8b 58 04	 mov	 ebx, DWORD PTR [eax+4]
  0000a	56		 push	 esi
  0000b	8b f1		 mov	 esi, ecx
  0000d	57		 push	 edi
  0000e	8b 38		 mov	 edi, DWORD PTR [eax]
  00010	8b 45 08	 mov	 eax, DWORD PTR __Message$[ebp]
  00013	8d 4d 0c	 lea	 ecx, DWORD PTR $T210235[ebp]
  00016	51		 push	 ecx
  00017	8b ce		 mov	 ecx, esi
  00019	89 45 0c	 mov	 DWORD PTR $T210235[ebp], eax
  0001c	e8 00 00 00 00	 call	 ??0exception@std@@QAE@ABQBD@Z ; std::exception::exception
  00021	89 7e 0c	 mov	 DWORD PTR [esi+12], edi
  00024	5f		 pop	 edi
  00025	89 5e 10	 mov	 DWORD PTR [esi+16], ebx
  00028	c7 06 00 00 00
	00		 mov	 DWORD PTR [esi], OFFSET ??_7failure@ios_base@std@@6B@

; 238  : 			}

  0002e	8b c6		 mov	 eax, esi
  00030	5e		 pop	 esi
  00031	5b		 pop	 ebx
  00032	5d		 pop	 ebp
  00033	c2 08 00	 ret	 8
??0failure@ios_base@std@@QAE@PBDABVerror_code@2@@Z ENDP	; std::ios_base::failure::failure
_TEXT	ENDS
PUBLIC	??1failure@ios_base@std@@UAE@XZ			; std::ios_base::failure::~failure
; Function compile flags: /Ogtp
;	COMDAT ??1failure@ios_base@std@@UAE@XZ
_TEXT	SEGMENT
??1failure@ios_base@std@@UAE@XZ PROC			; std::ios_base::failure::~failure, COMDAT
; _this$ = ecx
  00000	e9 00 00 00 00	 jmp	 ??1exception@std@@UAE@XZ ; std::exception::~exception
??1failure@ios_base@std@@UAE@XZ ENDP			; std::ios_base::failure::~failure
_TEXT	ENDS
PUBLIC	??_C@_0BF@OOHOMBOF@ios_base?3?3eofbit?5set?$AA@	; `string'
PUBLIC	??_C@_0BG@FMKFHCIL@ios_base?3?3failbit?5set?$AA@ ; `string'
PUBLIC	__TI4?AVfailure@ios_base@std@@
PUBLIC	??_C@_0BF@PHHKMMFD@ios_base?3?3badbit?5set?$AA@	; `string'
PUBLIC	?clear@ios_base@std@@QAEXH_N@Z			; std::ios_base::clear
PUBLIC	__CTA4?AVfailure@ios_base@std@@
PUBLIC	__CT??_R0?AVfailure@ios_base@std@@@8??0failure@ios_base@std@@QAE@ABV012@@Z20
PUBLIC	??0failure@ios_base@std@@QAE@ABV012@@Z		; std::ios_base::failure::failure
PUBLIC	__CT??_R0?AVsystem_error@std@@@8??0system_error@std@@QAE@ABV01@@Z20
PUBLIC	??0system_error@std@@QAE@ABV01@@Z		; std::system_error::system_error
PUBLIC	__CT??_R0?AVruntime_error@std@@@8??0runtime_error@std@@QAE@ABV01@@Z12
PUBLIC	??0runtime_error@std@@QAE@ABV01@@Z		; std::runtime_error::runtime_error
;	COMDAT __CT??_R0?AVruntime_error@std@@@8??0runtime_error@std@@QAE@ABV01@@Z12
; File d:\program files (x86)\microsoft visual studio 10.0\vc\include\system_error
xdata$x	SEGMENT
__CT??_R0?AVruntime_error@std@@@8??0runtime_error@std@@QAE@ABV01@@Z12 DD 00H
	DD	FLAT:??_R0?AVruntime_error@std@@@8
	DD	00H
	DD	0ffffffffH
	ORG $+4
	DD	0cH
	DD	FLAT:??0runtime_error@std@@QAE@ABV01@@Z
xdata$x	ENDS
;	COMDAT __CT??_R0?AVsystem_error@std@@@8??0system_error@std@@QAE@ABV01@@Z20
xdata$x	SEGMENT
__CT??_R0?AVsystem_error@std@@@8??0system_error@std@@QAE@ABV01@@Z20 DD 00H
	DD	FLAT:??_R0?AVsystem_error@std@@@8
	DD	00H
	DD	0ffffffffH
	ORG $+4
	DD	014H
	DD	FLAT:??0system_error@std@@QAE@ABV01@@Z
xdata$x	ENDS
;	COMDAT __CT??_R0?AVfailure@ios_base@std@@@8??0failure@ios_base@std@@QAE@ABV012@@Z20
xdata$x	SEGMENT
__CT??_R0?AVfailure@ios_base@std@@@8??0failure@ios_base@std@@QAE@ABV012@@Z20 DD 00H
	DD	FLAT:??_R0?AVfailure@ios_base@std@@@8
	DD	00H
	DD	0ffffffffH
	ORG $+4
	DD	014H
	DD	FLAT:??0failure@ios_base@std@@QAE@ABV012@@Z
xdata$x	ENDS
;	COMDAT __CTA4?AVfailure@ios_base@std@@
xdata$x	SEGMENT
__CTA4?AVfailure@ios_base@std@@ DD 04H
	DD	FLAT:__CT??_R0?AVfailure@ios_base@std@@@8??0failure@ios_base@std@@QAE@ABV012@@Z20
	DD	FLAT:__CT??_R0?AVsystem_error@std@@@8??0system_error@std@@QAE@ABV01@@Z20
	DD	FLAT:__CT??_R0?AVruntime_error@std@@@8??0runtime_error@std@@QAE@ABV01@@Z12
	DD	FLAT:__CT??_R0?AVexception@std@@@8??0exception@std@@QAE@ABV01@@Z12
xdata$x	ENDS
;	COMDAT ??_C@_0BF@OOHOMBOF@ios_base?3?3eofbit?5set?$AA@
CONST	SEGMENT
??_C@_0BF@OOHOMBOF@ios_base?3?3eofbit?5set?$AA@ DB 'ios_base::eofbit set', 00H ; `string'
CONST	ENDS
;	COMDAT ??_C@_0BG@FMKFHCIL@ios_base?3?3failbit?5set?$AA@
CONST	SEGMENT
??_C@_0BG@FMKFHCIL@ios_base?3?3failbit?5set?$AA@ DB 'ios_base::failbit se'
	DB	't', 00H					; `string'
CONST	ENDS
;	COMDAT __TI4?AVfailure@ios_base@std@@
xdata$x	SEGMENT
__TI4?AVfailure@ios_base@std@@ DD 00H
	DD	FLAT:??1failure@ios_base@std@@UAE@XZ
	DD	00H
	DD	FLAT:__CTA4?AVfailure@ios_base@std@@
xdata$x	ENDS
;	COMDAT ??_C@_0BF@PHHKMMFD@ios_base?3?3badbit?5set?$AA@
CONST	SEGMENT
??_C@_0BF@PHHKMMFD@ios_base?3?3badbit?5set?$AA@ DB 'ios_base::badbit set', 00H ; `string'
; Function compile flags: /Ogtp
; File d:\program files (x86)\microsoft visual studio 10.0\vc\include\xiosbase
CONST	ENDS
;	COMDAT ?clear@ios_base@std@@QAEXH_N@Z
_TEXT	SEGMENT
$T210267 = -20						; size = 20
$T210265 = -20						; size = 20
$T210263 = -20						; size = 20
__State$ = 8						; size = 4
$T210358 = 12						; size = 4
$T210322 = 12						; size = 4
$T210286 = 12						; size = 4
__Reraise$ = 12						; size = 1
?clear@ios_base@std@@QAEXH_N@Z PROC			; std::ios_base::clear, COMDAT
; _this$ = ecx

; 310  : 		{	// set state, possibly reraise exception

  00000	55		 push	 ebp
  00001	8b ec		 mov	 ebp, esp

; 311  : 		_Mystate = (iostate)(_State & _Statmask);

  00003	8b 45 08	 mov	 eax, DWORD PTR __State$[ebp]
  00006	83 e0 17	 and	 eax, 23			; 00000017H
  00009	89 41 0c	 mov	 DWORD PTR [ecx+12], eax

; 312  : 		if ((_Mystate & _Except) == 0)

  0000c	8b 49 10	 mov	 ecx, DWORD PTR [ecx+16]
  0000f	83 ec 14	 sub	 esp, 20			; 00000014H
  00012	23 c8		 and	 ecx, eax
  00014	0f 84 bd 00 00
	00		 je	 $LN1@clear

; 313  : 			;
; 314  : 		else if (_Reraise)

  0001a	80 7d 0c 00	 cmp	 BYTE PTR __Reraise$[ebp], 0
  0001e	74 09		 je	 SHORT $LN6@clear

; 315  : 			_RERAISE;

  00020	6a 00		 push	 0
  00022	6a 00		 push	 0
  00024	e8 00 00 00 00	 call	 __CxxThrowException@8
$LN57@clear:
$LN6@clear:

; 316  : 		else if (_Mystate & _Except & badbit)
; 317  : 			_THROW_NCEE(failure, "ios_base::badbit set");

  00029	be 01 00 00 00	 mov	 esi, 1
  0002e	f6 c1 04	 test	 cl, 4
  00031	74 35		 je	 SHORT $LN4@clear
  00033	e8 00 00 00 00	 call	 ?iostream_category@std@@YAABVerror_category@1@XZ ; std::iostream_category
  00038	8b f8		 mov	 edi, eax
  0003a	8d 45 0c	 lea	 eax, DWORD PTR $T210286[ebp]
  0003d	50		 push	 eax
  0003e	8d 4d ec	 lea	 ecx, DWORD PTR $T210263[ebp]
  00041	c7 45 0c 00 00
	00 00		 mov	 DWORD PTR $T210286[ebp], OFFSET ??_C@_0BF@PHHKMMFD@ios_base?3?3badbit?5set?$AA@
  00048	e8 00 00 00 00	 call	 ??0exception@std@@QAE@ABQBD@Z ; std::exception::exception
  0004d	68 00 00 00 00	 push	 OFFSET __TI4?AVfailure@ios_base@std@@
  00052	8d 4d ec	 lea	 ecx, DWORD PTR $T210263[ebp]
  00055	51		 push	 ecx
  00056	89 75 f8	 mov	 DWORD PTR $T210263[ebp+12], esi
  00059	89 7d fc	 mov	 DWORD PTR $T210263[ebp+16], edi
  0005c	c7 45 ec 00 00
	00 00		 mov	 DWORD PTR $T210263[ebp], OFFSET ??_7failure@ios_base@std@@6B@
  00063	e8 00 00 00 00	 call	 __CxxThrowException@8
$LN58@clear:
$LN4@clear:

; 318  : 		else if (_Mystate & _Except & failbit)

  00068	f6 c1 02	 test	 cl, 2
  0006b	74 35		 je	 SHORT $LN2@clear

; 319  : 			_THROW_NCEE(failure, "ios_base::failbit set");

  0006d	e8 00 00 00 00	 call	 ?iostream_category@std@@YAABVerror_category@1@XZ ; std::iostream_category
  00072	8d 55 0c	 lea	 edx, DWORD PTR $T210322[ebp]
  00075	52		 push	 edx
  00076	8d 4d ec	 lea	 ecx, DWORD PTR $T210265[ebp]
  00079	8b f8		 mov	 edi, eax
  0007b	c7 45 0c 00 00
	00 00		 mov	 DWORD PTR $T210322[ebp], OFFSET ??_C@_0BG@FMKFHCIL@ios_base?3?3failbit?5set?$AA@
  00082	e8 00 00 00 00	 call	 ??0exception@std@@QAE@ABQBD@Z ; std::exception::exception
  00087	68 00 00 00 00	 push	 OFFSET __TI4?AVfailure@ios_base@std@@
  0008c	8d 45 ec	 lea	 eax, DWORD PTR $T210265[ebp]
  0008f	50		 push	 eax
  00090	89 75 f8	 mov	 DWORD PTR $T210265[ebp+12], esi
  00093	89 7d fc	 mov	 DWORD PTR $T210265[ebp+16], edi
  00096	c7 45 ec 00 00
	00 00		 mov	 DWORD PTR $T210265[ebp], OFFSET ??_7failure@ios_base@std@@6B@
  0009d	e8 00 00 00 00	 call	 __CxxThrowException@8
$LN59@clear:
$LN2@clear:

; 320  : 		else
; 321  : 			_THROW_NCEE(failure, "ios_base::eofbit set");

  000a2	e8 00 00 00 00	 call	 ?iostream_category@std@@YAABVerror_category@1@XZ ; std::iostream_category
  000a7	8d 4d 0c	 lea	 ecx, DWORD PTR $T210358[ebp]
  000aa	51		 push	 ecx
  000ab	8d 4d ec	 lea	 ecx, DWORD PTR $T210267[ebp]
  000ae	8b f8		 mov	 edi, eax
  000b0	c7 45 0c 00 00
	00 00		 mov	 DWORD PTR $T210358[ebp], OFFSET ??_C@_0BF@OOHOMBOF@ios_base?3?3eofbit?5set?$AA@
  000b7	e8 00 00 00 00	 call	 ??0exception@std@@QAE@ABQBD@Z ; std::exception::exception
  000bc	68 00 00 00 00	 push	 OFFSET __TI4?AVfailure@ios_base@std@@
  000c1	8d 55 ec	 lea	 edx, DWORD PTR $T210267[ebp]
  000c4	52		 push	 edx
  000c5	89 75 f8	 mov	 DWORD PTR $T210267[ebp+12], esi
  000c8	89 7d fc	 mov	 DWORD PTR $T210267[ebp+16], edi
  000cb	c7 45 ec 00 00
	00 00		 mov	 DWORD PTR $T210267[ebp], OFFSET ??_7failure@ios_base@std@@6B@
  000d2	e8 00 00 00 00	 call	 __CxxThrowException@8
$LN60@clear:
$LN1@clear:

; 322  : 		}

  000d7	8b e5		 mov	 esp, ebp
  000d9	5d		 pop	 ebp
  000da	c2 08 00	 ret	 8
$LN56@clear:
?clear@ios_base@std@@QAEXH_N@Z ENDP			; std::ios_base::clear
; Function compile flags: /Ogtp
_TEXT	ENDS
;	COMDAT ??0runtime_error@std@@QAE@ABV01@@Z
_TEXT	SEGMENT
___that$ = 8						; size = 4
??0runtime_error@std@@QAE@ABV01@@Z PROC			; std::runtime_error::runtime_error, COMDAT
; _this$ = ecx
  00000	55		 push	 ebp
  00001	8b ec		 mov	 ebp, esp
  00003	8b 45 08	 mov	 eax, DWORD PTR ___that$[ebp]
  00006	56		 push	 esi
  00007	50		 push	 eax
  00008	8b f1		 mov	 esi, ecx
  0000a	e8 00 00 00 00	 call	 ??0exception@std@@QAE@ABV01@@Z ; std::exception::exception
  0000f	c7 06 00 00 00
	00		 mov	 DWORD PTR [esi], OFFSET ??_7runtime_error@std@@6B@
  00015	8b c6		 mov	 eax, esi
  00017	5e		 pop	 esi
  00018	5d		 pop	 ebp
  00019	c2 04 00	 ret	 4
??0runtime_error@std@@QAE@ABV01@@Z ENDP			; std::runtime_error::runtime_error
; Function compile flags: /Ogtp
_TEXT	ENDS
;	COMDAT ??0system_error@std@@QAE@ABV01@@Z
_TEXT	SEGMENT
___that$ = 8						; size = 4
??0system_error@std@@QAE@ABV01@@Z PROC			; std::system_error::system_error, COMDAT
; _this$ = ecx
  00000	55		 push	 ebp
  00001	8b ec		 mov	 ebp, esp
  00003	56		 push	 esi
  00004	57		 push	 edi
  00005	8b 7d 08	 mov	 edi, DWORD PTR ___that$[ebp]
  00008	57		 push	 edi
  00009	8b f1		 mov	 esi, ecx
  0000b	e8 00 00 00 00	 call	 ??0exception@std@@QAE@ABV01@@Z ; std::exception::exception
  00010	c7 06 00 00 00
	00		 mov	 DWORD PTR [esi], OFFSET ??_7system_error@std@@6B@
  00016	8b 47 0c	 mov	 eax, DWORD PTR [edi+12]
  00019	89 46 0c	 mov	 DWORD PTR [esi+12], eax
  0001c	8b 4f 10	 mov	 ecx, DWORD PTR [edi+16]
  0001f	5f		 pop	 edi
  00020	89 4e 10	 mov	 DWORD PTR [esi+16], ecx
  00023	8b c6		 mov	 eax, esi
  00025	5e		 pop	 esi
  00026	5d		 pop	 ebp
  00027	c2 04 00	 ret	 4
??0system_error@std@@QAE@ABV01@@Z ENDP			; std::system_error::system_error
_TEXT	ENDS
PUBLIC	?clear@ios_base@std@@QAEXH@Z			; std::ios_base::clear
; Function compile flags: /Ogtp
;	COMDAT ?clear@ios_base@std@@QAEXH@Z
_TEXT	SEGMENT
__State$ = 8						; size = 4
?clear@ios_base@std@@QAEXH@Z PROC			; std::ios_base::clear, COMDAT
; _this$ = ecx

; 325  : 		{	// set state to argument

  00000	55		 push	 ebp
  00001	8b ec		 mov	 ebp, esp

; 326  : 		clear(_State, false);

  00003	8b 45 08	 mov	 eax, DWORD PTR __State$[ebp]
  00006	6a 00		 push	 0
  00008	50		 push	 eax
  00009	e8 00 00 00 00	 call	 ?clear@ios_base@std@@QAEXH_N@Z ; std::ios_base::clear

; 327  : 		}

  0000e	5d		 pop	 ebp
  0000f	c2 04 00	 ret	 4
?clear@ios_base@std@@QAEXH@Z ENDP			; std::ios_base::clear
_TEXT	ENDS
PUBLIC	?_Init@ios_base@std@@IAEXXZ			; std::ios_base::_Init
; Function compile flags: /Ogtp
;	COMDAT ?_Init@ios_base@std@@IAEXXZ
_TEXT	SEGMENT
__Lock$210413 = -8					; size = 4
$T210409 = -4						; size = 4
?_Init@ios_base@std@@IAEXXZ PROC			; std::ios_base::_Init, COMDAT
; _this$ = ecx

; 554  : 		{	// initialize a new ios_base

  00000	55		 push	 ebp
  00001	8b ec		 mov	 ebp, esp
  00003	83 ec 08	 sub	 esp, 8
  00006	53		 push	 ebx
  00007	56		 push	 esi
  00008	8b f1		 mov	 esi, ecx
  0000a	57		 push	 edi

; 555  : 		_Ploc = 0;

  0000b	33 ff		 xor	 edi, edi

; 556  : 		_Stdstr = 0;
; 557  : 		_Except = goodbit;
; 558  : 		_Fmtfl = (fmtflags)(skipws | dec);
; 559  : 		_Prec = 6;
; 560  : 		_Wide = 0;
; 561  : 		_Arr = 0;
; 562  : 		_Calls = 0;
; 563  : 		clear(goodbit);

  0000d	57		 push	 edi
  0000e	57		 push	 edi
  0000f	89 7e 30	 mov	 DWORD PTR [esi+48], edi
  00012	89 7e 08	 mov	 DWORD PTR [esi+8], edi
  00015	89 7e 10	 mov	 DWORD PTR [esi+16], edi
  00018	c7 46 14 01 02
	00 00		 mov	 DWORD PTR [esi+20], 513	; 00000201H
  0001f	c7 46 18 06 00
	00 00		 mov	 DWORD PTR [esi+24], 6
  00026	89 7e 1c	 mov	 DWORD PTR [esi+28], edi
  00029	89 7e 20	 mov	 DWORD PTR [esi+32], edi
  0002c	89 7e 24	 mov	 DWORD PTR [esi+36], edi
  0002f	89 7e 28	 mov	 DWORD PTR [esi+40], edi
  00032	89 7e 2c	 mov	 DWORD PTR [esi+44], edi
  00035	e8 00 00 00 00	 call	 ?clear@ios_base@std@@QAEXH_N@Z ; std::ios_base::clear

; 564  : 		_Ploc = _NEW_CRT locale;

  0003a	6a 04		 push	 4
  0003c	e8 00 00 00 00	 call	 ??2@YAPAXI@Z		; operator new
  00041	8b d8		 mov	 ebx, eax
  00043	83 c4 04	 add	 esp, 4
  00046	3b df		 cmp	 ebx, edi
  00048	74 39		 je	 SHORT $LN3@Init
  0004a	e8 00 00 00 00	 call	 ?_Init@locale@std@@CAPAV_Locimp@12@XZ ; std::locale::_Init
  0004f	89 03		 mov	 DWORD PTR [ebx], eax
  00051	e8 00 00 00 00	 call	 ?_Getgloballocale@locale@std@@CAPAV_Locimp@12@XZ ; std::locale::_Getgloballocale
  00056	57		 push	 edi
  00057	8d 4d f8	 lea	 ecx, DWORD PTR __Lock$210413[ebp]
  0005a	89 45 fc	 mov	 DWORD PTR $T210409[ebp], eax
  0005d	e8 00 00 00 00	 call	 ??0_Lockit@std@@QAE@H@Z	; std::_Lockit::_Lockit
  00062	8b 4d fc	 mov	 ecx, DWORD PTR $T210409[ebp]
  00065	8b 41 04	 mov	 eax, DWORD PTR [ecx+4]
  00068	83 f8 ff	 cmp	 eax, -1
  0006b	73 04		 jae	 SHORT $LN9@Init
  0006d	40		 inc	 eax
  0006e	89 41 04	 mov	 DWORD PTR [ecx+4], eax
$LN9@Init:
  00071	8d 4d f8	 lea	 ecx, DWORD PTR __Lock$210413[ebp]
  00074	e8 00 00 00 00	 call	 ??1_Lockit@std@@QAE@XZ	; std::_Lockit::~_Lockit
  00079	5f		 pop	 edi
  0007a	89 5e 30	 mov	 DWORD PTR [esi+48], ebx
  0007d	5e		 pop	 esi
  0007e	5b		 pop	 ebx

; 565  : 		}

  0007f	8b e5		 mov	 esp, ebp
  00081	5d		 pop	 ebp
  00082	c3		 ret	 0
$LN3@Init:

; 564  : 		_Ploc = _NEW_CRT locale;

  00083	89 7e 30	 mov	 DWORD PTR [esi+48], edi
  00086	5f		 pop	 edi
  00087	5e		 pop	 esi
  00088	5b		 pop	 ebx

; 565  : 		}

  00089	8b e5		 mov	 esp, ebp
  0008b	5d		 pop	 ebp
  0008c	c3		 ret	 0
?_Init@ios_base@std@@IAEXXZ ENDP			; std::ios_base::_Init
; Function compile flags: /Ogtp
_TEXT	ENDS
;	COMDAT ??_Gfailure@ios_base@std@@UAEPAXI@Z
_TEXT	SEGMENT
___flags$ = 8						; size = 4
??_Gfailure@ios_base@std@@UAEPAXI@Z PROC		; std::ios_base::failure::`scalar deleting destructor', COMDAT
; _this$ = ecx
  00000	55		 push	 ebp
  00001	8b ec		 mov	 ebp, esp
  00003	56		 push	 esi
  00004	8b f1		 mov	 esi, ecx
  00006	e8 00 00 00 00	 call	 ??1exception@std@@UAE@XZ ; std::exception::~exception
  0000b	f6 45 08 01	 test	 BYTE PTR ___flags$[ebp], 1
  0000f	74 09		 je	 SHORT $LN13@scalar@12
  00011	56		 push	 esi
  00012	e8 00 00 00 00	 call	 ??3@YAXPAX@Z		; operator delete
  00017	83 c4 04	 add	 esp, 4
$LN13@scalar@12:
  0001a	8b c6		 mov	 eax, esi
  0001c	5e		 pop	 esi
  0001d	5d		 pop	 ebp
  0001e	c2 04 00	 ret	 4
??_Gfailure@ios_base@std@@UAEPAXI@Z ENDP		; std::ios_base::failure::`scalar deleting destructor'
; Function compile flags: /Ogtp
_TEXT	ENDS
;	COMDAT ??0failure@ios_base@std@@QAE@ABV012@@Z
_TEXT	SEGMENT
___that$ = 8						; size = 4
??0failure@ios_base@std@@QAE@ABV012@@Z PROC		; std::ios_base::failure::failure, COMDAT
; _this$ = ecx
  00000	55		 push	 ebp
  00001	8b ec		 mov	 ebp, esp
  00003	56		 push	 esi
  00004	57		 push	 edi
  00005	8b 7d 08	 mov	 edi, DWORD PTR ___that$[ebp]
  00008	57		 push	 edi
  00009	8b f1		 mov	 esi, ecx
  0000b	e8 00 00 00 00	 call	 ??0exception@std@@QAE@ABV01@@Z ; std::exception::exception
  00010	c7 06 00 00 00
	00		 mov	 DWORD PTR [esi], OFFSET ??_7system_error@std@@6B@
  00016	8b 47 0c	 mov	 eax, DWORD PTR [edi+12]
  00019	89 46 0c	 mov	 DWORD PTR [esi+12], eax
  0001c	8b 4f 10	 mov	 ecx, DWORD PTR [edi+16]
  0001f	5f		 pop	 edi
  00020	89 4e 10	 mov	 DWORD PTR [esi+16], ecx
  00023	c7 06 00 00 00
	00		 mov	 DWORD PTR [esi], OFFSET ??_7failure@ios_base@std@@6B@
  00029	8b c6		 mov	 eax, esi
  0002b	5e		 pop	 esi
  0002c	5d		 pop	 ebp
  0002d	c2 04 00	 ret	 4
??0failure@ios_base@std@@QAE@ABV012@@Z ENDP		; std::ios_base::failure::failure
_TEXT	ENDS
PUBLIC	??1?$_Yarn@D@std@@QAE@XZ			; std::_Yarn<char>::~_Yarn<char>
; Function compile flags: /Ogtp
; File d:\program files (x86)\microsoft visual studio 10.0\vc\include\xutility
;	COMDAT ??1?$_Yarn@D@std@@QAE@XZ
_TEXT	SEGMENT
??1?$_Yarn@D@std@@QAE@XZ PROC				; std::_Yarn<char>::~_Yarn<char>, COMDAT
; _this$ = ecx

; 3365 : 		{	// destroy the object

  00000	56		 push	 esi
  00001	8b f1		 mov	 esi, ecx

; 3366 : 		_Tidy();

  00003	8b 06		 mov	 eax, DWORD PTR [esi]
  00005	85 c0		 test	 eax, eax
  00007	74 09		 je	 SHORT $LN6@Yarn
  00009	50		 push	 eax
  0000a	e8 00 00 00 00	 call	 _free
  0000f	83 c4 04	 add	 esp, 4
$LN6@Yarn:
  00012	c7 06 00 00 00
	00		 mov	 DWORD PTR [esi], 0
  00018	5e		 pop	 esi

; 3367 : 		}

  00019	c3		 ret	 0
??1?$_Yarn@D@std@@QAE@XZ ENDP				; std::_Yarn<char>::~_Yarn<char>
_TEXT	ENDS
PUBLIC	??_7?$basic_streambuf@DU?$char_traits@D@std@@@std@@6B@ ; std::basic_streambuf<char,std::char_traits<char> >::`vftable'
PUBLIC	??1?$basic_streambuf@DU?$char_traits@D@std@@@std@@UAE@XZ ; std::basic_streambuf<char,std::char_traits<char> >::~basic_streambuf<char,std::char_traits<char> >
PUBLIC	??_R4?$basic_streambuf@DU?$char_traits@D@std@@@std@@6B@ ; std::basic_streambuf<char,std::char_traits<char> >::`RTTI Complete Object Locator'
PUBLIC	??_R0?AV?$basic_streambuf@DU?$char_traits@D@std@@@std@@@8 ; std::basic_streambuf<char,std::char_traits<char> > `RTTI Type Descriptor'
PUBLIC	??_R3?$basic_streambuf@DU?$char_traits@D@std@@@std@@8 ; std::basic_streambuf<char,std::char_traits<char> >::`RTTI Class Hierarchy Descriptor'
PUBLIC	??_R2?$basic_streambuf@DU?$char_traits@D@std@@@std@@8 ; std::basic_streambuf<char,std::char_traits<char> >::`RTTI Base Class Array'
PUBLIC	??_R1A@?0A@EA@?$basic_streambuf@DU?$char_traits@D@std@@@std@@8 ; std::basic_streambuf<char,std::char_traits<char> >::`RTTI Base Class Descriptor at (0,-1,0,64)'
PUBLIC	?_Lock@?$basic_streambuf@DU?$char_traits@D@std@@@std@@UAEXXZ ; std::basic_streambuf<char,std::char_traits<char> >::_Lock
PUBLIC	?_Unlock@?$basic_streambuf@DU?$char_traits@D@std@@@std@@UAEXXZ ; std::basic_streambuf<char,std::char_traits<char> >::_Unlock
PUBLIC	?overflow@?$basic_streambuf@DU?$char_traits@D@std@@@std@@MAEHH@Z ; std::basic_streambuf<char,std::char_traits<char> >::overflow
PUBLIC	?pbackfail@?$basic_streambuf@DU?$char_traits@D@std@@@std@@MAEHH@Z ; std::basic_streambuf<char,std::char_traits<char> >::pbackfail
PUBLIC	?showmanyc@?$basic_streambuf@DU?$char_traits@D@std@@@std@@MAE_JXZ ; std::basic_streambuf<char,std::char_traits<char> >::showmanyc
PUBLIC	?underflow@?$basic_streambuf@DU?$char_traits@D@std@@@std@@MAEHXZ ; std::basic_streambuf<char,std::char_traits<char> >::underflow
PUBLIC	?uflow@?$basic_streambuf@DU?$char_traits@D@std@@@std@@MAEHXZ ; std::basic_streambuf<char,std::char_traits<char> >::uflow
PUBLIC	?xsgetn@?$basic_streambuf@DU?$char_traits@D@std@@@std@@MAE_JPAD_J@Z ; std::basic_streambuf<char,std::char_traits<char> >::xsgetn
PUBLIC	?xsputn@?$basic_streambuf@DU?$char_traits@D@std@@@std@@MAE_JPBD_J@Z ; std::basic_streambuf<char,std::char_traits<char> >::xsputn
PUBLIC	?seekoff@?$basic_streambuf@DU?$char_traits@D@std@@@std@@MAE?AV?$fpos@H@2@_JHH@Z ; std::basic_streambuf<char,std::char_traits<char> >::seekoff
PUBLIC	?seekpos@?$basic_streambuf@DU?$char_traits@D@std@@@std@@MAE?AV?$fpos@H@2@V32@H@Z ; std::basic_streambuf<char,std::char_traits<char> >::seekpos
PUBLIC	?setbuf@?$basic_streambuf@DU?$char_traits@D@std@@@std@@MAEPAV12@PAD_J@Z ; std::basic_streambuf<char,std::char_traits<char> >::setbuf
PUBLIC	?sync@?$basic_streambuf@DU?$char_traits@D@std@@@std@@MAEHXZ ; std::basic_streambuf<char,std::char_traits<char> >::sync
PUBLIC	?imbue@?$basic_streambuf@DU?$char_traits@D@std@@@std@@MAEXABVlocale@2@@Z ; std::basic_streambuf<char,std::char_traits<char> >::imbue
EXTRN	??1_Mutex@std@@QAE@XZ:PROC			; std::_Mutex::~_Mutex
EXTRN	??_E?$basic_streambuf@DU?$char_traits@D@std@@@std@@UAEPAXI@Z:PROC ; std::basic_streambuf<char,std::char_traits<char> >::`vector deleting destructor'
;	COMDAT ??_R1A@?0A@EA@?$basic_streambuf@DU?$char_traits@D@std@@@std@@8
; File d:\program files (x86)\microsoft visual studio 10.0\vc\include\xlocale
rdata$r	SEGMENT
??_R1A@?0A@EA@?$basic_streambuf@DU?$char_traits@D@std@@@std@@8 DD FLAT:??_R0?AV?$basic_streambuf@DU?$char_traits@D@std@@@std@@@8 ; std::basic_streambuf<char,std::char_traits<char> >::`RTTI Base Class Descriptor at (0,-1,0,64)'
	DD	00H
	DD	00H
	DD	0ffffffffH
	DD	00H
	DD	040H
	DD	FLAT:??_R3?$basic_streambuf@DU?$char_traits@D@std@@@std@@8
rdata$r	ENDS
;	COMDAT ??_R2?$basic_streambuf@DU?$char_traits@D@std@@@std@@8
rdata$r	SEGMENT
??_R2?$basic_streambuf@DU?$char_traits@D@std@@@std@@8 DD FLAT:??_R1A@?0A@EA@?$basic_streambuf@DU?$char_traits@D@std@@@std@@8 ; std::basic_streambuf<char,std::char_traits<char> >::`RTTI Base Class Array'
rdata$r	ENDS
;	COMDAT ??_R3?$basic_streambuf@DU?$char_traits@D@std@@@std@@8
rdata$r	SEGMENT
??_R3?$basic_streambuf@DU?$char_traits@D@std@@@std@@8 DD 00H ; std::basic_streambuf<char,std::char_traits<char> >::`RTTI Class Hierarchy Descriptor'
	DD	00H
	DD	01H
	DD	FLAT:??_R2?$basic_streambuf@DU?$char_traits@D@std@@@std@@8
rdata$r	ENDS
;	COMDAT ??_R0?AV?$basic_streambuf@DU?$char_traits@D@std@@@std@@@8
_DATA	SEGMENT
??_R0?AV?$basic_streambuf@DU?$char_traits@D@std@@@std@@@8 DD FLAT:??_7type_info@@6B@ ; std::basic_streambuf<char,std::char_traits<char> > `RTTI Type Descriptor'
	DD	00H
	DB	'.?AV?$basic_streambuf@DU?$char_traits@D@std@@@std@@', 00H
_DATA	ENDS
;	COMDAT ??_R4?$basic_streambuf@DU?$char_traits@D@std@@@std@@6B@
rdata$r	SEGMENT
??_R4?$basic_streambuf@DU?$char_traits@D@std@@@std@@6B@ DD 00H ; std::basic_streambuf<char,std::char_traits<char> >::`RTTI Complete Object Locator'
	DD	00H
	DD	00H
	DD	FLAT:??_R0?AV?$basic_streambuf@DU?$char_traits@D@std@@@std@@@8
	DD	FLAT:??_R3?$basic_streambuf@DU?$char_traits@D@std@@@std@@8
rdata$r	ENDS
;	COMDAT ??_7?$basic_streambuf@DU?$char_traits@D@std@@@std@@6B@
CONST	SEGMENT
??_7?$basic_streambuf@DU?$char_traits@D@std@@@std@@6B@ DD FLAT:??_R4?$basic_streambuf@DU?$char_traits@D@std@@@std@@6B@ ; std::basic_streambuf<char,std::char_traits<char> >::`vftable'
	DD	FLAT:??_E?$basic_streambuf@DU?$char_traits@D@std@@@std@@UAEPAXI@Z
	DD	FLAT:?_Lock@?$basic_streambuf@DU?$char_traits@D@std@@@std@@UAEXXZ
	DD	FLAT:?_Unlock@?$basic_streambuf@DU?$char_traits@D@std@@@std@@UAEXXZ
	DD	FLAT:?overflow@?$basic_streambuf@DU?$char_traits@D@std@@@std@@MAEHH@Z
	DD	FLAT:?pbackfail@?$basic_streambuf@DU?$char_traits@D@std@@@std@@MAEHH@Z
	DD	FLAT:?showmanyc@?$basic_streambuf@DU?$char_traits@D@std@@@std@@MAE_JXZ
	DD	FLAT:?underflow@?$basic_streambuf@DU?$char_traits@D@std@@@std@@MAEHXZ
	DD	FLAT:?uflow@?$basic_streambuf@DU?$char_traits@D@std@@@std@@MAEHXZ
	DD	FLAT:?xsgetn@?$basic_streambuf@DU?$char_traits@D@std@@@std@@MAE_JPAD_J@Z
	DD	FLAT:?xsputn@?$basic_streambuf@DU?$char_traits@D@std@@@std@@MAE_JPBD_J@Z
	DD	FLAT:?seekoff@?$basic_streambuf@DU?$char_traits@D@std@@@std@@MAE?AV?$fpos@H@2@_JHH@Z
	DD	FLAT:?seekpos@?$basic_streambuf@DU?$char_traits@D@std@@@std@@MAE?AV?$fpos@H@2@V32@H@Z
	DD	FLAT:?setbuf@?$basic_streambuf@DU?$char_traits@D@std@@@std@@MAEPAV12@PAD_J@Z
	DD	FLAT:?sync@?$basic_streambuf@DU?$char_traits@D@std@@@std@@MAEHXZ
	DD	FLAT:?imbue@?$basic_streambuf@DU?$char_traits@D@std@@@std@@MAEXABVlocale@2@@Z
; Function compile flags: /Ogtp
; File d:\program files (x86)\microsoft visual studio 10.0\vc\include\streambuf
CONST	ENDS
;	COMDAT ??1?$basic_streambuf@DU?$char_traits@D@std@@@std@@UAE@XZ
_TEXT	SEGMENT
__Lock$210503 = -8					; size = 4
_this$ = -4						; size = 4
??1?$basic_streambuf@DU?$char_traits@D@std@@@std@@UAE@XZ PROC ; std::basic_streambuf<char,std::char_traits<char> >::~basic_streambuf<char,std::char_traits<char> >, COMDAT
; _this$ = ecx

; 79   : 		{	// destroy the object

  00000	55		 push	 ebp
  00001	8b ec		 mov	 ebp, esp
  00003	83 ec 08	 sub	 esp, 8
  00006	53		 push	 ebx
  00007	56		 push	 esi
  00008	8b f1		 mov	 esi, ecx

; 80   : 		_DELETE_CRT(_Plocale);

  0000a	8b 5e 38	 mov	 ebx, DWORD PTR [esi+56]
  0000d	89 75 fc	 mov	 DWORD PTR _this$[ebp], esi
  00010	c7 06 00 00 00
	00		 mov	 DWORD PTR [esi], OFFSET ??_7?$basic_streambuf@DU?$char_traits@D@std@@@std@@6B@
  00016	85 db		 test	 ebx, ebx
  00018	74 4d		 je	 SHORT $LN6@basic_stre
  0001a	57		 push	 edi
  0001b	8b 3b		 mov	 edi, DWORD PTR [ebx]
  0001d	85 ff		 test	 edi, edi
  0001f	74 3c		 je	 SHORT $LN12@basic_stre
  00021	6a 00		 push	 0
  00023	8d 4d f8	 lea	 ecx, DWORD PTR __Lock$210503[ebp]
  00026	e8 00 00 00 00	 call	 ??0_Lockit@std@@QAE@H@Z	; std::_Lockit::_Lockit
  0002b	8b 47 04	 mov	 eax, DWORD PTR [edi+4]
  0002e	85 c0		 test	 eax, eax
  00030	74 09		 je	 SHORT $LN14@basic_stre
  00032	83 f8 ff	 cmp	 eax, -1
  00035	73 04		 jae	 SHORT $LN14@basic_stre
  00037	48		 dec	 eax
  00038	89 47 04	 mov	 DWORD PTR [edi+4], eax
$LN14@basic_stre:
  0003b	8b 77 04	 mov	 esi, DWORD PTR [edi+4]
  0003e	f7 de		 neg	 esi
  00040	1b f6		 sbb	 esi, esi
  00042	8d 4d f8	 lea	 ecx, DWORD PTR __Lock$210503[ebp]
  00045	f7 d6		 not	 esi
  00047	e8 00 00 00 00	 call	 ??1_Lockit@std@@QAE@XZ	; std::_Lockit::~_Lockit
  0004c	23 f7		 and	 esi, edi
  0004e	74 0a		 je	 SHORT $LN18@basic_stre
  00050	8b 06		 mov	 eax, DWORD PTR [esi]
  00052	8b 10		 mov	 edx, DWORD PTR [eax]
  00054	6a 01		 push	 1
  00056	8b ce		 mov	 ecx, esi
  00058	ff d2		 call	 edx
$LN18@basic_stre:
  0005a	8b 75 fc	 mov	 esi, DWORD PTR _this$[ebp]
$LN12@basic_stre:
  0005d	53		 push	 ebx
  0005e	e8 00 00 00 00	 call	 ??3@YAXPAX@Z		; operator delete
  00063	83 c4 04	 add	 esp, 4
  00066	5f		 pop	 edi
$LN6@basic_stre:

; 81   : 		}

  00067	8d 4e 04	 lea	 ecx, DWORD PTR [esi+4]
  0006a	e8 00 00 00 00	 call	 ??1_Mutex@std@@QAE@XZ	; std::_Mutex::~_Mutex
  0006f	5e		 pop	 esi
  00070	5b		 pop	 ebx
  00071	8b e5		 mov	 esp, ebp
  00073	5d		 pop	 ebp
  00074	c3		 ret	 0
??1?$basic_streambuf@DU?$char_traits@D@std@@@std@@UAE@XZ ENDP ; std::basic_streambuf<char,std::char_traits<char> >::~basic_streambuf<char,std::char_traits<char> >
_TEXT	ENDS
PUBLIC	?to_char_type@?$char_traits@D@std@@SADABH@Z	; std::char_traits<char>::to_char_type
; Function compile flags: /Ogtp
; File d:\program files (x86)\microsoft visual studio 10.0\vc\include\iosfwd
;	COMDAT ?to_char_type@?$char_traits@D@std@@SADABH@Z
_TEXT	SEGMENT
__Meta$ = 8						; size = 4
?to_char_type@?$char_traits@D@std@@SADABH@Z PROC	; std::char_traits<char>::to_char_type, COMDAT

; 541  : 		{	// convert metacharacter to character

  00000	55		 push	 ebp
  00001	8b ec		 mov	 ebp, esp

; 542  : 		return ((_Elem)_Meta);

  00003	8b 45 08	 mov	 eax, DWORD PTR __Meta$[ebp]
  00006	8a 00		 mov	 al, BYTE PTR [eax]

; 543  : 		}

  00008	5d		 pop	 ebp
  00009	c3		 ret	 0
?to_char_type@?$char_traits@D@std@@SADABH@Z ENDP	; std::char_traits<char>::to_char_type
_TEXT	ENDS
EXTRN	?_Lock@_Mutex@std@@QAEXXZ:PROC			; std::_Mutex::_Lock
; Function compile flags: /Ogtp
; File d:\program files (x86)\microsoft visual studio 10.0\vc\include\streambuf
;	COMDAT ?_Lock@?$basic_streambuf@DU?$char_traits@D@std@@@std@@UAEXXZ
_TEXT	SEGMENT
?_Lock@?$basic_streambuf@DU?$char_traits@D@std@@@std@@UAEXXZ PROC ; std::basic_streambuf<char,std::char_traits<char> >::_Lock, COMDAT
; _this$ = ecx

; 207  : 		_Mylock._Lock();

  00000	83 c1 04	 add	 ecx, 4
  00003	e9 00 00 00 00	 jmp	 ?_Lock@_Mutex@std@@QAEXXZ ; std::_Mutex::_Lock
?_Lock@?$basic_streambuf@DU?$char_traits@D@std@@@std@@UAEXXZ ENDP ; std::basic_streambuf<char,std::char_traits<char> >::_Lock
_TEXT	ENDS
EXTRN	?_Unlock@_Mutex@std@@QAEXXZ:PROC		; std::_Mutex::_Unlock
; Function compile flags: /Ogtp
;	COMDAT ?_Unlock@?$basic_streambuf@DU?$char_traits@D@std@@@std@@UAEXXZ
_TEXT	SEGMENT
?_Unlock@?$basic_streambuf@DU?$char_traits@D@std@@@std@@UAEXXZ PROC ; std::basic_streambuf<char,std::char_traits<char> >::_Unlock, COMDAT
; _this$ = ecx

; 212  : 		_Mylock._Unlock();

  00000	83 c1 04	 add	 ecx, 4
  00003	e9 00 00 00 00	 jmp	 ?_Unlock@_Mutex@std@@QAEXXZ ; std::_Mutex::_Unlock
?_Unlock@?$basic_streambuf@DU?$char_traits@D@std@@@std@@UAEXXZ ENDP ; std::basic_streambuf<char,std::char_traits<char> >::_Unlock
; Function compile flags: /Ogtp
_TEXT	ENDS
;	COMDAT ?overflow@?$basic_streambuf@DU?$char_traits@D@std@@@std@@MAEHH@Z
_TEXT	SEGMENT
___formal$ = 8						; size = 4
?overflow@?$basic_streambuf@DU?$char_traits@D@std@@@std@@MAEHH@Z PROC ; std::basic_streambuf<char,std::char_traits<char> >::overflow, COMDAT
; _this$ = ecx

; 338  : 		return (_Traits::eof());

  00000	83 c8 ff	 or	 eax, -1

; 339  : 		}

  00003	c2 04 00	 ret	 4
?overflow@?$basic_streambuf@DU?$char_traits@D@std@@@std@@MAEHH@Z ENDP ; std::basic_streambuf<char,std::char_traits<char> >::overflow
; Function compile flags: /Ogtp
_TEXT	ENDS
;	COMDAT ?pbackfail@?$basic_streambuf@DU?$char_traits@D@std@@@std@@MAEHH@Z
_TEXT	SEGMENT
___formal$ = 8						; size = 4
?pbackfail@?$basic_streambuf@DU?$char_traits@D@std@@@std@@MAEHH@Z PROC ; std::basic_streambuf<char,std::char_traits<char> >::pbackfail, COMDAT
; _this$ = ecx

; 343  : 		return (_Traits::eof());

  00000	83 c8 ff	 or	 eax, -1

; 344  : 		}

  00003	c2 04 00	 ret	 4
?pbackfail@?$basic_streambuf@DU?$char_traits@D@std@@@std@@MAEHH@Z ENDP ; std::basic_streambuf<char,std::char_traits<char> >::pbackfail
; Function compile flags: /Ogtp
_TEXT	ENDS
;	COMDAT ?showmanyc@?$basic_streambuf@DU?$char_traits@D@std@@@std@@MAE_JXZ
_TEXT	SEGMENT
?showmanyc@?$basic_streambuf@DU?$char_traits@D@std@@@std@@MAE_JXZ PROC ; std::basic_streambuf<char,std::char_traits<char> >::showmanyc, COMDAT
; _this$ = ecx

; 348  : 		return (0);

  00000	33 c0		 xor	 eax, eax
  00002	33 d2		 xor	 edx, edx

; 349  : 		}

  00004	c3		 ret	 0
?showmanyc@?$basic_streambuf@DU?$char_traits@D@std@@@std@@MAE_JXZ ENDP ; std::basic_streambuf<char,std::char_traits<char> >::showmanyc
; Function compile flags: /Ogtp
_TEXT	ENDS
;	COMDAT ?underflow@?$basic_streambuf@DU?$char_traits@D@std@@@std@@MAEHXZ
_TEXT	SEGMENT
?underflow@?$basic_streambuf@DU?$char_traits@D@std@@@std@@MAEHXZ PROC ; std::basic_streambuf<char,std::char_traits<char> >::underflow, COMDAT
; _this$ = ecx

; 353  : 		return (_Traits::eof());

  00000	83 c8 ff	 or	 eax, -1

; 354  : 		}

  00003	c3		 ret	 0
?underflow@?$basic_streambuf@DU?$char_traits@D@std@@@std@@MAEHXZ ENDP ; std::basic_streambuf<char,std::char_traits<char> >::underflow
; Function compile flags: /Ogtp
_TEXT	ENDS
;	COMDAT ?setbuf@?$basic_streambuf@DU?$char_traits@D@std@@@std@@MAEPAV12@PAD_J@Z
_TEXT	SEGMENT
___formal$ = 8						; size = 4
___formal$ = 12						; size = 8
?setbuf@?$basic_streambuf@DU?$char_traits@D@std@@@std@@MAEPAV12@PAD_J@Z PROC ; std::basic_streambuf<char,std::char_traits<char> >::setbuf, COMDAT
; _this$ = ecx

; 434  : 		{	// offer buffer to external agent (do nothing)

  00000	8b c1		 mov	 eax, ecx

; 435  : 		return (this);
; 436  : 		}

  00002	c2 0c 00	 ret	 12			; 0000000cH
?setbuf@?$basic_streambuf@DU?$char_traits@D@std@@@std@@MAEPAV12@PAD_J@Z ENDP ; std::basic_streambuf<char,std::char_traits<char> >::setbuf
; Function compile flags: /Ogtp
_TEXT	ENDS
;	COMDAT ?sync@?$basic_streambuf@DU?$char_traits@D@std@@@std@@MAEHXZ
_TEXT	SEGMENT
?sync@?$basic_streambuf@DU?$char_traits@D@std@@@std@@MAEHXZ PROC ; std::basic_streambuf<char,std::char_traits<char> >::sync, COMDAT
; _this$ = ecx

; 440  : 		return (0);

  00000	33 c0		 xor	 eax, eax

; 441  : 		}

  00002	c3		 ret	 0
?sync@?$basic_streambuf@DU?$char_traits@D@std@@@std@@MAEHXZ ENDP ; std::basic_streambuf<char,std::char_traits<char> >::sync
; Function compile flags: /Ogtp
_TEXT	ENDS
;	COMDAT ?imbue@?$basic_streambuf@DU?$char_traits@D@std@@@std@@MAEXABVlocale@2@@Z
_TEXT	SEGMENT
___formal$ = 8						; size = 4
?imbue@?$basic_streambuf@DU?$char_traits@D@std@@@std@@MAEXABVlocale@2@@Z PROC ; std::basic_streambuf<char,std::char_traits<char> >::imbue, COMDAT
; _this$ = ecx

; 445  : 		}

  00000	c2 04 00	 ret	 4
?imbue@?$basic_streambuf@DU?$char_traits@D@std@@@std@@MAEXABVlocale@2@@Z ENDP ; std::basic_streambuf<char,std::char_traits<char> >::imbue
_TEXT	ENDS
PUBLIC	?gptr@?$basic_streambuf@DU?$char_traits@D@std@@@std@@IBEPADXZ ; std::basic_streambuf<char,std::char_traits<char> >::gptr
; Function compile flags: /Ogtp
;	COMDAT ?gptr@?$basic_streambuf@DU?$char_traits@D@std@@@std@@IBEPADXZ
_TEXT	SEGMENT
?gptr@?$basic_streambuf@DU?$char_traits@D@std@@@std@@IBEPADXZ PROC ; std::basic_streambuf<char,std::char_traits<char> >::gptr, COMDAT
; _this$ = ecx

; 223  : 		return (*_IGnext);

  00000	8b 41 20	 mov	 eax, DWORD PTR [ecx+32]
  00003	8b 00		 mov	 eax, DWORD PTR [eax]

; 224  : 		}

  00005	c3		 ret	 0
?gptr@?$basic_streambuf@DU?$char_traits@D@std@@@std@@IBEPADXZ ENDP ; std::basic_streambuf<char,std::char_traits<char> >::gptr
_TEXT	ENDS
PUBLIC	?pptr@?$basic_streambuf@DU?$char_traits@D@std@@@std@@IBEPADXZ ; std::basic_streambuf<char,std::char_traits<char> >::pptr
; Function compile flags: /Ogtp
;	COMDAT ?pptr@?$basic_streambuf@DU?$char_traits@D@std@@@std@@IBEPADXZ
_TEXT	SEGMENT
?pptr@?$basic_streambuf@DU?$char_traits@D@std@@@std@@IBEPADXZ PROC ; std::basic_streambuf<char,std::char_traits<char> >::pptr, COMDAT
; _this$ = ecx

; 233  : 		return (*_IPnext);

  00000	8b 41 24	 mov	 eax, DWORD PTR [ecx+36]
  00003	8b 00		 mov	 eax, DWORD PTR [eax]

; 234  : 		}

  00005	c3		 ret	 0
?pptr@?$basic_streambuf@DU?$char_traits@D@std@@@std@@IBEPADXZ ENDP ; std::basic_streambuf<char,std::char_traits<char> >::pptr
_TEXT	ENDS
PUBLIC	?gbump@?$basic_streambuf@DU?$char_traits@D@std@@@std@@IAEXH@Z ; std::basic_streambuf<char,std::char_traits<char> >::gbump
; Function compile flags: /Ogtp
;	COMDAT ?gbump@?$basic_streambuf@DU?$char_traits@D@std@@@std@@IAEXH@Z
_TEXT	SEGMENT
__Off$ = 8						; size = 4
?gbump@?$basic_streambuf@DU?$char_traits@D@std@@@std@@IAEXH@Z PROC ; std::basic_streambuf<char,std::char_traits<char> >::gbump, COMDAT
; _this$ = ecx

; 242  : 		{	// alter current position in read buffer by _Off

  00000	55		 push	 ebp
  00001	8b ec		 mov	 ebp, esp

; 243  : 		*_IGcount -= _Off;

  00003	8b 41 30	 mov	 eax, DWORD PTR [ecx+48]
  00006	8b 55 08	 mov	 edx, DWORD PTR __Off$[ebp]
  00009	29 10		 sub	 DWORD PTR [eax], edx

; 244  : 		*_IGnext += _Off;

  0000b	8b 49 20	 mov	 ecx, DWORD PTR [ecx+32]
  0000e	01 11		 add	 DWORD PTR [ecx], edx

; 245  : 		}

  00010	5d		 pop	 ebp
  00011	c2 04 00	 ret	 4
?gbump@?$basic_streambuf@DU?$char_traits@D@std@@@std@@IAEXH@Z ENDP ; std::basic_streambuf<char,std::char_traits<char> >::gbump
_TEXT	ENDS
PUBLIC	?_Gninc@?$basic_streambuf@DU?$char_traits@D@std@@@std@@IAEPADXZ ; std::basic_streambuf<char,std::char_traits<char> >::_Gninc
; Function compile flags: /Ogtp
;	COMDAT ?_Gninc@?$basic_streambuf@DU?$char_traits@D@std@@@std@@IAEPADXZ
_TEXT	SEGMENT
?_Gninc@?$basic_streambuf@DU?$char_traits@D@std@@@std@@IAEPADXZ PROC ; std::basic_streambuf<char,std::char_traits<char> >::_Gninc, COMDAT
; _this$ = ecx

; 267  : 		--*_IGcount;

  00000	8b 41 30	 mov	 eax, DWORD PTR [ecx+48]
  00003	ff 08		 dec	 DWORD PTR [eax]

; 268  : 		return ((*_IGnext)++);

  00005	8b 49 20	 mov	 ecx, DWORD PTR [ecx+32]
  00008	8b 01		 mov	 eax, DWORD PTR [ecx]
  0000a	8d 50 01	 lea	 edx, DWORD PTR [eax+1]
  0000d	89 11		 mov	 DWORD PTR [ecx], edx

; 269  : 		}

  0000f	c3		 ret	 0
?_Gninc@?$basic_streambuf@DU?$char_traits@D@std@@@std@@IAEPADXZ ENDP ; std::basic_streambuf<char,std::char_traits<char> >::_Gninc
_TEXT	ENDS
PUBLIC	?_Gnavail@?$basic_streambuf@DU?$char_traits@D@std@@@std@@IBE_JXZ ; std::basic_streambuf<char,std::char_traits<char> >::_Gnavail
; Function compile flags: /Ogtp
;	COMDAT ?_Gnavail@?$basic_streambuf@DU?$char_traits@D@std@@@std@@IBE_JXZ
_TEXT	SEGMENT
?_Gnavail@?$basic_streambuf@DU?$char_traits@D@std@@@std@@IBE_JXZ PROC ; std::basic_streambuf<char,std::char_traits<char> >::_Gnavail, COMDAT
; _this$ = ecx

; 279  : 		return (*_IGnext != 0 ? *_IGcount : 0);

  00000	8b 41 20	 mov	 eax, DWORD PTR [ecx+32]
  00003	83 38 00	 cmp	 DWORD PTR [eax], 0
  00006	74 07		 je	 SHORT $LN3@Gnavail
  00008	8b 49 30	 mov	 ecx, DWORD PTR [ecx+48]
  0000b	8b 01		 mov	 eax, DWORD PTR [ecx]
  0000d	99		 cdq

; 280  : 		}

  0000e	c3		 ret	 0
$LN3@Gnavail:

; 279  : 		return (*_IGnext != 0 ? *_IGcount : 0);

  0000f	33 c0		 xor	 eax, eax
  00011	99		 cdq

; 280  : 		}

  00012	c3		 ret	 0
?_Gnavail@?$basic_streambuf@DU?$char_traits@D@std@@@std@@IBE_JXZ ENDP ; std::basic_streambuf<char,std::char_traits<char> >::_Gnavail
_TEXT	ENDS
PUBLIC	?pbump@?$basic_streambuf@DU?$char_traits@D@std@@@std@@IAEXH@Z ; std::basic_streambuf<char,std::char_traits<char> >::pbump
; Function compile flags: /Ogtp
;	COMDAT ?pbump@?$basic_streambuf@DU?$char_traits@D@std@@@std@@IAEXH@Z
_TEXT	SEGMENT
__Off$ = 8						; size = 4
?pbump@?$basic_streambuf@DU?$char_traits@D@std@@@std@@IAEXH@Z PROC ; std::basic_streambuf<char,std::char_traits<char> >::pbump, COMDAT
; _this$ = ecx

; 283  : 		{	// alter current position in write buffer by _Off

  00000	55		 push	 ebp
  00001	8b ec		 mov	 ebp, esp

; 284  : 		*_IPcount -= _Off;

  00003	8b 41 34	 mov	 eax, DWORD PTR [ecx+52]
  00006	8b 55 08	 mov	 edx, DWORD PTR __Off$[ebp]
  00009	29 10		 sub	 DWORD PTR [eax], edx

; 285  : 		*_IPnext += _Off;

  0000b	8b 49 24	 mov	 ecx, DWORD PTR [ecx+36]
  0000e	01 11		 add	 DWORD PTR [ecx], edx

; 286  : 		}

  00010	5d		 pop	 ebp
  00011	c2 04 00	 ret	 4
?pbump@?$basic_streambuf@DU?$char_traits@D@std@@@std@@IAEXH@Z ENDP ; std::basic_streambuf<char,std::char_traits<char> >::pbump
_TEXT	ENDS
PUBLIC	??0?$fpos@H@std@@QAE@_J@Z			; std::fpos<int>::fpos<int>
; Function compile flags: /Ogtp
; File d:\program files (x86)\microsoft visual studio 10.0\vc\include\iosfwd
;	COMDAT ??0?$fpos@H@std@@QAE@_J@Z
_TEXT	SEGMENT
__Off$ = 8						; size = 8
??0?$fpos@H@std@@QAE@_J@Z PROC				; std::fpos<int>::fpos<int>, COMDAT
; _this$ = ecx

; 40   : 		{	// construct with stream offset

  00000	55		 push	 ebp
  00001	8b ec		 mov	 ebp, esp
  00003	8b 55 0c	 mov	 edx, DWORD PTR __Off$[ebp+4]
  00006	8b c1		 mov	 eax, ecx
  00008	8b 4d 08	 mov	 ecx, DWORD PTR __Off$[ebp]
  0000b	89 08		 mov	 DWORD PTR [eax], ecx
  0000d	33 c9		 xor	 ecx, ecx
  0000f	89 50 04	 mov	 DWORD PTR [eax+4], edx
  00012	89 48 08	 mov	 DWORD PTR [eax+8], ecx
  00015	89 48 0c	 mov	 DWORD PTR [eax+12], ecx
  00018	89 48 10	 mov	 DWORD PTR [eax+16], ecx

; 41   : 		}

  0001b	5d		 pop	 ebp
  0001c	c2 08 00	 ret	 8
??0?$fpos@H@std@@QAE@_J@Z ENDP				; std::fpos<int>::fpos<int>
; Function compile flags: /Ogtp
; File d:\program files (x86)\microsoft visual studio 10.0\vc\include\streambuf
_TEXT	ENDS
;	COMDAT ?uflow@?$basic_streambuf@DU?$char_traits@D@std@@@std@@MAEHXZ
_TEXT	SEGMENT
?uflow@?$basic_streambuf@DU?$char_traits@D@std@@@std@@MAEHXZ PROC ; std::basic_streambuf<char,std::char_traits<char> >::uflow, COMDAT
; _this$ = ecx

; 357  : 		{	// get a character from stream, point past it

  00000	56		 push	 esi
  00001	8b f1		 mov	 esi, ecx

; 358  : 		return (_Traits::eq_int_type(_Traits::eof(), underflow())
; 359  : 			? _Traits::eof() : _Traits::to_int_type(*_Gninc()));

  00003	8b 06		 mov	 eax, DWORD PTR [esi]
  00005	8b 50 18	 mov	 edx, DWORD PTR [eax+24]
  00008	ff d2		 call	 edx
  0000a	83 f8 ff	 cmp	 eax, -1
  0000d	75 04		 jne	 SHORT $LN3@uflow
  0000f	0b c0		 or	 eax, eax
  00011	5e		 pop	 esi

; 360  : 		}

  00012	c3		 ret	 0
$LN3@uflow:

; 358  : 		return (_Traits::eq_int_type(_Traits::eof(), underflow())
; 359  : 			? _Traits::eof() : _Traits::to_int_type(*_Gninc()));

  00013	8b 46 30	 mov	 eax, DWORD PTR [esi+48]
  00016	ff 08		 dec	 DWORD PTR [eax]
  00018	8b 46 20	 mov	 eax, DWORD PTR [esi+32]
  0001b	8b 08		 mov	 ecx, DWORD PTR [eax]
  0001d	8d 51 01	 lea	 edx, DWORD PTR [ecx+1]
  00020	89 10		 mov	 DWORD PTR [eax], edx
  00022	0f b6 01	 movzx	 eax, BYTE PTR [ecx]
  00025	5e		 pop	 esi

; 360  : 		}

  00026	c3		 ret	 0
?uflow@?$basic_streambuf@DU?$char_traits@D@std@@@std@@MAEHXZ ENDP ; std::basic_streambuf<char,std::char_traits<char> >::uflow
; Function compile flags: /Ogtp
_TEXT	ENDS
;	COMDAT ?xsgetn@?$basic_streambuf@DU?$char_traits@D@std@@@std@@MAE_JPAD_J@Z
_TEXT	SEGMENT
__Copied$ = -8						; size = 8
__Ptr$ = 8						; size = 4
__Count$ = 12						; size = 8
?xsgetn@?$basic_streambuf@DU?$char_traits@D@std@@@std@@MAE_JPAD_J@Z PROC ; std::basic_streambuf<char,std::char_traits<char> >::xsgetn, COMDAT
; _this$ = ecx

; 364  : 		{	// get _Count characters from stream

  00000	55		 push	 ebp
  00001	8b ec		 mov	 ebp, esp
  00003	83 ec 08	 sub	 esp, 8

; 365  : 		int_type _Meta;
; 366  : 		streamsize _Size, _Copied;
; 367  : 
; 368  : 		for (_Copied = 0; 0 < _Count; )

  00006	33 c0		 xor	 eax, eax
  00008	53		 push	 ebx
  00009	8b d9		 mov	 ebx, ecx
  0000b	89 45 f8	 mov	 DWORD PTR __Copied$[ebp], eax
  0000e	89 45 fc	 mov	 DWORD PTR __Copied$[ebp+4], eax
  00011	39 45 10	 cmp	 DWORD PTR __Count$[ebp+4], eax
  00014	0f 8c a3 00 00
	00		 jl	 $LN30@xsgetn
  0001a	7f 09		 jg	 SHORT $LN31@xsgetn
  0001c	39 45 0c	 cmp	 DWORD PTR __Count$[ebp], eax
  0001f	0f 86 98 00 00
	00		 jbe	 $LN30@xsgetn
$LN31@xsgetn:
  00025	56		 push	 esi
  00026	57		 push	 edi
$LL7@xsgetn:

; 369  : 			if (0 < (_Size = _Gnavail()))

  00027	8b cb		 mov	 ecx, ebx
  00029	e8 00 00 00 00	 call	 ?_Gnavail@?$basic_streambuf@DU?$char_traits@D@std@@@std@@IBE_JXZ ; std::basic_streambuf<char,std::char_traits<char> >::_Gnavail
  0002e	8b fa		 mov	 edi, edx
  00030	8b f0		 mov	 esi, eax
  00032	85 ff		 test	 edi, edi
  00034	7c 47		 jl	 SHORT $LN5@xsgetn
  00036	7f 04		 jg	 SHORT $LN25@xsgetn
  00038	85 f6		 test	 esi, esi
  0003a	74 41		 je	 SHORT $LN5@xsgetn
$LN25@xsgetn:

; 370  : 				{	// copy from read buffer
; 371  : 				if (_Count < _Size)

  0003c	8b 45 10	 mov	 eax, DWORD PTR __Count$[ebp+4]
  0003f	3b c7		 cmp	 eax, edi
  00041	7f 0c		 jg	 SHORT $LN4@xsgetn
  00043	7c 05		 jl	 SHORT $LN29@xsgetn
  00045	39 75 0c	 cmp	 DWORD PTR __Count$[ebp], esi
  00048	73 05		 jae	 SHORT $LN4@xsgetn
$LN29@xsgetn:

; 372  : 					_Size = _Count;

  0004a	8b 75 0c	 mov	 esi, DWORD PTR __Count$[ebp]
  0004d	8b f8		 mov	 edi, eax
$LN4@xsgetn:

; 373  : 				_Traits::copy(_Ptr, gptr(), (size_t)_Size);

  0004f	8b 43 20	 mov	 eax, DWORD PTR [ebx+32]
  00052	8b 08		 mov	 ecx, DWORD PTR [eax]
  00054	8b 55 08	 mov	 edx, DWORD PTR __Ptr$[ebp]
  00057	56		 push	 esi
  00058	51		 push	 ecx
  00059	52		 push	 edx
  0005a	e8 00 00 00 00	 call	 _memcpy

; 374  : 				_Ptr += _Size;

  0005f	01 75 08	 add	 DWORD PTR __Ptr$[ebp], esi

; 375  : 				_Copied += _Size;
; 376  : 				_Count -= _Size;
; 377  : 				gbump((int)_Size);

  00062	8b 43 30	 mov	 eax, DWORD PTR [ebx+48]
  00065	83 c4 0c	 add	 esp, 12			; 0000000cH
  00068	01 75 f8	 add	 DWORD PTR __Copied$[ebp], esi
  0006b	11 7d fc	 adc	 DWORD PTR __Copied$[ebp+4], edi
  0006e	29 75 0c	 sub	 DWORD PTR __Count$[ebp], esi
  00071	19 7d 10	 sbb	 DWORD PTR __Count$[ebp+4], edi
  00074	29 30		 sub	 DWORD PTR [eax], esi
  00076	8b 43 20	 mov	 eax, DWORD PTR [ebx+32]
  00079	01 30		 add	 DWORD PTR [eax], esi
  0007b	eb 28		 jmp	 SHORT $LN1@xsgetn
$LN5@xsgetn:

; 378  : 				}
; 379  : 			else if (_Traits::eq_int_type(_Traits::eof(), _Meta = uflow()))

  0007d	8b 03		 mov	 eax, DWORD PTR [ebx]
  0007f	8b 50 1c	 mov	 edx, DWORD PTR [eax+28]
  00082	8b cb		 mov	 ecx, ebx
  00084	ff d2		 call	 edx
  00086	83 ca ff	 or	 edx, -1
  00089	3b c2		 cmp	 eax, edx
  0008b	74 2e		 je	 SHORT $LN32@xsgetn

; 380  : 				break;	// end of file, quit
; 381  : 			else
; 382  : 				{	// get a single character
; 383  : 				*_Ptr++ = _Traits::to_char_type(_Meta);

  0008d	8b 4d 08	 mov	 ecx, DWORD PTR __Ptr$[ebp]
  00090	41		 inc	 ecx

; 384  : 				++_Copied;

  00091	83 45 f8 01	 add	 DWORD PTR __Copied$[ebp], 1
  00095	88 41 ff	 mov	 BYTE PTR [ecx-1], al
  00098	89 4d 08	 mov	 DWORD PTR __Ptr$[ebp], ecx
  0009b	83 55 fc 00	 adc	 DWORD PTR __Copied$[ebp+4], 0

; 385  : 				--_Count;

  0009f	01 55 0c	 add	 DWORD PTR __Count$[ebp], edx
  000a2	11 55 10	 adc	 DWORD PTR __Count$[ebp+4], edx
$LN1@xsgetn:

; 365  : 		int_type _Meta;
; 366  : 		streamsize _Size, _Copied;
; 367  : 
; 368  : 		for (_Copied = 0; 0 < _Count; )

  000a5	83 7d 10 00	 cmp	 DWORD PTR __Count$[ebp+4], 0
  000a9	0f 8f 78 ff ff
	ff		 jg	 $LL7@xsgetn
  000af	7c 0a		 jl	 SHORT $LN32@xsgetn
  000b1	83 7d 0c 00	 cmp	 DWORD PTR __Count$[ebp], 0
  000b5	0f 87 6c ff ff
	ff		 ja	 $LL7@xsgetn
$LN32@xsgetn:
  000bb	5f		 pop	 edi
  000bc	5e		 pop	 esi
$LN30@xsgetn:

; 386  : 				}
; 387  : 
; 388  : 		return (_Copied);

  000bd	8b 45 f8	 mov	 eax, DWORD PTR __Copied$[ebp]
  000c0	8b 55 fc	 mov	 edx, DWORD PTR __Copied$[ebp+4]
  000c3	5b		 pop	 ebx

; 389  : 		}

  000c4	8b e5		 mov	 esp, ebp
  000c6	5d		 pop	 ebp
  000c7	c2 0c 00	 ret	 12			; 0000000cH
?xsgetn@?$basic_streambuf@DU?$char_traits@D@std@@@std@@MAE_JPAD_J@Z ENDP ; std::basic_streambuf<char,std::char_traits<char> >::xsgetn
; Function compile flags: /Ogtp
_TEXT	ENDS
;	COMDAT ?xsputn@?$basic_streambuf@DU?$char_traits@D@std@@@std@@MAE_JPBD_J@Z
_TEXT	SEGMENT
__Copied$ = -8						; size = 8
__Ptr$ = 8						; size = 4
__Count$ = 12						; size = 8
?xsputn@?$basic_streambuf@DU?$char_traits@D@std@@@std@@MAE_JPBD_J@Z PROC ; std::basic_streambuf<char,std::char_traits<char> >::xsputn, COMDAT
; _this$ = ecx

; 393  : 		{	// put _Count characters to stream

  00000	55		 push	 ebp
  00001	8b ec		 mov	 ebp, esp
  00003	83 ec 08	 sub	 esp, 8

; 394  : 		streamsize _Size, _Copied;
; 395  : 
; 396  : 		for (_Copied = 0; 0 < _Count; )

  00006	33 c0		 xor	 eax, eax
  00008	53		 push	 ebx
  00009	8b d9		 mov	 ebx, ecx
  0000b	89 45 f8	 mov	 DWORD PTR __Copied$[ebp], eax
  0000e	89 45 fc	 mov	 DWORD PTR __Copied$[ebp+4], eax
  00011	39 45 10	 cmp	 DWORD PTR __Count$[ebp+4], eax
  00014	0f 8c a7 00 00
	00		 jl	 $LN30@xsputn
  0001a	7f 09		 jg	 SHORT $LN31@xsputn
  0001c	39 45 0c	 cmp	 DWORD PTR __Count$[ebp], eax
  0001f	0f 86 9c 00 00
	00		 jbe	 $LN30@xsputn
$LN31@xsputn:
  00025	56		 push	 esi
  00026	57		 push	 edi
$LL7@xsputn:

; 397  : 			if (0 < (_Size = _Pnavail()))

  00027	8b cb		 mov	 ecx, ebx
  00029	e8 00 00 00 00	 call	 ?_Pnavail@?$basic_streambuf@DU?$char_traits@D@std@@@std@@IBE_JXZ ; std::basic_streambuf<char,std::char_traits<char> >::_Pnavail
  0002e	8b fa		 mov	 edi, edx
  00030	8b f0		 mov	 esi, eax
  00032	85 ff		 test	 edi, edi
  00034	7c 47		 jl	 SHORT $LN5@xsputn
  00036	7f 04		 jg	 SHORT $LN25@xsputn
  00038	85 f6		 test	 esi, esi
  0003a	74 41		 je	 SHORT $LN5@xsputn
$LN25@xsputn:

; 398  : 				{	// copy to write buffer
; 399  : 				if (_Count < _Size)

  0003c	8b 45 10	 mov	 eax, DWORD PTR __Count$[ebp+4]
  0003f	3b c7		 cmp	 eax, edi
  00041	7f 0c		 jg	 SHORT $LN4@xsputn
  00043	7c 05		 jl	 SHORT $LN29@xsputn
  00045	39 75 0c	 cmp	 DWORD PTR __Count$[ebp], esi
  00048	73 05		 jae	 SHORT $LN4@xsputn
$LN29@xsputn:

; 400  : 					_Size = _Count;

  0004a	8b 75 0c	 mov	 esi, DWORD PTR __Count$[ebp]
  0004d	8b f8		 mov	 edi, eax
$LN4@xsputn:

; 401  : 				_Traits::copy(pptr(), _Ptr, (size_t)_Size);

  0004f	8b 45 08	 mov	 eax, DWORD PTR __Ptr$[ebp]
  00052	8b 4b 24	 mov	 ecx, DWORD PTR [ebx+36]
  00055	8b 11		 mov	 edx, DWORD PTR [ecx]
  00057	56		 push	 esi
  00058	50		 push	 eax
  00059	52		 push	 edx
  0005a	e8 00 00 00 00	 call	 _memcpy

; 402  : 				_Ptr += _Size;

  0005f	01 75 08	 add	 DWORD PTR __Ptr$[ebp], esi

; 403  : 				_Copied += _Size;
; 404  : 				_Count -= _Size;
; 405  : 				pbump((int)_Size);

  00062	8b 43 34	 mov	 eax, DWORD PTR [ebx+52]
  00065	83 c4 0c	 add	 esp, 12			; 0000000cH
  00068	01 75 f8	 add	 DWORD PTR __Copied$[ebp], esi
  0006b	11 7d fc	 adc	 DWORD PTR __Copied$[ebp+4], edi
  0006e	29 75 0c	 sub	 DWORD PTR __Count$[ebp], esi
  00071	19 7d 10	 sbb	 DWORD PTR __Count$[ebp+4], edi
  00074	29 30		 sub	 DWORD PTR [eax], esi
  00076	8b 43 24	 mov	 eax, DWORD PTR [ebx+36]
  00079	01 30		 add	 DWORD PTR [eax], esi

; 406  : 				}
; 407  : 			else if (_Traits::eq_int_type(_Traits::eof(),

  0007b	eb 2c		 jmp	 SHORT $LN1@xsputn
$LN5@xsputn:

; 408  : 				overflow(_Traits::to_int_type(*_Ptr))))

  0007d	8b 45 08	 mov	 eax, DWORD PTR __Ptr$[ebp]
  00080	0f b6 00	 movzx	 eax, BYTE PTR [eax]
  00083	8b 13		 mov	 edx, DWORD PTR [ebx]
  00085	50		 push	 eax
  00086	8b 42 0c	 mov	 eax, DWORD PTR [edx+12]
  00089	8b cb		 mov	 ecx, ebx
  0008b	ff d0		 call	 eax
  0008d	83 c9 ff	 or	 ecx, -1
  00090	3b c1		 cmp	 eax, ecx
  00092	74 2b		 je	 SHORT $LN32@xsputn

; 409  : 				break;	// single character put failed, quit
; 410  : 			else
; 411  : 				{	// count character successfully put
; 412  : 				++_Ptr;

  00094	b8 01 00 00 00	 mov	 eax, 1
  00099	01 45 08	 add	 DWORD PTR __Ptr$[ebp], eax

; 413  : 				++_Copied;

  0009c	01 45 f8	 add	 DWORD PTR __Copied$[ebp], eax
  0009f	83 55 fc 00	 adc	 DWORD PTR __Copied$[ebp+4], 0

; 414  : 				--_Count;

  000a3	01 4d 0c	 add	 DWORD PTR __Count$[ebp], ecx
  000a6	11 4d 10	 adc	 DWORD PTR __Count$[ebp+4], ecx
$LN1@xsputn:

; 394  : 		streamsize _Size, _Copied;
; 395  : 
; 396  : 		for (_Copied = 0; 0 < _Count; )

  000a9	83 7d 10 00	 cmp	 DWORD PTR __Count$[ebp+4], 0
  000ad	0f 8f 74 ff ff
	ff		 jg	 $LL7@xsputn
  000b3	7c 0a		 jl	 SHORT $LN32@xsputn
  000b5	83 7d 0c 00	 cmp	 DWORD PTR __Count$[ebp], 0
  000b9	0f 87 68 ff ff
	ff		 ja	 $LL7@xsputn
$LN32@xsputn:
  000bf	5f		 pop	 edi
  000c0	5e		 pop	 esi
$LN30@xsputn:

; 415  : 				}
; 416  : 
; 417  : 		return (_Copied);

  000c1	8b 45 f8	 mov	 eax, DWORD PTR __Copied$[ebp]
  000c4	8b 55 fc	 mov	 edx, DWORD PTR __Copied$[ebp+4]
  000c7	5b		 pop	 ebx

; 418  : 		}

  000c8	8b e5		 mov	 esp, ebp
  000ca	5d		 pop	 ebp
  000cb	c2 0c 00	 ret	 12			; 0000000cH
?xsputn@?$basic_streambuf@DU?$char_traits@D@std@@@std@@MAE_JPBD_J@Z ENDP ; std::basic_streambuf<char,std::char_traits<char> >::xsputn
_TEXT	ENDS
EXTRN	?_BADOFF@std@@3_JB:QWORD			; std::_BADOFF
; Function compile flags: /Ogtp
;	COMDAT ?seekoff@?$basic_streambuf@DU?$char_traits@D@std@@@std@@MAE?AV?$fpos@H@2@_JHH@Z
_TEXT	SEGMENT
___$ReturnUdt$ = 8					; size = 4
___formal$ = 12						; size = 8
___formal$ = 20						; size = 4
___formal$ = 24						; size = 4
?seekoff@?$basic_streambuf@DU?$char_traits@D@std@@@std@@MAE?AV?$fpos@H@2@_JHH@Z PROC ; std::basic_streambuf<char,std::char_traits<char> >::seekoff, COMDAT
; _this$ = ecx

; 423  : 		{	// change position by offset, according to way and mode

  00000	55		 push	 ebp
  00001	8b ec		 mov	 ebp, esp

; 424  : 		return (streampos(_BADOFF));

  00003	8b 45 08	 mov	 eax, DWORD PTR ___$ReturnUdt$[ebp]
  00006	8b 0d 00 00 00
	00		 mov	 ecx, DWORD PTR ?_BADOFF@std@@3_JB
  0000c	8b 15 04 00 00
	00		 mov	 edx, DWORD PTR ?_BADOFF@std@@3_JB+4
  00012	89 08		 mov	 DWORD PTR [eax], ecx
  00014	33 c9		 xor	 ecx, ecx
  00016	89 50 04	 mov	 DWORD PTR [eax+4], edx
  00019	89 48 08	 mov	 DWORD PTR [eax+8], ecx
  0001c	89 48 0c	 mov	 DWORD PTR [eax+12], ecx
  0001f	89 48 10	 mov	 DWORD PTR [eax+16], ecx

; 425  : 		}

  00022	5d		 pop	 ebp
  00023	c2 14 00	 ret	 20			; 00000014H
?seekoff@?$basic_streambuf@DU?$char_traits@D@std@@@std@@MAE?AV?$fpos@H@2@_JHH@Z ENDP ; std::basic_streambuf<char,std::char_traits<char> >::seekoff
; Function compile flags: /Ogtp
_TEXT	ENDS
;	COMDAT ?seekpos@?$basic_streambuf@DU?$char_traits@D@std@@@std@@MAE?AV?$fpos@H@2@V32@H@Z
_TEXT	SEGMENT
___$ReturnUdt$ = 8					; size = 4
___formal$ = 12						; size = 24
___formal$ = 36						; size = 4
?seekpos@?$basic_streambuf@DU?$char_traits@D@std@@@std@@MAE?AV?$fpos@H@2@V32@H@Z PROC ; std::basic_streambuf<char,std::char_traits<char> >::seekpos, COMDAT
; _this$ = ecx

; 429  : 		{	// change to specified position, according to mode

  00000	55		 push	 ebp
  00001	8b ec		 mov	 ebp, esp

; 430  : 		return (streampos(_BADOFF));

  00003	8b 45 08	 mov	 eax, DWORD PTR ___$ReturnUdt$[ebp]
  00006	8b 0d 00 00 00
	00		 mov	 ecx, DWORD PTR ?_BADOFF@std@@3_JB
  0000c	8b 15 04 00 00
	00		 mov	 edx, DWORD PTR ?_BADOFF@std@@3_JB+4
  00012	89 08		 mov	 DWORD PTR [eax], ecx
  00014	33 c9		 xor	 ecx, ecx
  00016	89 50 04	 mov	 DWORD PTR [eax+4], edx
  00019	89 48 08	 mov	 DWORD PTR [eax+8], ecx
  0001c	89 48 0c	 mov	 DWORD PTR [eax+12], ecx
  0001f	89 48 10	 mov	 DWORD PTR [eax+16], ecx

; 431  : 		}

  00022	5d		 pop	 ebp
  00023	c2 20 00	 ret	 32			; 00000020H
?seekpos@?$basic_streambuf@DU?$char_traits@D@std@@@std@@MAE?AV?$fpos@H@2@V32@H@Z ENDP ; std::basic_streambuf<char,std::char_traits<char> >::seekpos
; Function compile flags: /Ogtp
_TEXT	ENDS
;	COMDAT ??_G?$basic_ostream@DU?$char_traits@D@std@@@std@@UAEPAXI@Z
_TEXT	SEGMENT
___flags$ = 8						; size = 4
??_G?$basic_ostream@DU?$char_traits@D@std@@@std@@UAEPAXI@Z PROC ; std::basic_ostream<char,std::char_traits<char> >::`scalar deleting destructor', COMDAT
; _this$ = ecx
  00000	55		 push	 ebp
  00001	8b ec		 mov	 ebp, esp
  00003	56		 push	 esi
  00004	8d 71 f8	 lea	 esi, DWORD PTR [ecx-8]
  00007	8b 0e		 mov	 ecx, DWORD PTR [esi]
  00009	8b 51 04	 mov	 edx, DWORD PTR [ecx+4]
  0000c	8d 46 08	 lea	 eax, DWORD PTR [esi+8]
  0000f	c7 44 02 f8 00
	00 00 00	 mov	 DWORD PTR [edx+eax-8], OFFSET ??_7?$basic_ostream@DU?$char_traits@D@std@@@std@@6B@
  00017	50		 push	 eax
  00018	c7 00 00 00 00
	00		 mov	 DWORD PTR [eax], OFFSET ??_7ios_base@std@@6B@
  0001e	e8 00 00 00 00	 call	 ?_Ios_base_dtor@ios_base@std@@CAXPAV12@@Z ; std::ios_base::_Ios_base_dtor
  00023	83 c4 04	 add	 esp, 4
  00026	f6 45 08 01	 test	 BYTE PTR ___flags$[ebp], 1
  0002a	74 09		 je	 SHORT $LN13@scalar@13
  0002c	56		 push	 esi
  0002d	e8 00 00 00 00	 call	 ??3@YAXPAX@Z		; operator delete
  00032	83 c4 04	 add	 esp, 4
$LN13@scalar@13:
  00035	8b c6		 mov	 eax, esi
  00037	5e		 pop	 esi
  00038	5d		 pop	 ebp
  00039	c2 04 00	 ret	 4
??_G?$basic_ostream@DU?$char_traits@D@std@@@std@@UAEPAXI@Z ENDP ; std::basic_ostream<char,std::char_traits<char> >::`scalar deleting destructor'
; Function compile flags: /Ogtp
_TEXT	ENDS
;	COMDAT ??_G?$basic_streambuf@DU?$char_traits@D@std@@@std@@UAEPAXI@Z
_TEXT	SEGMENT
___flags$ = 8						; size = 4
??_G?$basic_streambuf@DU?$char_traits@D@std@@@std@@UAEPAXI@Z PROC ; std::basic_streambuf<char,std::char_traits<char> >::`scalar deleting destructor', COMDAT
; _this$ = ecx
  00000	55		 push	 ebp
  00001	8b ec		 mov	 ebp, esp
  00003	56		 push	 esi
  00004	8b f1		 mov	 esi, ecx
  00006	e8 00 00 00 00	 call	 ??1?$basic_streambuf@DU?$char_traits@D@std@@@std@@UAE@XZ ; std::basic_streambuf<char,std::char_traits<char> >::~basic_streambuf<char,std::char_traits<char> >
  0000b	f6 45 08 01	 test	 BYTE PTR ___flags$[ebp], 1
  0000f	74 09		 je	 SHORT $LN4@scalar@14
  00011	56		 push	 esi
  00012	e8 00 00 00 00	 call	 ??3@YAXPAX@Z		; operator delete
  00017	83 c4 04	 add	 esp, 4
$LN4@scalar@14:
  0001a	8b c6		 mov	 eax, esi
  0001c	5e		 pop	 esi
  0001d	5d		 pop	 ebp
  0001e	c2 04 00	 ret	 4
??_G?$basic_streambuf@DU?$char_traits@D@std@@@std@@UAEPAXI@Z ENDP ; std::basic_streambuf<char,std::char_traits<char> >::`scalar deleting destructor'
_TEXT	ENDS
PUBLIC	??0?$_String_val@DV?$allocator@D@std@@@std@@QAE@V?$allocator@D@1@@Z ; std::_String_val<char,std::allocator<char> >::_String_val<char,std::allocator<char> >
; Function compile flags: /Ogtp
; File d:\program files (x86)\microsoft visual studio 10.0\vc\include\xstring
;	COMDAT ??0?$_String_val@DV?$allocator@D@std@@@std@@QAE@V?$allocator@D@1@@Z
_TEXT	SEGMENT
__Al$ = 8						; size = 1
??0?$_String_val@DV?$allocator@D@std@@@std@@QAE@V?$allocator@D@1@@Z PROC ; std::_String_val<char,std::allocator<char> >::_String_val<char,std::allocator<char> >, COMDAT
; _this$ = ecx

; 454  : 		{	// construct allocator from _Al

  00000	8b c1		 mov	 eax, ecx

; 455  : 		}

  00002	c2 04 00	 ret	 4
??0?$_String_val@DV?$allocator@D@std@@@std@@QAE@V?$allocator@D@1@@Z ENDP ; std::_String_val<char,std::allocator<char> >::_String_val<char,std::allocator<char> >
_TEXT	ENDS
PUBLIC	?clear@?$basic_ios@DU?$char_traits@D@std@@@std@@QAEXH_N@Z ; std::basic_ios<char,std::char_traits<char> >::clear
; Function compile flags: /Ogtp
; File d:\program files (x86)\microsoft visual studio 10.0\vc\include\ios
;	COMDAT ?clear@?$basic_ios@DU?$char_traits@D@std@@@std@@QAEXH_N@Z
_TEXT	SEGMENT
__State$ = 8						; size = 4
__Reraise$ = 12						; size = 1
?clear@?$basic_ios@DU?$char_traits@D@std@@@std@@QAEXH_N@Z PROC ; std::basic_ios<char,std::char_traits<char> >::clear, COMDAT
; _this$ = ecx

; 42   : 		{	// set state, possibly reraise exception

  00000	55		 push	 ebp
  00001	8b ec		 mov	 ebp, esp

; 43   : 		ios_base::clear((iostate)(_Mystrbuf == 0
; 44   : 			? (int)_State | (int)badbit : (int)_State), _Reraise);

  00003	83 79 38 00	 cmp	 DWORD PTR [ecx+56], 0
  00007	8b 45 08	 mov	 eax, DWORD PTR __State$[ebp]
  0000a	75 03		 jne	 SHORT $LN4@clear@2
  0000c	83 c8 04	 or	 eax, 4
$LN4@clear@2:
  0000f	8b 55 0c	 mov	 edx, DWORD PTR __Reraise$[ebp]
  00012	52		 push	 edx
  00013	50		 push	 eax
  00014	e8 00 00 00 00	 call	 ?clear@ios_base@std@@QAEXH_N@Z ; std::ios_base::clear

; 45   : 		}

  00019	5d		 pop	 ebp
  0001a	c2 08 00	 ret	 8
?clear@?$basic_ios@DU?$char_traits@D@std@@@std@@QAEXH_N@Z ENDP ; std::basic_ios<char,std::char_traits<char> >::clear
_TEXT	ENDS
PUBLIC	?sputc@?$basic_streambuf@DU?$char_traits@D@std@@@std@@QAEHD@Z ; std::basic_streambuf<char,std::char_traits<char> >::sputc
; Function compile flags: /Ogtp
; File d:\program files (x86)\microsoft visual studio 10.0\vc\include\streambuf
;	COMDAT ?sputc@?$basic_streambuf@DU?$char_traits@D@std@@@std@@QAEHD@Z
_TEXT	SEGMENT
__Ch$ = 8						; size = 1
?sputc@?$basic_streambuf@DU?$char_traits@D@std@@@std@@QAEHD@Z PROC ; std::basic_streambuf<char,std::char_traits<char> >::sputc, COMDAT
; _this$ = ecx

; 193  : 		{	// put a character

  00000	55		 push	 ebp
  00001	8b ec		 mov	 ebp, esp

; 194  : 		return (0 < _Pnavail()
; 195  : 			? _Traits::to_int_type(*_Pninc() = _Ch)
; 196  : 			: overflow(_Traits::to_int_type(_Ch)));

  00003	8b 41 24	 mov	 eax, DWORD PTR [ecx+36]
  00006	83 38 00	 cmp	 DWORD PTR [eax], 0
  00009	74 22		 je	 SHORT $LN3@sputc
  0000b	8b 51 34	 mov	 edx, DWORD PTR [ecx+52]
  0000e	83 3a 00	 cmp	 DWORD PTR [edx], 0
  00011	7e 1a		 jle	 SHORT $LN3@sputc
  00013	8b c2		 mov	 eax, edx
  00015	ff 08		 dec	 DWORD PTR [eax]
  00017	8b 49 24	 mov	 ecx, DWORD PTR [ecx+36]
  0001a	8b 01		 mov	 eax, DWORD PTR [ecx]
  0001c	8d 50 01	 lea	 edx, DWORD PTR [eax+1]
  0001f	89 11		 mov	 DWORD PTR [ecx], edx
  00021	8a 4d 08	 mov	 cl, BYTE PTR __Ch$[ebp]
  00024	88 08		 mov	 BYTE PTR [eax], cl
  00026	0f b6 c1	 movzx	 eax, cl

; 197  : 		}

  00029	5d		 pop	 ebp
  0002a	c2 04 00	 ret	 4
$LN3@sputc:

; 194  : 		return (0 < _Pnavail()
; 195  : 			? _Traits::to_int_type(*_Pninc() = _Ch)
; 196  : 			: overflow(_Traits::to_int_type(_Ch)));

  0002d	0f b6 55 08	 movzx	 edx, BYTE PTR __Ch$[ebp]
  00031	8b 01		 mov	 eax, DWORD PTR [ecx]
  00033	8b 40 0c	 mov	 eax, DWORD PTR [eax+12]
  00036	52		 push	 edx
  00037	ff d0		 call	 eax

; 197  : 		}

  00039	5d		 pop	 ebp
  0003a	c2 04 00	 ret	 4
?sputc@?$basic_streambuf@DU?$char_traits@D@std@@@std@@QAEHD@Z ENDP ; std::basic_streambuf<char,std::char_traits<char> >::sputc
_TEXT	ENDS
PUBLIC	?_Eos@?$basic_string@DU?$char_traits@D@std@@V?$allocator@D@2@@std@@QAEXI@Z ; std::basic_string<char,std::char_traits<char>,std::allocator<char> >::_Eos
; Function compile flags: /Ogtp
; File d:\program files (x86)\microsoft visual studio 10.0\vc\include\xstring
;	COMDAT ?_Eos@?$basic_string@DU?$char_traits@D@std@@V?$allocator@D@2@@std@@QAEXI@Z
_TEXT	SEGMENT
__Newsize$ = 8						; size = 4
?_Eos@?$basic_string@DU?$char_traits@D@std@@V?$allocator@D@2@@std@@QAEXI@Z PROC ; std::basic_string<char,std::char_traits<char>,std::allocator<char> >::_Eos, COMDAT
; _this$ = ecx

; 1953 : 		{	// set new length and null terminator

  00000	55		 push	 ebp
  00001	8b ec		 mov	 ebp, esp

; 1954 : 		_Traits::assign(_Myptr()[this->_Mysize = _Newsize], _Elem());

  00003	83 79 14 10	 cmp	 DWORD PTR [ecx+20], 16	; 00000010H
  00007	8b 45 08	 mov	 eax, DWORD PTR __Newsize$[ebp]
  0000a	89 41 10	 mov	 DWORD PTR [ecx+16], eax
  0000d	72 02		 jb	 SHORT $LN5@Eos
  0000f	8b 09		 mov	 ecx, DWORD PTR [ecx]
$LN5@Eos:
  00011	c6 04 01 00	 mov	 BYTE PTR [ecx+eax], 0

; 1955 : 		}

  00015	5d		 pop	 ebp
  00016	c2 04 00	 ret	 4
?_Eos@?$basic_string@DU?$char_traits@D@std@@V?$allocator@D@2@@std@@QAEXI@Z ENDP ; std::basic_string<char,std::char_traits<char>,std::allocator<char> >::_Eos
_TEXT	ENDS
PUBLIC	??0?$_String_iterator@DU?$char_traits@D@std@@V?$allocator@D@2@@std@@QAE@PADPBU_Container_base0@1@@Z ; std::_String_iterator<char,std::char_traits<char>,std::allocator<char> >::_String_iterator<char,std::char_traits<char>,std::allocator<char> >
; Function compile flags: /Ogtp
;	COMDAT ??0?$_String_iterator@DU?$char_traits@D@std@@V?$allocator@D@2@@std@@QAE@PADPBU_Container_base0@1@@Z
_TEXT	SEGMENT
__Parg$ = 8						; size = 4
__Pstring$ = 12						; size = 4
??0?$_String_iterator@DU?$char_traits@D@std@@V?$allocator@D@2@@std@@QAE@PADPBU_Container_base0@1@@Z PROC ; std::_String_iterator<char,std::char_traits<char>,std::allocator<char> >::_String_iterator<char,std::char_traits<char>,std::allocator<char> >, COMDAT
; _this$ = ecx

; 325  : 		{	// construct with pointer _Parg

  00000	55		 push	 ebp
  00001	8b ec		 mov	 ebp, esp
  00003	8b c1		 mov	 eax, ecx
  00005	8b 4d 08	 mov	 ecx, DWORD PTR __Parg$[ebp]
  00008	89 08		 mov	 DWORD PTR [eax], ecx

; 326  : 		}

  0000a	5d		 pop	 ebp
  0000b	c2 08 00	 ret	 8
??0?$_String_iterator@DU?$char_traits@D@std@@V?$allocator@D@2@@std@@QAE@PADPBU_Container_base0@1@@Z ENDP ; std::_String_iterator<char,std::char_traits<char>,std::allocator<char> >::_String_iterator<char,std::char_traits<char>,std::allocator<char> >
_TEXT	ENDS
PUBLIC	?max_size@?$basic_string@DU?$char_traits@D@std@@V?$allocator@D@2@@std@@QBEIXZ ; std::basic_string<char,std::char_traits<char>,std::allocator<char> >::max_size
; Function compile flags: /Ogtp
;	COMDAT ?max_size@?$basic_string@DU?$char_traits@D@std@@V?$allocator@D@2@@std@@QBEIXZ
_TEXT	SEGMENT
?max_size@?$basic_string@DU?$char_traits@D@std@@V?$allocator@D@2@@std@@QBEIXZ PROC ; std::basic_string<char,std::char_traits<char>,std::allocator<char> >::max_size, COMDAT
; _this$ = ecx

; 1517 : 		size_type _Num = this->_Alval.max_size();
; 1518 : 		return (_Num <= 1 ? 1 : _Num - 1);

  00000	b8 fe ff ff ff	 mov	 eax, -2			; fffffffeH

; 1519 : 		}

  00005	c3		 ret	 0
?max_size@?$basic_string@DU?$char_traits@D@std@@V?$allocator@D@2@@std@@QBEIXZ ENDP ; std::basic_string<char,std::char_traits<char>,std::allocator<char> >::max_size
_TEXT	ENDS
PUBLIC	?allocate@?$allocator@D@std@@QAEPADI@Z		; std::allocator<char>::allocate
; Function compile flags: /Ogtp
; File d:\program files (x86)\microsoft visual studio 10.0\vc\include\xmemory
;	COMDAT ?allocate@?$allocator@D@std@@QAEPADI@Z
_TEXT	SEGMENT
$T210788 = -12						; size = 12
$T210780 = 8						; size = 4
__Count$ = 8						; size = 4
?allocate@?$allocator@D@std@@QAEPADI@Z PROC		; std::allocator<char>::allocate, COMDAT
; _this$ = ecx

; 186  : 		{	// allocate array of _Count elements

  00000	55		 push	 ebp
  00001	8b ec		 mov	 ebp, esp

; 187  : 		return (_Allocate(_Count, (pointer)0));

  00003	8b 4d 08	 mov	 ecx, DWORD PTR __Count$[ebp]
  00006	83 ec 0c	 sub	 esp, 12			; 0000000cH
  00009	33 c0		 xor	 eax, eax
  0000b	85 c9		 test	 ecx, ecx
  0000d	74 3a		 je	 SHORT $LN1@allocate
  0000f	83 f9 ff	 cmp	 ecx, -1
  00012	77 0d		 ja	 SHORT $LN3@allocate
  00014	51		 push	 ecx
  00015	e8 00 00 00 00	 call	 ??2@YAPAXI@Z		; operator new
  0001a	83 c4 04	 add	 esp, 4
  0001d	85 c0		 test	 eax, eax
  0001f	75 28		 jne	 SHORT $LN1@allocate
$LN3@allocate:
  00021	8d 45 08	 lea	 eax, DWORD PTR $T210780[ebp]
  00024	50		 push	 eax
  00025	8d 4d f4	 lea	 ecx, DWORD PTR $T210788[ebp]
  00028	c7 45 08 00 00
	00 00		 mov	 DWORD PTR $T210780[ebp], 0
  0002f	e8 00 00 00 00	 call	 ??0exception@std@@QAE@ABQBD@Z ; std::exception::exception
  00034	68 00 00 00 00	 push	 OFFSET __TI2?AVbad_alloc@std@@
  00039	8d 4d f4	 lea	 ecx, DWORD PTR $T210788[ebp]
  0003c	51		 push	 ecx
  0003d	c7 45 f4 00 00
	00 00		 mov	 DWORD PTR $T210788[ebp], OFFSET ??_7bad_alloc@std@@6B@
  00044	e8 00 00 00 00	 call	 __CxxThrowException@8
$LN13@allocate:
$LN1@allocate:

; 188  : 		}

  00049	8b e5		 mov	 esp, ebp
  0004b	5d		 pop	 ebp
  0004c	c2 04 00	 ret	 4
$LN12@allocate:
?allocate@?$allocator@D@std@@QAEPADI@Z ENDP		; std::allocator<char>::allocate
_TEXT	ENDS
PUBLIC	?_Stinit@?1??_Init@?$basic_filebuf@DU?$char_traits@D@std@@@std@@IAEXPAU_iobuf@@W4_Initfl@23@@Z@4HA ; `std::basic_filebuf<char,std::char_traits<char> >::_Init'::`2'::_Stinit
PUBLIC	?_Init@?$basic_filebuf@DU?$char_traits@D@std@@@std@@IAEXPAU_iobuf@@W4_Initfl@12@@Z ; std::basic_filebuf<char,std::char_traits<char> >::_Init
;	COMDAT ?_Stinit@?1??_Init@?$basic_filebuf@DU?$char_traits@D@std@@@std@@IAEXPAU_iobuf@@W4_Initfl@23@@Z@4HA
; File d:\program files (x86)\microsoft visual studio 10.0\vc\include\streambuf
_BSS	SEGMENT
?_Stinit@?1??_Init@?$basic_filebuf@DU?$char_traits@D@std@@@std@@IAEXPAU_iobuf@@W4_Initfl@23@@Z@4HA DD 01H DUP (?) ; `std::basic_filebuf<char,std::char_traits<char> >::_Init'::`2'::_Stinit
; Function compile flags: /Ogtp
; File d:\program files (x86)\microsoft visual studio 10.0\vc\include\fstream
_BSS	ENDS
;	COMDAT ?_Init@?$basic_filebuf@DU?$char_traits@D@std@@@std@@IAEXPAU_iobuf@@W4_Initfl@12@@Z
_TEXT	SEGMENT
__File$ = 8						; size = 4
__Which$ = 12						; size = 4
?_Init@?$basic_filebuf@DU?$char_traits@D@std@@@std@@IAEXPAU_iobuf@@W4_Initfl@12@@Z PROC ; std::basic_filebuf<char,std::char_traits<char> >::_Init, COMDAT
; _this$ = ecx

; 555  : 		{	// initialize to C stream _File after {new, open, close}

  00000	55		 push	 ebp
  00001	8b ec		 mov	 ebp, esp

; 556  : 		__PURE_APPDOMAIN_GLOBAL static _Myst _Stinit;	// initial state
; 557  : 
; 558  : 		_Closef = _Which == _Openfl;

  00003	83 7d 0c 01	 cmp	 DWORD PTR __Which$[ebp], 1

; 559  : 		_Wrotesome = false;
; 560  : 
; 561  : 		_Mysb::_Init();	// initialize stream buffer base object

  00007	8d 51 08	 lea	 edx, DWORD PTR [ecx+8]
  0000a	89 51 10	 mov	 DWORD PTR [ecx+16], edx
  0000d	8d 51 18	 lea	 edx, DWORD PTR [ecx+24]
  00010	89 51 20	 mov	 DWORD PTR [ecx+32], edx
  00013	8d 51 1c	 lea	 edx, DWORD PTR [ecx+28]
  00016	89 51 24	 mov	 DWORD PTR [ecx+36], edx
  00019	0f 94 c0	 sete	 al
  0001c	88 41 50	 mov	 BYTE PTR [ecx+80], al
  0001f	8d 51 28	 lea	 edx, DWORD PTR [ecx+40]
  00022	89 51 30	 mov	 DWORD PTR [ecx+48], edx
  00025	c6 41 49 00	 mov	 BYTE PTR [ecx+73], 0
  00029	8d 41 0c	 lea	 eax, DWORD PTR [ecx+12]
  0002c	89 41 14	 mov	 DWORD PTR [ecx+20], eax
  0002f	8d 51 2c	 lea	 edx, DWORD PTR [ecx+44]
  00032	89 51 34	 mov	 DWORD PTR [ecx+52], edx
  00035	c7 00 00 00 00
	00		 mov	 DWORD PTR [eax], 0
  0003b	8b 41 24	 mov	 eax, DWORD PTR [ecx+36]
  0003e	c7 00 00 00 00
	00		 mov	 DWORD PTR [eax], 0
  00044	8b 51 34	 mov	 edx, DWORD PTR [ecx+52]
  00047	c7 02 00 00 00
	00		 mov	 DWORD PTR [edx], 0
  0004d	8b 41 10	 mov	 eax, DWORD PTR [ecx+16]
  00050	c7 00 00 00 00
	00		 mov	 DWORD PTR [eax], 0
  00056	8b 51 20	 mov	 edx, DWORD PTR [ecx+32]
  00059	c7 02 00 00 00
	00		 mov	 DWORD PTR [edx], 0
  0005f	8b 41 30	 mov	 eax, DWORD PTR [ecx+48]
  00062	c7 00 00 00 00
	00		 mov	 DWORD PTR [eax], 0

; 562  : 
; 563  :  #ifndef _IORCNT
; 564  :   #define _IORCNT	_IOCNT	/* read and write counts are the same */
; 565  :   #define _IOWCNT _IOCNT
; 566  :  #endif /* _IORCNT */
; 567  : 
; 568  :   #pragma warning(push)
; 569  :   #pragma warning(disable: 6240)	/* prefast noise VSW 489858 */
; 570  : 		if (_File != 0 && sizeof (_Elem) == 1)

  00068	8b 45 08	 mov	 eax, DWORD PTR __File$[ebp]
  0006b	85 c0		 test	 eax, eax
  0006d	74 18		 je	 SHORT $LN10@Init@2

; 571  :   #pragma warning(pop)
; 572  : 
; 573  : 			{	// point inside C stream with [first, first + count) buffer
; 574  : 			_Elem **_Pb = (_Elem **)&_File->_IOBASE;

  0006f	8d 50 08	 lea	 edx, DWORD PTR [eax+8]

; 575  : 			_Elem **_Pn = (_Elem **)&_File->_IOPTR;
; 576  : 			int *_Nr = (int *)&_File->_IORCNT;
; 577  : 			int *_Nw = (int *)&_File->_IOWCNT;
; 578  : 			_Mysb::_Init(_Pb, _Pn, _Nr, _Pb, _Pn, _Nw);

  00072	89 51 10	 mov	 DWORD PTR [ecx+16], edx
  00075	89 51 14	 mov	 DWORD PTR [ecx+20], edx
  00078	8d 50 04	 lea	 edx, DWORD PTR [eax+4]
  0007b	89 41 20	 mov	 DWORD PTR [ecx+32], eax
  0007e	89 41 24	 mov	 DWORD PTR [ecx+36], eax
  00081	89 51 30	 mov	 DWORD PTR [ecx+48], edx
  00084	89 51 34	 mov	 DWORD PTR [ecx+52], edx
$LN10@Init@2:

; 579  : 			}
; 580  : 
; 581  : 		_Myfile = _File;

  00087	89 41 54	 mov	 DWORD PTR [ecx+84], eax

; 582  : 		_State = _Stinit;

  0008a	8b 15 00 00 00
	00		 mov	 edx, DWORD PTR ?_Stinit@?1??_Init@?$basic_filebuf@DU?$char_traits@D@std@@@std@@IAEXPAU_iobuf@@W4_Initfl@23@@Z@4HA ; `std::basic_filebuf<char,std::char_traits<char> >::_Init'::`2'::_Stinit
  00090	89 51 4c	 mov	 DWORD PTR [ecx+76], edx

; 583  : 		_Pcvt = 0;	// pointer to codecvt facet

  00093	c7 41 44 00 00
	00 00		 mov	 DWORD PTR [ecx+68], 0

; 584  : 		}

  0009a	5d		 pop	 ebp
  0009b	c2 08 00	 ret	 8
?_Init@?$basic_filebuf@DU?$char_traits@D@std@@@std@@IAEXPAU_iobuf@@W4_Initfl@12@@Z ENDP ; std::basic_filebuf<char,std::char_traits<char> >::_Init
_TEXT	ENDS
PUBLIC	?_Initcvt@?$basic_filebuf@DU?$char_traits@D@std@@@std@@IAEXPBV?$codecvt@DDH@2@@Z ; std::basic_filebuf<char,std::char_traits<char> >::_Initcvt
; Function compile flags: /Ogtp
;	COMDAT ?_Initcvt@?$basic_filebuf@DU?$char_traits@D@std@@@std@@IAEXPBV?$codecvt@DDH@2@@Z
_TEXT	SEGMENT
__Newpcvt$ = 8						; size = 4
?_Initcvt@?$basic_filebuf@DU?$char_traits@D@std@@@std@@IAEXPBV?$codecvt@DDH@2@@Z PROC ; std::basic_filebuf<char,std::char_traits<char> >::_Initcvt, COMDAT
; _this$ = ecx

; 628  : 		{	// initialize codecvt pointer

  00000	55		 push	 ebp
  00001	8b ec		 mov	 ebp, esp
  00003	56		 push	 esi
  00004	57		 push	 edi

; 629  : 		if (_Newpcvt->always_noconv())

  00005	8b 7d 08	 mov	 edi, DWORD PTR __Newpcvt$[ebp]
  00008	8b 07		 mov	 eax, DWORD PTR [edi]
  0000a	8b 50 04	 mov	 edx, DWORD PTR [eax+4]
  0000d	8b f1		 mov	 esi, ecx
  0000f	8b cf		 mov	 ecx, edi
  00011	ff d2		 call	 edx
  00013	84 c0		 test	 al, al
  00015	74 0d		 je	 SHORT $LN2@Initcvt

; 630  : 			_Pcvt = 0;	// nothing to do

  00017	5f		 pop	 edi
  00018	c7 46 44 00 00
	00 00		 mov	 DWORD PTR [esi+68], 0
  0001f	5e		 pop	 esi

; 635  : 			}
; 636  : 		}

  00020	5d		 pop	 ebp
  00021	c2 04 00	 ret	 4
$LN2@Initcvt:

; 631  : 		else
; 632  : 			{	// set up for nontrivial codecvt facet
; 633  : 			_Pcvt = _Newpcvt;
; 634  : 			_Mysb::_Init();	// reset any buffering

  00024	8b ce		 mov	 ecx, esi
  00026	89 7e 44	 mov	 DWORD PTR [esi+68], edi
  00029	e8 00 00 00 00	 call	 ?_Init@?$basic_streambuf@DU?$char_traits@D@std@@@std@@IAEXXZ ; std::basic_streambuf<char,std::char_traits<char> >::_Init
  0002e	5f		 pop	 edi
  0002f	5e		 pop	 esi

; 635  : 			}
; 636  : 		}

  00030	5d		 pop	 ebp
  00031	c2 04 00	 ret	 4
?_Initcvt@?$basic_filebuf@DU?$char_traits@D@std@@@std@@IAEXPBV?$codecvt@DDH@2@@Z ENDP ; std::basic_filebuf<char,std::char_traits<char> >::_Initcvt
_TEXT	ENDS
PUBLIC	??0?$basic_streambuf@DU?$char_traits@D@std@@@std@@IAE@XZ ; std::basic_streambuf<char,std::char_traits<char> >::basic_streambuf<char,std::char_traits<char> >
EXTRN	??0_Mutex@std@@QAE@XZ:PROC			; std::_Mutex::_Mutex
EXTRN	___CxxFrameHandler3:PROC
;	COMDAT xdata$x
; File d:\program files (x86)\microsoft visual studio 10.0\vc\include\streambuf
xdata$x	SEGMENT
__unwindtable$??0?$basic_streambuf@DU?$char_traits@D@std@@@std@@IAE@XZ DD 0ffffffffH
	DD	FLAT:__unwindfunclet$??0?$basic_streambuf@DU?$char_traits@D@std@@@std@@IAE@XZ$0
__ehfuncinfo$??0?$basic_streambuf@DU?$char_traits@D@std@@@std@@IAE@XZ DD 019930522H
	DD	01H
	DD	FLAT:__unwindtable$??0?$basic_streambuf@DU?$char_traits@D@std@@@std@@IAE@XZ
	DD	2 DUP(00H)
	DD	2 DUP(00H)
	DD	00H
	DD	01H
; Function compile flags: /Ogtp
xdata$x	ENDS
;	COMDAT ??0?$basic_streambuf@DU?$char_traits@D@std@@@std@@IAE@XZ
_TEXT	SEGMENT
_this$ = -20						; size = 4
__Lock$210836 = -16					; size = 4
__$EHRec$ = -12						; size = 12
??0?$basic_streambuf@DU?$char_traits@D@std@@@std@@IAE@XZ PROC ; std::basic_streambuf<char,std::char_traits<char> >::basic_streambuf<char,std::char_traits<char> >, COMDAT
; _this$ = ecx

; 25   : 		{	// construct with no buffers

  00000	55		 push	 ebp
  00001	8b ec		 mov	 ebp, esp
  00003	6a ff		 push	 -1
  00005	68 00 00 00 00	 push	 __ehhandler$??0?$basic_streambuf@DU?$char_traits@D@std@@@std@@IAE@XZ
  0000a	64 a1 00 00 00
	00		 mov	 eax, DWORD PTR fs:0
  00010	50		 push	 eax
  00011	83 ec 08	 sub	 esp, 8
  00014	53		 push	 ebx
  00015	56		 push	 esi
  00016	57		 push	 edi
  00017	a1 00 00 00 00	 mov	 eax, DWORD PTR ___security_cookie
  0001c	33 c5		 xor	 eax, ebp
  0001e	50		 push	 eax
  0001f	8d 45 f4	 lea	 eax, DWORD PTR __$EHRec$[ebp]
  00022	64 a3 00 00 00
	00		 mov	 DWORD PTR fs:0, eax
  00028	8b f1		 mov	 esi, ecx
  0002a	89 75 ec	 mov	 DWORD PTR _this$[ebp], esi
  0002d	8d 4e 04	 lea	 ecx, DWORD PTR [esi+4]
  00030	c7 06 00 00 00
	00		 mov	 DWORD PTR [esi], OFFSET ??_7?$basic_streambuf@DU?$char_traits@D@std@@@std@@6B@
  00036	e8 00 00 00 00	 call	 ??0_Mutex@std@@QAE@XZ	; std::_Mutex::_Mutex
  0003b	6a 04		 push	 4
  0003d	c7 45 fc 00 00
	00 00		 mov	 DWORD PTR __$EHRec$[ebp+8], 0
  00044	e8 00 00 00 00	 call	 ??2@YAPAXI@Z		; operator new
  00049	8b f8		 mov	 edi, eax
  0004b	83 c4 04	 add	 esp, 4
  0004e	85 ff		 test	 edi, edi
  00050	74 2e		 je	 SHORT $LN3@basic_stre@2
  00052	e8 00 00 00 00	 call	 ?_Init@locale@std@@CAPAV_Locimp@12@XZ ; std::locale::_Init
  00057	89 07		 mov	 DWORD PTR [edi], eax
  00059	e8 00 00 00 00	 call	 ?_Getgloballocale@locale@std@@CAPAV_Locimp@12@XZ ; std::locale::_Getgloballocale
  0005e	6a 00		 push	 0
  00060	8d 4d f0	 lea	 ecx, DWORD PTR __Lock$210836[ebp]
  00063	8b d8		 mov	 ebx, eax
  00065	e8 00 00 00 00	 call	 ??0_Lockit@std@@QAE@H@Z	; std::_Lockit::_Lockit
  0006a	8b 43 04	 mov	 eax, DWORD PTR [ebx+4]
  0006d	83 f8 ff	 cmp	 eax, -1
  00070	73 04		 jae	 SHORT $LN8@basic_stre@2
  00072	40		 inc	 eax
  00073	89 43 04	 mov	 DWORD PTR [ebx+4], eax
$LN8@basic_stre@2:
  00076	8d 4d f0	 lea	 ecx, DWORD PTR __Lock$210836[ebp]
  00079	e8 00 00 00 00	 call	 ??1_Lockit@std@@QAE@XZ	; std::_Lockit::~_Lockit
  0007e	eb 02		 jmp	 SHORT $LN4@basic_stre@2
$LN3@basic_stre@2:
  00080	33 ff		 xor	 edi, edi
$LN4@basic_stre@2:

; 26   : 		_Init();

  00082	8d 46 08	 lea	 eax, DWORD PTR [esi+8]
  00085	89 46 10	 mov	 DWORD PTR [esi+16], eax
  00088	8d 4e 18	 lea	 ecx, DWORD PTR [esi+24]
  0008b	89 4e 20	 mov	 DWORD PTR [esi+32], ecx
  0008e	8d 56 1c	 lea	 edx, DWORD PTR [esi+28]
  00091	89 56 24	 mov	 DWORD PTR [esi+36], edx
  00094	89 7e 38	 mov	 DWORD PTR [esi+56], edi
  00097	8d 46 0c	 lea	 eax, DWORD PTR [esi+12]
  0009a	89 46 14	 mov	 DWORD PTR [esi+20], eax
  0009d	8d 4e 28	 lea	 ecx, DWORD PTR [esi+40]
  000a0	89 4e 30	 mov	 DWORD PTR [esi+48], ecx
  000a3	8d 56 2c	 lea	 edx, DWORD PTR [esi+44]
  000a6	89 56 34	 mov	 DWORD PTR [esi+52], edx
  000a9	c7 00 00 00 00
	00		 mov	 DWORD PTR [eax], 0
  000af	8b 46 24	 mov	 eax, DWORD PTR [esi+36]
  000b2	c7 00 00 00 00
	00		 mov	 DWORD PTR [eax], 0
  000b8	8b 4e 34	 mov	 ecx, DWORD PTR [esi+52]
  000bb	c7 01 00 00 00
	00		 mov	 DWORD PTR [ecx], 0
  000c1	8b 56 10	 mov	 edx, DWORD PTR [esi+16]
  000c4	c7 02 00 00 00
	00		 mov	 DWORD PTR [edx], 0
  000ca	8b 46 20	 mov	 eax, DWORD PTR [esi+32]
  000cd	c7 00 00 00 00
	00		 mov	 DWORD PTR [eax], 0
  000d3	8b 4e 30	 mov	 ecx, DWORD PTR [esi+48]
  000d6	c7 01 00 00 00
	00		 mov	 DWORD PTR [ecx], 0

; 27   : 		}

  000dc	8b c6		 mov	 eax, esi
  000de	8b 4d f4	 mov	 ecx, DWORD PTR __$EHRec$[ebp]
  000e1	64 89 0d 00 00
	00 00		 mov	 DWORD PTR fs:0, ecx
  000e8	59		 pop	 ecx
  000e9	5f		 pop	 edi
  000ea	5e		 pop	 esi
  000eb	5b		 pop	 ebx
  000ec	8b e5		 mov	 esp, ebp
  000ee	5d		 pop	 ebp
  000ef	c3		 ret	 0
_TEXT	ENDS
;	COMDAT text$x
text$x	SEGMENT
__unwindfunclet$??0?$basic_streambuf@DU?$char_traits@D@std@@@std@@IAE@XZ$0:
  00000	8b 4d ec	 mov	 ecx, DWORD PTR _this$[ebp]
  00003	83 c1 04	 add	 ecx, 4
  00006	e9 00 00 00 00	 jmp	 ??1_Mutex@std@@QAE@XZ	; std::_Mutex::~_Mutex
__ehhandler$??0?$basic_streambuf@DU?$char_traits@D@std@@@std@@IAE@XZ:
  0000b	8b 54 24 08	 mov	 edx, DWORD PTR [esp+8]
  0000f	8d 42 0c	 lea	 eax, DWORD PTR [edx+12]
  00012	8b 4a e8	 mov	 ecx, DWORD PTR [edx-24]
  00015	33 c8		 xor	 ecx, eax
  00017	e8 00 00 00 00	 call	 @__security_check_cookie@4
  0001c	b8 00 00 00 00	 mov	 eax, OFFSET __ehfuncinfo$??0?$basic_streambuf@DU?$char_traits@D@std@@@std@@IAE@XZ
  00021	e9 00 00 00 00	 jmp	 ___CxxFrameHandler3
text$x	ENDS
??0?$basic_streambuf@DU?$char_traits@D@std@@@std@@IAE@XZ ENDP ; std::basic_streambuf<char,std::char_traits<char> >::basic_streambuf<char,std::char_traits<char> >
PUBLIC	__TI2?AVruntime_error@std@@
PUBLIC	??_C@_0BA@ELKIONDK@bad?5locale?5name?$AA@	; `string'
PUBLIC	??0_Locinfo@std@@QAE@PBD@Z			; std::_Locinfo::_Locinfo
PUBLIC	__CTA2?AVruntime_error@std@@
EXTRN	?_Locinfo_ctor@_Locinfo@std@@SAXPAV12@PBD@Z:PROC ; std::_Locinfo::_Locinfo_ctor
;	COMDAT __CTA2?AVruntime_error@std@@
; File d:\program files (x86)\microsoft visual studio 10.0\vc\include\stdexcept
xdata$x	SEGMENT
__CTA2?AVruntime_error@std@@ DD 02H
	DD	FLAT:__CT??_R0?AVruntime_error@std@@@8??0runtime_error@std@@QAE@ABV01@@Z12
	DD	FLAT:__CT??_R0?AVexception@std@@@8??0exception@std@@QAE@ABV01@@Z12
xdata$x	ENDS
;	COMDAT __TI2?AVruntime_error@std@@
xdata$x	SEGMENT
__TI2?AVruntime_error@std@@ DD 00H
	DD	FLAT:??1runtime_error@std@@UAE@XZ
	DD	00H
	DD	FLAT:__CTA2?AVruntime_error@std@@
xdata$x	ENDS
;	COMDAT ??_C@_0BA@ELKIONDK@bad?5locale?5name?$AA@
CONST	SEGMENT
??_C@_0BA@ELKIONDK@bad?5locale?5name?$AA@ DB 'bad locale name', 00H ; `string'
CONST	ENDS
;	COMDAT xdata$x
xdata$x	SEGMENT
__ehfuncinfo$??0_Locinfo@std@@QAE@PBD@Z DD 019930522H
	DD	05H
	DD	FLAT:__unwindtable$??0_Locinfo@std@@QAE@PBD@Z
	DD	2 DUP(00H)
	DD	2 DUP(00H)
	DD	00H
	DD	01H
__unwindtable$??0_Locinfo@std@@QAE@PBD@Z DD 0ffffffffH
	DD	FLAT:__unwindfunclet$??0_Locinfo@std@@QAE@PBD@Z$0
	DD	00H
	DD	FLAT:__unwindfunclet$??0_Locinfo@std@@QAE@PBD@Z$1
	DD	01H
	DD	FLAT:__unwindfunclet$??0_Locinfo@std@@QAE@PBD@Z$2
	DD	02H
	DD	FLAT:__unwindfunclet$??0_Locinfo@std@@QAE@PBD@Z$3
	DD	03H
	DD	FLAT:__unwindfunclet$??0_Locinfo@std@@QAE@PBD@Z$4
; Function compile flags: /Ogtp
; File d:\program files (x86)\microsoft visual studio 10.0\vc\include\xlocinfo
xdata$x	ENDS
;	COMDAT ??0_Locinfo@std@@QAE@PBD@Z
_TEXT	SEGMENT
$T210863 = -28						; size = 12
_this$ = -16						; size = 4
__$EHRec$ = -12						; size = 12
$T210889 = 8						; size = 4
__Pch$ = 8						; size = 4
??0_Locinfo@std@@QAE@PBD@Z PROC				; std::_Locinfo::_Locinfo, COMDAT
; _this$ = ecx

; 76   :         {	// construct from NTBS

  00000	55		 push	 ebp
  00001	8b ec		 mov	 ebp, esp
  00003	6a ff		 push	 -1
  00005	68 00 00 00 00	 push	 __ehhandler$??0_Locinfo@std@@QAE@PBD@Z
  0000a	64 a1 00 00 00
	00		 mov	 eax, DWORD PTR fs:0
  00010	50		 push	 eax
  00011	83 ec 10	 sub	 esp, 16			; 00000010H
  00014	53		 push	 ebx
  00015	56		 push	 esi
  00016	a1 00 00 00 00	 mov	 eax, DWORD PTR ___security_cookie
  0001b	33 c5		 xor	 eax, ebp
  0001d	50		 push	 eax
  0001e	8d 45 f4	 lea	 eax, DWORD PTR __$EHRec$[ebp]
  00021	64 a3 00 00 00
	00		 mov	 DWORD PTR fs:0, eax
  00027	8b f1		 mov	 esi, ecx
  00029	89 75 f0	 mov	 DWORD PTR _this$[ebp], esi
  0002c	33 db		 xor	 ebx, ebx
  0002e	53		 push	 ebx
  0002f	e8 00 00 00 00	 call	 ??0_Lockit@std@@QAE@H@Z	; std::_Lockit::_Lockit
  00034	89 5d fc	 mov	 DWORD PTR __$EHRec$[ebp+8], ebx
  00037	89 5e 04	 mov	 DWORD PTR [esi+4], ebx
  0003a	88 5e 08	 mov	 BYTE PTR [esi+8], bl
  0003d	89 5e 0c	 mov	 DWORD PTR [esi+12], ebx
  00040	88 5e 10	 mov	 BYTE PTR [esi+16], bl
  00043	89 5e 14	 mov	 DWORD PTR [esi+20], ebx
  00046	88 5e 18	 mov	 BYTE PTR [esi+24], bl
  00049	89 5e 1c	 mov	 DWORD PTR [esi+28], ebx
  0004c	88 5e 20	 mov	 BYTE PTR [esi+32], bl

; 77   :         if (_Pch == 0)

  0004f	8b 45 08	 mov	 eax, DWORD PTR __Pch$[ebp]
  00052	c6 45 fc 04	 mov	 BYTE PTR __$EHRec$[ebp+8], 4
  00056	3b c3		 cmp	 eax, ebx
  00058	75 28		 jne	 SHORT $LN1@Locinfo

; 78   :             _THROW_NCEE(runtime_error, "bad locale name");

  0005a	8d 45 08	 lea	 eax, DWORD PTR $T210889[ebp]
  0005d	50		 push	 eax
  0005e	8d 4d e4	 lea	 ecx, DWORD PTR $T210863[ebp]
  00061	c7 45 08 00 00
	00 00		 mov	 DWORD PTR $T210889[ebp], OFFSET ??_C@_0BA@ELKIONDK@bad?5locale?5name?$AA@
  00068	e8 00 00 00 00	 call	 ??0exception@std@@QAE@ABQBD@Z ; std::exception::exception
  0006d	68 00 00 00 00	 push	 OFFSET __TI2?AVruntime_error@std@@
  00072	8d 4d e4	 lea	 ecx, DWORD PTR $T210863[ebp]
  00075	51		 push	 ecx
  00076	c7 45 e4 00 00
	00 00		 mov	 DWORD PTR $T210863[ebp], OFFSET ??_7runtime_error@std@@6B@
  0007d	e8 00 00 00 00	 call	 __CxxThrowException@8
$LN22@Locinfo:
$LN1@Locinfo:

; 79   :         _Locinfo_ctor(this, _Pch);

  00082	50		 push	 eax
  00083	56		 push	 esi
  00084	e8 00 00 00 00	 call	 ?_Locinfo_ctor@_Locinfo@std@@SAXPAV12@PBD@Z ; std::_Locinfo::_Locinfo_ctor
  00089	83 c4 08	 add	 esp, 8

; 80   :         }

  0008c	8b c6		 mov	 eax, esi
  0008e	8b 4d f4	 mov	 ecx, DWORD PTR __$EHRec$[ebp]
  00091	64 89 0d 00 00
	00 00		 mov	 DWORD PTR fs:0, ecx
  00098	59		 pop	 ecx
  00099	5e		 pop	 esi
  0009a	5b		 pop	 ebx
  0009b	8b e5		 mov	 esp, ebp
  0009d	5d		 pop	 ebp
  0009e	c2 04 00	 ret	 4
$LN21@Locinfo:
_TEXT	ENDS
;	COMDAT text$x
text$x	SEGMENT
__unwindfunclet$??0_Locinfo@std@@QAE@PBD@Z$0:
  00000	8b 4d f0	 mov	 ecx, DWORD PTR _this$[ebp]
  00003	e9 00 00 00 00	 jmp	 ??1_Lockit@std@@QAE@XZ	; std::_Lockit::~_Lockit
__unwindfunclet$??0_Locinfo@std@@QAE@PBD@Z$1:
  00008	8b 4d f0	 mov	 ecx, DWORD PTR _this$[ebp]
  0000b	83 c1 04	 add	 ecx, 4
  0000e	e9 00 00 00 00	 jmp	 ??1?$_Yarn@D@std@@QAE@XZ ; std::_Yarn<char>::~_Yarn<char>
__unwindfunclet$??0_Locinfo@std@@QAE@PBD@Z$2:
  00013	8b 4d f0	 mov	 ecx, DWORD PTR _this$[ebp]
  00016	83 c1 0c	 add	 ecx, 12			; 0000000cH
  00019	e9 00 00 00 00	 jmp	 ??1?$_Yarn@D@std@@QAE@XZ ; std::_Yarn<char>::~_Yarn<char>
__unwindfunclet$??0_Locinfo@std@@QAE@PBD@Z$3:
  0001e	8b 4d f0	 mov	 ecx, DWORD PTR _this$[ebp]
  00021	83 c1 14	 add	 ecx, 20			; 00000014H
  00024	e9 00 00 00 00	 jmp	 ??1?$_Yarn@D@std@@QAE@XZ ; std::_Yarn<char>::~_Yarn<char>
__unwindfunclet$??0_Locinfo@std@@QAE@PBD@Z$4:
  00029	8b 4d f0	 mov	 ecx, DWORD PTR _this$[ebp]
  0002c	83 c1 1c	 add	 ecx, 28			; 0000001cH
  0002f	e9 00 00 00 00	 jmp	 ??1?$_Yarn@D@std@@QAE@XZ ; std::_Yarn<char>::~_Yarn<char>
__ehhandler$??0_Locinfo@std@@QAE@PBD@Z:
  00034	8b 54 24 08	 mov	 edx, DWORD PTR [esp+8]
  00038	8d 42 0c	 lea	 eax, DWORD PTR [edx+12]
  0003b	8b 4a e4	 mov	 ecx, DWORD PTR [edx-28]
  0003e	33 c8		 xor	 ecx, eax
  00040	e8 00 00 00 00	 call	 @__security_check_cookie@4
  00045	b8 00 00 00 00	 mov	 eax, OFFSET __ehfuncinfo$??0_Locinfo@std@@QAE@PBD@Z
  0004a	e9 00 00 00 00	 jmp	 ___CxxFrameHandler3
text$x	ENDS
??0_Locinfo@std@@QAE@PBD@Z ENDP				; std::_Locinfo::_Locinfo
PUBLIC	??1_Locinfo@std@@QAE@XZ				; std::_Locinfo::~_Locinfo
EXTRN	?_Locinfo_dtor@_Locinfo@std@@SAXPAV12@@Z:PROC	; std::_Locinfo::_Locinfo_dtor
;	COMDAT xdata$x
; File d:\program files (x86)\microsoft visual studio 10.0\vc\include\xutility
xdata$x	SEGMENT
__ehfuncinfo$??1_Locinfo@std@@QAE@XZ DD 019930522H
	DD	05H
	DD	FLAT:__unwindtable$??1_Locinfo@std@@QAE@XZ
	DD	2 DUP(00H)
	DD	2 DUP(00H)
	DD	00H
	DD	01H
__unwindtable$??1_Locinfo@std@@QAE@XZ DD 0ffffffffH
	DD	FLAT:__unwindfunclet$??1_Locinfo@std@@QAE@XZ$0
	DD	00H
	DD	FLAT:__unwindfunclet$??1_Locinfo@std@@QAE@XZ$1
	DD	01H
	DD	FLAT:__unwindfunclet$??1_Locinfo@std@@QAE@XZ$2
	DD	02H
	DD	FLAT:__unwindfunclet$??1_Locinfo@std@@QAE@XZ$3
	DD	03H
	DD	FLAT:__unwindfunclet$??1_Locinfo@std@@QAE@XZ$4
; Function compile flags: /Ogtp
; File d:\program files (x86)\microsoft visual studio 10.0\vc\include\xlocinfo
xdata$x	ENDS
;	COMDAT ??1_Locinfo@std@@QAE@XZ
_TEXT	SEGMENT
_this$ = -16						; size = 4
__$EHRec$ = -12						; size = 12
??1_Locinfo@std@@QAE@XZ PROC				; std::_Locinfo::~_Locinfo, COMDAT
; _this$ = ecx

; 93   :         {

  00000	55		 push	 ebp
  00001	8b ec		 mov	 ebp, esp
  00003	6a ff		 push	 -1
  00005	68 00 00 00 00	 push	 __ehhandler$??1_Locinfo@std@@QAE@XZ
  0000a	64 a1 00 00 00
	00		 mov	 eax, DWORD PTR fs:0
  00010	50		 push	 eax
  00011	51		 push	 ecx
  00012	56		 push	 esi
  00013	57		 push	 edi
  00014	a1 00 00 00 00	 mov	 eax, DWORD PTR ___security_cookie
  00019	33 c5		 xor	 eax, ebp
  0001b	50		 push	 eax
  0001c	8d 45 f4	 lea	 eax, DWORD PTR __$EHRec$[ebp]
  0001f	64 a3 00 00 00
	00		 mov	 DWORD PTR fs:0, eax
  00025	8b f1		 mov	 esi, ecx
  00027	89 75 f0	 mov	 DWORD PTR _this$[ebp], esi

; 94   :         _Locinfo_dtor(this);

  0002a	56		 push	 esi
  0002b	c7 45 fc 04 00
	00 00		 mov	 DWORD PTR __$EHRec$[ebp+8], 4
  00032	e8 00 00 00 00	 call	 ?_Locinfo_dtor@_Locinfo@std@@SAXPAV12@@Z ; std::_Locinfo::_Locinfo_dtor

; 95   :         }

  00037	8b 46 1c	 mov	 eax, DWORD PTR [esi+28]
  0003a	33 ff		 xor	 edi, edi
  0003c	83 c4 04	 add	 esp, 4
  0003f	3b c7		 cmp	 eax, edi
  00041	74 09		 je	 SHORT $LN10@Locinfo@2
  00043	50		 push	 eax
  00044	e8 00 00 00 00	 call	 _free
  00049	83 c4 04	 add	 esp, 4
$LN10@Locinfo@2:
  0004c	89 7e 1c	 mov	 DWORD PTR [esi+28], edi
  0004f	8b 46 14	 mov	 eax, DWORD PTR [esi+20]
  00052	3b c7		 cmp	 eax, edi
  00054	74 09		 je	 SHORT $LN15@Locinfo@2
  00056	50		 push	 eax
  00057	e8 00 00 00 00	 call	 _free
  0005c	83 c4 04	 add	 esp, 4
$LN15@Locinfo@2:
  0005f	89 7e 14	 mov	 DWORD PTR [esi+20], edi
  00062	8b 46 0c	 mov	 eax, DWORD PTR [esi+12]
  00065	3b c7		 cmp	 eax, edi
  00067	74 09		 je	 SHORT $LN20@Locinfo@2
  00069	50		 push	 eax
  0006a	e8 00 00 00 00	 call	 _free
  0006f	83 c4 04	 add	 esp, 4
$LN20@Locinfo@2:
  00072	89 7e 0c	 mov	 DWORD PTR [esi+12], edi
  00075	8b 46 04	 mov	 eax, DWORD PTR [esi+4]
  00078	3b c7		 cmp	 eax, edi
  0007a	74 09		 je	 SHORT $LN25@Locinfo@2
  0007c	50		 push	 eax
  0007d	e8 00 00 00 00	 call	 _free
  00082	83 c4 04	 add	 esp, 4
$LN25@Locinfo@2:
  00085	8b ce		 mov	 ecx, esi
  00087	89 7e 04	 mov	 DWORD PTR [esi+4], edi
  0008a	c7 45 fc ff ff
	ff ff		 mov	 DWORD PTR __$EHRec$[ebp+8], -1
  00091	e8 00 00 00 00	 call	 ??1_Lockit@std@@QAE@XZ	; std::_Lockit::~_Lockit
  00096	8b 4d f4	 mov	 ecx, DWORD PTR __$EHRec$[ebp]
  00099	64 89 0d 00 00
	00 00		 mov	 DWORD PTR fs:0, ecx
  000a0	59		 pop	 ecx
  000a1	5f		 pop	 edi
  000a2	5e		 pop	 esi
  000a3	8b e5		 mov	 esp, ebp
  000a5	5d		 pop	 ebp
  000a6	c3		 ret	 0
_TEXT	ENDS
;	COMDAT text$x
text$x	SEGMENT
__unwindfunclet$??1_Locinfo@std@@QAE@XZ$0:
  00000	8b 4d f0	 mov	 ecx, DWORD PTR _this$[ebp]
  00003	e9 00 00 00 00	 jmp	 ??1_Lockit@std@@QAE@XZ	; std::_Lockit::~_Lockit
__unwindfunclet$??1_Locinfo@std@@QAE@XZ$1:
  00008	8b 4d f0	 mov	 ecx, DWORD PTR _this$[ebp]
  0000b	83 c1 04	 add	 ecx, 4
  0000e	e9 00 00 00 00	 jmp	 ??1?$_Yarn@D@std@@QAE@XZ ; std::_Yarn<char>::~_Yarn<char>
__unwindfunclet$??1_Locinfo@std@@QAE@XZ$2:
  00013	8b 4d f0	 mov	 ecx, DWORD PTR _this$[ebp]
  00016	83 c1 0c	 add	 ecx, 12			; 0000000cH
  00019	e9 00 00 00 00	 jmp	 ??1?$_Yarn@D@std@@QAE@XZ ; std::_Yarn<char>::~_Yarn<char>
__unwindfunclet$??1_Locinfo@std@@QAE@XZ$3:
  0001e	8b 4d f0	 mov	 ecx, DWORD PTR _this$[ebp]
  00021	83 c1 14	 add	 ecx, 20			; 00000014H
  00024	e9 00 00 00 00	 jmp	 ??1?$_Yarn@D@std@@QAE@XZ ; std::_Yarn<char>::~_Yarn<char>
__unwindfunclet$??1_Locinfo@std@@QAE@XZ$4:
  00029	8b 4d f0	 mov	 ecx, DWORD PTR _this$[ebp]
  0002c	83 c1 1c	 add	 ecx, 28			; 0000001cH
  0002f	e9 00 00 00 00	 jmp	 ??1?$_Yarn@D@std@@QAE@XZ ; std::_Yarn<char>::~_Yarn<char>
__ehhandler$??1_Locinfo@std@@QAE@XZ:
  00034	8b 54 24 08	 mov	 edx, DWORD PTR [esp+8]
  00038	8d 42 0c	 lea	 eax, DWORD PTR [edx+12]
  0003b	8b 4a f0	 mov	 ecx, DWORD PTR [edx-16]
  0003e	33 c8		 xor	 ecx, eax
  00040	e8 00 00 00 00	 call	 @__security_check_cookie@4
  00045	b8 00 00 00 00	 mov	 eax, OFFSET __ehfuncinfo$??1_Locinfo@std@@QAE@XZ
  0004a	e9 00 00 00 00	 jmp	 ___CxxFrameHandler3
text$x	ENDS
??1_Locinfo@std@@QAE@XZ ENDP				; std::_Locinfo::~_Locinfo
PUBLIC	?_Getcat@?$ctype@D@std@@SAIPAPBVfacet@locale@2@PBV42@@Z ; std::ctype<char>::_Getcat
;	COMDAT xdata$x
xdata$x	SEGMENT
__unwindtable$?_Getcat@?$ctype@D@std@@SAIPAPBVfacet@locale@2@PBV42@@Z DD 0ffffffffH
	DD	FLAT:__unwindfunclet$?_Getcat@?$ctype@D@std@@SAIPAPBVfacet@locale@2@PBV42@@Z$0
__ehfuncinfo$?_Getcat@?$ctype@D@std@@SAIPAPBVfacet@locale@2@PBV42@@Z DD 019930522H
	DD	01H
	DD	FLAT:__unwindtable$?_Getcat@?$ctype@D@std@@SAIPAPBVfacet@locale@2@PBV42@@Z
	DD	2 DUP(00H)
	DD	2 DUP(00H)
	DD	00H
	DD	01H
; Function compile flags: /Ogtp
; File d:\program files (x86)\microsoft visual studio 10.0\vc\include\xlocale
xdata$x	ENDS
;	COMDAT ?_Getcat@?$ctype@D@std@@SAIPAPBVfacet@locale@2@PBV42@@Z
_TEXT	SEGMENT
$T210959 = -68						; size = 36
$T211016 = -32						; size = 16
$T210963 = -16						; size = 4
$T210958 = -16						; size = 4
__$EHRec$ = -12						; size = 12
__Ppf$ = 8						; size = 4
__Ploc$ = 12						; size = 4
?_Getcat@?$ctype@D@std@@SAIPAPBVfacet@locale@2@PBV42@@Z PROC ; std::ctype<char>::_Getcat, COMDAT

; 2371 : 		{	// return locale category mask and construct standard facet

  00000	55		 push	 ebp
  00001	8b ec		 mov	 ebp, esp
  00003	6a ff		 push	 -1
  00005	68 00 00 00 00	 push	 __ehhandler$?_Getcat@?$ctype@D@std@@SAIPAPBVfacet@locale@2@PBV42@@Z
  0000a	64 a1 00 00 00
	00		 mov	 eax, DWORD PTR fs:0
  00010	50		 push	 eax
  00011	83 ec 38	 sub	 esp, 56			; 00000038H
  00014	53		 push	 ebx
  00015	56		 push	 esi
  00016	a1 00 00 00 00	 mov	 eax, DWORD PTR ___security_cookie
  0001b	33 c5		 xor	 eax, ebp
  0001d	50		 push	 eax
  0001e	8d 45 f4	 lea	 eax, DWORD PTR __$EHRec$[ebp]
  00021	64 a3 00 00 00
	00		 mov	 DWORD PTR fs:0, eax

; 2372 : 		if (_Ppf != 0 && *_Ppf == 0)

  00027	8b 45 08	 mov	 eax, DWORD PTR __Ppf$[ebp]
  0002a	33 db		 xor	 ebx, ebx
  0002c	89 5d f0	 mov	 DWORD PTR $T210963[ebp], ebx
  0002f	85 c0		 test	 eax, eax
  00031	0f 84 8c 00 00
	00		 je	 $LN28@Getcat
  00037	39 18		 cmp	 DWORD PTR [eax], ebx
  00039	0f 85 84 00 00
	00		 jne	 $LN28@Getcat

; 2373 : 			*_Ppf = _NEW_CRT ctype<_Elem>(
; 2374 : 				_Locinfo(_Ploc->c_str()));

  0003f	6a 18		 push	 24			; 00000018H
  00041	e8 00 00 00 00	 call	 ??2@YAPAXI@Z		; operator new
  00046	8b f0		 mov	 esi, eax
  00048	83 c4 04	 add	 esp, 4
  0004b	89 75 f0	 mov	 DWORD PTR $T210958[ebp], esi
  0004e	89 5d fc	 mov	 DWORD PTR __$EHRec$[ebp+8], ebx
  00051	85 f6		 test	 esi, esi
  00053	74 53		 je	 SHORT $LN4@Getcat
  00055	8b 45 0c	 mov	 eax, DWORD PTR __Ploc$[ebp]
  00058	8b 00		 mov	 eax, DWORD PTR [eax]
  0005a	8b 48 18	 mov	 ecx, DWORD PTR [eax+24]
  0005d	85 c9		 test	 ecx, ecx
  0005f	74 04		 je	 SHORT $LN14@Getcat
  00061	8b c1		 mov	 eax, ecx
  00063	eb 03		 jmp	 SHORT $LN15@Getcat
$LN14@Getcat:
  00065	83 c0 1c	 add	 eax, 28			; 0000001cH
$LN15@Getcat:
  00068	50		 push	 eax
  00069	8d 4d bc	 lea	 ecx, DWORD PTR $T210959[ebp]
  0006c	e8 00 00 00 00	 call	 ??0_Locinfo@std@@QAE@PBD@Z ; std::_Locinfo::_Locinfo
  00071	8d 4d e0	 lea	 ecx, DWORD PTR $T211016[ebp]
  00074	51		 push	 ecx
  00075	bb 01 00 00 00	 mov	 ebx, 1
  0007a	c7 46 04 00 00
	00 00		 mov	 DWORD PTR [esi+4], 0
  00081	c7 06 00 00 00
	00		 mov	 DWORD PTR [esi], OFFSET ??_7?$ctype@D@std@@6B@
  00087	e8 00 00 00 00	 call	 __Getctype
  0008c	8b 10		 mov	 edx, DWORD PTR [eax]
  0008e	89 56 08	 mov	 DWORD PTR [esi+8], edx
  00091	8b 48 04	 mov	 ecx, DWORD PTR [eax+4]
  00094	89 4e 0c	 mov	 DWORD PTR [esi+12], ecx
  00097	8b 50 08	 mov	 edx, DWORD PTR [eax+8]
  0009a	89 56 10	 mov	 DWORD PTR [esi+16], edx
  0009d	8b 40 0c	 mov	 eax, DWORD PTR [eax+12]
  000a0	83 c4 04	 add	 esp, 4
  000a3	89 46 14	 mov	 DWORD PTR [esi+20], eax
  000a6	eb 02		 jmp	 SHORT $LN5@Getcat
$LN4@Getcat:
  000a8	33 f6		 xor	 esi, esi
$LN5@Getcat:
  000aa	8b 4d 08	 mov	 ecx, DWORD PTR __Ppf$[ebp]
  000ad	c7 45 fc ff ff
	ff ff		 mov	 DWORD PTR __$EHRec$[ebp+8], -1
  000b4	89 31		 mov	 DWORD PTR [ecx], esi
  000b6	f6 c3 01	 test	 bl, 1
  000b9	74 08		 je	 SHORT $LN28@Getcat
  000bb	8d 4d bc	 lea	 ecx, DWORD PTR $T210959[ebp]
  000be	e8 00 00 00 00	 call	 ??1_Locinfo@std@@QAE@XZ	; std::_Locinfo::~_Locinfo
$LN28@Getcat:

; 2375 : 		return (_X_CTYPE);

  000c3	b8 02 00 00 00	 mov	 eax, 2

; 2376 : 		}

  000c8	8b 4d f4	 mov	 ecx, DWORD PTR __$EHRec$[ebp]
  000cb	64 89 0d 00 00
	00 00		 mov	 DWORD PTR fs:0, ecx
  000d2	59		 pop	 ecx
  000d3	5e		 pop	 esi
  000d4	5b		 pop	 ebx
  000d5	8b e5		 mov	 esp, ebp
  000d7	5d		 pop	 ebp
  000d8	c3		 ret	 0
_TEXT	ENDS
;	COMDAT text$x
text$x	SEGMENT
__unwindfunclet$?_Getcat@?$ctype@D@std@@SAIPAPBVfacet@locale@2@PBV42@@Z$0:
  00000	8b 45 f0	 mov	 eax, DWORD PTR $T210958[ebp]
  00003	50		 push	 eax
  00004	e8 00 00 00 00	 call	 ??3@YAXPAX@Z		; operator delete
  00009	59		 pop	 ecx
  0000a	c3		 ret	 0
__ehhandler$?_Getcat@?$ctype@D@std@@SAIPAPBVfacet@locale@2@PBV42@@Z:
  0000b	8b 54 24 08	 mov	 edx, DWORD PTR [esp+8]
  0000f	8d 42 0c	 lea	 eax, DWORD PTR [edx+12]
  00012	8b 4a bc	 mov	 ecx, DWORD PTR [edx-68]
  00015	33 c8		 xor	 ecx, eax
  00017	e8 00 00 00 00	 call	 @__security_check_cookie@4
  0001c	b8 00 00 00 00	 mov	 eax, OFFSET __ehfuncinfo$?_Getcat@?$ctype@D@std@@SAIPAPBVfacet@locale@2@PBV42@@Z
  00021	e9 00 00 00 00	 jmp	 ___CxxFrameHandler3
text$x	ENDS
?_Getcat@?$ctype@D@std@@SAIPAPBVfacet@locale@2@PBV42@@Z ENDP ; std::ctype<char>::_Getcat
PUBLIC	?setstate@?$basic_ios@DU?$char_traits@D@std@@@std@@QAEXH_N@Z ; std::basic_ios<char,std::char_traits<char> >::setstate
; Function compile flags: /Ogtp
; File d:\program files (x86)\microsoft visual studio 10.0\vc\include\ios
;	COMDAT ?setstate@?$basic_ios@DU?$char_traits@D@std@@@std@@QAEXH_N@Z
_TEXT	SEGMENT
__State$ = 8						; size = 4
__Reraise$ = 12						; size = 1
?setstate@?$basic_ios@DU?$char_traits@D@std@@@std@@QAEXH_N@Z PROC ; std::basic_ios<char,std::char_traits<char> >::setstate, COMDAT
; _this$ = ecx

; 54   : 		{	// merge _State into state, possible reraise exception

  00000	55		 push	 ebp
  00001	8b ec		 mov	 ebp, esp

; 55   : 		if (_State != goodbit)

  00003	8b 55 08	 mov	 edx, DWORD PTR __State$[ebp]
  00006	85 d2		 test	 edx, edx
  00008	74 18		 je	 SHORT $LN6@setstate

; 56   : 			clear((iostate)((int)rdstate() | (int)_State), _Reraise);

  0000a	8b 41 0c	 mov	 eax, DWORD PTR [ecx+12]
  0000d	0b c2		 or	 eax, edx
  0000f	83 79 38 00	 cmp	 DWORD PTR [ecx+56], 0
  00013	75 03		 jne	 SHORT $LN8@setstate
  00015	83 c8 04	 or	 eax, 4
$LN8@setstate:
  00018	8b 55 0c	 mov	 edx, DWORD PTR __Reraise$[ebp]
  0001b	52		 push	 edx
  0001c	50		 push	 eax
  0001d	e8 00 00 00 00	 call	 ?clear@ios_base@std@@QAEXH_N@Z ; std::ios_base::clear
$LN6@setstate:

; 57   : 		}

  00022	5d		 pop	 ebp
  00023	c2 08 00	 ret	 8
?setstate@?$basic_ios@DU?$char_traits@D@std@@@std@@QAEXH_N@Z ENDP ; std::basic_ios<char,std::char_traits<char> >::setstate
_TEXT	ENDS
PUBLIC	?_Tidy@?$basic_string@DU?$char_traits@D@std@@V?$allocator@D@2@@std@@QAEX_NI@Z ; std::basic_string<char,std::char_traits<char>,std::allocator<char> >::_Tidy
; Function compile flags: /Ogtp
; File d:\program files (x86)\microsoft visual studio 10.0\vc\include\xstring
;	COMDAT ?_Tidy@?$basic_string@DU?$char_traits@D@std@@V?$allocator@D@2@@std@@QAEX_NI@Z
_TEXT	SEGMENT
__Built$ = 8						; size = 1
__Newsize$ = 12						; size = 4
?_Tidy@?$basic_string@DU?$char_traits@D@std@@V?$allocator@D@2@@std@@QAEX_NI@Z PROC ; std::basic_string<char,std::char_traits<char>,std::allocator<char> >::_Tidy, COMDAT
; _this$ = ecx

; 1988 : 		{	// initialize buffer, deallocating any storage

  00000	55		 push	 ebp
  00001	8b ec		 mov	 ebp, esp

; 1989 : 		if (!_Built)

  00003	80 7d 08 00	 cmp	 BYTE PTR __Built$[ebp], 0
  00007	56		 push	 esi
  00008	57		 push	 edi
  00009	8b 7d 0c	 mov	 edi, DWORD PTR __Newsize$[ebp]
  0000c	8b f1		 mov	 esi, ecx
  0000e	74 22		 je	 SHORT $LN9@Tidy@3

; 1990 : 			;
; 1991 : 		else if (this->_BUF_SIZE <= this->_Myres)

  00010	83 7e 14 10	 cmp	 DWORD PTR [esi+20], 16	; 00000010H
  00014	72 1c		 jb	 SHORT $LN9@Tidy@3

; 1992 : 			{	// copy any leftovers to small buffer and deallocate
; 1993 : 			_Elem *_Ptr = this->_Bx._Ptr;

  00016	53		 push	 ebx
  00017	8b 1e		 mov	 ebx, DWORD PTR [esi]

; 1994 : 			if (0 < _Newsize)

  00019	85 ff		 test	 edi, edi
  0001b	74 0b		 je	 SHORT $LN7@Tidy@3

; 1995 : 				_Traits::copy(this->_Bx._Buf, _Ptr, _Newsize);

  0001d	57		 push	 edi
  0001e	53		 push	 ebx
  0001f	56		 push	 esi
  00020	e8 00 00 00 00	 call	 _memcpy
  00025	83 c4 0c	 add	 esp, 12			; 0000000cH
$LN7@Tidy@3:

; 1996 : 			this->_Alval.deallocate(_Ptr, this->_Myres + 1);

  00028	53		 push	 ebx
  00029	e8 00 00 00 00	 call	 ??3@YAXPAX@Z		; operator delete
  0002e	83 c4 04	 add	 esp, 4
  00031	5b		 pop	 ebx
$LN9@Tidy@3:

; 1997 : 			}
; 1998 : 		this->_Myres = this->_BUF_SIZE - 1;
; 1999 : 		_Eos(_Newsize);

  00032	89 7e 10	 mov	 DWORD PTR [esi+16], edi
  00035	c7 46 14 0f 00
	00 00		 mov	 DWORD PTR [esi+20], 15	; 0000000fH
  0003c	c6 04 37 00	 mov	 BYTE PTR [edi+esi], 0
  00040	5f		 pop	 edi
  00041	5e		 pop	 esi

; 2000 : 		}

  00042	5d		 pop	 ebp
  00043	c2 08 00	 ret	 8
?_Tidy@?$basic_string@DU?$char_traits@D@std@@V?$allocator@D@2@@std@@QAEX_NI@Z ENDP ; std::basic_string<char,std::char_traits<char>,std::allocator<char> >::_Tidy
_TEXT	ENDS
PUBLIC	?begin@?$basic_string@DU?$char_traits@D@std@@V?$allocator@D@2@@std@@QAE?AV?$_String_iterator@DU?$char_traits@D@std@@V?$allocator@D@2@@2@XZ ; std::basic_string<char,std::char_traits<char>,std::allocator<char> >::begin
; Function compile flags: /Ogtp
;	COMDAT ?begin@?$basic_string@DU?$char_traits@D@std@@V?$allocator@D@2@@std@@QAE?AV?$_String_iterator@DU?$char_traits@D@std@@V?$allocator@D@2@@2@XZ
_TEXT	SEGMENT
___$ReturnUdt$ = 8					; size = 4
?begin@?$basic_string@DU?$char_traits@D@std@@V?$allocator@D@2@@std@@QAE?AV?$_String_iterator@DU?$char_traits@D@std@@V?$allocator@D@2@@2@XZ PROC ; std::basic_string<char,std::char_traits<char>,std::allocator<char> >::begin, COMDAT
; _this$ = ecx

; 1351 : 		{	// return iterator for beginning of mutable sequence

  00000	55		 push	 ebp
  00001	8b ec		 mov	 ebp, esp

; 1352 : 		return (_STRING_ITERATOR(_Myptr()));

  00003	83 79 14 10	 cmp	 DWORD PTR [ecx+20], 16	; 00000010H
  00007	8b 45 08	 mov	 eax, DWORD PTR ___$ReturnUdt$[ebp]
  0000a	72 02		 jb	 SHORT $LN5@begin
  0000c	8b 09		 mov	 ecx, DWORD PTR [ecx]
$LN5@begin:
  0000e	89 08		 mov	 DWORD PTR [eax], ecx

; 1353 : 		}

  00010	5d		 pop	 ebp
  00011	c2 04 00	 ret	 4
?begin@?$basic_string@DU?$char_traits@D@std@@V?$allocator@D@2@@std@@QAE?AV?$_String_iterator@DU?$char_traits@D@std@@V?$allocator@D@2@@2@XZ ENDP ; std::basic_string<char,std::char_traits<char>,std::allocator<char> >::begin
_TEXT	ENDS
PUBLIC	?_Copy@?$basic_string@DU?$char_traits@D@std@@V?$allocator@D@2@@std@@QAEXII@Z ; std::basic_string<char,std::char_traits<char>,std::allocator<char> >::_Copy
;	COMDAT xdata$x
; File d:\program files (x86)\microsoft visual studio 10.0\vc\include\iosfwd
xdata$x	SEGMENT
__catchsym$?_Copy@?$basic_string@DU?$char_traits@D@std@@V?$allocator@D@2@@std@@QAEXII@Z$5 DD 040H
	DD	00H
	DD	00H
	DD	FLAT:__catch$?_Copy@?$basic_string@DU?$char_traits@D@std@@V?$allocator@D@2@@std@@QAEXII@Z$0
__catchsym$?_Copy@?$basic_string@DU?$char_traits@D@std@@V?$allocator@D@2@@std@@QAEXII@Z$4 DD 040H
	DD	00H
	DD	00H
	DD	FLAT:__catch$?_Copy@?$basic_string@DU?$char_traits@D@std@@V?$allocator@D@2@@std@@QAEXII@Z$1
__unwindtable$?_Copy@?$basic_string@DU?$char_traits@D@std@@V?$allocator@D@2@@std@@QAEXII@Z DD 0ffffffffH
	DD	00H
	DD	0ffffffffH
	DD	00H
	DD	01H
	DD	00H
	DD	01H
	DD	00H
__ehfuncinfo$?_Copy@?$basic_string@DU?$char_traits@D@std@@V?$allocator@D@2@@std@@QAEXII@Z DD 019930522H
	DD	04H
	DD	FLAT:__unwindtable$?_Copy@?$basic_string@DU?$char_traits@D@std@@V?$allocator@D@2@@std@@QAEXII@Z
	DD	02H
	DD	FLAT:__tryblocktable$?_Copy@?$basic_string@DU?$char_traits@D@std@@V?$allocator@D@2@@std@@QAEXII@Z
	DD	2 DUP(00H)
	DD	00H
	DD	01H
__tryblocktable$?_Copy@?$basic_string@DU?$char_traits@D@std@@V?$allocator@D@2@@std@@QAEXII@Z DD 02H
	DD	02H
	DD	03H
	DD	01H
	DD	FLAT:__catchsym$?_Copy@?$basic_string@DU?$char_traits@D@std@@V?$allocator@D@2@@std@@QAEXII@Z$4
	DD	00H
	DD	00H
	DD	03H
	DD	01H
	DD	FLAT:__catchsym$?_Copy@?$basic_string@DU?$char_traits@D@std@@V?$allocator@D@2@@std@@QAEXII@Z$5
; Function compile flags: /Ogtp
; File d:\program files (x86)\microsoft visual studio 10.0\vc\include\xstring
xdata$x	ENDS
;	COMDAT ?_Copy@?$basic_string@DU?$char_traits@D@std@@V?$allocator@D@2@@std@@QAEXII@Z
_TEXT	SEGMENT
$T211194 = -40						; size = 12
__Newres$ = -28						; size = 4
$T211177 = -24						; size = 4
_this$ = -20						; size = 4
__$EHRec$ = -16						; size = 16
__Ptr$ = 8						; size = 4
__Newsize$ = 8						; size = 4
__Oldlen$ = 12						; size = 4
?_Copy@?$basic_string@DU?$char_traits@D@std@@V?$allocator@D@2@@std@@QAEXII@Z PROC ; std::basic_string<char,std::char_traits<char>,std::allocator<char> >::_Copy, COMDAT
; _this$ = ecx

; 1919 : 		{	// copy _Oldlen elements to newly allocated buffer

  00000	55		 push	 ebp
  00001	8b ec		 mov	 ebp, esp
  00003	6a ff		 push	 -1
  00005	68 00 00 00 00	 push	 __ehhandler$?_Copy@?$basic_string@DU?$char_traits@D@std@@V?$allocator@D@2@@std@@QAEXII@Z
  0000a	64 a1 00 00 00
	00		 mov	 eax, DWORD PTR fs:0
  00010	50		 push	 eax
  00011	83 ec 1c	 sub	 esp, 28			; 0000001cH
  00014	53		 push	 ebx
  00015	56		 push	 esi
  00016	57		 push	 edi
  00017	a1 00 00 00 00	 mov	 eax, DWORD PTR ___security_cookie
  0001c	33 c5		 xor	 eax, ebp
  0001e	50		 push	 eax
  0001f	8d 45 f4	 lea	 eax, DWORD PTR __$EHRec$[ebp+4]
  00022	64 a3 00 00 00
	00		 mov	 DWORD PTR fs:0, eax
  00028	89 65 f0	 mov	 DWORD PTR __$EHRec$[ebp], esp
  0002b	8b f9		 mov	 edi, ecx
  0002d	89 7d ec	 mov	 DWORD PTR _this$[ebp], edi

; 1920 : 		size_type _Newres = _Newsize | this->_ALLOC_MASK;

  00030	8b 45 08	 mov	 eax, DWORD PTR __Newsize$[ebp]
  00033	8b f0		 mov	 esi, eax
  00035	83 ce 0f	 or	 esi, 15			; 0000000fH

; 1921 : 		if (max_size() < _Newres)

  00038	83 fe fe	 cmp	 esi, -2			; fffffffeH
  0003b	76 04		 jbe	 SHORT $LN9@Copy

; 1922 : 			_Newres = _Newsize;	// undo roundup if too big

  0003d	8b f0		 mov	 esi, eax
  0003f	eb 27		 jmp	 SHORT $LN39@Copy
$LN9@Copy:

; 1923 : 		else if (this->_Myres / 2 <= _Newres / 3)

  00041	8b 5f 14	 mov	 ebx, DWORD PTR [edi+20]
  00044	b8 ab aa aa aa	 mov	 eax, -1431655765	; aaaaaaabH
  00049	f7 e6		 mul	 esi
  0004b	8b cb		 mov	 ecx, ebx
  0004d	d1 e9		 shr	 ecx, 1
  0004f	d1 ea		 shr	 edx, 1
  00051	3b ca		 cmp	 ecx, edx
  00053	76 13		 jbe	 SHORT $LN39@Copy

; 1924 : 			;
; 1925 : 		else if (this->_Myres <= max_size() - this->_Myres / 2)

  00055	b8 fe ff ff ff	 mov	 eax, -2			; fffffffeH
  0005a	2b c1		 sub	 eax, ecx

; 1926 : 			_Newres = this->_Myres
; 1927 : 				+ this->_Myres / 2;	// grow exponentially if possible

  0005c	8d 34 19	 lea	 esi, DWORD PTR [ecx+ebx]
  0005f	3b d8		 cmp	 ebx, eax
  00061	76 05		 jbe	 SHORT $LN39@Copy

; 1928 : 		else
; 1929 : 			_Newres = max_size();	// settle for max_size()

  00063	be fe ff ff ff	 mov	 esi, -2			; fffffffeH
$LN39@Copy:

; 1930 : 
; 1931 : 		_Elem *_Ptr;
; 1932 : 		_TRY_BEGIN

  00068	33 c0		 xor	 eax, eax

; 1933 : 			_Ptr = this->_Alval.allocate(_Newres + 1);

  0006a	8d 4e 01	 lea	 ecx, DWORD PTR [esi+1]
  0006d	89 45 fc	 mov	 DWORD PTR __$EHRec$[ebp+12], eax
  00070	3b c8		 cmp	 ecx, eax
  00072	76 12		 jbe	 SHORT $LN47@Copy
  00074	83 f9 ff	 cmp	 ecx, -1
  00077	77 12		 ja	 SHORT $LN46@Copy
  00079	51		 push	 ecx
  0007a	e8 00 00 00 00	 call	 ??2@YAPAXI@Z		; operator new
  0007f	83 c4 04	 add	 esp, 4
  00082	85 c0		 test	 eax, eax
  00084	74 05		 je	 SHORT $LN46@Copy
$LN47@Copy:
  00086	89 45 08	 mov	 DWORD PTR __Ptr$[ebp], eax
  00089	eb 51		 jmp	 SHORT $LN19@Copy
$LN46@Copy:
  0008b	8d 4d e8	 lea	 ecx, DWORD PTR $T211177[ebp]
  0008e	51		 push	 ecx
  0008f	8d 4d d8	 lea	 ecx, DWORD PTR $T211194[ebp]
  00092	c7 45 e8 00 00
	00 00		 mov	 DWORD PTR $T211177[ebp], 0
  00099	e8 00 00 00 00	 call	 ??0exception@std@@QAE@ABQBD@Z ; std::exception::exception
  0009e	68 00 00 00 00	 push	 OFFSET __TI2?AVbad_alloc@std@@
  000a3	8d 55 d8	 lea	 edx, DWORD PTR $T211194[ebp]
  000a6	52		 push	 edx
  000a7	c7 45 d8 00 00
	00 00		 mov	 DWORD PTR $T211194[ebp], OFFSET ??_7bad_alloc@std@@6B@
  000ae	e8 00 00 00 00	 call	 __CxxThrowException@8
$LN112@Copy:
__catch$?_Copy@?$basic_string@DU?$char_traits@D@std@@V?$allocator@D@2@@std@@QAEXII@Z$0:

; 1934 : 		_CATCH_ALL
; 1935 : 			_Newres = _Newsize;	// allocation failed, undo roundup and retry

  000b3	8b 45 08	 mov	 eax, DWORD PTR __Newsize$[ebp]

; 1936 : 			_TRY_BEGIN
; 1937 : 				_Ptr = this->_Alval.allocate(_Newres + 1);

  000b6	8b 4d ec	 mov	 ecx, DWORD PTR _this$[ebp]
  000b9	89 45 e4	 mov	 DWORD PTR __Newres$[ebp], eax
  000bc	40		 inc	 eax
  000bd	89 65 f0	 mov	 DWORD PTR __$EHRec$[ebp], esp
  000c0	50		 push	 eax
  000c1	83 c1 18	 add	 ecx, 24			; 00000018H
  000c4	c6 45 fc 02	 mov	 BYTE PTR __$EHRec$[ebp+12], 2
  000c8	e8 00 00 00 00	 call	 ?allocate@?$allocator@D@std@@QAEPADI@Z ; std::allocator<char>::allocate
  000cd	89 45 08	 mov	 DWORD PTR __Ptr$[ebp], eax

; 1941 : 			_CATCH_END
; 1942 : 		_CATCH_END

  000d0	b8 00 00 00 00	 mov	 eax, $LN107@Copy
  000d5	c3		 ret	 0
$LN107@Copy:
  000d6	8b 7d ec	 mov	 edi, DWORD PTR _this$[ebp]
  000d9	8b 75 e4	 mov	 esi, DWORD PTR __Newres$[ebp]
$LN19@Copy:

; 1943 : 
; 1944 : 		if (0 < _Oldlen)

  000dc	8b 5d 0c	 mov	 ebx, DWORD PTR __Oldlen$[ebp]
  000df	85 db		 test	 ebx, ebx
  000e1	74 1a		 je	 SHORT $LN78@Copy

; 1945 : 			_Traits::copy(_Ptr, _Myptr(), _Oldlen);	// copy existing elements

  000e3	83 7f 14 10	 cmp	 DWORD PTR [edi+20], 16	; 00000010H
  000e7	72 04		 jb	 SHORT $LN76@Copy
  000e9	8b 07		 mov	 eax, DWORD PTR [edi]
  000eb	eb 02		 jmp	 SHORT $LN77@Copy
$LN76@Copy:
  000ed	8b c7		 mov	 eax, edi
$LN77@Copy:
  000ef	53		 push	 ebx
  000f0	50		 push	 eax
  000f1	8b 45 08	 mov	 eax, DWORD PTR __Ptr$[ebp]
  000f4	50		 push	 eax
  000f5	e8 00 00 00 00	 call	 _memcpy
  000fa	83 c4 0c	 add	 esp, 12			; 0000000cH
$LN78@Copy:

; 1946 : 		_Tidy(true);

  000fd	83 7f 14 10	 cmp	 DWORD PTR [edi+20], 16	; 00000010H
  00101	72 0b		 jb	 SHORT $LN88@Copy
  00103	8b 0f		 mov	 ecx, DWORD PTR [edi]
  00105	51		 push	 ecx
  00106	e8 00 00 00 00	 call	 ??3@YAXPAX@Z		; operator delete
  0010b	83 c4 04	 add	 esp, 4
$LN88@Copy:

; 1947 : 		this->_Bx._Ptr = _Ptr;

  0010e	8b 45 08	 mov	 eax, DWORD PTR __Ptr$[ebp]
  00111	c6 07 00	 mov	 BYTE PTR [edi], 0
  00114	89 07		 mov	 DWORD PTR [edi], eax

; 1948 : 		this->_Myres = _Newres;

  00116	89 77 14	 mov	 DWORD PTR [edi+20], esi

; 1949 : 		_Eos(_Oldlen);

  00119	89 5f 10	 mov	 DWORD PTR [edi+16], ebx
  0011c	83 fe 10	 cmp	 esi, 16			; 00000010H
  0011f	72 02		 jb	 SHORT $LN102@Copy
  00121	8b f8		 mov	 edi, eax
$LN102@Copy:
  00123	c6 04 1f 00	 mov	 BYTE PTR [edi+ebx], 0

; 1950 : 		}

  00127	8b 4d f4	 mov	 ecx, DWORD PTR __$EHRec$[ebp+4]
  0012a	64 89 0d 00 00
	00 00		 mov	 DWORD PTR fs:0, ecx
  00131	59		 pop	 ecx
  00132	5f		 pop	 edi
  00133	5e		 pop	 esi
  00134	5b		 pop	 ebx
  00135	8b e5		 mov	 esp, ebp
  00137	5d		 pop	 ebp
  00138	c2 08 00	 ret	 8
__catch$?_Copy@?$basic_string@DU?$char_traits@D@std@@V?$allocator@D@2@@std@@QAEXII@Z$1:

; 1938 : 			_CATCH_ALL
; 1939 : 			_Tidy(true);	// failed again, discard storage and reraise

  0013b	8b 75 ec	 mov	 esi, DWORD PTR _this$[ebp]
  0013e	83 7e 14 10	 cmp	 DWORD PTR [esi+20], 16	; 00000010H
  00142	72 0b		 jb	 SHORT $LN64@Copy
  00144	8b 16		 mov	 edx, DWORD PTR [esi]
  00146	52		 push	 edx
  00147	e8 00 00 00 00	 call	 ??3@YAXPAX@Z		; operator delete
  0014c	83 c4 04	 add	 esp, 4
$LN64@Copy:

; 1940 : 			_RERAISE;

  0014f	6a 00		 push	 0
  00151	c7 46 14 0f 00
	00 00		 mov	 DWORD PTR [esi+20], 15	; 0000000fH
  00158	c7 46 10 00 00
	00 00		 mov	 DWORD PTR [esi+16], 0
  0015f	6a 00		 push	 0
  00161	c6 06 00	 mov	 BYTE PTR [esi], 0
  00164	e8 00 00 00 00	 call	 __CxxThrowException@8
$LN113@Copy:
$LN111@Copy:
  00169	cc		 int	 3
_TEXT	ENDS
;	COMDAT text$x
text$x	SEGMENT
__ehhandler$?_Copy@?$basic_string@DU?$char_traits@D@std@@V?$allocator@D@2@@std@@QAEXII@Z:
  00000	8b 54 24 08	 mov	 edx, DWORD PTR [esp+8]
  00004	8d 42 0c	 lea	 eax, DWORD PTR [edx+12]
  00007	8b 4a d4	 mov	 ecx, DWORD PTR [edx-44]
  0000a	33 c8		 xor	 ecx, eax
  0000c	e8 00 00 00 00	 call	 @__security_check_cookie@4
  00011	b8 00 00 00 00	 mov	 eax, OFFSET __ehfuncinfo$?_Copy@?$basic_string@DU?$char_traits@D@std@@V?$allocator@D@2@@std@@QAEXII@Z
  00016	e9 00 00 00 00	 jmp	 ___CxxFrameHandler3
text$x	ENDS
?_Copy@?$basic_string@DU?$char_traits@D@std@@V?$allocator@D@2@@std@@QAEXII@Z ENDP ; std::basic_string<char,std::char_traits<char>,std::allocator<char> >::_Copy
PUBLIC	__TI2?AVbad_cast@std@@
PUBLIC	??_C@_08EPJLHIJG@bad?5cast?$AA@			; `string'
PUBLIC	?_Psave@?$_Facetptr@V?$ctype@D@std@@@std@@2PBVfacet@locale@2@B ; std::_Facetptr<std::ctype<char> >::_Psave
PUBLIC	??$use_facet@V?$ctype@D@std@@@std@@YAABV?$ctype@D@0@ABVlocale@0@@Z ; std::use_facet<std::ctype<char> >
PUBLIC	__CTA2?AVbad_cast@std@@
PUBLIC	__CT??_R0?AVbad_cast@std@@@8??0bad_cast@std@@QAE@ABV01@@Z12
PUBLIC	??_R0?AVbad_cast@std@@@8			; std::bad_cast `RTTI Type Descriptor'
EXTRN	??0bad_cast@std@@QAE@PBD@Z:PROC			; std::bad_cast::bad_cast
EXTRN	?id@?$ctype@D@std@@2V0locale@2@A:DWORD		; std::ctype<char>::id
EXTRN	??1bad_cast@std@@UAE@XZ:PROC			; std::bad_cast::~bad_cast
EXTRN	??0bad_cast@std@@QAE@ABV01@@Z:PROC		; std::bad_cast::bad_cast
;	COMDAT ?_Psave@?$_Facetptr@V?$ctype@D@std@@@std@@2PBVfacet@locale@2@B
; File d:\program files (x86)\microsoft visual studio 10.0\vc\include\xlocale
_BSS	SEGMENT
?_Psave@?$_Facetptr@V?$ctype@D@std@@@std@@2PBVfacet@locale@2@B DD 01H DUP (?) ; std::_Facetptr<std::ctype<char> >::_Psave
_BSS	ENDS
;	COMDAT ??_R0?AVbad_cast@std@@@8
_DATA	SEGMENT
??_R0?AVbad_cast@std@@@8 DD FLAT:??_7type_info@@6B@	; std::bad_cast `RTTI Type Descriptor'
	DD	00H
	DB	'.?AVbad_cast@std@@', 00H
_DATA	ENDS
;	COMDAT __CT??_R0?AVbad_cast@std@@@8??0bad_cast@std@@QAE@ABV01@@Z12
xdata$x	SEGMENT
__CT??_R0?AVbad_cast@std@@@8??0bad_cast@std@@QAE@ABV01@@Z12 DD 00H
	DD	FLAT:??_R0?AVbad_cast@std@@@8
	DD	00H
	DD	0ffffffffH
	ORG $+4
	DD	0cH
	DD	FLAT:??0bad_cast@std@@QAE@ABV01@@Z
xdata$x	ENDS
;	COMDAT __CTA2?AVbad_cast@std@@
xdata$x	SEGMENT
__CTA2?AVbad_cast@std@@ DD 02H
	DD	FLAT:__CT??_R0?AVbad_cast@std@@@8??0bad_cast@std@@QAE@ABV01@@Z12
	DD	FLAT:__CT??_R0?AVexception@std@@@8??0exception@std@@QAE@ABV01@@Z12
xdata$x	ENDS
;	COMDAT __TI2?AVbad_cast@std@@
xdata$x	SEGMENT
__TI2?AVbad_cast@std@@ DD 00H
	DD	FLAT:??1bad_cast@std@@UAE@XZ
	DD	00H
	DD	FLAT:__CTA2?AVbad_cast@std@@
xdata$x	ENDS
;	COMDAT ??_C@_08EPJLHIJG@bad?5cast?$AA@
CONST	SEGMENT
??_C@_08EPJLHIJG@bad?5cast?$AA@ DB 'bad cast', 00H	; `string'
CONST	ENDS
;	COMDAT xdata$x
xdata$x	SEGMENT
__unwindtable$??$use_facet@V?$ctype@D@std@@@std@@YAABV?$ctype@D@0@ABVlocale@0@@Z DD 0ffffffffH
	DD	FLAT:__unwindfunclet$??$use_facet@V?$ctype@D@std@@@std@@YAABV?$ctype@D@0@ABVlocale@0@@Z$0
__ehfuncinfo$??$use_facet@V?$ctype@D@std@@@std@@YAABV?$ctype@D@0@ABVlocale@0@@Z DD 019930522H
	DD	01H
	DD	FLAT:__unwindtable$??$use_facet@V?$ctype@D@std@@@std@@YAABV?$ctype@D@0@ABVlocale@0@@Z
	DD	2 DUP(00H)
	DD	2 DUP(00H)
	DD	00H
	DD	01H
; Function compile flags: /Ogtp
xdata$x	ENDS
;	COMDAT ??$use_facet@V?$ctype@D@std@@@std@@YAABV?$ctype@D@0@ABVlocale@0@@Z
_TEXT	SEGMENT
$T211352 = -36						; size = 12
__Lock$186619 = -24					; size = 4
__Lock$211360 = -20					; size = 4
__Psave$186620 = -16					; size = 4
__$EHRec$ = -12						; size = 12
__Lock$211382 = 8					; size = 4
__Loc$ = 8						; size = 4
??$use_facet@V?$ctype@D@std@@@std@@YAABV?$ctype@D@0@ABVlocale@0@@Z PROC ; std::use_facet<std::ctype<char> >, COMDAT

; 504  : 	{	// get facet reference from locale

  00000	55		 push	 ebp
  00001	8b ec		 mov	 ebp, esp
  00003	6a ff		 push	 -1
  00005	68 00 00 00 00	 push	 __ehhandler$??$use_facet@V?$ctype@D@std@@@std@@YAABV?$ctype@D@0@ABVlocale@0@@Z
  0000a	64 a1 00 00 00
	00		 mov	 eax, DWORD PTR fs:0
  00010	50		 push	 eax
  00011	83 ec 18	 sub	 esp, 24			; 00000018H
  00014	53		 push	 ebx
  00015	56		 push	 esi
  00016	57		 push	 edi
  00017	a1 00 00 00 00	 mov	 eax, DWORD PTR ___security_cookie
  0001c	33 c5		 xor	 eax, ebp
  0001e	50		 push	 eax
  0001f	8d 45 f4	 lea	 eax, DWORD PTR __$EHRec$[ebp]
  00022	64 a3 00 00 00
	00		 mov	 DWORD PTR fs:0, eax

; 505  : 	_BEGIN_LOCK(_LOCK_LOCALE)	// the thread lock, make get atomic

  00028	6a 00		 push	 0
  0002a	8d 4d e8	 lea	 ecx, DWORD PTR __Lock$186619[ebp]
  0002d	e8 00 00 00 00	 call	 ??0_Lockit@std@@QAE@H@Z	; std::_Lockit::_Lockit

; 506  : 		const locale::facet *_Psave =
; 507  : 			_Facetptr<_Facet>::_Psave;	// static pointer to lazy facet
; 508  : 
; 509  : 		size_t _Id = _Facet::id;

  00032	83 3d 00 00 00
	00 00		 cmp	 DWORD PTR ?id@?$ctype@D@std@@2V0locale@2@A, 0 ; std::ctype<char>::id
  00039	8b 1d 00 00 00
	00		 mov	 ebx, DWORD PTR ?_Psave@?$_Facetptr@V?$ctype@D@std@@@std@@2PBVfacet@locale@2@B ; std::_Facetptr<std::ctype<char> >::_Psave
  0003f	c7 45 fc 00 00
	00 00		 mov	 DWORD PTR __$EHRec$[ebp+8], 0
  00046	89 5d f0	 mov	 DWORD PTR __Psave$186620[ebp], ebx
  00049	75 2b		 jne	 SHORT $LN11@use_facet
  0004b	6a 00		 push	 0
  0004d	8d 4d ec	 lea	 ecx, DWORD PTR __Lock$211360[ebp]
  00050	e8 00 00 00 00	 call	 ??0_Lockit@std@@QAE@H@Z	; std::_Lockit::_Lockit
  00055	83 3d 00 00 00
	00 00		 cmp	 DWORD PTR ?id@?$ctype@D@std@@2V0locale@2@A, 0 ; std::ctype<char>::id
  0005c	75 10		 jne	 SHORT $LN10@use_facet
  0005e	a1 00 00 00 00	 mov	 eax, DWORD PTR ?_Id_cnt@id@locale@std@@0HA ; std::locale::id::_Id_cnt
  00063	40		 inc	 eax
  00064	a3 00 00 00 00	 mov	 DWORD PTR ?_Id_cnt@id@locale@std@@0HA, eax ; std::locale::id::_Id_cnt
  00069	a3 00 00 00 00	 mov	 DWORD PTR ?id@?$ctype@D@std@@2V0locale@2@A, eax ; std::ctype<char>::id
$LN10@use_facet:
  0006e	8d 4d ec	 lea	 ecx, DWORD PTR __Lock$211360[ebp]
  00071	e8 00 00 00 00	 call	 ??1_Lockit@std@@QAE@XZ	; std::_Lockit::~_Lockit
$LN11@use_facet:

; 510  : 		const locale::facet *_Pf = _Loc._Getfacet(_Id);

  00076	8b 7d 08	 mov	 edi, DWORD PTR __Loc$[ebp]
  00079	8b 35 00 00 00
	00		 mov	 esi, DWORD PTR ?id@?$ctype@D@std@@2V0locale@2@A ; std::ctype<char>::id
  0007f	8b 07		 mov	 eax, DWORD PTR [edi]
  00081	3b 70 0c	 cmp	 esi, DWORD PTR [eax+12]
  00084	73 22		 jae	 SHORT $LN20@use_facet
  00086	8b 48 08	 mov	 ecx, DWORD PTR [eax+8]
  00089	8b 0c b1	 mov	 ecx, DWORD PTR [ecx+esi*4]
  0008c	85 c9		 test	 ecx, ecx
  0008e	75 1c		 jne	 SHORT $LN16@use_facet
$LN30@use_facet:
  00090	80 78 14 00	 cmp	 BYTE PTR [eax+20], 0
  00094	74 16		 je	 SHORT $LN16@use_facet
  00096	e8 00 00 00 00	 call	 ?_Getgloballocale@locale@std@@CAPAV_Locimp@12@XZ ; std::locale::_Getgloballocale
  0009b	3b 70 0c	 cmp	 esi, DWORD PTR [eax+12]
  0009e	73 12		 jae	 SHORT $LN31@use_facet
  000a0	8b 50 08	 mov	 edx, DWORD PTR [eax+8]
  000a3	8b 34 b2	 mov	 esi, DWORD PTR [edx+esi*4]
  000a6	eb 06		 jmp	 SHORT $LN15@use_facet
$LN20@use_facet:
  000a8	33 c9		 xor	 ecx, ecx
  000aa	eb e4		 jmp	 SHORT $LN30@use_facet
$LN16@use_facet:
  000ac	8b f1		 mov	 esi, ecx
$LN15@use_facet:

; 511  : 
; 512  : 		if (_Pf != 0)

  000ae	85 f6		 test	 esi, esi
  000b0	75 65		 jne	 SHORT $LN28@use_facet
$LN31@use_facet:

; 513  : 			;	// got facet from locale
; 514  : 		else if (_Psave != 0)

  000b2	85 db		 test	 ebx, ebx
  000b4	74 04		 je	 SHORT $LN4@use_facet

; 515  : 			_Pf = _Psave;	// lazy facet already allocated

  000b6	8b f3		 mov	 esi, ebx
  000b8	eb 5d		 jmp	 SHORT $LN28@use_facet
$LN4@use_facet:

; 516  : 		else if (_Facet::_Getcat(&_Psave, &_Loc) == (size_t)(-1))

  000ba	8d 45 f0	 lea	 eax, DWORD PTR __Psave$186620[ebp]
  000bd	57		 push	 edi
  000be	50		 push	 eax
  000bf	e8 00 00 00 00	 call	 ?_Getcat@?$ctype@D@std@@SAIPAPBVfacet@locale@2@PBV42@@Z ; std::ctype<char>::_Getcat
  000c4	83 c4 08	 add	 esp, 8
  000c7	83 f8 ff	 cmp	 eax, -1
  000ca	75 1b		 jne	 SHORT $LN2@use_facet

; 517  : 
; 518  :  #if _HAS_EXCEPTIONS
; 519  : 
; 520  : 			_THROW_NCEE(bad_cast, _EMPTY_ARGUMENT);	// lazy disallowed

  000cc	68 00 00 00 00	 push	 OFFSET ??_C@_08EPJLHIJG@bad?5cast?$AA@
  000d1	8d 4d dc	 lea	 ecx, DWORD PTR $T211352[ebp]
  000d4	e8 00 00 00 00	 call	 ??0bad_cast@std@@QAE@PBD@Z ; std::bad_cast::bad_cast
  000d9	68 00 00 00 00	 push	 OFFSET __TI2?AVbad_cast@std@@
  000de	8d 4d dc	 lea	 ecx, DWORD PTR $T211352[ebp]
  000e1	51		 push	 ecx
  000e2	e8 00 00 00 00	 call	 __CxxThrowException@8
$LN37@use_facet:
$LN2@use_facet:

; 521  : 
; 522  :  #else /* _HAS_EXCEPTIONS */
; 523  : 			abort();	// lazy disallowed
; 524  :  #endif /* _HAS_EXCEPTIONS */
; 525  : 
; 526  : 		else
; 527  : 			{	// queue up lazy facet for destruction
; 528  : 			_Pf = _Psave;

  000e7	8b 75 f0	 mov	 esi, DWORD PTR __Psave$186620[ebp]

; 529  : 			_Facetptr<_Facet>::_Psave = _Psave;
; 530  : 
; 531  : 			locale::facet *_Pfmod = (_Facet *)_Psave;
; 532  : 			_Pfmod->_Incref();

  000ea	6a 00		 push	 0
  000ec	8d 4d 08	 lea	 ecx, DWORD PTR __Lock$211382[ebp]
  000ef	89 35 00 00 00
	00		 mov	 DWORD PTR ?_Psave@?$_Facetptr@V?$ctype@D@std@@@std@@2PBVfacet@locale@2@B, esi ; std::_Facetptr<std::ctype<char> >::_Psave
  000f5	e8 00 00 00 00	 call	 ??0_Lockit@std@@QAE@H@Z	; std::_Lockit::_Lockit
  000fa	8b 46 04	 mov	 eax, DWORD PTR [esi+4]
  000fd	83 f8 ff	 cmp	 eax, -1
  00100	73 04		 jae	 SHORT $LN24@use_facet
  00102	40		 inc	 eax
  00103	89 46 04	 mov	 DWORD PTR [esi+4], eax
$LN24@use_facet:
  00106	8d 4d 08	 lea	 ecx, DWORD PTR __Lock$211382[ebp]
  00109	e8 00 00 00 00	 call	 ??1_Lockit@std@@QAE@XZ	; std::_Lockit::~_Lockit

; 533  : 			_Pfmod->_Register();

  0010e	56		 push	 esi
  0010f	e8 00 00 00 00	 call	 ?_Facet_Register@facet@locale@std@@CAXPAV123@@Z ; std::locale::facet::_Facet_Register
  00114	83 c4 04	 add	 esp, 4
$LN28@use_facet:

; 534  : 			}
; 535  : 
; 536  : 		return ((const _Facet&)(*_Pf));	// should be dynamic_cast

  00117	8d 4d e8	 lea	 ecx, DWORD PTR __Lock$186619[ebp]
  0011a	c7 45 fc ff ff
	ff ff		 mov	 DWORD PTR __$EHRec$[ebp+8], -1
  00121	e8 00 00 00 00	 call	 ??1_Lockit@std@@QAE@XZ	; std::_Lockit::~_Lockit
  00126	8b c6		 mov	 eax, esi

; 537  : 	_END_LOCK()
; 538  : 	}

  00128	8b 4d f4	 mov	 ecx, DWORD PTR __$EHRec$[ebp]
  0012b	64 89 0d 00 00
	00 00		 mov	 DWORD PTR fs:0, ecx
  00132	59		 pop	 ecx
  00133	5f		 pop	 edi
  00134	5e		 pop	 esi
  00135	5b		 pop	 ebx
  00136	8b e5		 mov	 esp, ebp
  00138	5d		 pop	 ebp
  00139	c3		 ret	 0
$LN36@use_facet:
_TEXT	ENDS
;	COMDAT text$x
text$x	SEGMENT
__unwindfunclet$??$use_facet@V?$ctype@D@std@@@std@@YAABV?$ctype@D@0@ABVlocale@0@@Z$0:
  00000	8d 4d e8	 lea	 ecx, DWORD PTR __Lock$186619[ebp]
  00003	e9 00 00 00 00	 jmp	 ??1_Lockit@std@@QAE@XZ	; std::_Lockit::~_Lockit
__ehhandler$??$use_facet@V?$ctype@D@std@@@std@@YAABV?$ctype@D@0@ABVlocale@0@@Z:
  00008	8b 54 24 08	 mov	 edx, DWORD PTR [esp+8]
  0000c	8d 42 0c	 lea	 eax, DWORD PTR [edx+12]
  0000f	8b 4a d8	 mov	 ecx, DWORD PTR [edx-40]
  00012	33 c8		 xor	 ecx, eax
  00014	e8 00 00 00 00	 call	 @__security_check_cookie@4
  00019	b8 00 00 00 00	 mov	 eax, OFFSET __ehfuncinfo$??$use_facet@V?$ctype@D@std@@@std@@YAABV?$ctype@D@0@ABVlocale@0@@Z
  0001e	e9 00 00 00 00	 jmp	 ___CxxFrameHandler3
text$x	ENDS
??$use_facet@V?$ctype@D@std@@@std@@YAABV?$ctype@D@0@ABVlocale@0@@Z ENDP ; std::use_facet<std::ctype<char> >
PUBLIC	??_7?$basic_filebuf@DU?$char_traits@D@std@@@std@@6B@ ; std::basic_filebuf<char,std::char_traits<char> >::`vftable'
PUBLIC	??0?$basic_filebuf@DU?$char_traits@D@std@@@std@@QAE@PAU_iobuf@@@Z ; std::basic_filebuf<char,std::char_traits<char> >::basic_filebuf<char,std::char_traits<char> >
PUBLIC	??_R4?$basic_filebuf@DU?$char_traits@D@std@@@std@@6B@ ; std::basic_filebuf<char,std::char_traits<char> >::`RTTI Complete Object Locator'
PUBLIC	??_R0?AV?$basic_filebuf@DU?$char_traits@D@std@@@std@@@8 ; std::basic_filebuf<char,std::char_traits<char> > `RTTI Type Descriptor'
PUBLIC	??_R3?$basic_filebuf@DU?$char_traits@D@std@@@std@@8 ; std::basic_filebuf<char,std::char_traits<char> >::`RTTI Class Hierarchy Descriptor'
PUBLIC	??_R2?$basic_filebuf@DU?$char_traits@D@std@@@std@@8 ; std::basic_filebuf<char,std::char_traits<char> >::`RTTI Base Class Array'
PUBLIC	??_R1A@?0A@EA@?$basic_filebuf@DU?$char_traits@D@std@@@std@@8 ; std::basic_filebuf<char,std::char_traits<char> >::`RTTI Base Class Descriptor at (0,-1,0,64)'
PUBLIC	?_Lock@?$basic_filebuf@DU?$char_traits@D@std@@@std@@UAEXXZ ; std::basic_filebuf<char,std::char_traits<char> >::_Lock
PUBLIC	?_Unlock@?$basic_filebuf@DU?$char_traits@D@std@@@std@@UAEXXZ ; std::basic_filebuf<char,std::char_traits<char> >::_Unlock
PUBLIC	?overflow@?$basic_filebuf@DU?$char_traits@D@std@@@std@@MAEHH@Z ; std::basic_filebuf<char,std::char_traits<char> >::overflow
PUBLIC	?pbackfail@?$basic_filebuf@DU?$char_traits@D@std@@@std@@MAEHH@Z ; std::basic_filebuf<char,std::char_traits<char> >::pbackfail
PUBLIC	?underflow@?$basic_filebuf@DU?$char_traits@D@std@@@std@@MAEHXZ ; std::basic_filebuf<char,std::char_traits<char> >::underflow
PUBLIC	?uflow@?$basic_filebuf@DU?$char_traits@D@std@@@std@@MAEHXZ ; std::basic_filebuf<char,std::char_traits<char> >::uflow
PUBLIC	?seekoff@?$basic_filebuf@DU?$char_traits@D@std@@@std@@MAE?AV?$fpos@H@2@_JHH@Z ; std::basic_filebuf<char,std::char_traits<char> >::seekoff
PUBLIC	?seekpos@?$basic_filebuf@DU?$char_traits@D@std@@@std@@MAE?AV?$fpos@H@2@V32@H@Z ; std::basic_filebuf<char,std::char_traits<char> >::seekpos
PUBLIC	?setbuf@?$basic_filebuf@DU?$char_traits@D@std@@@std@@MAEPAV?$basic_streambuf@DU?$char_traits@D@std@@@2@PAD_J@Z ; std::basic_filebuf<char,std::char_traits<char> >::setbuf
PUBLIC	?sync@?$basic_filebuf@DU?$char_traits@D@std@@@std@@MAEHXZ ; std::basic_filebuf<char,std::char_traits<char> >::sync
PUBLIC	?imbue@?$basic_filebuf@DU?$char_traits@D@std@@@std@@MAEXABVlocale@2@@Z ; std::basic_filebuf<char,std::char_traits<char> >::imbue
EXTRN	??_E?$basic_filebuf@DU?$char_traits@D@std@@@std@@UAEPAXI@Z:PROC ; std::basic_filebuf<char,std::char_traits<char> >::`vector deleting destructor'
;	COMDAT ??_R1A@?0A@EA@?$basic_filebuf@DU?$char_traits@D@std@@@std@@8
; File d:\program files (x86)\microsoft visual studio 10.0\vc\include\fstream
rdata$r	SEGMENT
??_R1A@?0A@EA@?$basic_filebuf@DU?$char_traits@D@std@@@std@@8 DD FLAT:??_R0?AV?$basic_filebuf@DU?$char_traits@D@std@@@std@@@8 ; std::basic_filebuf<char,std::char_traits<char> >::`RTTI Base Class Descriptor at (0,-1,0,64)'
	DD	01H
	DD	00H
	DD	0ffffffffH
	DD	00H
	DD	040H
	DD	FLAT:??_R3?$basic_filebuf@DU?$char_traits@D@std@@@std@@8
rdata$r	ENDS
;	COMDAT ??_R2?$basic_filebuf@DU?$char_traits@D@std@@@std@@8
rdata$r	SEGMENT
??_R2?$basic_filebuf@DU?$char_traits@D@std@@@std@@8 DD FLAT:??_R1A@?0A@EA@?$basic_filebuf@DU?$char_traits@D@std@@@std@@8 ; std::basic_filebuf<char,std::char_traits<char> >::`RTTI Base Class Array'
	DD	FLAT:??_R1A@?0A@EA@?$basic_streambuf@DU?$char_traits@D@std@@@std@@8
rdata$r	ENDS
;	COMDAT ??_R3?$basic_filebuf@DU?$char_traits@D@std@@@std@@8
rdata$r	SEGMENT
??_R3?$basic_filebuf@DU?$char_traits@D@std@@@std@@8 DD 00H ; std::basic_filebuf<char,std::char_traits<char> >::`RTTI Class Hierarchy Descriptor'
	DD	00H
	DD	02H
	DD	FLAT:??_R2?$basic_filebuf@DU?$char_traits@D@std@@@std@@8
rdata$r	ENDS
;	COMDAT ??_R0?AV?$basic_filebuf@DU?$char_traits@D@std@@@std@@@8
_DATA	SEGMENT
??_R0?AV?$basic_filebuf@DU?$char_traits@D@std@@@std@@@8 DD FLAT:??_7type_info@@6B@ ; std::basic_filebuf<char,std::char_traits<char> > `RTTI Type Descriptor'
	DD	00H
	DB	'.?AV?$basic_filebuf@DU?$char_traits@D@std@@@std@@', 00H
_DATA	ENDS
;	COMDAT ??_R4?$basic_filebuf@DU?$char_traits@D@std@@@std@@6B@
rdata$r	SEGMENT
??_R4?$basic_filebuf@DU?$char_traits@D@std@@@std@@6B@ DD 00H ; std::basic_filebuf<char,std::char_traits<char> >::`RTTI Complete Object Locator'
	DD	00H
	DD	00H
	DD	FLAT:??_R0?AV?$basic_filebuf@DU?$char_traits@D@std@@@std@@@8
	DD	FLAT:??_R3?$basic_filebuf@DU?$char_traits@D@std@@@std@@8
rdata$r	ENDS
;	COMDAT ??_7?$basic_filebuf@DU?$char_traits@D@std@@@std@@6B@
CONST	SEGMENT
??_7?$basic_filebuf@DU?$char_traits@D@std@@@std@@6B@ DD FLAT:??_R4?$basic_filebuf@DU?$char_traits@D@std@@@std@@6B@ ; std::basic_filebuf<char,std::char_traits<char> >::`vftable'
	DD	FLAT:??_E?$basic_filebuf@DU?$char_traits@D@std@@@std@@UAEPAXI@Z
	DD	FLAT:?_Lock@?$basic_filebuf@DU?$char_traits@D@std@@@std@@UAEXXZ
	DD	FLAT:?_Unlock@?$basic_filebuf@DU?$char_traits@D@std@@@std@@UAEXXZ
	DD	FLAT:?overflow@?$basic_filebuf@DU?$char_traits@D@std@@@std@@MAEHH@Z
	DD	FLAT:?pbackfail@?$basic_filebuf@DU?$char_traits@D@std@@@std@@MAEHH@Z
	DD	FLAT:?showmanyc@?$basic_streambuf@DU?$char_traits@D@std@@@std@@MAE_JXZ
	DD	FLAT:?underflow@?$basic_filebuf@DU?$char_traits@D@std@@@std@@MAEHXZ
	DD	FLAT:?uflow@?$basic_filebuf@DU?$char_traits@D@std@@@std@@MAEHXZ
	DD	FLAT:?xsgetn@?$basic_streambuf@DU?$char_traits@D@std@@@std@@MAE_JPAD_J@Z
	DD	FLAT:?xsputn@?$basic_streambuf@DU?$char_traits@D@std@@@std@@MAE_JPBD_J@Z
	DD	FLAT:?seekoff@?$basic_filebuf@DU?$char_traits@D@std@@@std@@MAE?AV?$fpos@H@2@_JHH@Z
	DD	FLAT:?seekpos@?$basic_filebuf@DU?$char_traits@D@std@@@std@@MAE?AV?$fpos@H@2@V32@H@Z
	DD	FLAT:?setbuf@?$basic_filebuf@DU?$char_traits@D@std@@@std@@MAEPAV?$basic_streambuf@DU?$char_traits@D@std@@@2@PAD_J@Z
	DD	FLAT:?sync@?$basic_filebuf@DU?$char_traits@D@std@@@std@@MAEHXZ
	DD	FLAT:?imbue@?$basic_filebuf@DU?$char_traits@D@std@@@std@@MAEXABVlocale@2@@Z
; Function compile flags: /Ogtp
CONST	ENDS
;	COMDAT ??0?$basic_filebuf@DU?$char_traits@D@std@@@std@@QAE@PAU_iobuf@@@Z
_TEXT	SEGMENT
__File$ = 8						; size = 4
??0?$basic_filebuf@DU?$char_traits@D@std@@@std@@QAE@PAU_iobuf@@@Z PROC ; std::basic_filebuf<char,std::char_traits<char> >::basic_filebuf<char,std::char_traits<char> >, COMDAT
; _this$ = ecx

; 152  : 		{	// construct from pointer to C stream

  00000	55		 push	 ebp
  00001	8b ec		 mov	 ebp, esp
  00003	56		 push	 esi
  00004	8b f1		 mov	 esi, ecx
  00006	e8 00 00 00 00	 call	 ??0?$basic_streambuf@DU?$char_traits@D@std@@@std@@IAE@XZ ; std::basic_streambuf<char,std::char_traits<char> >::basic_streambuf<char,std::char_traits<char> >

; 153  : 		_Init(_File, _Newfl);

  0000b	8b 45 08	 mov	 eax, DWORD PTR __File$[ebp]
  0000e	6a 00		 push	 0
  00010	50		 push	 eax
  00011	8b ce		 mov	 ecx, esi
  00013	c7 06 00 00 00
	00		 mov	 DWORD PTR [esi], OFFSET ??_7?$basic_filebuf@DU?$char_traits@D@std@@@std@@6B@
  00019	e8 00 00 00 00	 call	 ?_Init@?$basic_filebuf@DU?$char_traits@D@std@@@std@@IAEXPAU_iobuf@@W4_Initfl@12@@Z ; std::basic_filebuf<char,std::char_traits<char> >::_Init

; 154  : 		}

  0001e	8b c6		 mov	 eax, esi
  00020	5e		 pop	 esi
  00021	5d		 pop	 ebp
  00022	c2 04 00	 ret	 4
??0?$basic_filebuf@DU?$char_traits@D@std@@@std@@QAE@PAU_iobuf@@@Z ENDP ; std::basic_filebuf<char,std::char_traits<char> >::basic_filebuf<char,std::char_traits<char> >
_TEXT	ENDS
PUBLIC	??$_Fgetc@D@std@@YA_NAADPAU_iobuf@@@Z		; std::_Fgetc<char>
EXTRN	_fgetc:PROC
; Function compile flags: /Ogtp
;	COMDAT ??$_Fgetc@D@std@@YA_NAADPAU_iobuf@@@Z
_TEXT	SEGMENT
__Byte$ = 8						; size = 4
__File$ = 12						; size = 4
??$_Fgetc@D@std@@YA_NAADPAU_iobuf@@@Z PROC		; std::_Fgetc<char>, COMDAT

; 35   : 	{	// get a char element from a C stream

  00000	55		 push	 ebp
  00001	8b ec		 mov	 ebp, esp

; 36   : 	int _Meta;
; 37   : 	if ((_Meta = fgetc(_File)) == EOF)

  00003	8b 45 0c	 mov	 eax, DWORD PTR __File$[ebp]
  00006	50		 push	 eax
  00007	e8 00 00 00 00	 call	 _fgetc
  0000c	83 c4 04	 add	 esp, 4
  0000f	83 f8 ff	 cmp	 eax, -1
  00012	75 04		 jne	 SHORT $LN2@Fgetc

; 38   : 		return (false);

  00014	32 c0		 xor	 al, al

; 43   : 		}
; 44   : 	}

  00016	5d		 pop	 ebp
  00017	c3		 ret	 0
$LN2@Fgetc:

; 39   : 	else
; 40   : 		{	// got one, convert to char
; 41   : 		_Byte = (char)_Meta;

  00018	8b 4d 08	 mov	 ecx, DWORD PTR __Byte$[ebp]
  0001b	88 01		 mov	 BYTE PTR [ecx], al

; 42   : 		return (true);

  0001d	b0 01		 mov	 al, 1

; 43   : 		}
; 44   : 	}

  0001f	5d		 pop	 ebp
  00020	c3		 ret	 0
??$_Fgetc@D@std@@YA_NAADPAU_iobuf@@@Z ENDP		; std::_Fgetc<char>
_TEXT	ENDS
PUBLIC	??$_Fputc@D@std@@YA_NDPAU_iobuf@@@Z		; std::_Fputc<char>
EXTRN	_fputc:PROC
; Function compile flags: /Ogtp
;	COMDAT ??$_Fputc@D@std@@YA_NDPAU_iobuf@@@Z
_TEXT	SEGMENT
__Byte$ = 8						; size = 1
__File$ = 12						; size = 4
??$_Fputc@D@std@@YA_NDPAU_iobuf@@@Z PROC		; std::_Fputc<char>, COMDAT

; 80   : 	{	// put a char element to a C stream

  00000	55		 push	 ebp
  00001	8b ec		 mov	 ebp, esp

; 81   : 	return (fputc(_Byte, _File) != EOF);

  00003	8b 45 0c	 mov	 eax, DWORD PTR __File$[ebp]
  00006	0f be 4d 08	 movsx	 ecx, BYTE PTR __Byte$[ebp]
  0000a	50		 push	 eax
  0000b	51		 push	 ecx
  0000c	e8 00 00 00 00	 call	 _fputc
  00011	33 d2		 xor	 edx, edx
  00013	83 c4 08	 add	 esp, 8
  00016	83 f8 ff	 cmp	 eax, -1
  00019	0f 95 c0	 setne	 al

; 82   : 	}

  0001c	5d		 pop	 ebp
  0001d	c3		 ret	 0
??$_Fputc@D@std@@YA_NDPAU_iobuf@@@Z ENDP		; std::_Fputc<char>
_TEXT	ENDS
PUBLIC	??$_Ungetc@D@std@@YA_NABDPAU_iobuf@@@Z		; std::_Ungetc<char>
EXTRN	_ungetc:PROC
; Function compile flags: /Ogtp
;	COMDAT ??$_Ungetc@D@std@@YA_NABDPAU_iobuf@@@Z
_TEXT	SEGMENT
__Byte$ = 8						; size = 4
__File$ = 12						; size = 4
??$_Ungetc@D@std@@YA_NABDPAU_iobuf@@@Z PROC		; std::_Ungetc<char>, COMDAT

; 104  : 	{	// put back a char element to a C stream

  00000	55		 push	 ebp
  00001	8b ec		 mov	 ebp, esp

; 105  : 	return (ungetc((unsigned char)_Byte, _File) != EOF);

  00003	8b 4d 08	 mov	 ecx, DWORD PTR __Byte$[ebp]
  00006	8b 45 0c	 mov	 eax, DWORD PTR __File$[ebp]
  00009	0f b6 11	 movzx	 edx, BYTE PTR [ecx]
  0000c	50		 push	 eax
  0000d	52		 push	 edx
  0000e	e8 00 00 00 00	 call	 _ungetc
  00013	33 c9		 xor	 ecx, ecx
  00015	83 c4 08	 add	 esp, 8
  00018	83 f8 ff	 cmp	 eax, -1
  0001b	0f 95 c0	 setne	 al

; 106  : 	}

  0001e	5d		 pop	 ebp
  0001f	c3		 ret	 0
??$_Ungetc@D@std@@YA_NABDPAU_iobuf@@@Z ENDP		; std::_Ungetc<char>
_TEXT	ENDS
EXTRN	__lock_file:PROC
; Function compile flags: /Ogtp
;	COMDAT ?_Lock@?$basic_filebuf@DU?$char_traits@D@std@@@std@@UAEXXZ
_TEXT	SEGMENT
?_Lock@?$basic_filebuf@DU?$char_traits@D@std@@@std@@UAEXXZ PROC ; std::basic_filebuf<char,std::char_traits<char> >::_Lock, COMDAT
; _this$ = ecx

; 309  : 		if (_Myfile)

  00000	8b 41 54	 mov	 eax, DWORD PTR [ecx+84]
  00003	85 c0		 test	 eax, eax
  00005	74 07		 je	 SHORT $LN1@Lock

; 310  : 			_CSTD _lock_file(_Myfile);

  00007	50		 push	 eax
  00008	e8 00 00 00 00	 call	 __lock_file
  0000d	59		 pop	 ecx
$LN1@Lock:

; 311  : 		}

  0000e	c3		 ret	 0
?_Lock@?$basic_filebuf@DU?$char_traits@D@std@@@std@@UAEXXZ ENDP ; std::basic_filebuf<char,std::char_traits<char> >::_Lock
_TEXT	ENDS
EXTRN	__unlock_file:PROC
; Function compile flags: /Ogtp
;	COMDAT ?_Unlock@?$basic_filebuf@DU?$char_traits@D@std@@@std@@UAEXXZ
_TEXT	SEGMENT
?_Unlock@?$basic_filebuf@DU?$char_traits@D@std@@@std@@UAEXXZ PROC ; std::basic_filebuf<char,std::char_traits<char> >::_Unlock, COMDAT
; _this$ = ecx

; 315  : 		if (_Myfile)

  00000	8b 41 54	 mov	 eax, DWORD PTR [ecx+84]
  00003	85 c0		 test	 eax, eax
  00005	74 07		 je	 SHORT $LN1@Unlock

; 316  : 			_CSTD _unlock_file(_Myfile);

  00007	50		 push	 eax
  00008	e8 00 00 00 00	 call	 __unlock_file
  0000d	59		 pop	 ecx
$LN1@Unlock:

; 317  : 		}

  0000e	c3		 ret	 0
?_Unlock@?$basic_filebuf@DU?$char_traits@D@std@@@std@@UAEXXZ ENDP ; std::basic_filebuf<char,std::char_traits<char> >::_Unlock
_TEXT	ENDS
PUBLIC	?egptr@?$basic_streambuf@DU?$char_traits@D@std@@@std@@IBEPADXZ ; std::basic_streambuf<char,std::char_traits<char> >::egptr
; Function compile flags: /Ogtp
; File d:\program files (x86)\microsoft visual studio 10.0\vc\include\streambuf
;	COMDAT ?egptr@?$basic_streambuf@DU?$char_traits@D@std@@@std@@IBEPADXZ
_TEXT	SEGMENT
?egptr@?$basic_streambuf@DU?$char_traits@D@std@@@std@@IBEPADXZ PROC ; std::basic_streambuf<char,std::char_traits<char> >::egptr, COMDAT
; _this$ = ecx

; 238  : 		return (*_IGnext + *_IGcount);

  00000	8b 41 30	 mov	 eax, DWORD PTR [ecx+48]
  00003	8b 49 20	 mov	 ecx, DWORD PTR [ecx+32]
  00006	8b 00		 mov	 eax, DWORD PTR [eax]
  00008	03 01		 add	 eax, DWORD PTR [ecx]

; 239  : 		}

  0000a	c3		 ret	 0
?egptr@?$basic_streambuf@DU?$char_traits@D@std@@@std@@IBEPADXZ ENDP ; std::basic_streambuf<char,std::char_traits<char> >::egptr
_TEXT	ENDS
PUBLIC	?epptr@?$basic_streambuf@DU?$char_traits@D@std@@@std@@IBEPADXZ ; std::basic_streambuf<char,std::char_traits<char> >::epptr
; Function compile flags: /Ogtp
;	COMDAT ?epptr@?$basic_streambuf@DU?$char_traits@D@std@@@std@@IBEPADXZ
_TEXT	SEGMENT
?epptr@?$basic_streambuf@DU?$char_traits@D@std@@@std@@IBEPADXZ PROC ; std::basic_streambuf<char,std::char_traits<char> >::epptr, COMDAT
; _this$ = ecx

; 256  : 		return (*_IPnext + *_IPcount);

  00000	8b 41 34	 mov	 eax, DWORD PTR [ecx+52]
  00003	8b 49 24	 mov	 ecx, DWORD PTR [ecx+36]
  00006	8b 00		 mov	 eax, DWORD PTR [eax]
  00008	03 01		 add	 eax, DWORD PTR [ecx]

; 257  : 		}

  0000a	c3		 ret	 0
?epptr@?$basic_streambuf@DU?$char_traits@D@std@@@std@@IBEPADXZ ENDP ; std::basic_streambuf<char,std::char_traits<char> >::epptr
_TEXT	ENDS
PUBLIC	?_Gndec@?$basic_streambuf@DU?$char_traits@D@std@@@std@@IAEPADXZ ; std::basic_streambuf<char,std::char_traits<char> >::_Gndec
; Function compile flags: /Ogtp
;	COMDAT ?_Gndec@?$basic_streambuf@DU?$char_traits@D@std@@@std@@IAEPADXZ
_TEXT	SEGMENT
?_Gndec@?$basic_streambuf@DU?$char_traits@D@std@@@std@@IAEPADXZ PROC ; std::basic_streambuf<char,std::char_traits<char> >::_Gndec, COMDAT
; _this$ = ecx

; 261  : 		++*_IGcount;

  00000	8b 41 30	 mov	 eax, DWORD PTR [ecx+48]
  00003	ff 00		 inc	 DWORD PTR [eax]

; 262  : 		return (--*_IGnext);

  00005	8b 49 20	 mov	 ecx, DWORD PTR [ecx+32]
  00008	8b 01		 mov	 eax, DWORD PTR [ecx]
  0000a	48		 dec	 eax
  0000b	89 01		 mov	 DWORD PTR [ecx], eax

; 263  : 		}

  0000d	c3		 ret	 0
?_Gndec@?$basic_streambuf@DU?$char_traits@D@std@@@std@@IAEPADXZ ENDP ; std::basic_streambuf<char,std::char_traits<char> >::_Gndec
_TEXT	ENDS
PUBLIC	??0?$fpos@H@std@@QAE@H_J@Z			; std::fpos<int>::fpos<int>
; Function compile flags: /Ogtp
; File d:\program files (x86)\microsoft visual studio 10.0\vc\include\iosfwd
;	COMDAT ??0?$fpos@H@std@@QAE@H_J@Z
_TEXT	SEGMENT
__State$ = 8						; size = 4
__Fileposition$ = 12					; size = 8
??0?$fpos@H@std@@QAE@H_J@Z PROC				; std::fpos<int>::fpos<int>, COMDAT
; _this$ = ecx

; 45   : 		{	// construct with conversion state and C file position

  00000	55		 push	 ebp
  00001	8b ec		 mov	 ebp, esp
  00003	8b 55 10	 mov	 edx, DWORD PTR __Fileposition$[ebp+4]
  00006	8b c1		 mov	 eax, ecx
  00008	8b 4d 0c	 mov	 ecx, DWORD PTR __Fileposition$[ebp]
  0000b	89 48 08	 mov	 DWORD PTR [eax+8], ecx
  0000e	8b 4d 08	 mov	 ecx, DWORD PTR __State$[ebp]
  00011	c7 00 00 00 00
	00		 mov	 DWORD PTR [eax], 0
  00017	c7 40 04 00 00
	00 00		 mov	 DWORD PTR [eax+4], 0
  0001e	89 50 0c	 mov	 DWORD PTR [eax+12], edx
  00021	89 48 10	 mov	 DWORD PTR [eax+16], ecx

; 46   : 		}

  00024	5d		 pop	 ebp
  00025	c2 0c 00	 ret	 12			; 0000000cH
??0?$fpos@H@std@@QAE@H_J@Z ENDP				; std::fpos<int>::fpos<int>
_TEXT	ENDS
PUBLIC	?state@?$fpos@H@std@@QBEHXZ			; std::fpos<int>::state
; Function compile flags: /Ogtp
;	COMDAT ?state@?$fpos@H@std@@QBEHXZ
_TEXT	SEGMENT
?state@?$fpos@H@std@@QBEHXZ PROC			; std::fpos<int>::state, COMDAT
; _this$ = ecx

; 50   : 		return (_Mystate);

  00000	8b 41 10	 mov	 eax, DWORD PTR [ecx+16]

; 51   : 		}

  00003	c3		 ret	 0
?state@?$fpos@H@std@@QBEHXZ ENDP			; std::fpos<int>::state
_TEXT	ENDS
PUBLIC	?seekpos@?$fpos@H@std@@QBE_JXZ			; std::fpos<int>::seekpos
; Function compile flags: /Ogtp
;	COMDAT ?seekpos@?$fpos@H@std@@QBE_JXZ
_TEXT	SEGMENT
?seekpos@?$fpos@H@std@@QBE_JXZ PROC			; std::fpos<int>::seekpos, COMDAT
; _this$ = ecx

; 60   : 		return (_Fpos);

  00000	8b 41 08	 mov	 eax, DWORD PTR [ecx+8]
  00003	8b 51 0c	 mov	 edx, DWORD PTR [ecx+12]

; 61   : 		}

  00006	c3		 ret	 0
?seekpos@?$fpos@H@std@@QBE_JXZ ENDP			; std::fpos<int>::seekpos
_TEXT	ENDS
PUBLIC	??B?$fpos@H@std@@QBE_JXZ			; std::fpos<int>::operator __int64
; Function compile flags: /Ogtp
;	COMDAT ??B?$fpos@H@std@@QBE_JXZ
_TEXT	SEGMENT
??B?$fpos@H@std@@QBE_JXZ PROC				; std::fpos<int>::operator __int64, COMDAT
; _this$ = ecx

; 65   : 		return ((streamoff)(_Myoff + _FPOSOFF(_Fpos)));

  00000	8b 41 08	 mov	 eax, DWORD PTR [ecx+8]
  00003	99		 cdq
  00004	03 01		 add	 eax, DWORD PTR [ecx]
  00006	13 51 04	 adc	 edx, DWORD PTR [ecx+4]

; 66   : 		}

  00009	c3		 ret	 0
??B?$fpos@H@std@@QBE_JXZ ENDP				; std::fpos<int>::operator __int64
_TEXT	ENDS
PUBLIC	?in@?$codecvt@DDH@std@@QBEHAAHPBD1AAPBDPAD3AAPAD@Z ; std::codecvt<char,char,int>::in
; Function compile flags: /Ogtp
; File d:\program files (x86)\microsoft visual studio 10.0\vc\include\xlocale
;	COMDAT ?in@?$codecvt@DDH@std@@QBEHAAHPBD1AAPBDPAD3AAPAD@Z
_TEXT	SEGMENT
__State$ = 8						; size = 4
__First1$ = 12						; size = 4
__Last1$ = 16						; size = 4
__Mid1$ = 20						; size = 4
__First2$ = 24						; size = 4
__Last2$ = 28						; size = 4
__Mid2$ = 32						; size = 4
?in@?$codecvt@DDH@std@@QBEHAAHPBD1AAPBDPAD3AAPAD@Z PROC	; std::codecvt<char,char,int>::in, COMDAT
; _this$ = ecx

; 808  : 		{	// convert bytes [_First1, _Last1) to [_First2, _Last)

  00000	55		 push	 ebp
  00001	8b ec		 mov	 ebp, esp

; 809  : 		return (do_in(_State,
; 810  : 			_First1, _Last1, _Mid1, _First2, _Last2, _Mid2));

  00003	8b 01		 mov	 eax, DWORD PTR [ecx]
  00005	8b 40 10	 mov	 eax, DWORD PTR [eax+16]

; 811  : 		}

  00008	5d		 pop	 ebp

; 809  : 		return (do_in(_State,
; 810  : 			_First1, _Last1, _Mid1, _First2, _Last2, _Mid2));

  00009	ff e0		 jmp	 eax
?in@?$codecvt@DDH@std@@QBEHAAHPBD1AAPBDPAD3AAPAD@Z ENDP	; std::codecvt<char,char,int>::in
_TEXT	ENDS
PUBLIC	?out@?$codecvt@DDH@std@@QBEHAAHPBD1AAPBDPAD3AAPAD@Z ; std::codecvt<char,char,int>::out
; Function compile flags: /Ogtp
;	COMDAT ?out@?$codecvt@DDH@std@@QBEHAAHPBD1AAPBDPAD3AAPAD@Z
_TEXT	SEGMENT
__State$ = 8						; size = 4
__First1$ = 12						; size = 4
__Last1$ = 16						; size = 4
__Mid1$ = 20						; size = 4
__First2$ = 24						; size = 4
__Last2$ = 28						; size = 4
__Mid2$ = 32						; size = 4
?out@?$codecvt@DDH@std@@QBEHAAHPBD1AAPBDPAD3AAPAD@Z PROC ; std::codecvt<char,char,int>::out, COMDAT
; _this$ = ecx

; 816  : 		{	// convert [_First1, _Last1) to bytes [_First2, _Last2)

  00000	55		 push	 ebp
  00001	8b ec		 mov	 ebp, esp

; 817  : 		return (do_out(_State,
; 818  : 			_First1, _Last1, _Mid1, _First2, _Last2, _Mid2));

  00003	8b 01		 mov	 eax, DWORD PTR [ecx]
  00005	8b 40 14	 mov	 eax, DWORD PTR [eax+20]

; 819  : 		}

  00008	5d		 pop	 ebp

; 817  : 		return (do_out(_State,
; 818  : 			_First1, _Last1, _Mid1, _First2, _Last2, _Mid2));

  00009	ff e0		 jmp	 eax
?out@?$codecvt@DDH@std@@QBEHAAHPBD1AAPBDPAD3AAPAD@Z ENDP ; std::codecvt<char,char,int>::out
_TEXT	ENDS
PUBLIC	?move@?$char_traits@D@std@@SAPADPADPBDI@Z	; std::char_traits<char>::move
EXTRN	_memmove:PROC
; Function compile flags: /Ogtp
; File d:\program files (x86)\microsoft visual studio 10.0\vc\include\iosfwd
;	COMDAT ?move@?$char_traits@D@std@@SAPADPADPBDI@Z
_TEXT	SEGMENT
__First1$ = 8						; size = 4
__First2$ = 12						; size = 4
__Count$ = 16						; size = 4
?move@?$char_traits@D@std@@SAPADPADPBDI@Z PROC		; std::char_traits<char>::move, COMDAT

; 516  : 		{	// copy [_First1, _First1 + _Count) to [_First2, ...)

  00000	55		 push	 ebp
  00001	8b ec		 mov	 ebp, esp

; 518  : 		}

  00003	5d		 pop	 ebp

; 517  : 		return ((_Elem *)_CSTD memmove(_First1, _First2, _Count));

  00004	e9 00 00 00 00	 jmp	 _memmove
?move@?$char_traits@D@std@@SAPADPADPBDI@Z ENDP		; std::char_traits<char>::move
_TEXT	ENDS
PUBLIC	??_C@_0BI@CFPLBAOH@invalid?5string?5position?$AA@ ; `string'
PUBLIC	?_Xran@?$basic_string@DU?$char_traits@D@std@@V?$allocator@D@2@@std@@QBEXXZ ; std::basic_string<char,std::char_traits<char>,std::allocator<char> >::_Xran
EXTRN	?_Xout_of_range@std@@YAXPBD@Z:PROC		; std::_Xout_of_range
;	COMDAT ??_C@_0BI@CFPLBAOH@invalid?5string?5position?$AA@
; File d:\program files (x86)\microsoft visual studio 10.0\vc\include\xstring
CONST	SEGMENT
??_C@_0BI@CFPLBAOH@invalid?5string?5position?$AA@ DB 'invalid string posi'
	DB	'tion', 00H					; `string'
; Function compile flags: /Ogtp
CONST	ENDS
;	COMDAT ?_Xran@?$basic_string@DU?$char_traits@D@std@@V?$allocator@D@2@@std@@QBEXXZ
_TEXT	SEGMENT
?_Xran@?$basic_string@DU?$char_traits@D@std@@V?$allocator@D@2@@std@@QBEXXZ PROC ; std::basic_string<char,std::char_traits<char>,std::allocator<char> >::_Xran, COMDAT
; _this$ = ecx

; 2021 : 		_Xout_of_range("invalid string position");

  00000	68 00 00 00 00	 push	 OFFSET ??_C@_0BI@CFPLBAOH@invalid?5string?5position?$AA@
  00005	e8 00 00 00 00	 call	 ?_Xout_of_range@std@@YAXPBD@Z ; std::_Xout_of_range
$LN4@Xran:
$LN3@Xran:
  0000a	cc		 int	 3
?_Xran@?$basic_string@DU?$char_traits@D@std@@V?$allocator@D@2@@std@@QBEXXZ ENDP ; std::basic_string<char,std::char_traits<char>,std::allocator<char> >::_Xran
; Function compile flags: /Ogtp
; File d:\program files (x86)\microsoft visual studio 10.0\vc\include\fstream
_TEXT	ENDS
;	COMDAT ?underflow@?$basic_filebuf@DU?$char_traits@D@std@@@std@@MAEHXZ
_TEXT	SEGMENT
?underflow@?$basic_filebuf@DU?$char_traits@D@std@@@std@@MAEHXZ PROC ; std::basic_filebuf<char,std::char_traits<char> >::underflow, COMDAT
; _this$ = ecx

; 408  : 		{	// get an element from stream, but don't point past it

  00000	56		 push	 esi
  00001	8b f1		 mov	 esi, ecx

; 409  : 		int_type _Meta;
; 410  : 		if (_Mysb::gptr() != 0
; 411  : 			&& _Mysb::gptr() < _Mysb::egptr())

  00003	8b 46 20	 mov	 eax, DWORD PTR [esi+32]
  00006	8b 08		 mov	 ecx, DWORD PTR [eax]
  00008	85 c9		 test	 ecx, ecx
  0000a	74 12		 je	 SHORT $LN4@underflow
  0000c	8b 56 30	 mov	 edx, DWORD PTR [esi+48]
  0000f	8b 12		 mov	 edx, DWORD PTR [edx]
  00011	8b c1		 mov	 eax, ecx
  00013	03 d0		 add	 edx, eax
  00015	3b c2		 cmp	 eax, edx
  00017	73 05		 jae	 SHORT $LN4@underflow

; 412  : 			return (_Traits::to_int_type(*_Mysb::gptr()));	// return buffered

  00019	0f b6 01	 movzx	 eax, BYTE PTR [ecx]
  0001c	5e		 pop	 esi

; 419  : 			}
; 420  : 		}

  0001d	c3		 ret	 0
$LN4@underflow:

; 413  : 		else if (_Traits::eq_int_type(_Traits::eof(), _Meta = uflow()))

  0001e	8b 06		 mov	 eax, DWORD PTR [esi]
  00020	8b 50 1c	 mov	 edx, DWORD PTR [eax+28]
  00023	57		 push	 edi
  00024	8b ce		 mov	 ecx, esi
  00026	ff d2		 call	 edx
  00028	8b f8		 mov	 edi, eax
  0002a	83 ff ff	 cmp	 edi, -1
  0002d	75 05		 jne	 SHORT $LN2@underflow

; 414  : 			return (_Meta);	// uflow failed, return EOF

  0002f	5f		 pop	 edi
  00030	0b c0		 or	 eax, eax
  00032	5e		 pop	 esi

; 419  : 			}
; 420  : 		}

  00033	c3		 ret	 0
$LN2@underflow:

; 415  : 		else
; 416  : 			{	// get a char, don't point past it
; 417  : 			pbackfail(_Meta);

  00034	8b 06		 mov	 eax, DWORD PTR [esi]
  00036	8b 50 10	 mov	 edx, DWORD PTR [eax+16]
  00039	57		 push	 edi
  0003a	8b ce		 mov	 ecx, esi
  0003c	ff d2		 call	 edx

; 418  : 			return (_Meta);

  0003e	8b c7		 mov	 eax, edi
  00040	5f		 pop	 edi
  00041	5e		 pop	 esi

; 419  : 			}
; 420  : 		}

  00042	c3		 ret	 0
?underflow@?$basic_filebuf@DU?$char_traits@D@std@@@std@@MAEHXZ ENDP ; std::basic_filebuf<char,std::char_traits<char> >::underflow
_TEXT	ENDS
EXTRN	_fflush:PROC
; Function compile flags: /Ogtp
;	COMDAT ?sync@?$basic_filebuf@DU?$char_traits@D@std@@@std@@MAEHXZ
_TEXT	SEGMENT
?sync@?$basic_filebuf@DU?$char_traits@D@std@@@std@@MAEHXZ PROC ; std::basic_filebuf<char,std::char_traits<char> >::sync, COMDAT
; _this$ = ecx

; 543  : 		{	// synchronize C stream with external file

  00000	56		 push	 esi
  00001	8b f1		 mov	 esi, ecx

; 544  : 		return (_Myfile == 0
; 545  : 			|| _Traits::eq_int_type(_Traits::eof(), overflow())
; 546  : 			|| 0 <= fflush(_Myfile) ? 0 : -1);

  00003	83 7e 54 00	 cmp	 DWORD PTR [esi+84], 0
  00007	74 23		 je	 SHORT $LN3@sync
  00009	8b 06		 mov	 eax, DWORD PTR [esi]
  0000b	8b 50 0c	 mov	 edx, DWORD PTR [eax+12]
  0000e	6a ff		 push	 -1
  00010	ff d2		 call	 edx
  00012	83 f8 ff	 cmp	 eax, -1
  00015	74 15		 je	 SHORT $LN3@sync
  00017	8b 46 54	 mov	 eax, DWORD PTR [esi+84]
  0001a	50		 push	 eax
  0001b	e8 00 00 00 00	 call	 _fflush
  00020	83 c4 04	 add	 esp, 4
  00023	85 c0		 test	 eax, eax
  00025	79 05		 jns	 SHORT $LN3@sync
  00027	83 c8 ff	 or	 eax, -1
  0002a	5e		 pop	 esi

; 547  : 		}

  0002b	c3		 ret	 0
$LN3@sync:

; 544  : 		return (_Myfile == 0
; 545  : 			|| _Traits::eq_int_type(_Traits::eof(), overflow())
; 546  : 			|| 0 <= fflush(_Myfile) ? 0 : -1);

  0002c	33 c0		 xor	 eax, eax
  0002e	5e		 pop	 esi

; 547  : 		}

  0002f	c3		 ret	 0
?sync@?$basic_filebuf@DU?$char_traits@D@std@@@std@@MAEHXZ ENDP ; std::basic_filebuf<char,std::char_traits<char> >::sync
_TEXT	ENDS
PUBLIC	?_Set_back@?$basic_filebuf@DU?$char_traits@D@std@@@std@@AAEXXZ ; std::basic_filebuf<char,std::char_traits<char> >::_Set_back
; Function compile flags: /Ogtp
;	COMDAT ?_Set_back@?$basic_filebuf@DU?$char_traits@D@std@@@std@@AAEXXZ
_TEXT	SEGMENT
?_Set_back@?$basic_filebuf@DU?$char_traits@D@std@@@std@@AAEXXZ PROC ; std::basic_filebuf<char,std::char_traits<char> >::_Set_back, COMDAT
; _this$ = ecx

; 647  : 		if (_Mysb::eback() != &_Mychar)

  00000	8b 51 10	 mov	 edx, DWORD PTR [ecx+16]
  00003	56		 push	 esi
  00004	8b 32		 mov	 esi, DWORD PTR [edx]
  00006	8d 41 48	 lea	 eax, DWORD PTR [ecx+72]
  00009	3b f0		 cmp	 esi, eax
  0000b	74 12		 je	 SHORT $LN1@Set_back

; 648  : 			{	// save current get buffer
; 649  : 			_Set_eback = _Mysb::eback();

  0000d	89 71 3c	 mov	 DWORD PTR [ecx+60], esi

; 650  : 			_Set_egptr = _Mysb::egptr();

  00010	8b 71 30	 mov	 esi, DWORD PTR [ecx+48]
  00013	8b 36		 mov	 esi, DWORD PTR [esi]
  00015	57		 push	 edi
  00016	8b 79 20	 mov	 edi, DWORD PTR [ecx+32]
  00019	03 37		 add	 esi, DWORD PTR [edi]
  0001b	5f		 pop	 edi
  0001c	89 71 40	 mov	 DWORD PTR [ecx+64], esi
$LN1@Set_back:

; 651  : 			}
; 652  : 		_Mysb::setg(&_Mychar, &_Mychar, &_Mychar + 1);

  0001f	89 02		 mov	 DWORD PTR [edx], eax
  00021	8b 51 20	 mov	 edx, DWORD PTR [ecx+32]
  00024	89 02		 mov	 DWORD PTR [edx], eax
  00026	8b d1		 mov	 edx, ecx
  00028	2b d0		 sub	 edx, eax
  0002a	8b 41 30	 mov	 eax, DWORD PTR [ecx+48]
  0002d	83 c2 49	 add	 edx, 73			; 00000049H
  00030	89 10		 mov	 DWORD PTR [eax], edx
  00032	5e		 pop	 esi

; 653  : 		}

  00033	c3		 ret	 0
?_Set_back@?$basic_filebuf@DU?$char_traits@D@std@@@std@@AAEXXZ ENDP ; std::basic_filebuf<char,std::char_traits<char> >::_Set_back
_TEXT	ENDS
PUBLIC	?not_eof@?$char_traits@D@std@@SAHABH@Z		; std::char_traits<char>::not_eof
; Function compile flags: /Ogtp
; File d:\program files (x86)\microsoft visual studio 10.0\vc\include\iosfwd
;	COMDAT ?not_eof@?$char_traits@D@std@@SAHABH@Z
_TEXT	SEGMENT
__Meta$ = 8						; size = 4
?not_eof@?$char_traits@D@std@@SAHABH@Z PROC		; std::char_traits<char>::not_eof, COMDAT

; 557  : 		{	// return anything but EOF

  00000	55		 push	 ebp
  00001	8b ec		 mov	 ebp, esp

; 558  : 		return (_Meta != eof() ? _Meta : !eof());

  00003	8b 45 08	 mov	 eax, DWORD PTR __Meta$[ebp]
  00006	8b 08		 mov	 ecx, DWORD PTR [eax]
  00008	8d 41 01	 lea	 eax, DWORD PTR [ecx+1]
  0000b	f7 d8		 neg	 eax
  0000d	1b c0		 sbb	 eax, eax
  0000f	23 c1		 and	 eax, ecx

; 559  : 		}

  00011	5d		 pop	 ebp
  00012	c3		 ret	 0
?not_eof@?$char_traits@D@std@@SAHABH@Z ENDP		; std::char_traits<char>::not_eof
_TEXT	ENDS
PUBLIC	?erase@?$basic_string@DU?$char_traits@D@std@@V?$allocator@D@2@@std@@QAEAAV12@II@Z ; std::basic_string<char,std::char_traits<char>,std::allocator<char> >::erase
; Function compile flags: /Ogtp
; File d:\program files (x86)\microsoft visual studio 10.0\vc\include\xstring
;	COMDAT ?erase@?$basic_string@DU?$char_traits@D@std@@V?$allocator@D@2@@std@@QAEAAV12@II@Z
_TEXT	SEGMENT
__Off$ = 8						; size = 4
__Count$ = 12						; size = 4
?erase@?$basic_string@DU?$char_traits@D@std@@V?$allocator@D@2@@std@@QAEAAV12@II@Z PROC ; std::basic_string<char,std::char_traits<char>,std::allocator<char> >::erase, COMDAT
; _this$ = ecx

; 1109 : 		{	// erase elements [_Off, _Off + _Count)

  00000	55		 push	 ebp
  00001	8b ec		 mov	 ebp, esp
  00003	56		 push	 esi
  00004	8b f1		 mov	 esi, ecx

; 1110 : 		if (this->_Mysize < _Off)

  00006	8b 46 10	 mov	 eax, DWORD PTR [esi+16]
  00009	8b 4d 08	 mov	 ecx, DWORD PTR __Off$[ebp]
  0000c	57		 push	 edi
  0000d	3b c1		 cmp	 eax, ecx
  0000f	73 0a		 jae	 SHORT $LN3@erase

; 1111 : 			_Xran();	// _Off off end

  00011	68 00 00 00 00	 push	 OFFSET ??_C@_0BI@CFPLBAOH@invalid?5string?5position?$AA@
  00016	e8 00 00 00 00	 call	 ?_Xout_of_range@std@@YAXPBD@Z ; std::_Xout_of_range
$LN28@erase:
$LN3@erase:

; 1112 : 		if (this->_Mysize - _Off < _Count)

  0001b	8b 7d 0c	 mov	 edi, DWORD PTR __Count$[ebp]
  0001e	2b c1		 sub	 eax, ecx
  00020	3b c7		 cmp	 eax, edi
  00022	73 02		 jae	 SHORT $LN2@erase

; 1113 : 			_Count = this->_Mysize - _Off;	// trim _Count

  00024	8b f8		 mov	 edi, eax
$LN2@erase:

; 1114 : 		if (0 < _Count)

  00026	85 ff		 test	 edi, edi
  00028	74 50		 je	 SHORT $LN25@erase

; 1115 : 			{	// move elements down
; 1116 : 			_Traits::move(_Myptr() + _Off, _Myptr() + _Off + _Count,
; 1117 : 				this->_Mysize - _Off - _Count);

  0002a	8b 56 14	 mov	 edx, DWORD PTR [esi+20]
  0002d	53		 push	 ebx
  0002e	83 fa 10	 cmp	 edx, 16			; 00000010H
  00031	72 04		 jb	 SHORT $LN11@erase
  00033	8b 1e		 mov	 ebx, DWORD PTR [esi]
  00035	eb 02		 jmp	 SHORT $LN12@erase
$LN11@erase:
  00037	8b de		 mov	 ebx, esi
$LN12@erase:
  00039	83 fa 10	 cmp	 edx, 16			; 00000010H
  0003c	72 04		 jb	 SHORT $LN15@erase
  0003e	8b 16		 mov	 edx, DWORD PTR [esi]
  00040	eb 02		 jmp	 SHORT $LN16@erase
$LN15@erase:
  00042	8b d6		 mov	 edx, esi
$LN16@erase:
  00044	2b c7		 sub	 eax, edi
  00046	03 d9		 add	 ebx, ecx
  00048	50		 push	 eax
  00049	03 df		 add	 ebx, edi
  0004b	03 d1		 add	 edx, ecx
  0004d	53		 push	 ebx
  0004e	52		 push	 edx
  0004f	e8 00 00 00 00	 call	 _memmove

; 1118 : 			size_type _Newsize = this->_Mysize - _Count;

  00054	8b 46 10	 mov	 eax, DWORD PTR [esi+16]
  00057	83 c4 0c	 add	 esp, 12			; 0000000cH
  0005a	2b c7		 sub	 eax, edi

; 1119 : 			_Eos(_Newsize);

  0005c	83 7e 14 10	 cmp	 DWORD PTR [esi+20], 16	; 00000010H
  00060	89 46 10	 mov	 DWORD PTR [esi+16], eax
  00063	5b		 pop	 ebx
  00064	72 0e		 jb	 SHORT $LN23@erase
  00066	8b 0e		 mov	 ecx, DWORD PTR [esi]
  00068	c6 04 01 00	 mov	 BYTE PTR [ecx+eax], 0
  0006c	5f		 pop	 edi

; 1120 : 			}
; 1121 : 		return (*this);

  0006d	8b c6		 mov	 eax, esi
  0006f	5e		 pop	 esi

; 1122 : 		}

  00070	5d		 pop	 ebp
  00071	c2 08 00	 ret	 8

; 1119 : 			_Eos(_Newsize);

$LN23@erase:
  00074	8b ce		 mov	 ecx, esi
  00076	c6 04 01 00	 mov	 BYTE PTR [ecx+eax], 0
$LN25@erase:

; 1120 : 			}
; 1121 : 		return (*this);

  0007a	5f		 pop	 edi
  0007b	8b c6		 mov	 eax, esi
  0007d	5e		 pop	 esi

; 1122 : 		}

  0007e	5d		 pop	 ebp
  0007f	c2 08 00	 ret	 8
$LN27@erase:
?erase@?$basic_string@DU?$char_traits@D@std@@V?$allocator@D@2@@std@@QAEAAV12@II@Z ENDP ; std::basic_string<char,std::char_traits<char>,std::allocator<char> >::erase
; Function compile flags: /Ogtp
; File d:\program files (x86)\microsoft visual studio 10.0\vc\include\fstream
_TEXT	ENDS
;	COMDAT ?pbackfail@?$basic_filebuf@DU?$char_traits@D@std@@@std@@MAEHH@Z
_TEXT	SEGMENT
__Meta$ = 8						; size = 4
?pbackfail@?$basic_filebuf@DU?$char_traits@D@std@@@std@@MAEHH@Z PROC ; std::basic_filebuf<char,std::char_traits<char> >::pbackfail, COMDAT
; _this$ = ecx

; 383  : 		{	// put an element back to stream

  00000	55		 push	 ebp
  00001	8b ec		 mov	 ebp, esp
  00003	53		 push	 ebx

; 384  : 		if (_Mysb::gptr() != 0
; 385  : 			&& _Mysb::eback() < _Mysb::gptr()
; 386  : 			&& (_Traits::eq_int_type(_Traits::eof(), _Meta)
; 387  : 			|| _Traits::eq_int_type(_Traits::to_int_type(_Mysb::gptr()[-1]),
; 388  : 				_Meta)))

  00004	8b 5d 08	 mov	 ebx, DWORD PTR __Meta$[ebp]
  00007	56		 push	 esi
  00008	8b f1		 mov	 esi, ecx
  0000a	8b 46 20	 mov	 eax, DWORD PTR [esi+32]
  0000d	8b 00		 mov	 eax, DWORD PTR [eax]
  0000f	85 c0		 test	 eax, eax
  00011	74 2d		 je	 SHORT $LN10@pbackfail
  00013	8b 4e 10	 mov	 ecx, DWORD PTR [esi+16]
  00016	39 01		 cmp	 DWORD PTR [ecx], eax
  00018	73 26		 jae	 SHORT $LN10@pbackfail
  0001a	83 fb ff	 cmp	 ebx, -1
  0001d	74 08		 je	 SHORT $LN9@pbackfail
  0001f	0f b6 50 ff	 movzx	 edx, BYTE PTR [eax-1]
  00023	3b d3		 cmp	 edx, ebx
  00025	75 19		 jne	 SHORT $LN10@pbackfail
$LN9@pbackfail:

; 389  : 			{	// just back up position
; 390  : 			_Mysb::_Gndec();

  00027	8b 46 30	 mov	 eax, DWORD PTR [esi+48]
  0002a	ff 00		 inc	 DWORD PTR [eax]
  0002c	8b 76 20	 mov	 esi, DWORD PTR [esi+32]
  0002f	ff 0e		 dec	 DWORD PTR [esi]

; 391  : 			return (_Traits::not_eof(_Meta));

  00031	8d 43 01	 lea	 eax, DWORD PTR [ebx+1]
  00034	f7 d8		 neg	 eax
  00036	1b c0		 sbb	 eax, eax
  00038	5e		 pop	 esi
  00039	23 c3		 and	 eax, ebx
  0003b	5b		 pop	 ebx

; 402  : 			}
; 403  : 		else
; 404  : 			return (_Traits::eof());	// nowhere to put back
; 405  : 		}

  0003c	5d		 pop	 ebp
  0003d	c2 04 00	 ret	 4
$LN10@pbackfail:

; 392  : 			}
; 393  : 		else if (_Myfile == 0 || _Traits::eq_int_type(_Traits::eof(), _Meta))

  00040	8b 46 54	 mov	 eax, DWORD PTR [esi+84]
  00043	85 c0		 test	 eax, eax
  00045	74 38		 je	 SHORT $LN6@pbackfail
  00047	83 fb ff	 cmp	 ebx, -1
  0004a	74 33		 je	 SHORT $LN6@pbackfail

; 395  : 		else if (_Pcvt == 0 && _Ungetc(_Traits::to_char_type(_Meta), _Myfile))

  0004c	83 7e 44 00	 cmp	 DWORD PTR [esi+68], 0
  00050	75 12		 jne	 SHORT $LN4@pbackfail
  00052	50		 push	 eax
  00053	0f b6 c3	 movzx	 eax, bl
  00056	50		 push	 eax
  00057	e8 00 00 00 00	 call	 _ungetc
  0005c	83 c4 08	 add	 esp, 8
  0005f	83 f8 ff	 cmp	 eax, -1

; 396  : 			return (_Meta);	// no facet and unget succeeded, return

  00062	75 13		 jne	 SHORT $LN55@pbackfail
$LN4@pbackfail:

; 397  : 		else if (_Mysb::gptr() != &_Mychar)

  00064	8b 4e 20	 mov	 ecx, DWORD PTR [esi+32]
  00067	8d 46 48	 lea	 eax, DWORD PTR [esi+72]
  0006a	39 01		 cmp	 DWORD PTR [ecx], eax
  0006c	74 11		 je	 SHORT $LN6@pbackfail

; 398  : 			{	// putback to _Mychar
; 399  : 			_Mychar = _Traits::to_char_type(_Meta);
; 400  : 			_Set_back();	// switch to _Mychar buffer

  0006e	8b ce		 mov	 ecx, esi
  00070	88 18		 mov	 BYTE PTR [eax], bl
  00072	e8 00 00 00 00	 call	 ?_Set_back@?$basic_filebuf@DU?$char_traits@D@std@@@std@@AAEXXZ ; std::basic_filebuf<char,std::char_traits<char> >::_Set_back
$LN55@pbackfail:

; 401  : 			return (_Meta);

  00077	5e		 pop	 esi
  00078	8b c3		 mov	 eax, ebx
  0007a	5b		 pop	 ebx

; 402  : 			}
; 403  : 		else
; 404  : 			return (_Traits::eof());	// nowhere to put back
; 405  : 		}

  0007b	5d		 pop	 ebp
  0007c	c2 04 00	 ret	 4
$LN6@pbackfail:
  0007f	5e		 pop	 esi

; 394  : 			return (_Traits::eof());	// no open C stream or EOF, fail

  00080	83 c8 ff	 or	 eax, -1
  00083	5b		 pop	 ebx

; 402  : 			}
; 403  : 		else
; 404  : 			return (_Traits::eof());	// nowhere to put back
; 405  : 		}

  00084	5d		 pop	 ebp
  00085	c2 04 00	 ret	 4
?pbackfail@?$basic_filebuf@DU?$char_traits@D@std@@@std@@MAEHH@Z ENDP ; std::basic_filebuf<char,std::char_traits<char> >::pbackfail
_TEXT	ENDS
EXTRN	_setvbuf:PROC
; Function compile flags: /Ogtp
;	COMDAT ?setbuf@?$basic_filebuf@DU?$char_traits@D@std@@@std@@MAEPAV?$basic_streambuf@DU?$char_traits@D@std@@@2@PAD_J@Z
_TEXT	SEGMENT
__Buffer$ = 8						; size = 4
__Count$ = 12						; size = 8
?setbuf@?$basic_filebuf@DU?$char_traits@D@std@@@std@@MAEPAV?$basic_streambuf@DU?$char_traits@D@std@@@2@PAD_J@Z PROC ; std::basic_filebuf<char,std::char_traits<char> >::setbuf, COMDAT
; _this$ = ecx

; 530  : 		{	// offer _Buffer to C stream

  00000	55		 push	 ebp
  00001	8b ec		 mov	 ebp, esp
  00003	57		 push	 edi
  00004	8b f9		 mov	 edi, ecx

; 531  : 		if (_Myfile == 0 || setvbuf(_Myfile, (char *)_Buffer,
; 532  : 			_Buffer == 0 && _Count == 0 ? _IONBF : _IOFBF,
; 533  : 			(size_t)_Count * sizeof (_Elem)) != 0)

  00006	8b 4f 54	 mov	 ecx, DWORD PTR [edi+84]
  00009	85 c9		 test	 ecx, ecx
  0000b	74 40		 je	 SHORT $LN2@setbuf
  0000d	8b 55 08	 mov	 edx, DWORD PTR __Buffer$[ebp]
  00010	56		 push	 esi
  00011	8b 75 0c	 mov	 esi, DWORD PTR __Count$[ebp]
  00014	85 d2		 test	 edx, edx
  00016	75 0e		 jne	 SHORT $LN6@setbuf
  00018	8b c6		 mov	 eax, esi
  0001a	0b 45 10	 or	 eax, DWORD PTR __Count$[ebp+4]
  0001d	75 07		 jne	 SHORT $LN6@setbuf
  0001f	b8 04 00 00 00	 mov	 eax, 4
  00024	eb 02		 jmp	 SHORT $LN7@setbuf
$LN6@setbuf:
  00026	33 c0		 xor	 eax, eax
$LN7@setbuf:
  00028	56		 push	 esi
  00029	50		 push	 eax
  0002a	52		 push	 edx
  0002b	51		 push	 ecx
  0002c	e8 00 00 00 00	 call	 _setvbuf
  00031	83 c4 10	 add	 esp, 16			; 00000010H
  00034	5e		 pop	 esi
  00035	85 c0		 test	 eax, eax
  00037	75 14		 jne	 SHORT $LN2@setbuf

; 535  : 		else
; 536  : 			{	// new buffer, reinitialize pointers
; 537  : 			_Init(_Myfile, _Openfl);

  00039	8b 4f 54	 mov	 ecx, DWORD PTR [edi+84]
  0003c	6a 01		 push	 1
  0003e	51		 push	 ecx
  0003f	8b cf		 mov	 ecx, edi
  00041	e8 00 00 00 00	 call	 ?_Init@?$basic_filebuf@DU?$char_traits@D@std@@@std@@IAEXPAU_iobuf@@W4_Initfl@12@@Z ; std::basic_filebuf<char,std::char_traits<char> >::_Init

; 538  : 			return (this);

  00046	8b c7		 mov	 eax, edi
  00048	5f		 pop	 edi

; 539  : 			}
; 540  : 		}

  00049	5d		 pop	 ebp
  0004a	c2 0c 00	 ret	 12			; 0000000cH
$LN2@setbuf:

; 534  : 			return (0);	// failed

  0004d	33 c0		 xor	 eax, eax
  0004f	5f		 pop	 edi

; 539  : 			}
; 540  : 		}

  00050	5d		 pop	 ebp
  00051	c2 0c 00	 ret	 12			; 0000000cH
?setbuf@?$basic_filebuf@DU?$char_traits@D@std@@@std@@MAEPAV?$basic_streambuf@DU?$char_traits@D@std@@@2@PAD_J@Z ENDP ; std::basic_filebuf<char,std::char_traits<char> >::setbuf
_TEXT	ENDS
PUBLIC	?widen@?$basic_ios@DU?$char_traits@D@std@@@std@@QBEDD@Z ; std::basic_ios<char,std::char_traits<char> >::widen
;	COMDAT xdata$x
; File d:\program files (x86)\microsoft visual studio 10.0\vc\include\xlocale
xdata$x	SEGMENT
__unwindtable$?widen@?$basic_ios@DU?$char_traits@D@std@@@std@@QBEDD@Z DD 0ffffffffH
	DD	FLAT:__unwindfunclet$?widen@?$basic_ios@DU?$char_traits@D@std@@@std@@QBEDD@Z$0
__ehfuncinfo$?widen@?$basic_ios@DU?$char_traits@D@std@@@std@@QBEDD@Z DD 019930522H
	DD	01H
	DD	FLAT:__unwindtable$?widen@?$basic_ios@DU?$char_traits@D@std@@@std@@QBEDD@Z
	DD	2 DUP(00H)
	DD	2 DUP(00H)
	DD	00H
	DD	01H
; Function compile flags: /Ogtp
; File d:\program files (x86)\microsoft visual studio 10.0\vc\include\ios
xdata$x	ENDS
;	COMDAT ?widen@?$basic_ios@DU?$char_traits@D@std@@@std@@QBEDD@Z
_TEXT	SEGMENT
__Lock$211682 = -20					; size = 4
$T211658 = -16						; size = 4
__$EHRec$ = -12						; size = 12
__Byte$ = 8						; size = 1
?widen@?$basic_ios@DU?$char_traits@D@std@@@std@@QBEDD@Z PROC ; std::basic_ios<char,std::char_traits<char> >::widen, COMDAT
; _this$ = ecx

; 124  : 		{	// convert _Byte to character using imbued locale

  00000	55		 push	 ebp
  00001	8b ec		 mov	 ebp, esp
  00003	6a ff		 push	 -1
  00005	68 00 00 00 00	 push	 __ehhandler$?widen@?$basic_ios@DU?$char_traits@D@std@@@std@@QBEDD@Z
  0000a	64 a1 00 00 00
	00		 mov	 eax, DWORD PTR fs:0
  00010	50		 push	 eax
  00011	83 ec 08	 sub	 esp, 8
  00014	53		 push	 ebx
  00015	56		 push	 esi
  00016	57		 push	 edi
  00017	a1 00 00 00 00	 mov	 eax, DWORD PTR ___security_cookie
  0001c	33 c5		 xor	 eax, ebp
  0001e	50		 push	 eax
  0001f	8d 45 f4	 lea	 eax, DWORD PTR __$EHRec$[ebp]
  00022	64 a3 00 00 00
	00		 mov	 DWORD PTR fs:0, eax

; 125  : 		const _Ctype& _Ctype_fac = _USE(getloc(), _Ctype);

  00028	8d 45 f0	 lea	 eax, DWORD PTR $T211658[ebp]
  0002b	50		 push	 eax
  0002c	e8 00 00 00 00	 call	 ?getloc@ios_base@std@@QBE?AVlocale@2@XZ ; std::ios_base::getloc
  00031	50		 push	 eax
  00032	c7 45 fc 00 00
	00 00		 mov	 DWORD PTR __$EHRec$[ebp+8], 0
  00039	e8 00 00 00 00	 call	 ??$use_facet@V?$ctype@D@std@@@std@@YAABV?$ctype@D@0@ABVlocale@0@@Z ; std::use_facet<std::ctype<char> >
  0003e	8b 7d f0	 mov	 edi, DWORD PTR $T211658[ebp]
  00041	83 c4 04	 add	 esp, 4
  00044	8b d8		 mov	 ebx, eax
  00046	c7 45 fc ff ff
	ff ff		 mov	 DWORD PTR __$EHRec$[ebp+8], -1
  0004d	85 ff		 test	 edi, edi
  0004f	74 39		 je	 SHORT $LN7@widen
  00051	6a 00		 push	 0
  00053	8d 4d ec	 lea	 ecx, DWORD PTR __Lock$211682[ebp]
  00056	e8 00 00 00 00	 call	 ??0_Lockit@std@@QAE@H@Z	; std::_Lockit::_Lockit
  0005b	8b 47 04	 mov	 eax, DWORD PTR [edi+4]
  0005e	85 c0		 test	 eax, eax
  00060	74 09		 je	 SHORT $LN9@widen
  00062	83 f8 ff	 cmp	 eax, -1
  00065	73 04		 jae	 SHORT $LN9@widen
  00067	48		 dec	 eax
  00068	89 47 04	 mov	 DWORD PTR [edi+4], eax
$LN9@widen:
  0006b	8b 77 04	 mov	 esi, DWORD PTR [edi+4]
  0006e	f7 de		 neg	 esi
  00070	1b f6		 sbb	 esi, esi
  00072	8d 4d ec	 lea	 ecx, DWORD PTR __Lock$211682[ebp]
  00075	f7 d6		 not	 esi
  00077	e8 00 00 00 00	 call	 ??1_Lockit@std@@QAE@XZ	; std::_Lockit::~_Lockit
  0007c	23 f7		 and	 esi, edi
  0007e	74 0a		 je	 SHORT $LN7@widen
  00080	8b 16		 mov	 edx, DWORD PTR [esi]
  00082	8b 02		 mov	 eax, DWORD PTR [edx]
  00084	6a 01		 push	 1
  00086	8b ce		 mov	 ecx, esi
  00088	ff d0		 call	 eax
$LN7@widen:

; 126  : 		return (_Ctype_fac.widen(_Byte));

  0008a	8b 13		 mov	 edx, DWORD PTR [ebx]
  0008c	8b 45 08	 mov	 eax, DWORD PTR __Byte$[ebp]
  0008f	8b 52 18	 mov	 edx, DWORD PTR [edx+24]
  00092	50		 push	 eax
  00093	8b cb		 mov	 ecx, ebx
  00095	ff d2		 call	 edx

; 127  : 		}

  00097	8b 4d f4	 mov	 ecx, DWORD PTR __$EHRec$[ebp]
  0009a	64 89 0d 00 00
	00 00		 mov	 DWORD PTR fs:0, ecx
  000a1	59		 pop	 ecx
  000a2	5f		 pop	 edi
  000a3	5e		 pop	 esi
  000a4	5b		 pop	 ebx
  000a5	8b e5		 mov	 esp, ebp
  000a7	5d		 pop	 ebp
  000a8	c2 04 00	 ret	 4
_TEXT	ENDS
;	COMDAT text$x
text$x	SEGMENT
__unwindfunclet$?widen@?$basic_ios@DU?$char_traits@D@std@@@std@@QBEDD@Z$0:
  00000	8d 4d f0	 lea	 ecx, DWORD PTR $T211658[ebp]
  00003	e9 00 00 00 00	 jmp	 ??1locale@std@@QAE@XZ	; std::locale::~locale
__ehhandler$?widen@?$basic_ios@DU?$char_traits@D@std@@@std@@QBEDD@Z:
  00008	8b 54 24 08	 mov	 edx, DWORD PTR [esp+8]
  0000c	8d 42 0c	 lea	 eax, DWORD PTR [edx+12]
  0000f	8b 4a e8	 mov	 ecx, DWORD PTR [edx-24]
  00012	33 c8		 xor	 ecx, eax
  00014	e8 00 00 00 00	 call	 @__security_check_cookie@4
  00019	b8 00 00 00 00	 mov	 eax, OFFSET __ehfuncinfo$?widen@?$basic_ios@DU?$char_traits@D@std@@@std@@QBEDD@Z
  0001e	e9 00 00 00 00	 jmp	 ___CxxFrameHandler3
text$x	ENDS
?widen@?$basic_ios@DU?$char_traits@D@std@@@std@@QBEDD@Z ENDP ; std::basic_ios<char,std::char_traits<char> >::widen
PUBLIC	?_Getcat@?$codecvt@DDH@std@@SAIPAPBVfacet@locale@2@PBV42@@Z ; std::codecvt<char,char,int>::_Getcat
;	COMDAT xdata$x
; File d:\program files (x86)\microsoft visual studio 10.0\vc\include\xlocale
xdata$x	SEGMENT
__unwindtable$?_Getcat@?$codecvt@DDH@std@@SAIPAPBVfacet@locale@2@PBV42@@Z DD 0ffffffffH
	DD	FLAT:__unwindfunclet$?_Getcat@?$codecvt@DDH@std@@SAIPAPBVfacet@locale@2@PBV42@@Z$0
__ehfuncinfo$?_Getcat@?$codecvt@DDH@std@@SAIPAPBVfacet@locale@2@PBV42@@Z DD 019930522H
	DD	01H
	DD	FLAT:__unwindtable$?_Getcat@?$codecvt@DDH@std@@SAIPAPBVfacet@locale@2@PBV42@@Z
	DD	2 DUP(00H)
	DD	2 DUP(00H)
	DD	00H
	DD	01H
; Function compile flags: /Ogtp
xdata$x	ENDS
;	COMDAT ?_Getcat@?$codecvt@DDH@std@@SAIPAPBVfacet@locale@2@PBV42@@Z
_TEXT	SEGMENT
$T211699 = -52						; size = 36
$T211703 = -16						; size = 4
$T211698 = -16						; size = 4
__$EHRec$ = -12						; size = 12
__Ppf$ = 8						; size = 4
__Ploc$ = 12						; size = 4
?_Getcat@?$codecvt@DDH@std@@SAIPAPBVfacet@locale@2@PBV42@@Z PROC ; std::codecvt<char,char,int>::_Getcat, COMDAT

; 849  : 		{	// return locale category mask and construct standard facet

  00000	55		 push	 ebp
  00001	8b ec		 mov	 ebp, esp
  00003	6a ff		 push	 -1
  00005	68 00 00 00 00	 push	 __ehhandler$?_Getcat@?$codecvt@DDH@std@@SAIPAPBVfacet@locale@2@PBV42@@Z
  0000a	64 a1 00 00 00
	00		 mov	 eax, DWORD PTR fs:0
  00010	50		 push	 eax
  00011	83 ec 28	 sub	 esp, 40			; 00000028H
  00014	53		 push	 ebx
  00015	56		 push	 esi
  00016	a1 00 00 00 00	 mov	 eax, DWORD PTR ___security_cookie
  0001b	33 c5		 xor	 eax, ebp
  0001d	50		 push	 eax
  0001e	8d 45 f4	 lea	 eax, DWORD PTR __$EHRec$[ebp]
  00021	64 a3 00 00 00
	00		 mov	 DWORD PTR fs:0, eax

; 850  : 		if (_Ppf != 0 && *_Ppf == 0)

  00027	8b 45 08	 mov	 eax, DWORD PTR __Ppf$[ebp]
  0002a	33 db		 xor	 ebx, ebx
  0002c	89 5d f0	 mov	 DWORD PTR $T211703[ebp], ebx
  0002f	85 c0		 test	 eax, eax
  00031	74 65		 je	 SHORT $LN26@Getcat@2
  00033	39 18		 cmp	 DWORD PTR [eax], ebx
  00035	75 61		 jne	 SHORT $LN26@Getcat@2

; 851  : 			*_Ppf = _NEW_CRT codecvt<_Elem, _Byte, _Statype>(
; 852  : 				_Locinfo(_Ploc->c_str()));

  00037	6a 08		 push	 8
  00039	e8 00 00 00 00	 call	 ??2@YAPAXI@Z		; operator new
  0003e	8b f0		 mov	 esi, eax
  00040	83 c4 04	 add	 esp, 4
  00043	89 75 f0	 mov	 DWORD PTR $T211698[ebp], esi
  00046	89 5d fc	 mov	 DWORD PTR __$EHRec$[ebp+8], ebx
  00049	85 f6		 test	 esi, esi
  0004b	74 30		 je	 SHORT $LN4@Getcat@2
  0004d	8b 45 0c	 mov	 eax, DWORD PTR __Ploc$[ebp]
  00050	8b 00		 mov	 eax, DWORD PTR [eax]
  00052	8b 48 18	 mov	 ecx, DWORD PTR [eax+24]
  00055	85 c9		 test	 ecx, ecx
  00057	74 04		 je	 SHORT $LN14@Getcat@2
  00059	8b c1		 mov	 eax, ecx
  0005b	eb 03		 jmp	 SHORT $LN15@Getcat@2
$LN14@Getcat@2:
  0005d	83 c0 1c	 add	 eax, 28			; 0000001cH
$LN15@Getcat@2:
  00060	50		 push	 eax
  00061	8d 4d cc	 lea	 ecx, DWORD PTR $T211699[ebp]
  00064	e8 00 00 00 00	 call	 ??0_Locinfo@std@@QAE@PBD@Z ; std::_Locinfo::_Locinfo
  00069	bb 01 00 00 00	 mov	 ebx, 1
  0006e	c7 46 04 00 00
	00 00		 mov	 DWORD PTR [esi+4], 0
  00075	c7 06 00 00 00
	00		 mov	 DWORD PTR [esi], OFFSET ??_7?$codecvt@DDH@std@@6B@
  0007b	eb 02		 jmp	 SHORT $LN5@Getcat@2
$LN4@Getcat@2:
  0007d	33 f6		 xor	 esi, esi
$LN5@Getcat@2:
  0007f	8b 4d 08	 mov	 ecx, DWORD PTR __Ppf$[ebp]
  00082	c7 45 fc ff ff
	ff ff		 mov	 DWORD PTR __$EHRec$[ebp+8], -1
  00089	89 31		 mov	 DWORD PTR [ecx], esi
  0008b	f6 c3 01	 test	 bl, 1
  0008e	74 08		 je	 SHORT $LN26@Getcat@2
  00090	8d 4d cc	 lea	 ecx, DWORD PTR $T211699[ebp]
  00093	e8 00 00 00 00	 call	 ??1_Locinfo@std@@QAE@XZ	; std::_Locinfo::~_Locinfo
$LN26@Getcat@2:

; 853  : 		return (_X_CTYPE);

  00098	b8 02 00 00 00	 mov	 eax, 2

; 854  : 		}

  0009d	8b 4d f4	 mov	 ecx, DWORD PTR __$EHRec$[ebp]
  000a0	64 89 0d 00 00
	00 00		 mov	 DWORD PTR fs:0, ecx
  000a7	59		 pop	 ecx
  000a8	5e		 pop	 esi
  000a9	5b		 pop	 ebx
  000aa	8b e5		 mov	 esp, ebp
  000ac	5d		 pop	 ebp
  000ad	c3		 ret	 0
_TEXT	ENDS
;	COMDAT text$x
text$x	SEGMENT
__unwindfunclet$?_Getcat@?$codecvt@DDH@std@@SAIPAPBVfacet@locale@2@PBV42@@Z$0:
  00000	8b 45 f0	 mov	 eax, DWORD PTR $T211698[ebp]
  00003	50		 push	 eax
  00004	e8 00 00 00 00	 call	 ??3@YAXPAX@Z		; operator delete
  00009	59		 pop	 ecx
  0000a	c3		 ret	 0
__ehhandler$?_Getcat@?$codecvt@DDH@std@@SAIPAPBVfacet@locale@2@PBV42@@Z:
  0000b	8b 54 24 08	 mov	 edx, DWORD PTR [esp+8]
  0000f	8d 42 0c	 lea	 eax, DWORD PTR [edx+12]
  00012	8b 4a cc	 mov	 ecx, DWORD PTR [edx-52]
  00015	33 c8		 xor	 ecx, eax
  00017	e8 00 00 00 00	 call	 @__security_check_cookie@4
  0001c	b8 00 00 00 00	 mov	 eax, OFFSET __ehfuncinfo$?_Getcat@?$codecvt@DDH@std@@SAIPAPBVfacet@locale@2@PBV42@@Z
  00021	e9 00 00 00 00	 jmp	 ___CxxFrameHandler3
text$x	ENDS
?_Getcat@?$codecvt@DDH@std@@SAIPAPBVfacet@locale@2@PBV42@@Z ENDP ; std::codecvt<char,char,int>::_Getcat
PUBLIC	??0?$basic_string@DU?$char_traits@D@std@@V?$allocator@D@2@@std@@QAE@XZ ; std::basic_string<char,std::char_traits<char>,std::allocator<char> >::basic_string<char,std::char_traits<char>,std::allocator<char> >
; Function compile flags: /Ogtp
; File d:\program files (x86)\microsoft visual studio 10.0\vc\include\xstring
;	COMDAT ??0?$basic_string@DU?$char_traits@D@std@@V?$allocator@D@2@@std@@QAE@XZ
_TEXT	SEGMENT
??0?$basic_string@DU?$char_traits@D@std@@V?$allocator@D@2@@std@@QAE@XZ PROC ; std::basic_string<char,std::char_traits<char>,std::allocator<char> >::basic_string<char,std::char_traits<char>,std::allocator<char> >, COMDAT
; _this$ = ecx

; 550  : 		{	// construct empty string

  00000	8b c1		 mov	 eax, ecx

; 551  : 		_Tidy();

  00002	c7 40 14 0f 00
	00 00		 mov	 DWORD PTR [eax+20], 15	; 0000000fH
  00009	c7 40 10 00 00
	00 00		 mov	 DWORD PTR [eax+16], 0
  00010	c6 00 00	 mov	 BYTE PTR [eax], 0

; 552  : 		}

  00013	c3		 ret	 0
??0?$basic_string@DU?$char_traits@D@std@@V?$allocator@D@2@@std@@QAE@XZ ENDP ; std::basic_string<char,std::char_traits<char>,std::allocator<char> >::basic_string<char,std::char_traits<char>,std::allocator<char> >
_TEXT	ENDS
PUBLIC	??1?$basic_string@DU?$char_traits@D@std@@V?$allocator@D@2@@std@@QAE@XZ ; std::basic_string<char,std::char_traits<char>,std::allocator<char> >::~basic_string<char,std::char_traits<char>,std::allocator<char> >
; Function compile flags: /Ogtp
;	COMDAT ??1?$basic_string@DU?$char_traits@D@std@@V?$allocator@D@2@@std@@QAE@XZ
_TEXT	SEGMENT
??1?$basic_string@DU?$char_traits@D@std@@V?$allocator@D@2@@std@@QAE@XZ PROC ; std::basic_string<char,std::char_traits<char>,std::allocator<char> >::~basic_string<char,std::char_traits<char>,std::allocator<char> >, COMDAT
; _this$ = ecx

; 753  : 		{	// destroy the string

  00000	56		 push	 esi
  00001	8b f1		 mov	 esi, ecx

; 754  : 		_Tidy(true);

  00003	83 7e 14 10	 cmp	 DWORD PTR [esi+20], 16	; 00000010H
  00007	72 0b		 jb	 SHORT $LN11@basic_stri
  00009	8b 06		 mov	 eax, DWORD PTR [esi]
  0000b	50		 push	 eax
  0000c	e8 00 00 00 00	 call	 ??3@YAXPAX@Z		; operator delete
  00011	83 c4 04	 add	 esp, 4
$LN11@basic_stri:
  00014	c7 46 14 0f 00
	00 00		 mov	 DWORD PTR [esi+20], 15	; 0000000fH
  0001b	c7 46 10 00 00
	00 00		 mov	 DWORD PTR [esi+16], 0
  00022	c6 06 00	 mov	 BYTE PTR [esi], 0
  00025	5e		 pop	 esi

; 755  : 		}

  00026	c3		 ret	 0
??1?$basic_string@DU?$char_traits@D@std@@V?$allocator@D@2@@std@@QAE@XZ ENDP ; std::basic_string<char,std::char_traits<char>,std::allocator<char> >::~basic_string<char,std::char_traits<char>,std::allocator<char> >
_TEXT	ENDS
PUBLIC	?flush@?$basic_ostream@DU?$char_traits@D@std@@@std@@QAEAAV12@XZ ; std::basic_ostream<char,std::char_traits<char> >::flush
; Function compile flags: /Ogtp
; File d:\program files (x86)\microsoft visual studio 10.0\vc\include\ostream
;	COMDAT ?flush@?$basic_ostream@DU?$char_traits@D@std@@@std@@QAEAAV12@XZ
_TEXT	SEGMENT
?flush@?$basic_ostream@DU?$char_traits@D@std@@@std@@QAEAAV12@XZ PROC ; std::basic_ostream<char,std::char_traits<char> >::flush, COMDAT
; _this$ = ecx

; 570  : 		{	// flush output stream

  00000	56		 push	 esi
  00001	8b f1		 mov	 esi, ecx

; 571  : 		ios_base::iostate _State = ios_base::goodbit;
; 572  : 		if (!ios_base::fail() && _Myios::rdbuf()->pubsync() == -1)

  00003	8b 06		 mov	 eax, DWORD PTR [esi]
  00005	8b 40 04	 mov	 eax, DWORD PTR [eax+4]
  00008	57		 push	 edi
  00009	33 ff		 xor	 edi, edi
  0000b	f6 44 30 0c 06	 test	 BYTE PTR [eax+esi+12], 6
  00010	75 17		 jne	 SHORT $LN1@flush
  00012	8b 44 30 38	 mov	 eax, DWORD PTR [eax+esi+56]
  00016	8b 10		 mov	 edx, DWORD PTR [eax]
  00018	8b c8		 mov	 ecx, eax
  0001a	8b 42 34	 mov	 eax, DWORD PTR [edx+52]
  0001d	ff d0		 call	 eax
  0001f	83 f8 ff	 cmp	 eax, -1
  00022	75 05		 jne	 SHORT $LN1@flush

; 573  : 			_State |= ios_base::badbit;	// sync failed

  00024	bf 04 00 00 00	 mov	 edi, 4
$LN1@flush:

; 574  : 		_Myios::setstate(_State);

  00029	8b 0e		 mov	 ecx, DWORD PTR [esi]
  0002b	8b 49 04	 mov	 ecx, DWORD PTR [ecx+4]
  0002e	03 ce		 add	 ecx, esi
  00030	85 ff		 test	 edi, edi
  00032	74 16		 je	 SHORT $LN21@flush
  00034	8b 41 0c	 mov	 eax, DWORD PTR [ecx+12]
  00037	0b c7		 or	 eax, edi
  00039	83 79 38 00	 cmp	 DWORD PTR [ecx+56], 0
  0003d	75 03		 jne	 SHORT $LN19@flush
  0003f	83 c8 04	 or	 eax, 4
$LN19@flush:
  00042	6a 00		 push	 0
  00044	50		 push	 eax
  00045	e8 00 00 00 00	 call	 ?clear@ios_base@std@@QAEXH_N@Z ; std::ios_base::clear
$LN21@flush:

; 575  : 		return (*this);

  0004a	5f		 pop	 edi
  0004b	8b c6		 mov	 eax, esi
  0004d	5e		 pop	 esi

; 576  : 		}

  0004e	c3		 ret	 0
?flush@?$basic_ostream@DU?$char_traits@D@std@@@std@@QAEAAV12@XZ ENDP ; std::basic_ostream<char,std::char_traits<char> >::flush
_TEXT	ENDS
PUBLIC	??0sentry@?$basic_ostream@DU?$char_traits@D@std@@@std@@QAE@AAV12@@Z ; std::basic_ostream<char,std::char_traits<char> >::sentry::sentry
;	COMDAT xdata$x
; File d:\program files (x86)\microsoft visual studio 10.0\vc\include\xiosbase
xdata$x	SEGMENT
__unwindtable$??0sentry@?$basic_ostream@DU?$char_traits@D@std@@@std@@QAE@AAV12@@Z DD 0ffffffffH
	DD	FLAT:__unwindfunclet$??0sentry@?$basic_ostream@DU?$char_traits@D@std@@@std@@QAE@AAV12@@Z$0
__ehfuncinfo$??0sentry@?$basic_ostream@DU?$char_traits@D@std@@@std@@QAE@AAV12@@Z DD 019930522H
	DD	01H
	DD	FLAT:__unwindtable$??0sentry@?$basic_ostream@DU?$char_traits@D@std@@@std@@QAE@AAV12@@Z
	DD	2 DUP(00H)
	DD	2 DUP(00H)
	DD	00H
	DD	01H
; Function compile flags: /Ogtp
; File d:\program files (x86)\microsoft visual studio 10.0\vc\include\ostream
xdata$x	ENDS
;	COMDAT ??0sentry@?$basic_ostream@DU?$char_traits@D@std@@@std@@QAE@AAV12@@Z
_TEXT	SEGMENT
_this$ = -16						; size = 4
__$EHRec$ = -12						; size = 12
__Ostr$ = 8						; size = 4
??0sentry@?$basic_ostream@DU?$char_traits@D@std@@@std@@QAE@AAV12@@Z PROC ; std::basic_ostream<char,std::char_traits<char> >::sentry::sentry, COMDAT
; _this$ = ecx

; 114  : 			{	// construct locking and testing stream

  00000	55		 push	 ebp
  00001	8b ec		 mov	 ebp, esp
  00003	6a ff		 push	 -1
  00005	68 00 00 00 00	 push	 __ehhandler$??0sentry@?$basic_ostream@DU?$char_traits@D@std@@@std@@QAE@AAV12@@Z
  0000a	64 a1 00 00 00
	00		 mov	 eax, DWORD PTR fs:0
  00010	50		 push	 eax
  00011	51		 push	 ecx
  00012	56		 push	 esi
  00013	57		 push	 edi
  00014	a1 00 00 00 00	 mov	 eax, DWORD PTR ___security_cookie
  00019	33 c5		 xor	 eax, ebp
  0001b	50		 push	 eax
  0001c	8d 45 f4	 lea	 eax, DWORD PTR __$EHRec$[ebp]
  0001f	64 a3 00 00 00
	00		 mov	 DWORD PTR fs:0, eax
  00025	8b f9		 mov	 edi, ecx
  00027	89 7d f0	 mov	 DWORD PTR _this$[ebp], edi
  0002a	8b 75 08	 mov	 esi, DWORD PTR __Ostr$[ebp]
  0002d	89 37		 mov	 DWORD PTR [edi], esi
  0002f	8b 06		 mov	 eax, DWORD PTR [esi]
  00031	8b 48 04	 mov	 ecx, DWORD PTR [eax+4]
  00034	8b 4c 31 38	 mov	 ecx, DWORD PTR [ecx+esi+56]
  00038	85 c9		 test	 ecx, ecx
  0003a	74 07		 je	 SHORT $LN5@sentry
  0003c	8b 11		 mov	 edx, DWORD PTR [ecx]
  0003e	8b 42 04	 mov	 eax, DWORD PTR [edx+4]
  00041	ff d0		 call	 eax
$LN5@sentry:

; 115  : 			if (_Ostr.good() && _Ostr.tie() != 0)

  00043	8b 0e		 mov	 ecx, DWORD PTR [esi]
  00045	8b 41 04	 mov	 eax, DWORD PTR [ecx+4]
  00048	83 7c 30 0c 00	 cmp	 DWORD PTR [eax+esi+12], 0
  0004d	c7 45 fc 00 00
	00 00		 mov	 DWORD PTR __$EHRec$[ebp+8], 0
  00054	75 0f		 jne	 SHORT $LN1@sentry
  00056	8b 44 30 3c	 mov	 eax, DWORD PTR [eax+esi+60]
  0005a	85 c0		 test	 eax, eax
  0005c	74 07		 je	 SHORT $LN1@sentry

; 116  : 				_Ostr.tie()->flush();

  0005e	8b c8		 mov	 ecx, eax
  00060	e8 00 00 00 00	 call	 ?flush@?$basic_ostream@DU?$char_traits@D@std@@@std@@QAEAAV12@XZ ; std::basic_ostream<char,std::char_traits<char> >::flush
$LN1@sentry:

; 117  : 			_Ok = _Ostr.good();	// store test only after flushing tie

  00065	8b 06		 mov	 eax, DWORD PTR [esi]
  00067	8b 48 04	 mov	 ecx, DWORD PTR [eax+4]
  0006a	83 7c 31 0c 00	 cmp	 DWORD PTR [ecx+esi+12], 0

; 118  : 			}

  0006f	8b c7		 mov	 eax, edi
  00071	0f 94 c2	 sete	 dl
  00074	88 57 04	 mov	 BYTE PTR [edi+4], dl
  00077	8b 4d f4	 mov	 ecx, DWORD PTR __$EHRec$[ebp]
  0007a	64 89 0d 00 00
	00 00		 mov	 DWORD PTR fs:0, ecx
  00081	59		 pop	 ecx
  00082	5f		 pop	 edi
  00083	5e		 pop	 esi
  00084	8b e5		 mov	 esp, ebp
  00086	5d		 pop	 ebp
  00087	c2 04 00	 ret	 4
_TEXT	ENDS
;	COMDAT text$x
text$x	SEGMENT
__unwindfunclet$??0sentry@?$basic_ostream@DU?$char_traits@D@std@@@std@@QAE@AAV12@@Z$0:
  00000	8b 4d f0	 mov	 ecx, DWORD PTR _this$[ebp]
  00003	e9 00 00 00 00	 jmp	 ??1_Sentry_base@?$basic_ostream@DU?$char_traits@D@std@@@std@@QAE@XZ ; std::basic_ostream<char,std::char_traits<char> >::_Sentry_base::~_Sentry_base
__ehhandler$??0sentry@?$basic_ostream@DU?$char_traits@D@std@@@std@@QAE@AAV12@@Z:
  00008	8b 54 24 08	 mov	 edx, DWORD PTR [esp+8]
  0000c	8d 42 0c	 lea	 eax, DWORD PTR [edx+12]
  0000f	8b 4a f0	 mov	 ecx, DWORD PTR [edx-16]
  00012	33 c8		 xor	 ecx, eax
  00014	e8 00 00 00 00	 call	 @__security_check_cookie@4
  00019	b8 00 00 00 00	 mov	 eax, OFFSET __ehfuncinfo$??0sentry@?$basic_ostream@DU?$char_traits@D@std@@@std@@QAE@AAV12@@Z
  0001e	e9 00 00 00 00	 jmp	 ___CxxFrameHandler3
text$x	ENDS
??0sentry@?$basic_ostream@DU?$char_traits@D@std@@@std@@QAE@AAV12@@Z ENDP ; std::basic_ostream<char,std::char_traits<char> >::sentry::sentry
PUBLIC	?_Osfx@?$basic_ostream@DU?$char_traits@D@std@@@std@@QAEXXZ ; std::basic_ostream<char,std::char_traits<char> >::_Osfx
;	COMDAT xdata$x
; File d:\program files (x86)\microsoft visual studio 10.0\vc\include\xiosbase
xdata$x	SEGMENT
__catchsym$?_Osfx@?$basic_ostream@DU?$char_traits@D@std@@@std@@QAEXXZ$2 DD 040H
	DD	00H
	DD	00H
	DD	FLAT:__catch$?_Osfx@?$basic_ostream@DU?$char_traits@D@std@@@std@@QAEXXZ$0
__unwindtable$?_Osfx@?$basic_ostream@DU?$char_traits@D@std@@@std@@QAEXXZ DD 0ffffffffH
	DD	00H
	DD	0ffffffffH
	DD	00H
__tryblocktable$?_Osfx@?$basic_ostream@DU?$char_traits@D@std@@@std@@QAEXXZ DD 00H
	DD	00H
	DD	01H
	DD	01H
	DD	FLAT:__catchsym$?_Osfx@?$basic_ostream@DU?$char_traits@D@std@@@std@@QAEXXZ$2
__ehfuncinfo$?_Osfx@?$basic_ostream@DU?$char_traits@D@std@@@std@@QAEXXZ DD 019930522H
	DD	02H
	DD	FLAT:__unwindtable$?_Osfx@?$basic_ostream@DU?$char_traits@D@std@@@std@@QAEXXZ
	DD	01H
	DD	FLAT:__tryblocktable$?_Osfx@?$basic_ostream@DU?$char_traits@D@std@@@std@@QAEXXZ
	DD	2 DUP(00H)
	DD	00H
	DD	01H
; Function compile flags: /Ogtp
; File d:\program files (x86)\microsoft visual studio 10.0\vc\include\ostream
xdata$x	ENDS
;	COMDAT ?_Osfx@?$basic_ostream@DU?$char_traits@D@std@@@std@@QAEXXZ
_TEXT	SEGMENT
__$EHRec$ = -16						; size = 16
?_Osfx@?$basic_ostream@DU?$char_traits@D@std@@@std@@QAEXXZ PROC ; std::basic_ostream<char,std::char_traits<char> >::_Osfx, COMDAT
; _this$ = ecx

; 156  : 		{	// perform any wrapup

  00000	55		 push	 ebp
  00001	8b ec		 mov	 ebp, esp
  00003	6a ff		 push	 -1
  00005	68 00 00 00 00	 push	 __ehhandler$?_Osfx@?$basic_ostream@DU?$char_traits@D@std@@@std@@QAEXXZ
  0000a	64 a1 00 00 00
	00		 mov	 eax, DWORD PTR fs:0
  00010	50		 push	 eax
  00011	51		 push	 ecx
  00012	53		 push	 ebx
  00013	56		 push	 esi
  00014	57		 push	 edi
  00015	a1 00 00 00 00	 mov	 eax, DWORD PTR ___security_cookie
  0001a	33 c5		 xor	 eax, ebp
  0001c	50		 push	 eax
  0001d	8d 45 f4	 lea	 eax, DWORD PTR __$EHRec$[ebp+4]
  00020	64 a3 00 00 00
	00		 mov	 DWORD PTR fs:0, eax
  00026	89 65 f0	 mov	 DWORD PTR __$EHRec$[ebp], esp

; 157  : 		_TRY_BEGIN
; 158  : 		if (ios_base::flags() & ios_base::unitbuf)

  00029	8b 01		 mov	 eax, DWORD PTR [ecx]
  0002b	8b 50 04	 mov	 edx, DWORD PTR [eax+4]
  0002e	f6 44 0a 14 02	 test	 BYTE PTR [edx+ecx+20], 2
  00033	c7 45 fc 00 00
	00 00		 mov	 DWORD PTR __$EHRec$[ebp+12], 0
  0003a	74 05		 je	 SHORT $LN8@Osfx

; 159  : 			flush();	// flush stream as needed

  0003c	e8 00 00 00 00	 call	 ?flush@?$basic_ostream@DU?$char_traits@D@std@@@std@@QAEAAV12@XZ ; std::basic_ostream<char,std::char_traits<char> >::flush
$LN8@Osfx:

; 162  : 		}

  00041	8b 4d f4	 mov	 ecx, DWORD PTR __$EHRec$[ebp+4]
  00044	64 89 0d 00 00
	00 00		 mov	 DWORD PTR fs:0, ecx
  0004b	59		 pop	 ecx
  0004c	5f		 pop	 edi
  0004d	5e		 pop	 esi
  0004e	5b		 pop	 ebx
  0004f	8b e5		 mov	 esp, ebp
  00051	5d		 pop	 ebp
  00052	c3		 ret	 0
__catch$?_Osfx@?$basic_ostream@DU?$char_traits@D@std@@@std@@QAEXXZ$0:

; 160  : 		_CATCH_ALL
; 161  : 		_CATCH_END

  00053	b8 00 00 00 00	 mov	 eax, $LN8@Osfx
  00058	c3		 ret	 0
_TEXT	ENDS
;	COMDAT text$x
text$x	SEGMENT
__ehhandler$?_Osfx@?$basic_ostream@DU?$char_traits@D@std@@@std@@QAEXXZ:
  00000	8b 54 24 08	 mov	 edx, DWORD PTR [esp+8]
  00004	8d 42 0c	 lea	 eax, DWORD PTR [edx+12]
  00007	8b 4a ec	 mov	 ecx, DWORD PTR [edx-20]
  0000a	33 c8		 xor	 ecx, eax
  0000c	e8 00 00 00 00	 call	 @__security_check_cookie@4
  00011	b8 00 00 00 00	 mov	 eax, OFFSET __ehfuncinfo$?_Osfx@?$basic_ostream@DU?$char_traits@D@std@@@std@@QAEXXZ
  00016	e9 00 00 00 00	 jmp	 ___CxxFrameHandler3
text$x	ENDS
?_Osfx@?$basic_ostream@DU?$char_traits@D@std@@@std@@QAEXXZ ENDP ; std::basic_ostream<char,std::char_traits<char> >::_Osfx
PUBLIC	?_Grow@?$basic_string@DU?$char_traits@D@std@@V?$allocator@D@2@@std@@QAE_NI_N@Z ; std::basic_string<char,std::char_traits<char>,std::allocator<char> >::_Grow
; Function compile flags: /Ogtp
; File d:\program files (x86)\microsoft visual studio 10.0\vc\include\xstring
;	COMDAT ?_Grow@?$basic_string@DU?$char_traits@D@std@@V?$allocator@D@2@@std@@QAE_NI_N@Z
_TEXT	SEGMENT
__Newsize$ = 8						; size = 4
__Trim$ = 12						; size = 1
?_Grow@?$basic_string@DU?$char_traits@D@std@@V?$allocator@D@2@@std@@QAE_NI_N@Z PROC ; std::basic_string<char,std::char_traits<char>,std::allocator<char> >::_Grow, COMDAT
; _this$ = ecx

; 1959 : 		{	// ensure buffer is big enough, trim to size if _Trim is true

  00000	55		 push	 ebp
  00001	8b ec		 mov	 ebp, esp
  00003	53		 push	 ebx

; 1960 : 		if (max_size() < _Newsize)

  00004	8b 5d 08	 mov	 ebx, DWORD PTR __Newsize$[ebp]
  00007	56		 push	 esi
  00008	8b f1		 mov	 esi, ecx
  0000a	83 fb fe	 cmp	 ebx, -2			; fffffffeH
  0000d	76 0a		 jbe	 SHORT $LN6@Grow

; 1961 : 			_Xlen();	// result too long

  0000f	68 00 00 00 00	 push	 OFFSET ??_C@_0BA@JFNIOLAK@string?5too?5long?$AA@
  00014	e8 00 00 00 00	 call	 ?_Xlength_error@std@@YAXPBD@Z ; std::_Xlength_error
$LN49@Grow:
$LN6@Grow:

; 1962 : 		if (this->_Myres < _Newsize)

  00019	8b 46 14	 mov	 eax, DWORD PTR [esi+20]
  0001c	3b c3		 cmp	 eax, ebx
  0001e	73 18		 jae	 SHORT $LN5@Grow

; 1963 : 			_Copy(_Newsize, this->_Mysize);	// reallocate to grow

  00020	8b 46 10	 mov	 eax, DWORD PTR [esi+16]
  00023	50		 push	 eax
  00024	53		 push	 ebx
  00025	e8 00 00 00 00	 call	 ?_Copy@?$basic_string@DU?$char_traits@D@std@@V?$allocator@D@2@@std@@QAEXII@Z ; std::basic_string<char,std::char_traits<char>,std::allocator<char> >::_Copy

; 1969 : 		return (0 < _Newsize);	// return true only if more work to do

  0002a	33 c9		 xor	 ecx, ecx
  0002c	3b cb		 cmp	 ecx, ebx
  0002e	1b c0		 sbb	 eax, eax
  00030	5e		 pop	 esi
  00031	f7 d8		 neg	 eax
  00033	5b		 pop	 ebx

; 1970 : 		}

  00034	5d		 pop	 ebp
  00035	c2 08 00	 ret	 8
$LN5@Grow:

; 1964 : 		else if (_Trim && _Newsize < this->_BUF_SIZE)

  00038	80 7d 0c 00	 cmp	 BYTE PTR __Trim$[ebp], 0
  0003c	74 4e		 je	 SHORT $LN3@Grow
  0003e	83 fb 10	 cmp	 ebx, 16			; 00000010H
  00041	73 49		 jae	 SHORT $LN3@Grow

; 1965 : 			_Tidy(true,	// copy and deallocate if trimming to small string
; 1966 : 				_Newsize < this->_Mysize ? _Newsize : this->_Mysize);

  00043	57		 push	 edi
  00044	8b 7e 10	 mov	 edi, DWORD PTR [esi+16]
  00047	3b df		 cmp	 ebx, edi
  00049	73 02		 jae	 SHORT $LN9@Grow
  0004b	8b fb		 mov	 edi, ebx
$LN9@Grow:
  0004d	83 f8 10	 cmp	 eax, 16			; 00000010H
  00050	72 1d		 jb	 SHORT $LN30@Grow
  00052	8b 1e		 mov	 ebx, DWORD PTR [esi]
  00054	85 ff		 test	 edi, edi
  00056	74 0b		 je	 SHORT $LN28@Grow
  00058	57		 push	 edi
  00059	53		 push	 ebx
  0005a	56		 push	 esi
  0005b	e8 00 00 00 00	 call	 _memcpy
  00060	83 c4 0c	 add	 esp, 12			; 0000000cH
$LN28@Grow:
  00063	53		 push	 ebx
  00064	e8 00 00 00 00	 call	 ??3@YAXPAX@Z		; operator delete
  00069	8b 5d 08	 mov	 ebx, DWORD PTR __Newsize$[ebp]
  0006c	83 c4 04	 add	 esp, 4
$LN30@Grow:
  0006f	89 7e 10	 mov	 DWORD PTR [esi+16], edi
  00072	c7 46 14 0f 00
	00 00		 mov	 DWORD PTR [esi+20], 15	; 0000000fH

; 1969 : 		return (0 < _Newsize);	// return true only if more work to do

  00079	33 c9		 xor	 ecx, ecx
  0007b	c6 04 37 00	 mov	 BYTE PTR [edi+esi], 0
  0007f	3b cb		 cmp	 ecx, ebx
  00081	5f		 pop	 edi
  00082	1b c0		 sbb	 eax, eax
  00084	5e		 pop	 esi
  00085	f7 d8		 neg	 eax
  00087	5b		 pop	 ebx

; 1970 : 		}

  00088	5d		 pop	 ebp
  00089	c2 08 00	 ret	 8
$LN3@Grow:

; 1967 : 		else if (_Newsize == 0)

  0008c	85 db		 test	 ebx, ebx
  0008e	75 0d		 jne	 SHORT $LN46@Grow

; 1968 : 			_Eos(0);	// new size is zero, just null terminate

  00090	89 5e 10	 mov	 DWORD PTR [esi+16], ebx
  00093	83 f8 10	 cmp	 eax, 16			; 00000010H
  00096	72 02		 jb	 SHORT $LN44@Grow
  00098	8b 36		 mov	 esi, DWORD PTR [esi]
$LN44@Grow:
  0009a	c6 06 00	 mov	 BYTE PTR [esi], 0
$LN46@Grow:

; 1969 : 		return (0 < _Newsize);	// return true only if more work to do

  0009d	33 c9		 xor	 ecx, ecx
  0009f	3b cb		 cmp	 ecx, ebx
  000a1	1b c0		 sbb	 eax, eax
  000a3	5e		 pop	 esi
  000a4	f7 d8		 neg	 eax
  000a6	5b		 pop	 ebx

; 1970 : 		}

  000a7	5d		 pop	 ebp
  000a8	c2 08 00	 ret	 8
$LN48@Grow:
?_Grow@?$basic_string@DU?$char_traits@D@std@@V?$allocator@D@2@@std@@QAE_NI_N@Z ENDP ; std::basic_string<char,std::char_traits<char>,std::allocator<char> >::_Grow
_TEXT	ENDS
PUBLIC	?append@?$basic_string@DU?$char_traits@D@std@@V?$allocator@D@2@@std@@QAEAAV12@ID@Z ; std::basic_string<char,std::char_traits<char>,std::allocator<char> >::append
; Function compile flags: /Ogtp
;	COMDAT ?append@?$basic_string@DU?$char_traits@D@std@@V?$allocator@D@2@@std@@QAEAAV12@ID@Z
_TEXT	SEGMENT
__Count$ = 8						; size = 4
__Ch$ = 12						; size = 1
?append@?$basic_string@DU?$char_traits@D@std@@V?$allocator@D@2@@std@@QAEAAV12@ID@Z PROC ; std::basic_string<char,std::char_traits<char>,std::allocator<char> >::append, COMDAT
; _this$ = ecx

; 845  : 		{	// append _Count * _Ch

  00000	55		 push	 ebp
  00001	8b ec		 mov	 ebp, esp
  00003	53		 push	 ebx

; 846  : 		if (npos - this->_Mysize <= _Count)

  00004	8b 5d 08	 mov	 ebx, DWORD PTR __Count$[ebp]
  00007	56		 push	 esi
  00008	8b f1		 mov	 esi, ecx
  0000a	8b 46 10	 mov	 eax, DWORD PTR [esi+16]
  0000d	83 c9 ff	 or	 ecx, -1
  00010	2b c8		 sub	 ecx, eax
  00012	3b cb		 cmp	 ecx, ebx
  00014	77 0a		 ja	 SHORT $LN2@append

; 847  : 			_Xlen();	// result too long

  00016	68 00 00 00 00	 push	 OFFSET ??_C@_0BA@JFNIOLAK@string?5too?5long?$AA@
  0001b	e8 00 00 00 00	 call	 ?_Xlength_error@std@@YAXPBD@Z ; std::_Xlength_error
$LN67@append:
$LN2@append:

; 848  : 
; 849  : 		size_type _Num;
; 850  : 		if (0 < _Count && _Grow(_Num = this->_Mysize + _Count))

  00020	85 db		 test	 ebx, ebx
  00022	74 7c		 je	 SHORT $LN61@append
  00024	57		 push	 edi
  00025	8d 3c 18	 lea	 edi, DWORD PTR [eax+ebx]
  00028	83 ff fe	 cmp	 edi, -2			; fffffffeH
  0002b	76 0a		 jbe	 SHORT $LN13@append
  0002d	68 00 00 00 00	 push	 OFFSET ??_C@_0BA@JFNIOLAK@string?5too?5long?$AA@
  00032	e8 00 00 00 00	 call	 ?_Xlength_error@std@@YAXPBD@Z ; std::_Xlength_error
$LN68@append:
$LN13@append:
  00037	8b 4e 14	 mov	 ecx, DWORD PTR [esi+20]
  0003a	3b cf		 cmp	 ecx, edi
  0003c	73 35		 jae	 SHORT $LN12@append
  0003e	50		 push	 eax
  0003f	57		 push	 edi
  00040	8b ce		 mov	 ecx, esi
  00042	e8 00 00 00 00	 call	 ?_Copy@?$basic_string@DU?$char_traits@D@std@@V?$allocator@D@2@@std@@QAEXII@Z ; std::basic_string<char,std::char_traits<char>,std::allocator<char> >::_Copy
  00047	85 ff		 test	 edi, edi
  00049	74 54		 je	 SHORT $LN63@append
$LN66@append:

; 851  : 			{	// make room and append new stuff using assign
; 852  : 			_Chassign(this->_Mysize, _Count, _Ch);

  0004b	8b 55 0c	 mov	 edx, DWORD PTR __Ch$[ebp]
  0004e	8b 46 10	 mov	 eax, DWORD PTR [esi+16]
  00051	52		 push	 edx
  00052	53		 push	 ebx
  00053	50		 push	 eax
  00054	8b ce		 mov	 ecx, esi
  00056	e8 00 00 00 00	 call	 ?_Chassign@?$basic_string@DU?$char_traits@D@std@@V?$allocator@D@2@@std@@QAEXIID@Z ; std::basic_string<char,std::char_traits<char>,std::allocator<char> >::_Chassign

; 853  : 			_Eos(_Num);

  0005b	83 7e 14 10	 cmp	 DWORD PTR [esi+20], 16	; 00000010H
  0005f	89 7e 10	 mov	 DWORD PTR [esi+16], edi
  00062	72 35		 jb	 SHORT $LN59@append
  00064	8b 06		 mov	 eax, DWORD PTR [esi]
  00066	c6 04 38 00	 mov	 BYTE PTR [eax+edi], 0
  0006a	5f		 pop	 edi

; 854  : 			}
; 855  : 		return (*this);

  0006b	8b c6		 mov	 eax, esi
  0006d	5e		 pop	 esi
  0006e	5b		 pop	 ebx

; 856  : 		}

  0006f	5d		 pop	 ebp
  00070	c2 08 00	 ret	 8

; 848  : 
; 849  : 		size_type _Num;
; 850  : 		if (0 < _Count && _Grow(_Num = this->_Mysize + _Count))

$LN12@append:
  00073	85 ff		 test	 edi, edi
  00075	75 d4		 jne	 SHORT $LN66@append
  00077	89 7e 10	 mov	 DWORD PTR [esi+16], edi
  0007a	83 f9 10	 cmp	 ecx, 16			; 00000010H
  0007d	72 0e		 jb	 SHORT $LN51@append
  0007f	8b 06		 mov	 eax, DWORD PTR [esi]
  00081	5f		 pop	 edi
  00082	c6 00 00	 mov	 BYTE PTR [eax], 0

; 854  : 			}
; 855  : 		return (*this);

  00085	8b c6		 mov	 eax, esi
  00087	5e		 pop	 esi
  00088	5b		 pop	 ebx

; 856  : 		}

  00089	5d		 pop	 ebp
  0008a	c2 08 00	 ret	 8

; 848  : 
; 849  : 		size_type _Num;
; 850  : 		if (0 < _Count && _Grow(_Num = this->_Mysize + _Count))

$LN51@append:
  0008d	5f		 pop	 edi
  0008e	8b c6		 mov	 eax, esi
  00090	5e		 pop	 esi
  00091	c6 00 00	 mov	 BYTE PTR [eax], 0
  00094	5b		 pop	 ebx

; 856  : 		}

  00095	5d		 pop	 ebp
  00096	c2 08 00	 ret	 8

; 853  : 			_Eos(_Num);

$LN59@append:
  00099	8b c6		 mov	 eax, esi
  0009b	c6 04 38 00	 mov	 BYTE PTR [eax+edi], 0
$LN63@append:
  0009f	5f		 pop	 edi
$LN61@append:

; 854  : 			}
; 855  : 		return (*this);

  000a0	8b c6		 mov	 eax, esi
  000a2	5e		 pop	 esi
  000a3	5b		 pop	 ebx

; 856  : 		}

  000a4	5d		 pop	 ebp
  000a5	c2 08 00	 ret	 8
$LN64@append:
?append@?$basic_string@DU?$char_traits@D@std@@V?$allocator@D@2@@std@@QAEAAV12@ID@Z ENDP ; std::basic_string<char,std::char_traits<char>,std::allocator<char> >::append
_TEXT	ENDS
PUBLIC	?assign@?$basic_string@DU?$char_traits@D@std@@V?$allocator@D@2@@std@@QAEAAV12@ID@Z ; std::basic_string<char,std::char_traits<char>,std::allocator<char> >::assign
; Function compile flags: /Ogtp
;	COMDAT ?assign@?$basic_string@DU?$char_traits@D@std@@V?$allocator@D@2@@std@@QAEAAV12@ID@Z
_TEXT	SEGMENT
__Count$ = 8						; size = 4
__Ch$ = 12						; size = 1
?assign@?$basic_string@DU?$char_traits@D@std@@V?$allocator@D@2@@std@@QAEAAV12@ID@Z PROC ; std::basic_string<char,std::char_traits<char>,std::allocator<char> >::assign, COMDAT
; _this$ = ecx

; 935  : 		{	// assign _Count * _Ch

  00000	55		 push	 ebp
  00001	8b ec		 mov	 ebp, esp
  00003	56		 push	 esi
  00004	57		 push	 edi

; 936  : 		if (_Count == npos)

  00005	8b 7d 08	 mov	 edi, DWORD PTR __Count$[ebp]
  00008	8b f1		 mov	 esi, ecx
  0000a	83 ff ff	 cmp	 edi, -1
  0000d	75 0a		 jne	 SHORT $LN2@assign

; 937  : 			_Xlen();	// result too long

  0000f	68 00 00 00 00	 push	 OFFSET ??_C@_0BA@JFNIOLAK@string?5too?5long?$AA@
  00014	e8 00 00 00 00	 call	 ?_Xlength_error@std@@YAXPBD@Z ; std::_Xlength_error
$LN82@assign:
$LN2@assign:

; 938  : 
; 939  : 		if (_Grow(_Count))

  00019	83 ff fe	 cmp	 edi, -2			; fffffffeH
  0001c	76 0a		 jbe	 SHORT $LN13@assign
  0001e	68 00 00 00 00	 push	 OFFSET ??_C@_0BA@JFNIOLAK@string?5too?5long?$AA@
  00023	e8 00 00 00 00	 call	 ?_Xlength_error@std@@YAXPBD@Z ; std::_Xlength_error
$LN83@assign:
$LN13@assign:
  00028	8b 46 14	 mov	 eax, DWORD PTR [esi+20]
  0002b	3b c7		 cmp	 eax, edi
  0002d	73 22		 jae	 SHORT $LN12@assign
  0002f	8b 46 10	 mov	 eax, DWORD PTR [esi+16]
  00032	50		 push	 eax
  00033	57		 push	 edi
  00034	e8 00 00 00 00	 call	 ?_Copy@?$basic_string@DU?$char_traits@D@std@@V?$allocator@D@2@@std@@QAEXII@Z ; std::basic_string<char,std::char_traits<char>,std::allocator<char> >::_Copy
  00039	85 ff		 test	 edi, edi
  0003b	74 79		 je	 SHORT $LN77@assign
$LN81@assign:

; 940  : 			{	// make room and assign new stuff
; 941  : 			_Chassign(0, _Count, _Ch);

  0003d	83 ff 01	 cmp	 edi, 1
  00040	75 3c		 jne	 SHORT $LN56@assign
  00042	83 7e 14 10	 cmp	 DWORD PTR [esi+20], 16	; 00000010H
  00046	72 2d		 jb	 SHORT $LN61@assign
  00048	8b 06		 mov	 eax, DWORD PTR [esi]
  0004a	8a 4d 0c	 mov	 cl, BYTE PTR __Ch$[ebp]
  0004d	88 08		 mov	 BYTE PTR [eax], cl
  0004f	eb 48		 jmp	 SHORT $LN69@assign

; 938  : 
; 939  : 		if (_Grow(_Count))

$LN12@assign:
  00051	85 ff		 test	 edi, edi
  00053	75 e8		 jne	 SHORT $LN81@assign
  00055	89 7e 10	 mov	 DWORD PTR [esi+16], edi
  00058	83 f8 10	 cmp	 eax, 16			; 00000010H
  0005b	72 0d		 jb	 SHORT $LN51@assign
  0005d	8b 06		 mov	 eax, DWORD PTR [esi]
  0005f	c6 00 00	 mov	 BYTE PTR [eax], 0
  00062	5f		 pop	 edi

; 943  : 			}
; 944  : 		return (*this);

  00063	8b c6		 mov	 eax, esi
  00065	5e		 pop	 esi

; 945  : 		}

  00066	5d		 pop	 ebp
  00067	c2 08 00	 ret	 8

; 938  : 
; 939  : 		if (_Grow(_Count))

$LN51@assign:
  0006a	8b c6		 mov	 eax, esi
  0006c	5f		 pop	 edi
  0006d	c6 00 00	 mov	 BYTE PTR [eax], 0
  00070	5e		 pop	 esi

; 945  : 		}

  00071	5d		 pop	 ebp
  00072	c2 08 00	 ret	 8

; 940  : 			{	// make room and assign new stuff
; 941  : 			_Chassign(0, _Count, _Ch);

$LN61@assign:
  00075	8a 4d 0c	 mov	 cl, BYTE PTR __Ch$[ebp]
  00078	8b c6		 mov	 eax, esi
  0007a	88 08		 mov	 BYTE PTR [eax], cl
  0007c	eb 1b		 jmp	 SHORT $LN69@assign
$LN56@assign:
  0007e	83 7e 14 10	 cmp	 DWORD PTR [esi+20], 16	; 00000010H
  00082	72 04		 jb	 SHORT $LN67@assign
  00084	8b 06		 mov	 eax, DWORD PTR [esi]
  00086	eb 02		 jmp	 SHORT $LN68@assign
$LN67@assign:
  00088	8b c6		 mov	 eax, esi
$LN68@assign:
  0008a	0f be 55 0c	 movsx	 edx, BYTE PTR __Ch$[ebp]
  0008e	57		 push	 edi
  0008f	52		 push	 edx
  00090	50		 push	 eax
  00091	e8 00 00 00 00	 call	 _memset
  00096	83 c4 0c	 add	 esp, 12			; 0000000cH
$LN69@assign:

; 942  : 			_Eos(_Count);

  00099	83 7e 14 10	 cmp	 DWORD PTR [esi+20], 16	; 00000010H
  0009d	89 7e 10	 mov	 DWORD PTR [esi+16], edi
  000a0	72 0e		 jb	 SHORT $LN75@assign
  000a2	8b 06		 mov	 eax, DWORD PTR [esi]
  000a4	c6 04 38 00	 mov	 BYTE PTR [eax+edi], 0
  000a8	5f		 pop	 edi

; 943  : 			}
; 944  : 		return (*this);

  000a9	8b c6		 mov	 eax, esi
  000ab	5e		 pop	 esi

; 945  : 		}

  000ac	5d		 pop	 ebp
  000ad	c2 08 00	 ret	 8

; 942  : 			_Eos(_Count);

$LN75@assign:
  000b0	8b c6		 mov	 eax, esi
  000b2	c6 04 38 00	 mov	 BYTE PTR [eax+edi], 0
$LN77@assign:

; 943  : 			}
; 944  : 		return (*this);

  000b6	5f		 pop	 edi
  000b7	8b c6		 mov	 eax, esi
  000b9	5e		 pop	 esi

; 945  : 		}

  000ba	5d		 pop	 ebp
  000bb	c2 08 00	 ret	 8
$LN79@assign:
?assign@?$basic_string@DU?$char_traits@D@std@@V?$allocator@D@2@@std@@QAEAAV12@ID@Z ENDP ; std::basic_string<char,std::char_traits<char>,std::allocator<char> >::assign
_TEXT	ENDS
PUBLIC	?init@?$basic_ios@DU?$char_traits@D@std@@@std@@IAEXPAV?$basic_streambuf@DU?$char_traits@D@std@@@2@_N@Z ; std::basic_ios<char,std::char_traits<char> >::init
EXTRN	?_Addstd@ios_base@std@@SAXPAV12@@Z:PROC		; std::ios_base::_Addstd
; Function compile flags: /Ogtp
; File d:\program files (x86)\microsoft visual studio 10.0\vc\include\ios
;	COMDAT ?init@?$basic_ios@DU?$char_traits@D@std@@@std@@IAEXPAV?$basic_streambuf@DU?$char_traits@D@std@@@2@_N@Z
_TEXT	SEGMENT
__Strbuf$ = 8						; size = 4
__Isstd$ = 12						; size = 1
?init@?$basic_ios@DU?$char_traits@D@std@@@std@@IAEXPAV?$basic_streambuf@DU?$char_traits@D@std@@@2@_N@Z PROC ; std::basic_ios<char,std::char_traits<char> >::init, COMDAT
; _this$ = ecx

; 154  : 		{	// initialize with stream buffer pointer

  00000	55		 push	 ebp
  00001	8b ec		 mov	 ebp, esp
  00003	56		 push	 esi
  00004	8b f1		 mov	 esi, ecx

; 155  : 		_Init();	// initialize ios_base

  00006	e8 00 00 00 00	 call	 ?_Init@ios_base@std@@IAEXXZ ; std::ios_base::_Init

; 156  : 		_Mystrbuf = _Strbuf;

  0000b	8b 45 08	 mov	 eax, DWORD PTR __Strbuf$[ebp]

; 157  : 		_Tiestr = 0;
; 158  : 		_Fillch = widen(' ');

  0000e	6a 20		 push	 32			; 00000020H
  00010	8b ce		 mov	 ecx, esi
  00012	89 46 38	 mov	 DWORD PTR [esi+56], eax
  00015	c7 46 3c 00 00
	00 00		 mov	 DWORD PTR [esi+60], 0
  0001c	e8 00 00 00 00	 call	 ?widen@?$basic_ios@DU?$char_traits@D@std@@@std@@QBEDD@Z ; std::basic_ios<char,std::char_traits<char> >::widen

; 159  : 
; 160  : 		if (_Mystrbuf == 0)

  00021	83 7e 38 00	 cmp	 DWORD PTR [esi+56], 0
  00025	88 46 40	 mov	 BYTE PTR [esi+64], al
  00028	75 10		 jne	 SHORT $LN10@init

; 161  : 			setstate(badbit);

  0002a	8b 46 0c	 mov	 eax, DWORD PTR [esi+12]
  0002d	83 c8 04	 or	 eax, 4
  00030	6a 00		 push	 0
  00032	50		 push	 eax
  00033	8b ce		 mov	 ecx, esi
  00035	e8 00 00 00 00	 call	 ?clear@ios_base@std@@QAEXH_N@Z ; std::ios_base::clear
$LN10@init:

; 162  : 
; 163  : 		if (_Isstd)

  0003a	80 7d 0c 00	 cmp	 BYTE PTR __Isstd$[ebp], 0
  0003e	74 09		 je	 SHORT $LN1@init

; 164  : 			_Addstd(this);	// special handling for standard streams

  00040	56		 push	 esi
  00041	e8 00 00 00 00	 call	 ?_Addstd@ios_base@std@@SAXPAV12@@Z ; std::ios_base::_Addstd
  00046	83 c4 04	 add	 esp, 4
$LN1@init:
  00049	5e		 pop	 esi

; 165  : 		}

  0004a	5d		 pop	 ebp
  0004b	c2 08 00	 ret	 8
?init@?$basic_ios@DU?$char_traits@D@std@@@std@@IAEXPAV?$basic_streambuf@DU?$char_traits@D@std@@@2@_N@Z ENDP ; std::basic_ios<char,std::char_traits<char> >::init
_TEXT	ENDS
PUBLIC	?_Psave@?$_Facetptr@V?$codecvt@DDH@std@@@std@@2PBVfacet@locale@2@B ; std::_Facetptr<std::codecvt<char,char,int> >::_Psave
PUBLIC	??$use_facet@V?$codecvt@DDH@std@@@std@@YAABV?$codecvt@DDH@0@ABVlocale@0@@Z ; std::use_facet<std::codecvt<char,char,int> >
;	COMDAT ?_Psave@?$_Facetptr@V?$codecvt@DDH@std@@@std@@2PBVfacet@locale@2@B
; File d:\program files (x86)\microsoft visual studio 10.0\vc\include\xlocale
_BSS	SEGMENT
?_Psave@?$_Facetptr@V?$codecvt@DDH@std@@@std@@2PBVfacet@locale@2@B DD 01H DUP (?) ; std::_Facetptr<std::codecvt<char,char,int> >::_Psave
_BSS	ENDS
;	COMDAT xdata$x
xdata$x	SEGMENT
__unwindtable$??$use_facet@V?$codecvt@DDH@std@@@std@@YAABV?$codecvt@DDH@0@ABVlocale@0@@Z DD 0ffffffffH
	DD	FLAT:__unwindfunclet$??$use_facet@V?$codecvt@DDH@std@@@std@@YAABV?$codecvt@DDH@0@ABVlocale@0@@Z$0
__ehfuncinfo$??$use_facet@V?$codecvt@DDH@std@@@std@@YAABV?$codecvt@DDH@0@ABVlocale@0@@Z DD 019930522H
	DD	01H
	DD	FLAT:__unwindtable$??$use_facet@V?$codecvt@DDH@std@@@std@@YAABV?$codecvt@DDH@0@ABVlocale@0@@Z
	DD	2 DUP(00H)
	DD	2 DUP(00H)
	DD	00H
	DD	01H
; Function compile flags: /Ogtp
xdata$x	ENDS
;	COMDAT ??$use_facet@V?$codecvt@DDH@std@@@std@@YAABV?$codecvt@DDH@0@ABVlocale@0@@Z
_TEXT	SEGMENT
$T212519 = -36						; size = 12
__Lock$208690 = -24					; size = 4
__Lock$212527 = -20					; size = 4
__Psave$208691 = -16					; size = 4
__$EHRec$ = -12						; size = 12
__Lock$212549 = 8					; size = 4
__Loc$ = 8						; size = 4
??$use_facet@V?$codecvt@DDH@std@@@std@@YAABV?$codecvt@DDH@0@ABVlocale@0@@Z PROC ; std::use_facet<std::codecvt<char,char,int> >, COMDAT

; 504  : 	{	// get facet reference from locale

  00000	55		 push	 ebp
  00001	8b ec		 mov	 ebp, esp
  00003	6a ff		 push	 -1
  00005	68 00 00 00 00	 push	 __ehhandler$??$use_facet@V?$codecvt@DDH@std@@@std@@YAABV?$codecvt@DDH@0@ABVlocale@0@@Z
  0000a	64 a1 00 00 00
	00		 mov	 eax, DWORD PTR fs:0
  00010	50		 push	 eax
  00011	83 ec 18	 sub	 esp, 24			; 00000018H
  00014	53		 push	 ebx
  00015	56		 push	 esi
  00016	57		 push	 edi
  00017	a1 00 00 00 00	 mov	 eax, DWORD PTR ___security_cookie
  0001c	33 c5		 xor	 eax, ebp
  0001e	50		 push	 eax
  0001f	8d 45 f4	 lea	 eax, DWORD PTR __$EHRec$[ebp]
  00022	64 a3 00 00 00
	00		 mov	 DWORD PTR fs:0, eax

; 505  : 	_BEGIN_LOCK(_LOCK_LOCALE)	// the thread lock, make get atomic

  00028	6a 00		 push	 0
  0002a	8d 4d e8	 lea	 ecx, DWORD PTR __Lock$208690[ebp]
  0002d	e8 00 00 00 00	 call	 ??0_Lockit@std@@QAE@H@Z	; std::_Lockit::_Lockit

; 506  : 		const locale::facet *_Psave =
; 507  : 			_Facetptr<_Facet>::_Psave;	// static pointer to lazy facet
; 508  : 
; 509  : 		size_t _Id = _Facet::id;

  00032	83 3d 00 00 00
	00 00		 cmp	 DWORD PTR ?id@?$codecvt@DDH@std@@2V0locale@2@A, 0 ; std::codecvt<char,char,int>::id
  00039	8b 1d 00 00 00
	00		 mov	 ebx, DWORD PTR ?_Psave@?$_Facetptr@V?$codecvt@DDH@std@@@std@@2PBVfacet@locale@2@B ; std::_Facetptr<std::codecvt<char,char,int> >::_Psave
  0003f	c7 45 fc 00 00
	00 00		 mov	 DWORD PTR __$EHRec$[ebp+8], 0
  00046	89 5d f0	 mov	 DWORD PTR __Psave$208691[ebp], ebx
  00049	75 2b		 jne	 SHORT $LN11@use_facet@2
  0004b	6a 00		 push	 0
  0004d	8d 4d ec	 lea	 ecx, DWORD PTR __Lock$212527[ebp]
  00050	e8 00 00 00 00	 call	 ??0_Lockit@std@@QAE@H@Z	; std::_Lockit::_Lockit
  00055	83 3d 00 00 00
	00 00		 cmp	 DWORD PTR ?id@?$codecvt@DDH@std@@2V0locale@2@A, 0 ; std::codecvt<char,char,int>::id
  0005c	75 10		 jne	 SHORT $LN10@use_facet@2
  0005e	a1 00 00 00 00	 mov	 eax, DWORD PTR ?_Id_cnt@id@locale@std@@0HA ; std::locale::id::_Id_cnt
  00063	40		 inc	 eax
  00064	a3 00 00 00 00	 mov	 DWORD PTR ?_Id_cnt@id@locale@std@@0HA, eax ; std::locale::id::_Id_cnt
  00069	a3 00 00 00 00	 mov	 DWORD PTR ?id@?$codecvt@DDH@std@@2V0locale@2@A, eax ; std::codecvt<char,char,int>::id
$LN10@use_facet@2:
  0006e	8d 4d ec	 lea	 ecx, DWORD PTR __Lock$212527[ebp]
  00071	e8 00 00 00 00	 call	 ??1_Lockit@std@@QAE@XZ	; std::_Lockit::~_Lockit
$LN11@use_facet@2:

; 510  : 		const locale::facet *_Pf = _Loc._Getfacet(_Id);

  00076	8b 7d 08	 mov	 edi, DWORD PTR __Loc$[ebp]
  00079	8b 35 00 00 00
	00		 mov	 esi, DWORD PTR ?id@?$codecvt@DDH@std@@2V0locale@2@A ; std::codecvt<char,char,int>::id
  0007f	8b 07		 mov	 eax, DWORD PTR [edi]
  00081	3b 70 0c	 cmp	 esi, DWORD PTR [eax+12]
  00084	73 22		 jae	 SHORT $LN20@use_facet@2
  00086	8b 48 08	 mov	 ecx, DWORD PTR [eax+8]
  00089	8b 0c b1	 mov	 ecx, DWORD PTR [ecx+esi*4]
  0008c	85 c9		 test	 ecx, ecx
  0008e	75 1c		 jne	 SHORT $LN16@use_facet@2
$LN30@use_facet@2:
  00090	80 78 14 00	 cmp	 BYTE PTR [eax+20], 0
  00094	74 16		 je	 SHORT $LN16@use_facet@2
  00096	e8 00 00 00 00	 call	 ?_Getgloballocale@locale@std@@CAPAV_Locimp@12@XZ ; std::locale::_Getgloballocale
  0009b	3b 70 0c	 cmp	 esi, DWORD PTR [eax+12]
  0009e	73 12		 jae	 SHORT $LN31@use_facet@2
  000a0	8b 50 08	 mov	 edx, DWORD PTR [eax+8]
  000a3	8b 34 b2	 mov	 esi, DWORD PTR [edx+esi*4]
  000a6	eb 06		 jmp	 SHORT $LN15@use_facet@2
$LN20@use_facet@2:
  000a8	33 c9		 xor	 ecx, ecx
  000aa	eb e4		 jmp	 SHORT $LN30@use_facet@2
$LN16@use_facet@2:
  000ac	8b f1		 mov	 esi, ecx
$LN15@use_facet@2:

; 511  : 
; 512  : 		if (_Pf != 0)

  000ae	85 f6		 test	 esi, esi
  000b0	75 65		 jne	 SHORT $LN28@use_facet@2
$LN31@use_facet@2:

; 513  : 			;	// got facet from locale
; 514  : 		else if (_Psave != 0)

  000b2	85 db		 test	 ebx, ebx
  000b4	74 04		 je	 SHORT $LN4@use_facet@2

; 515  : 			_Pf = _Psave;	// lazy facet already allocated

  000b6	8b f3		 mov	 esi, ebx
  000b8	eb 5d		 jmp	 SHORT $LN28@use_facet@2
$LN4@use_facet@2:

; 516  : 		else if (_Facet::_Getcat(&_Psave, &_Loc) == (size_t)(-1))

  000ba	8d 45 f0	 lea	 eax, DWORD PTR __Psave$208691[ebp]
  000bd	57		 push	 edi
  000be	50		 push	 eax
  000bf	e8 00 00 00 00	 call	 ?_Getcat@?$codecvt@DDH@std@@SAIPAPBVfacet@locale@2@PBV42@@Z ; std::codecvt<char,char,int>::_Getcat
  000c4	83 c4 08	 add	 esp, 8
  000c7	83 f8 ff	 cmp	 eax, -1
  000ca	75 1b		 jne	 SHORT $LN2@use_facet@2

; 517  : 
; 518  :  #if _HAS_EXCEPTIONS
; 519  : 
; 520  : 			_THROW_NCEE(bad_cast, _EMPTY_ARGUMENT);	// lazy disallowed

  000cc	68 00 00 00 00	 push	 OFFSET ??_C@_08EPJLHIJG@bad?5cast?$AA@
  000d1	8d 4d dc	 lea	 ecx, DWORD PTR $T212519[ebp]
  000d4	e8 00 00 00 00	 call	 ??0bad_cast@std@@QAE@PBD@Z ; std::bad_cast::bad_cast
  000d9	68 00 00 00 00	 push	 OFFSET __TI2?AVbad_cast@std@@
  000de	8d 4d dc	 lea	 ecx, DWORD PTR $T212519[ebp]
  000e1	51		 push	 ecx
  000e2	e8 00 00 00 00	 call	 __CxxThrowException@8
$LN37@use_facet@2:
$LN2@use_facet@2:

; 521  : 
; 522  :  #else /* _HAS_EXCEPTIONS */
; 523  : 			abort();	// lazy disallowed
; 524  :  #endif /* _HAS_EXCEPTIONS */
; 525  : 
; 526  : 		else
; 527  : 			{	// queue up lazy facet for destruction
; 528  : 			_Pf = _Psave;

  000e7	8b 75 f0	 mov	 esi, DWORD PTR __Psave$208691[ebp]

; 529  : 			_Facetptr<_Facet>::_Psave = _Psave;
; 530  : 
; 531  : 			locale::facet *_Pfmod = (_Facet *)_Psave;
; 532  : 			_Pfmod->_Incref();

  000ea	6a 00		 push	 0
  000ec	8d 4d 08	 lea	 ecx, DWORD PTR __Lock$212549[ebp]
  000ef	89 35 00 00 00
	00		 mov	 DWORD PTR ?_Psave@?$_Facetptr@V?$codecvt@DDH@std@@@std@@2PBVfacet@locale@2@B, esi ; std::_Facetptr<std::codecvt<char,char,int> >::_Psave
  000f5	e8 00 00 00 00	 call	 ??0_Lockit@std@@QAE@H@Z	; std::_Lockit::_Lockit
  000fa	8b 46 04	 mov	 eax, DWORD PTR [esi+4]
  000fd	83 f8 ff	 cmp	 eax, -1
  00100	73 04		 jae	 SHORT $LN24@use_facet@2
  00102	40		 inc	 eax
  00103	89 46 04	 mov	 DWORD PTR [esi+4], eax
$LN24@use_facet@2:
  00106	8d 4d 08	 lea	 ecx, DWORD PTR __Lock$212549[ebp]
  00109	e8 00 00 00 00	 call	 ??1_Lockit@std@@QAE@XZ	; std::_Lockit::~_Lockit

; 533  : 			_Pfmod->_Register();

  0010e	56		 push	 esi
  0010f	e8 00 00 00 00	 call	 ?_Facet_Register@facet@locale@std@@CAXPAV123@@Z ; std::locale::facet::_Facet_Register
  00114	83 c4 04	 add	 esp, 4
$LN28@use_facet@2:

; 534  : 			}
; 535  : 
; 536  : 		return ((const _Facet&)(*_Pf));	// should be dynamic_cast

  00117	8d 4d e8	 lea	 ecx, DWORD PTR __Lock$208690[ebp]
  0011a	c7 45 fc ff ff
	ff ff		 mov	 DWORD PTR __$EHRec$[ebp+8], -1
  00121	e8 00 00 00 00	 call	 ??1_Lockit@std@@QAE@XZ	; std::_Lockit::~_Lockit
  00126	8b c6		 mov	 eax, esi

; 537  : 	_END_LOCK()
; 538  : 	}

  00128	8b 4d f4	 mov	 ecx, DWORD PTR __$EHRec$[ebp]
  0012b	64 89 0d 00 00
	00 00		 mov	 DWORD PTR fs:0, ecx
  00132	59		 pop	 ecx
  00133	5f		 pop	 edi
  00134	5e		 pop	 esi
  00135	5b		 pop	 ebx
  00136	8b e5		 mov	 esp, ebp
  00138	5d		 pop	 ebp
  00139	c3		 ret	 0
$LN36@use_facet@2:
_TEXT	ENDS
;	COMDAT text$x
text$x	SEGMENT
__unwindfunclet$??$use_facet@V?$codecvt@DDH@std@@@std@@YAABV?$codecvt@DDH@0@ABVlocale@0@@Z$0:
  00000	8d 4d e8	 lea	 ecx, DWORD PTR __Lock$208690[ebp]
  00003	e9 00 00 00 00	 jmp	 ??1_Lockit@std@@QAE@XZ	; std::_Lockit::~_Lockit
__ehhandler$??$use_facet@V?$codecvt@DDH@std@@@std@@YAABV?$codecvt@DDH@0@ABVlocale@0@@Z:
  00008	8b 54 24 08	 mov	 edx, DWORD PTR [esp+8]
  0000c	8d 42 0c	 lea	 eax, DWORD PTR [edx+12]
  0000f	8b 4a d8	 mov	 ecx, DWORD PTR [edx-40]
  00012	33 c8		 xor	 ecx, eax
  00014	e8 00 00 00 00	 call	 @__security_check_cookie@4
  00019	b8 00 00 00 00	 mov	 eax, OFFSET __ehfuncinfo$??$use_facet@V?$codecvt@DDH@std@@@std@@YAABV?$codecvt@DDH@0@ABVlocale@0@@Z
  0001e	e9 00 00 00 00	 jmp	 ___CxxFrameHandler3
text$x	ENDS
??$use_facet@V?$codecvt@DDH@std@@@std@@YAABV?$codecvt@DDH@0@ABVlocale@0@@Z ENDP ; std::use_facet<std::codecvt<char,char,int> >
PUBLIC	??1sentry@?$basic_ostream@DU?$char_traits@D@std@@@std@@QAE@XZ ; std::basic_ostream<char,std::char_traits<char> >::sentry::~sentry
EXTRN	?uncaught_exception@std@@YA_NXZ:PROC		; std::uncaught_exception
;	COMDAT xdata$x
; File d:\program files (x86)\microsoft visual studio 10.0\vc\include\ios
xdata$x	SEGMENT
__unwindtable$??1sentry@?$basic_ostream@DU?$char_traits@D@std@@@std@@QAE@XZ DD 0ffffffffH
	DD	FLAT:__unwindfunclet$??1sentry@?$basic_ostream@DU?$char_traits@D@std@@@std@@QAE@XZ$0
__ehfuncinfo$??1sentry@?$basic_ostream@DU?$char_traits@D@std@@@std@@QAE@XZ DD 019930522H
	DD	01H
	DD	FLAT:__unwindtable$??1sentry@?$basic_ostream@DU?$char_traits@D@std@@@std@@QAE@XZ
	DD	2 DUP(00H)
	DD	2 DUP(00H)
	DD	00H
	DD	01H
; Function compile flags: /Ogtp
; File d:\program files (x86)\microsoft visual studio 10.0\vc\include\ostream
xdata$x	ENDS
;	COMDAT ??1sentry@?$basic_ostream@DU?$char_traits@D@std@@@std@@QAE@XZ
_TEXT	SEGMENT
_this$ = -16						; size = 4
__$EHRec$ = -12						; size = 12
??1sentry@?$basic_ostream@DU?$char_traits@D@std@@@std@@QAE@XZ PROC ; std::basic_ostream<char,std::char_traits<char> >::sentry::~sentry, COMDAT
; _this$ = ecx

; 121  : 			{	// destroy the object

  00000	55		 push	 ebp
  00001	8b ec		 mov	 ebp, esp
  00003	6a ff		 push	 -1
  00005	68 00 00 00 00	 push	 __ehhandler$??1sentry@?$basic_ostream@DU?$char_traits@D@std@@@std@@QAE@XZ
  0000a	64 a1 00 00 00
	00		 mov	 eax, DWORD PTR fs:0
  00010	50		 push	 eax
  00011	51		 push	 ecx
  00012	56		 push	 esi
  00013	a1 00 00 00 00	 mov	 eax, DWORD PTR ___security_cookie
  00018	33 c5		 xor	 eax, ebp
  0001a	50		 push	 eax
  0001b	8d 45 f4	 lea	 eax, DWORD PTR __$EHRec$[ebp]
  0001e	64 a3 00 00 00
	00		 mov	 DWORD PTR fs:0, eax
  00024	8b f1		 mov	 esi, ecx
  00026	89 75 f0	 mov	 DWORD PTR _this$[ebp], esi
  00029	c7 45 fc 00 00
	00 00		 mov	 DWORD PTR __$EHRec$[ebp+8], 0

; 122  :  #if _HAS_EXCEPTIONS
; 123  : 			if (!uncaught_exception())

  00030	e8 00 00 00 00	 call	 ?uncaught_exception@std@@YA_NXZ ; std::uncaught_exception
  00035	84 c0		 test	 al, al
  00037	75 07		 jne	 SHORT $LN1@sentry@2

; 124  : 				this->_Myostr._Osfx();

  00039	8b 0e		 mov	 ecx, DWORD PTR [esi]
  0003b	e8 00 00 00 00	 call	 ?_Osfx@?$basic_ostream@DU?$char_traits@D@std@@@std@@QAEXXZ ; std::basic_ostream<char,std::char_traits<char> >::_Osfx
$LN1@sentry@2:

; 125  : 
; 126  :  #else /* _HAS_EXCEPTIONS */
; 127  : 			this->_Myostr._Osfx();
; 128  :  #endif /* _HAS_EXCEPTIONS */
; 129  : 			}

  00040	8b 06		 mov	 eax, DWORD PTR [esi]
  00042	8b 08		 mov	 ecx, DWORD PTR [eax]
  00044	8b 51 04	 mov	 edx, DWORD PTR [ecx+4]
  00047	8b 44 02 38	 mov	 eax, DWORD PTR [edx+eax+56]
  0004b	c7 45 fc ff ff
	ff ff		 mov	 DWORD PTR __$EHRec$[ebp+8], -1
  00052	85 c0		 test	 eax, eax
  00054	74 09		 je	 SHORT $LN5@sentry@2
  00056	8b 10		 mov	 edx, DWORD PTR [eax]
  00058	8b c8		 mov	 ecx, eax
  0005a	8b 42 08	 mov	 eax, DWORD PTR [edx+8]
  0005d	ff d0		 call	 eax
$LN5@sentry@2:
  0005f	8b 4d f4	 mov	 ecx, DWORD PTR __$EHRec$[ebp]
  00062	64 89 0d 00 00
	00 00		 mov	 DWORD PTR fs:0, ecx
  00069	59		 pop	 ecx
  0006a	5e		 pop	 esi
  0006b	8b e5		 mov	 esp, ebp
  0006d	5d		 pop	 ebp
  0006e	c3		 ret	 0
_TEXT	ENDS
;	COMDAT text$x
text$x	SEGMENT
__unwindfunclet$??1sentry@?$basic_ostream@DU?$char_traits@D@std@@@std@@QAE@XZ$0:
  00000	8b 4d f0	 mov	 ecx, DWORD PTR _this$[ebp]
  00003	e9 00 00 00 00	 jmp	 ??1_Sentry_base@?$basic_ostream@DU?$char_traits@D@std@@@std@@QAE@XZ ; std::basic_ostream<char,std::char_traits<char> >::_Sentry_base::~_Sentry_base
__ehhandler$??1sentry@?$basic_ostream@DU?$char_traits@D@std@@@std@@QAE@XZ:
  00008	8b 54 24 08	 mov	 edx, DWORD PTR [esp+8]
  0000c	8d 42 0c	 lea	 eax, DWORD PTR [edx+12]
  0000f	8b 4a f4	 mov	 ecx, DWORD PTR [edx-12]
  00012	33 c8		 xor	 ecx, eax
  00014	e8 00 00 00 00	 call	 @__security_check_cookie@4
  00019	b8 00 00 00 00	 mov	 eax, OFFSET __ehfuncinfo$??1sentry@?$basic_ostream@DU?$char_traits@D@std@@@std@@QAE@XZ
  0001e	e9 00 00 00 00	 jmp	 ___CxxFrameHandler3
text$x	ENDS
??1sentry@?$basic_ostream@DU?$char_traits@D@std@@@std@@QAE@XZ ENDP ; std::basic_ostream<char,std::char_traits<char> >::sentry::~sentry
PUBLIC	__$ArrayPad$
EXTRN	_memcpy_s:PROC
;	COMDAT xdata$x
; File d:\program files (x86)\microsoft visual studio 10.0\vc\include\iosfwd
xdata$x	SEGMENT
__unwindtable$?uflow@?$basic_filebuf@DU?$char_traits@D@std@@@std@@MAEHXZ DD 0ffffffffH
	DD	FLAT:__unwindfunclet$?uflow@?$basic_filebuf@DU?$char_traits@D@std@@@std@@MAEHXZ$0
__ehfuncinfo$?uflow@?$basic_filebuf@DU?$char_traits@D@std@@@std@@MAEHXZ DD 019930522H
	DD	01H
	DD	FLAT:__unwindtable$?uflow@?$basic_filebuf@DU?$char_traits@D@std@@@std@@MAEHXZ
	DD	2 DUP(00H)
	DD	2 DUP(00H)
	DD	00H
	DD	01H
; Function compile flags: /Ogtp
; File d:\program files (x86)\microsoft visual studio 10.0\vc\include\fstream
xdata$x	ENDS
;	COMDAT ?uflow@?$basic_filebuf@DU?$char_traits@D@std@@@std@@MAEHXZ
_TEXT	SEGMENT
__Dest$208388 = -56					; size = 4
__Src$208389 = -52					; size = 4
__Ch$208387 = -45					; size = 1
__Str$208383 = -44					; size = 28
__$ArrayPad$ = -16					; size = 4
__$EHRec$ = -12						; size = 12
?uflow@?$basic_filebuf@DU?$char_traits@D@std@@@std@@MAEHXZ PROC ; std::basic_filebuf<char,std::char_traits<char> >::uflow, COMDAT
; _this$ = ecx

; 423  : 		{	// get an element from stream, point past it

  00000	55		 push	 ebp
  00001	8b ec		 mov	 ebp, esp
  00003	6a ff		 push	 -1
  00005	68 00 00 00 00	 push	 __ehhandler$?uflow@?$basic_filebuf@DU?$char_traits@D@std@@@std@@MAEHXZ
  0000a	64 a1 00 00 00
	00		 mov	 eax, DWORD PTR fs:0
  00010	50		 push	 eax
  00011	83 ec 2c	 sub	 esp, 44			; 0000002cH
  00014	a1 00 00 00 00	 mov	 eax, DWORD PTR ___security_cookie
  00019	33 c5		 xor	 eax, ebp
  0001b	89 45 f0	 mov	 DWORD PTR __$ArrayPad$[ebp], eax
  0001e	53		 push	 ebx
  0001f	56		 push	 esi
  00020	57		 push	 edi
  00021	50		 push	 eax
  00022	8d 45 f4	 lea	 eax, DWORD PTR __$EHRec$[ebp]
  00025	64 a3 00 00 00
	00		 mov	 DWORD PTR fs:0, eax
  0002b	8b f1		 mov	 esi, ecx

; 424  : 		if (_Mysb::gptr() != 0
; 425  : 			&& _Mysb::gptr() < _Mysb::egptr())

  0002d	8b 46 20	 mov	 eax, DWORD PTR [esi+32]
  00030	8b 00		 mov	 eax, DWORD PTR [eax]
  00032	33 d2		 xor	 edx, edx
  00034	3b c2		 cmp	 eax, edx
  00036	74 27		 je	 SHORT $LN18@uflow@2
  00038	8b 4e 20	 mov	 ecx, DWORD PTR [esi+32]
  0003b	8b 01		 mov	 eax, DWORD PTR [ecx]
  0003d	8b 4e 30	 mov	 ecx, DWORD PTR [esi+48]
  00040	8b 09		 mov	 ecx, DWORD PTR [ecx]
  00042	03 c8		 add	 ecx, eax
  00044	3b c1		 cmp	 eax, ecx
  00046	73 17		 jae	 SHORT $LN18@uflow@2

; 426  : 			return (_Traits::to_int_type(
; 427  : 				*_Mysb::_Gninc()));	// return buffered

  00048	8b 46 30	 mov	 eax, DWORD PTR [esi+48]
  0004b	ff 08		 dec	 DWORD PTR [eax]
  0004d	8b 76 20	 mov	 esi, DWORD PTR [esi+32]
  00050	8b 06		 mov	 eax, DWORD PTR [esi]
  00052	8d 50 01	 lea	 edx, DWORD PTR [eax+1]
  00055	89 16		 mov	 DWORD PTR [esi], edx
  00057	0f b6 00	 movzx	 eax, BYTE PTR [eax]
  0005a	e9 33 01 00 00	 jmp	 $LN14@uflow@2
$LN18@uflow@2:

; 428  : 		else if (_Myfile == 0)

  0005f	39 56 54	 cmp	 DWORD PTR [esi+84], edx

; 429  : 			return (_Traits::eof());	// no open C stream, fail

  00062	0f 84 27 01 00
	00		 je	 $LN198@uflow@2

; 430  : 		_Reset_back();	// revert from _Mychar buffer

  00068	8b 4e 10	 mov	 ecx, DWORD PTR [esi+16]
  0006b	8d 7e 48	 lea	 edi, DWORD PTR [esi+72]
  0006e	39 39		 cmp	 DWORD PTR [ecx], edi
  00070	75 14		 jne	 SHORT $LN41@uflow@2
  00072	8b 46 40	 mov	 eax, DWORD PTR [esi+64]
  00075	8b 7e 3c	 mov	 edi, DWORD PTR [esi+60]
  00078	89 39		 mov	 DWORD PTR [ecx], edi
  0007a	8b 4e 20	 mov	 ecx, DWORD PTR [esi+32]
  0007d	89 01		 mov	 DWORD PTR [ecx], eax
  0007f	8b 4e 30	 mov	 ecx, DWORD PTR [esi+48]
  00082	2b c0		 sub	 eax, eax
  00084	89 01		 mov	 DWORD PTR [ecx], eax
$LN41@uflow@2:

; 431  : 		if (_Pcvt == 0)

  00086	39 56 44	 cmp	 DWORD PTR [esi+68], edx
  00089	75 1d		 jne	 SHORT $LN15@uflow@2

; 432  : 			{	// no codecvt facet, just get it
; 433  : 			_Elem _Ch = 0;
; 434  : 			return (_Fgetc(_Ch, _Myfile) ? _Traits::to_int_type(_Ch)
; 435  : 				: _Traits::eof());

  0008b	8b 76 54	 mov	 esi, DWORD PTR [esi+84]
  0008e	56		 push	 esi
  0008f	e8 00 00 00 00	 call	 _fgetc
  00094	83 c4 04	 add	 esp, 4
  00097	83 f8 ff	 cmp	 eax, -1
  0009a	0f 84 ef 00 00
	00		 je	 $LN198@uflow@2
  000a0	0f b6 c0	 movzx	 eax, al
  000a3	e9 ea 00 00 00	 jmp	 $LN14@uflow@2
$LN15@uflow@2:

; 436  : 			}
; 437  : 		else
; 438  : 			{	// build string until codecvt succeeds
; 439  : 			string _Str;

  000a8	c7 45 e8 0f 00
	00 00		 mov	 DWORD PTR __Str$208383[ebp+20], 15 ; 0000000fH
  000af	89 55 e4	 mov	 DWORD PTR __Str$208383[ebp+16], edx
  000b2	88 55 d4	 mov	 BYTE PTR __Str$208383[ebp], dl
  000b5	89 55 fc	 mov	 DWORD PTR __$EHRec$[ebp+8], edx

; 440  : 
; 441  : 			for (; ; )
; 442  : 				{	// get using codecvt facet
; 443  : 				_Elem _Ch, *_Dest;
; 444  : 				const char *_Src;
; 445  : 				int _Nleft;
; 446  : 				int _Meta = fgetc(_Myfile);

  000b8	8b 56 54	 mov	 edx, DWORD PTR [esi+84]
  000bb	52		 push	 edx
  000bc	e8 00 00 00 00	 call	 _fgetc
  000c1	83 c4 04	 add	 esp, 4

; 447  : 
; 448  : 				if (_Meta == EOF)

  000c4	83 f8 ff	 cmp	 eax, -1
  000c7	0f 84 ba 00 00
	00		 je	 $LN1@uflow@2
$LN13@uflow@2:

; 449  : 					return (_Traits::eof());	// partial char?
; 450  : 
; 451  : 				_Str.append(1, (char)_Meta);	// append byte and convert

  000cd	50		 push	 eax
  000ce	6a 01		 push	 1
  000d0	8d 4d d4	 lea	 ecx, DWORD PTR __Str$208383[ebp]
  000d3	e8 00 00 00 00	 call	 ?append@?$basic_string@DU?$char_traits@D@std@@V?$allocator@D@2@@std@@QAEAAV12@ID@Z ; std::basic_string<char,std::char_traits<char>,std::allocator<char> >::append

; 452  : 				switch (_Pcvt->in(_State,
; 453  : 					&*_Str.begin(), &*_Str.begin() + _Str.size(), _Src,
; 454  : 					&_Ch, &_Ch + 1, _Dest))

  000d8	8b 4d e8	 mov	 ecx, DWORD PTR __Str$208383[ebp+20]
  000db	8b 45 d4	 mov	 eax, DWORD PTR __Str$208383[ebp]
  000de	8b d0		 mov	 edx, eax
  000e0	83 f9 10	 cmp	 ecx, 16			; 00000010H
  000e3	73 05		 jae	 SHORT $LN105@uflow@2
  000e5	8d 55 d4	 lea	 edx, DWORD PTR __Str$208383[ebp]
  000e8	8b c2		 mov	 eax, edx
$LN105@uflow@2:
  000ea	03 55 e4	 add	 edx, DWORD PTR __Str$208383[ebp+16]
  000ed	8b 4e 44	 mov	 ecx, DWORD PTR [esi+68]
  000f0	8b 39		 mov	 edi, DWORD PTR [ecx]
  000f2	8d 5d c8	 lea	 ebx, DWORD PTR __Dest$208388[ebp]
  000f5	53		 push	 ebx
  000f6	8d 5d d4	 lea	 ebx, DWORD PTR __Ch$208387[ebp+1]
  000f9	53		 push	 ebx
  000fa	8d 5d d3	 lea	 ebx, DWORD PTR __Ch$208387[ebp]
  000fd	53		 push	 ebx
  000fe	8d 5d cc	 lea	 ebx, DWORD PTR __Src$208389[ebp]
  00101	53		 push	 ebx
  00102	52		 push	 edx
  00103	50		 push	 eax
  00104	8d 46 4c	 lea	 eax, DWORD PTR [esi+76]
  00107	50		 push	 eax
  00108	8b 47 10	 mov	 eax, DWORD PTR [edi+16]
  0010b	ff d0		 call	 eax
  0010d	85 c0		 test	 eax, eax
  0010f	78 76		 js	 SHORT $LN1@uflow@2
  00111	83 f8 01	 cmp	 eax, 1
  00114	7e 38		 jle	 SHORT $LN8@uflow@2
  00116	83 f8 03	 cmp	 eax, 3
  00119	75 6c		 jne	 SHORT $LN1@uflow@2

; 468  : 					break;
; 469  : 
; 470  : 				case codecvt_base::noconv:
; 471  : 					if (_Str.size() < sizeof (_Elem))

  0011b	83 7d e4 01	 cmp	 DWORD PTR __Str$208383[ebp+16], 1
  0011f	72 51		 jb	 SHORT $LN4@uflow@2

; 472  : 						break;	// no conversion, but need more chars
; 473  : 
; 474  : 					_CRT_SECURE_MEMCPY(&_Ch, sizeof (_Elem), &*_Str.begin(),

  00121	83 7d e8 10	 cmp	 DWORD PTR __Str$208383[ebp+20], 16 ; 00000010H
  00125	8b 45 d4	 mov	 eax, DWORD PTR __Str$208383[ebp]
  00128	73 03		 jae	 SHORT $LN170@uflow@2
  0012a	8d 45 d4	 lea	 eax, DWORD PTR __Str$208383[ebp]
$LN170@uflow@2:
  0012d	6a 01		 push	 1
  0012f	50		 push	 eax
  00130	8d 4d d3	 lea	 ecx, DWORD PTR __Ch$208387[ebp]
  00133	6a 01		 push	 1
  00135	51		 push	 ecx
  00136	e8 00 00 00 00	 call	 _memcpy_s

; 475  : 						sizeof (_Elem));	// copy raw bytes to element
; 476  : 
; 477  : 					return (_Traits::to_int_type(_Ch));	// return result

  0013b	0f b6 75 d3	 movzx	 esi, BYTE PTR __Ch$208387[ebp]
  0013f	83 c4 10	 add	 esp, 16			; 00000010H
  00142	8d 4d d4	 lea	 ecx, DWORD PTR __Str$208383[ebp]
  00145	e8 00 00 00 00	 call	 ??1?$basic_string@DU?$char_traits@D@std@@V?$allocator@D@2@@std@@QAE@XZ ; std::basic_string<char,std::char_traits<char>,std::allocator<char> >::~basic_string<char,std::char_traits<char>,std::allocator<char> >
  0014a	8b c6		 mov	 eax, esi
  0014c	eb 44		 jmp	 SHORT $LN14@uflow@2
$LN8@uflow@2:

; 455  : 					{	// test result of converting one element
; 456  : 				case codecvt_base::partial:
; 457  : 				case codecvt_base::ok:
; 458  : 					if (_Dest != &_Ch)

  0014e	8d 4d d3	 lea	 ecx, DWORD PTR __Ch$208387[ebp]
  00151	39 4d c8	 cmp	 DWORD PTR __Dest$208388[ebp], ecx
  00154	75 58		 jne	 SHORT $LN192@uflow@2

; 464  : 						}
; 465  : 					else
; 466  : 						_Str.erase((size_t)0,	// partial, discard used input
; 467  : 							(size_t)(_Src - &*_Str.begin()));

  00156	83 7d e8 10	 cmp	 DWORD PTR __Str$208383[ebp+20], 16 ; 00000010H
  0015a	8b 45 d4	 mov	 eax, DWORD PTR __Str$208383[ebp]
  0015d	73 03		 jae	 SHORT $LN149@uflow@2
  0015f	8d 45 d4	 lea	 eax, DWORD PTR __Str$208383[ebp]
$LN149@uflow@2:
  00162	8b 55 cc	 mov	 edx, DWORD PTR __Src$208389[ebp]
  00165	2b d0		 sub	 edx, eax
  00167	52		 push	 edx
  00168	6a 00		 push	 0
  0016a	8d 4d d4	 lea	 ecx, DWORD PTR __Str$208383[ebp]
  0016d	e8 00 00 00 00	 call	 ?erase@?$basic_string@DU?$char_traits@D@std@@V?$allocator@D@2@@std@@QAEAAV12@II@Z ; std::basic_string<char,std::char_traits<char>,std::allocator<char> >::erase
$LN4@uflow@2:

; 440  : 
; 441  : 			for (; ; )
; 442  : 				{	// get using codecvt facet
; 443  : 				_Elem _Ch, *_Dest;
; 444  : 				const char *_Src;
; 445  : 				int _Nleft;
; 446  : 				int _Meta = fgetc(_Myfile);

  00172	8b 46 54	 mov	 eax, DWORD PTR [esi+84]
  00175	50		 push	 eax
  00176	e8 00 00 00 00	 call	 _fgetc
  0017b	83 c4 04	 add	 esp, 4

; 447  : 
; 448  : 				if (_Meta == EOF)

  0017e	83 f8 ff	 cmp	 eax, -1
  00181	0f 85 46 ff ff
	ff		 jne	 $LN13@uflow@2
$LN1@uflow@2:

; 478  : 
; 479  : 				default:
; 480  : 					return (_Traits::eof());	// conversion failed

  00187	8d 4d d4	 lea	 ecx, DWORD PTR __Str$208383[ebp]
  0018a	e8 00 00 00 00	 call	 ??1?$basic_string@DU?$char_traits@D@std@@V?$allocator@D@2@@std@@QAE@XZ ; std::basic_string<char,std::char_traits<char>,std::allocator<char> >::~basic_string<char,std::char_traits<char>,std::allocator<char> >
$LN198@uflow@2:
  0018f	83 c8 ff	 or	 eax, -1
$LN14@uflow@2:

; 481  : 					}
; 482  : 				}
; 483  : 			}
; 484  : 		}

  00192	8b 4d f4	 mov	 ecx, DWORD PTR __$EHRec$[ebp]
  00195	64 89 0d 00 00
	00 00		 mov	 DWORD PTR fs:0, ecx
  0019c	59		 pop	 ecx
  0019d	5f		 pop	 edi
  0019e	5e		 pop	 esi
  0019f	5b		 pop	 ebx
  001a0	8b 4d f0	 mov	 ecx, DWORD PTR __$ArrayPad$[ebp]
  001a3	33 cd		 xor	 ecx, ebp
  001a5	e8 00 00 00 00	 call	 @__security_check_cookie@4
  001aa	8b e5		 mov	 esp, ebp
  001ac	5d		 pop	 ebp
  001ad	c3		 ret	 0
$LN192@uflow@2:

; 459  : 						{	// got an element, put back excess and deliver it
; 460  : 						_Nleft = (int)(&*_Str.begin() + _Str.size() - _Src);

  001ae	83 7d e8 10	 cmp	 DWORD PTR __Str$208383[ebp+20], 16 ; 00000010H
  001b2	8b 7d d4	 mov	 edi, DWORD PTR __Str$208383[ebp]
  001b5	73 03		 jae	 SHORT $LN126@uflow@2
  001b7	8d 7d d4	 lea	 edi, DWORD PTR __Str$208383[ebp]
$LN126@uflow@2:
  001ba	2b 7d cc	 sub	 edi, DWORD PTR __Src$208389[ebp]
  001bd	03 7d e4	 add	 edi, DWORD PTR __Str$208383[ebp+16]

; 461  : 						for (; 0 < _Nleft; )

  001c0	85 ff		 test	 edi, edi
  001c2	7e 1a		 jle	 SHORT $LN5@uflow@2
$LN6@uflow@2:

; 462  : 							ungetc(_Src[--_Nleft], _Myfile);

  001c4	8b 45 cc	 mov	 eax, DWORD PTR __Src$208389[ebp]
  001c7	8b 56 54	 mov	 edx, DWORD PTR [esi+84]
  001ca	0f be 4c 07 ff	 movsx	 ecx, BYTE PTR [edi+eax-1]
  001cf	4f		 dec	 edi
  001d0	52		 push	 edx
  001d1	51		 push	 ecx
  001d2	e8 00 00 00 00	 call	 _ungetc
  001d7	83 c4 08	 add	 esp, 8
  001da	85 ff		 test	 edi, edi
  001dc	7f e6		 jg	 SHORT $LN6@uflow@2
$LN5@uflow@2:

; 463  : 						return (_Traits::to_int_type(_Ch));

  001de	0f b6 75 d3	 movzx	 esi, BYTE PTR __Ch$208387[ebp]
  001e2	8d 4d d4	 lea	 ecx, DWORD PTR __Str$208383[ebp]
  001e5	e8 00 00 00 00	 call	 ??1?$basic_string@DU?$char_traits@D@std@@V?$allocator@D@2@@std@@QAE@XZ ; std::basic_string<char,std::char_traits<char>,std::allocator<char> >::~basic_string<char,std::char_traits<char>,std::allocator<char> >
  001ea	8b c6		 mov	 eax, esi
  001ec	eb a4		 jmp	 SHORT $LN14@uflow@2
_TEXT	ENDS
;	COMDAT text$x
text$x	SEGMENT
__unwindfunclet$?uflow@?$basic_filebuf@DU?$char_traits@D@std@@@std@@MAEHXZ$0:
  00000	8d 4d d4	 lea	 ecx, DWORD PTR __Str$208383[ebp]
  00003	e9 00 00 00 00	 jmp	 ??1?$basic_string@DU?$char_traits@D@std@@V?$allocator@D@2@@std@@QAE@XZ ; std::basic_string<char,std::char_traits<char>,std::allocator<char> >::~basic_string<char,std::char_traits<char>,std::allocator<char> >
__ehhandler$?uflow@?$basic_filebuf@DU?$char_traits@D@std@@@std@@MAEHXZ:
  00008	8b 54 24 08	 mov	 edx, DWORD PTR [esp+8]
  0000c	8d 42 0c	 lea	 eax, DWORD PTR [edx+12]
  0000f	8b 4a c4	 mov	 ecx, DWORD PTR [edx-60]
  00012	33 c8		 xor	 ecx, eax
  00014	e8 00 00 00 00	 call	 @__security_check_cookie@4
  00019	8b 4a fc	 mov	 ecx, DWORD PTR [edx-4]
  0001c	33 c8		 xor	 ecx, eax
  0001e	e8 00 00 00 00	 call	 @__security_check_cookie@4
  00023	b8 00 00 00 00	 mov	 eax, OFFSET __ehfuncinfo$?uflow@?$basic_filebuf@DU?$char_traits@D@std@@@std@@MAEHXZ
  00028	e9 00 00 00 00	 jmp	 ___CxxFrameHandler3
text$x	ENDS
?uflow@?$basic_filebuf@DU?$char_traits@D@std@@@std@@MAEHXZ ENDP ; std::basic_filebuf<char,std::char_traits<char> >::uflow
; Function compile flags: /Ogtp
;	COMDAT ?imbue@?$basic_filebuf@DU?$char_traits@D@std@@@std@@MAEXABVlocale@2@@Z
_TEXT	SEGMENT
__Loc$ = 8						; size = 4
?imbue@?$basic_filebuf@DU?$char_traits@D@std@@@std@@MAEXABVlocale@2@@Z PROC ; std::basic_filebuf<char,std::char_traits<char> >::imbue, COMDAT
; _this$ = ecx

; 550  : 		{	// set locale to argument (capture nontrivial codecvt facet)

  00000	55		 push	 ebp
  00001	8b ec		 mov	 ebp, esp

; 551  : 		_Initcvt(&_USE(_Loc, _Cvt));

  00003	8b 45 08	 mov	 eax, DWORD PTR __Loc$[ebp]
  00006	56		 push	 esi
  00007	57		 push	 edi
  00008	50		 push	 eax
  00009	8b f9		 mov	 edi, ecx
  0000b	e8 00 00 00 00	 call	 ??$use_facet@V?$codecvt@DDH@std@@@std@@YAABV?$codecvt@DDH@0@ABVlocale@0@@Z ; std::use_facet<std::codecvt<char,char,int> >
  00010	8b f0		 mov	 esi, eax
  00012	8b 16		 mov	 edx, DWORD PTR [esi]
  00014	8b 42 04	 mov	 eax, DWORD PTR [edx+4]
  00017	83 c4 04	 add	 esp, 4
  0001a	8b ce		 mov	 ecx, esi
  0001c	ff d0		 call	 eax
  0001e	84 c0		 test	 al, al
  00020	74 0d		 je	 SHORT $LN4@imbue
  00022	c7 47 44 00 00
	00 00		 mov	 DWORD PTR [edi+68], 0
  00029	5f		 pop	 edi
  0002a	5e		 pop	 esi

; 552  : 		}

  0002b	5d		 pop	 ebp
  0002c	c2 04 00	 ret	 4

; 551  : 		_Initcvt(&_USE(_Loc, _Cvt));

$LN4@imbue:
  0002f	8b cf		 mov	 ecx, edi
  00031	89 77 44	 mov	 DWORD PTR [edi+68], esi
  00034	e8 00 00 00 00	 call	 ?_Init@?$basic_streambuf@DU?$char_traits@D@std@@@std@@IAEXXZ ; std::basic_streambuf<char,std::char_traits<char> >::_Init
  00039	5f		 pop	 edi
  0003a	5e		 pop	 esi

; 552  : 		}

  0003b	5d		 pop	 ebp
  0003c	c2 04 00	 ret	 4
?imbue@?$basic_filebuf@DU?$char_traits@D@std@@@std@@MAEXABVlocale@2@@Z ENDP ; std::basic_filebuf<char,std::char_traits<char> >::imbue
_TEXT	ENDS
PUBLIC	??0?$basic_string@DU?$char_traits@D@std@@V?$allocator@D@2@@std@@QAE@ID@Z ; std::basic_string<char,std::char_traits<char>,std::allocator<char> >::basic_string<char,std::char_traits<char>,std::allocator<char> >
; Function compile flags: /Ogtp
; File d:\program files (x86)\microsoft visual studio 10.0\vc\include\xstring
;	COMDAT ??0?$basic_string@DU?$char_traits@D@std@@V?$allocator@D@2@@std@@QAE@ID@Z
_TEXT	SEGMENT
__Count$ = 8						; size = 4
__Ch$ = 12						; size = 1
??0?$basic_string@DU?$char_traits@D@std@@V?$allocator@D@2@@std@@QAE@ID@Z PROC ; std::basic_string<char,std::char_traits<char>,std::allocator<char> >::basic_string<char,std::char_traits<char>,std::allocator<char> >, COMDAT
; _this$ = ecx

; 606  : 		{	// construct from _Count * _Ch

  00000	55		 push	 ebp
  00001	8b ec		 mov	 ebp, esp

; 607  : 		_Tidy();
; 608  : 		assign(_Count, _Ch);

  00003	8b 45 0c	 mov	 eax, DWORD PTR __Ch$[ebp]
  00006	56		 push	 esi
  00007	8b f1		 mov	 esi, ecx
  00009	8b 4d 08	 mov	 ecx, DWORD PTR __Count$[ebp]
  0000c	50		 push	 eax
  0000d	51		 push	 ecx
  0000e	c7 46 14 0f 00
	00 00		 mov	 DWORD PTR [esi+20], 15	; 0000000fH
  00015	c7 46 10 00 00
	00 00		 mov	 DWORD PTR [esi+16], 0
  0001c	8b ce		 mov	 ecx, esi
  0001e	c6 06 00	 mov	 BYTE PTR [esi], 0
  00021	e8 00 00 00 00	 call	 ?assign@?$basic_string@DU?$char_traits@D@std@@V?$allocator@D@2@@std@@QAEAAV12@ID@Z ; std::basic_string<char,std::char_traits<char>,std::allocator<char> >::assign

; 609  : 		}

  00026	8b c6		 mov	 eax, esi
  00028	5e		 pop	 esi
  00029	5d		 pop	 ebp
  0002a	c2 08 00	 ret	 8
??0?$basic_string@DU?$char_traits@D@std@@V?$allocator@D@2@@std@@QAE@ID@Z ENDP ; std::basic_string<char,std::char_traits<char>,std::allocator<char> >::basic_string<char,std::char_traits<char>,std::allocator<char> >
_TEXT	ENDS
PUBLIC	??_8?$basic_ostream@DU?$char_traits@D@std@@@std@@7B@ ; std::basic_ostream<char,std::char_traits<char> >::`vbtable'
PUBLIC	??0?$basic_ostream@DU?$char_traits@D@std@@@std@@QAE@PAV?$basic_streambuf@DU?$char_traits@D@std@@@1@_N@Z ; std::basic_ostream<char,std::char_traits<char> >::basic_ostream<char,std::char_traits<char> >
;	COMDAT ??_8?$basic_ostream@DU?$char_traits@D@std@@@std@@7B@
; File d:\program files (x86)\microsoft visual studio 10.0\vc\include\ios
CONST	SEGMENT
??_8?$basic_ostream@DU?$char_traits@D@std@@@std@@7B@ DD 00H ; std::basic_ostream<char,std::char_traits<char> >::`vbtable'
	DD	08H
CONST	ENDS
;	COMDAT xdata$x
xdata$x	SEGMENT
__unwindtable$??0?$basic_ostream@DU?$char_traits@D@std@@@std@@QAE@PAV?$basic_streambuf@DU?$char_traits@D@std@@@1@_N@Z DD 0ffffffffH
	DD	FLAT:__unwindfunclet$??0?$basic_ostream@DU?$char_traits@D@std@@@std@@QAE@PAV?$basic_streambuf@DU?$char_traits@D@std@@@1@_N@Z$0
__ehfuncinfo$??0?$basic_ostream@DU?$char_traits@D@std@@@std@@QAE@PAV?$basic_streambuf@DU?$char_traits@D@std@@@1@_N@Z DD 019930522H
	DD	01H
	DD	FLAT:__unwindtable$??0?$basic_ostream@DU?$char_traits@D@std@@@std@@QAE@PAV?$basic_streambuf@DU?$char_traits@D@std@@@1@_N@Z
	DD	2 DUP(00H)
	DD	2 DUP(00H)
	DD	00H
	DD	01H
; Function compile flags: /Ogtp
; File d:\program files (x86)\microsoft visual studio 10.0\vc\include\ostream
xdata$x	ENDS
;	COMDAT ??0?$basic_ostream@DU?$char_traits@D@std@@@std@@QAE@PAV?$basic_streambuf@DU?$char_traits@D@std@@@1@_N@Z
_TEXT	SEGMENT
_this$ = -20						; size = 4
$T213133 = -16						; size = 4
__$EHRec$ = -12						; size = 12
__Strbuf$ = 8						; size = 4
__Isstd$ = 12						; size = 1
_$initVBases$ = 16					; size = 4
??0?$basic_ostream@DU?$char_traits@D@std@@@std@@QAE@PAV?$basic_streambuf@DU?$char_traits@D@std@@@1@_N@Z PROC ; std::basic_ostream<char,std::char_traits<char> >::basic_ostream<char,std::char_traits<char> >, COMDAT
; _this$ = ecx

; 46   : 	explicit __CLR_OR_THIS_CALL basic_ostream(

  00000	55		 push	 ebp
  00001	8b ec		 mov	 ebp, esp
  00003	6a ff		 push	 -1
  00005	68 00 00 00 00	 push	 __ehhandler$??0?$basic_ostream@DU?$char_traits@D@std@@@std@@QAE@PAV?$basic_streambuf@DU?$char_traits@D@std@@@1@_N@Z
  0000a	64 a1 00 00 00
	00		 mov	 eax, DWORD PTR fs:0
  00010	50		 push	 eax
  00011	83 ec 08	 sub	 esp, 8
  00014	56		 push	 esi
  00015	57		 push	 edi
  00016	a1 00 00 00 00	 mov	 eax, DWORD PTR ___security_cookie
  0001b	33 c5		 xor	 eax, ebp
  0001d	50		 push	 eax
  0001e	8d 45 f4	 lea	 eax, DWORD PTR __$EHRec$[ebp]
  00021	64 a3 00 00 00
	00		 mov	 DWORD PTR fs:0, eax
  00027	8b f9		 mov	 edi, ecx
  00029	89 7d ec	 mov	 DWORD PTR _this$[ebp], edi
  0002c	83 7d 10 00	 cmp	 DWORD PTR _$initVBases$[ebp], 0
  00030	c7 45 f0 00 00
	00 00		 mov	 DWORD PTR $T213133[ebp], 0
  00037	74 1b		 je	 SHORT $LN1@basic_ostr
  00039	c7 07 00 00 00
	00		 mov	 DWORD PTR [edi], OFFSET ??_8?$basic_ostream@DU?$char_traits@D@std@@@std@@7B@
  0003f	c7 47 08 00 00
	00 00		 mov	 DWORD PTR [edi+8], OFFSET ??_7?$basic_ios@DU?$char_traits@D@std@@@std@@6B@
  00046	c7 45 fc 00 00
	00 00		 mov	 DWORD PTR __$EHRec$[ebp+8], 0
  0004d	c7 45 f0 01 00
	00 00		 mov	 DWORD PTR $T213133[ebp], 1
$LN1@basic_ostr:
  00054	8b 07		 mov	 eax, DWORD PTR [edi]
  00056	8b 48 04	 mov	 ecx, DWORD PTR [eax+4]
  00059	c7 04 0f 00 00
	00 00		 mov	 DWORD PTR [edi+ecx], OFFSET ??_7?$basic_ostream@DU?$char_traits@D@std@@@std@@6B@

; 47   : 		basic_streambuf<_Elem, _Traits> *_Strbuf,
; 48   : 
; 49   : 		bool _Isstd = false)
; 50   : 		{	// construct from a stream buffer pointer
; 51   : 		_Myios::init(_Strbuf, _Isstd);

  00060	8b 17		 mov	 edx, DWORD PTR [edi]
  00062	8b 72 04	 mov	 esi, DWORD PTR [edx+4]
  00065	03 f7		 add	 esi, edi
  00067	8b ce		 mov	 ecx, esi
  00069	e8 00 00 00 00	 call	 ?_Init@ios_base@std@@IAEXXZ ; std::ios_base::_Init
  0006e	8b 45 08	 mov	 eax, DWORD PTR __Strbuf$[ebp]
  00071	6a 20		 push	 32			; 00000020H
  00073	8b ce		 mov	 ecx, esi
  00075	89 46 38	 mov	 DWORD PTR [esi+56], eax
  00078	c7 46 3c 00 00
	00 00		 mov	 DWORD PTR [esi+60], 0
  0007f	e8 00 00 00 00	 call	 ?widen@?$basic_ios@DU?$char_traits@D@std@@@std@@QBEDD@Z ; std::basic_ios<char,std::char_traits<char> >::widen
  00084	83 7e 38 00	 cmp	 DWORD PTR [esi+56], 0
  00088	88 46 40	 mov	 BYTE PTR [esi+64], al
  0008b	75 10		 jne	 SHORT $LN19@basic_ostr
  0008d	8b 46 0c	 mov	 eax, DWORD PTR [esi+12]
  00090	83 c8 04	 or	 eax, 4
  00093	6a 00		 push	 0
  00095	50		 push	 eax
  00096	8b ce		 mov	 ecx, esi
  00098	e8 00 00 00 00	 call	 ?clear@ios_base@std@@QAEXH_N@Z ; std::ios_base::clear
$LN19@basic_ostr:
  0009d	80 7d 0c 00	 cmp	 BYTE PTR __Isstd$[ebp], 0
  000a1	74 09		 je	 SHORT $LN23@basic_ostr
  000a3	56		 push	 esi
  000a4	e8 00 00 00 00	 call	 ?_Addstd@ios_base@std@@SAXPAV12@@Z ; std::ios_base::_Addstd
  000a9	83 c4 04	 add	 esp, 4
$LN23@basic_ostr:

; 52   : 		}

  000ac	8b c7		 mov	 eax, edi
  000ae	8b 4d f4	 mov	 ecx, DWORD PTR __$EHRec$[ebp]
  000b1	64 89 0d 00 00
	00 00		 mov	 DWORD PTR fs:0, ecx
  000b8	59		 pop	 ecx
  000b9	5f		 pop	 edi
  000ba	5e		 pop	 esi
  000bb	8b e5		 mov	 esp, ebp
  000bd	5d		 pop	 ebp
  000be	c2 0c 00	 ret	 12			; 0000000cH
_TEXT	ENDS
;	COMDAT text$x
text$x	SEGMENT
__unwindfunclet$??0?$basic_ostream@DU?$char_traits@D@std@@@std@@QAE@PAV?$basic_streambuf@DU?$char_traits@D@std@@@1@_N@Z$0:
  00000	8b 45 f0	 mov	 eax, DWORD PTR $T213133[ebp]
  00003	83 e0 01	 and	 eax, 1
  00006	0f 84 0f 00 00
	00		 je	 $LN5@basic_ostr
  0000c	83 65 f0 fe	 and	 DWORD PTR $T213133[ebp], -2 ; fffffffeH
  00010	8b 4d ec	 mov	 ecx, DWORD PTR _this$[ebp]
  00013	83 c1 08	 add	 ecx, 8
  00016	e9 00 00 00 00	 jmp	 ??1?$basic_ios@DU?$char_traits@D@std@@@std@@UAE@XZ ; std::basic_ios<char,std::char_traits<char> >::~basic_ios<char,std::char_traits<char> >
$LN5@basic_ostr:
  0001b	c3		 ret	 0
__ehhandler$??0?$basic_ostream@DU?$char_traits@D@std@@@std@@QAE@PAV?$basic_streambuf@DU?$char_traits@D@std@@@1@_N@Z:
  0001c	8b 54 24 08	 mov	 edx, DWORD PTR [esp+8]
  00020	8d 42 0c	 lea	 eax, DWORD PTR [edx+12]
  00023	8b 4a ec	 mov	 ecx, DWORD PTR [edx-20]
  00026	33 c8		 xor	 ecx, eax
  00028	e8 00 00 00 00	 call	 @__security_check_cookie@4
  0002d	b8 00 00 00 00	 mov	 eax, OFFSET __ehfuncinfo$??0?$basic_ostream@DU?$char_traits@D@std@@@std@@QAE@PAV?$basic_streambuf@DU?$char_traits@D@std@@@1@_N@Z
  00032	e9 00 00 00 00	 jmp	 ___CxxFrameHandler3
text$x	ENDS
??0?$basic_ostream@DU?$char_traits@D@std@@@std@@QAE@PAV?$basic_streambuf@DU?$char_traits@D@std@@@1@_N@Z ENDP ; std::basic_ostream<char,std::char_traits<char> >::basic_ostream<char,std::char_traits<char> >
PUBLIC	?open@?$basic_filebuf@DU?$char_traits@D@std@@@std@@QAEPAV12@PBDHH@Z ; std::basic_filebuf<char,std::char_traits<char> >::open
EXTRN	?_Fiopen@std@@YAPAU_iobuf@@PBDHH@Z:PROC		; std::_Fiopen
;	COMDAT xdata$x
; File d:\program files (x86)\microsoft visual studio 10.0\vc\include\xlocale
xdata$x	SEGMENT
__unwindtable$?open@?$basic_filebuf@DU?$char_traits@D@std@@@std@@QAEPAV12@PBDHH@Z DD 0ffffffffH
	DD	FLAT:__unwindfunclet$?open@?$basic_filebuf@DU?$char_traits@D@std@@@std@@QAEPAV12@PBDHH@Z$0
__ehfuncinfo$?open@?$basic_filebuf@DU?$char_traits@D@std@@@std@@QAEPAV12@PBDHH@Z DD 019930522H
	DD	01H
	DD	FLAT:__unwindtable$?open@?$basic_filebuf@DU?$char_traits@D@std@@@std@@QAEPAV12@PBDHH@Z
	DD	2 DUP(00H)
	DD	2 DUP(00H)
	DD	00H
	DD	01H
; Function compile flags: /Ogtp
; File d:\program files (x86)\microsoft visual studio 10.0\vc\include\fstream
xdata$x	ENDS
;	COMDAT ?open@?$basic_filebuf@DU?$char_traits@D@std@@@std@@QAEPAV12@PBDHH@Z
_TEXT	SEGMENT
__$EHRec$ = -12						; size = 12
__Filename$ = 8						; size = 4
__Mode$ = 12						; size = 4
$T213191 = 16						; size = 4
__Prot$ = 16						; size = 4
?open@?$basic_filebuf@DU?$char_traits@D@std@@@std@@QAEPAV12@PBDHH@Z PROC ; std::basic_filebuf<char,std::char_traits<char> >::open, COMDAT
; _this$ = ecx

; 218  : 		{	// open a C stream with specified mode

  00000	55		 push	 ebp
  00001	8b ec		 mov	 ebp, esp
  00003	6a ff		 push	 -1
  00005	68 00 00 00 00	 push	 __ehhandler$?open@?$basic_filebuf@DU?$char_traits@D@std@@@std@@QAEPAV12@PBDHH@Z
  0000a	64 a1 00 00 00
	00		 mov	 eax, DWORD PTR fs:0
  00010	50		 push	 eax
  00011	56		 push	 esi
  00012	57		 push	 edi
  00013	a1 00 00 00 00	 mov	 eax, DWORD PTR ___security_cookie
  00018	33 c5		 xor	 eax, ebp
  0001a	50		 push	 eax
  0001b	8d 45 f4	 lea	 eax, DWORD PTR __$EHRec$[ebp]
  0001e	64 a3 00 00 00
	00		 mov	 DWORD PTR fs:0, eax
  00024	8b f1		 mov	 esi, ecx

; 219  : 		_Filet *_File;
; 220  : 		if (_Myfile != 0 || (_File = _Fiopen(_Filename, _Mode, _Prot)) == 0)

  00026	83 7e 54 00	 cmp	 DWORD PTR [esi+84], 0
  0002a	0f 85 97 00 00
	00		 jne	 $LN1@open
  00030	8b 45 10	 mov	 eax, DWORD PTR __Prot$[ebp]
  00033	8b 4d 0c	 mov	 ecx, DWORD PTR __Mode$[ebp]
  00036	8b 55 08	 mov	 edx, DWORD PTR __Filename$[ebp]
  00039	50		 push	 eax
  0003a	51		 push	 ecx
  0003b	52		 push	 edx
  0003c	e8 00 00 00 00	 call	 ?_Fiopen@std@@YAPAU_iobuf@@PBDHH@Z ; std::_Fiopen
  00041	83 c4 0c	 add	 esp, 12			; 0000000cH
  00044	85 c0		 test	 eax, eax
  00046	74 7f		 je	 SHORT $LN1@open

; 222  : 
; 223  : 		_Init(_File, _Openfl);

  00048	6a 01		 push	 1
  0004a	50		 push	 eax
  0004b	8b ce		 mov	 ecx, esi
  0004d	e8 00 00 00 00	 call	 ?_Init@?$basic_filebuf@DU?$char_traits@D@std@@@std@@IAEXPAU_iobuf@@W4_Initfl@12@@Z ; std::basic_filebuf<char,std::char_traits<char> >::_Init

; 224  : 		_Initcvt(&_USE(_Mysb::getloc(), _Cvt));

  00052	8d 45 10	 lea	 eax, DWORD PTR $T213191[ebp]
  00055	50		 push	 eax
  00056	8b ce		 mov	 ecx, esi
  00058	e8 00 00 00 00	 call	 ?getloc@?$basic_streambuf@DU?$char_traits@D@std@@@std@@QBE?AVlocale@2@XZ ; std::basic_streambuf<char,std::char_traits<char> >::getloc
  0005d	50		 push	 eax
  0005e	c7 45 fc 00 00
	00 00		 mov	 DWORD PTR __$EHRec$[ebp+8], 0
  00065	e8 00 00 00 00	 call	 ??$use_facet@V?$codecvt@DDH@std@@@std@@YAABV?$codecvt@DDH@0@ABVlocale@0@@Z ; std::use_facet<std::codecvt<char,char,int> >
  0006a	8b f8		 mov	 edi, eax
  0006c	8b 17		 mov	 edx, DWORD PTR [edi]
  0006e	8b 42 04	 mov	 eax, DWORD PTR [edx+4]
  00071	83 c4 04	 add	 esp, 4
  00074	8b cf		 mov	 ecx, edi
  00076	ff d0		 call	 eax
  00078	84 c0		 test	 al, al
  0007a	74 24		 je	 SHORT $LN7@open
  0007c	8d 4d 10	 lea	 ecx, DWORD PTR $T213191[ebp]
  0007f	c7 46 44 00 00
	00 00		 mov	 DWORD PTR [esi+68], 0
  00086	e8 00 00 00 00	 call	 ??1locale@std@@QAE@XZ	; std::locale::~locale

; 225  : 		return (this);	// open succeeded

  0008b	8b c6		 mov	 eax, esi

; 226  : 		}

  0008d	8b 4d f4	 mov	 ecx, DWORD PTR __$EHRec$[ebp]
  00090	64 89 0d 00 00
	00 00		 mov	 DWORD PTR fs:0, ecx
  00097	59		 pop	 ecx
  00098	5f		 pop	 edi
  00099	5e		 pop	 esi
  0009a	8b e5		 mov	 esp, ebp
  0009c	5d		 pop	 ebp
  0009d	c2 0c 00	 ret	 12			; 0000000cH

; 224  : 		_Initcvt(&_USE(_Mysb::getloc(), _Cvt));

$LN7@open:
  000a0	8b ce		 mov	 ecx, esi
  000a2	89 7e 44	 mov	 DWORD PTR [esi+68], edi
  000a5	e8 00 00 00 00	 call	 ?_Init@?$basic_streambuf@DU?$char_traits@D@std@@@std@@IAEXXZ ; std::basic_streambuf<char,std::char_traits<char> >::_Init
  000aa	8d 4d 10	 lea	 ecx, DWORD PTR $T213191[ebp]
  000ad	e8 00 00 00 00	 call	 ??1locale@std@@QAE@XZ	; std::locale::~locale

; 225  : 		return (this);	// open succeeded

  000b2	8b c6		 mov	 eax, esi

; 226  : 		}

  000b4	8b 4d f4	 mov	 ecx, DWORD PTR __$EHRec$[ebp]
  000b7	64 89 0d 00 00
	00 00		 mov	 DWORD PTR fs:0, ecx
  000be	59		 pop	 ecx
  000bf	5f		 pop	 edi
  000c0	5e		 pop	 esi
  000c1	8b e5		 mov	 esp, ebp
  000c3	5d		 pop	 ebp
  000c4	c2 0c 00	 ret	 12			; 0000000cH
$LN1@open:

; 221  : 			return (0);	// open failed

  000c7	33 c0		 xor	 eax, eax

; 226  : 		}

  000c9	8b 4d f4	 mov	 ecx, DWORD PTR __$EHRec$[ebp]
  000cc	64 89 0d 00 00
	00 00		 mov	 DWORD PTR fs:0, ecx
  000d3	59		 pop	 ecx
  000d4	5f		 pop	 edi
  000d5	5e		 pop	 esi
  000d6	8b e5		 mov	 esp, ebp
  000d8	5d		 pop	 ebp
  000d9	c2 0c 00	 ret	 12			; 0000000cH
_TEXT	ENDS
;	COMDAT text$x
text$x	SEGMENT
__unwindfunclet$?open@?$basic_filebuf@DU?$char_traits@D@std@@@std@@QAEPAV12@PBDHH@Z$0:
  00000	8d 4d 10	 lea	 ecx, DWORD PTR $T213191[ebp]
  00003	e9 00 00 00 00	 jmp	 ??1locale@std@@QAE@XZ	; std::locale::~locale
__ehhandler$?open@?$basic_filebuf@DU?$char_traits@D@std@@@std@@QAEPAV12@PBDHH@Z:
  00008	8b 54 24 08	 mov	 edx, DWORD PTR [esp+8]
  0000c	8d 42 0c	 lea	 eax, DWORD PTR [edx+12]
  0000f	8b 4a f4	 mov	 ecx, DWORD PTR [edx-12]
  00012	33 c8		 xor	 ecx, eax
  00014	e8 00 00 00 00	 call	 @__security_check_cookie@4
  00019	b8 00 00 00 00	 mov	 eax, OFFSET __ehfuncinfo$?open@?$basic_filebuf@DU?$char_traits@D@std@@@std@@QAEPAV12@PBDHH@Z
  0001e	e9 00 00 00 00	 jmp	 ___CxxFrameHandler3
text$x	ENDS
?open@?$basic_filebuf@DU?$char_traits@D@std@@@std@@QAEPAV12@PBDHH@Z ENDP ; std::basic_filebuf<char,std::char_traits<char> >::open
PUBLIC	__$ArrayPad$
PUBLIC	?_Endwrite@?$basic_filebuf@DU?$char_traits@D@std@@@std@@IAE_NXZ ; std::basic_filebuf<char,std::char_traits<char> >::_Endwrite
EXTRN	_fwrite:PROC
;	COMDAT xdata$x
; File d:\program files (x86)\microsoft visual studio 10.0\vc\include\xstring
xdata$x	SEGMENT
__unwindtable$?_Endwrite@?$basic_filebuf@DU?$char_traits@D@std@@@std@@IAE_NXZ DD 0ffffffffH
	DD	FLAT:__unwindfunclet$?_Endwrite@?$basic_filebuf@DU?$char_traits@D@std@@@std@@IAE_NXZ$0
__ehfuncinfo$?_Endwrite@?$basic_filebuf@DU?$char_traits@D@std@@@std@@IAE_NXZ DD 019930522H
	DD	01H
	DD	FLAT:__unwindtable$?_Endwrite@?$basic_filebuf@DU?$char_traits@D@std@@@std@@IAE_NXZ
	DD	2 DUP(00H)
	DD	2 DUP(00H)
	DD	00H
	DD	01H
; Function compile flags: /Ogtp
; File d:\program files (x86)\microsoft visual studio 10.0\vc\include\fstream
xdata$x	ENDS
;	COMDAT ?_Endwrite@?$basic_filebuf@DU?$char_traits@D@std@@@std@@IAE_NXZ
_TEXT	SEGMENT
__Dest$208565 = -48					; size = 4
__Str$208569 = -44					; size = 28
__$ArrayPad$ = -16					; size = 4
__$EHRec$ = -12						; size = 12
?_Endwrite@?$basic_filebuf@DU?$char_traits@D@std@@@std@@IAE_NXZ PROC ; std::basic_filebuf<char,std::char_traits<char> >::_Endwrite, COMDAT
; _this$ = ecx

; 587  : 		{	// put shift to initial conversion state, as needed

  00000	55		 push	 ebp
  00001	8b ec		 mov	 ebp, esp
  00003	6a ff		 push	 -1
  00005	68 00 00 00 00	 push	 __ehhandler$?_Endwrite@?$basic_filebuf@DU?$char_traits@D@std@@@std@@IAE_NXZ
  0000a	64 a1 00 00 00
	00		 mov	 eax, DWORD PTR fs:0
  00010	50		 push	 eax
  00011	83 ec 24	 sub	 esp, 36			; 00000024H
  00014	a1 00 00 00 00	 mov	 eax, DWORD PTR ___security_cookie
  00019	33 c5		 xor	 eax, ebp
  0001b	89 45 f0	 mov	 DWORD PTR __$ArrayPad$[ebp], eax
  0001e	53		 push	 ebx
  0001f	56		 push	 esi
  00020	57		 push	 edi
  00021	50		 push	 eax
  00022	8d 45 f4	 lea	 eax, DWORD PTR __$EHRec$[ebp]
  00025	64 a3 00 00 00
	00		 mov	 DWORD PTR fs:0, eax
  0002b	8b f9		 mov	 edi, ecx

; 588  : 		if (_Pcvt == 0 || !_Wrotesome)

  0002d	33 db		 xor	 ebx, ebx
  0002f	39 5f 44	 cmp	 DWORD PTR [edi+68], ebx
  00032	0f 84 e9 00 00
	00		 je	 $LN14@Endwrite
  00038	38 5f 49	 cmp	 BYTE PTR [edi+73], bl
  0003b	0f 84 e0 00 00
	00		 je	 $LN14@Endwrite

; 590  : 		else
; 591  : 			{	// may have to put
; 592  : 			const int _STRING_INC = 8;
; 593  : 			char *_Dest;
; 594  : 			if (_Traits::eq_int_type(_Traits::eof(), overflow()))

  00041	8b 07		 mov	 eax, DWORD PTR [edi]
  00043	8b 50 0c	 mov	 edx, DWORD PTR [eax+12]
  00046	6a ff		 push	 -1
  00048	ff d2		 call	 edx
  0004a	83 f8 ff	 cmp	 eax, -1

; 595  : 				return (false);

  0004d	0f 84 c2 00 00
	00		 je	 $LN220@Endwrite

; 596  : 
; 597  : 			string _Str(_STRING_INC, '\0');

  00053	b9 0f 00 00 00	 mov	 ecx, 15			; 0000000fH
  00058	33 c0		 xor	 eax, eax
  0005a	88 5d d4	 mov	 BYTE PTR __Str$208569[ebp], bl
  0005d	89 4d e8	 mov	 DWORD PTR __Str$208569[ebp+20], ecx
  00060	89 45 d4	 mov	 DWORD PTR __Str$208569[ebp], eax
  00063	89 45 d8	 mov	 DWORD PTR __Str$208569[ebp+4], eax
  00066	c7 45 e4 08 00
	00 00		 mov	 DWORD PTR __Str$208569[ebp+16], 8
  0006d	83 f9 10	 cmp	 ecx, 16			; 00000010H
  00070	73 03		 jae	 SHORT $LN126@Endwrite
  00072	8d 45 d4	 lea	 eax, DWORD PTR __Str$208569[ebp]
$LN126@Endwrite:
  00075	88 58 08	 mov	 BYTE PTR [eax+8], bl
  00078	89 5d fc	 mov	 DWORD PTR __$EHRec$[ebp+8], ebx
$LN219@Endwrite:
  0007b	8b 45 d4	 mov	 eax, DWORD PTR __Str$208569[ebp]
  0007e	8b 5d e8	 mov	 ebx, DWORD PTR __Str$208569[ebp+20]
$LN11@Endwrite:

; 598  : 			for (; ; )
; 599  : 				switch (_Pcvt->unshift(_State,
; 600  : 					&*_Str.begin(), &*_Str.begin() + _Str.size(), _Dest))

  00081	8b d0		 mov	 edx, eax
  00083	83 fb 10	 cmp	 ebx, 16			; 00000010H
  00086	73 05		 jae	 SHORT $LN157@Endwrite
  00088	8d 55 d4	 lea	 edx, DWORD PTR __Str$208569[ebp]
  0008b	8b c2		 mov	 eax, edx
$LN157@Endwrite:
  0008d	03 55 e4	 add	 edx, DWORD PTR __Str$208569[ebp+16]
  00090	8b 4f 44	 mov	 ecx, DWORD PTR [edi+68]
  00093	8b 31		 mov	 esi, DWORD PTR [ecx]
  00095	8d 5d d0	 lea	 ebx, DWORD PTR __Dest$208565[ebp]
  00098	53		 push	 ebx
  00099	52		 push	 edx
  0009a	50		 push	 eax
  0009b	8d 47 4c	 lea	 eax, DWORD PTR [edi+76]
  0009e	50		 push	 eax
  0009f	8b 46 18	 mov	 eax, DWORD PTR [esi+24]
  000a2	ff d0		 call	 eax
  000a4	83 e8 00	 sub	 eax, 0
  000a7	74 0d		 je	 SHORT $LN7@Endwrite
  000a9	48		 dec	 eax
  000aa	74 0e		 je	 SHORT $LN6@Endwrite
  000ac	83 e8 02	 sub	 eax, 2

; 620  : 
; 621  : 				default:
; 622  : 					return (false);	// conversion failed

  000af	8d 4d d4	 lea	 ecx, DWORD PTR __Str$208569[ebp]
  000b2	75 5c		 jne	 SHORT $LN221@Endwrite

; 615  : 					break;
; 616  : 					}
; 617  : 
; 618  : 				case codecvt_base::noconv:
; 619  : 					return (true);	// nothing to do

  000b4	eb 66		 jmp	 SHORT $LN222@Endwrite
$LN7@Endwrite:

; 601  : 				{	// test result of homing conversion
; 602  : 				case codecvt_base::ok:
; 603  : 					_Wrotesome = false;	// homed successfully

  000b6	c6 47 49 00	 mov	 BYTE PTR [edi+73], 0
$LN6@Endwrite:

; 604  : 
; 605  : 				case codecvt_base::partial:	// fall through
; 606  : 					{	// put any generated bytes
; 607  : 					size_t _Count = _Dest - &*_Str.begin();

  000ba	8b 5d e8	 mov	 ebx, DWORD PTR __Str$208569[ebp+20]
  000bd	8b 45 d4	 mov	 eax, DWORD PTR __Str$208569[ebp]
  000c0	8b c8		 mov	 ecx, eax
  000c2	83 fb 10	 cmp	 ebx, 16			; 00000010H
  000c5	73 03		 jae	 SHORT $LN178@Endwrite
  000c7	8d 4d d4	 lea	 ecx, DWORD PTR __Str$208569[ebp]
$LN178@Endwrite:
  000ca	8b 75 d0	 mov	 esi, DWORD PTR __Dest$208565[ebp]
  000cd	2b f1		 sub	 esi, ecx

; 608  : 					if (0 < _Count && _Count !=
; 609  : 						fwrite(&*_Str.begin(), 1, _Count, _Myfile))

  000cf	74 22		 je	 SHORT $LN5@Endwrite
  000d1	83 fb 10	 cmp	 ebx, 16			; 00000010H
  000d4	73 03		 jae	 SHORT $LN197@Endwrite
  000d6	8d 45 d4	 lea	 eax, DWORD PTR __Str$208569[ebp]
$LN197@Endwrite:
  000d9	8b 4f 54	 mov	 ecx, DWORD PTR [edi+84]
  000dc	51		 push	 ecx
  000dd	56		 push	 esi
  000de	6a 01		 push	 1
  000e0	50		 push	 eax
  000e1	e8 00 00 00 00	 call	 _fwrite
  000e6	83 c4 10	 add	 esp, 16			; 00000010H
  000e9	3b f0		 cmp	 esi, eax
  000eb	75 20		 jne	 SHORT $LN212@Endwrite
  000ed	8b 5d e8	 mov	 ebx, DWORD PTR __Str$208569[ebp+20]
  000f0	8b 45 d4	 mov	 eax, DWORD PTR __Str$208569[ebp]
$LN5@Endwrite:

; 611  : 					if (!_Wrotesome)

  000f3	80 7f 49 00	 cmp	 BYTE PTR [edi+73], 0
  000f7	74 20		 je	 SHORT $LN213@Endwrite

; 613  : 					if (_Count == 0)

  000f9	85 f6		 test	 esi, esi
  000fb	75 84		 jne	 SHORT $LN11@Endwrite

; 614  : 						_Str.append(_STRING_INC, '\0');	// try with more space

  000fd	56		 push	 esi
  000fe	6a 08		 push	 8
  00100	8d 4d d4	 lea	 ecx, DWORD PTR __Str$208569[ebp]
  00103	e8 00 00 00 00	 call	 ?append@?$basic_string@DU?$char_traits@D@std@@V?$allocator@D@2@@std@@QAEAAV12@ID@Z ; std::basic_string<char,std::char_traits<char>,std::allocator<char> >::append

; 623  : 				}

  00108	e9 6e ff ff ff	 jmp	 $LN219@Endwrite
$LN212@Endwrite:

; 610  : 						return (false);	// write failed

  0010d	8d 4d d4	 lea	 ecx, DWORD PTR __Str$208569[ebp]
$LN221@Endwrite:
  00110	e8 00 00 00 00	 call	 ??1?$basic_string@DU?$char_traits@D@std@@V?$allocator@D@2@@std@@QAE@XZ ; std::basic_string<char,std::char_traits<char>,std::allocator<char> >::~basic_string<char,std::char_traits<char>,std::allocator<char> >
$LN220@Endwrite:
  00115	32 c0		 xor	 al, al
  00117	eb 0a		 jmp	 SHORT $LN13@Endwrite
$LN213@Endwrite:

; 612  : 						return (true);

  00119	8d 4d d4	 lea	 ecx, DWORD PTR __Str$208569[ebp]
$LN222@Endwrite:
  0011c	e8 00 00 00 00	 call	 ??1?$basic_string@DU?$char_traits@D@std@@V?$allocator@D@2@@std@@QAE@XZ ; std::basic_string<char,std::char_traits<char>,std::allocator<char> >::~basic_string<char,std::char_traits<char>,std::allocator<char> >
$LN14@Endwrite:

; 589  : 			return (true);

  00121	b0 01		 mov	 al, 1
$LN13@Endwrite:

; 624  : 			}
; 625  : 		}

  00123	8b 4d f4	 mov	 ecx, DWORD PTR __$EHRec$[ebp]
  00126	64 89 0d 00 00
	00 00		 mov	 DWORD PTR fs:0, ecx
  0012d	59		 pop	 ecx
  0012e	5f		 pop	 edi
  0012f	5e		 pop	 esi
  00130	5b		 pop	 ebx
  00131	8b 4d f0	 mov	 ecx, DWORD PTR __$ArrayPad$[ebp]
  00134	33 cd		 xor	 ecx, ebp
  00136	e8 00 00 00 00	 call	 @__security_check_cookie@4
  0013b	8b e5		 mov	 esp, ebp
  0013d	5d		 pop	 ebp
  0013e	c3		 ret	 0
_TEXT	ENDS
;	COMDAT text$x
text$x	SEGMENT
__unwindfunclet$?_Endwrite@?$basic_filebuf@DU?$char_traits@D@std@@@std@@IAE_NXZ$0:
  00000	8d 4d d4	 lea	 ecx, DWORD PTR __Str$208569[ebp]
  00003	e9 00 00 00 00	 jmp	 ??1?$basic_string@DU?$char_traits@D@std@@V?$allocator@D@2@@std@@QAE@XZ ; std::basic_string<char,std::char_traits<char>,std::allocator<char> >::~basic_string<char,std::char_traits<char>,std::allocator<char> >
__ehhandler$?_Endwrite@?$basic_filebuf@DU?$char_traits@D@std@@@std@@IAE_NXZ:
  00008	8b 54 24 08	 mov	 edx, DWORD PTR [esp+8]
  0000c	8d 42 0c	 lea	 eax, DWORD PTR [edx+12]
  0000f	8b 4a cc	 mov	 ecx, DWORD PTR [edx-52]
  00012	33 c8		 xor	 ecx, eax
  00014	e8 00 00 00 00	 call	 @__security_check_cookie@4
  00019	8b 4a fc	 mov	 ecx, DWORD PTR [edx-4]
  0001c	33 c8		 xor	 ecx, eax
  0001e	e8 00 00 00 00	 call	 @__security_check_cookie@4
  00023	b8 00 00 00 00	 mov	 eax, OFFSET __ehfuncinfo$?_Endwrite@?$basic_filebuf@DU?$char_traits@D@std@@@std@@IAE_NXZ
  00028	e9 00 00 00 00	 jmp	 ___CxxFrameHandler3
text$x	ENDS
?_Endwrite@?$basic_filebuf@DU?$char_traits@D@std@@@std@@IAE_NXZ ENDP ; std::basic_filebuf<char,std::char_traits<char> >::_Endwrite
PUBLIC	??$?6U?$char_traits@D@std@@@std@@YAAAV?$basic_ostream@DU?$char_traits@D@std@@@0@AAV10@PBD@Z ; std::operator<<<std::char_traits<char> >
;	COMDAT xdata$x
; File d:\program files (x86)\microsoft visual studio 10.0\vc\include\ios
xdata$x	SEGMENT
__catchsym$??$?6U?$char_traits@D@std@@@std@@YAAAV?$basic_ostream@DU?$char_traits@D@std@@@0@AAV10@PBD@Z$14 DD 040H
	DD	00H
	DD	00H
	DD	FLAT:__catch$??$?6U?$char_traits@D@std@@@std@@YAAAV?$basic_ostream@DU?$char_traits@D@std@@@0@AAV10@PBD@Z$0
__tryblocktable$??$?6U?$char_traits@D@std@@@std@@YAAAV?$basic_ostream@DU?$char_traits@D@std@@@0@AAV10@PBD@Z DD 02H
	DD	02H
	DD	03H
	DD	01H
	DD	FLAT:__catchsym$??$?6U?$char_traits@D@std@@@std@@YAAAV?$basic_ostream@DU?$char_traits@D@std@@@0@AAV10@PBD@Z$14
__ehfuncinfo$??$?6U?$char_traits@D@std@@@std@@YAAAV?$basic_ostream@DU?$char_traits@D@std@@@0@AAV10@PBD@Z DD 019930522H
	DD	05H
	DD	FLAT:__unwindtable$??$?6U?$char_traits@D@std@@@std@@YAAAV?$basic_ostream@DU?$char_traits@D@std@@@0@AAV10@PBD@Z
	DD	01H
	DD	FLAT:__tryblocktable$??$?6U?$char_traits@D@std@@@std@@YAAAV?$basic_ostream@DU?$char_traits@D@std@@@0@AAV10@PBD@Z
	DD	2 DUP(00H)
	DD	00H
	DD	01H
__unwindtable$??$?6U?$char_traits@D@std@@@std@@YAAAV?$basic_ostream@DU?$char_traits@D@std@@@0@AAV10@PBD@Z DD 0ffffffffH
	DD	FLAT:__unwindfunclet$??$?6U?$char_traits@D@std@@@std@@YAAAV?$basic_ostream@DU?$char_traits@D@std@@@0@AAV10@PBD@Z$3
	DD	0ffffffffH
	DD	FLAT:__unwindfunclet$??$?6U?$char_traits@D@std@@@std@@YAAAV?$basic_ostream@DU?$char_traits@D@std@@@0@AAV10@PBD@Z$2
	DD	01H
	DD	00H
	DD	01H
	DD	00H
	DD	0ffffffffH
	DD	FLAT:__unwindfunclet$??$?6U?$char_traits@D@std@@@std@@YAAAV?$basic_ostream@DU?$char_traits@D@std@@@0@AAV10@PBD@Z$13
; Function compile flags: /Ogtp
; File d:\program files (x86)\microsoft visual studio 10.0\vc\include\ostream
xdata$x	ENDS
;	COMDAT ??$?6U?$char_traits@D@std@@@std@@YAAAV?$basic_ostream@DU?$char_traits@D@std@@@0@AAV10@PBD@Z
_TEXT	SEGMENT
__Ok$ = -40						; size = 8
__Pad$ = -32						; size = 8
tv284 = -24						; size = 4
__State$ = -20						; size = 4
__$EHRec$ = -16						; size = 16
__Ostr$ = 8						; size = 4
__Val$ = 12						; size = 4
??$?6U?$char_traits@D@std@@@std@@YAAAV?$basic_ostream@DU?$char_traits@D@std@@@0@AAV10@PBD@Z PROC ; std::operator<<<std::char_traits<char> >, COMDAT

; 767  : 	{	// insert NTBS into char stream

  00000	55		 push	 ebp
  00001	8b ec		 mov	 ebp, esp
  00003	6a ff		 push	 -1
  00005	68 00 00 00 00	 push	 __ehhandler$??$?6U?$char_traits@D@std@@@std@@YAAAV?$basic_ostream@DU?$char_traits@D@std@@@0@AAV10@PBD@Z
  0000a	64 a1 00 00 00
	00		 mov	 eax, DWORD PTR fs:0
  00010	50		 push	 eax
  00011	83 ec 1c	 sub	 esp, 28			; 0000001cH
  00014	53		 push	 ebx
  00015	56		 push	 esi
  00016	57		 push	 edi
  00017	a1 00 00 00 00	 mov	 eax, DWORD PTR ___security_cookie
  0001c	33 c5		 xor	 eax, ebp
  0001e	50		 push	 eax
  0001f	8d 45 f4	 lea	 eax, DWORD PTR __$EHRec$[ebp+4]
  00022	64 a3 00 00 00
	00		 mov	 DWORD PTR fs:0, eax
  00028	89 65 f0	 mov	 DWORD PTR __$EHRec$[ebp], esp

; 768  : 	typedef char _Elem;
; 769  : 	typedef basic_ostream<_Elem, _Traits> _Myos;
; 770  : 	ios_base::iostate _State = ios_base::goodbit;
; 771  : 	streamsize _Count = (streamsize)_Traits::length(_Val);	// may overflow

  0002b	8b 45 0c	 mov	 eax, DWORD PTR __Val$[ebp]
  0002e	c7 45 ec 00 00
	00 00		 mov	 DWORD PTR __State$[ebp], 0
  00035	8d 48 01	 lea	 ecx, DWORD PTR [eax+1]
$LL201@operator@2:
  00038	8a 10		 mov	 dl, BYTE PTR [eax]
  0003a	40		 inc	 eax
  0003b	84 d2		 test	 dl, dl
  0003d	75 f9		 jne	 SHORT $LL201@operator@2

; 772  : 	streamsize _Pad = _Ostr.width() <= 0 || _Ostr.width() <= _Count
; 773  : 		? 0 : _Ostr.width() - _Count;

  0003f	8b 75 08	 mov	 esi, DWORD PTR __Ostr$[ebp]
  00042	2b c1		 sub	 eax, ecx
  00044	89 45 e8	 mov	 DWORD PTR tv284[ebp], eax
  00047	8b 06		 mov	 eax, DWORD PTR [esi]
  00049	8b 50 04	 mov	 edx, DWORD PTR [eax+4]
  0004c	8b 4c 32 24	 mov	 ecx, DWORD PTR [edx+esi+36]
  00050	8b 44 32 20	 mov	 eax, DWORD PTR [edx+esi+32]
  00054	33 ff		 xor	 edi, edi
  00056	85 c9		 test	 ecx, ecx
  00058	7c 1d		 jl	 SHORT $LN17@operator@2
  0005a	7f 04		 jg	 SHORT $LN202@operator@2
  0005c	85 c0		 test	 eax, eax
  0005e	74 17		 je	 SHORT $LN17@operator@2
$LN202@operator@2:
  00060	3b cf		 cmp	 ecx, edi
  00062	7c 13		 jl	 SHORT $LN17@operator@2
  00064	7f 05		 jg	 SHORT $LN203@operator@2
  00066	3b 45 e8	 cmp	 eax, DWORD PTR tv284[ebp]
  00069	76 0c		 jbe	 SHORT $LN17@operator@2
$LN203@operator@2:
  0006b	2b 45 e8	 sub	 eax, DWORD PTR tv284[ebp]
  0006e	1b cf		 sbb	 ecx, edi
  00070	8b d8		 mov	 ebx, eax
  00072	89 4d e4	 mov	 DWORD PTR __Pad$[ebp+4], ecx
  00075	eb 05		 jmp	 SHORT $LN18@operator@2
$LN17@operator@2:
  00077	33 db		 xor	 ebx, ebx
  00079	89 5d e4	 mov	 DWORD PTR __Pad$[ebp+4], ebx
$LN18@operator@2:

; 774  : 	const typename _Myos::sentry _Ok(_Ostr);

  0007c	8b 54 32 38	 mov	 edx, DWORD PTR [edx+esi+56]
  00080	89 75 d8	 mov	 DWORD PTR __Ok$[ebp], esi
  00083	85 d2		 test	 edx, edx
  00085	74 09		 je	 SHORT $LN36@operator@2
  00087	8b 02		 mov	 eax, DWORD PTR [edx]
  00089	8b ca		 mov	 ecx, edx
  0008b	8b 50 04	 mov	 edx, DWORD PTR [eax+4]
  0008e	ff d2		 call	 edx
$LN36@operator@2:
  00090	8b 06		 mov	 eax, DWORD PTR [esi]
  00092	8b 40 04	 mov	 eax, DWORD PTR [eax+4]
  00095	83 7c 30 0c 00	 cmp	 DWORD PTR [eax+esi+12], 0
  0009a	c7 45 fc 00 00
	00 00		 mov	 DWORD PTR __$EHRec$[ebp+12], 0
  000a1	75 0f		 jne	 SHORT $LN32@operator@2
  000a3	8b 44 30 3c	 mov	 eax, DWORD PTR [eax+esi+60]
  000a7	85 c0		 test	 eax, eax
  000a9	74 07		 je	 SHORT $LN32@operator@2
  000ab	8b c8		 mov	 ecx, eax
  000ad	e8 00 00 00 00	 call	 ?flush@?$basic_ostream@DU?$char_traits@D@std@@@std@@QAEAAV12@XZ ; std::basic_ostream<char,std::char_traits<char> >::flush
$LN32@operator@2:
  000b2	8b 16		 mov	 edx, DWORD PTR [esi]
  000b4	8b 42 04	 mov	 eax, DWORD PTR [edx+4]
  000b7	83 7c 30 0c 00	 cmp	 DWORD PTR [eax+esi+12], 0
  000bc	0f 94 c1	 sete	 cl
  000bf	88 4d dc	 mov	 BYTE PTR __Ok$[ebp+4], cl
  000c2	c7 45 fc 01 00
	00 00		 mov	 DWORD PTR __$EHRec$[ebp+12], 1

; 775  : 
; 776  : 	if (!_Ok)

  000c9	84 c9		 test	 cl, cl
  000cb	75 0a		 jne	 SHORT $LN14@operator@2

; 777  : 		_State |= ios_base::badbit;

  000cd	ba 04 00 00 00	 mov	 edx, 4

; 778  : 	else

  000d2	e9 bb 00 00 00	 jmp	 $LN22@operator@2
$LN14@operator@2:

; 779  : 		{	// state okay, insert
; 780  : 		_TRY_IO_BEGIN
; 781  : 		if ((_Ostr.flags() & ios_base::adjustfield) != ios_base::left)

  000d7	8b 44 30 14	 mov	 eax, DWORD PTR [eax+esi+20]
  000db	25 c0 01 00 00	 and	 eax, 448		; 000001c0H
  000e0	c6 45 fc 02	 mov	 BYTE PTR __$EHRec$[ebp+12], 2
  000e4	83 f8 40	 cmp	 eax, 64			; 00000040H
  000e7	74 61		 je	 SHORT $LN199@operator@2
  000e9	8d a4 24 00 00
	00 00		 npad	 7
$LL10@operator@2:

; 782  : 			for (; 0 < _Pad; --_Pad)	// pad on left

  000f0	83 7d e4 00	 cmp	 DWORD PTR __Pad$[ebp+4], 0
  000f4	7c 4e		 jl	 SHORT $LN8@operator@2
  000f6	7f 04		 jg	 SHORT $LN204@operator@2
  000f8	85 db		 test	 ebx, ebx
  000fa	74 48		 je	 SHORT $LN8@operator@2
$LN204@operator@2:

; 783  : 				if (_Traits::eq_int_type(_Traits::eof(),
; 784  : 					_Ostr.rdbuf()->sputc(_Ostr.fill())))

  000fc	8b 0e		 mov	 ecx, DWORD PTR [esi]
  000fe	8b 49 04	 mov	 ecx, DWORD PTR [ecx+4]
  00101	8a 44 31 40	 mov	 al, BYTE PTR [ecx+esi+64]
  00105	8b 4c 31 38	 mov	 ecx, DWORD PTR [ecx+esi+56]
  00109	8b 51 24	 mov	 edx, DWORD PTR [ecx+36]
  0010c	83 3a 00	 cmp	 DWORD PTR [edx], 0
  0010f	74 1b		 je	 SHORT $LN65@operator@2
  00111	8b 51 34	 mov	 edx, DWORD PTR [ecx+52]
  00114	83 3a 00	 cmp	 DWORD PTR [edx], 0
  00117	7e 13		 jle	 SHORT $LN65@operator@2
  00119	ff 0a		 dec	 DWORD PTR [edx]
  0011b	8b 49 24	 mov	 ecx, DWORD PTR [ecx+36]
  0011e	8b 11		 mov	 edx, DWORD PTR [ecx]
  00120	8d 7a 01	 lea	 edi, DWORD PTR [edx+1]
  00123	89 39		 mov	 DWORD PTR [ecx], edi
  00125	88 02		 mov	 BYTE PTR [edx], al
  00127	0f b6 c0	 movzx	 eax, al
  0012a	eb 0b		 jmp	 SHORT $LN66@operator@2
$LN65@operator@2:
  0012c	8b 11		 mov	 edx, DWORD PTR [ecx]
  0012e	0f b6 c0	 movzx	 eax, al
  00131	50		 push	 eax
  00132	8b 42 0c	 mov	 eax, DWORD PTR [edx+12]
  00135	ff d0		 call	 eax
$LN66@operator@2:
  00137	83 f8 ff	 cmp	 eax, -1
  0013a	0f 85 bc 00 00
	00		 jne	 $LN9@operator@2

; 785  : 					{	// insertion failed, quit
; 786  : 					_State |= ios_base::badbit;

  00140	83 4d ec 04	 or	 DWORD PTR __State$[ebp], 4
$LN8@operator@2:

; 787  : 					break;
; 788  : 					}
; 789  : 
; 790  : 		if (_State == ios_base::goodbit
; 791  : 			&& _Ostr.rdbuf()->sputn(_Val, _Count) != _Count)

  00144	83 7d ec 00	 cmp	 DWORD PTR __State$[ebp], 0
  00148	75 2f		 jne	 SHORT $LN2@operator@2
$LN199@operator@2:
  0014a	8b 0e		 mov	 ecx, DWORD PTR [esi]
  0014c	8b 51 04	 mov	 edx, DWORD PTR [ecx+4]
  0014f	8b 4c 32 38	 mov	 ecx, DWORD PTR [edx+esi+56]
  00153	8b 55 e8	 mov	 edx, DWORD PTR tv284[ebp]
  00156	8b 01		 mov	 eax, DWORD PTR [ecx]
  00158	8b 40 24	 mov	 eax, DWORD PTR [eax+36]
  0015b	33 ff		 xor	 edi, edi
  0015d	57		 push	 edi
  0015e	52		 push	 edx
  0015f	8b 55 0c	 mov	 edx, DWORD PTR __Val$[ebp]
  00162	52		 push	 edx
  00163	ff d0		 call	 eax
  00165	3b 45 e8	 cmp	 eax, DWORD PTR tv284[ebp]
  00168	75 08		 jne	 SHORT $LN205@operator@2
  0016a	3b d7		 cmp	 edx, edi
  0016c	0f 84 9e 00 00
	00		 je	 $LL200@operator@2
$LN205@operator@2:

; 792  : 			_State |= ios_base::badbit;

  00172	c7 45 ec 04 00
	00 00		 mov	 DWORD PTR __State$[ebp], 4
$LN2@operator@2:

; 801  : 					}
; 802  : 		_Ostr.width(0);

  00179	8b 06		 mov	 eax, DWORD PTR [esi]
  0017b	8b 40 04	 mov	 eax, DWORD PTR [eax+4]
  0017e	33 c9		 xor	 ecx, ecx
  00180	89 4c 30 20	 mov	 DWORD PTR [eax+esi+32], ecx
  00184	89 4c 30 24	 mov	 DWORD PTR [eax+esi+36], ecx
  00188	c7 45 fc 01 00
	00 00		 mov	 DWORD PTR __$EHRec$[ebp+12], 1
$LN220@operator@2:
  0018f	8b 55 ec	 mov	 edx, DWORD PTR __State$[ebp]
$LN22@operator@2:

; 804  : 		}
; 805  : 
; 806  : 	_Ostr.setstate(_State);

  00192	8b 0e		 mov	 ecx, DWORD PTR [esi]
  00194	8b 49 04	 mov	 ecx, DWORD PTR [ecx+4]
  00197	03 ce		 add	 ecx, esi
  00199	85 d2		 test	 edx, edx
  0019b	74 16		 je	 SHORT $LN181@operator@2
  0019d	8b 41 0c	 mov	 eax, DWORD PTR [ecx+12]
  001a0	0b c2		 or	 eax, edx
  001a2	83 79 38 00	 cmp	 DWORD PTR [ecx+56], 0
  001a6	75 03		 jne	 SHORT $LN183@operator@2
  001a8	83 c8 04	 or	 eax, 4
$LN183@operator@2:
  001ab	6a 00		 push	 0
  001ad	50		 push	 eax
  001ae	e8 00 00 00 00	 call	 ?clear@ios_base@std@@QAEXH_N@Z ; std::ios_base::clear
$LN181@operator@2:

; 807  : 	return (_Ostr);

  001b3	c7 45 fc 04 00
	00 00		 mov	 DWORD PTR __$EHRec$[ebp+12], 4
  001ba	e8 00 00 00 00	 call	 ?uncaught_exception@std@@YA_NXZ ; std::uncaught_exception
  001bf	8b 7d d8	 mov	 edi, DWORD PTR __Ok$[ebp]
  001c2	84 c0		 test	 al, al
  001c4	75 07		 jne	 SHORT $LN185@operator@2
  001c6	8b cf		 mov	 ecx, edi
  001c8	e8 00 00 00 00	 call	 ?_Osfx@?$basic_ostream@DU?$char_traits@D@std@@@std@@QAEXXZ ; std::basic_ostream<char,std::char_traits<char> >::_Osfx
$LN185@operator@2:
  001cd	8b 17		 mov	 edx, DWORD PTR [edi]
  001cf	8b 42 04	 mov	 eax, DWORD PTR [edx+4]
  001d2	8b 4c 38 38	 mov	 ecx, DWORD PTR [eax+edi+56]
  001d6	c7 45 fc ff ff
	ff ff		 mov	 DWORD PTR __$EHRec$[ebp+12], -1
  001dd	85 c9		 test	 ecx, ecx
  001df	74 07		 je	 SHORT $LN189@operator@2
  001e1	8b 11		 mov	 edx, DWORD PTR [ecx]
  001e3	8b 42 08	 mov	 eax, DWORD PTR [edx+8]
  001e6	ff d0		 call	 eax
$LN189@operator@2:
  001e8	8b c6		 mov	 eax, esi

; 808  : 	}

  001ea	8b 4d f4	 mov	 ecx, DWORD PTR __$EHRec$[ebp+4]
  001ed	64 89 0d 00 00
	00 00		 mov	 DWORD PTR fs:0, ecx
  001f4	59		 pop	 ecx
  001f5	5f		 pop	 edi
  001f6	5e		 pop	 esi
  001f7	5b		 pop	 ebx
  001f8	8b e5		 mov	 esp, ebp
  001fa	5d		 pop	 ebp
  001fb	c3		 ret	 0
$LN9@operator@2:

; 782  : 			for (; 0 < _Pad; --_Pad)	// pad on left

  001fc	83 c3 ff	 add	 ebx, -1
  001ff	83 55 e4 ff	 adc	 DWORD PTR __Pad$[ebp+4], -1
  00203	e9 e8 fe ff ff	 jmp	 $LL10@operator@2
  00208	eb 06 8d 9b 00
	00 00 00	 npad	 8
$LL200@operator@2:

; 793  : 
; 794  : 		if (_State == ios_base::goodbit)
; 795  : 			for (; 0 < _Pad; --_Pad)	// pad on right

  00210	83 7d e4 00	 cmp	 DWORD PTR __Pad$[ebp+4], 0
  00214	0f 8c 5f ff ff
	ff		 jl	 $LN2@operator@2
  0021a	7f 08		 jg	 SHORT $LN206@operator@2
  0021c	85 db		 test	 ebx, ebx
  0021e	0f 84 55 ff ff
	ff		 je	 $LN2@operator@2
$LN206@operator@2:

; 796  : 				if (_Traits::eq_int_type(_Traits::eof(),
; 797  : 					_Ostr.rdbuf()->sputc(_Ostr.fill())))

  00224	8b 0e		 mov	 ecx, DWORD PTR [esi]
  00226	8b 49 04	 mov	 ecx, DWORD PTR [ecx+4]
  00229	8a 44 31 40	 mov	 al, BYTE PTR [ecx+esi+64]
  0022d	8b 4c 31 38	 mov	 ecx, DWORD PTR [ecx+esi+56]
  00231	8b 51 24	 mov	 edx, DWORD PTR [ecx+36]
  00234	83 3a 00	 cmp	 DWORD PTR [edx], 0
  00237	74 1b		 je	 SHORT $LN91@operator@2
  00239	8b 51 34	 mov	 edx, DWORD PTR [ecx+52]
  0023c	83 3a 00	 cmp	 DWORD PTR [edx], 0
  0023f	7e 13		 jle	 SHORT $LN91@operator@2
  00241	ff 0a		 dec	 DWORD PTR [edx]
  00243	8b 49 24	 mov	 ecx, DWORD PTR [ecx+36]
  00246	8b 11		 mov	 edx, DWORD PTR [ecx]
  00248	8d 7a 01	 lea	 edi, DWORD PTR [edx+1]
  0024b	89 39		 mov	 DWORD PTR [ecx], edi
  0024d	88 02		 mov	 BYTE PTR [edx], al
  0024f	0f b6 c0	 movzx	 eax, al
  00252	eb 0b		 jmp	 SHORT $LN92@operator@2
$LN91@operator@2:
  00254	8b 11		 mov	 edx, DWORD PTR [ecx]
  00256	0f b6 c0	 movzx	 eax, al
  00259	50		 push	 eax
  0025a	8b 42 0c	 mov	 eax, DWORD PTR [edx+12]
  0025d	ff d0		 call	 eax
$LN92@operator@2:
  0025f	83 f8 ff	 cmp	 eax, -1
  00262	75 09		 jne	 SHORT $LN3@operator@2

; 798  : 					{	// insertion failed, quit
; 799  : 					_State |= ios_base::badbit;

  00264	83 4d ec 04	 or	 DWORD PTR __State$[ebp], 4

; 800  : 					break;

  00268	e9 0c ff ff ff	 jmp	 $LN2@operator@2
$LN3@operator@2:

; 793  : 
; 794  : 		if (_State == ios_base::goodbit)
; 795  : 			for (; 0 < _Pad; --_Pad)	// pad on right

  0026d	83 c3 ff	 add	 ebx, -1
  00270	83 55 e4 ff	 adc	 DWORD PTR __Pad$[ebp+4], -1
  00274	eb 9a		 jmp	 SHORT $LL200@operator@2
__catch$??$?6U?$char_traits@D@std@@@std@@YAAAV?$basic_ostream@DU?$char_traits@D@std@@@0@AAV10@PBD@Z$0:

; 803  : 		_CATCH_IO_(_Ostr)

  00276	8b 4d 08	 mov	 ecx, DWORD PTR __Ostr$[ebp]
  00279	8b 11		 mov	 edx, DWORD PTR [ecx]
  0027b	8b 42 04	 mov	 eax, DWORD PTR [edx+4]
  0027e	03 c1		 add	 eax, ecx
  00280	8b 48 0c	 mov	 ecx, DWORD PTR [eax+12]
  00283	83 c9 04	 or	 ecx, 4
  00286	83 78 38 00	 cmp	 DWORD PTR [eax+56], 0
  0028a	75 03		 jne	 SHORT $LN116@operator@2
  0028c	83 c9 04	 or	 ecx, 4
$LN116@operator@2:
  0028f	83 e1 17	 and	 ecx, 23			; 00000017H
  00292	89 48 0c	 mov	 DWORD PTR [eax+12], ecx
  00295	85 48 10	 test	 DWORD PTR [eax+16], ecx
  00298	75 15		 jne	 SHORT $LN125@operator@2
  0029a	c7 45 fc 01 00
	00 00		 mov	 DWORD PTR __$EHRec$[ebp+12], 1
  002a1	b8 00 00 00 00	 mov	 eax, $LN23@operator@2
  002a6	c3		 ret	 0
$LN23@operator@2:
  002a7	8b 75 08	 mov	 esi, DWORD PTR __Ostr$[ebp]
  002aa	e9 e0 fe ff ff	 jmp	 $LN220@operator@2
$LN125@operator@2:
  002af	6a 00		 push	 0
  002b1	6a 00		 push	 0
  002b3	e8 00 00 00 00	 call	 __CxxThrowException@8
$LN221@operator@2:
$LN219@operator@2:
  002b8	cc		 int	 3
_TEXT	ENDS
;	COMDAT text$x
text$x	SEGMENT
__unwindfunclet$??$?6U?$char_traits@D@std@@@std@@YAAAV?$basic_ostream@DU?$char_traits@D@std@@@0@AAV10@PBD@Z$3:
  00000	8d 4d d8	 lea	 ecx, DWORD PTR __Ok$[ebp]
  00003	e9 00 00 00 00	 jmp	 ??1_Sentry_base@?$basic_ostream@DU?$char_traits@D@std@@@std@@QAE@XZ ; std::basic_ostream<char,std::char_traits<char> >::_Sentry_base::~_Sentry_base
__unwindfunclet$??$?6U?$char_traits@D@std@@@std@@YAAAV?$basic_ostream@DU?$char_traits@D@std@@@0@AAV10@PBD@Z$2:
  00008	8d 4d d8	 lea	 ecx, DWORD PTR __Ok$[ebp]
  0000b	e9 00 00 00 00	 jmp	 ??1sentry@?$basic_ostream@DU?$char_traits@D@std@@@std@@QAE@XZ ; std::basic_ostream<char,std::char_traits<char> >::sentry::~sentry
__unwindfunclet$??$?6U?$char_traits@D@std@@@std@@YAAAV?$basic_ostream@DU?$char_traits@D@std@@@0@AAV10@PBD@Z$13:
  00010	8d 4d d8	 lea	 ecx, DWORD PTR __Ok$[ebp]
  00013	e9 00 00 00 00	 jmp	 ??1_Sentry_base@?$basic_ostream@DU?$char_traits@D@std@@@std@@QAE@XZ ; std::basic_ostream<char,std::char_traits<char> >::_Sentry_base::~_Sentry_base
__ehhandler$??$?6U?$char_traits@D@std@@@std@@YAAAV?$basic_ostream@DU?$char_traits@D@std@@@0@AAV10@PBD@Z:
  00018	8b 54 24 08	 mov	 edx, DWORD PTR [esp+8]
  0001c	8d 42 0c	 lea	 eax, DWORD PTR [edx+12]
  0001f	8b 4a d4	 mov	 ecx, DWORD PTR [edx-44]
  00022	33 c8		 xor	 ecx, eax
  00024	e8 00 00 00 00	 call	 @__security_check_cookie@4
  00029	b8 00 00 00 00	 mov	 eax, OFFSET __ehfuncinfo$??$?6U?$char_traits@D@std@@@std@@YAAAV?$basic_ostream@DU?$char_traits@D@std@@@0@AAV10@PBD@Z
  0002e	e9 00 00 00 00	 jmp	 ___CxxFrameHandler3
text$x	ENDS
??$?6U?$char_traits@D@std@@@std@@YAAAV?$basic_ostream@DU?$char_traits@D@std@@@0@AAV10@PBD@Z ENDP ; std::operator<<<std::char_traits<char> >
PUBLIC	__$ArrayPad$
;	COMDAT xdata$x
; File d:\program files (x86)\microsoft visual studio 10.0\vc\include\iosfwd
xdata$x	SEGMENT
__unwindtable$?overflow@?$basic_filebuf@DU?$char_traits@D@std@@@std@@MAEHH@Z DD 0ffffffffH
	DD	FLAT:__unwindfunclet$?overflow@?$basic_filebuf@DU?$char_traits@D@std@@@std@@MAEHH@Z$0
__ehfuncinfo$?overflow@?$basic_filebuf@DU?$char_traits@D@std@@@std@@MAEHH@Z DD 019930522H
	DD	01H
	DD	FLAT:__unwindtable$?overflow@?$basic_filebuf@DU?$char_traits@D@std@@@std@@MAEHH@Z
	DD	2 DUP(00H)
	DD	2 DUP(00H)
	DD	00H
	DD	01H
; Function compile flags: /Ogtp
; File d:\program files (x86)\microsoft visual studio 10.0\vc\include\fstream
xdata$x	ENDS
;	COMDAT ?overflow@?$basic_filebuf@DU?$char_traits@D@std@@@std@@MAEHH@Z
_TEXT	SEGMENT
__Src$208239 = -56					; size = 4
__Dest$208240 = -52					; size = 4
__Ch$208238 = -48					; size = 1
__Str$208241 = -44					; size = 28
__$ArrayPad$ = -16					; size = 4
__$EHRec$ = -12						; size = 12
__Meta$ = 8						; size = 4
?overflow@?$basic_filebuf@DU?$char_traits@D@std@@@std@@MAEHH@Z PROC ; std::basic_filebuf<char,std::char_traits<char> >::overflow, COMDAT
; _this$ = ecx

; 322  : 		{	// put an element to stream

  00000	55		 push	 ebp
  00001	8b ec		 mov	 ebp, esp
  00003	6a ff		 push	 -1
  00005	68 00 00 00 00	 push	 __ehhandler$?overflow@?$basic_filebuf@DU?$char_traits@D@std@@@std@@MAEHH@Z
  0000a	64 a1 00 00 00
	00		 mov	 eax, DWORD PTR fs:0
  00010	50		 push	 eax
  00011	83 ec 2c	 sub	 esp, 44			; 0000002cH
  00014	a1 00 00 00 00	 mov	 eax, DWORD PTR ___security_cookie
  00019	33 c5		 xor	 eax, ebp
  0001b	89 45 f0	 mov	 DWORD PTR __$ArrayPad$[ebp], eax
  0001e	53		 push	 ebx
  0001f	56		 push	 esi
  00020	57		 push	 edi
  00021	50		 push	 eax
  00022	8d 45 f4	 lea	 eax, DWORD PTR __$EHRec$[ebp]
  00025	64 a3 00 00 00
	00		 mov	 DWORD PTR fs:0, eax

; 323  : 		if (_Traits::eq_int_type(_Traits::eof(), _Meta))

  0002b	8b 5d 08	 mov	 ebx, DWORD PTR __Meta$[ebp]

; 324  : 			return (_Traits::not_eof(_Meta));	// EOF, return success code

  0002e	33 c0		 xor	 eax, eax
  00030	8b f1		 mov	 esi, ecx
  00032	83 fb ff	 cmp	 ebx, -1
  00035	0f 84 94 01 00
	00		 je	 $LN14@overflow

; 325  : 		else if (_Mysb::pptr() != 0
; 326  : 			&& _Mysb::pptr() < _Mysb::epptr())

  0003b	8b 4e 24	 mov	 ecx, DWORD PTR [esi+36]
  0003e	8b 11		 mov	 edx, DWORD PTR [ecx]
  00040	3b d0		 cmp	 edx, eax
  00042	74 20		 je	 SHORT $LN18@overflow
  00044	8b 4e 34	 mov	 ecx, DWORD PTR [esi+52]
  00047	8b 39		 mov	 edi, DWORD PTR [ecx]
  00049	03 fa		 add	 edi, edx
  0004b	3b d7		 cmp	 edx, edi
  0004d	73 15		 jae	 SHORT $LN18@overflow

; 327  : 			{	// room in buffer, store it
; 328  : 			*_Mysb::_Pninc() = _Traits::to_char_type(_Meta);

  0004f	ff 09		 dec	 DWORD PTR [ecx]
  00051	8b 76 24	 mov	 esi, DWORD PTR [esi+36]
  00054	8b 06		 mov	 eax, DWORD PTR [esi]
  00056	8d 48 01	 lea	 ecx, DWORD PTR [eax+1]
  00059	89 0e		 mov	 DWORD PTR [esi], ecx
  0005b	88 18		 mov	 BYTE PTR [eax], bl

; 329  : 			return (_Meta);

  0005d	8b c3		 mov	 eax, ebx
  0005f	e9 6b 01 00 00	 jmp	 $LN14@overflow
$LN18@overflow:

; 330  : 			}
; 331  : 		else if (_Myfile == 0)

  00064	39 46 54	 cmp	 DWORD PTR [esi+84], eax

; 332  : 			return (_Traits::eof());	// no open C stream, fail

  00067	0f 84 5f 01 00
	00		 je	 $LN270@overflow

; 333  : 		_Reset_back();	// revert from _Mychar buffer

  0006d	8b 56 10	 mov	 edx, DWORD PTR [esi+16]
  00070	8d 7e 48	 lea	 edi, DWORD PTR [esi+72]
  00073	39 3a		 cmp	 DWORD PTR [edx], edi
  00075	75 14		 jne	 SHORT $LN57@overflow
  00077	8b 4e 40	 mov	 ecx, DWORD PTR [esi+64]
  0007a	8b 7e 3c	 mov	 edi, DWORD PTR [esi+60]
  0007d	89 3a		 mov	 DWORD PTR [edx], edi
  0007f	8b 56 20	 mov	 edx, DWORD PTR [esi+32]
  00082	89 0a		 mov	 DWORD PTR [edx], ecx
  00084	8b 56 30	 mov	 edx, DWORD PTR [esi+48]
  00087	2b c9		 sub	 ecx, ecx
  00089	89 0a		 mov	 DWORD PTR [edx], ecx
$LN57@overflow:

; 334  : 		if (_Pcvt == 0)

  0008b	39 46 44	 cmp	 DWORD PTR [esi+68], eax
  0008e	75 20		 jne	 SHORT $LN15@overflow

; 335  : 			return (_Fputc(_Traits::to_char_type(_Meta), _Myfile)
; 336  : 				? _Meta : _Traits::eof());	// no codecvt facet, put as is

  00090	8b 76 54	 mov	 esi, DWORD PTR [esi+84]
  00093	0f be c3	 movsx	 eax, bl
  00096	56		 push	 esi
  00097	50		 push	 eax
  00098	e8 00 00 00 00	 call	 _fputc
  0009d	83 c4 08	 add	 esp, 8
  000a0	83 f8 ff	 cmp	 eax, -1
  000a3	0f 84 23 01 00
	00		 je	 $LN270@overflow
  000a9	8b c3		 mov	 eax, ebx
  000ab	e9 1f 01 00 00	 jmp	 $LN14@overflow
$LN15@overflow:

; 337  : 		else
; 338  : 			{	// put using codecvt facet
; 339  : 			const int _STRING_INC = 8;
; 340  : 			const _Elem _Ch = _Traits::to_char_type(_Meta);
; 341  : 			const _Elem *_Src;
; 342  : 			char *_Dest;
; 343  : 
; 344  : 			string _Str(_STRING_INC, '\0');

  000b0	b9 0f 00 00 00	 mov	 ecx, 15			; 0000000fH
  000b5	8b d0		 mov	 edx, eax
  000b7	88 45 d4	 mov	 BYTE PTR __Str$208241[ebp], al
  000ba	88 5d d0	 mov	 BYTE PTR __Ch$208238[ebp], bl
  000bd	89 4d e8	 mov	 DWORD PTR __Str$208241[ebp+20], ecx
  000c0	89 55 d4	 mov	 DWORD PTR __Str$208241[ebp], edx
  000c3	89 45 d8	 mov	 DWORD PTR __Str$208241[ebp+4], eax
  000c6	c7 45 e4 08 00
	00 00		 mov	 DWORD PTR __Str$208241[ebp+16], 8
  000cd	83 f9 10	 cmp	 ecx, 16			; 00000010H
  000d0	73 03		 jae	 SHORT $LN168@overflow
  000d2	8d 55 d4	 lea	 edx, DWORD PTR __Str$208241[ebp]
$LN168@overflow:
  000d5	88 42 08	 mov	 BYTE PTR [edx+8], al
  000d8	89 45 fc	 mov	 DWORD PTR __$EHRec$[ebp+8], eax
$LN273@overflow:
  000db	8b 45 d4	 mov	 eax, DWORD PTR __Str$208241[ebp]
  000de	8b 5d e8	 mov	 ebx, DWORD PTR __Str$208241[ebp+20]
$LN13@overflow:

; 345  : 			for (; ; )
; 346  : 				switch (_Pcvt->out(_State,
; 347  : 					&_Ch, &_Ch + 1, _Src,
; 348  : 					&*_Str.begin(), &*_Str.begin() + _Str.size(), _Dest))

  000e1	8b d0		 mov	 edx, eax
  000e3	83 fb 10	 cmp	 ebx, 16			; 00000010H
  000e6	73 05		 jae	 SHORT $LN199@overflow
  000e8	8d 55 d4	 lea	 edx, DWORD PTR __Str$208241[ebp]
  000eb	8b c2		 mov	 eax, edx
$LN199@overflow:
  000ed	03 55 e4	 add	 edx, DWORD PTR __Str$208241[ebp+16]
  000f0	8b 4e 44	 mov	 ecx, DWORD PTR [esi+68]
  000f3	8b 39		 mov	 edi, DWORD PTR [ecx]
  000f5	8d 5d cc	 lea	 ebx, DWORD PTR __Dest$208240[ebp]
  000f8	53		 push	 ebx
  000f9	52		 push	 edx
  000fa	50		 push	 eax
  000fb	8d 55 c8	 lea	 edx, DWORD PTR __Src$208239[ebp]
  000fe	52		 push	 edx
  000ff	8d 45 d1	 lea	 eax, DWORD PTR __Ch$208238[ebp+1]
  00102	50		 push	 eax
  00103	8d 55 d0	 lea	 edx, DWORD PTR __Ch$208238[ebp]
  00106	52		 push	 edx
  00107	8d 46 4c	 lea	 eax, DWORD PTR [esi+76]
  0010a	50		 push	 eax
  0010b	8b 47 14	 mov	 eax, DWORD PTR [edi+20]
  0010e	ff d0		 call	 eax
  00110	85 c0		 test	 eax, eax
  00112	0f 88 ac 00 00
	00		 js	 $LN1@overflow
  00118	83 f8 01	 cmp	 eax, 1
  0011b	7f 63		 jg	 SHORT $LN264@overflow

; 349  : 				{	// test result of converting one element
; 350  : 				case codecvt_base::partial:
; 351  : 				case codecvt_base::ok:
; 352  : 					{	// converted something, try to put it out
; 353  : 					size_t _Count = _Dest - &*_Str.begin();

  0011d	8b 5d e8	 mov	 ebx, DWORD PTR __Str$208241[ebp+20]
  00120	8b 45 d4	 mov	 eax, DWORD PTR __Str$208241[ebp]
  00123	8b c8		 mov	 ecx, eax
  00125	83 fb 10	 cmp	 ebx, 16			; 00000010H
  00128	73 03		 jae	 SHORT $LN220@overflow
  0012a	8d 4d d4	 lea	 ecx, DWORD PTR __Str$208241[ebp]
$LN220@overflow:
  0012d	8b 7d cc	 mov	 edi, DWORD PTR __Dest$208240[ebp]
  00130	2b f9		 sub	 edi, ecx

; 354  : 					if (0 < _Count && _Count !=
; 355  : 						fwrite(&*_Str.begin(), 1, _Count, _Myfile))

  00132	74 22		 je	 SHORT $LN8@overflow
  00134	83 fb 10	 cmp	 ebx, 16			; 00000010H
  00137	73 03		 jae	 SHORT $LN239@overflow
  00139	8d 45 d4	 lea	 eax, DWORD PTR __Str$208241[ebp]
$LN239@overflow:
  0013c	8b 4e 54	 mov	 ecx, DWORD PTR [esi+84]
  0013f	51		 push	 ecx
  00140	57		 push	 edi
  00141	6a 01		 push	 1
  00143	50		 push	 eax
  00144	e8 00 00 00 00	 call	 _fwrite
  00149	83 c4 10	 add	 esp, 16			; 00000010H
  0014c	3b f8		 cmp	 edi, eax
  0014e	75 74		 jne	 SHORT $LN1@overflow
  00150	8b 5d e8	 mov	 ebx, DWORD PTR __Str$208241[ebp+20]
  00153	8b 45 d4	 mov	 eax, DWORD PTR __Str$208241[ebp]
$LN8@overflow:

; 356  : 						return (_Traits::eof());	// write failed
; 357  : 
; 358  : 					_Wrotesome = true;	// write succeeded
; 359  : 					if (_Src != &_Ch)

  00156	8d 55 d0	 lea	 edx, DWORD PTR __Ch$208238[ebp]
  00159	c6 46 49 01	 mov	 BYTE PTR [esi+73], 1
  0015d	39 55 c8	 cmp	 DWORD PTR __Src$208239[ebp], edx
  00160	75 55		 jne	 SHORT $LN266@overflow

; 361  : 
; 362  : 					if (0 < _Count)

  00162	85 ff		 test	 edi, edi
  00164	0f 85 77 ff ff
	ff		 jne	 $LN13@overflow

; 363  : 						;
; 364  : 					else if (_Str.size() < 4 * _STRING_INC)

  0016a	83 7d e4 20	 cmp	 DWORD PTR __Str$208241[ebp+16], 32 ; 00000020H

; 365  : 						_Str.append(_STRING_INC, '\0');	// try with more space

  0016e	8d 4d d4	 lea	 ecx, DWORD PTR __Str$208241[ebp]
  00171	73 54		 jae	 SHORT $LN4@overflow
  00173	57		 push	 edi
  00174	6a 08		 push	 8
  00176	e8 00 00 00 00	 call	 ?append@?$basic_string@DU?$char_traits@D@std@@V?$allocator@D@2@@std@@QAEAAV12@ID@Z ; std::basic_string<char,std::char_traits<char>,std::allocator<char> >::append

; 377  : 				}

  0017b	e9 5b ff ff ff	 jmp	 $LN273@overflow
$LN264@overflow:

; 345  : 			for (; ; )
; 346  : 				switch (_Pcvt->out(_State,
; 347  : 					&_Ch, &_Ch + 1, _Src,
; 348  : 					&*_Str.begin(), &*_Str.begin() + _Str.size(), _Dest))

  00180	83 f8 03	 cmp	 eax, 3
  00183	75 3f		 jne	 SHORT $LN1@overflow

; 366  : 					else
; 367  : 						return (_Traits::eof());	// conversion failed
; 368  : 					break;
; 369  : 					}
; 370  : 
; 371  : 				case codecvt_base::noconv:
; 372  : 					return (_Fputc(_Ch, _Myfile) ? _Meta
; 373  : 						: _Traits::eof());	// no conversion, put as is

  00185	8b 46 54	 mov	 eax, DWORD PTR [esi+84]
  00188	8b 4d d0	 mov	 ecx, DWORD PTR __Ch$208238[ebp]
  0018b	50		 push	 eax
  0018c	51		 push	 ecx
  0018d	e8 00 00 00 00	 call	 ??$_Fputc@D@std@@YA_NDPAU_iobuf@@@Z ; std::_Fputc<char>
  00192	83 c4 08	 add	 esp, 8
  00195	84 c0		 test	 al, al
  00197	74 0f		 je	 SHORT $LN25@overflow
  00199	8b 75 08	 mov	 esi, DWORD PTR __Meta$[ebp]
  0019c	8d 4d d4	 lea	 ecx, DWORD PTR __Str$208241[ebp]
  0019f	e8 00 00 00 00	 call	 ??1?$basic_string@DU?$char_traits@D@std@@V?$allocator@D@2@@std@@QAE@XZ ; std::basic_string<char,std::char_traits<char>,std::allocator<char> >::~basic_string<char,std::char_traits<char>,std::allocator<char> >
  001a4	8b c6		 mov	 eax, esi
  001a6	eb 27		 jmp	 SHORT $LN14@overflow
$LN25@overflow:
  001a8	8d 4d d4	 lea	 ecx, DWORD PTR __Str$208241[ebp]
  001ab	83 ce ff	 or	 esi, -1
  001ae	e8 00 00 00 00	 call	 ??1?$basic_string@DU?$char_traits@D@std@@V?$allocator@D@2@@std@@QAE@XZ ; std::basic_string<char,std::char_traits<char>,std::allocator<char> >::~basic_string<char,std::char_traits<char>,std::allocator<char> >
  001b3	8b c6		 mov	 eax, esi
  001b5	eb 18		 jmp	 SHORT $LN14@overflow
$LN266@overflow:

; 360  : 						return (_Meta);	// converted whole element

  001b7	8d 4d d4	 lea	 ecx, DWORD PTR __Str$208241[ebp]
  001ba	e8 00 00 00 00	 call	 ??1?$basic_string@DU?$char_traits@D@std@@V?$allocator@D@2@@std@@QAE@XZ ; std::basic_string<char,std::char_traits<char>,std::allocator<char> >::~basic_string<char,std::char_traits<char>,std::allocator<char> >
  001bf	8b 45 08	 mov	 eax, DWORD PTR __Meta$[ebp]
  001c2	eb 0b		 jmp	 SHORT $LN14@overflow
$LN1@overflow:

; 374  : 
; 375  : 				default:
; 376  : 					return (_Traits::eof());	// conversion failed

  001c4	8d 4d d4	 lea	 ecx, DWORD PTR __Str$208241[ebp]
$LN4@overflow:
  001c7	e8 00 00 00 00	 call	 ??1?$basic_string@DU?$char_traits@D@std@@V?$allocator@D@2@@std@@QAE@XZ ; std::basic_string<char,std::char_traits<char>,std::allocator<char> >::~basic_string<char,std::char_traits<char>,std::allocator<char> >
$LN270@overflow:
  001cc	83 c8 ff	 or	 eax, -1
$LN14@overflow:

; 378  : 			}
; 379  : 		}

  001cf	8b 4d f4	 mov	 ecx, DWORD PTR __$EHRec$[ebp]
  001d2	64 89 0d 00 00
	00 00		 mov	 DWORD PTR fs:0, ecx
  001d9	59		 pop	 ecx
  001da	5f		 pop	 edi
  001db	5e		 pop	 esi
  001dc	5b		 pop	 ebx
  001dd	8b 4d f0	 mov	 ecx, DWORD PTR __$ArrayPad$[ebp]
  001e0	33 cd		 xor	 ecx, ebp
  001e2	e8 00 00 00 00	 call	 @__security_check_cookie@4
  001e7	8b e5		 mov	 esp, ebp
  001e9	5d		 pop	 ebp
  001ea	c2 04 00	 ret	 4
_TEXT	ENDS
;	COMDAT text$x
text$x	SEGMENT
__unwindfunclet$?overflow@?$basic_filebuf@DU?$char_traits@D@std@@@std@@MAEHH@Z$0:
  00000	8d 4d d4	 lea	 ecx, DWORD PTR __Str$208241[ebp]
  00003	e9 00 00 00 00	 jmp	 ??1?$basic_string@DU?$char_traits@D@std@@V?$allocator@D@2@@std@@QAE@XZ ; std::basic_string<char,std::char_traits<char>,std::allocator<char> >::~basic_string<char,std::char_traits<char>,std::allocator<char> >
__ehhandler$?overflow@?$basic_filebuf@DU?$char_traits@D@std@@@std@@MAEHH@Z:
  00008	8b 54 24 08	 mov	 edx, DWORD PTR [esp+8]
  0000c	8d 42 0c	 lea	 eax, DWORD PTR [edx+12]
  0000f	8b 4a c4	 mov	 ecx, DWORD PTR [edx-60]
  00012	33 c8		 xor	 ecx, eax
  00014	e8 00 00 00 00	 call	 @__security_check_cookie@4
  00019	8b 4a fc	 mov	 ecx, DWORD PTR [edx-4]
  0001c	33 c8		 xor	 ecx, eax
  0001e	e8 00 00 00 00	 call	 @__security_check_cookie@4
  00023	b8 00 00 00 00	 mov	 eax, OFFSET __ehfuncinfo$?overflow@?$basic_filebuf@DU?$char_traits@D@std@@@std@@MAEHH@Z
  00028	e9 00 00 00 00	 jmp	 ___CxxFrameHandler3
text$x	ENDS
?overflow@?$basic_filebuf@DU?$char_traits@D@std@@@std@@MAEHH@Z ENDP ; std::basic_filebuf<char,std::char_traits<char> >::overflow
EXTRN	_fgetpos:PROC
EXTRN	__fseeki64:PROC
; Function compile flags: /Ogtp
;	COMDAT ?seekoff@?$basic_filebuf@DU?$char_traits@D@std@@@std@@MAE?AV?$fpos@H@2@_JHH@Z
_TEXT	SEGMENT
___$ReturnUdt$ = 8					; size = 4
__Fileposition$ = 12					; size = 8
__Off$ = 12						; size = 8
__Way$ = 20						; size = 4
___formal$ = 24						; size = 4
?seekoff@?$basic_filebuf@DU?$char_traits@D@std@@@std@@MAE?AV?$fpos@H@2@_JHH@Z PROC ; std::basic_filebuf<char,std::char_traits<char> >::seekoff, COMDAT
; _this$ = ecx

; 490  : 		{	// change position by _Off

  00000	55		 push	 ebp
  00001	8b ec		 mov	 ebp, esp
  00003	53		 push	 ebx
  00004	56		 push	 esi
  00005	8b f1		 mov	 esi, ecx

; 491  : 		fpos_t _Fileposition;
; 492  : 
; 493  : 		if (_Mysb::gptr() == &_Mychar	// something putback
; 494  : 			&& _Way == ios_base::cur	// a relative seek
; 495  : 			&& _Pcvt == 0)	// not converting

  00007	8b 4e 20	 mov	 ecx, DWORD PTR [esi+32]
  0000a	8d 46 48	 lea	 eax, DWORD PTR [esi+72]
  0000d	57		 push	 edi
  0000e	39 01		 cmp	 DWORD PTR [ecx], eax
  00010	75 1a		 jne	 SHORT $LN22@seekoff
  00012	83 7d 14 01	 cmp	 DWORD PTR __Way$[ebp], 1
  00016	75 14		 jne	 SHORT $LN22@seekoff
  00018	83 7e 44 00	 cmp	 DWORD PTR [esi+68], 0
  0001c	75 0e		 jne	 SHORT $LN22@seekoff

; 496  : 			_Off -= (off_type)sizeof (_Elem);	// back up over _Elem bytes

  0001e	8b 5d 0c	 mov	 ebx, DWORD PTR __Off$[ebp]
  00021	8b 7d 10	 mov	 edi, DWORD PTR __Off$[ebp+4]
  00024	83 c3 ff	 add	 ebx, -1
  00027	83 d7 ff	 adc	 edi, -1
  0002a	eb 06		 jmp	 SHORT $LN5@seekoff
$LN22@seekoff:
  0002c	8b 7d 10	 mov	 edi, DWORD PTR __Off$[ebp+4]
  0002f	8b 5d 0c	 mov	 ebx, DWORD PTR __Off$[ebp]
$LN5@seekoff:

; 497  : 
; 498  : 		if (_Myfile == 0 || !_Endwrite()
; 499  : 			|| (_Off != 0 || _Way != ios_base::cur)
; 500  : 				&& _FSEEK_OFF(_Myfile, _Off, _Way) != 0
; 501  : 			|| fgetpos(_Myfile, &_Fileposition) != 0)

  00032	83 7e 54 00	 cmp	 DWORD PTR [esi+84], 0
  00036	0f 84 88 00 00
	00		 je	 $LN24@seekoff
  0003c	8b ce		 mov	 ecx, esi
  0003e	e8 00 00 00 00	 call	 ?_Endwrite@?$basic_filebuf@DU?$char_traits@D@std@@@std@@IAE_NXZ ; std::basic_filebuf<char,std::char_traits<char> >::_Endwrite
  00043	84 c0		 test	 al, al
  00045	74 7d		 je	 SHORT $LN24@seekoff
  00047	8b d3		 mov	 edx, ebx
  00049	0b d7		 or	 edx, edi
  0004b	75 06		 jne	 SHORT $LN23@seekoff
  0004d	83 7d 14 01	 cmp	 DWORD PTR __Way$[ebp], 1
  00051	74 16		 je	 SHORT $LN2@seekoff
$LN23@seekoff:
  00053	8b 45 14	 mov	 eax, DWORD PTR __Way$[ebp]
  00056	8b 4e 54	 mov	 ecx, DWORD PTR [esi+84]
  00059	50		 push	 eax
  0005a	57		 push	 edi
  0005b	53		 push	 ebx
  0005c	51		 push	 ecx
  0005d	e8 00 00 00 00	 call	 __fseeki64
  00062	83 c4 10	 add	 esp, 16			; 00000010H
  00065	85 c0		 test	 eax, eax
  00067	75 5b		 jne	 SHORT $LN24@seekoff
$LN2@seekoff:
  00069	8b 46 54	 mov	 eax, DWORD PTR [esi+84]
  0006c	8d 55 0c	 lea	 edx, DWORD PTR __Fileposition$[ebp]
  0006f	52		 push	 edx
  00070	50		 push	 eax
  00071	e8 00 00 00 00	 call	 _fgetpos
  00076	83 c4 08	 add	 esp, 8
  00079	85 c0		 test	 eax, eax
  0007b	75 47		 jne	 SHORT $LN24@seekoff

; 503  : 
; 504  : 		_Reset_back();	// revert from _Mychar buffer, discarding any putback

  0007d	8b 4e 10	 mov	 ecx, DWORD PTR [esi+16]
  00080	8d 46 48	 lea	 eax, DWORD PTR [esi+72]
  00083	39 01		 cmp	 DWORD PTR [ecx], eax
  00085	75 14		 jne	 SHORT $LN17@seekoff
  00087	8b 56 3c	 mov	 edx, DWORD PTR [esi+60]
  0008a	8b 46 40	 mov	 eax, DWORD PTR [esi+64]
  0008d	89 11		 mov	 DWORD PTR [ecx], edx
  0008f	8b 4e 20	 mov	 ecx, DWORD PTR [esi+32]
  00092	89 01		 mov	 DWORD PTR [ecx], eax
  00094	8b 56 30	 mov	 edx, DWORD PTR [esi+48]
  00097	2b c0		 sub	 eax, eax
  00099	89 02		 mov	 DWORD PTR [edx], eax
$LN17@seekoff:

; 505  : 		return (_POS_TYPE_FROM_STATE(pos_type, _State,

  0009b	8b 45 08	 mov	 eax, DWORD PTR ___$ReturnUdt$[ebp]
  0009e	8b 4d 0c	 mov	 ecx, DWORD PTR __Fileposition$[ebp]
  000a1	8b 55 10	 mov	 edx, DWORD PTR __Fileposition$[ebp+4]
  000a4	5f		 pop	 edi
  000a5	89 48 08	 mov	 DWORD PTR [eax+8], ecx
  000a8	8b 4e 4c	 mov	 ecx, DWORD PTR [esi+76]
  000ab	5e		 pop	 esi
  000ac	c7 00 00 00 00
	00		 mov	 DWORD PTR [eax], 0
  000b2	c7 40 04 00 00
	00 00		 mov	 DWORD PTR [eax+4], 0
  000b9	89 50 0c	 mov	 DWORD PTR [eax+12], edx
  000bc	89 48 10	 mov	 DWORD PTR [eax+16], ecx
  000bf	5b		 pop	 ebx

; 506  : 			_Fileposition));	// return new position
; 507  : 		}

  000c0	5d		 pop	 ebp
  000c1	c2 14 00	 ret	 20			; 00000014H
$LN24@seekoff:

; 502  : 			return (pos_type(_BADOFF));	// report failure

  000c4	8b 45 08	 mov	 eax, DWORD PTR ___$ReturnUdt$[ebp]
  000c7	8b 0d 04 00 00
	00		 mov	 ecx, DWORD PTR ?_BADOFF@std@@3_JB+4
  000cd	8b 15 00 00 00
	00		 mov	 edx, DWORD PTR ?_BADOFF@std@@3_JB
  000d3	5f		 pop	 edi
  000d4	89 48 04	 mov	 DWORD PTR [eax+4], ecx
  000d7	33 c9		 xor	 ecx, ecx
  000d9	5e		 pop	 esi
  000da	89 10		 mov	 DWORD PTR [eax], edx
  000dc	89 48 08	 mov	 DWORD PTR [eax+8], ecx
  000df	89 48 0c	 mov	 DWORD PTR [eax+12], ecx
  000e2	89 48 10	 mov	 DWORD PTR [eax+16], ecx
  000e5	5b		 pop	 ebx

; 506  : 			_Fileposition));	// return new position
; 507  : 		}

  000e6	5d		 pop	 ebp
  000e7	c2 14 00	 ret	 20			; 00000014H
?seekoff@?$basic_filebuf@DU?$char_traits@D@std@@@std@@MAE?AV?$fpos@H@2@_JHH@Z ENDP ; std::basic_filebuf<char,std::char_traits<char> >::seekoff
_TEXT	ENDS
EXTRN	_fsetpos:PROC
; Function compile flags: /Ogtp
;	COMDAT ?seekpos@?$basic_filebuf@DU?$char_traits@D@std@@@std@@MAE?AV?$fpos@H@2@V32@H@Z
_TEXT	SEGMENT
__Fileposition$ = -8					; size = 8
___$ReturnUdt$ = 8					; size = 4
__Pos$ = 12						; size = 24
___formal$ = 36						; size = 4
?seekpos@?$basic_filebuf@DU?$char_traits@D@std@@@std@@MAE?AV?$fpos@H@2@V32@H@Z PROC ; std::basic_filebuf<char,std::char_traits<char> >::seekpos, COMDAT
; _this$ = ecx

; 512  : 		{	// change position to _Pos

  00000	55		 push	 ebp
  00001	8b ec		 mov	 ebp, esp
  00003	83 ec 08	 sub	 esp, 8

; 513  : 		fpos_t _Fileposition = _POS_TYPE_TO_FPOS_T(_Pos);

  00006	8b 45 14	 mov	 eax, DWORD PTR __Pos$[ebp+8]
  00009	53		 push	 ebx

; 514  : 		off_type _Off = (off_type)_Pos - (off_type)_FPOSOFF(_Fileposition);

  0000a	8b 5d 10	 mov	 ebx, DWORD PTR __Pos$[ebp+4]
  0000d	56		 push	 esi
  0000e	8b f1		 mov	 esi, ecx
  00010	8b 4d 18	 mov	 ecx, DWORD PTR __Pos$[ebp+12]
  00013	89 4d fc	 mov	 DWORD PTR __Fileposition$[ebp+4], ecx

; 515  : 
; 516  : 		if (_Myfile == 0 || !_Endwrite()
; 517  : 			|| fsetpos(_Myfile, &_Fileposition) != 0
; 518  : 			|| _Off != 0 && _FSEEK_OFF(_Myfile, _Off, SEEK_CUR) != 0
; 519  : 			|| fgetpos(_Myfile, &_Fileposition) != 0)

  00016	33 c9		 xor	 ecx, ecx
  00018	57		 push	 edi
  00019	8b 7d 0c	 mov	 edi, DWORD PTR __Pos$[ebp]
  0001c	89 45 f8	 mov	 DWORD PTR __Fileposition$[ebp], eax
  0001f	39 4e 54	 cmp	 DWORD PTR [esi+84], ecx
  00022	0f 84 87 00 00
	00		 je	 $LN2@seekpos
  00028	8b ce		 mov	 ecx, esi
  0002a	e8 00 00 00 00	 call	 ?_Endwrite@?$basic_filebuf@DU?$char_traits@D@std@@@std@@IAE_NXZ ; std::basic_filebuf<char,std::char_traits<char> >::_Endwrite
  0002f	84 c0		 test	 al, al
  00031	74 7a		 je	 SHORT $LN16@seekpos
  00033	8b 46 54	 mov	 eax, DWORD PTR [esi+84]
  00036	8d 55 f8	 lea	 edx, DWORD PTR __Fileposition$[ebp]
  00039	52		 push	 edx
  0003a	50		 push	 eax
  0003b	e8 00 00 00 00	 call	 _fsetpos
  00040	83 c4 08	 add	 esp, 8
  00043	85 c0		 test	 eax, eax
  00045	75 66		 jne	 SHORT $LN16@seekpos
  00047	8b cf		 mov	 ecx, edi
  00049	0b cb		 or	 ecx, ebx
  0004b	74 14		 je	 SHORT $LN1@seekpos
  0004d	8b 56 54	 mov	 edx, DWORD PTR [esi+84]
  00050	6a 01		 push	 1
  00052	53		 push	 ebx
  00053	57		 push	 edi
  00054	52		 push	 edx
  00055	e8 00 00 00 00	 call	 __fseeki64
  0005a	83 c4 10	 add	 esp, 16			; 00000010H
  0005d	85 c0		 test	 eax, eax
  0005f	75 4c		 jne	 SHORT $LN16@seekpos
$LN1@seekpos:
  00061	8b 4e 54	 mov	 ecx, DWORD PTR [esi+84]
  00064	8d 45 f8	 lea	 eax, DWORD PTR __Fileposition$[ebp]
  00067	50		 push	 eax
  00068	51		 push	 ecx
  00069	e8 00 00 00 00	 call	 _fgetpos
  0006e	83 c4 08	 add	 esp, 8
  00071	85 c0		 test	 eax, eax
  00073	75 38		 jne	 SHORT $LN16@seekpos

; 521  : 
; 522  : 		_State = _POS_TYPE_TO_STATE(_Pos);

  00075	8b 55 1c	 mov	 edx, DWORD PTR __Pos$[ebp+16]

; 523  : 
; 524  : 		_Reset_back();	// revert from _Mychar buffer, discarding any putback

  00078	8b ce		 mov	 ecx, esi
  0007a	89 56 4c	 mov	 DWORD PTR [esi+76], edx
  0007d	e8 00 00 00 00	 call	 ?_Reset_back@?$basic_filebuf@DU?$char_traits@D@std@@@std@@AAEXXZ ; std::basic_filebuf<char,std::char_traits<char> >::_Reset_back

; 525  : 		return (_POS_TYPE_FROM_STATE(pos_type, _State,

  00082	8b 45 08	 mov	 eax, DWORD PTR ___$ReturnUdt$[ebp]
  00085	8b 4d f8	 mov	 ecx, DWORD PTR __Fileposition$[ebp]
  00088	8b 55 fc	 mov	 edx, DWORD PTR __Fileposition$[ebp+4]
  0008b	5f		 pop	 edi
  0008c	89 48 08	 mov	 DWORD PTR [eax+8], ecx
  0008f	8b 4e 4c	 mov	 ecx, DWORD PTR [esi+76]
  00092	5e		 pop	 esi
  00093	c7 00 00 00 00
	00		 mov	 DWORD PTR [eax], 0
  00099	c7 40 04 00 00
	00 00		 mov	 DWORD PTR [eax+4], 0
  000a0	89 50 0c	 mov	 DWORD PTR [eax+12], edx
  000a3	89 48 10	 mov	 DWORD PTR [eax+16], ecx
  000a6	5b		 pop	 ebx

; 526  : 			_Fileposition));	// return new position
; 527  : 		}

  000a7	8b e5		 mov	 esp, ebp
  000a9	5d		 pop	 ebp
  000aa	c2 20 00	 ret	 32			; 00000020H
$LN16@seekpos:

; 525  : 		return (_POS_TYPE_FROM_STATE(pos_type, _State,

  000ad	33 c9		 xor	 ecx, ecx
$LN2@seekpos:

; 520  : 			return (pos_type(_BADOFF));	// report failure

  000af	8b 45 08	 mov	 eax, DWORD PTR ___$ReturnUdt$[ebp]
  000b2	8b 15 00 00 00
	00		 mov	 edx, DWORD PTR ?_BADOFF@std@@3_JB
  000b8	5f		 pop	 edi
  000b9	89 10		 mov	 DWORD PTR [eax], edx
  000bb	8b 15 04 00 00
	00		 mov	 edx, DWORD PTR ?_BADOFF@std@@3_JB+4
  000c1	5e		 pop	 esi
  000c2	89 50 04	 mov	 DWORD PTR [eax+4], edx
  000c5	89 48 08	 mov	 DWORD PTR [eax+8], ecx
  000c8	89 48 0c	 mov	 DWORD PTR [eax+12], ecx
  000cb	89 48 10	 mov	 DWORD PTR [eax+16], ecx
  000ce	5b		 pop	 ebx

; 526  : 			_Fileposition));	// return new position
; 527  : 		}

  000cf	8b e5		 mov	 esp, ebp
  000d1	5d		 pop	 ebp
  000d2	c2 20 00	 ret	 32			; 00000020H
?seekpos@?$basic_filebuf@DU?$char_traits@D@std@@@std@@MAE?AV?$fpos@H@2@V32@H@Z ENDP ; std::basic_filebuf<char,std::char_traits<char> >::seekpos
_TEXT	ENDS
PUBLIC	?close@?$basic_filebuf@DU?$char_traits@D@std@@@std@@QAEPAV12@XZ ; std::basic_filebuf<char,std::char_traits<char> >::close
; Function compile flags: /Ogtp
;	COMDAT ?close@?$basic_filebuf@DU?$char_traits@D@std@@@std@@QAEPAV12@XZ
_TEXT	SEGMENT
?close@?$basic_filebuf@DU?$char_traits@D@std@@@std@@QAEPAV12@XZ PROC ; std::basic_filebuf<char,std::char_traits<char> >::close, COMDAT
; _this$ = ecx

; 292  : 		{	// close the C stream

  00000	53		 push	 ebx
  00001	56		 push	 esi
  00002	8b f1		 mov	 esi, ecx

; 293  : 		_Myt *_Ans = this;
; 294  : 		if (_Myfile == 0)

  00004	33 db		 xor	 ebx, ebx
  00006	57		 push	 edi
  00007	8b fe		 mov	 edi, esi
  00009	39 5e 54	 cmp	 DWORD PTR [esi+84], ebx

; 295  : 			_Ans = 0;
; 296  : 		else

  0000c	74 1b		 je	 SHORT $LN18@close

; 297  : 			{	// put any homing sequence and close file
; 298  : 			if (!_Endwrite())

  0000e	e8 00 00 00 00	 call	 ?_Endwrite@?$basic_filebuf@DU?$char_traits@D@std@@@std@@IAE_NXZ ; std::basic_filebuf<char,std::char_traits<char> >::_Endwrite
  00013	84 c0		 test	 al, al
  00015	75 02		 jne	 SHORT $LN2@close

; 299  : 				_Ans = 0;

  00017	33 ff		 xor	 edi, edi
$LN2@close:

; 300  : 			if (fclose(_Myfile) != 0)

  00019	8b 46 54	 mov	 eax, DWORD PTR [esi+84]
  0001c	50		 push	 eax
  0001d	e8 00 00 00 00	 call	 _fclose
  00022	83 c4 04	 add	 esp, 4
  00025	85 c0		 test	 eax, eax
  00027	74 02		 je	 SHORT $LN1@close
$LN18@close:

; 301  : 				_Ans = 0;

  00029	33 ff		 xor	 edi, edi
$LN1@close:

; 302  : 			}
; 303  : 		_Init(0, _Closefl);

  0002b	8d 4e 08	 lea	 ecx, DWORD PTR [esi+8]
  0002e	89 4e 10	 mov	 DWORD PTR [esi+16], ecx
  00031	88 5e 50	 mov	 BYTE PTR [esi+80], bl
  00034	88 5e 49	 mov	 BYTE PTR [esi+73], bl
  00037	8d 56 18	 lea	 edx, DWORD PTR [esi+24]
  0003a	89 56 20	 mov	 DWORD PTR [esi+32], edx
  0003d	8d 4e 1c	 lea	 ecx, DWORD PTR [esi+28]
  00040	89 4e 24	 mov	 DWORD PTR [esi+36], ecx
  00043	8d 46 0c	 lea	 eax, DWORD PTR [esi+12]
  00046	89 46 14	 mov	 DWORD PTR [esi+20], eax
  00049	8d 56 28	 lea	 edx, DWORD PTR [esi+40]
  0004c	89 56 30	 mov	 DWORD PTR [esi+48], edx
  0004f	8d 4e 2c	 lea	 ecx, DWORD PTR [esi+44]
  00052	89 4e 34	 mov	 DWORD PTR [esi+52], ecx
  00055	89 18		 mov	 DWORD PTR [eax], ebx
  00057	8b 56 24	 mov	 edx, DWORD PTR [esi+36]
  0005a	89 1a		 mov	 DWORD PTR [edx], ebx
  0005c	8b 46 34	 mov	 eax, DWORD PTR [esi+52]
  0005f	89 18		 mov	 DWORD PTR [eax], ebx
  00061	8b 4e 10	 mov	 ecx, DWORD PTR [esi+16]
  00064	89 19		 mov	 DWORD PTR [ecx], ebx
  00066	8b 56 20	 mov	 edx, DWORD PTR [esi+32]
  00069	89 1a		 mov	 DWORD PTR [edx], ebx
  0006b	8b 46 30	 mov	 eax, DWORD PTR [esi+48]
  0006e	89 18		 mov	 DWORD PTR [eax], ebx
  00070	89 5e 54	 mov	 DWORD PTR [esi+84], ebx
  00073	8b 0d 00 00 00
	00		 mov	 ecx, DWORD PTR ?_Stinit@?1??_Init@?$basic_filebuf@DU?$char_traits@D@std@@@std@@IAEXPAU_iobuf@@W4_Initfl@23@@Z@4HA

; 304  : 		return (_Ans);

  00079	8b c7		 mov	 eax, edi
  0007b	5f		 pop	 edi
  0007c	89 5e 44	 mov	 DWORD PTR [esi+68], ebx
  0007f	89 4e 4c	 mov	 DWORD PTR [esi+76], ecx
  00082	5e		 pop	 esi
  00083	5b		 pop	 ebx

; 305  : 		}

  00084	c3		 ret	 0
?close@?$basic_filebuf@DU?$char_traits@D@std@@@std@@QAEPAV12@XZ ENDP ; std::basic_filebuf<char,std::char_traits<char> >::close
_TEXT	ENDS
PUBLIC	??1?$basic_filebuf@DU?$char_traits@D@std@@@std@@UAE@XZ ; std::basic_filebuf<char,std::char_traits<char> >::~basic_filebuf<char,std::char_traits<char> >
;	COMDAT xdata$x
; File d:\program files (x86)\microsoft visual studio 10.0\vc\include\streambuf
xdata$x	SEGMENT
__unwindtable$??1?$basic_filebuf@DU?$char_traits@D@std@@@std@@UAE@XZ DD 0ffffffffH
	DD	FLAT:__unwindfunclet$??1?$basic_filebuf@DU?$char_traits@D@std@@@std@@UAE@XZ$0
__ehfuncinfo$??1?$basic_filebuf@DU?$char_traits@D@std@@@std@@UAE@XZ DD 019930522H
	DD	01H
	DD	FLAT:__unwindtable$??1?$basic_filebuf@DU?$char_traits@D@std@@@std@@UAE@XZ
	DD	2 DUP(00H)
	DD	2 DUP(00H)
	DD	00H
	DD	01H
; Function compile flags: /Ogtp
; File d:\program files (x86)\microsoft visual studio 10.0\vc\include\fstream
xdata$x	ENDS
;	COMDAT ??1?$basic_filebuf@DU?$char_traits@D@std@@@std@@UAE@XZ
_TEXT	SEGMENT
_this$ = -16						; size = 4
__$EHRec$ = -12						; size = 12
??1?$basic_filebuf@DU?$char_traits@D@std@@@std@@UAE@XZ PROC ; std::basic_filebuf<char,std::char_traits<char> >::~basic_filebuf<char,std::char_traits<char> >, COMDAT
; _this$ = ecx

; 143  : 		{	// destroy the object

  00000	55		 push	 ebp
  00001	8b ec		 mov	 ebp, esp
  00003	6a ff		 push	 -1
  00005	68 00 00 00 00	 push	 __ehhandler$??1?$basic_filebuf@DU?$char_traits@D@std@@@std@@UAE@XZ
  0000a	64 a1 00 00 00
	00		 mov	 eax, DWORD PTR fs:0
  00010	50		 push	 eax
  00011	51		 push	 ecx
  00012	56		 push	 esi
  00013	a1 00 00 00 00	 mov	 eax, DWORD PTR ___security_cookie
  00018	33 c5		 xor	 eax, ebp
  0001a	50		 push	 eax
  0001b	8d 45 f4	 lea	 eax, DWORD PTR __$EHRec$[ebp]
  0001e	64 a3 00 00 00
	00		 mov	 DWORD PTR fs:0, eax
  00024	8b f1		 mov	 esi, ecx
  00026	89 75 f0	 mov	 DWORD PTR _this$[ebp], esi
  00029	c7 06 00 00 00
	00		 mov	 DWORD PTR [esi], OFFSET ??_7?$basic_filebuf@DU?$char_traits@D@std@@@std@@6B@

; 144  : 		if (_Myfile != 0)

  0002f	83 7e 54 00	 cmp	 DWORD PTR [esi+84], 0
  00033	c7 45 fc 00 00
	00 00		 mov	 DWORD PTR __$EHRec$[ebp+8], 0
  0003a	74 1e		 je	 SHORT $LN11@basic_file

; 145  : 			_Reset_back();	// revert from _Mychar buffer

  0003c	8b 4e 10	 mov	 ecx, DWORD PTR [esi+16]
  0003f	8d 56 48	 lea	 edx, DWORD PTR [esi+72]
  00042	39 11		 cmp	 DWORD PTR [ecx], edx
  00044	75 14		 jne	 SHORT $LN11@basic_file
  00046	8b 56 3c	 mov	 edx, DWORD PTR [esi+60]
  00049	8b 46 40	 mov	 eax, DWORD PTR [esi+64]
  0004c	89 11		 mov	 DWORD PTR [ecx], edx
  0004e	8b 4e 20	 mov	 ecx, DWORD PTR [esi+32]
  00051	89 01		 mov	 DWORD PTR [ecx], eax
  00053	8b 56 30	 mov	 edx, DWORD PTR [esi+48]
  00056	2b c0		 sub	 eax, eax
  00058	89 02		 mov	 DWORD PTR [edx], eax
$LN11@basic_file:

; 146  : 		if (_Closef)

  0005a	80 7e 50 00	 cmp	 BYTE PTR [esi+80], 0
  0005e	74 07		 je	 SHORT $LN1@basic_file

; 147  : 			close();

  00060	8b ce		 mov	 ecx, esi
  00062	e8 00 00 00 00	 call	 ?close@?$basic_filebuf@DU?$char_traits@D@std@@@std@@QAEPAV12@XZ ; std::basic_filebuf<char,std::char_traits<char> >::close
$LN1@basic_file:

; 148  : 		}

  00067	8b ce		 mov	 ecx, esi
  00069	c7 45 fc ff ff
	ff ff		 mov	 DWORD PTR __$EHRec$[ebp+8], -1
  00070	e8 00 00 00 00	 call	 ??1?$basic_streambuf@DU?$char_traits@D@std@@@std@@UAE@XZ ; std::basic_streambuf<char,std::char_traits<char> >::~basic_streambuf<char,std::char_traits<char> >
  00075	8b 4d f4	 mov	 ecx, DWORD PTR __$EHRec$[ebp]
  00078	64 89 0d 00 00
	00 00		 mov	 DWORD PTR fs:0, ecx
  0007f	59		 pop	 ecx
  00080	5e		 pop	 esi
  00081	8b e5		 mov	 esp, ebp
  00083	5d		 pop	 ebp
  00084	c3		 ret	 0
_TEXT	ENDS
;	COMDAT text$x
text$x	SEGMENT
__unwindfunclet$??1?$basic_filebuf@DU?$char_traits@D@std@@@std@@UAE@XZ$0:
  00000	8b 4d f0	 mov	 ecx, DWORD PTR _this$[ebp]
  00003	e9 00 00 00 00	 jmp	 ??1?$basic_streambuf@DU?$char_traits@D@std@@@std@@UAE@XZ ; std::basic_streambuf<char,std::char_traits<char> >::~basic_streambuf<char,std::char_traits<char> >
__ehhandler$??1?$basic_filebuf@DU?$char_traits@D@std@@@std@@UAE@XZ:
  00008	8b 54 24 08	 mov	 edx, DWORD PTR [esp+8]
  0000c	8d 42 0c	 lea	 eax, DWORD PTR [edx+12]
  0000f	8b 4a f4	 mov	 ecx, DWORD PTR [edx-12]
  00012	33 c8		 xor	 ecx, eax
  00014	e8 00 00 00 00	 call	 @__security_check_cookie@4
  00019	b8 00 00 00 00	 mov	 eax, OFFSET __ehfuncinfo$??1?$basic_filebuf@DU?$char_traits@D@std@@@std@@UAE@XZ
  0001e	e9 00 00 00 00	 jmp	 ___CxxFrameHandler3
text$x	ENDS
??1?$basic_filebuf@DU?$char_traits@D@std@@@std@@UAE@XZ ENDP ; std::basic_filebuf<char,std::char_traits<char> >::~basic_filebuf<char,std::char_traits<char> >
;	COMDAT xdata$x
xdata$x	SEGMENT
__unwindtable$??_G?$basic_filebuf@DU?$char_traits@D@std@@@std@@UAEPAXI@Z DD 0ffffffffH
	DD	FLAT:__unwindfunclet$??_G?$basic_filebuf@DU?$char_traits@D@std@@@std@@UAEPAXI@Z$0
__ehfuncinfo$??_G?$basic_filebuf@DU?$char_traits@D@std@@@std@@UAEPAXI@Z DD 019930522H
	DD	01H
	DD	FLAT:__unwindtable$??_G?$basic_filebuf@DU?$char_traits@D@std@@@std@@UAEPAXI@Z
	DD	2 DUP(00H)
	DD	2 DUP(00H)
	DD	00H
	DD	01H
; Function compile flags: /Ogtp
xdata$x	ENDS
;	COMDAT ??_G?$basic_filebuf@DU?$char_traits@D@std@@@std@@UAEPAXI@Z
_TEXT	SEGMENT
_this$ = -16						; size = 4
__$EHRec$ = -12						; size = 12
___flags$ = 8						; size = 4
??_G?$basic_filebuf@DU?$char_traits@D@std@@@std@@UAEPAXI@Z PROC ; std::basic_filebuf<char,std::char_traits<char> >::`scalar deleting destructor', COMDAT
; _this$ = ecx
  00000	55		 push	 ebp
  00001	8b ec		 mov	 ebp, esp
  00003	6a ff		 push	 -1
  00005	68 00 00 00 00	 push	 __ehhandler$??_G?$basic_filebuf@DU?$char_traits@D@std@@@std@@UAEPAXI@Z
  0000a	64 a1 00 00 00
	00		 mov	 eax, DWORD PTR fs:0
  00010	50		 push	 eax
  00011	51		 push	 ecx
  00012	56		 push	 esi
  00013	a1 00 00 00 00	 mov	 eax, DWORD PTR ___security_cookie
  00018	33 c5		 xor	 eax, ebp
  0001a	50		 push	 eax
  0001b	8d 45 f4	 lea	 eax, DWORD PTR __$EHRec$[ebp]
  0001e	64 a3 00 00 00
	00		 mov	 DWORD PTR fs:0, eax
  00024	8b f1		 mov	 esi, ecx
  00026	89 75 f0	 mov	 DWORD PTR _this$[ebp], esi
  00029	c7 06 00 00 00
	00		 mov	 DWORD PTR [esi], OFFSET ??_7?$basic_filebuf@DU?$char_traits@D@std@@@std@@6B@
  0002f	83 7e 54 00	 cmp	 DWORD PTR [esi+84], 0
  00033	c7 45 fc 00 00
	00 00		 mov	 DWORD PTR __$EHRec$[ebp+8], 0
  0003a	74 1e		 je	 SHORT $LN14@scalar@15
  0003c	8b 4e 10	 mov	 ecx, DWORD PTR [esi+16]
  0003f	8d 56 48	 lea	 edx, DWORD PTR [esi+72]
  00042	39 11		 cmp	 DWORD PTR [ecx], edx
  00044	75 14		 jne	 SHORT $LN14@scalar@15
  00046	8b 56 3c	 mov	 edx, DWORD PTR [esi+60]
  00049	8b 46 40	 mov	 eax, DWORD PTR [esi+64]
  0004c	89 11		 mov	 DWORD PTR [ecx], edx
  0004e	8b 4e 20	 mov	 ecx, DWORD PTR [esi+32]
  00051	89 01		 mov	 DWORD PTR [ecx], eax
  00053	8b 56 30	 mov	 edx, DWORD PTR [esi+48]
  00056	2b c0		 sub	 eax, eax
  00058	89 02		 mov	 DWORD PTR [edx], eax
$LN14@scalar@15:
  0005a	80 7e 50 00	 cmp	 BYTE PTR [esi+80], 0
  0005e	74 07		 je	 SHORT $LN4@scalar@15
  00060	8b ce		 mov	 ecx, esi
  00062	e8 00 00 00 00	 call	 ?close@?$basic_filebuf@DU?$char_traits@D@std@@@std@@QAEPAV12@XZ ; std::basic_filebuf<char,std::char_traits<char> >::close
$LN4@scalar@15:
  00067	8b ce		 mov	 ecx, esi
  00069	c7 45 fc ff ff
	ff ff		 mov	 DWORD PTR __$EHRec$[ebp+8], -1
  00070	e8 00 00 00 00	 call	 ??1?$basic_streambuf@DU?$char_traits@D@std@@@std@@UAE@XZ ; std::basic_streambuf<char,std::char_traits<char> >::~basic_streambuf<char,std::char_traits<char> >
  00075	f6 45 08 01	 test	 BYTE PTR ___flags$[ebp], 1
  00079	74 09		 je	 SHORT $LN16@scalar@15
  0007b	56		 push	 esi
  0007c	e8 00 00 00 00	 call	 ??3@YAXPAX@Z		; operator delete
  00081	83 c4 04	 add	 esp, 4
$LN16@scalar@15:
  00084	8b c6		 mov	 eax, esi
  00086	8b 4d f4	 mov	 ecx, DWORD PTR __$EHRec$[ebp]
  00089	64 89 0d 00 00
	00 00		 mov	 DWORD PTR fs:0, ecx
  00090	59		 pop	 ecx
  00091	5e		 pop	 esi
  00092	8b e5		 mov	 esp, ebp
  00094	5d		 pop	 ebp
  00095	c2 04 00	 ret	 4
_TEXT	ENDS
;	COMDAT text$x
text$x	SEGMENT
__unwindfunclet$??_G?$basic_filebuf@DU?$char_traits@D@std@@@std@@UAEPAXI@Z$0:
  00000	8b 4d f0	 mov	 ecx, DWORD PTR _this$[ebp]
  00003	e9 00 00 00 00	 jmp	 ??1?$basic_streambuf@DU?$char_traits@D@std@@@std@@UAE@XZ ; std::basic_streambuf<char,std::char_traits<char> >::~basic_streambuf<char,std::char_traits<char> >
__ehhandler$??_G?$basic_filebuf@DU?$char_traits@D@std@@@std@@UAEPAXI@Z:
  00008	8b 54 24 08	 mov	 edx, DWORD PTR [esp+8]
  0000c	8d 42 0c	 lea	 eax, DWORD PTR [edx+12]
  0000f	8b 4a f4	 mov	 ecx, DWORD PTR [edx-12]
  00012	33 c8		 xor	 ecx, eax
  00014	e8 00 00 00 00	 call	 @__security_check_cookie@4
  00019	b8 00 00 00 00	 mov	 eax, OFFSET __ehfuncinfo$??_G?$basic_filebuf@DU?$char_traits@D@std@@@std@@UAEPAXI@Z
  0001e	e9 00 00 00 00	 jmp	 ___CxxFrameHandler3
text$x	ENDS
??_G?$basic_filebuf@DU?$char_traits@D@std@@@std@@UAEPAXI@Z ENDP ; std::basic_filebuf<char,std::char_traits<char> >::`scalar deleting destructor'
PUBLIC	??_7?$basic_ofstream@DU?$char_traits@D@std@@@std@@6B@ ; std::basic_ofstream<char,std::char_traits<char> >::`vftable'
PUBLIC	??_8?$basic_ofstream@DU?$char_traits@D@std@@@std@@7B@ ; std::basic_ofstream<char,std::char_traits<char> >::`vbtable'
PUBLIC	??0?$basic_ofstream@DU?$char_traits@D@std@@@std@@QAE@PBDHH@Z ; std::basic_ofstream<char,std::char_traits<char> >::basic_ofstream<char,std::char_traits<char> >
PUBLIC	??_R4?$basic_ofstream@DU?$char_traits@D@std@@@std@@6B@ ; std::basic_ofstream<char,std::char_traits<char> >::`RTTI Complete Object Locator'
PUBLIC	??_R0?AV?$basic_ofstream@DU?$char_traits@D@std@@@std@@@8 ; std::basic_ofstream<char,std::char_traits<char> > `RTTI Type Descriptor'
PUBLIC	??_R3?$basic_ofstream@DU?$char_traits@D@std@@@std@@8 ; std::basic_ofstream<char,std::char_traits<char> >::`RTTI Class Hierarchy Descriptor'
PUBLIC	??_R2?$basic_ofstream@DU?$char_traits@D@std@@@std@@8 ; std::basic_ofstream<char,std::char_traits<char> >::`RTTI Base Class Array'
PUBLIC	??_R1A@?0A@EA@?$basic_ofstream@DU?$char_traits@D@std@@@std@@8 ; std::basic_ofstream<char,std::char_traits<char> >::`RTTI Base Class Descriptor at (0,-1,0,64)'
EXTRN	??_E?$basic_ofstream@DU?$char_traits@D@std@@@std@@UAEPAXI@Z:PROC ; std::basic_ofstream<char,std::char_traits<char> >::`vector deleting destructor'
;	COMDAT ??_R1A@?0A@EA@?$basic_ofstream@DU?$char_traits@D@std@@@std@@8
; File d:\program files (x86)\microsoft visual studio 10.0\vc\include\ios
rdata$r	SEGMENT
??_R1A@?0A@EA@?$basic_ofstream@DU?$char_traits@D@std@@@std@@8 DD FLAT:??_R0?AV?$basic_ofstream@DU?$char_traits@D@std@@@std@@@8 ; std::basic_ofstream<char,std::char_traits<char> >::`RTTI Base Class Descriptor at (0,-1,0,64)'
	DD	04H
	DD	00H
	DD	0ffffffffH
	DD	00H
	DD	040H
	DD	FLAT:??_R3?$basic_ofstream@DU?$char_traits@D@std@@@std@@8
rdata$r	ENDS
;	COMDAT ??_R2?$basic_ofstream@DU?$char_traits@D@std@@@std@@8
rdata$r	SEGMENT
??_R2?$basic_ofstream@DU?$char_traits@D@std@@@std@@8 DD FLAT:??_R1A@?0A@EA@?$basic_ofstream@DU?$char_traits@D@std@@@std@@8 ; std::basic_ofstream<char,std::char_traits<char> >::`RTTI Base Class Array'
	DD	FLAT:??_R1A@?0A@EA@?$basic_ostream@DU?$char_traits@D@std@@@std@@8
	DD	FLAT:??_R1A@A@3FA@?$basic_ios@DU?$char_traits@D@std@@@std@@8
	DD	FLAT:??_R1A@A@3EA@ios_base@std@@8
	DD	FLAT:??_R17A@3EA@?$_Iosb@H@std@@8
rdata$r	ENDS
;	COMDAT ??_R3?$basic_ofstream@DU?$char_traits@D@std@@@std@@8
rdata$r	SEGMENT
??_R3?$basic_ofstream@DU?$char_traits@D@std@@@std@@8 DD 00H ; std::basic_ofstream<char,std::char_traits<char> >::`RTTI Class Hierarchy Descriptor'
	DD	00H
	DD	05H
	DD	FLAT:??_R2?$basic_ofstream@DU?$char_traits@D@std@@@std@@8
rdata$r	ENDS
;	COMDAT ??_R0?AV?$basic_ofstream@DU?$char_traits@D@std@@@std@@@8
_DATA	SEGMENT
??_R0?AV?$basic_ofstream@DU?$char_traits@D@std@@@std@@@8 DD FLAT:??_7type_info@@6B@ ; std::basic_ofstream<char,std::char_traits<char> > `RTTI Type Descriptor'
	DD	00H
	DB	'.?AV?$basic_ofstream@DU?$char_traits@D@std@@@std@@', 00H
_DATA	ENDS
;	COMDAT ??_R4?$basic_ofstream@DU?$char_traits@D@std@@@std@@6B@
rdata$r	SEGMENT
??_R4?$basic_ofstream@DU?$char_traits@D@std@@@std@@6B@ DD 00H ; std::basic_ofstream<char,std::char_traits<char> >::`RTTI Complete Object Locator'
	DD	060H
	DD	00H
	DD	FLAT:??_R0?AV?$basic_ofstream@DU?$char_traits@D@std@@@std@@@8
	DD	FLAT:??_R3?$basic_ofstream@DU?$char_traits@D@std@@@std@@8
rdata$r	ENDS
;	COMDAT ??_7?$basic_ofstream@DU?$char_traits@D@std@@@std@@6B@
CONST	SEGMENT
??_7?$basic_ofstream@DU?$char_traits@D@std@@@std@@6B@ DD FLAT:??_R4?$basic_ofstream@DU?$char_traits@D@std@@@std@@6B@ ; std::basic_ofstream<char,std::char_traits<char> >::`vftable'
	DD	FLAT:??_E?$basic_ofstream@DU?$char_traits@D@std@@@std@@UAEPAXI@Z
CONST	ENDS
;	COMDAT ??_8?$basic_ofstream@DU?$char_traits@D@std@@@std@@7B@
CONST	SEGMENT
??_8?$basic_ofstream@DU?$char_traits@D@std@@@std@@7B@ DD 00H ; std::basic_ofstream<char,std::char_traits<char> >::`vbtable'
	DD	060H
CONST	ENDS
;	COMDAT xdata$x
xdata$x	SEGMENT
__unwindtable$??0?$basic_ofstream@DU?$char_traits@D@std@@@std@@QAE@PBDHH@Z DD 0ffffffffH
	DD	FLAT:__unwindfunclet$??0?$basic_ofstream@DU?$char_traits@D@std@@@std@@QAE@PBDHH@Z$0
	DD	00H
	DD	00H
	DD	00H
	DD	FLAT:__unwindfunclet$??0?$basic_ofstream@DU?$char_traits@D@std@@@std@@QAE@PBDHH@Z$1
	DD	02H
	DD	FLAT:__unwindfunclet$??0?$basic_ofstream@DU?$char_traits@D@std@@@std@@QAE@PBDHH@Z$2
__ehfuncinfo$??0?$basic_ofstream@DU?$char_traits@D@std@@@std@@QAE@PBDHH@Z DD 019930522H
	DD	04H
	DD	FLAT:__unwindtable$??0?$basic_ofstream@DU?$char_traits@D@std@@@std@@QAE@PBDHH@Z
	DD	2 DUP(00H)
	DD	2 DUP(00H)
	DD	00H
	DD	01H
; Function compile flags: /Ogtp
; File d:\program files (x86)\microsoft visual studio 10.0\vc\include\fstream
xdata$x	ENDS
;	COMDAT ??0?$basic_ofstream@DU?$char_traits@D@std@@@std@@QAE@PBDHH@Z
_TEXT	SEGMENT
_this$ = -20						; size = 4
$T215517 = -16						; size = 4
__$EHRec$ = -12						; size = 12
__Filename$ = 8						; size = 4
__Mode$ = 12						; size = 4
__Prot$ = 16						; size = 4
_$initVBases$ = 20					; size = 4
??0?$basic_ofstream@DU?$char_traits@D@std@@@std@@QAE@PBDHH@Z PROC ; std::basic_ofstream<char,std::char_traits<char> >::basic_ofstream<char,std::char_traits<char> >, COMDAT
; _this$ = ecx

; 940  : 		{	// construct with named file and specified mode

  00000	55		 push	 ebp
  00001	8b ec		 mov	 ebp, esp
  00003	6a ff		 push	 -1
  00005	68 00 00 00 00	 push	 __ehhandler$??0?$basic_ofstream@DU?$char_traits@D@std@@@std@@QAE@PBDHH@Z
  0000a	64 a1 00 00 00
	00		 mov	 eax, DWORD PTR fs:0
  00010	50		 push	 eax
  00011	83 ec 08	 sub	 esp, 8
  00014	53		 push	 ebx
  00015	56		 push	 esi
  00016	57		 push	 edi
  00017	a1 00 00 00 00	 mov	 eax, DWORD PTR ___security_cookie
  0001c	33 c5		 xor	 eax, ebp
  0001e	50		 push	 eax
  0001f	8d 45 f4	 lea	 eax, DWORD PTR __$EHRec$[ebp]
  00022	64 a3 00 00 00
	00		 mov	 DWORD PTR fs:0, eax
  00028	8b d9		 mov	 ebx, ecx
  0002a	89 5d ec	 mov	 DWORD PTR _this$[ebp], ebx
  0002d	33 c0		 xor	 eax, eax
  0002f	89 45 f0	 mov	 DWORD PTR $T215517[ebp], eax
  00032	39 45 14	 cmp	 DWORD PTR _$initVBases$[ebp], eax
  00035	74 17		 je	 SHORT $LN2@basic_ofst
  00037	c7 03 00 00 00
	00		 mov	 DWORD PTR [ebx], OFFSET ??_8?$basic_ofstream@DU?$char_traits@D@std@@@std@@7B@
  0003d	c7 43 60 00 00
	00 00		 mov	 DWORD PTR [ebx+96], OFFSET ??_7?$basic_ios@DU?$char_traits@D@std@@@std@@6B@
  00044	89 45 fc	 mov	 DWORD PTR __$EHRec$[ebp+8], eax
  00047	c7 45 f0 01 00
	00 00		 mov	 DWORD PTR $T215517[ebp], 1
$LN2@basic_ofst:
  0004e	8b 03		 mov	 eax, DWORD PTR [ebx]
  00050	8b 48 04	 mov	 ecx, DWORD PTR [eax+4]
  00053	c7 04 0b 00 00
	00 00		 mov	 DWORD PTR [ebx+ecx], OFFSET ??_7?$basic_ostream@DU?$char_traits@D@std@@@std@@6B@
  0005a	8b 13		 mov	 edx, DWORD PTR [ebx]
  0005c	8b 7a 04	 mov	 edi, DWORD PTR [edx+4]
  0005f	03 fb		 add	 edi, ebx
  00061	8b cf		 mov	 ecx, edi
  00063	e8 00 00 00 00	 call	 ?_Init@ios_base@std@@IAEXXZ ; std::ios_base::_Init
  00068	8d 73 04	 lea	 esi, DWORD PTR [ebx+4]
  0006b	6a 20		 push	 32			; 00000020H
  0006d	8b cf		 mov	 ecx, edi
  0006f	89 77 38	 mov	 DWORD PTR [edi+56], esi
  00072	c7 47 3c 00 00
	00 00		 mov	 DWORD PTR [edi+60], 0
  00079	e8 00 00 00 00	 call	 ?widen@?$basic_ios@DU?$char_traits@D@std@@@std@@QBEDD@Z ; std::basic_ios<char,std::char_traits<char> >::widen
  0007e	83 7f 38 00	 cmp	 DWORD PTR [edi+56], 0
  00082	88 47 40	 mov	 BYTE PTR [edi+64], al
  00085	75 13		 jne	 SHORT $LN31@basic_ofst
  00087	8b 47 0c	 mov	 eax, DWORD PTR [edi+12]
  0008a	83 c8 04	 or	 eax, 4
  0008d	83 c8 04	 or	 eax, 4
  00090	6a 00		 push	 0
  00092	50		 push	 eax
  00093	8b cf		 mov	 ecx, edi
  00095	e8 00 00 00 00	 call	 ?clear@ios_base@std@@QAEXH_N@Z ; std::ios_base::clear
$LN31@basic_ofst:
  0009a	8b 03		 mov	 eax, DWORD PTR [ebx]
  0009c	8b 48 04	 mov	 ecx, DWORD PTR [eax+4]
  0009f	c7 04 0b 00 00
	00 00		 mov	 DWORD PTR [ebx+ecx], OFFSET ??_7?$basic_ofstream@DU?$char_traits@D@std@@@std@@6B@
  000a6	8b ce		 mov	 ecx, esi
  000a8	c7 45 fc 02 00
	00 00		 mov	 DWORD PTR __$EHRec$[ebp+8], 2
  000af	e8 00 00 00 00	 call	 ??0?$basic_streambuf@DU?$char_traits@D@std@@@std@@IAE@XZ ; std::basic_streambuf<char,std::char_traits<char> >::basic_streambuf<char,std::char_traits<char> >
  000b4	8d 56 08	 lea	 edx, DWORD PTR [esi+8]
  000b7	89 56 10	 mov	 DWORD PTR [esi+16], edx
  000ba	33 ff		 xor	 edi, edi
  000bc	c7 06 00 00 00
	00		 mov	 DWORD PTR [esi], OFFSET ??_7?$basic_filebuf@DU?$char_traits@D@std@@@std@@6B@
  000c2	c6 46 50 00	 mov	 BYTE PTR [esi+80], 0
  000c6	c6 46 49 00	 mov	 BYTE PTR [esi+73], 0
  000ca	8d 4e 18	 lea	 ecx, DWORD PTR [esi+24]
  000cd	89 4e 20	 mov	 DWORD PTR [esi+32], ecx
  000d0	8d 56 1c	 lea	 edx, DWORD PTR [esi+28]
  000d3	89 56 24	 mov	 DWORD PTR [esi+36], edx
  000d6	8d 46 0c	 lea	 eax, DWORD PTR [esi+12]
  000d9	89 46 14	 mov	 DWORD PTR [esi+20], eax
  000dc	8d 4e 28	 lea	 ecx, DWORD PTR [esi+40]
  000df	89 4e 30	 mov	 DWORD PTR [esi+48], ecx
  000e2	8d 56 2c	 lea	 edx, DWORD PTR [esi+44]
  000e5	89 56 34	 mov	 DWORD PTR [esi+52], edx
  000e8	89 38		 mov	 DWORD PTR [eax], edi
  000ea	8b 46 24	 mov	 eax, DWORD PTR [esi+36]
  000ed	89 38		 mov	 DWORD PTR [eax], edi
  000ef	8b 4e 34	 mov	 ecx, DWORD PTR [esi+52]
  000f2	89 39		 mov	 DWORD PTR [ecx], edi
  000f4	8b 56 10	 mov	 edx, DWORD PTR [esi+16]
  000f7	89 3a		 mov	 DWORD PTR [edx], edi
  000f9	8b 46 20	 mov	 eax, DWORD PTR [esi+32]
  000fc	89 38		 mov	 DWORD PTR [eax], edi
  000fe	8b 4e 30	 mov	 ecx, DWORD PTR [esi+48]
  00101	89 39		 mov	 DWORD PTR [ecx], edi
  00103	89 7e 54	 mov	 DWORD PTR [esi+84], edi
  00106	8b 15 00 00 00
	00		 mov	 edx, DWORD PTR ?_Stinit@?1??_Init@?$basic_filebuf@DU?$char_traits@D@std@@@std@@IAEXPAU_iobuf@@W4_Initfl@23@@Z@4HA
  0010c	89 56 4c	 mov	 DWORD PTR [esi+76], edx
  0010f	89 7e 44	 mov	 DWORD PTR [esi+68], edi

; 941  : 		if (_Filebuffer.open(_Filename, _Mode | ios_base::out, _Prot) == 0)

  00112	8b 45 10	 mov	 eax, DWORD PTR __Prot$[ebp]
  00115	8b 4d 0c	 mov	 ecx, DWORD PTR __Mode$[ebp]
  00118	8b 55 08	 mov	 edx, DWORD PTR __Filename$[ebp]
  0011b	50		 push	 eax
  0011c	83 c9 02	 or	 ecx, 2
  0011f	51		 push	 ecx
  00120	52		 push	 edx
  00121	8b ce		 mov	 ecx, esi
  00123	c6 45 fc 03	 mov	 BYTE PTR __$EHRec$[ebp+8], 3
  00127	e8 00 00 00 00	 call	 ?open@?$basic_filebuf@DU?$char_traits@D@std@@@std@@QAEPAV12@PBDHH@Z ; std::basic_filebuf<char,std::char_traits<char> >::open
  0012c	85 c0		 test	 eax, eax
  0012e	75 1d		 jne	 SHORT $LN58@basic_ofst

; 942  : 			_Myios::setstate(ios_base::failbit);

  00130	8b 03		 mov	 eax, DWORD PTR [ebx]
  00132	8b 48 04	 mov	 ecx, DWORD PTR [eax+4]
  00135	8b 44 19 0c	 mov	 eax, DWORD PTR [ecx+ebx+12]
  00139	03 cb		 add	 ecx, ebx
  0013b	83 c8 02	 or	 eax, 2
  0013e	39 79 38	 cmp	 DWORD PTR [ecx+56], edi
  00141	75 03		 jne	 SHORT $LN56@basic_ofst
  00143	83 c8 04	 or	 eax, 4
$LN56@basic_ofst:
  00146	57		 push	 edi
  00147	50		 push	 eax
  00148	e8 00 00 00 00	 call	 ?clear@ios_base@std@@QAEXH_N@Z ; std::ios_base::clear
$LN58@basic_ofst:

; 943  : 		}

  0014d	8b c3		 mov	 eax, ebx
  0014f	8b 4d f4	 mov	 ecx, DWORD PTR __$EHRec$[ebp]
  00152	64 89 0d 00 00
	00 00		 mov	 DWORD PTR fs:0, ecx
  00159	59		 pop	 ecx
  0015a	5f		 pop	 edi
  0015b	5e		 pop	 esi
  0015c	5b		 pop	 ebx
  0015d	8b e5		 mov	 esp, ebp
  0015f	5d		 pop	 ebp
  00160	c2 10 00	 ret	 16			; 00000010H
_TEXT	ENDS
;	COMDAT text$x
text$x	SEGMENT
__unwindfunclet$??0?$basic_ofstream@DU?$char_traits@D@std@@@std@@QAE@PBDHH@Z$0:
  00000	8b 45 f0	 mov	 eax, DWORD PTR $T215517[ebp]
  00003	83 e0 01	 and	 eax, 1
  00006	0f 84 0f 00 00
	00		 je	 $LN6@basic_ofst
  0000c	83 65 f0 fe	 and	 DWORD PTR $T215517[ebp], -2 ; fffffffeH
  00010	8b 4d ec	 mov	 ecx, DWORD PTR _this$[ebp]
  00013	83 c1 60	 add	 ecx, 96			; 00000060H
  00016	e9 00 00 00 00	 jmp	 ??1?$basic_ios@DU?$char_traits@D@std@@@std@@UAE@XZ ; std::basic_ios<char,std::char_traits<char> >::~basic_ios<char,std::char_traits<char> >
$LN6@basic_ofst:
  0001b	c3		 ret	 0
__unwindfunclet$??0?$basic_ofstream@DU?$char_traits@D@std@@@std@@QAE@PBDHH@Z$1:
  0001c	8b 4d ec	 mov	 ecx, DWORD PTR _this$[ebp]
  0001f	83 c1 08	 add	 ecx, 8
  00022	e9 00 00 00 00	 jmp	 ??1?$basic_ostream@DU?$char_traits@D@std@@@std@@UAE@XZ ; std::basic_ostream<char,std::char_traits<char> >::~basic_ostream<char,std::char_traits<char> >
__unwindfunclet$??0?$basic_ofstream@DU?$char_traits@D@std@@@std@@QAE@PBDHH@Z$2:
  00027	8b 4d ec	 mov	 ecx, DWORD PTR _this$[ebp]
  0002a	83 c1 04	 add	 ecx, 4
  0002d	e9 00 00 00 00	 jmp	 ??1?$basic_filebuf@DU?$char_traits@D@std@@@std@@UAE@XZ ; std::basic_filebuf<char,std::char_traits<char> >::~basic_filebuf<char,std::char_traits<char> >
__ehhandler$??0?$basic_ofstream@DU?$char_traits@D@std@@@std@@QAE@PBDHH@Z:
  00032	8b 54 24 08	 mov	 edx, DWORD PTR [esp+8]
  00036	8d 42 0c	 lea	 eax, DWORD PTR [edx+12]
  00039	8b 4a e8	 mov	 ecx, DWORD PTR [edx-24]
  0003c	33 c8		 xor	 ecx, eax
  0003e	e8 00 00 00 00	 call	 @__security_check_cookie@4
  00043	b8 00 00 00 00	 mov	 eax, OFFSET __ehfuncinfo$??0?$basic_ofstream@DU?$char_traits@D@std@@@std@@QAE@PBDHH@Z
  00048	e9 00 00 00 00	 jmp	 ___CxxFrameHandler3
text$x	ENDS
??0?$basic_ofstream@DU?$char_traits@D@std@@@std@@QAE@PBDHH@Z ENDP ; std::basic_ofstream<char,std::char_traits<char> >::basic_ofstream<char,std::char_traits<char> >
PUBLIC	??1?$basic_ofstream@DU?$char_traits@D@std@@@std@@UAE@XZ ; std::basic_ofstream<char,std::char_traits<char> >::~basic_ofstream<char,std::char_traits<char> >
;	COMDAT xdata$x
; File d:\program files (x86)\microsoft visual studio 10.0\vc\include\ostream
xdata$x	SEGMENT
__unwindtable$??1?$basic_ofstream@DU?$char_traits@D@std@@@std@@UAE@XZ DD 0ffffffffH
	DD	FLAT:__unwindfunclet$??1?$basic_ofstream@DU?$char_traits@D@std@@@std@@UAE@XZ$0
	DD	00H
	DD	FLAT:__unwindfunclet$??1?$basic_ofstream@DU?$char_traits@D@std@@@std@@UAE@XZ$2
__ehfuncinfo$??1?$basic_ofstream@DU?$char_traits@D@std@@@std@@UAE@XZ DD 019930522H
	DD	02H
	DD	FLAT:__unwindtable$??1?$basic_ofstream@DU?$char_traits@D@std@@@std@@UAE@XZ
	DD	2 DUP(00H)
	DD	2 DUP(00H)
	DD	00H
	DD	01H
; Function compile flags: /Ogtp
; File d:\program files (x86)\microsoft visual studio 10.0\vc\include\fstream
xdata$x	ENDS
;	COMDAT ??1?$basic_ofstream@DU?$char_traits@D@std@@@std@@UAE@XZ
_TEXT	SEGMENT
$T215719 = -20						; size = 4
_this$ = -16						; size = 4
__$EHRec$ = -12						; size = 12
??1?$basic_ofstream@DU?$char_traits@D@std@@@std@@UAE@XZ PROC ; std::basic_ofstream<char,std::char_traits<char> >::~basic_ofstream<char,std::char_traits<char> >, COMDAT
; _this$ = ecx

; 1071 : 		{	// destroy the object

  00000	55		 push	 ebp
  00001	8b ec		 mov	 ebp, esp
  00003	6a ff		 push	 -1
  00005	68 00 00 00 00	 push	 __ehhandler$??1?$basic_ofstream@DU?$char_traits@D@std@@@std@@UAE@XZ
  0000a	64 a1 00 00 00
	00		 mov	 eax, DWORD PTR fs:0
  00010	50		 push	 eax
  00011	83 ec 08	 sub	 esp, 8
  00014	56		 push	 esi
  00015	57		 push	 edi
  00016	a1 00 00 00 00	 mov	 eax, DWORD PTR ___security_cookie
  0001b	33 c5		 xor	 eax, ebp
  0001d	50		 push	 eax
  0001e	8d 45 f4	 lea	 eax, DWORD PTR __$EHRec$[ebp]
  00021	64 a3 00 00 00
	00		 mov	 DWORD PTR fs:0, eax
  00027	8b f9		 mov	 edi, ecx
  00029	89 7d f0	 mov	 DWORD PTR _this$[ebp], edi
  0002c	8b 47 a0	 mov	 eax, DWORD PTR [edi-96]
  0002f	8b 48 04	 mov	 ecx, DWORD PTR [eax+4]
  00032	c7 44 39 a0 00
	00 00 00	 mov	 DWORD PTR [ecx+edi-96], OFFSET ??_7?$basic_ofstream@DU?$char_traits@D@std@@@std@@6B@

; 1072 : 		}

  0003a	8d 77 a4	 lea	 esi, DWORD PTR [edi-92]
  0003d	c7 45 fc 00 00
	00 00		 mov	 DWORD PTR __$EHRec$[ebp+8], 0
  00044	89 75 ec	 mov	 DWORD PTR $T215719[ebp], esi
  00047	c7 06 00 00 00
	00		 mov	 DWORD PTR [esi], OFFSET ??_7?$basic_filebuf@DU?$char_traits@D@std@@@std@@6B@
  0004d	83 7e 54 00	 cmp	 DWORD PTR [esi+84], 0
  00051	c6 45 fc 01	 mov	 BYTE PTR __$EHRec$[ebp+8], 1
  00055	74 1e		 je	 SHORT $LN15@basic_ofst@2
  00057	8b 4e 10	 mov	 ecx, DWORD PTR [esi+16]
  0005a	8d 56 48	 lea	 edx, DWORD PTR [esi+72]
  0005d	39 11		 cmp	 DWORD PTR [ecx], edx
  0005f	75 14		 jne	 SHORT $LN15@basic_ofst@2
  00061	8b 56 3c	 mov	 edx, DWORD PTR [esi+60]
  00064	8b 46 40	 mov	 eax, DWORD PTR [esi+64]
  00067	89 11		 mov	 DWORD PTR [ecx], edx
  00069	8b 4e 20	 mov	 ecx, DWORD PTR [esi+32]
  0006c	89 01		 mov	 DWORD PTR [ecx], eax
  0006e	8b 56 30	 mov	 edx, DWORD PTR [esi+48]
  00071	2b c0		 sub	 eax, eax
  00073	89 02		 mov	 DWORD PTR [edx], eax
$LN15@basic_ofst@2:
  00075	80 7e 50 00	 cmp	 BYTE PTR [esi+80], 0
  00079	74 07		 je	 SHORT $LN5@basic_ofst@2
  0007b	8b ce		 mov	 ecx, esi
  0007d	e8 00 00 00 00	 call	 ?close@?$basic_filebuf@DU?$char_traits@D@std@@@std@@QAEPAV12@XZ ; std::basic_filebuf<char,std::char_traits<char> >::close
$LN5@basic_ofst@2:
  00082	8b ce		 mov	 ecx, esi
  00084	c6 45 fc 00	 mov	 BYTE PTR __$EHRec$[ebp+8], 0
  00088	e8 00 00 00 00	 call	 ??1?$basic_streambuf@DU?$char_traits@D@std@@@std@@UAE@XZ ; std::basic_streambuf<char,std::char_traits<char> >::~basic_streambuf<char,std::char_traits<char> >
  0008d	8b 47 a0	 mov	 eax, DWORD PTR [edi-96]
  00090	8b 48 04	 mov	 ecx, DWORD PTR [eax+4]
  00093	c7 44 39 a0 00
	00 00 00	 mov	 DWORD PTR [ecx+edi-96], OFFSET ??_7?$basic_ostream@DU?$char_traits@D@std@@@std@@6B@
  0009b	8b 4d f4	 mov	 ecx, DWORD PTR __$EHRec$[ebp]
  0009e	64 89 0d 00 00
	00 00		 mov	 DWORD PTR fs:0, ecx
  000a5	59		 pop	 ecx
  000a6	5f		 pop	 edi
  000a7	5e		 pop	 esi
  000a8	8b e5		 mov	 esp, ebp
  000aa	5d		 pop	 ebp
  000ab	c3		 ret	 0
_TEXT	ENDS
;	COMDAT text$x
text$x	SEGMENT
__unwindfunclet$??1?$basic_ofstream@DU?$char_traits@D@std@@@std@@UAE@XZ$0:
  00000	8b 4d f0	 mov	 ecx, DWORD PTR _this$[ebp]
  00003	83 e9 58	 sub	 ecx, 88			; 00000058H
  00006	e9 00 00 00 00	 jmp	 ??1?$basic_ostream@DU?$char_traits@D@std@@@std@@UAE@XZ ; std::basic_ostream<char,std::char_traits<char> >::~basic_ostream<char,std::char_traits<char> >
__unwindfunclet$??1?$basic_ofstream@DU?$char_traits@D@std@@@std@@UAE@XZ$2:
  0000b	8b 4d ec	 mov	 ecx, DWORD PTR $T215719[ebp]
  0000e	e9 00 00 00 00	 jmp	 ??1?$basic_streambuf@DU?$char_traits@D@std@@@std@@UAE@XZ ; std::basic_streambuf<char,std::char_traits<char> >::~basic_streambuf<char,std::char_traits<char> >
__ehhandler$??1?$basic_ofstream@DU?$char_traits@D@std@@@std@@UAE@XZ:
  00013	8b 54 24 08	 mov	 edx, DWORD PTR [esp+8]
  00017	8d 42 0c	 lea	 eax, DWORD PTR [edx+12]
  0001a	8b 4a ec	 mov	 ecx, DWORD PTR [edx-20]
  0001d	33 c8		 xor	 ecx, eax
  0001f	e8 00 00 00 00	 call	 @__security_check_cookie@4
  00024	b8 00 00 00 00	 mov	 eax, OFFSET __ehfuncinfo$??1?$basic_ofstream@DU?$char_traits@D@std@@@std@@UAE@XZ
  00029	e9 00 00 00 00	 jmp	 ___CxxFrameHandler3
text$x	ENDS
??1?$basic_ofstream@DU?$char_traits@D@std@@@std@@UAE@XZ ENDP ; std::basic_ofstream<char,std::char_traits<char> >::~basic_ofstream<char,std::char_traits<char> >
PUBLIC	??_D?$basic_ofstream@DU?$char_traits@D@std@@@std@@QAEXXZ ; std::basic_ofstream<char,std::char_traits<char> >::`vbase destructor'
; Function compile flags: /Ogtp
;	COMDAT ??_D?$basic_ofstream@DU?$char_traits@D@std@@@std@@QAEXXZ
_TEXT	SEGMENT
??_D?$basic_ofstream@DU?$char_traits@D@std@@@std@@QAEXXZ PROC ; std::basic_ofstream<char,std::char_traits<char> >::`vbase destructor', COMDAT
; _this$ = ecx
  00000	56		 push	 esi
  00001	8d 71 60	 lea	 esi, DWORD PTR [ecx+96]
  00004	8b ce		 mov	 ecx, esi
  00006	e8 00 00 00 00	 call	 ??1?$basic_ofstream@DU?$char_traits@D@std@@@std@@UAE@XZ ; std::basic_ofstream<char,std::char_traits<char> >::~basic_ofstream<char,std::char_traits<char> >
  0000b	56		 push	 esi
  0000c	c7 06 00 00 00
	00		 mov	 DWORD PTR [esi], OFFSET ??_7ios_base@std@@6B@
  00012	e8 00 00 00 00	 call	 ?_Ios_base_dtor@ios_base@std@@CAXPAV12@@Z ; std::ios_base::_Ios_base_dtor
  00017	83 c4 04	 add	 esp, 4
  0001a	5e		 pop	 esi
  0001b	c3		 ret	 0
??_D?$basic_ofstream@DU?$char_traits@D@std@@@std@@QAEXXZ ENDP ; std::basic_ofstream<char,std::char_traits<char> >::`vbase destructor'
_TEXT	ENDS
PUBLIC	??_C@_0BC@ELJALHPL@hInternet?5?$CB?$DN?5NULL?$AA@ ; `string'
PUBLIC	??_C@_0BB@MALKFMPK@hConnect?5?$CB?$DN?5NULL?$AA@ ; `string'
PUBLIC	??_C@_0BB@CCOENLML@hRequest?5?$CB?$DN?5NULL?$AA@ ; `string'
PUBLIC	??_C@_05DLJCAKKO@bSend?$AA@			; `string'
PUBLIC	??_C@_0BA@HICLJBKB@fnews?4is_open?$CI?$CJ?$AA@	; `string'
PUBLIC	??_C@_03HAPOJHBM@GET?$AA@			; `string'
PUBLIC	??_C@_06KLDIONEO@MMOTOP?$AA@			; `string'
PUBLIC	??_C@_01NOFIACDB@w?$AA@				; `string'
PUBLIC	??_C@_04LJLMOBMF@QTOP?$AA@			; `string'
PUBLIC	_this$GSCopy$
PUBLIC	__$ArrayPad$
PUBLIC	?Qtop@Voter@@QAEXXZ				; Voter::Qtop
EXTRN	__imp__HttpSendRequestA@20:PROC
EXTRN	__imp__HttpOpenRequestA@32:PROC
EXTRN	__imp__InternetConnectA@32:PROC
EXTRN	__imp__InternetCloseHandle@4:PROC
EXTRN	_fputs:PROC
EXTRN	__imp__InternetReadFile@16:PROC
EXTRN	__imp__InternetOpenUrlA@24:PROC
EXTRN	__imp__InternetOpenA@20:PROC
EXTRN	_URLDownloadToFileA@20:PROC
EXTRN	__chkstk:PROC
;	COMDAT ??_C@_0BC@ELJALHPL@hInternet?5?$CB?$DN?5NULL?$AA@
CONST	SEGMENT
??_C@_0BC@ELJALHPL@hInternet?5?$CB?$DN?5NULL?$AA@ DB 'hInternet != NULL', 00H ; `string'
CONST	ENDS
;	COMDAT ??_C@_0BB@MALKFMPK@hConnect?5?$CB?$DN?5NULL?$AA@
CONST	SEGMENT
??_C@_0BB@MALKFMPK@hConnect?5?$CB?$DN?5NULL?$AA@ DB 'hConnect != NULL', 00H ; `string'
CONST	ENDS
;	COMDAT ??_C@_0BB@CCOENLML@hRequest?5?$CB?$DN?5NULL?$AA@
CONST	SEGMENT
??_C@_0BB@CCOENLML@hRequest?5?$CB?$DN?5NULL?$AA@ DB 'hRequest != NULL', 00H ; `string'
CONST	ENDS
;	COMDAT ??_C@_05DLJCAKKO@bSend?$AA@
CONST	SEGMENT
??_C@_05DLJCAKKO@bSend?$AA@ DB 'bSend', 00H		; `string'
CONST	ENDS
;	COMDAT ??_C@_0BA@HICLJBKB@fnews?4is_open?$CI?$CJ?$AA@
CONST	SEGMENT
??_C@_0BA@HICLJBKB@fnews?4is_open?$CI?$CJ?$AA@ DB 'fnews.is_open()', 00H ; `string'
CONST	ENDS
;	COMDAT ??_C@_03HAPOJHBM@GET?$AA@
CONST	SEGMENT
??_C@_03HAPOJHBM@GET?$AA@ DB 'GET', 00H			; `string'
CONST	ENDS
;	COMDAT ??_C@_06KLDIONEO@MMOTOP?$AA@
CONST	SEGMENT
??_C@_06KLDIONEO@MMOTOP?$AA@ DB 'MMOTOP', 00H		; `string'
CONST	ENDS
;	COMDAT ??_C@_01NOFIACDB@w?$AA@
CONST	SEGMENT
??_C@_01NOFIACDB@w?$AA@ DB 'w', 00H			; `string'
CONST	ENDS
;	COMDAT ??_C@_04LJLMOBMF@QTOP?$AA@
CONST	SEGMENT
??_C@_04LJLMOBMF@QTOP?$AA@ DB 'QTOP', 00H		; `string'
CONST	ENDS
;	COMDAT xdata$x
xdata$x	SEGMENT
__unwindtable$?Qtop@Voter@@QAEXXZ DD 0ffffffffH
	DD	FLAT:__unwindfunclet$?Qtop@Voter@@QAEXXZ$0
__ehfuncinfo$?Qtop@Voter@@QAEXXZ DD 019930522H
	DD	01H
	DD	FLAT:__unwindtable$?Qtop@Voter@@QAEXXZ
	DD	2 DUP(00H)
	DD	2 DUP(00H)
	DD	00H
	DD	01H
; Function compile flags: /Ogtp
; File e:\work\tranet_version\gs\gameserver\voter.cpp
xdata$x	ENDS
;	COMDAT ?Qtop@Voter@@QAEXXZ
_TEXT	SEGMENT
_fnews$207927 = -4296					; size = 168
_hInternet$207919 = -4128				; size = 4
_this$GSCopy$ = -4124					; size = 4
_hConnect$207921 = -4120				; size = 4
_hSession$207903 = -4120				; size = 4
_dwBytesRead$207933 = -4116				; size = 4
_dwBytesRead$207914 = -4116				; size = 4
_szData$207932 = -4112					; size = 4096
_szData$207913 = -4112					; size = 4096
__$ArrayPad$ = -16					; size = 4
__$EHRec$ = -12						; size = 12
?Qtop@Voter@@QAEXXZ PROC				; Voter::Qtop, COMDAT
; _this$ = ecx

; 624  : {

  00000	55		 push	 ebp
  00001	8b ec		 mov	 ebp, esp
  00003	6a ff		 push	 -1
  00005	68 00 00 00 00	 push	 __ehhandler$?Qtop@Voter@@QAEXXZ
  0000a	64 a1 00 00 00
	00		 mov	 eax, DWORD PTR fs:0
  00010	50		 push	 eax
  00011	b8 bc 10 00 00	 mov	 eax, 4284		; 000010bcH
  00016	e8 00 00 00 00	 call	 __chkstk
  0001b	a1 00 00 00 00	 mov	 eax, DWORD PTR ___security_cookie
  00020	33 c5		 xor	 eax, ebp
  00022	89 45 f0	 mov	 DWORD PTR __$ArrayPad$[ebp], eax
  00025	53		 push	 ebx
  00026	56		 push	 esi
  00027	57		 push	 edi
  00028	50		 push	 eax
  00029	8d 45 f4	 lea	 eax, DWORD PTR __$EHRec$[ebp]
  0002c	64 a3 00 00 00
	00		 mov	 DWORD PTR fs:0, eax
  00032	8b d9		 mov	 ebx, ecx

; 625  : 	if (!this->QTOP_Enable) return;

  00034	80 bb 30 01 00
	00 00		 cmp	 BYTE PTR [ebx+304], 0

; 673  : 				}
; 674  : 				fclose(file);

  0003b	89 9d e4 ef ff
	ff		 mov	 DWORD PTR _this$GSCopy$[ebp], ebx
  00041	0f 84 4c 03 00
	00		 je	 $LN29@Qtop

; 626  : 
; 627  : 	//--------------------------------------------------------
; 628  : 	if (QTOP_UPDATE_VOTER == 1)

  00047	8b 83 34 01 00
	00		 mov	 eax, DWORD PTR [ebx+308]
  0004d	83 f8 01	 cmp	 eax, 1
  00050	75 29		 jne	 SHORT $LN27@Qtop

; 629  : 	{
; 630  : 		if (this->QTOP_DownloadFile)

  00052	80 bb 32 01 00
	00 00		 cmp	 BYTE PTR [ebx+306], 0
  00059	0f 84 2d 03 00
	00		 je	 $LN1@Qtop

; 631  : 		{
; 632  : 			URLDownloadToFileA(NULL,
; 633  : 				_T(this->QTOP_FileName),
; 634  : 				_T(QTOP_FILE),
; 635  : 				0, NULL);

  0005f	6a 00		 push	 0
  00061	6a 00		 push	 0
  00063	68 00 00 00 00	 push	 OFFSET ??_C@_08CLPFLBNE@qtop?4txt?$AA@
  00068	8d 83 38 01 00
	00		 lea	 eax, DWORD PTR [ebx+312]
  0006e	50		 push	 eax
  0006f	6a 00		 push	 0
  00071	e8 00 00 00 00	 call	 _URLDownloadToFileA@20

; 636  : 		}
; 637  : 	}

  00076	e9 11 03 00 00	 jmp	 $LN1@Qtop
$LN27@Qtop:

; 638  : 	//--------------------------------------------------------
; 639  : 	else if (QTOP_UPDATE_VOTER == 2)

  0007b	83 f8 02	 cmp	 eax, 2
  0007e	0f 85 32 01 00
	00		 jne	 $LN24@Qtop

; 640  : 	{
; 641  : 		if (this->QTOP_DownloadFile)

  00084	80 bb 32 01 00
	00 00		 cmp	 BYTE PTR [ebx+306], 0
  0008b	0f 84 fb 02 00
	00		 je	 $LN1@Qtop

; 642  : 		{
; 643  : 			HINTERNET hSession = InternetOpenA("QTOP", INTERNET_OPEN_TYPE_PRECONFIG, NULL, NULL, 0);

  00091	6a 00		 push	 0
  00093	6a 00		 push	 0
  00095	6a 00		 push	 0
  00097	6a 00		 push	 0
  00099	68 00 00 00 00	 push	 OFFSET ??_C@_04LJLMOBMF@QTOP?$AA@
  0009e	ff 15 00 00 00
	00		 call	 DWORD PTR __imp__InternetOpenA@20

; 644  : 			HINTERNET hHandle = InternetOpenUrlA(hSession, this->QTOP_FileName, NULL, 0, INTERNET_FLAG_DONT_CACHE, 0);

  000a4	6a 00		 push	 0
  000a6	68 00 00 00 04	 push	 67108864		; 04000000H
  000ab	6a 00		 push	 0
  000ad	6a 00		 push	 0
  000af	8b f8		 mov	 edi, eax
  000b1	81 c3 38 01 00
	00		 add	 ebx, 312		; 00000138H
  000b7	53		 push	 ebx
  000b8	57		 push	 edi
  000b9	89 bd e8 ef ff
	ff		 mov	 DWORD PTR _hSession$207903[ebp], edi
  000bf	ff 15 00 00 00
	00		 call	 DWORD PTR __imp__InternetOpenUrlA@24
  000c5	8b f0		 mov	 esi, eax

; 645  : 			// ----
; 646  : 			if (hSession == NULL || hHandle == NULL)

  000c7	85 ff		 test	 edi, edi
  000c9	0f 84 d6 00 00
	00		 je	 $LN21@Qtop
  000cf	85 f6		 test	 esi, esi
  000d1	0f 84 ce 00 00
	00		 je	 $LN21@Qtop

; 651  : 			}
; 652  : 			// ----
; 653  : 			FILE * file = fopen(QTOP_FILE, "w");

  000d7	68 00 00 00 00	 push	 OFFSET ??_C@_01NOFIACDB@w?$AA@
  000dc	68 00 00 00 00	 push	 OFFSET ??_C@_08CLPFLBNE@qtop?4txt?$AA@
  000e1	e8 00 00 00 00	 call	 _fopen
  000e6	8b d8		 mov	 ebx, eax
  000e8	83 c4 08	 add	 esp, 8

; 654  : 			if (file)

  000eb	85 db		 test	 ebx, ebx
  000ed	0f 84 9b 00 00
	00		 je	 $LN20@Qtop

; 655  : 			{
; 656  : 				while (true)
; 657  : 				{
; 658  : 					//  
; 659  : 					char  szData[4096];
; 660  : 					ZeroMemory(szData, sizeof(szData));

  000f3	68 00 10 00 00	 push	 4096			; 00001000H
  000f8	8d 8d f0 ef ff
	ff		 lea	 ecx, DWORD PTR _szData$207913[ebp]
  000fe	6a 00		 push	 0
  00100	51		 push	 ecx
  00101	e8 00 00 00 00	 call	 _memset

; 661  : 
; 662  : 					DWORD dwBytesRead;
; 663  : 
; 664  : 					BOOL bRead = ::InternetReadFile(hHandle, szData, sizeof(szData)-1, &dwBytesRead);

  00106	8b 3d 00 00 00
	00		 mov	 edi, DWORD PTR __imp__InternetReadFile@16
  0010c	83 c4 0c	 add	 esp, 12			; 0000000cH
  0010f	8d 95 ec ef ff
	ff		 lea	 edx, DWORD PTR _dwBytesRead$207914[ebp]
  00115	52		 push	 edx
  00116	68 ff 0f 00 00	 push	 4095			; 00000fffH
  0011b	8d 85 f0 ef ff
	ff		 lea	 eax, DWORD PTR _szData$207913[ebp]
  00121	50		 push	 eax
  00122	56		 push	 esi
  00123	ff d7		 call	 edi

; 665  : 
; 666  : 					// ? ?? ?
; 667  : 					if (bRead == FALSE || dwBytesRead == 0)

  00125	85 c0		 test	 eax, eax
  00127	74 56		 je	 SHORT $LN38@Qtop
  00129	8d a4 24 00 00
	00 00		 npad	 7
$LL19@Qtop:
  00130	8b 85 ec ef ff
	ff		 mov	 eax, DWORD PTR _dwBytesRead$207914[ebp]
  00136	85 c0		 test	 eax, eax
  00138	74 45		 je	 SHORT $LN38@Qtop

; 668  : 						break;
; 669  : 
; 670  : 					//  ?
; 671  : 					szData[dwBytesRead] = 0;
; 672  : 					fputs(szData, file);

  0013a	8d 8d f0 ef ff
	ff		 lea	 ecx, DWORD PTR _szData$207913[ebp]
  00140	53		 push	 ebx
  00141	51		 push	 ecx
  00142	c6 84 05 f0 ef
	ff ff 00	 mov	 BYTE PTR _szData$207913[ebp+eax], 0
  0014a	e8 00 00 00 00	 call	 _fputs
  0014f	68 00 10 00 00	 push	 4096			; 00001000H
  00154	8d 95 f0 ef ff
	ff		 lea	 edx, DWORD PTR _szData$207913[ebp]
  0015a	6a 00		 push	 0
  0015c	52		 push	 edx
  0015d	e8 00 00 00 00	 call	 _memset
  00162	83 c4 14	 add	 esp, 20			; 00000014H
  00165	8d 85 ec ef ff
	ff		 lea	 eax, DWORD PTR _dwBytesRead$207914[ebp]
  0016b	50		 push	 eax
  0016c	68 ff 0f 00 00	 push	 4095			; 00000fffH
  00171	8d 8d f0 ef ff
	ff		 lea	 ecx, DWORD PTR _szData$207913[ebp]
  00177	51		 push	 ecx
  00178	56		 push	 esi
  00179	ff d7		 call	 edi
  0017b	85 c0		 test	 eax, eax
  0017d	75 b1		 jne	 SHORT $LL19@Qtop
$LN38@Qtop:

; 673  : 				}
; 674  : 				fclose(file);

  0017f	53		 push	 ebx
  00180	e8 00 00 00 00	 call	 _fclose
  00185	8b bd e8 ef ff
	ff		 mov	 edi, DWORD PTR _hSession$207903[ebp]
  0018b	83 c4 04	 add	 esp, 4
$LN20@Qtop:

; 675  : 			}
; 676  : 
; 677  : 			InternetCloseHandle(hSession);	//Need ?

  0018e	57		 push	 edi
  0018f	8b 3d 00 00 00
	00		 mov	 edi, DWORD PTR __imp__InternetCloseHandle@4
  00195	ff d7		 call	 edi

; 678  : 			InternetCloseHandle(hHandle);

  00197	56		 push	 esi
  00198	ff d7		 call	 edi
  0019a	8b 9d e4 ef ff
	ff		 mov	 ebx, DWORD PTR _this$GSCopy$[ebp]
  001a0	e9 e7 01 00 00	 jmp	 $LN1@Qtop
$LN21@Qtop:

; 647  : 			{
; 648  : 				InternetCloseHandle(hSession);

  001a5	57		 push	 edi
  001a6	8b 3d 00 00 00
	00		 mov	 edi, DWORD PTR __imp__InternetCloseHandle@4
  001ac	ff d7		 call	 edi

; 649  : 				InternetCloseHandle(hHandle);

  001ae	56		 push	 esi
  001af	ff d7		 call	 edi

; 650  : 				return;

  001b1	e9 dd 01 00 00	 jmp	 $LN29@Qtop
$LN24@Qtop:

; 679  : 		}
; 680  : 
; 681  : 	}
; 682  : 	//--------------------------------------------------------
; 683  : 	else
; 684  : 	{
; 685  : 		//  WinInet
; 686  : 		HINTERNET hInternet = ::InternetOpen(TEXT("MMOTOP"),
; 687  : 			INTERNET_OPEN_TYPE_PRECONFIG,
; 688  : 			NULL, NULL,
; 689  : 			0);

  001b6	6a 00		 push	 0
  001b8	6a 00		 push	 0
  001ba	6a 00		 push	 0
  001bc	6a 00		 push	 0
  001be	68 00 00 00 00	 push	 OFFSET ??_C@_06KLDIONEO@MMOTOP?$AA@
  001c3	ff 15 00 00 00
	00		 call	 DWORD PTR __imp__InternetOpenA@20
  001c9	8b f0		 mov	 esi, eax
  001cb	89 b5 e0 ef ff
	ff		 mov	 DWORD PTR _hInternet$207919[ebp], esi

; 690  : 
; 691  : 		if (hInternet != NULL)

  001d1	85 f6		 test	 esi, esi
  001d3	0f 84 a6 01 00
	00		 je	 $LN14@Qtop

; 692  : 		{
; 693  : 			// ?HTTP 
; 694  : 			HINTERNET hConnect =
; 695  : 				::InternetConnect(
; 696  : 				hInternet,
; 697  : 				TEXT(QTOP_FILE),
; 698  : 				INTERNET_DEFAULT_HTTP_PORT,
; 699  : 				NULL, NULL,
; 700  : 				INTERNET_SERVICE_HTTP,
; 701  : 				0,
; 702  : 				1u);

  001d9	6a 01		 push	 1
  001db	6a 00		 push	 0
  001dd	6a 03		 push	 3
  001df	6a 00		 push	 0
  001e1	6a 00		 push	 0
  001e3	6a 50		 push	 80			; 00000050H
  001e5	68 00 00 00 00	 push	 OFFSET ??_C@_08CLPFLBNE@qtop?4txt?$AA@
  001ea	56		 push	 esi
  001eb	ff 15 00 00 00
	00		 call	 DWORD PTR __imp__InternetConnectA@32
  001f1	8b f8		 mov	 edi, eax
  001f3	89 bd e8 ef ff
	ff		 mov	 DWORD PTR _hConnect$207921[ebp], edi

; 703  : 
; 704  : 			if (hConnect != NULL)

  001f9	85 ff		 test	 edi, edi
  001fb	0f 84 68 01 00
	00		 je	 $LN13@Qtop

; 705  : 			{
; 706  : 				// ?
; 707  : 				HINTERNET hRequest = ::HttpOpenRequest(hConnect,
; 708  : 					TEXT("GET"),
; 709  : 					TEXT(QTOP_FileName),        //TEXT("votes/aba02abed8021ba31a4499a390aa8afa4679c6d1.txt"),//TEXT("news.asp"),
; 710  : 					NULL,
; 711  : 					NULL,
; 712  : 					0,
; 713  : 					INTERNET_FLAG_KEEP_CONNECTION,
; 714  : 					1);

  00201	6a 01		 push	 1
  00203	68 00 00 40 00	 push	 4194304			; 00400000H
  00208	6a 00		 push	 0
  0020a	6a 00		 push	 0
  0020c	6a 00		 push	 0
  0020e	8d 93 38 01 00
	00		 lea	 edx, DWORD PTR [ebx+312]
  00214	52		 push	 edx
  00215	68 00 00 00 00	 push	 OFFSET ??_C@_03HAPOJHBM@GET?$AA@
  0021a	57		 push	 edi
  0021b	ff 15 00 00 00
	00		 call	 DWORD PTR __imp__HttpOpenRequestA@32
  00221	8b f0		 mov	 esi, eax

; 715  : 
; 716  : 				if (hRequest != NULL)

  00223	85 f6		 test	 esi, esi
  00225	0f 84 1b 01 00
	00		 je	 $LN12@Qtop

; 717  : 				{
; 718  : 					//  
; 719  : 					BOOL bSend = ::HttpSendRequest(hRequest, NULL, 0, NULL, 0);

  0022b	6a 00		 push	 0
  0022d	6a 00		 push	 0
  0022f	6a 00		 push	 0
  00231	6a 00		 push	 0
  00233	56		 push	 esi
  00234	ff 15 00 00 00
	00		 call	 DWORD PTR __imp__HttpSendRequestA@20

; 720  : 					if (bSend)

  0023a	85 c0		 test	 eax, eax
  0023c	0f 84 da 00 00
	00		 je	 $LN11@Qtop

; 721  : 					{
; 722  : 						// ? 
; 723  : 						std::ofstream fnews(QTOP_FILE, std::ios::out | std::ios::binary);

  00242	6a 01		 push	 1
  00244	6a 40		 push	 64			; 00000040H
  00246	6a 22		 push	 34			; 00000022H
  00248	68 00 00 00 00	 push	 OFFSET ??_C@_08CLPFLBNE@qtop?4txt?$AA@
  0024d	8d 8d 38 ef ff
	ff		 lea	 ecx, DWORD PTR _fnews$207927[ebp]
  00253	e8 00 00 00 00	 call	 ??0?$basic_ofstream@DU?$char_traits@D@std@@@std@@QAE@PBDHH@Z ; std::basic_ofstream<char,std::char_traits<char> >::basic_ofstream<char,std::char_traits<char> >

; 724  : 						if (fnews.is_open())

  00258	83 bd 90 ef ff
	ff 00		 cmp	 DWORD PTR _fnews$207927[ebp+88], 0
  0025f	c7 45 fc 00 00
	00 00		 mov	 DWORD PTR __$EHRec$[ebp+8], 0
  00266	0f 84 a1 00 00
	00		 je	 $LN10@Qtop

; 725  : 						{
; 726  : 							while (true)
; 727  : 							{
; 728  : 								//  
; 729  : 								char  szData[4096];
; 730  : 								DWORD dwBytesRead;
; 731  : 								BOOL bRead =
; 732  : 									::InternetReadFile(
; 733  : 									hRequest,
; 734  : 									szData, sizeof(szData)-1,
; 735  : 									&dwBytesRead);

  0026c	8b 3d 00 00 00
	00		 mov	 edi, DWORD PTR __imp__InternetReadFile@16
  00272	8d 85 ec ef ff
	ff		 lea	 eax, DWORD PTR _dwBytesRead$207933[ebp]
  00278	50		 push	 eax
  00279	68 ff 0f 00 00	 push	 4095			; 00000fffH
  0027e	8d 8d f0 ef ff
	ff		 lea	 ecx, DWORD PTR _szData$207932[ebp]
  00284	51		 push	 ecx
  00285	56		 push	 esi
  00286	ff d7		 call	 edi

; 736  : 
; 737  : 								// ? ?? ?
; 738  : 								if (bRead == FALSE || dwBytesRead == 0)

  00288	85 c0		 test	 eax, eax
  0028a	74 46		 je	 SHORT $LN42@Qtop
  0028c	8d 64 24 00	 npad	 4
$LL9@Qtop:
  00290	8b 85 ec ef ff
	ff		 mov	 eax, DWORD PTR _dwBytesRead$207933[ebp]
  00296	85 c0		 test	 eax, eax
  00298	74 38		 je	 SHORT $LN42@Qtop

; 739  : 									break;
; 740  : 
; 741  : 								//  ?
; 742  : 								szData[dwBytesRead] = 0;
; 743  : 								fnews << szData;

  0029a	8d 95 f0 ef ff
	ff		 lea	 edx, DWORD PTR _szData$207932[ebp]
  002a0	c6 84 05 f0 ef
	ff ff 00	 mov	 BYTE PTR _szData$207932[ebp+eax], 0
  002a8	52		 push	 edx
  002a9	8d 85 38 ef ff
	ff		 lea	 eax, DWORD PTR _fnews$207927[ebp]
  002af	50		 push	 eax
  002b0	e8 00 00 00 00	 call	 ??$?6U?$char_traits@D@std@@@std@@YAAAV?$basic_ostream@DU?$char_traits@D@std@@@0@AAV10@PBD@Z ; std::operator<<<std::char_traits<char> >
  002b5	83 c4 08	 add	 esp, 8
  002b8	8d 8d ec ef ff
	ff		 lea	 ecx, DWORD PTR _dwBytesRead$207933[ebp]
  002be	51		 push	 ecx
  002bf	68 ff 0f 00 00	 push	 4095			; 00000fffH
  002c4	8d 95 f0 ef ff
	ff		 lea	 edx, DWORD PTR _szData$207932[ebp]
  002ca	52		 push	 edx
  002cb	56		 push	 esi
  002cc	ff d7		 call	 edi
  002ce	85 c0		 test	 eax, eax
  002d0	75 be		 jne	 SHORT $LL9@Qtop
$LN42@Qtop:

; 744  : 							}
; 745  : 						}
; 746  : 						else

  002d2	8b bd e8 ef ff
	ff		 mov	 edi, DWORD PTR _hConnect$207921[ebp]
  002d8	8b 9d e4 ef ff
	ff		 mov	 ebx, DWORD PTR _this$GSCopy$[ebp]
$LN5@Qtop:

; 749  : 						}
; 750  : 					}

  002de	8d 8d 38 ef ff
	ff		 lea	 ecx, DWORD PTR _fnews$207927[ebp]
  002e4	c7 45 fc ff ff
	ff ff		 mov	 DWORD PTR __$EHRec$[ebp+8], -1
  002eb	e8 00 00 00 00	 call	 ??_D?$basic_ofstream@DU?$char_traits@D@std@@@std@@QAEXXZ

; 754  : 					}
; 755  : 					// ?
; 756  : 					::InternetCloseHandle(hRequest);

  002f0	56		 push	 esi
  002f1	ff 15 00 00 00
	00		 call	 DWORD PTR __imp__InternetCloseHandle@4

; 761  : 				}
; 762  : 				// ?
; 763  : 				::InternetCloseHandle(hConnect);

  002f7	57		 push	 edi
  002f8	ff 15 00 00 00
	00		 call	 DWORD PTR __imp__InternetCloseHandle@4

; 764  : 			}
; 765  : 			else

  002fe	8b b5 e0 ef ff
	ff		 mov	 esi, DWORD PTR _hInternet$207919[ebp]

; 768  : 			}
; 769  : 			// ?WinInet
; 770  : 			::InternetCloseHandle(hInternet);

  00304	56		 push	 esi
  00305	ff 15 00 00 00
	00		 call	 DWORD PTR __imp__InternetCloseHandle@4

; 771  : 		}
; 772  : 		else

  0030b	eb 7f		 jmp	 SHORT $LN1@Qtop
$LN10@Qtop:

; 747  : 						{
; 748  : 							AdmLog("fnews.is_open()");

  0030d	68 00 00 00 00	 push	 OFFSET ??_C@_0BA@HICLJBKB@fnews?4is_open?$CI?$CJ?$AA@
  00312	e8 00 00 00 00	 call	 ?AdmLog@@YAXPAD@Z	; AdmLog
  00317	83 c4 04	 add	 esp, 4
  0031a	eb c2		 jmp	 SHORT $LN5@Qtop
$LN11@Qtop:

; 751  : 					else
; 752  : 					{
; 753  : 						AdmLog("bSend");

  0031c	68 00 00 00 00	 push	 OFFSET ??_C@_05DLJCAKKO@bSend?$AA@
  00321	e8 00 00 00 00	 call	 ?AdmLog@@YAXPAD@Z	; AdmLog
  00326	83 c4 04	 add	 esp, 4

; 754  : 					}
; 755  : 					// ?
; 756  : 					::InternetCloseHandle(hRequest);

  00329	56		 push	 esi
  0032a	ff 15 00 00 00
	00		 call	 DWORD PTR __imp__InternetCloseHandle@4

; 761  : 				}
; 762  : 				// ?
; 763  : 				::InternetCloseHandle(hConnect);

  00330	57		 push	 edi
  00331	ff 15 00 00 00
	00		 call	 DWORD PTR __imp__InternetCloseHandle@4

; 764  : 			}
; 765  : 			else

  00337	8b b5 e0 ef ff
	ff		 mov	 esi, DWORD PTR _hInternet$207919[ebp]

; 768  : 			}
; 769  : 			// ?WinInet
; 770  : 			::InternetCloseHandle(hInternet);

  0033d	56		 push	 esi
  0033e	ff 15 00 00 00
	00		 call	 DWORD PTR __imp__InternetCloseHandle@4

; 771  : 		}
; 772  : 		else

  00344	eb 46		 jmp	 SHORT $LN1@Qtop
$LN12@Qtop:

; 757  : 				}
; 758  : 				else
; 759  : 				{
; 760  : 					AdmLog("hRequest != NULL");

  00346	68 00 00 00 00	 push	 OFFSET ??_C@_0BB@CCOENLML@hRequest?5?$CB?$DN?5NULL?$AA@
  0034b	e8 00 00 00 00	 call	 ?AdmLog@@YAXPAD@Z	; AdmLog
  00350	83 c4 04	 add	 esp, 4

; 761  : 				}
; 762  : 				// ?
; 763  : 				::InternetCloseHandle(hConnect);

  00353	57		 push	 edi
  00354	ff 15 00 00 00
	00		 call	 DWORD PTR __imp__InternetCloseHandle@4

; 764  : 			}
; 765  : 			else

  0035a	8b b5 e0 ef ff
	ff		 mov	 esi, DWORD PTR _hInternet$207919[ebp]

; 768  : 			}
; 769  : 			// ?WinInet
; 770  : 			::InternetCloseHandle(hInternet);

  00360	56		 push	 esi
  00361	ff 15 00 00 00
	00		 call	 DWORD PTR __imp__InternetCloseHandle@4

; 771  : 		}
; 772  : 		else

  00367	eb 23		 jmp	 SHORT $LN1@Qtop
$LN13@Qtop:

; 766  : 			{
; 767  : 				AdmLog("hConnect != NULL");

  00369	68 00 00 00 00	 push	 OFFSET ??_C@_0BB@MALKFMPK@hConnect?5?$CB?$DN?5NULL?$AA@
  0036e	e8 00 00 00 00	 call	 ?AdmLog@@YAXPAD@Z	; AdmLog
  00373	83 c4 04	 add	 esp, 4

; 768  : 			}
; 769  : 			// ?WinInet
; 770  : 			::InternetCloseHandle(hInternet);

  00376	56		 push	 esi
  00377	ff 15 00 00 00
	00		 call	 DWORD PTR __imp__InternetCloseHandle@4

; 771  : 		}
; 772  : 		else

  0037d	eb 0d		 jmp	 SHORT $LN1@Qtop
$LN14@Qtop:

; 773  : 		{
; 774  : 			AdmLog("hInternet != NULL");

  0037f	68 00 00 00 00	 push	 OFFSET ??_C@_0BC@ELJALHPL@hInternet?5?$CB?$DN?5NULL?$AA@
  00384	e8 00 00 00 00	 call	 ?AdmLog@@YAXPAD@Z	; AdmLog
  00389	83 c4 04	 add	 esp, 4
$LN1@Qtop:

; 775  : 		}
; 776  : 	}
; 777  : 	//--------------------------------------------------------
; 778  : 
; 779  : #ifdef DEBUG_CODE
; 780  : 	AdmLog("DEBUG_CODE");
; 781  : #endif
; 782  : 
; 783  : 	this->QtopReed();

  0038c	8b cb		 mov	 ecx, ebx
  0038e	e8 00 00 00 00	 call	 ?QtopReed@Voter@@QAEXXZ	; Voter::QtopReed
$LN29@Qtop:

; 784  : }

  00393	8b 4d f4	 mov	 ecx, DWORD PTR __$EHRec$[ebp]
  00396	64 89 0d 00 00
	00 00		 mov	 DWORD PTR fs:0, ecx
  0039d	59		 pop	 ecx
  0039e	5f		 pop	 edi
  0039f	5e		 pop	 esi
  003a0	5b		 pop	 ebx
  003a1	8b 4d f0	 mov	 ecx, DWORD PTR __$ArrayPad$[ebp]
  003a4	33 cd		 xor	 ecx, ebp
  003a6	e8 00 00 00 00	 call	 @__security_check_cookie@4
  003ab	8b e5		 mov	 esp, ebp
  003ad	5d		 pop	 ebp
  003ae	c3		 ret	 0
_TEXT	ENDS
;	COMDAT text$x
text$x	SEGMENT
__unwindfunclet$?Qtop@Voter@@QAEXXZ$0:
  00000	8d 8d 38 ef ff
	ff		 lea	 ecx, DWORD PTR _fnews$207927[ebp]
  00006	e9 00 00 00 00	 jmp	 ??_D?$basic_ofstream@DU?$char_traits@D@std@@@std@@QAEXXZ
__ehhandler$?Qtop@Voter@@QAEXXZ:
  0000b	8b 54 24 08	 mov	 edx, DWORD PTR [esp+8]
  0000f	8d 42 0c	 lea	 eax, DWORD PTR [edx+12]
  00012	8b 8a 34 ef ff
	ff		 mov	 ecx, DWORD PTR [edx-4300]
  00018	33 c8		 xor	 ecx, eax
  0001a	e8 00 00 00 00	 call	 @__security_check_cookie@4
  0001f	8b 4a fc	 mov	 ecx, DWORD PTR [edx-4]
  00022	33 c8		 xor	 ecx, eax
  00024	e8 00 00 00 00	 call	 @__security_check_cookie@4
  00029	b8 00 00 00 00	 mov	 eax, OFFSET __ehfuncinfo$?Qtop@Voter@@QAEXXZ
  0002e	e9 00 00 00 00	 jmp	 ___CxxFrameHandler3
text$x	ENDS
?Qtop@Voter@@QAEXXZ ENDP				; Voter::Qtop
PUBLIC	??_C@_0L@HJNFAJLH@mootop?4txt?$AA@		; `string'
PUBLIC	??_C@_0O@DPCADCBH@www?4mmotop?4ru?$AA@		; `string'
PUBLIC	??_C@_05EFBPIHIL@ANONS?$AA@			; `string'
PUBLIC	_this$GSCopy$
PUBLIC	__$ArrayPad$
PUBLIC	?Anons@Voter@@QAEXXZ				; Voter::Anons
;	COMDAT ??_C@_0L@HJNFAJLH@mootop?4txt?$AA@
; File d:\program files (x86)\microsoft visual studio 10.0\vc\include\fstream
CONST	SEGMENT
??_C@_0L@HJNFAJLH@mootop?4txt?$AA@ DB 'mootop.txt', 00H	; `string'
CONST	ENDS
;	COMDAT ??_C@_0O@DPCADCBH@www?4mmotop?4ru?$AA@
CONST	SEGMENT
??_C@_0O@DPCADCBH@www?4mmotop?4ru?$AA@ DB 'www.mmotop.ru', 00H ; `string'
CONST	ENDS
;	COMDAT ??_C@_05EFBPIHIL@ANONS?$AA@
CONST	SEGMENT
??_C@_05EFBPIHIL@ANONS?$AA@ DB 'ANONS', 00H		; `string'
CONST	ENDS
;	COMDAT xdata$x
xdata$x	SEGMENT
__unwindtable$?Anons@Voter@@QAEXXZ DD 0ffffffffH
	DD	FLAT:__unwindfunclet$?Anons@Voter@@QAEXXZ$0
__ehfuncinfo$?Anons@Voter@@QAEXXZ DD 019930522H
	DD	01H
	DD	FLAT:__unwindtable$?Anons@Voter@@QAEXXZ
	DD	2 DUP(00H)
	DD	2 DUP(00H)
	DD	00H
	DD	01H
; Function compile flags: /Ogtp
; File e:\work\tranet_version\gs\gameserver\voter.cpp
xdata$x	ENDS
;	COMDAT ?Anons@Voter@@QAEXXZ
_TEXT	SEGMENT
_fnews$208077 = -4296					; size = 168
_hInternet$208069 = -4128				; size = 4
_this$GSCopy$ = -4124					; size = 4
_hConnect$208071 = -4120				; size = 4
_hSession$208052 = -4120				; size = 4
_dwBytesRead$208083 = -4116				; size = 4
_dwBytesRead$208064 = -4116				; size = 4
_szData$208082 = -4112					; size = 4096
_szData$208063 = -4112					; size = 4096
__$ArrayPad$ = -16					; size = 4
__$EHRec$ = -12						; size = 12
?Anons@Voter@@QAEXXZ PROC				; Voter::Anons, COMDAT
; _this$ = ecx

; 1063 : {

  00000	55		 push	 ebp
  00001	8b ec		 mov	 ebp, esp
  00003	6a ff		 push	 -1
  00005	68 00 00 00 00	 push	 __ehhandler$?Anons@Voter@@QAEXXZ
  0000a	64 a1 00 00 00
	00		 mov	 eax, DWORD PTR fs:0
  00010	50		 push	 eax
  00011	b8 bc 10 00 00	 mov	 eax, 4284		; 000010bcH
  00016	e8 00 00 00 00	 call	 __chkstk
  0001b	a1 00 00 00 00	 mov	 eax, DWORD PTR ___security_cookie
  00020	33 c5		 xor	 eax, ebp
  00022	89 45 f0	 mov	 DWORD PTR __$ArrayPad$[ebp], eax
  00025	53		 push	 ebx
  00026	56		 push	 esi
  00027	57		 push	 edi
  00028	50		 push	 eax
  00029	8d 45 f4	 lea	 eax, DWORD PTR __$EHRec$[ebp]
  0002c	64 a3 00 00 00
	00		 mov	 DWORD PTR fs:0, eax
  00032	8b d9		 mov	 ebx, ecx

; 1064 : 	if(!this->ANONS_Enable) return;

  00034	80 bb 70 02 00
	00 00		 cmp	 BYTE PTR [ebx+624], 0

; 1112 : 				}
; 1113 : 				fclose(file);

  0003b	89 9d e4 ef ff
	ff		 mov	 DWORD PTR _this$GSCopy$[ebp], ebx
  00041	0f 84 4c 03 00
	00		 je	 $LN29@Anons

; 1065 : 
; 1066 : 	//--------------------------------------------------------
; 1067 : 	if (ANONS_UPDATE_VOTER == 1)

  00047	8b 83 74 02 00
	00		 mov	 eax, DWORD PTR [ebx+628]
  0004d	83 f8 01	 cmp	 eax, 1
  00050	75 29		 jne	 SHORT $LN27@Anons

; 1068 : 	{
; 1069 : 		if (this->ANONS_DownloadFile)

  00052	80 bb 72 02 00
	00 00		 cmp	 BYTE PTR [ebx+626], 0
  00059	0f 84 2d 03 00
	00		 je	 $LN1@Anons

; 1070 : 		{
; 1071 : 			URLDownloadToFileA ( NULL, 
; 1072 : 				_T(this->ANONS_FileName),
; 1073 : 				_T("mmotop.txt"),
; 1074 : 				0,NULL );

  0005f	6a 00		 push	 0
  00061	6a 00		 push	 0
  00063	68 00 00 00 00	 push	 OFFSET ??_C@_0L@HNCANJIK@mmotop?4txt?$AA@
  00068	8d 83 78 02 00
	00		 lea	 eax, DWORD PTR [ebx+632]
  0006e	50		 push	 eax
  0006f	6a 00		 push	 0
  00071	e8 00 00 00 00	 call	 _URLDownloadToFileA@20

; 1075 : 		}
; 1076 : 	}

  00076	e9 11 03 00 00	 jmp	 $LN1@Anons
$LN27@Anons:

; 1077 : 	//--------------------------------------------------------
; 1078 : 	else if (ANONS_UPDATE_VOTER == 2)

  0007b	83 f8 02	 cmp	 eax, 2
  0007e	0f 85 32 01 00
	00		 jne	 $LN24@Anons

; 1079 : 	{
; 1080 : 		if (this->ANONS_DownloadFile)

  00084	80 bb 72 02 00
	00 00		 cmp	 BYTE PTR [ebx+626], 0
  0008b	0f 84 fb 02 00
	00		 je	 $LN1@Anons

; 1081 : 		{
; 1082 : 			HINTERNET hSession	= InternetOpenA("ANONS", INTERNET_OPEN_TYPE_PRECONFIG, NULL, NULL, 0);

  00091	6a 00		 push	 0
  00093	6a 00		 push	 0
  00095	6a 00		 push	 0
  00097	6a 00		 push	 0
  00099	68 00 00 00 00	 push	 OFFSET ??_C@_05EFBPIHIL@ANONS?$AA@
  0009e	ff 15 00 00 00
	00		 call	 DWORD PTR __imp__InternetOpenA@20

; 1083 : 			HINTERNET hHandle = InternetOpenUrlA(hSession, this->ANONS_FileName, NULL, 0, INTERNET_FLAG_DONT_CACHE, 0);

  000a4	6a 00		 push	 0
  000a6	68 00 00 00 04	 push	 67108864		; 04000000H
  000ab	6a 00		 push	 0
  000ad	6a 00		 push	 0
  000af	8b f8		 mov	 edi, eax
  000b1	81 c3 78 02 00
	00		 add	 ebx, 632		; 00000278H
  000b7	53		 push	 ebx
  000b8	57		 push	 edi
  000b9	89 bd e8 ef ff
	ff		 mov	 DWORD PTR _hSession$208052[ebp], edi
  000bf	ff 15 00 00 00
	00		 call	 DWORD PTR __imp__InternetOpenUrlA@24
  000c5	8b f0		 mov	 esi, eax

; 1084 : 			// ----
; 1085 : 			if( hSession == NULL || hHandle == NULL )

  000c7	85 ff		 test	 edi, edi
  000c9	0f 84 d6 00 00
	00		 je	 $LN21@Anons
  000cf	85 f6		 test	 esi, esi
  000d1	0f 84 ce 00 00
	00		 je	 $LN21@Anons

; 1090 : 			}
; 1091 : 			// ----
; 1092 : 			FILE * file = fopen(ANONS_FILE, "w");

  000d7	68 00 00 00 00	 push	 OFFSET ??_C@_01NOFIACDB@w?$AA@
  000dc	68 00 00 00 00	 push	 OFFSET ??_C@_0L@ICBDLIDP@anonse?4txt?$AA@
  000e1	e8 00 00 00 00	 call	 _fopen
  000e6	8b d8		 mov	 ebx, eax
  000e8	83 c4 08	 add	 esp, 8

; 1093 : 			if(file)

  000eb	85 db		 test	 ebx, ebx
  000ed	0f 84 9b 00 00
	00		 je	 $LN20@Anons

; 1094 : 			{
; 1095 : 				while (true) 
; 1096 : 				{
; 1097 : 					//  
; 1098 : 					char  szData[4096];
; 1099 : 					ZeroMemory(szData,sizeof(szData));

  000f3	68 00 10 00 00	 push	 4096			; 00001000H
  000f8	8d 8d f0 ef ff
	ff		 lea	 ecx, DWORD PTR _szData$208063[ebp]
  000fe	6a 00		 push	 0
  00100	51		 push	 ecx
  00101	e8 00 00 00 00	 call	 _memset

; 1100 : 
; 1101 : 					DWORD dwBytesRead;
; 1102 : 
; 1103 : 					BOOL bRead = ::InternetReadFile(hHandle,szData,sizeof(szData)-1,&dwBytesRead);

  00106	8b 3d 00 00 00
	00		 mov	 edi, DWORD PTR __imp__InternetReadFile@16
  0010c	83 c4 0c	 add	 esp, 12			; 0000000cH
  0010f	8d 95 ec ef ff
	ff		 lea	 edx, DWORD PTR _dwBytesRead$208064[ebp]
  00115	52		 push	 edx
  00116	68 ff 0f 00 00	 push	 4095			; 00000fffH
  0011b	8d 85 f0 ef ff
	ff		 lea	 eax, DWORD PTR _szData$208063[ebp]
  00121	50		 push	 eax
  00122	56		 push	 esi
  00123	ff d7		 call	 edi

; 1104 : 
; 1105 : 					// ? ?? ?
; 1106 : 					if (bRead == FALSE  ||  dwBytesRead == 0)

  00125	85 c0		 test	 eax, eax
  00127	74 56		 je	 SHORT $LN38@Anons
  00129	8d a4 24 00 00
	00 00		 npad	 7
$LL19@Anons:
  00130	8b 85 ec ef ff
	ff		 mov	 eax, DWORD PTR _dwBytesRead$208064[ebp]
  00136	85 c0		 test	 eax, eax
  00138	74 45		 je	 SHORT $LN38@Anons

; 1107 : 						break;
; 1108 : 
; 1109 : 					//  ?
; 1110 : 					szData[dwBytesRead] = 0;
; 1111 : 					fputs(szData, file);

  0013a	8d 8d f0 ef ff
	ff		 lea	 ecx, DWORD PTR _szData$208063[ebp]
  00140	53		 push	 ebx
  00141	51		 push	 ecx
  00142	c6 84 05 f0 ef
	ff ff 00	 mov	 BYTE PTR _szData$208063[ebp+eax], 0
  0014a	e8 00 00 00 00	 call	 _fputs
  0014f	68 00 10 00 00	 push	 4096			; 00001000H
  00154	8d 95 f0 ef ff
	ff		 lea	 edx, DWORD PTR _szData$208063[ebp]
  0015a	6a 00		 push	 0
  0015c	52		 push	 edx
  0015d	e8 00 00 00 00	 call	 _memset
  00162	83 c4 14	 add	 esp, 20			; 00000014H
  00165	8d 85 ec ef ff
	ff		 lea	 eax, DWORD PTR _dwBytesRead$208064[ebp]
  0016b	50		 push	 eax
  0016c	68 ff 0f 00 00	 push	 4095			; 00000fffH
  00171	8d 8d f0 ef ff
	ff		 lea	 ecx, DWORD PTR _szData$208063[ebp]
  00177	51		 push	 ecx
  00178	56		 push	 esi
  00179	ff d7		 call	 edi
  0017b	85 c0		 test	 eax, eax
  0017d	75 b1		 jne	 SHORT $LL19@Anons
$LN38@Anons:

; 1112 : 				}
; 1113 : 				fclose(file);

  0017f	53		 push	 ebx
  00180	e8 00 00 00 00	 call	 _fclose
  00185	8b bd e8 ef ff
	ff		 mov	 edi, DWORD PTR _hSession$208052[ebp]
  0018b	83 c4 04	 add	 esp, 4
$LN20@Anons:

; 1114 : 			}
; 1115 : 			
; 1116 : 			InternetCloseHandle(hSession);	//Need ?

  0018e	57		 push	 edi
  0018f	8b 3d 00 00 00
	00		 mov	 edi, DWORD PTR __imp__InternetCloseHandle@4
  00195	ff d7		 call	 edi

; 1117 : 			InternetCloseHandle(hHandle);

  00197	56		 push	 esi
  00198	ff d7		 call	 edi
  0019a	8b 9d e4 ef ff
	ff		 mov	 ebx, DWORD PTR _this$GSCopy$[ebp]
  001a0	e9 e7 01 00 00	 jmp	 $LN1@Anons
$LN21@Anons:

; 1086 : 			{
; 1087 : 				InternetCloseHandle(hSession);

  001a5	57		 push	 edi
  001a6	8b 3d 00 00 00
	00		 mov	 edi, DWORD PTR __imp__InternetCloseHandle@4
  001ac	ff d7		 call	 edi

; 1088 : 				InternetCloseHandle(hHandle);

  001ae	56		 push	 esi
  001af	ff d7		 call	 edi

; 1089 : 				return;

  001b1	e9 dd 01 00 00	 jmp	 $LN29@Anons
$LN24@Anons:

; 1118 : 		}
; 1119 : 
; 1120 : 	}
; 1121 : 	//--------------------------------------------------------
; 1122 : 	else
; 1123 : 	{
; 1124 : 		//  WinInet
; 1125 : 		HINTERNET hInternet = ::InternetOpen(TEXT("MMOTOP"),
; 1126 : 			INTERNET_OPEN_TYPE_PRECONFIG,
; 1127 : 			NULL,NULL,
; 1128 : 			0);

  001b6	6a 00		 push	 0
  001b8	6a 00		 push	 0
  001ba	6a 00		 push	 0
  001bc	6a 00		 push	 0
  001be	68 00 00 00 00	 push	 OFFSET ??_C@_06KLDIONEO@MMOTOP?$AA@
  001c3	ff 15 00 00 00
	00		 call	 DWORD PTR __imp__InternetOpenA@20
  001c9	8b f0		 mov	 esi, eax
  001cb	89 b5 e0 ef ff
	ff		 mov	 DWORD PTR _hInternet$208069[ebp], esi

; 1129 : 
; 1130 : 		if (hInternet != NULL) 

  001d1	85 f6		 test	 esi, esi
  001d3	0f 84 a6 01 00
	00		 je	 $LN14@Anons

; 1131 : 		{
; 1132 : 			// ?HTTP 
; 1133 : 			HINTERNET hConnect = 
; 1134 : 				::InternetConnect(
; 1135 : 					hInternet,
; 1136 : 					TEXT("www.mmotop.ru"),
; 1137 : 					INTERNET_DEFAULT_HTTP_PORT,
; 1138 : 					NULL,NULL,
; 1139 : 					INTERNET_SERVICE_HTTP,
; 1140 : 					0,
; 1141 : 					1u);

  001d9	6a 01		 push	 1
  001db	6a 00		 push	 0
  001dd	6a 03		 push	 3
  001df	6a 00		 push	 0
  001e1	6a 00		 push	 0
  001e3	6a 50		 push	 80			; 00000050H
  001e5	68 00 00 00 00	 push	 OFFSET ??_C@_0O@DPCADCBH@www?4mmotop?4ru?$AA@
  001ea	56		 push	 esi
  001eb	ff 15 00 00 00
	00		 call	 DWORD PTR __imp__InternetConnectA@32
  001f1	8b f8		 mov	 edi, eax
  001f3	89 bd e8 ef ff
	ff		 mov	 DWORD PTR _hConnect$208071[ebp], edi

; 1142 : 
; 1143 : 			if (hConnect != NULL) 

  001f9	85 ff		 test	 edi, edi
  001fb	0f 84 68 01 00
	00		 je	 $LN13@Anons

; 1144 : 			{
; 1145 : 				// ?
; 1146 : 				HINTERNET hRequest = ::HttpOpenRequest(hConnect,
; 1147 : 						TEXT("GET"),
; 1148 : 						TEXT(ANONS_FileName),        //TEXT("votes/aba02abed8021ba31a4499a390aa8afa4679c6d1.txt"),//TEXT("news.asp"),
; 1149 : 						NULL,
; 1150 : 						NULL,
; 1151 : 						0,
; 1152 : 						INTERNET_FLAG_KEEP_CONNECTION,
; 1153 : 						1);

  00201	6a 01		 push	 1
  00203	68 00 00 40 00	 push	 4194304			; 00400000H
  00208	6a 00		 push	 0
  0020a	6a 00		 push	 0
  0020c	6a 00		 push	 0
  0020e	8d 93 78 02 00
	00		 lea	 edx, DWORD PTR [ebx+632]
  00214	52		 push	 edx
  00215	68 00 00 00 00	 push	 OFFSET ??_C@_03HAPOJHBM@GET?$AA@
  0021a	57		 push	 edi
  0021b	ff 15 00 00 00
	00		 call	 DWORD PTR __imp__HttpOpenRequestA@32
  00221	8b f0		 mov	 esi, eax

; 1154 : 
; 1155 : 				if (hRequest != NULL) 

  00223	85 f6		 test	 esi, esi
  00225	0f 84 1b 01 00
	00		 je	 $LN12@Anons

; 1156 : 				{
; 1157 : 					//  
; 1158 : 					BOOL bSend = ::HttpSendRequest(hRequest, NULL,0, NULL,0);

  0022b	6a 00		 push	 0
  0022d	6a 00		 push	 0
  0022f	6a 00		 push	 0
  00231	6a 00		 push	 0
  00233	56		 push	 esi
  00234	ff 15 00 00 00
	00		 call	 DWORD PTR __imp__HttpSendRequestA@20

; 1159 : 					if (bSend) 

  0023a	85 c0		 test	 eax, eax
  0023c	0f 84 da 00 00
	00		 je	 $LN11@Anons

; 1160 : 					{
; 1161 : 						// ? 
; 1162 : 						std::ofstream fnews("mootop.txt",std::ios::out|std::ios::binary);

  00242	6a 01		 push	 1
  00244	6a 40		 push	 64			; 00000040H
  00246	6a 22		 push	 34			; 00000022H
  00248	68 00 00 00 00	 push	 OFFSET ??_C@_0L@HJNFAJLH@mootop?4txt?$AA@
  0024d	8d 8d 38 ef ff
	ff		 lea	 ecx, DWORD PTR _fnews$208077[ebp]
  00253	e8 00 00 00 00	 call	 ??0?$basic_ofstream@DU?$char_traits@D@std@@@std@@QAE@PBDHH@Z ; std::basic_ofstream<char,std::char_traits<char> >::basic_ofstream<char,std::char_traits<char> >

; 1163 : 						if (fnews.is_open()) 

  00258	83 bd 90 ef ff
	ff 00		 cmp	 DWORD PTR _fnews$208077[ebp+88], 0
  0025f	c7 45 fc 00 00
	00 00		 mov	 DWORD PTR __$EHRec$[ebp+8], 0
  00266	0f 84 a1 00 00
	00		 je	 $LN10@Anons

; 1164 : 						{
; 1165 : 							while (true) 
; 1166 : 							{
; 1167 : 								//  
; 1168 : 								char  szData[4096];
; 1169 : 								DWORD dwBytesRead;
; 1170 : 								BOOL bRead = 
; 1171 : 									::InternetReadFile(
; 1172 : 										hRequest,
; 1173 : 										szData,sizeof(szData)-1,
; 1174 : 										&dwBytesRead);

  0026c	8b 3d 00 00 00
	00		 mov	 edi, DWORD PTR __imp__InternetReadFile@16
  00272	8d 85 ec ef ff
	ff		 lea	 eax, DWORD PTR _dwBytesRead$208083[ebp]
  00278	50		 push	 eax
  00279	68 ff 0f 00 00	 push	 4095			; 00000fffH
  0027e	8d 8d f0 ef ff
	ff		 lea	 ecx, DWORD PTR _szData$208082[ebp]
  00284	51		 push	 ecx
  00285	56		 push	 esi
  00286	ff d7		 call	 edi

; 1175 : 
; 1176 : 								// ? ?? ?
; 1177 : 								if (bRead == FALSE  ||  dwBytesRead == 0)

  00288	85 c0		 test	 eax, eax
  0028a	74 46		 je	 SHORT $LN42@Anons
  0028c	8d 64 24 00	 npad	 4
$LL9@Anons:
  00290	8b 85 ec ef ff
	ff		 mov	 eax, DWORD PTR _dwBytesRead$208083[ebp]
  00296	85 c0		 test	 eax, eax
  00298	74 38		 je	 SHORT $LN42@Anons

; 1178 : 									break;
; 1179 : 
; 1180 : 								//  ?
; 1181 : 								szData[dwBytesRead] = 0;
; 1182 : 								fnews << szData;

  0029a	8d 95 f0 ef ff
	ff		 lea	 edx, DWORD PTR _szData$208082[ebp]
  002a0	c6 84 05 f0 ef
	ff ff 00	 mov	 BYTE PTR _szData$208082[ebp+eax], 0
  002a8	52		 push	 edx
  002a9	8d 85 38 ef ff
	ff		 lea	 eax, DWORD PTR _fnews$208077[ebp]
  002af	50		 push	 eax
  002b0	e8 00 00 00 00	 call	 ??$?6U?$char_traits@D@std@@@std@@YAAAV?$basic_ostream@DU?$char_traits@D@std@@@0@AAV10@PBD@Z ; std::operator<<<std::char_traits<char> >
  002b5	83 c4 08	 add	 esp, 8
  002b8	8d 8d ec ef ff
	ff		 lea	 ecx, DWORD PTR _dwBytesRead$208083[ebp]
  002be	51		 push	 ecx
  002bf	68 ff 0f 00 00	 push	 4095			; 00000fffH
  002c4	8d 95 f0 ef ff
	ff		 lea	 edx, DWORD PTR _szData$208082[ebp]
  002ca	52		 push	 edx
  002cb	56		 push	 esi
  002cc	ff d7		 call	 edi
  002ce	85 c0		 test	 eax, eax
  002d0	75 be		 jne	 SHORT $LL9@Anons
$LN42@Anons:

; 1183 : 							}
; 1184 : 						}
; 1185 : 						else

  002d2	8b bd e8 ef ff
	ff		 mov	 edi, DWORD PTR _hConnect$208071[ebp]
  002d8	8b 9d e4 ef ff
	ff		 mov	 ebx, DWORD PTR _this$GSCopy$[ebp]
$LN5@Anons:

; 1188 : 						}
; 1189 : 					}

  002de	8d 8d 38 ef ff
	ff		 lea	 ecx, DWORD PTR _fnews$208077[ebp]
  002e4	c7 45 fc ff ff
	ff ff		 mov	 DWORD PTR __$EHRec$[ebp+8], -1
  002eb	e8 00 00 00 00	 call	 ??_D?$basic_ofstream@DU?$char_traits@D@std@@@std@@QAEXXZ

; 1193 : 					}
; 1194 : 					// ?
; 1195 : 					::InternetCloseHandle(hRequest);

  002f0	56		 push	 esi
  002f1	ff 15 00 00 00
	00		 call	 DWORD PTR __imp__InternetCloseHandle@4

; 1200 : 				}
; 1201 : 				// ?
; 1202 : 				::InternetCloseHandle(hConnect);

  002f7	57		 push	 edi
  002f8	ff 15 00 00 00
	00		 call	 DWORD PTR __imp__InternetCloseHandle@4

; 1203 : 			}
; 1204 : 			else

  002fe	8b b5 e0 ef ff
	ff		 mov	 esi, DWORD PTR _hInternet$208069[ebp]

; 1207 : 			}
; 1208 : 			// ?WinInet
; 1209 : 			::InternetCloseHandle(hInternet);

  00304	56		 push	 esi
  00305	ff 15 00 00 00
	00		 call	 DWORD PTR __imp__InternetCloseHandle@4

; 1210 : 		}
; 1211 : 		else

  0030b	eb 7f		 jmp	 SHORT $LN1@Anons
$LN10@Anons:

; 1186 : 						{
; 1187 : 							AdmLog("fnews.is_open()");

  0030d	68 00 00 00 00	 push	 OFFSET ??_C@_0BA@HICLJBKB@fnews?4is_open?$CI?$CJ?$AA@
  00312	e8 00 00 00 00	 call	 ?AdmLog@@YAXPAD@Z	; AdmLog
  00317	83 c4 04	 add	 esp, 4
  0031a	eb c2		 jmp	 SHORT $LN5@Anons
$LN11@Anons:

; 1190 : 					else
; 1191 : 					{
; 1192 : 						AdmLog("bSend");

  0031c	68 00 00 00 00	 push	 OFFSET ??_C@_05DLJCAKKO@bSend?$AA@
  00321	e8 00 00 00 00	 call	 ?AdmLog@@YAXPAD@Z	; AdmLog
  00326	83 c4 04	 add	 esp, 4

; 1193 : 					}
; 1194 : 					// ?
; 1195 : 					::InternetCloseHandle(hRequest);

  00329	56		 push	 esi
  0032a	ff 15 00 00 00
	00		 call	 DWORD PTR __imp__InternetCloseHandle@4

; 1200 : 				}
; 1201 : 				// ?
; 1202 : 				::InternetCloseHandle(hConnect);

  00330	57		 push	 edi
  00331	ff 15 00 00 00
	00		 call	 DWORD PTR __imp__InternetCloseHandle@4

; 1203 : 			}
; 1204 : 			else

  00337	8b b5 e0 ef ff
	ff		 mov	 esi, DWORD PTR _hInternet$208069[ebp]

; 1207 : 			}
; 1208 : 			// ?WinInet
; 1209 : 			::InternetCloseHandle(hInternet);

  0033d	56		 push	 esi
  0033e	ff 15 00 00 00
	00		 call	 DWORD PTR __imp__InternetCloseHandle@4

; 1210 : 		}
; 1211 : 		else

  00344	eb 46		 jmp	 SHORT $LN1@Anons
$LN12@Anons:

; 1196 : 				}
; 1197 : 				else
; 1198 : 				{
; 1199 : 					AdmLog("hRequest != NULL");

  00346	68 00 00 00 00	 push	 OFFSET ??_C@_0BB@CCOENLML@hRequest?5?$CB?$DN?5NULL?$AA@
  0034b	e8 00 00 00 00	 call	 ?AdmLog@@YAXPAD@Z	; AdmLog
  00350	83 c4 04	 add	 esp, 4

; 1200 : 				}
; 1201 : 				// ?
; 1202 : 				::InternetCloseHandle(hConnect);

  00353	57		 push	 edi
  00354	ff 15 00 00 00
	00		 call	 DWORD PTR __imp__InternetCloseHandle@4

; 1203 : 			}
; 1204 : 			else

  0035a	8b b5 e0 ef ff
	ff		 mov	 esi, DWORD PTR _hInternet$208069[ebp]

; 1207 : 			}
; 1208 : 			// ?WinInet
; 1209 : 			::InternetCloseHandle(hInternet);

  00360	56		 push	 esi
  00361	ff 15 00 00 00
	00		 call	 DWORD PTR __imp__InternetCloseHandle@4

; 1210 : 		}
; 1211 : 		else

  00367	eb 23		 jmp	 SHORT $LN1@Anons
$LN13@Anons:

; 1205 : 			{
; 1206 : 				AdmLog("hConnect != NULL");

  00369	68 00 00 00 00	 push	 OFFSET ??_C@_0BB@MALKFMPK@hConnect?5?$CB?$DN?5NULL?$AA@
  0036e	e8 00 00 00 00	 call	 ?AdmLog@@YAXPAD@Z	; AdmLog
  00373	83 c4 04	 add	 esp, 4

; 1207 : 			}
; 1208 : 			// ?WinInet
; 1209 : 			::InternetCloseHandle(hInternet);

  00376	56		 push	 esi
  00377	ff 15 00 00 00
	00		 call	 DWORD PTR __imp__InternetCloseHandle@4

; 1210 : 		}
; 1211 : 		else

  0037d	eb 0d		 jmp	 SHORT $LN1@Anons
$LN14@Anons:

; 1212 : 		{
; 1213 : 			AdmLog("hInternet != NULL");

  0037f	68 00 00 00 00	 push	 OFFSET ??_C@_0BC@ELJALHPL@hInternet?5?$CB?$DN?5NULL?$AA@
  00384	e8 00 00 00 00	 call	 ?AdmLog@@YAXPAD@Z	; AdmLog
  00389	83 c4 04	 add	 esp, 4
$LN1@Anons:

; 1214 : 		}
; 1215 : 	}	
; 1216 : 	//--------------------------------------------------------
; 1217 : 
; 1218 : #ifdef DEBUG_CODE
; 1219 : 	AdmLog("DEBUG_CODE");
; 1220 : #endif
; 1221 : 
; 1222 : 	this->AnonsReed();

  0038c	8b cb		 mov	 ecx, ebx
  0038e	e8 00 00 00 00	 call	 ?AnonsReed@Voter@@QAEXXZ ; Voter::AnonsReed
$LN29@Anons:

; 1223 : }

  00393	8b 4d f4	 mov	 ecx, DWORD PTR __$EHRec$[ebp]
  00396	64 89 0d 00 00
	00 00		 mov	 DWORD PTR fs:0, ecx
  0039d	59		 pop	 ecx
  0039e	5f		 pop	 edi
  0039f	5e		 pop	 esi
  003a0	5b		 pop	 ebx
  003a1	8b 4d f0	 mov	 ecx, DWORD PTR __$ArrayPad$[ebp]
  003a4	33 cd		 xor	 ecx, ebp
  003a6	e8 00 00 00 00	 call	 @__security_check_cookie@4
  003ab	8b e5		 mov	 esp, ebp
  003ad	5d		 pop	 ebp
  003ae	c3		 ret	 0
_TEXT	ENDS
;	COMDAT text$x
text$x	SEGMENT
__unwindfunclet$?Anons@Voter@@QAEXXZ$0:
  00000	8d 8d 38 ef ff
	ff		 lea	 ecx, DWORD PTR _fnews$208077[ebp]
  00006	e9 00 00 00 00	 jmp	 ??_D?$basic_ofstream@DU?$char_traits@D@std@@@std@@QAEXXZ
__ehhandler$?Anons@Voter@@QAEXXZ:
  0000b	8b 54 24 08	 mov	 edx, DWORD PTR [esp+8]
  0000f	8d 42 0c	 lea	 eax, DWORD PTR [edx+12]
  00012	8b 8a 34 ef ff
	ff		 mov	 ecx, DWORD PTR [edx-4300]
  00018	33 c8		 xor	 ecx, eax
  0001a	e8 00 00 00 00	 call	 @__security_check_cookie@4
  0001f	8b 4a fc	 mov	 ecx, DWORD PTR [edx-4]
  00022	33 c8		 xor	 ecx, eax
  00024	e8 00 00 00 00	 call	 @__security_check_cookie@4
  00029	b8 00 00 00 00	 mov	 eax, OFFSET __ehfuncinfo$?Anons@Voter@@QAEXXZ
  0002e	e9 00 00 00 00	 jmp	 ___CxxFrameHandler3
text$x	ENDS
?Anons@Voter@@QAEXXZ ENDP				; Voter::Anons
; Function compile flags: /Ogtp
;	COMDAT ??_G?$basic_ofstream@DU?$char_traits@D@std@@@std@@UAEPAXI@Z
_TEXT	SEGMENT
___flags$ = 8						; size = 4
??_G?$basic_ofstream@DU?$char_traits@D@std@@@std@@UAEPAXI@Z PROC ; std::basic_ofstream<char,std::char_traits<char> >::`scalar deleting destructor', COMDAT
; _this$ = ecx
  00000	55		 push	 ebp
  00001	8b ec		 mov	 ebp, esp
  00003	56		 push	 esi
  00004	57		 push	 edi
  00005	8d 79 a0	 lea	 edi, DWORD PTR [ecx-96]
  00008	8d 77 60	 lea	 esi, DWORD PTR [edi+96]
  0000b	8b ce		 mov	 ecx, esi
  0000d	e8 00 00 00 00	 call	 ??1?$basic_ofstream@DU?$char_traits@D@std@@@std@@UAE@XZ ; std::basic_ofstream<char,std::char_traits<char> >::~basic_ofstream<char,std::char_traits<char> >
  00012	56		 push	 esi
  00013	c7 06 00 00 00
	00		 mov	 DWORD PTR [esi], OFFSET ??_7ios_base@std@@6B@
  00019	e8 00 00 00 00	 call	 ?_Ios_base_dtor@ios_base@std@@CAXPAV12@@Z ; std::ios_base::_Ios_base_dtor
  0001e	83 c4 04	 add	 esp, 4
  00021	f6 45 08 01	 test	 BYTE PTR ___flags$[ebp], 1
  00025	74 09		 je	 SHORT $LN11@scalar@16
  00027	57		 push	 edi
  00028	e8 00 00 00 00	 call	 ??3@YAXPAX@Z		; operator delete
  0002d	83 c4 04	 add	 esp, 4
$LN11@scalar@16:
  00030	8b c7		 mov	 eax, edi
  00032	5f		 pop	 edi
  00033	5e		 pop	 esi
  00034	5d		 pop	 ebp
  00035	c2 04 00	 ret	 4
??_G?$basic_ofstream@DU?$char_traits@D@std@@@std@@UAEPAXI@Z ENDP ; std::basic_ofstream<char,std::char_traits<char> >::`scalar deleting destructor'
_TEXT	ENDS
PUBLIC	_this$GSCopy$
PUBLIC	__$ArrayPad$
PUBLIC	?Mootop@Voter@@QAEXXZ				; Voter::Mootop
;	COMDAT xdata$x
; File d:\program files (x86)\microsoft visual studio 10.0\vc\include\fstream
xdata$x	SEGMENT
__unwindtable$?Mootop@Voter@@QAEXXZ DD 0ffffffffH
	DD	FLAT:__unwindfunclet$?Mootop@Voter@@QAEXXZ$0
__ehfuncinfo$?Mootop@Voter@@QAEXXZ DD 019930522H
	DD	01H
	DD	FLAT:__unwindtable$?Mootop@Voter@@QAEXXZ
	DD	2 DUP(00H)
	DD	2 DUP(00H)
	DD	00H
	DD	01H
; Function compile flags: /Ogtp
; File e:\work\tranet_version\gs\gameserver\voter.cpp
xdata$x	ENDS
;	COMDAT ?Mootop@Voter@@QAEXXZ
_TEXT	SEGMENT
_fnews$207651 = -4296					; size = 168
_hInternet$207426 = -4128				; size = 4
_this$GSCopy$ = -4124					; size = 4
_hConnect$207428 = -4120				; size = 4
_hSession$207409 = -4120				; size = 4
_dwBytesRead$207659 = -4116				; size = 4
_dwBytesRead$207421 = -4116				; size = 4
_szData$207658 = -4112					; size = 4096
_szData$207420 = -4112					; size = 4096
__$ArrayPad$ = -16					; size = 4
__$EHRec$ = -12						; size = 12
?Mootop@Voter@@QAEXXZ PROC				; Voter::Mootop, COMDAT
; _this$ = ecx

; 193  : {

  00000	55		 push	 ebp
  00001	8b ec		 mov	 ebp, esp
  00003	6a ff		 push	 -1
  00005	68 00 00 00 00	 push	 __ehhandler$?Mootop@Voter@@QAEXXZ
  0000a	64 a1 00 00 00
	00		 mov	 eax, DWORD PTR fs:0
  00010	50		 push	 eax
  00011	b8 bc 10 00 00	 mov	 eax, 4284		; 000010bcH
  00016	e8 00 00 00 00	 call	 __chkstk
  0001b	a1 00 00 00 00	 mov	 eax, DWORD PTR ___security_cookie
  00020	33 c5		 xor	 eax, ebp
  00022	89 45 f0	 mov	 DWORD PTR __$ArrayPad$[ebp], eax
  00025	53		 push	 ebx
  00026	56		 push	 esi
  00027	57		 push	 edi
  00028	50		 push	 eax
  00029	8d 45 f4	 lea	 eax, DWORD PTR __$EHRec$[ebp]
  0002c	64 a3 00 00 00
	00		 mov	 DWORD PTR fs:0, eax
  00032	8b d9		 mov	 ebx, ecx

; 194  : 	if(!this->MMOTOP_Enable) return;

  00034	80 3b 00	 cmp	 BYTE PTR [ebx], 0

; 242  : 				}
; 243  : 				fclose(file);

  00037	89 9d e4 ef ff
	ff		 mov	 DWORD PTR _this$GSCopy$[ebp], ebx
  0003d	0f 84 33 03 00
	00		 je	 $LN29@Mootop

; 195  : 
; 196  : 	//--------------------------------------------------------
; 197  : 	if (MMOTOP_UPDATE_VOTER == 1)

  00043	8b 43 04	 mov	 eax, DWORD PTR [ebx+4]
  00046	83 f8 01	 cmp	 eax, 1
  00049	75 23		 jne	 SHORT $LN27@Mootop

; 198  : 	{
; 199  : 		if (this->MMOTOP_DownloadFile)

  0004b	80 7b 02 00	 cmp	 BYTE PTR [ebx+2], 0
  0004f	0f 84 1a 03 00
	00		 je	 $LN1@Mootop

; 200  : 		{
; 201  : 			URLDownloadToFileA ( NULL, 
; 202  : 				_T(this->MMOTOP_FileName),
; 203  : 				_T("mmotop.txt"),
; 204  : 				0,NULL );

  00055	6a 00		 push	 0
  00057	6a 00		 push	 0
  00059	68 00 00 00 00	 push	 OFFSET ??_C@_0L@HNCANJIK@mmotop?4txt?$AA@
  0005e	8d 43 08	 lea	 eax, DWORD PTR [ebx+8]
  00061	50		 push	 eax
  00062	6a 00		 push	 0
  00064	e8 00 00 00 00	 call	 _URLDownloadToFileA@20

; 205  : 		}
; 206  : 	}

  00069	e9 01 03 00 00	 jmp	 $LN1@Mootop
$LN27@Mootop:

; 207  : 	//--------------------------------------------------------
; 208  : 	else if (MMOTOP_UPDATE_VOTER == 2)

  0006e	83 f8 02	 cmp	 eax, 2
  00071	0f 85 25 01 00
	00		 jne	 $LN24@Mootop

; 209  : 	{
; 210  : 		if (this->MMOTOP_DownloadFile)

  00077	80 7b 02 00	 cmp	 BYTE PTR [ebx+2], 0
  0007b	0f 84 ee 02 00
	00		 je	 $LN1@Mootop

; 211  : 		{
; 212  : 			HINTERNET hSession	= InternetOpenA("MMOTOP", INTERNET_OPEN_TYPE_PRECONFIG, NULL, NULL, 0);

  00081	6a 00		 push	 0
  00083	6a 00		 push	 0
  00085	6a 00		 push	 0
  00087	6a 00		 push	 0
  00089	68 00 00 00 00	 push	 OFFSET ??_C@_06KLDIONEO@MMOTOP?$AA@
  0008e	ff 15 00 00 00
	00		 call	 DWORD PTR __imp__InternetOpenA@20

; 213  : 			HINTERNET hHandle = InternetOpenUrlA(hSession, this->MMOTOP_FileName, NULL, 0, INTERNET_FLAG_DONT_CACHE, 0);

  00094	6a 00		 push	 0
  00096	68 00 00 00 04	 push	 67108864		; 04000000H
  0009b	6a 00		 push	 0
  0009d	6a 00		 push	 0
  0009f	8b f8		 mov	 edi, eax
  000a1	83 c3 08	 add	 ebx, 8
  000a4	53		 push	 ebx
  000a5	57		 push	 edi
  000a6	89 bd e8 ef ff
	ff		 mov	 DWORD PTR _hSession$207409[ebp], edi
  000ac	ff 15 00 00 00
	00		 call	 DWORD PTR __imp__InternetOpenUrlA@24
  000b2	8b f0		 mov	 esi, eax

; 214  : 			// ----
; 215  : 			if( hSession == NULL || hHandle == NULL )

  000b4	85 ff		 test	 edi, edi
  000b6	0f 84 cf 00 00
	00		 je	 $LN21@Mootop
  000bc	85 f6		 test	 esi, esi
  000be	0f 84 c7 00 00
	00		 je	 $LN21@Mootop

; 220  : 			}
; 221  : 			// ----
; 222  : 			FILE * file = fopen(MMOTOP_FILE, "w");

  000c4	68 00 00 00 00	 push	 OFFSET ??_C@_01NOFIACDB@w?$AA@
  000c9	68 00 00 00 00	 push	 OFFSET ??_C@_0L@HNCANJIK@mmotop?4txt?$AA@
  000ce	e8 00 00 00 00	 call	 _fopen
  000d3	8b d8		 mov	 ebx, eax
  000d5	83 c4 08	 add	 esp, 8

; 223  : 			if(file)

  000d8	85 db		 test	 ebx, ebx
  000da	0f 84 94 00 00
	00		 je	 $LN20@Mootop

; 224  : 			{
; 225  : 				while (true) 
; 226  : 				{
; 227  : 					//  
; 228  : 					char  szData[4096];
; 229  : 					ZeroMemory(szData,sizeof(szData));

  000e0	68 00 10 00 00	 push	 4096			; 00001000H
  000e5	8d 8d f0 ef ff
	ff		 lea	 ecx, DWORD PTR _szData$207420[ebp]
  000eb	6a 00		 push	 0
  000ed	51		 push	 ecx
  000ee	e8 00 00 00 00	 call	 _memset

; 230  : 
; 231  : 					DWORD dwBytesRead;
; 232  : 
; 233  : 					BOOL bRead = ::InternetReadFile(hHandle,szData,sizeof(szData)-1,&dwBytesRead);

  000f3	8b 3d 00 00 00
	00		 mov	 edi, DWORD PTR __imp__InternetReadFile@16
  000f9	83 c4 0c	 add	 esp, 12			; 0000000cH
  000fc	8d 95 ec ef ff
	ff		 lea	 edx, DWORD PTR _dwBytesRead$207421[ebp]
  00102	52		 push	 edx
  00103	68 ff 0f 00 00	 push	 4095			; 00000fffH
  00108	8d 85 f0 ef ff
	ff		 lea	 eax, DWORD PTR _szData$207420[ebp]
  0010e	50		 push	 eax
  0010f	56		 push	 esi
  00110	ff d7		 call	 edi

; 234  : 
; 235  : 					// ? ?? ?
; 236  : 					if (bRead == FALSE  ||  dwBytesRead == 0)

  00112	85 c0		 test	 eax, eax
  00114	74 4f		 je	 SHORT $LN38@Mootop
$LL19@Mootop:
  00116	8b 85 ec ef ff
	ff		 mov	 eax, DWORD PTR _dwBytesRead$207421[ebp]
  0011c	85 c0		 test	 eax, eax
  0011e	74 45		 je	 SHORT $LN38@Mootop

; 237  : 						break;
; 238  : 
; 239  : 					//  ?
; 240  : 					szData[dwBytesRead] = 0;
; 241  : 					fputs(szData, file);

  00120	8d 8d f0 ef ff
	ff		 lea	 ecx, DWORD PTR _szData$207420[ebp]
  00126	53		 push	 ebx
  00127	51		 push	 ecx
  00128	c6 84 05 f0 ef
	ff ff 00	 mov	 BYTE PTR _szData$207420[ebp+eax], 0
  00130	e8 00 00 00 00	 call	 _fputs
  00135	68 00 10 00 00	 push	 4096			; 00001000H
  0013a	8d 95 f0 ef ff
	ff		 lea	 edx, DWORD PTR _szData$207420[ebp]
  00140	6a 00		 push	 0
  00142	52		 push	 edx
  00143	e8 00 00 00 00	 call	 _memset
  00148	83 c4 14	 add	 esp, 20			; 00000014H
  0014b	8d 85 ec ef ff
	ff		 lea	 eax, DWORD PTR _dwBytesRead$207421[ebp]
  00151	50		 push	 eax
  00152	68 ff 0f 00 00	 push	 4095			; 00000fffH
  00157	8d 8d f0 ef ff
	ff		 lea	 ecx, DWORD PTR _szData$207420[ebp]
  0015d	51		 push	 ecx
  0015e	56		 push	 esi
  0015f	ff d7		 call	 edi
  00161	85 c0		 test	 eax, eax
  00163	75 b1		 jne	 SHORT $LL19@Mootop
$LN38@Mootop:

; 242  : 				}
; 243  : 				fclose(file);

  00165	53		 push	 ebx
  00166	e8 00 00 00 00	 call	 _fclose
  0016b	8b bd e8 ef ff
	ff		 mov	 edi, DWORD PTR _hSession$207409[ebp]
  00171	83 c4 04	 add	 esp, 4
$LN20@Mootop:

; 244  : 			}
; 245  : 			
; 246  : 			InternetCloseHandle(hSession);	//Need ?

  00174	57		 push	 edi
  00175	8b 3d 00 00 00
	00		 mov	 edi, DWORD PTR __imp__InternetCloseHandle@4
  0017b	ff d7		 call	 edi

; 247  : 			InternetCloseHandle(hHandle);

  0017d	56		 push	 esi
  0017e	ff d7		 call	 edi
  00180	8b 9d e4 ef ff
	ff		 mov	 ebx, DWORD PTR _this$GSCopy$[ebp]
  00186	e9 e4 01 00 00	 jmp	 $LN1@Mootop
$LN21@Mootop:

; 216  : 			{
; 217  : 				InternetCloseHandle(hSession);

  0018b	57		 push	 edi
  0018c	8b 3d 00 00 00
	00		 mov	 edi, DWORD PTR __imp__InternetCloseHandle@4
  00192	ff d7		 call	 edi

; 218  : 				InternetCloseHandle(hHandle);

  00194	56		 push	 esi
  00195	ff d7		 call	 edi

; 219  : 				return;

  00197	e9 da 01 00 00	 jmp	 $LN29@Mootop
$LN24@Mootop:

; 248  : 		}
; 249  : 
; 250  : 	}
; 251  : 	//--------------------------------------------------------
; 252  : 	else
; 253  : 	{
; 254  : 		//  WinInet
; 255  : 		HINTERNET hInternet = ::InternetOpen(TEXT("MMOTOP"),
; 256  : 			INTERNET_OPEN_TYPE_PRECONFIG,
; 257  : 			NULL,NULL,
; 258  : 			0);

  0019c	6a 00		 push	 0
  0019e	6a 00		 push	 0
  001a0	6a 00		 push	 0
  001a2	6a 00		 push	 0
  001a4	68 00 00 00 00	 push	 OFFSET ??_C@_06KLDIONEO@MMOTOP?$AA@
  001a9	ff 15 00 00 00
	00		 call	 DWORD PTR __imp__InternetOpenA@20
  001af	8b f0		 mov	 esi, eax
  001b1	89 b5 e0 ef ff
	ff		 mov	 DWORD PTR _hInternet$207426[ebp], esi

; 259  : 
; 260  : 		if (hInternet != NULL) 

  001b7	85 f6		 test	 esi, esi
  001b9	0f 84 a3 01 00
	00		 je	 $LN14@Mootop

; 261  : 		{
; 262  : 			// ?HTTP 
; 263  : 			HINTERNET hConnect = 
; 264  : 				::InternetConnect(
; 265  : 					hInternet,
; 266  : 					TEXT("www.mmotop.ru"),
; 267  : 					INTERNET_DEFAULT_HTTP_PORT,
; 268  : 					NULL,NULL,
; 269  : 					INTERNET_SERVICE_HTTP,
; 270  : 					0,
; 271  : 					1u);

  001bf	6a 01		 push	 1
  001c1	6a 00		 push	 0
  001c3	6a 03		 push	 3
  001c5	6a 00		 push	 0
  001c7	6a 00		 push	 0
  001c9	6a 50		 push	 80			; 00000050H
  001cb	68 00 00 00 00	 push	 OFFSET ??_C@_0O@DPCADCBH@www?4mmotop?4ru?$AA@
  001d0	56		 push	 esi
  001d1	ff 15 00 00 00
	00		 call	 DWORD PTR __imp__InternetConnectA@32
  001d7	8b f8		 mov	 edi, eax
  001d9	89 bd e8 ef ff
	ff		 mov	 DWORD PTR _hConnect$207428[ebp], edi

; 272  : 
; 273  : 			if (hConnect != NULL) 

  001df	85 ff		 test	 edi, edi
  001e1	0f 84 65 01 00
	00		 je	 $LN13@Mootop

; 274  : 			{
; 275  : 				// ?
; 276  : 				HINTERNET hRequest = ::HttpOpenRequest(hConnect,
; 277  : 						TEXT("GET"),
; 278  : 						TEXT(MMOTOP_FileName),        //TEXT("votes/aba02abed8021ba31a4499a390aa8afa4679c6d1.txt"),//TEXT("news.asp"),
; 279  : 						NULL,
; 280  : 						NULL,
; 281  : 						0,
; 282  : 						INTERNET_FLAG_KEEP_CONNECTION,
; 283  : 						1);

  001e7	6a 01		 push	 1
  001e9	68 00 00 40 00	 push	 4194304			; 00400000H
  001ee	6a 00		 push	 0
  001f0	6a 00		 push	 0
  001f2	6a 00		 push	 0
  001f4	8d 53 08	 lea	 edx, DWORD PTR [ebx+8]
  001f7	52		 push	 edx
  001f8	68 00 00 00 00	 push	 OFFSET ??_C@_03HAPOJHBM@GET?$AA@
  001fd	57		 push	 edi
  001fe	ff 15 00 00 00
	00		 call	 DWORD PTR __imp__HttpOpenRequestA@32
  00204	8b f0		 mov	 esi, eax

; 284  : 
; 285  : 				if (hRequest != NULL) 

  00206	85 f6		 test	 esi, esi
  00208	0f 84 1b 01 00
	00		 je	 $LN12@Mootop

; 286  : 				{
; 287  : 					//  
; 288  : 					BOOL bSend = ::HttpSendRequest(hRequest, NULL,0, NULL,0);

  0020e	6a 00		 push	 0
  00210	6a 00		 push	 0
  00212	6a 00		 push	 0
  00214	6a 00		 push	 0
  00216	56		 push	 esi
  00217	ff 15 00 00 00
	00		 call	 DWORD PTR __imp__HttpSendRequestA@20

; 289  : 					if (bSend) 

  0021d	85 c0		 test	 eax, eax
  0021f	0f 84 da 00 00
	00		 je	 $LN11@Mootop

; 290  : 					{
; 291  : 						// ? 
; 292  : 						std::ofstream fnews("mootop.txt",std::ios::out|std::ios::binary);

  00225	6a 01		 push	 1
  00227	6a 40		 push	 64			; 00000040H
  00229	6a 22		 push	 34			; 00000022H
  0022b	68 00 00 00 00	 push	 OFFSET ??_C@_0L@HJNFAJLH@mootop?4txt?$AA@
  00230	8d 8d 38 ef ff
	ff		 lea	 ecx, DWORD PTR _fnews$207651[ebp]
  00236	e8 00 00 00 00	 call	 ??0?$basic_ofstream@DU?$char_traits@D@std@@@std@@QAE@PBDHH@Z ; std::basic_ofstream<char,std::char_traits<char> >::basic_ofstream<char,std::char_traits<char> >

; 293  : 						if (fnews.is_open()) 

  0023b	83 bd 90 ef ff
	ff 00		 cmp	 DWORD PTR _fnews$207651[ebp+88], 0
  00242	c7 45 fc 00 00
	00 00		 mov	 DWORD PTR __$EHRec$[ebp+8], 0
  00249	0f 84 a1 00 00
	00		 je	 $LN10@Mootop

; 294  : 						{
; 295  : 							while (true) 
; 296  : 							{
; 297  : 								//  
; 298  : 								char  szData[4096];
; 299  : 								DWORD dwBytesRead;
; 300  : 								BOOL bRead = 
; 301  : 									::InternetReadFile(
; 302  : 										hRequest,
; 303  : 										szData,sizeof(szData)-1,
; 304  : 										&dwBytesRead);

  0024f	8b 3d 00 00 00
	00		 mov	 edi, DWORD PTR __imp__InternetReadFile@16
  00255	8d 85 ec ef ff
	ff		 lea	 eax, DWORD PTR _dwBytesRead$207659[ebp]
  0025b	50		 push	 eax
  0025c	68 ff 0f 00 00	 push	 4095			; 00000fffH
  00261	8d 8d f0 ef ff
	ff		 lea	 ecx, DWORD PTR _szData$207658[ebp]
  00267	51		 push	 ecx
  00268	56		 push	 esi
  00269	ff d7		 call	 edi

; 305  : 
; 306  : 								// ? ?? ?
; 307  : 								if (bRead == FALSE  ||  dwBytesRead == 0)

  0026b	85 c0		 test	 eax, eax
  0026d	74 43		 je	 SHORT $LN42@Mootop
  0026f	90		 npad	 1
$LL9@Mootop:
  00270	8b 85 ec ef ff
	ff		 mov	 eax, DWORD PTR _dwBytesRead$207659[ebp]
  00276	85 c0		 test	 eax, eax
  00278	74 38		 je	 SHORT $LN42@Mootop

; 308  : 									break;
; 309  : 
; 310  : 								//  ?
; 311  : 								szData[dwBytesRead] = 0;
; 312  : 								fnews << szData;

  0027a	8d 95 f0 ef ff
	ff		 lea	 edx, DWORD PTR _szData$207658[ebp]
  00280	c6 84 05 f0 ef
	ff ff 00	 mov	 BYTE PTR _szData$207658[ebp+eax], 0
  00288	52		 push	 edx
  00289	8d 85 38 ef ff
	ff		 lea	 eax, DWORD PTR _fnews$207651[ebp]
  0028f	50		 push	 eax
  00290	e8 00 00 00 00	 call	 ??$?6U?$char_traits@D@std@@@std@@YAAAV?$basic_ostream@DU?$char_traits@D@std@@@0@AAV10@PBD@Z ; std::operator<<<std::char_traits<char> >
  00295	83 c4 08	 add	 esp, 8
  00298	8d 8d ec ef ff
	ff		 lea	 ecx, DWORD PTR _dwBytesRead$207659[ebp]
  0029e	51		 push	 ecx
  0029f	68 ff 0f 00 00	 push	 4095			; 00000fffH
  002a4	8d 95 f0 ef ff
	ff		 lea	 edx, DWORD PTR _szData$207658[ebp]
  002aa	52		 push	 edx
  002ab	56		 push	 esi
  002ac	ff d7		 call	 edi
  002ae	85 c0		 test	 eax, eax
  002b0	75 be		 jne	 SHORT $LL9@Mootop
$LN42@Mootop:

; 313  : 							}
; 314  : 						}
; 315  : 						else

  002b2	8b bd e8 ef ff
	ff		 mov	 edi, DWORD PTR _hConnect$207428[ebp]
  002b8	8b 9d e4 ef ff
	ff		 mov	 ebx, DWORD PTR _this$GSCopy$[ebp]
$LN5@Mootop:

; 318  : 						}
; 319  : 					}

  002be	8d 8d 38 ef ff
	ff		 lea	 ecx, DWORD PTR _fnews$207651[ebp]
  002c4	c7 45 fc ff ff
	ff ff		 mov	 DWORD PTR __$EHRec$[ebp+8], -1
  002cb	e8 00 00 00 00	 call	 ??_D?$basic_ofstream@DU?$char_traits@D@std@@@std@@QAEXXZ

; 323  : 					}
; 324  : 					// ?
; 325  : 					::InternetCloseHandle(hRequest);

  002d0	56		 push	 esi
  002d1	ff 15 00 00 00
	00		 call	 DWORD PTR __imp__InternetCloseHandle@4

; 330  : 				}
; 331  : 				// ?
; 332  : 				::InternetCloseHandle(hConnect);

  002d7	57		 push	 edi
  002d8	ff 15 00 00 00
	00		 call	 DWORD PTR __imp__InternetCloseHandle@4

; 333  : 			}
; 334  : 			else

  002de	8b b5 e0 ef ff
	ff		 mov	 esi, DWORD PTR _hInternet$207426[ebp]

; 337  : 			}
; 338  : 			// ?WinInet
; 339  : 			::InternetCloseHandle(hInternet);

  002e4	56		 push	 esi
  002e5	ff 15 00 00 00
	00		 call	 DWORD PTR __imp__InternetCloseHandle@4

; 340  : 		}
; 341  : 		else

  002eb	e9 7f 00 00 00	 jmp	 $LN1@Mootop
$LN10@Mootop:

; 316  : 						{
; 317  : 							AdmLog("fnews.is_open()");

  002f0	68 00 00 00 00	 push	 OFFSET ??_C@_0BA@HICLJBKB@fnews?4is_open?$CI?$CJ?$AA@
  002f5	e8 00 00 00 00	 call	 ?AdmLog@@YAXPAD@Z	; AdmLog
  002fa	83 c4 04	 add	 esp, 4
  002fd	eb bf		 jmp	 SHORT $LN5@Mootop
$LN11@Mootop:

; 320  : 					else
; 321  : 					{
; 322  : 						AdmLog("bSend");

  002ff	68 00 00 00 00	 push	 OFFSET ??_C@_05DLJCAKKO@bSend?$AA@
  00304	e8 00 00 00 00	 call	 ?AdmLog@@YAXPAD@Z	; AdmLog
  00309	83 c4 04	 add	 esp, 4

; 323  : 					}
; 324  : 					// ?
; 325  : 					::InternetCloseHandle(hRequest);

  0030c	56		 push	 esi
  0030d	ff 15 00 00 00
	00		 call	 DWORD PTR __imp__InternetCloseHandle@4

; 330  : 				}
; 331  : 				// ?
; 332  : 				::InternetCloseHandle(hConnect);

  00313	57		 push	 edi
  00314	ff 15 00 00 00
	00		 call	 DWORD PTR __imp__InternetCloseHandle@4

; 333  : 			}
; 334  : 			else

  0031a	8b b5 e0 ef ff
	ff		 mov	 esi, DWORD PTR _hInternet$207426[ebp]

; 337  : 			}
; 338  : 			// ?WinInet
; 339  : 			::InternetCloseHandle(hInternet);

  00320	56		 push	 esi
  00321	ff 15 00 00 00
	00		 call	 DWORD PTR __imp__InternetCloseHandle@4

; 340  : 		}
; 341  : 		else

  00327	eb 46		 jmp	 SHORT $LN1@Mootop
$LN12@Mootop:

; 326  : 				}
; 327  : 				else
; 328  : 				{
; 329  : 					AdmLog("hRequest != NULL");

  00329	68 00 00 00 00	 push	 OFFSET ??_C@_0BB@CCOENLML@hRequest?5?$CB?$DN?5NULL?$AA@
  0032e	e8 00 00 00 00	 call	 ?AdmLog@@YAXPAD@Z	; AdmLog
  00333	83 c4 04	 add	 esp, 4

; 330  : 				}
; 331  : 				// ?
; 332  : 				::InternetCloseHandle(hConnect);

  00336	57		 push	 edi
  00337	ff 15 00 00 00
	00		 call	 DWORD PTR __imp__InternetCloseHandle@4

; 333  : 			}
; 334  : 			else

  0033d	8b b5 e0 ef ff
	ff		 mov	 esi, DWORD PTR _hInternet$207426[ebp]

; 337  : 			}
; 338  : 			// ?WinInet
; 339  : 			::InternetCloseHandle(hInternet);

  00343	56		 push	 esi
  00344	ff 15 00 00 00
	00		 call	 DWORD PTR __imp__InternetCloseHandle@4

; 340  : 		}
; 341  : 		else

  0034a	eb 23		 jmp	 SHORT $LN1@Mootop
$LN13@Mootop:

; 335  : 			{
; 336  : 				AdmLog("hConnect != NULL");

  0034c	68 00 00 00 00	 push	 OFFSET ??_C@_0BB@MALKFMPK@hConnect?5?$CB?$DN?5NULL?$AA@
  00351	e8 00 00 00 00	 call	 ?AdmLog@@YAXPAD@Z	; AdmLog
  00356	83 c4 04	 add	 esp, 4

; 337  : 			}
; 338  : 			// ?WinInet
; 339  : 			::InternetCloseHandle(hInternet);

  00359	56		 push	 esi
  0035a	ff 15 00 00 00
	00		 call	 DWORD PTR __imp__InternetCloseHandle@4

; 340  : 		}
; 341  : 		else

  00360	eb 0d		 jmp	 SHORT $LN1@Mootop
$LN14@Mootop:

; 342  : 		{
; 343  : 			AdmLog("hInternet != NULL");

  00362	68 00 00 00 00	 push	 OFFSET ??_C@_0BC@ELJALHPL@hInternet?5?$CB?$DN?5NULL?$AA@
  00367	e8 00 00 00 00	 call	 ?AdmLog@@YAXPAD@Z	; AdmLog
  0036c	83 c4 04	 add	 esp, 4
$LN1@Mootop:

; 344  : 		}
; 345  : 	}	
; 346  : 	//--------------------------------------------------------
; 347  : 
; 348  : #ifdef DEBUG_CODE
; 349  : 	AdmLog("DEBUG_CODE");
; 350  : #endif
; 351  : 
; 352  : 	this->MootopReed();

  0036f	8b cb		 mov	 ecx, ebx
  00371	e8 00 00 00 00	 call	 ?MootopReed@Voter@@QAEXXZ ; Voter::MootopReed
$LN29@Mootop:

; 353  : }

  00376	8b 4d f4	 mov	 ecx, DWORD PTR __$EHRec$[ebp]
  00379	64 89 0d 00 00
	00 00		 mov	 DWORD PTR fs:0, ecx
  00380	59		 pop	 ecx
  00381	5f		 pop	 edi
  00382	5e		 pop	 esi
  00383	5b		 pop	 ebx
  00384	8b 4d f0	 mov	 ecx, DWORD PTR __$ArrayPad$[ebp]
  00387	33 cd		 xor	 ecx, ebp
  00389	e8 00 00 00 00	 call	 @__security_check_cookie@4
  0038e	8b e5		 mov	 esp, ebp
  00390	5d		 pop	 ebp
  00391	c3		 ret	 0
_TEXT	ENDS
;	COMDAT text$x
text$x	SEGMENT
__unwindfunclet$?Mootop@Voter@@QAEXXZ$0:
  00000	8d 8d 38 ef ff
	ff		 lea	 ecx, DWORD PTR _fnews$207651[ebp]
  00006	e9 00 00 00 00	 jmp	 ??_D?$basic_ofstream@DU?$char_traits@D@std@@@std@@QAEXXZ
__ehhandler$?Mootop@Voter@@QAEXXZ:
  0000b	8b 54 24 08	 mov	 edx, DWORD PTR [esp+8]
  0000f	8d 42 0c	 lea	 eax, DWORD PTR [edx+12]
  00012	8b 8a 34 ef ff
	ff		 mov	 ecx, DWORD PTR [edx-4300]
  00018	33 c8		 xor	 ecx, eax
  0001a	e8 00 00 00 00	 call	 @__security_check_cookie@4
  0001f	8b 4a fc	 mov	 ecx, DWORD PTR [edx-4]
  00022	33 c8		 xor	 ecx, eax
  00024	e8 00 00 00 00	 call	 @__security_check_cookie@4
  00029	b8 00 00 00 00	 mov	 eax, OFFSET __ehfuncinfo$?Mootop@Voter@@QAEXXZ
  0002e	e9 00 00 00 00	 jmp	 ___CxxFrameHandler3
text$x	ENDS
?Mootop@Voter@@QAEXXZ ENDP				; Voter::Mootop
PUBLIC	??_C@_06GAKOAKAA@Mmotop?$AA@			; `string'
PUBLIC	??_C@_0N@IJMGJMHG@?4?2LOG?2Mmotop?$AA@		; `string'
EXTRN	_atexit:PROC
EXTRN	??0CLogToFile@@QAE@QAD0H@Z:PROC			; CLogToFile::CLogToFile
;	COMDAT ??_C@_06GAKOAKAA@Mmotop?$AA@
CONST	SEGMENT
??_C@_06GAKOAKAA@Mmotop?$AA@ DB 'Mmotop', 00H		; `string'
CONST	ENDS
;	COMDAT ??_C@_0N@IJMGJMHG@?4?2LOG?2Mmotop?$AA@
CONST	SEGMENT
??_C@_0N@IJMGJMHG@?4?2LOG?2Mmotop?$AA@ DB '.\LOG\Mmotop', 00H ; `string'
; Function compile flags: /Ogtp
CONST	ENDS
;	COMDAT ??__Eg_MmotopLog@@YAXXZ
text$yc	SEGMENT
??__Eg_MmotopLog@@YAXXZ PROC				; `dynamic initializer for 'g_MmotopLog'', COMDAT

; 26   : CLogToFile g_MmotopLog("Mmotop", ".\\LOG\\Mmotop", TRUE);

  00000	6a 01		 push	 1
  00002	68 00 00 00 00	 push	 OFFSET ??_C@_0N@IJMGJMHG@?4?2LOG?2Mmotop?$AA@
  00007	68 00 00 00 00	 push	 OFFSET ??_C@_06GAKOAKAA@Mmotop?$AA@
  0000c	b9 00 00 00 00	 mov	 ecx, OFFSET ?g_MmotopLog@@3VCLogToFile@@A ; g_MmotopLog
  00011	e8 00 00 00 00	 call	 ??0CLogToFile@@QAE@QAD0H@Z ; CLogToFile::CLogToFile
  00016	68 00 00 00 00	 push	 OFFSET ??__Fg_MmotopLog@@YAXXZ ; `dynamic atexit destructor for 'g_MmotopLog''
  0001b	e8 00 00 00 00	 call	 _atexit
  00020	59		 pop	 ecx
  00021	c3		 ret	 0
??__Eg_MmotopLog@@YAXXZ ENDP				; `dynamic initializer for 'g_MmotopLog''
text$yc	ENDS
EXTRN	??1CLogToFile@@QAE@XZ:PROC			; CLogToFile::~CLogToFile
; Function compile flags: /Ogtp
;	COMDAT ??__Fg_MmotopLog@@YAXXZ
text$yd	SEGMENT
??__Fg_MmotopLog@@YAXXZ PROC				; `dynamic atexit destructor for 'g_MmotopLog'', COMDAT
  00000	b9 00 00 00 00	 mov	 ecx, OFFSET ?g_MmotopLog@@3VCLogToFile@@A ; g_MmotopLog
  00005	e9 00 00 00 00	 jmp	 ??1CLogToFile@@QAE@XZ	; CLogToFile::~CLogToFile
??__Fg_MmotopLog@@YAXXZ ENDP				; `dynamic atexit destructor for 'g_MmotopLog''
text$yd	ENDS
PUBLIC	?id@?$codecvt@DDH@std@@2V0locale@2@A		; std::codecvt<char,char,int>::id
PUBLIC	?g_MmotopLog@@3VCLogToFile@@A			; g_MmotopLog
;	COMDAT ?id@?$codecvt@DDH@std@@2V0locale@2@A
_BSS	SEGMENT
?id@?$codecvt@DDH@std@@2V0locale@2@A DD 01H DUP (?)	; std::codecvt<char,char,int>::id
_BSS	ENDS
_BSS	SEGMENT
?g_MmotopLog@@3VCLogToFile@@A DB 010228H DUP (?)	; g_MmotopLog
_BSS	ENDS
CRT$XCU	SEGMENT
_g_MmotopLog$initializer$ DD FLAT:??__Eg_MmotopLog@@YAXXZ
CRT$XCU	ENDS
END
