; Listing generated by Microsoft (R) Optimizing Compiler Version 16.00.30319.01 

	TITLE	E:\work\tranet_version\GS\GameServer\Voter.cpp
	.686P
	.XMM
	include listing.inc
	.model	flat

INCLUDELIB LIBCMT
INCLUDELIB OLDNAMES

PUBLIC	?gVoter@@3VVoter@@A				; gVoter
_BSS	SEGMENT
?gVoter@@3VVoter@@A DB 03a0H DUP (?)			; gVoter
_BSS	ENDS
PUBLIC	??_H@YGXPAXIHP6EPAX0@Z@Z			; `vector constructor iterator'
; Function compile flags: /Ogtp
;	COMDAT ??_H@YGXPAXIHP6EPAX0@Z@Z
_TEXT	SEGMENT
___t$ = 8						; size = 4
___s$ = 12						; size = 4
___n$ = 16						; size = 4
___f$ = 20						; size = 4
??_H@YGXPAXIHP6EPAX0@Z@Z PROC				; `vector constructor iterator', COMDAT
  00000	55		 push	 ebp
  00001	8b ec		 mov	 ebp, esp
  00003	57		 push	 edi
  00004	8b 7d 10	 mov	 edi, DWORD PTR ___n$[ebp]
  00007	4f		 dec	 edi
  00008	78 14		 js	 SHORT $LN1@vector
  0000a	53		 push	 ebx
  0000b	8b 5d 14	 mov	 ebx, DWORD PTR ___f$[ebp]
  0000e	56		 push	 esi
  0000f	8b 75 08	 mov	 esi, DWORD PTR ___t$[ebp]
$LL2@vector:
  00012	8b ce		 mov	 ecx, esi
  00014	ff d3		 call	 ebx
  00016	03 75 0c	 add	 esi, DWORD PTR ___s$[ebp]
  00019	4f		 dec	 edi
  0001a	79 f6		 jns	 SHORT $LL2@vector
  0001c	5e		 pop	 esi
  0001d	5b		 pop	 ebx
$LN1@vector:
  0001e	5f		 pop	 edi
  0001f	5d		 pop	 ebp
  00020	c2 10 00	 ret	 16			; 00000010H
??_H@YGXPAXIHP6EPAX0@Z@Z ENDP				; `vector constructor iterator'
_TEXT	ENDS
PUBLIC	??_C@_06FHBNJNJP@DangeR?$AA@			; `string'
PUBLIC	?AdmLog@@YAXPAD@Z				; AdmLog
EXTRN	?MsgOutput@@YAXHPADZZ:PROC			; MsgOutput
EXTRN	?gObj@@3PAUOBJECTSTRUCT@@A:DWORD		; gObj
;	COMDAT ??_C@_06FHBNJNJP@DangeR?$AA@
; File e:\work\tranet_version\gs\gameserver\voter.cpp
CONST	SEGMENT
??_C@_06FHBNJNJP@DangeR?$AA@ DB 'DangeR', 00H		; `string'
; Function compile flags: /Ogtp
CONST	ENDS
;	COMDAT ?AdmLog@@YAXPAD@Z
_TEXT	SEGMENT
_AddLogNEw$ = 8						; size = 4
?AdmLog@@YAXPAD@Z PROC					; AdmLog, COMDAT

; 39   : {

  00000	55		 push	 ebp
  00001	8b ec		 mov	 ebp, esp
  00003	56		 push	 esi

; 40   : 	for (int n=OBJ_STARTUSERINDZT;n<OBJMAX; n++)

  00004	8b 35 00 00 00
	00		 mov	 esi, DWORD PTR ?gObj@@3PAUOBJECTSTRUCT@@A ; gObj
  0000a	57		 push	 edi
  0000b	bf b0 36 00 00	 mov	 edi, 14000		; 000036b0H
  00010	81 c6 77 a7 40
	09		 add	 esi, 155232119		; 0940a777H
$LL5@AdmLog:

; 41   : 	{
; 42   : 		if ( gObj[n].Connected >= PLAYER_PLAYING)

  00016	83 7e 8d 03	 cmp	 DWORD PTR [esi-115], 3
  0001a	7c 30		 jl	 SHORT $LN4@AdmLog

; 43   : 		{
; 44   : 			if(!strcmp(gObj[n].Name,"DangeR"))

  0001c	b9 00 00 00 00	 mov	 ecx, OFFSET ??_C@_06FHBNJNJP@DangeR?$AA@
  00021	8b c6		 mov	 eax, esi
$LL11@AdmLog:
  00023	8a 10		 mov	 dl, BYTE PTR [eax]
  00025	3a 11		 cmp	 dl, BYTE PTR [ecx]
  00027	75 1a		 jne	 SHORT $LN12@AdmLog
  00029	84 d2		 test	 dl, dl
  0002b	74 12		 je	 SHORT $LN13@AdmLog
  0002d	8a 50 01	 mov	 dl, BYTE PTR [eax+1]
  00030	3a 51 01	 cmp	 dl, BYTE PTR [ecx+1]
  00033	75 0e		 jne	 SHORT $LN12@AdmLog
  00035	83 c0 02	 add	 eax, 2
  00038	83 c1 02	 add	 ecx, 2
  0003b	84 d2		 test	 dl, dl
  0003d	75 e4		 jne	 SHORT $LL11@AdmLog
$LN13@AdmLog:
  0003f	33 c0		 xor	 eax, eax
  00041	eb 05		 jmp	 SHORT $LN14@AdmLog
$LN12@AdmLog:
  00043	1b c0		 sbb	 eax, eax
  00045	83 d8 ff	 sbb	 eax, -1
$LN14@AdmLog:
  00048	85 c0		 test	 eax, eax
  0004a	74 13		 je	 SHORT $LN9@AdmLog
$LN4@AdmLog:

; 40   : 	for (int n=OBJ_STARTUSERINDZT;n<OBJMAX; n++)

  0004c	47		 inc	 edi
  0004d	81 c6 50 2b 00
	00		 add	 esi, 11088		; 00002b50H
  00053	81 ff 98 3a 00
	00		 cmp	 edi, 15000		; 00003a98H
  00059	7c bb		 jl	 SHORT $LL5@AdmLog
  0005b	5f		 pop	 edi
  0005c	5e		 pop	 esi

; 47   : 				return;
; 48   : 			}
; 49   : 		}
; 50   : 	}
; 51   : }

  0005d	5d		 pop	 ebp
  0005e	c3		 ret	 0
$LN9@AdmLog:

; 45   : 			{
; 46   : 				MsgOutput(n,AddLogNEw);

  0005f	8b 45 08	 mov	 eax, DWORD PTR _AddLogNEw$[ebp]
  00062	50		 push	 eax
  00063	57		 push	 edi
  00064	e8 00 00 00 00	 call	 ?MsgOutput@@YAXHPADZZ	; MsgOutput
  00069	83 c4 08	 add	 esp, 8
  0006c	5f		 pop	 edi
  0006d	5e		 pop	 esi

; 47   : 				return;
; 48   : 			}
; 49   : 		}
; 50   : 	}
; 51   : }

  0006e	5d		 pop	 ebp
  0006f	c3		 ret	 0
?AdmLog@@YAXPAD@Z ENDP					; AdmLog
_TEXT	ENDS
PUBLIC	??_C@_0BH@EAHGDKHP@ANONS_SMSBonusLifeBank?$AA@	; `string'
PUBLIC	??_C@_0BH@IEFJGJMD@ANONS_SMSBonusSoulBank?$AA@	; `string'
PUBLIC	??_C@_0BI@IPMDCAHB@ANONS_SMSBonusBlessBank?$AA@	; `string'
PUBLIC	??_C@_0BI@BJNJOCAD@ANONS_SMSBonusChaosBank?$AA@	; `string'
PUBLIC	??_C@_0BI@FPMNIMBA@ANONS_SMSBonusItemLevel?$AA@	; `string'
PUBLIC	??_C@_0BI@KMGOGEPD@ANONS_SMSBonusItemIndex?$AA@	; `string'
PUBLIC	??_C@_0BH@MCNCHNJM@ANONS_SMSBonusItemType?$AA@	; `string'
PUBLIC	??_C@_0BJ@JDELAKKJ@ANONS_SMSBonusItemActive?$AA@ ; `string'
PUBLIC	??_C@_0BF@BIGBCGBL@ANONS_SMSBonusZtCred?$AA@	; `string'
PUBLIC	??_C@_0BF@FGLAPPOD@ANONS_SMSBonusWcoinG?$AA@	; `string'
PUBLIC	??_C@_0BF@FDDDHLHF@ANONS_SMSBonusWcoinP?$AA@	; `string'
PUBLIC	??_C@_0BF@DCNMDKOH@ANONS_SMSBonusWcoinC?$AA@	; `string'
PUBLIC	??_C@_0BE@OKFIDHHI@ANONS_BonusLifeBank?$AA@	; `string'
PUBLIC	??_C@_0BE@COHHGEME@ANONS_BonusSoulBank?$AA@	; `string'
PUBLIC	??_C@_0BF@BBANJLNP@ANONS_BonusBlessBank?$AA@	; `string'
PUBLIC	??_C@_0BF@IHBHFJKN@ANONS_BonusChaosBank?$AA@	; `string'
PUBLIC	??_C@_0BF@MBADDHLO@ANONS_BonusItemLevel?$AA@	; `string'
PUBLIC	??_C@_0BF@DCKANPFN@ANONS_BonusItemIndex?$AA@	; `string'
PUBLIC	??_C@_0BE@GIPMHAJL@ANONS_BonusItemType?$AA@	; `string'
PUBLIC	??_C@_0BG@KCLLEKPN@ANONS_BonusItemActive?$AA@	; `string'
PUBLIC	??_C@_0BC@ONJKOOOI@ANONS_BonusZtCred?$AA@	; `string'
PUBLIC	??_C@_0BC@KDELDHBA@ANONS_BonusWcoinG?$AA@	; `string'
PUBLIC	??_C@_0BC@KGMILDIG@ANONS_BonusWcoinP?$AA@	; `string'
PUBLIC	??_C@_0BC@MHCHPCBE@ANONS_BonusWcoinC?$AA@	; `string'
PUBLIC	??_C@_0P@LLKFOAJA@ANONS_VoteFile?$AA@		; `string'
PUBLIC	??_C@_0BD@HJFAMOBD@ANONS_UPDATE_VOTER?$AA@	; `string'
PUBLIC	??_C@_0BD@JNNJJGNC@ANONS_DownloadFile?$AA@	; `string'
PUBLIC	??_C@_0BF@JOPKDOGI@ANONS_DeleteVoteFile?$AA@	; `string'
PUBLIC	??_C@_0N@DCPCLHJ@ANONS_Enable?$AA@		; `string'
PUBLIC	??_C@_0BB@IFHGPKPD@QTOP_SMSBuffTime?$AA@	; `string'
PUBLIC	??_C@_0O@NOACOOKK@QTOP_BuffTime?$AA@		; `string'
PUBLIC	??_C@_0BD@PDOBGAFG@MMOTOP_SMSBuffTime?$AA@	; `string'
PUBLIC	??_C@_0BA@FPOKAIAG@MMOTOP_BuffTime?$AA@		; `string'
PUBLIC	??_C@_0BG@KCBCCKKI@QTOP_SMSBonusLifeBank?$AA@	; `string'
PUBLIC	??_C@_0BG@GGDNHJBE@QTOP_SMSBonusSoulBank?$AA@	; `string'
PUBLIC	??_C@_0BH@JHJGADBG@QTOP_SMSBonusBlessBank?$AA@	; `string'
PUBLIC	??_C@_0BH@BIMMBGE@QTOP_SMSBonusChaosBank?$AA@	; `string'
PUBLIC	??_C@_0BH@EHJIKPHH@QTOP_SMSBonusItemLevel?$AA@	; `string'
PUBLIC	??_C@_0BH@LEDLEHJE@QTOP_SMSBonusItemIndex?$AA@	; `string'
PUBLIC	??_C@_0BG@CALGGNEL@QTOP_SMSBonusItemType?$AA@	; `string'
PUBLIC	??_C@_0BI@EAIFKLHB@QTOP_SMSBonusItemActive?$AA@	; `string'
PUBLIC	??_C@_0BE@KEKPCADF@QTOP_SMSBonusZtCred?$AA@	; `string'
PUBLIC	??_C@_0BE@OKHOPJMN@QTOP_SMSBonusWcoinG?$AA@	; `string'
PUBLIC	??_C@_0BE@OPPNHNFL@QTOP_SMSBonusWcoinP?$AA@	; `string'
PUBLIC	??_C@_0BE@IOBCDMMJ@QTOP_SMSBonusWcoinC?$AA@	; `string'
PUBLIC	??_C@_0BD@ECNNADMJ@QTOP_BonusLifeBank?$AA@	; `string'
PUBLIC	??_C@_0BD@IGPCFAHF@QTOP_BonusSoulBank?$AA@	; `string'
PUBLIC	??_C@_0BE@KNMDJNPB@QTOP_BonusBlessBank?$AA@	; `string'
PUBLIC	??_C@_0BE@DLNJFPID@QTOP_BonusChaosBank?$AA@	; `string'
PUBLIC	??_C@_0BE@HNMNDBJA@QTOP_BonusItemLevel?$AA@	; `string'
PUBLIC	??_C@_0BE@IOGONJHD@QTOP_BonusItemIndex?$AA@	; `string'
PUBLIC	??_C@_0BD@MAHJEECK@QTOP_BonusItemType?$AA@	; `string'
PUBLIC	??_C@_0BF@HONBIJDE@QTOP_BonusItemActive?$AA@	; `string'
PUBLIC	??_C@_0BB@LOAEFHCB@QTOP_BonusZtCred?$AA@	; `string'
PUBLIC	??_C@_0BB@PANFIONJ@QTOP_BonusWcoinG?$AA@	; `string'
PUBLIC	??_C@_0BB@PFFGAKEP@QTOP_BonusWcoinP?$AA@	; `string'
PUBLIC	??_C@_0BB@JELJELNN@QTOP_BonusWcoinC?$AA@	; `string'
PUBLIC	??_C@_0O@KPGCIBKI@QTOP_VoteFile?$AA@		; `string'
PUBLIC	??_C@_0BC@JLLLCKLO@QTOP_UPDATE_VOTER?$AA@	; `string'
PUBLIC	??_C@_0BC@HPDCHCHP@QTOP_DownloadFile?$AA@	; `string'
PUBLIC	??_C@_0BE@CCDEDIEG@QTOP_DeleteVoteFile?$AA@	; `string'
PUBLIC	??_C@_0BI@EJBBELIL@MMOTOP_SMSBonusLifeBank?$AA@	; `string'
PUBLIC	??_C@_0BI@INDOBIDH@MMOTOP_SMSBonusSoulBank?$AA@	; `string'
PUBLIC	??_C@_0BJ@DFBKHBAF@MMOTOP_SMSBonusBlessBank?$AA@ ; `string'
PUBLIC	??_C@_0BJ@KDAALDHH@MMOTOP_SMSBonusChaosBank?$AA@ ; `string'
PUBLIC	??_C@_0BJ@OFBENNGE@MMOTOP_SMSBonusItemLevel?$AA@ ; `string'
PUBLIC	??_C@_0BJ@BGLHDFIH@MMOTOP_SMSBonusItemIndex?$AA@ ; `string'
PUBLIC	??_C@_0BI@MLLFAMGI@MMOTOP_SMSBonusItemType?$AA@	; `string'
PUBLIC	??_C@_0BK@MEJJGGNN@MMOTOP_SMSBonusItemActive?$AA@ ; `string'
PUBLIC	??_C@_0BG@JONJNLLP@MMOTOP_SMSBonusZtCred?$AA@	; `string'
PUBLIC	??_C@_0BG@NAAIACEH@MMOTOP_SMSBonusWcoinG?$AA@	; `string'
PUBLIC	??_C@_0BG@NFILIGNB@MMOTOP_SMSBonusWcoinP?$AA@	; `string'
PUBLIC	??_C@_0BG@LEGEMHED@MMOTOP_SMSBonusWcoinC?$AA@	; `string'
PUBLIC	??_C@_0BF@IBHHEHKI@MMOTOP_BonusLifeBank?$AA@	; `string'
PUBLIC	??_C@_0BF@EFFIBEBE@MMOTOP_BonusSoulBank?$AA@	; `string'
PUBLIC	??_C@_0BG@JHLFGGHL@MMOTOP_BonusBlessBank?$AA@	; `string'
PUBLIC	??_C@_0BG@BKPKEAJ@MMOTOP_BonusChaosBank?$AA@	; `string'
PUBLIC	??_C@_0BG@EHLLMKBK@MMOTOP_BonusItemLevel?$AA@	; `string'
PUBLIC	??_C@_0BG@LEBICCPJ@MMOTOP_BonusItemIndex?$AA@	; `string'
PUBLIC	??_C@_0BF@DNDAAEL@MMOTOP_BonusItemType?$AA@	; `string'
PUBLIC	??_C@_0BH@HDIGJFPB@MMOTOP_BonusItemActive?$AA@	; `string'
PUBLIC	??_C@_0BD@MIJDMNIE@MMOTOP_BonusZtCred?$AA@	; `string'
PUBLIC	??_C@_0BD@IGECBEHM@MMOTOP_BonusWcoinG?$AA@	; `string'
PUBLIC	??_C@_0BD@IDMBJAOK@MMOTOP_BonusWcoinP?$AA@	; `string'
PUBLIC	??_C@_0BD@OCCONBHI@MMOTOP_BonusWcoinC?$AA@	; `string'
PUBLIC	??_C@_0BA@COIKGHAE@MMOTOP_VoteFile?$AA@		; `string'
PUBLIC	??_C@_0FE@DBCBBMPJ@votes?1aba02abed8021ba31a4499a390@ ; `string'
PUBLIC	??_C@_0BE@DNHBOKED@MMOTOP_UPDATE_VOTER?$AA@	; `string'
PUBLIC	??_C@_0BE@NJPILCIC@MMOTOP_DownloadFile?$AA@	; `string'
PUBLIC	??_C@_0BG@BIECMDMM@MMOTOP_DeleteVoteFile?$AA@	; `string'
PUBLIC	??_C@_0M@DCIBIFED@QTOP_Enable?$AA@		; `string'
PUBLIC	??_C@_06CNKIADGI@ZtTeam?$AA@			; `string'
PUBLIC	??_C@_0O@HBCEHCHG@MMOTOP_Enable?$AA@		; `string'
PUBLIC	??_C@_0BJ@HBNPCLMO@?4?4?2Data?2ZtData?2Voter?4ini?$AA@ ; `string'
PUBLIC	?Init@Voter@@QAEXXZ				; Voter::Init
EXTRN	__imp__GetPrivateProfileStringA@24:PROC
EXTRN	__imp__GetPrivateProfileIntA@16:PROC
;	COMDAT ??_C@_0BH@EAHGDKHP@ANONS_SMSBonusLifeBank?$AA@
CONST	SEGMENT
??_C@_0BH@EAHGDKHP@ANONS_SMSBonusLifeBank?$AA@ DB 'ANONS_SMSBonusLifeBank'
	DB	00H						; `string'
CONST	ENDS
;	COMDAT ??_C@_0BH@IEFJGJMD@ANONS_SMSBonusSoulBank?$AA@
CONST	SEGMENT
??_C@_0BH@IEFJGJMD@ANONS_SMSBonusSoulBank?$AA@ DB 'ANONS_SMSBonusSoulBank'
	DB	00H						; `string'
CONST	ENDS
;	COMDAT ??_C@_0BI@IPMDCAHB@ANONS_SMSBonusBlessBank?$AA@
CONST	SEGMENT
??_C@_0BI@IPMDCAHB@ANONS_SMSBonusBlessBank?$AA@ DB 'ANONS_SMSBonusBlessBa'
	DB	'nk', 00H					; `string'
CONST	ENDS
;	COMDAT ??_C@_0BI@BJNJOCAD@ANONS_SMSBonusChaosBank?$AA@
CONST	SEGMENT
??_C@_0BI@BJNJOCAD@ANONS_SMSBonusChaosBank?$AA@ DB 'ANONS_SMSBonusChaosBa'
	DB	'nk', 00H					; `string'
CONST	ENDS
;	COMDAT ??_C@_0BI@FPMNIMBA@ANONS_SMSBonusItemLevel?$AA@
CONST	SEGMENT
??_C@_0BI@FPMNIMBA@ANONS_SMSBonusItemLevel?$AA@ DB 'ANONS_SMSBonusItemLev'
	DB	'el', 00H					; `string'
CONST	ENDS
;	COMDAT ??_C@_0BI@KMGOGEPD@ANONS_SMSBonusItemIndex?$AA@
CONST	SEGMENT
??_C@_0BI@KMGOGEPD@ANONS_SMSBonusItemIndex?$AA@ DB 'ANONS_SMSBonusItemInd'
	DB	'ex', 00H					; `string'
CONST	ENDS
;	COMDAT ??_C@_0BH@MCNCHNJM@ANONS_SMSBonusItemType?$AA@
CONST	SEGMENT
??_C@_0BH@MCNCHNJM@ANONS_SMSBonusItemType?$AA@ DB 'ANONS_SMSBonusItemType'
	DB	00H						; `string'
CONST	ENDS
;	COMDAT ??_C@_0BJ@JDELAKKJ@ANONS_SMSBonusItemActive?$AA@
CONST	SEGMENT
??_C@_0BJ@JDELAKKJ@ANONS_SMSBonusItemActive?$AA@ DB 'ANONS_SMSBonusItemAc'
	DB	'tive', 00H					; `string'
CONST	ENDS
;	COMDAT ??_C@_0BF@BIGBCGBL@ANONS_SMSBonusZtCred?$AA@
CONST	SEGMENT
??_C@_0BF@BIGBCGBL@ANONS_SMSBonusZtCred?$AA@ DB 'ANONS_SMSBonusZtCred', 00H ; `string'
CONST	ENDS
;	COMDAT ??_C@_0BF@FGLAPPOD@ANONS_SMSBonusWcoinG?$AA@
CONST	SEGMENT
??_C@_0BF@FGLAPPOD@ANONS_SMSBonusWcoinG?$AA@ DB 'ANONS_SMSBonusWcoinG', 00H ; `string'
CONST	ENDS
;	COMDAT ??_C@_0BF@FDDDHLHF@ANONS_SMSBonusWcoinP?$AA@
CONST	SEGMENT
??_C@_0BF@FDDDHLHF@ANONS_SMSBonusWcoinP?$AA@ DB 'ANONS_SMSBonusWcoinP', 00H ; `string'
CONST	ENDS
;	COMDAT ??_C@_0BF@DCNMDKOH@ANONS_SMSBonusWcoinC?$AA@
CONST	SEGMENT
??_C@_0BF@DCNMDKOH@ANONS_SMSBonusWcoinC?$AA@ DB 'ANONS_SMSBonusWcoinC', 00H ; `string'
CONST	ENDS
;	COMDAT ??_C@_0BE@OKFIDHHI@ANONS_BonusLifeBank?$AA@
CONST	SEGMENT
??_C@_0BE@OKFIDHHI@ANONS_BonusLifeBank?$AA@ DB 'ANONS_BonusLifeBank', 00H ; `string'
CONST	ENDS
;	COMDAT ??_C@_0BE@COHHGEME@ANONS_BonusSoulBank?$AA@
CONST	SEGMENT
??_C@_0BE@COHHGEME@ANONS_BonusSoulBank?$AA@ DB 'ANONS_BonusSoulBank', 00H ; `string'
CONST	ENDS
;	COMDAT ??_C@_0BF@BBANJLNP@ANONS_BonusBlessBank?$AA@
CONST	SEGMENT
??_C@_0BF@BBANJLNP@ANONS_BonusBlessBank?$AA@ DB 'ANONS_BonusBlessBank', 00H ; `string'
CONST	ENDS
;	COMDAT ??_C@_0BF@IHBHFJKN@ANONS_BonusChaosBank?$AA@
CONST	SEGMENT
??_C@_0BF@IHBHFJKN@ANONS_BonusChaosBank?$AA@ DB 'ANONS_BonusChaosBank', 00H ; `string'
CONST	ENDS
;	COMDAT ??_C@_0BF@MBADDHLO@ANONS_BonusItemLevel?$AA@
CONST	SEGMENT
??_C@_0BF@MBADDHLO@ANONS_BonusItemLevel?$AA@ DB 'ANONS_BonusItemLevel', 00H ; `string'
CONST	ENDS
;	COMDAT ??_C@_0BF@DCKANPFN@ANONS_BonusItemIndex?$AA@
CONST	SEGMENT
??_C@_0BF@DCKANPFN@ANONS_BonusItemIndex?$AA@ DB 'ANONS_BonusItemIndex', 00H ; `string'
CONST	ENDS
;	COMDAT ??_C@_0BE@GIPMHAJL@ANONS_BonusItemType?$AA@
CONST	SEGMENT
??_C@_0BE@GIPMHAJL@ANONS_BonusItemType?$AA@ DB 'ANONS_BonusItemType', 00H ; `string'
CONST	ENDS
;	COMDAT ??_C@_0BG@KCLLEKPN@ANONS_BonusItemActive?$AA@
CONST	SEGMENT
??_C@_0BG@KCLLEKPN@ANONS_BonusItemActive?$AA@ DB 'ANONS_BonusItemActive', 00H ; `string'
CONST	ENDS
;	COMDAT ??_C@_0BC@ONJKOOOI@ANONS_BonusZtCred?$AA@
CONST	SEGMENT
??_C@_0BC@ONJKOOOI@ANONS_BonusZtCred?$AA@ DB 'ANONS_BonusZtCred', 00H ; `string'
CONST	ENDS
;	COMDAT ??_C@_0BC@KDELDHBA@ANONS_BonusWcoinG?$AA@
CONST	SEGMENT
??_C@_0BC@KDELDHBA@ANONS_BonusWcoinG?$AA@ DB 'ANONS_BonusWcoinG', 00H ; `string'
CONST	ENDS
;	COMDAT ??_C@_0BC@KGMILDIG@ANONS_BonusWcoinP?$AA@
CONST	SEGMENT
??_C@_0BC@KGMILDIG@ANONS_BonusWcoinP?$AA@ DB 'ANONS_BonusWcoinP', 00H ; `string'
CONST	ENDS
;	COMDAT ??_C@_0BC@MHCHPCBE@ANONS_BonusWcoinC?$AA@
CONST	SEGMENT
??_C@_0BC@MHCHPCBE@ANONS_BonusWcoinC?$AA@ DB 'ANONS_BonusWcoinC', 00H ; `string'
CONST	ENDS
;	COMDAT ??_C@_0P@LLKFOAJA@ANONS_VoteFile?$AA@
CONST	SEGMENT
??_C@_0P@LLKFOAJA@ANONS_VoteFile?$AA@ DB 'ANONS_VoteFile', 00H ; `string'
CONST	ENDS
;	COMDAT ??_C@_0BD@HJFAMOBD@ANONS_UPDATE_VOTER?$AA@
CONST	SEGMENT
??_C@_0BD@HJFAMOBD@ANONS_UPDATE_VOTER?$AA@ DB 'ANONS_UPDATE_VOTER', 00H ; `string'
CONST	ENDS
;	COMDAT ??_C@_0BD@JNNJJGNC@ANONS_DownloadFile?$AA@
CONST	SEGMENT
??_C@_0BD@JNNJJGNC@ANONS_DownloadFile?$AA@ DB 'ANONS_DownloadFile', 00H ; `string'
CONST	ENDS
;	COMDAT ??_C@_0BF@JOPKDOGI@ANONS_DeleteVoteFile?$AA@
CONST	SEGMENT
??_C@_0BF@JOPKDOGI@ANONS_DeleteVoteFile?$AA@ DB 'ANONS_DeleteVoteFile', 00H ; `string'
CONST	ENDS
;	COMDAT ??_C@_0N@DCPCLHJ@ANONS_Enable?$AA@
CONST	SEGMENT
??_C@_0N@DCPCLHJ@ANONS_Enable?$AA@ DB 'ANONS_Enable', 00H ; `string'
CONST	ENDS
;	COMDAT ??_C@_0BB@IFHGPKPD@QTOP_SMSBuffTime?$AA@
CONST	SEGMENT
??_C@_0BB@IFHGPKPD@QTOP_SMSBuffTime?$AA@ DB 'QTOP_SMSBuffTime', 00H ; `string'
CONST	ENDS
;	COMDAT ??_C@_0O@NOACOOKK@QTOP_BuffTime?$AA@
CONST	SEGMENT
??_C@_0O@NOACOOKK@QTOP_BuffTime?$AA@ DB 'QTOP_BuffTime', 00H ; `string'
CONST	ENDS
;	COMDAT ??_C@_0BD@PDOBGAFG@MMOTOP_SMSBuffTime?$AA@
CONST	SEGMENT
??_C@_0BD@PDOBGAFG@MMOTOP_SMSBuffTime?$AA@ DB 'MMOTOP_SMSBuffTime', 00H ; `string'
CONST	ENDS
;	COMDAT ??_C@_0BA@FPOKAIAG@MMOTOP_BuffTime?$AA@
CONST	SEGMENT
??_C@_0BA@FPOKAIAG@MMOTOP_BuffTime?$AA@ DB 'MMOTOP_BuffTime', 00H ; `string'
CONST	ENDS
;	COMDAT ??_C@_0BG@KCBCCKKI@QTOP_SMSBonusLifeBank?$AA@
CONST	SEGMENT
??_C@_0BG@KCBCCKKI@QTOP_SMSBonusLifeBank?$AA@ DB 'QTOP_SMSBonusLifeBank', 00H ; `string'
CONST	ENDS
;	COMDAT ??_C@_0BG@GGDNHJBE@QTOP_SMSBonusSoulBank?$AA@
CONST	SEGMENT
??_C@_0BG@GGDNHJBE@QTOP_SMSBonusSoulBank?$AA@ DB 'QTOP_SMSBonusSoulBank', 00H ; `string'
CONST	ENDS
;	COMDAT ??_C@_0BH@JHJGADBG@QTOP_SMSBonusBlessBank?$AA@
CONST	SEGMENT
??_C@_0BH@JHJGADBG@QTOP_SMSBonusBlessBank?$AA@ DB 'QTOP_SMSBonusBlessBank'
	DB	00H						; `string'
CONST	ENDS
;	COMDAT ??_C@_0BH@BIMMBGE@QTOP_SMSBonusChaosBank?$AA@
CONST	SEGMENT
??_C@_0BH@BIMMBGE@QTOP_SMSBonusChaosBank?$AA@ DB 'QTOP_SMSBonusChaosBank', 00H ; `string'
CONST	ENDS
;	COMDAT ??_C@_0BH@EHJIKPHH@QTOP_SMSBonusItemLevel?$AA@
CONST	SEGMENT
??_C@_0BH@EHJIKPHH@QTOP_SMSBonusItemLevel?$AA@ DB 'QTOP_SMSBonusItemLevel'
	DB	00H						; `string'
CONST	ENDS
;	COMDAT ??_C@_0BH@LEDLEHJE@QTOP_SMSBonusItemIndex?$AA@
CONST	SEGMENT
??_C@_0BH@LEDLEHJE@QTOP_SMSBonusItemIndex?$AA@ DB 'QTOP_SMSBonusItemIndex'
	DB	00H						; `string'
CONST	ENDS
;	COMDAT ??_C@_0BG@CALGGNEL@QTOP_SMSBonusItemType?$AA@
CONST	SEGMENT
??_C@_0BG@CALGGNEL@QTOP_SMSBonusItemType?$AA@ DB 'QTOP_SMSBonusItemType', 00H ; `string'
CONST	ENDS
;	COMDAT ??_C@_0BI@EAIFKLHB@QTOP_SMSBonusItemActive?$AA@
CONST	SEGMENT
??_C@_0BI@EAIFKLHB@QTOP_SMSBonusItemActive?$AA@ DB 'QTOP_SMSBonusItemActi'
	DB	've', 00H					; `string'
CONST	ENDS
;	COMDAT ??_C@_0BE@KEKPCADF@QTOP_SMSBonusZtCred?$AA@
CONST	SEGMENT
??_C@_0BE@KEKPCADF@QTOP_SMSBonusZtCred?$AA@ DB 'QTOP_SMSBonusZtCred', 00H ; `string'
CONST	ENDS
;	COMDAT ??_C@_0BE@OKHOPJMN@QTOP_SMSBonusWcoinG?$AA@
CONST	SEGMENT
??_C@_0BE@OKHOPJMN@QTOP_SMSBonusWcoinG?$AA@ DB 'QTOP_SMSBonusWcoinG', 00H ; `string'
CONST	ENDS
;	COMDAT ??_C@_0BE@OPPNHNFL@QTOP_SMSBonusWcoinP?$AA@
CONST	SEGMENT
??_C@_0BE@OPPNHNFL@QTOP_SMSBonusWcoinP?$AA@ DB 'QTOP_SMSBonusWcoinP', 00H ; `string'
CONST	ENDS
;	COMDAT ??_C@_0BE@IOBCDMMJ@QTOP_SMSBonusWcoinC?$AA@
CONST	SEGMENT
??_C@_0BE@IOBCDMMJ@QTOP_SMSBonusWcoinC?$AA@ DB 'QTOP_SMSBonusWcoinC', 00H ; `string'
CONST	ENDS
;	COMDAT ??_C@_0BD@ECNNADMJ@QTOP_BonusLifeBank?$AA@
CONST	SEGMENT
??_C@_0BD@ECNNADMJ@QTOP_BonusLifeBank?$AA@ DB 'QTOP_BonusLifeBank', 00H ; `string'
CONST	ENDS
;	COMDAT ??_C@_0BD@IGPCFAHF@QTOP_BonusSoulBank?$AA@
CONST	SEGMENT
??_C@_0BD@IGPCFAHF@QTOP_BonusSoulBank?$AA@ DB 'QTOP_BonusSoulBank', 00H ; `string'
CONST	ENDS
;	COMDAT ??_C@_0BE@KNMDJNPB@QTOP_BonusBlessBank?$AA@
CONST	SEGMENT
??_C@_0BE@KNMDJNPB@QTOP_BonusBlessBank?$AA@ DB 'QTOP_BonusBlessBank', 00H ; `string'
CONST	ENDS
;	COMDAT ??_C@_0BE@DLNJFPID@QTOP_BonusChaosBank?$AA@
CONST	SEGMENT
??_C@_0BE@DLNJFPID@QTOP_BonusChaosBank?$AA@ DB 'QTOP_BonusChaosBank', 00H ; `string'
CONST	ENDS
;	COMDAT ??_C@_0BE@HNMNDBJA@QTOP_BonusItemLevel?$AA@
CONST	SEGMENT
??_C@_0BE@HNMNDBJA@QTOP_BonusItemLevel?$AA@ DB 'QTOP_BonusItemLevel', 00H ; `string'
CONST	ENDS
;	COMDAT ??_C@_0BE@IOGONJHD@QTOP_BonusItemIndex?$AA@
CONST	SEGMENT
??_C@_0BE@IOGONJHD@QTOP_BonusItemIndex?$AA@ DB 'QTOP_BonusItemIndex', 00H ; `string'
CONST	ENDS
;	COMDAT ??_C@_0BD@MAHJEECK@QTOP_BonusItemType?$AA@
CONST	SEGMENT
??_C@_0BD@MAHJEECK@QTOP_BonusItemType?$AA@ DB 'QTOP_BonusItemType', 00H ; `string'
CONST	ENDS
;	COMDAT ??_C@_0BF@HONBIJDE@QTOP_BonusItemActive?$AA@
CONST	SEGMENT
??_C@_0BF@HONBIJDE@QTOP_BonusItemActive?$AA@ DB 'QTOP_BonusItemActive', 00H ; `string'
CONST	ENDS
;	COMDAT ??_C@_0BB@LOAEFHCB@QTOP_BonusZtCred?$AA@
CONST	SEGMENT
??_C@_0BB@LOAEFHCB@QTOP_BonusZtCred?$AA@ DB 'QTOP_BonusZtCred', 00H ; `string'
CONST	ENDS
;	COMDAT ??_C@_0BB@PANFIONJ@QTOP_BonusWcoinG?$AA@
CONST	SEGMENT
??_C@_0BB@PANFIONJ@QTOP_BonusWcoinG?$AA@ DB 'QTOP_BonusWcoinG', 00H ; `string'
CONST	ENDS
;	COMDAT ??_C@_0BB@PFFGAKEP@QTOP_BonusWcoinP?$AA@
CONST	SEGMENT
??_C@_0BB@PFFGAKEP@QTOP_BonusWcoinP?$AA@ DB 'QTOP_BonusWcoinP', 00H ; `string'
CONST	ENDS
;	COMDAT ??_C@_0BB@JELJELNN@QTOP_BonusWcoinC?$AA@
CONST	SEGMENT
??_C@_0BB@JELJELNN@QTOP_BonusWcoinC?$AA@ DB 'QTOP_BonusWcoinC', 00H ; `string'
CONST	ENDS
;	COMDAT ??_C@_0O@KPGCIBKI@QTOP_VoteFile?$AA@
CONST	SEGMENT
??_C@_0O@KPGCIBKI@QTOP_VoteFile?$AA@ DB 'QTOP_VoteFile', 00H ; `string'
CONST	ENDS
;	COMDAT ??_C@_0BC@JLLLCKLO@QTOP_UPDATE_VOTER?$AA@
CONST	SEGMENT
??_C@_0BC@JLLLCKLO@QTOP_UPDATE_VOTER?$AA@ DB 'QTOP_UPDATE_VOTER', 00H ; `string'
CONST	ENDS
;	COMDAT ??_C@_0BC@HPDCHCHP@QTOP_DownloadFile?$AA@
CONST	SEGMENT
??_C@_0BC@HPDCHCHP@QTOP_DownloadFile?$AA@ DB 'QTOP_DownloadFile', 00H ; `string'
CONST	ENDS
;	COMDAT ??_C@_0BE@CCDEDIEG@QTOP_DeleteVoteFile?$AA@
CONST	SEGMENT
??_C@_0BE@CCDEDIEG@QTOP_DeleteVoteFile?$AA@ DB 'QTOP_DeleteVoteFile', 00H ; `string'
CONST	ENDS
;	COMDAT ??_C@_0BI@EJBBELIL@MMOTOP_SMSBonusLifeBank?$AA@
CONST	SEGMENT
??_C@_0BI@EJBBELIL@MMOTOP_SMSBonusLifeBank?$AA@ DB 'MMOTOP_SMSBonusLifeBa'
	DB	'nk', 00H					; `string'
CONST	ENDS
;	COMDAT ??_C@_0BI@INDOBIDH@MMOTOP_SMSBonusSoulBank?$AA@
CONST	SEGMENT
??_C@_0BI@INDOBIDH@MMOTOP_SMSBonusSoulBank?$AA@ DB 'MMOTOP_SMSBonusSoulBa'
	DB	'nk', 00H					; `string'
CONST	ENDS
;	COMDAT ??_C@_0BJ@DFBKHBAF@MMOTOP_SMSBonusBlessBank?$AA@
CONST	SEGMENT
??_C@_0BJ@DFBKHBAF@MMOTOP_SMSBonusBlessBank?$AA@ DB 'MMOTOP_SMSBonusBless'
	DB	'Bank', 00H					; `string'
CONST	ENDS
;	COMDAT ??_C@_0BJ@KDAALDHH@MMOTOP_SMSBonusChaosBank?$AA@
CONST	SEGMENT
??_C@_0BJ@KDAALDHH@MMOTOP_SMSBonusChaosBank?$AA@ DB 'MMOTOP_SMSBonusChaos'
	DB	'Bank', 00H					; `string'
CONST	ENDS
;	COMDAT ??_C@_0BJ@OFBENNGE@MMOTOP_SMSBonusItemLevel?$AA@
CONST	SEGMENT
??_C@_0BJ@OFBENNGE@MMOTOP_SMSBonusItemLevel?$AA@ DB 'MMOTOP_SMSBonusItemL'
	DB	'evel', 00H					; `string'
CONST	ENDS
;	COMDAT ??_C@_0BJ@BGLHDFIH@MMOTOP_SMSBonusItemIndex?$AA@
CONST	SEGMENT
??_C@_0BJ@BGLHDFIH@MMOTOP_SMSBonusItemIndex?$AA@ DB 'MMOTOP_SMSBonusItemI'
	DB	'ndex', 00H					; `string'
CONST	ENDS
;	COMDAT ??_C@_0BI@MLLFAMGI@MMOTOP_SMSBonusItemType?$AA@
CONST	SEGMENT
??_C@_0BI@MLLFAMGI@MMOTOP_SMSBonusItemType?$AA@ DB 'MMOTOP_SMSBonusItemTy'
	DB	'pe', 00H					; `string'
CONST	ENDS
;	COMDAT ??_C@_0BK@MEJJGGNN@MMOTOP_SMSBonusItemActive?$AA@
CONST	SEGMENT
??_C@_0BK@MEJJGGNN@MMOTOP_SMSBonusItemActive?$AA@ DB 'MMOTOP_SMSBonusItem'
	DB	'Active', 00H				; `string'
CONST	ENDS
;	COMDAT ??_C@_0BG@JONJNLLP@MMOTOP_SMSBonusZtCred?$AA@
CONST	SEGMENT
??_C@_0BG@JONJNLLP@MMOTOP_SMSBonusZtCred?$AA@ DB 'MMOTOP_SMSBonusZtCred', 00H ; `string'
CONST	ENDS
;	COMDAT ??_C@_0BG@NAAIACEH@MMOTOP_SMSBonusWcoinG?$AA@
CONST	SEGMENT
??_C@_0BG@NAAIACEH@MMOTOP_SMSBonusWcoinG?$AA@ DB 'MMOTOP_SMSBonusWcoinG', 00H ; `string'
CONST	ENDS
;	COMDAT ??_C@_0BG@NFILIGNB@MMOTOP_SMSBonusWcoinP?$AA@
CONST	SEGMENT
??_C@_0BG@NFILIGNB@MMOTOP_SMSBonusWcoinP?$AA@ DB 'MMOTOP_SMSBonusWcoinP', 00H ; `string'
CONST	ENDS
;	COMDAT ??_C@_0BG@LEGEMHED@MMOTOP_SMSBonusWcoinC?$AA@
CONST	SEGMENT
??_C@_0BG@LEGEMHED@MMOTOP_SMSBonusWcoinC?$AA@ DB 'MMOTOP_SMSBonusWcoinC', 00H ; `string'
CONST	ENDS
;	COMDAT ??_C@_0BF@IBHHEHKI@MMOTOP_BonusLifeBank?$AA@
CONST	SEGMENT
??_C@_0BF@IBHHEHKI@MMOTOP_BonusLifeBank?$AA@ DB 'MMOTOP_BonusLifeBank', 00H ; `string'
CONST	ENDS
;	COMDAT ??_C@_0BF@EFFIBEBE@MMOTOP_BonusSoulBank?$AA@
CONST	SEGMENT
??_C@_0BF@EFFIBEBE@MMOTOP_BonusSoulBank?$AA@ DB 'MMOTOP_BonusSoulBank', 00H ; `string'
CONST	ENDS
;	COMDAT ??_C@_0BG@JHLFGGHL@MMOTOP_BonusBlessBank?$AA@
CONST	SEGMENT
??_C@_0BG@JHLFGGHL@MMOTOP_BonusBlessBank?$AA@ DB 'MMOTOP_BonusBlessBank', 00H ; `string'
CONST	ENDS
;	COMDAT ??_C@_0BG@BKPKEAJ@MMOTOP_BonusChaosBank?$AA@
CONST	SEGMENT
??_C@_0BG@BKPKEAJ@MMOTOP_BonusChaosBank?$AA@ DB 'MMOTOP_BonusChaosBank', 00H ; `string'
CONST	ENDS
;	COMDAT ??_C@_0BG@EHLLMKBK@MMOTOP_BonusItemLevel?$AA@
CONST	SEGMENT
??_C@_0BG@EHLLMKBK@MMOTOP_BonusItemLevel?$AA@ DB 'MMOTOP_BonusItemLevel', 00H ; `string'
CONST	ENDS
;	COMDAT ??_C@_0BG@LEBICCPJ@MMOTOP_BonusItemIndex?$AA@
CONST	SEGMENT
??_C@_0BG@LEBICCPJ@MMOTOP_BonusItemIndex?$AA@ DB 'MMOTOP_BonusItemIndex', 00H ; `string'
CONST	ENDS
;	COMDAT ??_C@_0BF@DNDAAEL@MMOTOP_BonusItemType?$AA@
CONST	SEGMENT
??_C@_0BF@DNDAAEL@MMOTOP_BonusItemType?$AA@ DB 'MMOTOP_BonusItemType', 00H ; `string'
CONST	ENDS
;	COMDAT ??_C@_0BH@HDIGJFPB@MMOTOP_BonusItemActive?$AA@
CONST	SEGMENT
??_C@_0BH@HDIGJFPB@MMOTOP_BonusItemActive?$AA@ DB 'MMOTOP_BonusItemActive'
	DB	00H						; `string'
CONST	ENDS
;	COMDAT ??_C@_0BD@MIJDMNIE@MMOTOP_BonusZtCred?$AA@
CONST	SEGMENT
??_C@_0BD@MIJDMNIE@MMOTOP_BonusZtCred?$AA@ DB 'MMOTOP_BonusZtCred', 00H ; `string'
CONST	ENDS
;	COMDAT ??_C@_0BD@IGECBEHM@MMOTOP_BonusWcoinG?$AA@
CONST	SEGMENT
??_C@_0BD@IGECBEHM@MMOTOP_BonusWcoinG?$AA@ DB 'MMOTOP_BonusWcoinG', 00H ; `string'
CONST	ENDS
;	COMDAT ??_C@_0BD@IDMBJAOK@MMOTOP_BonusWcoinP?$AA@
CONST	SEGMENT
??_C@_0BD@IDMBJAOK@MMOTOP_BonusWcoinP?$AA@ DB 'MMOTOP_BonusWcoinP', 00H ; `string'
CONST	ENDS
;	COMDAT ??_C@_0BD@OCCONBHI@MMOTOP_BonusWcoinC?$AA@
CONST	SEGMENT
??_C@_0BD@OCCONBHI@MMOTOP_BonusWcoinC?$AA@ DB 'MMOTOP_BonusWcoinC', 00H ; `string'
CONST	ENDS
;	COMDAT ??_C@_0BA@COIKGHAE@MMOTOP_VoteFile?$AA@
CONST	SEGMENT
??_C@_0BA@COIKGHAE@MMOTOP_VoteFile?$AA@ DB 'MMOTOP_VoteFile', 00H ; `string'
CONST	ENDS
;	COMDAT ??_C@_0FE@DBCBBMPJ@votes?1aba02abed8021ba31a4499a390@
CONST	SEGMENT
??_C@_0FE@DBCBBMPJ@votes?1aba02abed8021ba31a4499a390@ DB 'votes/aba02abed'
	DB	'8021ba31a4499a390aa8afa4679c6d1.txt?454b02beba57cfd5896709ff1'
	DB	'ea8f1aa', 00H				; `string'
CONST	ENDS
;	COMDAT ??_C@_0BE@DNHBOKED@MMOTOP_UPDATE_VOTER?$AA@
CONST	SEGMENT
??_C@_0BE@DNHBOKED@MMOTOP_UPDATE_VOTER?$AA@ DB 'MMOTOP_UPDATE_VOTER', 00H ; `string'
CONST	ENDS
;	COMDAT ??_C@_0BE@NJPILCIC@MMOTOP_DownloadFile?$AA@
CONST	SEGMENT
??_C@_0BE@NJPILCIC@MMOTOP_DownloadFile?$AA@ DB 'MMOTOP_DownloadFile', 00H ; `string'
CONST	ENDS
;	COMDAT ??_C@_0BG@BIECMDMM@MMOTOP_DeleteVoteFile?$AA@
CONST	SEGMENT
??_C@_0BG@BIECMDMM@MMOTOP_DeleteVoteFile?$AA@ DB 'MMOTOP_DeleteVoteFile', 00H ; `string'
CONST	ENDS
;	COMDAT ??_C@_0M@DCIBIFED@QTOP_Enable?$AA@
CONST	SEGMENT
??_C@_0M@DCIBIFED@QTOP_Enable?$AA@ DB 'QTOP_Enable', 00H ; `string'
CONST	ENDS
;	COMDAT ??_C@_06CNKIADGI@ZtTeam?$AA@
CONST	SEGMENT
??_C@_06CNKIADGI@ZtTeam?$AA@ DB 'ZtTeam', 00H		; `string'
CONST	ENDS
;	COMDAT ??_C@_0O@HBCEHCHG@MMOTOP_Enable?$AA@
CONST	SEGMENT
??_C@_0O@HBCEHCHG@MMOTOP_Enable?$AA@ DB 'MMOTOP_Enable', 00H ; `string'
CONST	ENDS
;	COMDAT ??_C@_0BJ@HBNPCLMO@?4?4?2Data?2ZtData?2Voter?4ini?$AA@
CONST	SEGMENT
??_C@_0BJ@HBNPCLMO@?4?4?2Data?2ZtData?2Voter?4ini?$AA@ DB '..\Data\ZtData'
	DB	'\Voter.ini', 00H				; `string'
; Function compile flags: /Ogtp
CONST	ENDS
;	COMDAT ?Init@Voter@@QAEXXZ
_TEXT	SEGMENT
?Init@Voter@@QAEXXZ PROC				; Voter::Init, COMDAT
; _this$ = ecx

; 54   : {

  00000	53		 push	 ebx
  00001	56		 push	 esi
  00002	57		 push	 edi

; 55   : 	this->MMOTOP_Enable = GetPrivateProfileInt("ZtTeam","MMOTOP_Enable",0,VOTER_DIR);

  00003	8b 3d 00 00 00
	00		 mov	 edi, DWORD PTR __imp__GetPrivateProfileIntA@16
  00009	68 00 00 00 00	 push	 OFFSET ??_C@_0BJ@HBNPCLMO@?4?4?2Data?2ZtData?2Voter?4ini?$AA@
  0000e	6a 00		 push	 0
  00010	68 00 00 00 00	 push	 OFFSET ??_C@_0O@HBCEHCHG@MMOTOP_Enable?$AA@
  00015	68 00 00 00 00	 push	 OFFSET ??_C@_06CNKIADGI@ZtTeam?$AA@
  0001a	8b f1		 mov	 esi, ecx
  0001c	ff d7		 call	 edi

; 56   : 	this->QTOP_Enable = GetPrivateProfileInt("ZtTeam", "QTOP_Enable", 0, VOTER_DIR);

  0001e	68 00 00 00 00	 push	 OFFSET ??_C@_0BJ@HBNPCLMO@?4?4?2Data?2ZtData?2Voter?4ini?$AA@
  00023	6a 00		 push	 0
  00025	85 c0		 test	 eax, eax
  00027	68 00 00 00 00	 push	 OFFSET ??_C@_0M@DCIBIFED@QTOP_Enable?$AA@
  0002c	0f 95 c0	 setne	 al
  0002f	68 00 00 00 00	 push	 OFFSET ??_C@_06CNKIADGI@ZtTeam?$AA@
  00034	88 06		 mov	 BYTE PTR [esi], al
  00036	ff d7		 call	 edi

; 57   : 	// ----
; 58   : 
; 59   : 	this->MMOTOP_DeleteVoteFile = GetPrivateProfileInt("ZtTeam", "MMOTOP_DeleteVoteFile", 1, VOTER_DIR);

  00038	68 00 00 00 00	 push	 OFFSET ??_C@_0BJ@HBNPCLMO@?4?4?2Data?2ZtData?2Voter?4ini?$AA@
  0003d	6a 01		 push	 1
  0003f	85 c0		 test	 eax, eax
  00041	68 00 00 00 00	 push	 OFFSET ??_C@_0BG@BIECMDMM@MMOTOP_DeleteVoteFile?$AA@
  00046	0f 95 c1	 setne	 cl
  00049	68 00 00 00 00	 push	 OFFSET ??_C@_06CNKIADGI@ZtTeam?$AA@
  0004e	88 8e 30 01 00
	00		 mov	 BYTE PTR [esi+304], cl
  00054	ff d7		 call	 edi

; 60   : 	this->MMOTOP_DownloadFile = GetPrivateProfileInt("ZtTeam", "MMOTOP_DownloadFile", 1, VOTER_DIR);

  00056	68 00 00 00 00	 push	 OFFSET ??_C@_0BJ@HBNPCLMO@?4?4?2Data?2ZtData?2Voter?4ini?$AA@
  0005b	6a 01		 push	 1
  0005d	85 c0		 test	 eax, eax
  0005f	68 00 00 00 00	 push	 OFFSET ??_C@_0BE@NJPILCIC@MMOTOP_DownloadFile?$AA@
  00064	0f 95 c2	 setne	 dl
  00067	68 00 00 00 00	 push	 OFFSET ??_C@_06CNKIADGI@ZtTeam?$AA@
  0006c	88 56 01	 mov	 BYTE PTR [esi+1], dl
  0006f	ff d7		 call	 edi

; 61   : 
; 62   : 	this->MMOTOP_UPDATE_VOTER = GetPrivateProfileInt("ZtTeam", "MMOTOP_UPDATE_VOTER", 2, VOTER_DIR);

  00071	68 00 00 00 00	 push	 OFFSET ??_C@_0BJ@HBNPCLMO@?4?4?2Data?2ZtData?2Voter?4ini?$AA@
  00076	6a 02		 push	 2
  00078	85 c0		 test	 eax, eax
  0007a	68 00 00 00 00	 push	 OFFSET ??_C@_0BE@DNHBOKED@MMOTOP_UPDATE_VOTER?$AA@
  0007f	0f 95 c0	 setne	 al
  00082	68 00 00 00 00	 push	 OFFSET ??_C@_06CNKIADGI@ZtTeam?$AA@
  00087	88 46 02	 mov	 BYTE PTR [esi+2], al
  0008a	ff d7		 call	 edi

; 63   : 
; 64   : 	GetPrivateProfileString("ZtTeam", "MMOTOP_VoteFile", "votes/aba02abed8021ba31a4499a390aa8afa4679c6d1.txt?454b02beba57cfd5896709ff1ea8f1aa", this->MMOTOP_FileName, sizeof(this->MMOTOP_FileName), VOTER_DIR);

  0008c	8b 1d 00 00 00
	00		 mov	 ebx, DWORD PTR __imp__GetPrivateProfileStringA@24
  00092	68 00 00 00 00	 push	 OFFSET ??_C@_0BJ@HBNPCLMO@?4?4?2Data?2ZtData?2Voter?4ini?$AA@
  00097	68 c8 00 00 00	 push	 200			; 000000c8H
  0009c	8d 4e 08	 lea	 ecx, DWORD PTR [esi+8]
  0009f	51		 push	 ecx
  000a0	68 00 00 00 00	 push	 OFFSET ??_C@_0FE@DBCBBMPJ@votes?1aba02abed8021ba31a4499a390@
  000a5	68 00 00 00 00	 push	 OFFSET ??_C@_0BA@COIKGHAE@MMOTOP_VoteFile?$AA@
  000aa	68 00 00 00 00	 push	 OFFSET ??_C@_06CNKIADGI@ZtTeam?$AA@
  000af	89 46 04	 mov	 DWORD PTR [esi+4], eax
  000b2	ff d3		 call	 ebx

; 65   : 
; 66   : 	this->MMOTOP_BonusWcoinC = GetPrivateProfileInt("ZtTeam", "MMOTOP_BonusWcoinC", 0, VOTER_DIR);

  000b4	68 00 00 00 00	 push	 OFFSET ??_C@_0BJ@HBNPCLMO@?4?4?2Data?2ZtData?2Voter?4ini?$AA@
  000b9	6a 00		 push	 0
  000bb	68 00 00 00 00	 push	 OFFSET ??_C@_0BD@OCCONBHI@MMOTOP_BonusWcoinC?$AA@
  000c0	68 00 00 00 00	 push	 OFFSET ??_C@_06CNKIADGI@ZtTeam?$AA@
  000c5	ff d7		 call	 edi

; 67   : 	this->MMOTOP_BonusWcoinP = GetPrivateProfileInt("ZtTeam", "MMOTOP_BonusWcoinP", 0, VOTER_DIR);

  000c7	68 00 00 00 00	 push	 OFFSET ??_C@_0BJ@HBNPCLMO@?4?4?2Data?2ZtData?2Voter?4ini?$AA@
  000cc	6a 00		 push	 0
  000ce	68 00 00 00 00	 push	 OFFSET ??_C@_0BD@IDMBJAOK@MMOTOP_BonusWcoinP?$AA@
  000d3	68 00 00 00 00	 push	 OFFSET ??_C@_06CNKIADGI@ZtTeam?$AA@
  000d8	89 86 d0 00 00
	00		 mov	 DWORD PTR [esi+208], eax
  000de	ff d7		 call	 edi

; 68   : 	this->MMOTOP_BonusWcoinG = GetPrivateProfileInt("ZtTeam", "MMOTOP_BonusWcoinG", 0, VOTER_DIR);

  000e0	68 00 00 00 00	 push	 OFFSET ??_C@_0BJ@HBNPCLMO@?4?4?2Data?2ZtData?2Voter?4ini?$AA@
  000e5	6a 00		 push	 0
  000e7	68 00 00 00 00	 push	 OFFSET ??_C@_0BD@IGECBEHM@MMOTOP_BonusWcoinG?$AA@
  000ec	68 00 00 00 00	 push	 OFFSET ??_C@_06CNKIADGI@ZtTeam?$AA@
  000f1	89 86 d4 00 00
	00		 mov	 DWORD PTR [esi+212], eax
  000f7	ff d7		 call	 edi

; 69   : 	this->MMOTOP_BonusZtCred = GetPrivateProfileInt("ZtTeam", "MMOTOP_BonusZtCred", 0, VOTER_DIR);

  000f9	68 00 00 00 00	 push	 OFFSET ??_C@_0BJ@HBNPCLMO@?4?4?2Data?2ZtData?2Voter?4ini?$AA@
  000fe	6a 00		 push	 0
  00100	68 00 00 00 00	 push	 OFFSET ??_C@_0BD@MIJDMNIE@MMOTOP_BonusZtCred?$AA@
  00105	68 00 00 00 00	 push	 OFFSET ??_C@_06CNKIADGI@ZtTeam?$AA@
  0010a	89 86 d8 00 00
	00		 mov	 DWORD PTR [esi+216], eax
  00110	ff d7		 call	 edi

; 70   : 
; 71   : 	this->MMOTOP_BonusItemActive = GetPrivateProfileInt("ZtTeam", "MMOTOP_BonusItemActive", 0, VOTER_DIR);

  00112	68 00 00 00 00	 push	 OFFSET ??_C@_0BJ@HBNPCLMO@?4?4?2Data?2ZtData?2Voter?4ini?$AA@
  00117	6a 00		 push	 0
  00119	68 00 00 00 00	 push	 OFFSET ??_C@_0BH@HDIGJFPB@MMOTOP_BonusItemActive?$AA@
  0011e	68 00 00 00 00	 push	 OFFSET ??_C@_06CNKIADGI@ZtTeam?$AA@
  00123	89 86 dc 00 00
	00		 mov	 DWORD PTR [esi+220], eax
  00129	ff d7		 call	 edi

; 72   : 	this->MMOTOP_BonusItemType = GetPrivateProfileInt("ZtTeam", "MMOTOP_BonusItemType", 0, VOTER_DIR);

  0012b	68 00 00 00 00	 push	 OFFSET ??_C@_0BJ@HBNPCLMO@?4?4?2Data?2ZtData?2Voter?4ini?$AA@
  00130	6a 00		 push	 0
  00132	68 00 00 00 00	 push	 OFFSET ??_C@_0BF@DNDAAEL@MMOTOP_BonusItemType?$AA@
  00137	68 00 00 00 00	 push	 OFFSET ??_C@_06CNKIADGI@ZtTeam?$AA@
  0013c	89 86 e0 00 00
	00		 mov	 DWORD PTR [esi+224], eax
  00142	ff d7		 call	 edi

; 73   : 	this->MMOTOP_BonusItemIndex = GetPrivateProfileInt("ZtTeam", "MMOTOP_BonusItemIndex", 0, VOTER_DIR);

  00144	68 00 00 00 00	 push	 OFFSET ??_C@_0BJ@HBNPCLMO@?4?4?2Data?2ZtData?2Voter?4ini?$AA@
  00149	6a 00		 push	 0
  0014b	68 00 00 00 00	 push	 OFFSET ??_C@_0BG@LEBICCPJ@MMOTOP_BonusItemIndex?$AA@
  00150	68 00 00 00 00	 push	 OFFSET ??_C@_06CNKIADGI@ZtTeam?$AA@
  00155	89 86 e4 00 00
	00		 mov	 DWORD PTR [esi+228], eax
  0015b	ff d7		 call	 edi

; 74   : 	this->MMOTOP_BonusItemLevel = GetPrivateProfileInt("ZtTeam", "MMOTOP_BonusItemLevel", 0, VOTER_DIR);

  0015d	68 00 00 00 00	 push	 OFFSET ??_C@_0BJ@HBNPCLMO@?4?4?2Data?2ZtData?2Voter?4ini?$AA@
  00162	6a 00		 push	 0
  00164	68 00 00 00 00	 push	 OFFSET ??_C@_0BG@EHLLMKBK@MMOTOP_BonusItemLevel?$AA@
  00169	68 00 00 00 00	 push	 OFFSET ??_C@_06CNKIADGI@ZtTeam?$AA@
  0016e	89 86 e8 00 00
	00		 mov	 DWORD PTR [esi+232], eax
  00174	ff d7		 call	 edi

; 75   : 
; 76   : 	this->MMOTOP_BonusChaosBank = GetPrivateProfileInt("ZtTeam", "MMOTOP_BonusChaosBank", 0, VOTER_DIR);

  00176	68 00 00 00 00	 push	 OFFSET ??_C@_0BJ@HBNPCLMO@?4?4?2Data?2ZtData?2Voter?4ini?$AA@
  0017b	6a 00		 push	 0
  0017d	68 00 00 00 00	 push	 OFFSET ??_C@_0BG@BKPKEAJ@MMOTOP_BonusChaosBank?$AA@
  00182	68 00 00 00 00	 push	 OFFSET ??_C@_06CNKIADGI@ZtTeam?$AA@
  00187	89 86 ec 00 00
	00		 mov	 DWORD PTR [esi+236], eax
  0018d	ff d7		 call	 edi

; 77   : 	this->MMOTOP_BonusBlessBank = GetPrivateProfileInt("ZtTeam", "MMOTOP_BonusBlessBank", 0, VOTER_DIR);

  0018f	68 00 00 00 00	 push	 OFFSET ??_C@_0BJ@HBNPCLMO@?4?4?2Data?2ZtData?2Voter?4ini?$AA@
  00194	6a 00		 push	 0
  00196	68 00 00 00 00	 push	 OFFSET ??_C@_0BG@JHLFGGHL@MMOTOP_BonusBlessBank?$AA@
  0019b	68 00 00 00 00	 push	 OFFSET ??_C@_06CNKIADGI@ZtTeam?$AA@
  001a0	89 86 f0 00 00
	00		 mov	 DWORD PTR [esi+240], eax
  001a6	ff d7		 call	 edi

; 78   : 	this->MMOTOP_BonusSoulBank = GetPrivateProfileInt("ZtTeam", "MMOTOP_BonusSoulBank", 0, VOTER_DIR);

  001a8	68 00 00 00 00	 push	 OFFSET ??_C@_0BJ@HBNPCLMO@?4?4?2Data?2ZtData?2Voter?4ini?$AA@
  001ad	6a 00		 push	 0
  001af	68 00 00 00 00	 push	 OFFSET ??_C@_0BF@EFFIBEBE@MMOTOP_BonusSoulBank?$AA@
  001b4	68 00 00 00 00	 push	 OFFSET ??_C@_06CNKIADGI@ZtTeam?$AA@
  001b9	89 86 f4 00 00
	00		 mov	 DWORD PTR [esi+244], eax
  001bf	ff d7		 call	 edi

; 79   : 	this->MMOTOP_BonusLifeBank = GetPrivateProfileInt("ZtTeam", "MMOTOP_BonusLifeBank", 0, VOTER_DIR);

  001c1	68 00 00 00 00	 push	 OFFSET ??_C@_0BJ@HBNPCLMO@?4?4?2Data?2ZtData?2Voter?4ini?$AA@
  001c6	6a 00		 push	 0
  001c8	68 00 00 00 00	 push	 OFFSET ??_C@_0BF@IBHHEHKI@MMOTOP_BonusLifeBank?$AA@
  001cd	68 00 00 00 00	 push	 OFFSET ??_C@_06CNKIADGI@ZtTeam?$AA@
  001d2	89 86 f8 00 00
	00		 mov	 DWORD PTR [esi+248], eax
  001d8	ff d7		 call	 edi

; 80   : 
; 81   : 	this->MMOTOP_SMSBonusWcoinC = GetPrivateProfileInt("ZtTeam", "MMOTOP_SMSBonusWcoinC", 0, VOTER_DIR);

  001da	68 00 00 00 00	 push	 OFFSET ??_C@_0BJ@HBNPCLMO@?4?4?2Data?2ZtData?2Voter?4ini?$AA@
  001df	6a 00		 push	 0
  001e1	68 00 00 00 00	 push	 OFFSET ??_C@_0BG@LEGEMHED@MMOTOP_SMSBonusWcoinC?$AA@
  001e6	68 00 00 00 00	 push	 OFFSET ??_C@_06CNKIADGI@ZtTeam?$AA@
  001eb	89 86 fc 00 00
	00		 mov	 DWORD PTR [esi+252], eax
  001f1	ff d7		 call	 edi

; 82   : 	this->MMOTOP_SMSBonusWcoinP = GetPrivateProfileInt("ZtTeam", "MMOTOP_SMSBonusWcoinP", 0, VOTER_DIR);

  001f3	68 00 00 00 00	 push	 OFFSET ??_C@_0BJ@HBNPCLMO@?4?4?2Data?2ZtData?2Voter?4ini?$AA@
  001f8	6a 00		 push	 0
  001fa	68 00 00 00 00	 push	 OFFSET ??_C@_0BG@NFILIGNB@MMOTOP_SMSBonusWcoinP?$AA@
  001ff	68 00 00 00 00	 push	 OFFSET ??_C@_06CNKIADGI@ZtTeam?$AA@
  00204	89 86 00 01 00
	00		 mov	 DWORD PTR [esi+256], eax
  0020a	ff d7		 call	 edi

; 83   : 	this->MMOTOP_SMSBonusWcoinG = GetPrivateProfileInt("ZtTeam", "MMOTOP_SMSBonusWcoinG", 0, VOTER_DIR);

  0020c	68 00 00 00 00	 push	 OFFSET ??_C@_0BJ@HBNPCLMO@?4?4?2Data?2ZtData?2Voter?4ini?$AA@
  00211	6a 00		 push	 0
  00213	68 00 00 00 00	 push	 OFFSET ??_C@_0BG@NAAIACEH@MMOTOP_SMSBonusWcoinG?$AA@
  00218	68 00 00 00 00	 push	 OFFSET ??_C@_06CNKIADGI@ZtTeam?$AA@
  0021d	89 86 04 01 00
	00		 mov	 DWORD PTR [esi+260], eax
  00223	ff d7		 call	 edi

; 84   : 	this->MMOTOP_SMSBonusZtCred = GetPrivateProfileInt("ZtTeam", "MMOTOP_SMSBonusZtCred", 0, VOTER_DIR);

  00225	68 00 00 00 00	 push	 OFFSET ??_C@_0BJ@HBNPCLMO@?4?4?2Data?2ZtData?2Voter?4ini?$AA@
  0022a	6a 00		 push	 0
  0022c	68 00 00 00 00	 push	 OFFSET ??_C@_0BG@JONJNLLP@MMOTOP_SMSBonusZtCred?$AA@
  00231	68 00 00 00 00	 push	 OFFSET ??_C@_06CNKIADGI@ZtTeam?$AA@
  00236	89 86 08 01 00
	00		 mov	 DWORD PTR [esi+264], eax
  0023c	ff d7		 call	 edi

; 85   : 
; 86   : 	this->MMOTOP_SMSBonusItemActive = GetPrivateProfileInt("ZtTeam", "MMOTOP_SMSBonusItemActive", 0, VOTER_DIR);

  0023e	68 00 00 00 00	 push	 OFFSET ??_C@_0BJ@HBNPCLMO@?4?4?2Data?2ZtData?2Voter?4ini?$AA@
  00243	6a 00		 push	 0
  00245	68 00 00 00 00	 push	 OFFSET ??_C@_0BK@MEJJGGNN@MMOTOP_SMSBonusItemActive?$AA@
  0024a	68 00 00 00 00	 push	 OFFSET ??_C@_06CNKIADGI@ZtTeam?$AA@
  0024f	89 86 0c 01 00
	00		 mov	 DWORD PTR [esi+268], eax
  00255	ff d7		 call	 edi

; 87   : 	this->MMOTOP_SMSBonusItemType = GetPrivateProfileInt("ZtTeam", "MMOTOP_SMSBonusItemType", 0, VOTER_DIR);

  00257	68 00 00 00 00	 push	 OFFSET ??_C@_0BJ@HBNPCLMO@?4?4?2Data?2ZtData?2Voter?4ini?$AA@
  0025c	6a 00		 push	 0
  0025e	68 00 00 00 00	 push	 OFFSET ??_C@_0BI@MLLFAMGI@MMOTOP_SMSBonusItemType?$AA@
  00263	68 00 00 00 00	 push	 OFFSET ??_C@_06CNKIADGI@ZtTeam?$AA@
  00268	89 86 10 01 00
	00		 mov	 DWORD PTR [esi+272], eax
  0026e	ff d7		 call	 edi

; 88   : 	this->MMOTOP_SMSBonusItemIndex = GetPrivateProfileInt("ZtTeam", "MMOTOP_SMSBonusItemIndex", 0, VOTER_DIR);

  00270	68 00 00 00 00	 push	 OFFSET ??_C@_0BJ@HBNPCLMO@?4?4?2Data?2ZtData?2Voter?4ini?$AA@
  00275	89 86 14 01 00
	00		 mov	 DWORD PTR [esi+276], eax
  0027b	6a 00		 push	 0
  0027d	68 00 00 00 00	 push	 OFFSET ??_C@_0BJ@BGLHDFIH@MMOTOP_SMSBonusItemIndex?$AA@
  00282	68 00 00 00 00	 push	 OFFSET ??_C@_06CNKIADGI@ZtTeam?$AA@
  00287	ff d7		 call	 edi

; 89   : 	this->MMOTOP_SMSBonusItemLevel = GetPrivateProfileInt("ZtTeam", "MMOTOP_SMSBonusItemLevel", 0, VOTER_DIR);

  00289	68 00 00 00 00	 push	 OFFSET ??_C@_0BJ@HBNPCLMO@?4?4?2Data?2ZtData?2Voter?4ini?$AA@
  0028e	6a 00		 push	 0
  00290	68 00 00 00 00	 push	 OFFSET ??_C@_0BJ@OFBENNGE@MMOTOP_SMSBonusItemLevel?$AA@
  00295	68 00 00 00 00	 push	 OFFSET ??_C@_06CNKIADGI@ZtTeam?$AA@
  0029a	89 86 18 01 00
	00		 mov	 DWORD PTR [esi+280], eax
  002a0	ff d7		 call	 edi

; 90   : 
; 91   : 	this->MMOTOP_SMSBonusChaosBank = GetPrivateProfileInt("ZtTeam", "MMOTOP_SMSBonusChaosBank", 0, VOTER_DIR);

  002a2	68 00 00 00 00	 push	 OFFSET ??_C@_0BJ@HBNPCLMO@?4?4?2Data?2ZtData?2Voter?4ini?$AA@
  002a7	6a 00		 push	 0
  002a9	68 00 00 00 00	 push	 OFFSET ??_C@_0BJ@KDAALDHH@MMOTOP_SMSBonusChaosBank?$AA@
  002ae	68 00 00 00 00	 push	 OFFSET ??_C@_06CNKIADGI@ZtTeam?$AA@
  002b3	89 86 1c 01 00
	00		 mov	 DWORD PTR [esi+284], eax
  002b9	ff d7		 call	 edi

; 92   : 	this->MMOTOP_SMSBonusBlessBank = GetPrivateProfileInt("ZtTeam", "MMOTOP_SMSBonusBlessBank", 0, VOTER_DIR);

  002bb	68 00 00 00 00	 push	 OFFSET ??_C@_0BJ@HBNPCLMO@?4?4?2Data?2ZtData?2Voter?4ini?$AA@
  002c0	6a 00		 push	 0
  002c2	68 00 00 00 00	 push	 OFFSET ??_C@_0BJ@DFBKHBAF@MMOTOP_SMSBonusBlessBank?$AA@
  002c7	68 00 00 00 00	 push	 OFFSET ??_C@_06CNKIADGI@ZtTeam?$AA@
  002cc	89 86 20 01 00
	00		 mov	 DWORD PTR [esi+288], eax
  002d2	ff d7		 call	 edi

; 93   : 	this->MMOTOP_SMSBonusSoulBank = GetPrivateProfileInt("ZtTeam", "MMOTOP_SMSBonusSoulBank", 0, VOTER_DIR);

  002d4	68 00 00 00 00	 push	 OFFSET ??_C@_0BJ@HBNPCLMO@?4?4?2Data?2ZtData?2Voter?4ini?$AA@
  002d9	6a 00		 push	 0
  002db	68 00 00 00 00	 push	 OFFSET ??_C@_0BI@INDOBIDH@MMOTOP_SMSBonusSoulBank?$AA@
  002e0	68 00 00 00 00	 push	 OFFSET ??_C@_06CNKIADGI@ZtTeam?$AA@
  002e5	89 86 24 01 00
	00		 mov	 DWORD PTR [esi+292], eax
  002eb	ff d7		 call	 edi

; 94   : 	this->MMOTOP_SMSBonusLifeBank = GetPrivateProfileInt("ZtTeam", "MMOTOP_SMSBonusLifeBank", 0, VOTER_DIR);

  002ed	68 00 00 00 00	 push	 OFFSET ??_C@_0BJ@HBNPCLMO@?4?4?2Data?2ZtData?2Voter?4ini?$AA@
  002f2	6a 00		 push	 0
  002f4	68 00 00 00 00	 push	 OFFSET ??_C@_0BI@EJBBELIL@MMOTOP_SMSBonusLifeBank?$AA@
  002f9	68 00 00 00 00	 push	 OFFSET ??_C@_06CNKIADGI@ZtTeam?$AA@
  002fe	89 86 28 01 00
	00		 mov	 DWORD PTR [esi+296], eax
  00304	ff d7		 call	 edi

; 95   : 
; 96   : 	// ----
; 97   : 
; 98   : 	this->QTOP_DeleteVoteFile = GetPrivateProfileInt("ZtTeam", "QTOP_DeleteVoteFile", 1, VOTER_DIR);

  00306	68 00 00 00 00	 push	 OFFSET ??_C@_0BJ@HBNPCLMO@?4?4?2Data?2ZtData?2Voter?4ini?$AA@
  0030b	6a 01		 push	 1
  0030d	68 00 00 00 00	 push	 OFFSET ??_C@_0BE@CCDEDIEG@QTOP_DeleteVoteFile?$AA@
  00312	68 00 00 00 00	 push	 OFFSET ??_C@_06CNKIADGI@ZtTeam?$AA@
  00317	89 86 2c 01 00
	00		 mov	 DWORD PTR [esi+300], eax
  0031d	ff d7		 call	 edi

; 99   : 	this->QTOP_DownloadFile = GetPrivateProfileInt("ZtTeam", "QTOP_DownloadFile", 1, VOTER_DIR);

  0031f	68 00 00 00 00	 push	 OFFSET ??_C@_0BJ@HBNPCLMO@?4?4?2Data?2ZtData?2Voter?4ini?$AA@
  00324	6a 01		 push	 1
  00326	85 c0		 test	 eax, eax
  00328	68 00 00 00 00	 push	 OFFSET ??_C@_0BC@HPDCHCHP@QTOP_DownloadFile?$AA@
  0032d	0f 95 c2	 setne	 dl
  00330	68 00 00 00 00	 push	 OFFSET ??_C@_06CNKIADGI@ZtTeam?$AA@
  00335	88 96 31 01 00
	00		 mov	 BYTE PTR [esi+305], dl
  0033b	ff d7		 call	 edi

; 100  : 
; 101  : 	this->QTOP_UPDATE_VOTER = GetPrivateProfileInt("ZtTeam", "QTOP_UPDATE_VOTER", 2, VOTER_DIR);

  0033d	68 00 00 00 00	 push	 OFFSET ??_C@_0BJ@HBNPCLMO@?4?4?2Data?2ZtData?2Voter?4ini?$AA@
  00342	6a 02		 push	 2
  00344	85 c0		 test	 eax, eax
  00346	68 00 00 00 00	 push	 OFFSET ??_C@_0BC@JLLLCKLO@QTOP_UPDATE_VOTER?$AA@
  0034b	0f 95 c0	 setne	 al
  0034e	68 00 00 00 00	 push	 OFFSET ??_C@_06CNKIADGI@ZtTeam?$AA@
  00353	88 86 32 01 00
	00		 mov	 BYTE PTR [esi+306], al
  00359	ff d7		 call	 edi

; 102  : 
; 103  : 	GetPrivateProfileString("ZtTeam", "QTOP_VoteFile", "votes/aba02abed8021ba31a4499a390aa8afa4679c6d1.txt?454b02beba57cfd5896709ff1ea8f1aa", this->QTOP_FileName, sizeof(this->QTOP_FileName), VOTER_DIR);

  0035b	68 00 00 00 00	 push	 OFFSET ??_C@_0BJ@HBNPCLMO@?4?4?2Data?2ZtData?2Voter?4ini?$AA@
  00360	68 c8 00 00 00	 push	 200			; 000000c8H
  00365	8d 8e 38 01 00
	00		 lea	 ecx, DWORD PTR [esi+312]
  0036b	51		 push	 ecx
  0036c	68 00 00 00 00	 push	 OFFSET ??_C@_0FE@DBCBBMPJ@votes?1aba02abed8021ba31a4499a390@
  00371	68 00 00 00 00	 push	 OFFSET ??_C@_0O@KPGCIBKI@QTOP_VoteFile?$AA@
  00376	68 00 00 00 00	 push	 OFFSET ??_C@_06CNKIADGI@ZtTeam?$AA@
  0037b	89 86 34 01 00
	00		 mov	 DWORD PTR [esi+308], eax
  00381	ff d3		 call	 ebx

; 104  : 
; 105  : 	this->QTOP_BonusWcoinC = GetPrivateProfileInt("ZtTeam", "QTOP_BonusWcoinC", 0, VOTER_DIR);

  00383	68 00 00 00 00	 push	 OFFSET ??_C@_0BJ@HBNPCLMO@?4?4?2Data?2ZtData?2Voter?4ini?$AA@
  00388	6a 00		 push	 0
  0038a	68 00 00 00 00	 push	 OFFSET ??_C@_0BB@JELJELNN@QTOP_BonusWcoinC?$AA@
  0038f	68 00 00 00 00	 push	 OFFSET ??_C@_06CNKIADGI@ZtTeam?$AA@
  00394	ff d7		 call	 edi

; 106  : 	this->QTOP_BonusWcoinP = GetPrivateProfileInt("ZtTeam", "QTOP_BonusWcoinP", 0, VOTER_DIR);

  00396	68 00 00 00 00	 push	 OFFSET ??_C@_0BJ@HBNPCLMO@?4?4?2Data?2ZtData?2Voter?4ini?$AA@
  0039b	6a 00		 push	 0
  0039d	68 00 00 00 00	 push	 OFFSET ??_C@_0BB@PFFGAKEP@QTOP_BonusWcoinP?$AA@
  003a2	68 00 00 00 00	 push	 OFFSET ??_C@_06CNKIADGI@ZtTeam?$AA@
  003a7	89 86 00 02 00
	00		 mov	 DWORD PTR [esi+512], eax
  003ad	ff d7		 call	 edi

; 107  : 	this->QTOP_BonusWcoinG = GetPrivateProfileInt("ZtTeam", "QTOP_BonusWcoinG", 0, VOTER_DIR);

  003af	68 00 00 00 00	 push	 OFFSET ??_C@_0BJ@HBNPCLMO@?4?4?2Data?2ZtData?2Voter?4ini?$AA@
  003b4	6a 00		 push	 0
  003b6	68 00 00 00 00	 push	 OFFSET ??_C@_0BB@PANFIONJ@QTOP_BonusWcoinG?$AA@
  003bb	68 00 00 00 00	 push	 OFFSET ??_C@_06CNKIADGI@ZtTeam?$AA@
  003c0	89 86 04 02 00
	00		 mov	 DWORD PTR [esi+516], eax
  003c6	ff d7		 call	 edi

; 108  : 	this->QTOP_BonusZtCred = GetPrivateProfileInt("ZtTeam", "QTOP_BonusZtCred", 0, VOTER_DIR);

  003c8	68 00 00 00 00	 push	 OFFSET ??_C@_0BJ@HBNPCLMO@?4?4?2Data?2ZtData?2Voter?4ini?$AA@
  003cd	6a 00		 push	 0
  003cf	68 00 00 00 00	 push	 OFFSET ??_C@_0BB@LOAEFHCB@QTOP_BonusZtCred?$AA@
  003d4	68 00 00 00 00	 push	 OFFSET ??_C@_06CNKIADGI@ZtTeam?$AA@
  003d9	89 86 08 02 00
	00		 mov	 DWORD PTR [esi+520], eax
  003df	ff d7		 call	 edi

; 109  : 
; 110  : 	this->QTOP_BonusItemActive = GetPrivateProfileInt("ZtTeam", "QTOP_BonusItemActive", 0, VOTER_DIR);

  003e1	68 00 00 00 00	 push	 OFFSET ??_C@_0BJ@HBNPCLMO@?4?4?2Data?2ZtData?2Voter?4ini?$AA@
  003e6	6a 00		 push	 0
  003e8	68 00 00 00 00	 push	 OFFSET ??_C@_0BF@HONBIJDE@QTOP_BonusItemActive?$AA@
  003ed	68 00 00 00 00	 push	 OFFSET ??_C@_06CNKIADGI@ZtTeam?$AA@
  003f2	89 86 0c 02 00
	00		 mov	 DWORD PTR [esi+524], eax
  003f8	ff d7		 call	 edi

; 111  : 	this->QTOP_BonusItemType = GetPrivateProfileInt("ZtTeam", "QTOP_BonusItemType", 0, VOTER_DIR);

  003fa	68 00 00 00 00	 push	 OFFSET ??_C@_0BJ@HBNPCLMO@?4?4?2Data?2ZtData?2Voter?4ini?$AA@
  003ff	6a 00		 push	 0
  00401	68 00 00 00 00	 push	 OFFSET ??_C@_0BD@MAHJEECK@QTOP_BonusItemType?$AA@
  00406	68 00 00 00 00	 push	 OFFSET ??_C@_06CNKIADGI@ZtTeam?$AA@
  0040b	89 86 10 02 00
	00		 mov	 DWORD PTR [esi+528], eax
  00411	ff d7		 call	 edi

; 112  : 	this->QTOP_BonusItemIndex = GetPrivateProfileInt("ZtTeam", "QTOP_BonusItemIndex", 0, VOTER_DIR);

  00413	68 00 00 00 00	 push	 OFFSET ??_C@_0BJ@HBNPCLMO@?4?4?2Data?2ZtData?2Voter?4ini?$AA@
  00418	6a 00		 push	 0
  0041a	68 00 00 00 00	 push	 OFFSET ??_C@_0BE@IOGONJHD@QTOP_BonusItemIndex?$AA@
  0041f	68 00 00 00 00	 push	 OFFSET ??_C@_06CNKIADGI@ZtTeam?$AA@
  00424	89 86 14 02 00
	00		 mov	 DWORD PTR [esi+532], eax
  0042a	ff d7		 call	 edi

; 113  : 	this->QTOP_BonusItemLevel = GetPrivateProfileInt("ZtTeam", "QTOP_BonusItemLevel", 0, VOTER_DIR);

  0042c	68 00 00 00 00	 push	 OFFSET ??_C@_0BJ@HBNPCLMO@?4?4?2Data?2ZtData?2Voter?4ini?$AA@
  00431	6a 00		 push	 0
  00433	68 00 00 00 00	 push	 OFFSET ??_C@_0BE@HNMNDBJA@QTOP_BonusItemLevel?$AA@
  00438	68 00 00 00 00	 push	 OFFSET ??_C@_06CNKIADGI@ZtTeam?$AA@
  0043d	89 86 18 02 00
	00		 mov	 DWORD PTR [esi+536], eax
  00443	ff d7		 call	 edi

; 114  : 
; 115  : 	this->QTOP_BonusChaosBank = GetPrivateProfileInt("ZtTeam", "QTOP_BonusChaosBank", 0, VOTER_DIR);

  00445	68 00 00 00 00	 push	 OFFSET ??_C@_0BJ@HBNPCLMO@?4?4?2Data?2ZtData?2Voter?4ini?$AA@
  0044a	6a 00		 push	 0
  0044c	68 00 00 00 00	 push	 OFFSET ??_C@_0BE@DLNJFPID@QTOP_BonusChaosBank?$AA@
  00451	68 00 00 00 00	 push	 OFFSET ??_C@_06CNKIADGI@ZtTeam?$AA@
  00456	89 86 1c 02 00
	00		 mov	 DWORD PTR [esi+540], eax
  0045c	ff d7		 call	 edi

; 116  : 	this->QTOP_BonusBlessBank = GetPrivateProfileInt("ZtTeam", "QTOP_BonusBlessBank", 0, VOTER_DIR);

  0045e	68 00 00 00 00	 push	 OFFSET ??_C@_0BJ@HBNPCLMO@?4?4?2Data?2ZtData?2Voter?4ini?$AA@
  00463	6a 00		 push	 0
  00465	68 00 00 00 00	 push	 OFFSET ??_C@_0BE@KNMDJNPB@QTOP_BonusBlessBank?$AA@
  0046a	68 00 00 00 00	 push	 OFFSET ??_C@_06CNKIADGI@ZtTeam?$AA@
  0046f	89 86 20 02 00
	00		 mov	 DWORD PTR [esi+544], eax
  00475	ff d7		 call	 edi

; 117  : 	this->QTOP_BonusSoulBank = GetPrivateProfileInt("ZtTeam", "QTOP_BonusSoulBank", 0, VOTER_DIR);

  00477	68 00 00 00 00	 push	 OFFSET ??_C@_0BJ@HBNPCLMO@?4?4?2Data?2ZtData?2Voter?4ini?$AA@
  0047c	6a 00		 push	 0
  0047e	68 00 00 00 00	 push	 OFFSET ??_C@_0BD@IGPCFAHF@QTOP_BonusSoulBank?$AA@
  00483	68 00 00 00 00	 push	 OFFSET ??_C@_06CNKIADGI@ZtTeam?$AA@
  00488	89 86 24 02 00
	00		 mov	 DWORD PTR [esi+548], eax
  0048e	ff d7		 call	 edi

; 118  : 	this->QTOP_BonusLifeBank = GetPrivateProfileInt("ZtTeam", "QTOP_BonusLifeBank", 0, VOTER_DIR);

  00490	68 00 00 00 00	 push	 OFFSET ??_C@_0BJ@HBNPCLMO@?4?4?2Data?2ZtData?2Voter?4ini?$AA@
  00495	6a 00		 push	 0
  00497	68 00 00 00 00	 push	 OFFSET ??_C@_0BD@ECNNADMJ@QTOP_BonusLifeBank?$AA@
  0049c	68 00 00 00 00	 push	 OFFSET ??_C@_06CNKIADGI@ZtTeam?$AA@
  004a1	89 86 28 02 00
	00		 mov	 DWORD PTR [esi+552], eax
  004a7	ff d7		 call	 edi

; 119  : 
; 120  : 	this->QTOP_SMSBonusWcoinC = GetPrivateProfileInt("ZtTeam", "QTOP_SMSBonusWcoinC", 0, VOTER_DIR);

  004a9	68 00 00 00 00	 push	 OFFSET ??_C@_0BJ@HBNPCLMO@?4?4?2Data?2ZtData?2Voter?4ini?$AA@
  004ae	6a 00		 push	 0
  004b0	68 00 00 00 00	 push	 OFFSET ??_C@_0BE@IOBCDMMJ@QTOP_SMSBonusWcoinC?$AA@
  004b5	68 00 00 00 00	 push	 OFFSET ??_C@_06CNKIADGI@ZtTeam?$AA@
  004ba	89 86 2c 02 00
	00		 mov	 DWORD PTR [esi+556], eax
  004c0	ff d7		 call	 edi

; 121  : 	this->QTOP_SMSBonusWcoinP = GetPrivateProfileInt("ZtTeam", "QTOP_SMSBonusWcoinP", 0, VOTER_DIR);

  004c2	68 00 00 00 00	 push	 OFFSET ??_C@_0BJ@HBNPCLMO@?4?4?2Data?2ZtData?2Voter?4ini?$AA@
  004c7	6a 00		 push	 0
  004c9	68 00 00 00 00	 push	 OFFSET ??_C@_0BE@OPPNHNFL@QTOP_SMSBonusWcoinP?$AA@
  004ce	68 00 00 00 00	 push	 OFFSET ??_C@_06CNKIADGI@ZtTeam?$AA@
  004d3	89 86 30 02 00
	00		 mov	 DWORD PTR [esi+560], eax
  004d9	ff d7		 call	 edi

; 122  : 	this->QTOP_SMSBonusWcoinG = GetPrivateProfileInt("ZtTeam", "QTOP_SMSBonusWcoinG", 0, VOTER_DIR);

  004db	68 00 00 00 00	 push	 OFFSET ??_C@_0BJ@HBNPCLMO@?4?4?2Data?2ZtData?2Voter?4ini?$AA@
  004e0	6a 00		 push	 0
  004e2	68 00 00 00 00	 push	 OFFSET ??_C@_0BE@OKHOPJMN@QTOP_SMSBonusWcoinG?$AA@
  004e7	68 00 00 00 00	 push	 OFFSET ??_C@_06CNKIADGI@ZtTeam?$AA@
  004ec	89 86 34 02 00
	00		 mov	 DWORD PTR [esi+564], eax
  004f2	ff d7		 call	 edi

; 123  : 	this->QTOP_SMSBonusZtCred = GetPrivateProfileInt("ZtTeam", "QTOP_SMSBonusZtCred", 0, VOTER_DIR);

  004f4	68 00 00 00 00	 push	 OFFSET ??_C@_0BJ@HBNPCLMO@?4?4?2Data?2ZtData?2Voter?4ini?$AA@
  004f9	6a 00		 push	 0
  004fb	68 00 00 00 00	 push	 OFFSET ??_C@_0BE@KEKPCADF@QTOP_SMSBonusZtCred?$AA@
  00500	68 00 00 00 00	 push	 OFFSET ??_C@_06CNKIADGI@ZtTeam?$AA@
  00505	89 86 38 02 00
	00		 mov	 DWORD PTR [esi+568], eax
  0050b	ff d7		 call	 edi

; 124  : 
; 125  : 	this->QTOP_SMSBonusItemActive = GetPrivateProfileInt("ZtTeam", "QTOP_SMSBonusItemActive", 0, VOTER_DIR);

  0050d	68 00 00 00 00	 push	 OFFSET ??_C@_0BJ@HBNPCLMO@?4?4?2Data?2ZtData?2Voter?4ini?$AA@
  00512	89 86 3c 02 00
	00		 mov	 DWORD PTR [esi+572], eax
  00518	6a 00		 push	 0
  0051a	68 00 00 00 00	 push	 OFFSET ??_C@_0BI@EAIFKLHB@QTOP_SMSBonusItemActive?$AA@
  0051f	68 00 00 00 00	 push	 OFFSET ??_C@_06CNKIADGI@ZtTeam?$AA@
  00524	ff d7		 call	 edi

; 126  : 	this->QTOP_SMSBonusItemType = GetPrivateProfileInt("ZtTeam", "QTOP_SMSBonusItemType", 0, VOTER_DIR);

  00526	68 00 00 00 00	 push	 OFFSET ??_C@_0BJ@HBNPCLMO@?4?4?2Data?2ZtData?2Voter?4ini?$AA@
  0052b	6a 00		 push	 0
  0052d	68 00 00 00 00	 push	 OFFSET ??_C@_0BG@CALGGNEL@QTOP_SMSBonusItemType?$AA@
  00532	68 00 00 00 00	 push	 OFFSET ??_C@_06CNKIADGI@ZtTeam?$AA@
  00537	89 86 40 02 00
	00		 mov	 DWORD PTR [esi+576], eax
  0053d	ff d7		 call	 edi

; 127  : 	this->QTOP_SMSBonusItemIndex = GetPrivateProfileInt("ZtTeam", "QTOP_SMSBonusItemIndex", 0, VOTER_DIR);

  0053f	68 00 00 00 00	 push	 OFFSET ??_C@_0BJ@HBNPCLMO@?4?4?2Data?2ZtData?2Voter?4ini?$AA@
  00544	6a 00		 push	 0
  00546	68 00 00 00 00	 push	 OFFSET ??_C@_0BH@LEDLEHJE@QTOP_SMSBonusItemIndex?$AA@
  0054b	68 00 00 00 00	 push	 OFFSET ??_C@_06CNKIADGI@ZtTeam?$AA@
  00550	89 86 44 02 00
	00		 mov	 DWORD PTR [esi+580], eax
  00556	ff d7		 call	 edi

; 128  : 	this->QTOP_SMSBonusItemLevel = GetPrivateProfileInt("ZtTeam", "QTOP_SMSBonusItemLevel", 0, VOTER_DIR);

  00558	68 00 00 00 00	 push	 OFFSET ??_C@_0BJ@HBNPCLMO@?4?4?2Data?2ZtData?2Voter?4ini?$AA@
  0055d	6a 00		 push	 0
  0055f	68 00 00 00 00	 push	 OFFSET ??_C@_0BH@EHJIKPHH@QTOP_SMSBonusItemLevel?$AA@
  00564	68 00 00 00 00	 push	 OFFSET ??_C@_06CNKIADGI@ZtTeam?$AA@
  00569	89 86 48 02 00
	00		 mov	 DWORD PTR [esi+584], eax
  0056f	ff d7		 call	 edi

; 129  : 
; 130  : 	this->QTOP_SMSBonusChaosBank = GetPrivateProfileInt("ZtTeam", "QTOP_SMSBonusChaosBank", 0, VOTER_DIR);

  00571	68 00 00 00 00	 push	 OFFSET ??_C@_0BJ@HBNPCLMO@?4?4?2Data?2ZtData?2Voter?4ini?$AA@
  00576	6a 00		 push	 0
  00578	68 00 00 00 00	 push	 OFFSET ??_C@_0BH@BIMMBGE@QTOP_SMSBonusChaosBank?$AA@
  0057d	68 00 00 00 00	 push	 OFFSET ??_C@_06CNKIADGI@ZtTeam?$AA@
  00582	89 86 4c 02 00
	00		 mov	 DWORD PTR [esi+588], eax
  00588	ff d7		 call	 edi

; 131  : 	this->QTOP_SMSBonusBlessBank = GetPrivateProfileInt("ZtTeam", "QTOP_SMSBonusBlessBank", 0, VOTER_DIR);

  0058a	68 00 00 00 00	 push	 OFFSET ??_C@_0BJ@HBNPCLMO@?4?4?2Data?2ZtData?2Voter?4ini?$AA@
  0058f	6a 00		 push	 0
  00591	68 00 00 00 00	 push	 OFFSET ??_C@_0BH@JHJGADBG@QTOP_SMSBonusBlessBank?$AA@
  00596	68 00 00 00 00	 push	 OFFSET ??_C@_06CNKIADGI@ZtTeam?$AA@
  0059b	89 86 50 02 00
	00		 mov	 DWORD PTR [esi+592], eax
  005a1	ff d7		 call	 edi

; 132  : 	this->QTOP_SMSBonusSoulBank = GetPrivateProfileInt("ZtTeam", "QTOP_SMSBonusSoulBank", 0, VOTER_DIR);

  005a3	68 00 00 00 00	 push	 OFFSET ??_C@_0BJ@HBNPCLMO@?4?4?2Data?2ZtData?2Voter?4ini?$AA@
  005a8	6a 00		 push	 0
  005aa	68 00 00 00 00	 push	 OFFSET ??_C@_0BG@GGDNHJBE@QTOP_SMSBonusSoulBank?$AA@
  005af	68 00 00 00 00	 push	 OFFSET ??_C@_06CNKIADGI@ZtTeam?$AA@
  005b4	89 86 54 02 00
	00		 mov	 DWORD PTR [esi+596], eax
  005ba	ff d7		 call	 edi

; 133  : 	this->QTOP_SMSBonusLifeBank = GetPrivateProfileInt("ZtTeam", "QTOP_SMSBonusLifeBank", 0, VOTER_DIR);

  005bc	68 00 00 00 00	 push	 OFFSET ??_C@_0BJ@HBNPCLMO@?4?4?2Data?2ZtData?2Voter?4ini?$AA@
  005c1	6a 00		 push	 0
  005c3	68 00 00 00 00	 push	 OFFSET ??_C@_0BG@KCBCCKKI@QTOP_SMSBonusLifeBank?$AA@
  005c8	68 00 00 00 00	 push	 OFFSET ??_C@_06CNKIADGI@ZtTeam?$AA@
  005cd	89 86 58 02 00
	00		 mov	 DWORD PTR [esi+600], eax
  005d3	ff d7		 call	 edi

; 134  : 
; 135  : 	// ----
; 136  : 
; 137  : 	this->MMOTOP_BuffTime = GetPrivateProfileInt("ZtTeam", "MMOTOP_BuffTime", 0, VOTER_DIR);

  005d5	68 00 00 00 00	 push	 OFFSET ??_C@_0BJ@HBNPCLMO@?4?4?2Data?2ZtData?2Voter?4ini?$AA@
  005da	6a 00		 push	 0
  005dc	68 00 00 00 00	 push	 OFFSET ??_C@_0BA@FPOKAIAG@MMOTOP_BuffTime?$AA@
  005e1	68 00 00 00 00	 push	 OFFSET ??_C@_06CNKIADGI@ZtTeam?$AA@
  005e6	89 86 5c 02 00
	00		 mov	 DWORD PTR [esi+604], eax
  005ec	ff d7		 call	 edi

; 138  : 	this->MMOTOP_SMSBuffTime = GetPrivateProfileInt("ZtTeam", "MMOTOP_SMSBuffTime", 0, VOTER_DIR);

  005ee	68 00 00 00 00	 push	 OFFSET ??_C@_0BJ@HBNPCLMO@?4?4?2Data?2ZtData?2Voter?4ini?$AA@
  005f3	6a 00		 push	 0
  005f5	68 00 00 00 00	 push	 OFFSET ??_C@_0BD@PDOBGAFG@MMOTOP_SMSBuffTime?$AA@
  005fa	68 00 00 00 00	 push	 OFFSET ??_C@_06CNKIADGI@ZtTeam?$AA@
  005ff	89 86 60 02 00
	00		 mov	 DWORD PTR [esi+608], eax
  00605	ff d7		 call	 edi

; 139  : 	this->QTOP_BuffTime = GetPrivateProfileInt("ZtTeam", "QTOP_BuffTime", 0, VOTER_DIR);

  00607	68 00 00 00 00	 push	 OFFSET ??_C@_0BJ@HBNPCLMO@?4?4?2Data?2ZtData?2Voter?4ini?$AA@
  0060c	6a 00		 push	 0
  0060e	68 00 00 00 00	 push	 OFFSET ??_C@_0O@NOACOOKK@QTOP_BuffTime?$AA@
  00613	68 00 00 00 00	 push	 OFFSET ??_C@_06CNKIADGI@ZtTeam?$AA@
  00618	89 86 64 02 00
	00		 mov	 DWORD PTR [esi+612], eax
  0061e	ff d7		 call	 edi

; 140  : 	this->QTOP_SMSBuffTime = GetPrivateProfileInt("ZtTeam", "QTOP_SMSBuffTime", 0, VOTER_DIR);

  00620	68 00 00 00 00	 push	 OFFSET ??_C@_0BJ@HBNPCLMO@?4?4?2Data?2ZtData?2Voter?4ini?$AA@
  00625	6a 00		 push	 0
  00627	68 00 00 00 00	 push	 OFFSET ??_C@_0BB@IFHGPKPD@QTOP_SMSBuffTime?$AA@
  0062c	68 00 00 00 00	 push	 OFFSET ??_C@_06CNKIADGI@ZtTeam?$AA@
  00631	89 86 68 02 00
	00		 mov	 DWORD PTR [esi+616], eax
  00637	ff d7		 call	 edi

; 141  : 
; 142  : 
; 143  : 
; 144  : 
; 145  : 	#if(ENABLE_GAMESERVER_DLL)
; 146  : 
; 147  : 	this->ANONS_Enable = GetPrivateProfileInt("ZtTeam","ANONS_Enable",0,VOTER_DIR);

  00639	68 00 00 00 00	 push	 OFFSET ??_C@_0BJ@HBNPCLMO@?4?4?2Data?2ZtData?2Voter?4ini?$AA@
  0063e	6a 00		 push	 0
  00640	68 00 00 00 00	 push	 OFFSET ??_C@_0N@DCPCLHJ@ANONS_Enable?$AA@
  00645	68 00 00 00 00	 push	 OFFSET ??_C@_06CNKIADGI@ZtTeam?$AA@
  0064a	89 86 6c 02 00
	00		 mov	 DWORD PTR [esi+620], eax
  00650	ff d7		 call	 edi

; 148  : 	// ----
; 149  : 
; 150  : 	this->ANONS_DeleteVoteFile = GetPrivateProfileInt("ZtTeam", "ANONS_DeleteVoteFile", 1, VOTER_DIR);

  00652	68 00 00 00 00	 push	 OFFSET ??_C@_0BJ@HBNPCLMO@?4?4?2Data?2ZtData?2Voter?4ini?$AA@
  00657	85 c0		 test	 eax, eax
  00659	0f 95 c2	 setne	 dl
  0065c	6a 01		 push	 1
  0065e	88 96 70 02 00
	00		 mov	 BYTE PTR [esi+624], dl
  00664	68 00 00 00 00	 push	 OFFSET ??_C@_0BF@JOPKDOGI@ANONS_DeleteVoteFile?$AA@
  00669	68 00 00 00 00	 push	 OFFSET ??_C@_06CNKIADGI@ZtTeam?$AA@
  0066e	ff d7		 call	 edi

; 151  : 	this->ANONS_DownloadFile = GetPrivateProfileInt("ZtTeam", "ANONS_DownloadFile", 1, VOTER_DIR);

  00670	68 00 00 00 00	 push	 OFFSET ??_C@_0BJ@HBNPCLMO@?4?4?2Data?2ZtData?2Voter?4ini?$AA@
  00675	6a 01		 push	 1
  00677	85 c0		 test	 eax, eax
  00679	68 00 00 00 00	 push	 OFFSET ??_C@_0BD@JNNJJGNC@ANONS_DownloadFile?$AA@
  0067e	0f 95 c0	 setne	 al
  00681	68 00 00 00 00	 push	 OFFSET ??_C@_06CNKIADGI@ZtTeam?$AA@
  00686	88 86 71 02 00
	00		 mov	 BYTE PTR [esi+625], al
  0068c	ff d7		 call	 edi

; 152  : 
; 153  : 	this->ANONS_UPDATE_VOTER = GetPrivateProfileInt("ZtTeam", "ANONS_UPDATE_VOTER", 2, VOTER_DIR);

  0068e	68 00 00 00 00	 push	 OFFSET ??_C@_0BJ@HBNPCLMO@?4?4?2Data?2ZtData?2Voter?4ini?$AA@
  00693	6a 02		 push	 2
  00695	85 c0		 test	 eax, eax
  00697	68 00 00 00 00	 push	 OFFSET ??_C@_0BD@HJFAMOBD@ANONS_UPDATE_VOTER?$AA@
  0069c	0f 95 c1	 setne	 cl
  0069f	68 00 00 00 00	 push	 OFFSET ??_C@_06CNKIADGI@ZtTeam?$AA@
  006a4	88 8e 72 02 00
	00		 mov	 BYTE PTR [esi+626], cl
  006aa	ff d7		 call	 edi

; 154  : 
; 155  : 	GetPrivateProfileString("ZtTeam", "ANONS_VoteFile", "votes/aba02abed8021ba31a4499a390aa8afa4679c6d1.txt?454b02beba57cfd5896709ff1ea8f1aa", this->ANONS_FileName, sizeof(this->ANONS_FileName), VOTER_DIR);

  006ac	68 00 00 00 00	 push	 OFFSET ??_C@_0BJ@HBNPCLMO@?4?4?2Data?2ZtData?2Voter?4ini?$AA@
  006b1	68 c8 00 00 00	 push	 200			; 000000c8H
  006b6	8d 96 78 02 00
	00		 lea	 edx, DWORD PTR [esi+632]
  006bc	52		 push	 edx
  006bd	68 00 00 00 00	 push	 OFFSET ??_C@_0FE@DBCBBMPJ@votes?1aba02abed8021ba31a4499a390@
  006c2	68 00 00 00 00	 push	 OFFSET ??_C@_0P@LLKFOAJA@ANONS_VoteFile?$AA@
  006c7	68 00 00 00 00	 push	 OFFSET ??_C@_06CNKIADGI@ZtTeam?$AA@
  006cc	89 86 74 02 00
	00		 mov	 DWORD PTR [esi+628], eax
  006d2	ff d3		 call	 ebx

; 156  : 
; 157  : 	this->ANONS_BonusWcoinC = GetPrivateProfileInt("ZtTeam", "ANONS_BonusWcoinC", 0, VOTER_DIR);

  006d4	68 00 00 00 00	 push	 OFFSET ??_C@_0BJ@HBNPCLMO@?4?4?2Data?2ZtData?2Voter?4ini?$AA@
  006d9	6a 00		 push	 0
  006db	68 00 00 00 00	 push	 OFFSET ??_C@_0BC@MHCHPCBE@ANONS_BonusWcoinC?$AA@
  006e0	68 00 00 00 00	 push	 OFFSET ??_C@_06CNKIADGI@ZtTeam?$AA@
  006e5	ff d7		 call	 edi

; 158  : 	this->ANONS_BonusWcoinP = GetPrivateProfileInt("ZtTeam", "ANONS_BonusWcoinP", 0, VOTER_DIR);

  006e7	68 00 00 00 00	 push	 OFFSET ??_C@_0BJ@HBNPCLMO@?4?4?2Data?2ZtData?2Voter?4ini?$AA@
  006ec	6a 00		 push	 0
  006ee	68 00 00 00 00	 push	 OFFSET ??_C@_0BC@KGMILDIG@ANONS_BonusWcoinP?$AA@
  006f3	68 00 00 00 00	 push	 OFFSET ??_C@_06CNKIADGI@ZtTeam?$AA@
  006f8	89 86 40 03 00
	00		 mov	 DWORD PTR [esi+832], eax
  006fe	ff d7		 call	 edi

; 159  : 	this->ANONS_BonusWcoinG = GetPrivateProfileInt("ZtTeam", "ANONS_BonusWcoinG", 0, VOTER_DIR);

  00700	68 00 00 00 00	 push	 OFFSET ??_C@_0BJ@HBNPCLMO@?4?4?2Data?2ZtData?2Voter?4ini?$AA@
  00705	6a 00		 push	 0
  00707	68 00 00 00 00	 push	 OFFSET ??_C@_0BC@KDELDHBA@ANONS_BonusWcoinG?$AA@
  0070c	68 00 00 00 00	 push	 OFFSET ??_C@_06CNKIADGI@ZtTeam?$AA@
  00711	89 86 44 03 00
	00		 mov	 DWORD PTR [esi+836], eax
  00717	ff d7		 call	 edi

; 160  : 	this->ANONS_BonusZtCred = GetPrivateProfileInt("ZtTeam", "ANONS_BonusZtCred", 0, VOTER_DIR);

  00719	68 00 00 00 00	 push	 OFFSET ??_C@_0BJ@HBNPCLMO@?4?4?2Data?2ZtData?2Voter?4ini?$AA@
  0071e	6a 00		 push	 0
  00720	68 00 00 00 00	 push	 OFFSET ??_C@_0BC@ONJKOOOI@ANONS_BonusZtCred?$AA@
  00725	68 00 00 00 00	 push	 OFFSET ??_C@_06CNKIADGI@ZtTeam?$AA@
  0072a	89 86 48 03 00
	00		 mov	 DWORD PTR [esi+840], eax
  00730	ff d7		 call	 edi

; 161  : 
; 162  : 	this->ANONS_BonusItemActive = GetPrivateProfileInt("ZtTeam", "ANONS_BonusItemActive", 0, VOTER_DIR);

  00732	68 00 00 00 00	 push	 OFFSET ??_C@_0BJ@HBNPCLMO@?4?4?2Data?2ZtData?2Voter?4ini?$AA@
  00737	6a 00		 push	 0
  00739	68 00 00 00 00	 push	 OFFSET ??_C@_0BG@KCLLEKPN@ANONS_BonusItemActive?$AA@
  0073e	68 00 00 00 00	 push	 OFFSET ??_C@_06CNKIADGI@ZtTeam?$AA@
  00743	89 86 4c 03 00
	00		 mov	 DWORD PTR [esi+844], eax
  00749	ff d7		 call	 edi

; 163  : 	this->ANONS_BonusItemType = GetPrivateProfileInt("ZtTeam", "ANONS_BonusItemType", 0, VOTER_DIR);

  0074b	68 00 00 00 00	 push	 OFFSET ??_C@_0BJ@HBNPCLMO@?4?4?2Data?2ZtData?2Voter?4ini?$AA@
  00750	6a 00		 push	 0
  00752	68 00 00 00 00	 push	 OFFSET ??_C@_0BE@GIPMHAJL@ANONS_BonusItemType?$AA@
  00757	68 00 00 00 00	 push	 OFFSET ??_C@_06CNKIADGI@ZtTeam?$AA@
  0075c	89 86 50 03 00
	00		 mov	 DWORD PTR [esi+848], eax
  00762	ff d7		 call	 edi

; 164  : 	this->ANONS_BonusItemIndex = GetPrivateProfileInt("ZtTeam", "ANONS_BonusItemIndex", 0, VOTER_DIR);

  00764	68 00 00 00 00	 push	 OFFSET ??_C@_0BJ@HBNPCLMO@?4?4?2Data?2ZtData?2Voter?4ini?$AA@
  00769	6a 00		 push	 0
  0076b	68 00 00 00 00	 push	 OFFSET ??_C@_0BF@DCKANPFN@ANONS_BonusItemIndex?$AA@
  00770	68 00 00 00 00	 push	 OFFSET ??_C@_06CNKIADGI@ZtTeam?$AA@
  00775	89 86 54 03 00
	00		 mov	 DWORD PTR [esi+852], eax
  0077b	ff d7		 call	 edi

; 165  : 	this->ANONS_BonusItemLevel = GetPrivateProfileInt("ZtTeam", "ANONS_BonusItemLevel", 0, VOTER_DIR);

  0077d	68 00 00 00 00	 push	 OFFSET ??_C@_0BJ@HBNPCLMO@?4?4?2Data?2ZtData?2Voter?4ini?$AA@
  00782	6a 00		 push	 0
  00784	68 00 00 00 00	 push	 OFFSET ??_C@_0BF@MBADDHLO@ANONS_BonusItemLevel?$AA@
  00789	68 00 00 00 00	 push	 OFFSET ??_C@_06CNKIADGI@ZtTeam?$AA@
  0078e	89 86 58 03 00
	00		 mov	 DWORD PTR [esi+856], eax
  00794	ff d7		 call	 edi

; 166  : 
; 167  : 	this->ANONS_BonusChaosBank = GetPrivateProfileInt("ZtTeam", "ANONS_BonusChaosBank", 0, VOTER_DIR);

  00796	68 00 00 00 00	 push	 OFFSET ??_C@_0BJ@HBNPCLMO@?4?4?2Data?2ZtData?2Voter?4ini?$AA@
  0079b	6a 00		 push	 0
  0079d	68 00 00 00 00	 push	 OFFSET ??_C@_0BF@IHBHFJKN@ANONS_BonusChaosBank?$AA@
  007a2	68 00 00 00 00	 push	 OFFSET ??_C@_06CNKIADGI@ZtTeam?$AA@
  007a7	89 86 5c 03 00
	00		 mov	 DWORD PTR [esi+860], eax
  007ad	ff d7		 call	 edi
  007af	89 86 60 03 00
	00		 mov	 DWORD PTR [esi+864], eax

; 168  : 	this->ANONS_BonusBlessBank = GetPrivateProfileInt("ZtTeam", "ANONS_BonusBlessBank", 0, VOTER_DIR);

  007b5	68 00 00 00 00	 push	 OFFSET ??_C@_0BJ@HBNPCLMO@?4?4?2Data?2ZtData?2Voter?4ini?$AA@
  007ba	6a 00		 push	 0
  007bc	68 00 00 00 00	 push	 OFFSET ??_C@_0BF@BBANJLNP@ANONS_BonusBlessBank?$AA@
  007c1	68 00 00 00 00	 push	 OFFSET ??_C@_06CNKIADGI@ZtTeam?$AA@
  007c6	ff d7		 call	 edi

; 169  : 	this->ANONS_BonusSoulBank = GetPrivateProfileInt("ZtTeam", "ANONS_BonusSoulBank", 0, VOTER_DIR);

  007c8	68 00 00 00 00	 push	 OFFSET ??_C@_0BJ@HBNPCLMO@?4?4?2Data?2ZtData?2Voter?4ini?$AA@
  007cd	6a 00		 push	 0
  007cf	68 00 00 00 00	 push	 OFFSET ??_C@_0BE@COHHGEME@ANONS_BonusSoulBank?$AA@
  007d4	68 00 00 00 00	 push	 OFFSET ??_C@_06CNKIADGI@ZtTeam?$AA@
  007d9	89 86 64 03 00
	00		 mov	 DWORD PTR [esi+868], eax
  007df	ff d7		 call	 edi

; 170  : 	this->ANONS_BonusLifeBank = GetPrivateProfileInt("ZtTeam", "ANONS_BonusLifeBank", 0, VOTER_DIR);

  007e1	68 00 00 00 00	 push	 OFFSET ??_C@_0BJ@HBNPCLMO@?4?4?2Data?2ZtData?2Voter?4ini?$AA@
  007e6	6a 00		 push	 0
  007e8	68 00 00 00 00	 push	 OFFSET ??_C@_0BE@OKFIDHHI@ANONS_BonusLifeBank?$AA@
  007ed	68 00 00 00 00	 push	 OFFSET ??_C@_06CNKIADGI@ZtTeam?$AA@
  007f2	89 86 68 03 00
	00		 mov	 DWORD PTR [esi+872], eax
  007f8	ff d7		 call	 edi

; 171  : 
; 172  : 	this->ANONS_SMSBonusWcoinC = GetPrivateProfileInt("ZtTeam", "ANONS_SMSBonusWcoinC", 0, VOTER_DIR);

  007fa	68 00 00 00 00	 push	 OFFSET ??_C@_0BJ@HBNPCLMO@?4?4?2Data?2ZtData?2Voter?4ini?$AA@
  007ff	6a 00		 push	 0
  00801	68 00 00 00 00	 push	 OFFSET ??_C@_0BF@DCNMDKOH@ANONS_SMSBonusWcoinC?$AA@
  00806	68 00 00 00 00	 push	 OFFSET ??_C@_06CNKIADGI@ZtTeam?$AA@
  0080b	89 86 6c 03 00
	00		 mov	 DWORD PTR [esi+876], eax
  00811	ff d7		 call	 edi

; 173  : 	this->ANONS_SMSBonusWcoinP = GetPrivateProfileInt("ZtTeam", "ANONS_SMSBonusWcoinP", 0, VOTER_DIR);

  00813	68 00 00 00 00	 push	 OFFSET ??_C@_0BJ@HBNPCLMO@?4?4?2Data?2ZtData?2Voter?4ini?$AA@
  00818	6a 00		 push	 0
  0081a	68 00 00 00 00	 push	 OFFSET ??_C@_0BF@FDDDHLHF@ANONS_SMSBonusWcoinP?$AA@
  0081f	68 00 00 00 00	 push	 OFFSET ??_C@_06CNKIADGI@ZtTeam?$AA@
  00824	89 86 70 03 00
	00		 mov	 DWORD PTR [esi+880], eax
  0082a	ff d7		 call	 edi

; 174  : 	this->ANONS_SMSBonusWcoinG = GetPrivateProfileInt("ZtTeam", "ANONS_SMSBonusWcoinG", 0, VOTER_DIR);

  0082c	68 00 00 00 00	 push	 OFFSET ??_C@_0BJ@HBNPCLMO@?4?4?2Data?2ZtData?2Voter?4ini?$AA@
  00831	6a 00		 push	 0
  00833	68 00 00 00 00	 push	 OFFSET ??_C@_0BF@FGLAPPOD@ANONS_SMSBonusWcoinG?$AA@
  00838	68 00 00 00 00	 push	 OFFSET ??_C@_06CNKIADGI@ZtTeam?$AA@
  0083d	89 86 74 03 00
	00		 mov	 DWORD PTR [esi+884], eax
  00843	ff d7		 call	 edi

; 175  : 	this->ANONS_SMSBonusZtCred = GetPrivateProfileInt("ZtTeam", "ANONS_SMSBonusZtCred", 0, VOTER_DIR);

  00845	68 00 00 00 00	 push	 OFFSET ??_C@_0BJ@HBNPCLMO@?4?4?2Data?2ZtData?2Voter?4ini?$AA@
  0084a	6a 00		 push	 0
  0084c	68 00 00 00 00	 push	 OFFSET ??_C@_0BF@BIGBCGBL@ANONS_SMSBonusZtCred?$AA@
  00851	68 00 00 00 00	 push	 OFFSET ??_C@_06CNKIADGI@ZtTeam?$AA@
  00856	89 86 78 03 00
	00		 mov	 DWORD PTR [esi+888], eax
  0085c	ff d7		 call	 edi

; 176  : 
; 177  : 	this->ANONS_SMSBonusItemActive = GetPrivateProfileInt("ZtTeam", "ANONS_SMSBonusItemActive", 0, VOTER_DIR);

  0085e	68 00 00 00 00	 push	 OFFSET ??_C@_0BJ@HBNPCLMO@?4?4?2Data?2ZtData?2Voter?4ini?$AA@
  00863	6a 00		 push	 0
  00865	68 00 00 00 00	 push	 OFFSET ??_C@_0BJ@JDELAKKJ@ANONS_SMSBonusItemActive?$AA@
  0086a	68 00 00 00 00	 push	 OFFSET ??_C@_06CNKIADGI@ZtTeam?$AA@
  0086f	89 86 7c 03 00
	00		 mov	 DWORD PTR [esi+892], eax
  00875	ff d7		 call	 edi

; 178  : 	this->ANONS_SMSBonusItemType = GetPrivateProfileInt("ZtTeam", "ANONS_SMSBonusItemType", 0, VOTER_DIR);

  00877	68 00 00 00 00	 push	 OFFSET ??_C@_0BJ@HBNPCLMO@?4?4?2Data?2ZtData?2Voter?4ini?$AA@
  0087c	6a 00		 push	 0
  0087e	68 00 00 00 00	 push	 OFFSET ??_C@_0BH@MCNCHNJM@ANONS_SMSBonusItemType?$AA@
  00883	68 00 00 00 00	 push	 OFFSET ??_C@_06CNKIADGI@ZtTeam?$AA@
  00888	89 86 80 03 00
	00		 mov	 DWORD PTR [esi+896], eax
  0088e	ff d7		 call	 edi

; 179  : 	this->ANONS_SMSBonusItemIndex = GetPrivateProfileInt("ZtTeam", "ANONS_SMSBonusItemIndex", 0, VOTER_DIR);

  00890	68 00 00 00 00	 push	 OFFSET ??_C@_0BJ@HBNPCLMO@?4?4?2Data?2ZtData?2Voter?4ini?$AA@
  00895	6a 00		 push	 0
  00897	68 00 00 00 00	 push	 OFFSET ??_C@_0BI@KMGOGEPD@ANONS_SMSBonusItemIndex?$AA@
  0089c	68 00 00 00 00	 push	 OFFSET ??_C@_06CNKIADGI@ZtTeam?$AA@
  008a1	89 86 84 03 00
	00		 mov	 DWORD PTR [esi+900], eax
  008a7	ff d7		 call	 edi

; 180  : 	this->ANONS_SMSBonusItemLevel = GetPrivateProfileInt("ZtTeam", "ANONS_SMSBonusItemLevel", 0, VOTER_DIR);

  008a9	68 00 00 00 00	 push	 OFFSET ??_C@_0BJ@HBNPCLMO@?4?4?2Data?2ZtData?2Voter?4ini?$AA@
  008ae	6a 00		 push	 0
  008b0	68 00 00 00 00	 push	 OFFSET ??_C@_0BI@FPMNIMBA@ANONS_SMSBonusItemLevel?$AA@
  008b5	68 00 00 00 00	 push	 OFFSET ??_C@_06CNKIADGI@ZtTeam?$AA@
  008ba	89 86 88 03 00
	00		 mov	 DWORD PTR [esi+904], eax
  008c0	ff d7		 call	 edi

; 181  : 
; 182  : 	this->ANONS_SMSBonusChaosBank = GetPrivateProfileInt("ZtTeam", "ANONS_SMSBonusChaosBank", 0, VOTER_DIR);

  008c2	68 00 00 00 00	 push	 OFFSET ??_C@_0BJ@HBNPCLMO@?4?4?2Data?2ZtData?2Voter?4ini?$AA@
  008c7	6a 00		 push	 0
  008c9	68 00 00 00 00	 push	 OFFSET ??_C@_0BI@BJNJOCAD@ANONS_SMSBonusChaosBank?$AA@
  008ce	68 00 00 00 00	 push	 OFFSET ??_C@_06CNKIADGI@ZtTeam?$AA@
  008d3	89 86 8c 03 00
	00		 mov	 DWORD PTR [esi+908], eax
  008d9	ff d7		 call	 edi

; 183  : 	this->ANONS_SMSBonusBlessBank = GetPrivateProfileInt("ZtTeam", "ANONS_SMSBonusBlessBank", 0, VOTER_DIR);

  008db	68 00 00 00 00	 push	 OFFSET ??_C@_0BJ@HBNPCLMO@?4?4?2Data?2ZtData?2Voter?4ini?$AA@
  008e0	6a 00		 push	 0
  008e2	68 00 00 00 00	 push	 OFFSET ??_C@_0BI@IPMDCAHB@ANONS_SMSBonusBlessBank?$AA@
  008e7	68 00 00 00 00	 push	 OFFSET ??_C@_06CNKIADGI@ZtTeam?$AA@
  008ec	89 86 90 03 00
	00		 mov	 DWORD PTR [esi+912], eax
  008f2	ff d7		 call	 edi

; 184  : 	this->ANONS_SMSBonusSoulBank = GetPrivateProfileInt("ZtTeam", "ANONS_SMSBonusSoulBank", 0, VOTER_DIR);

  008f4	68 00 00 00 00	 push	 OFFSET ??_C@_0BJ@HBNPCLMO@?4?4?2Data?2ZtData?2Voter?4ini?$AA@
  008f9	6a 00		 push	 0
  008fb	89 86 94 03 00
	00		 mov	 DWORD PTR [esi+916], eax
  00901	68 00 00 00 00	 push	 OFFSET ??_C@_0BH@IEFJGJMD@ANONS_SMSBonusSoulBank?$AA@
  00906	68 00 00 00 00	 push	 OFFSET ??_C@_06CNKIADGI@ZtTeam?$AA@
  0090b	ff d7		 call	 edi

; 185  : 	this->ANONS_SMSBonusLifeBank = GetPrivateProfileInt("ZtTeam", "ANONS_SMSBonusLifeBank", 0, VOTER_DIR);

  0090d	68 00 00 00 00	 push	 OFFSET ??_C@_0BJ@HBNPCLMO@?4?4?2Data?2ZtData?2Voter?4ini?$AA@
  00912	6a 00		 push	 0
  00914	68 00 00 00 00	 push	 OFFSET ??_C@_0BH@EAHGDKHP@ANONS_SMSBonusLifeBank?$AA@
  00919	68 00 00 00 00	 push	 OFFSET ??_C@_06CNKIADGI@ZtTeam?$AA@
  0091e	89 86 98 03 00
	00		 mov	 DWORD PTR [esi+920], eax
  00924	ff d7		 call	 edi
  00926	5f		 pop	 edi
  00927	89 86 9c 03 00
	00		 mov	 DWORD PTR [esi+924], eax
  0092d	5e		 pop	 esi
  0092e	5b		 pop	 ebx

; 186  : 
; 187  : 	// ----
; 188  : 
; 189  : 	#endif
; 190  : }

  0092f	c3		 ret	 0
?Init@Voter@@QAEXXZ ENDP				; Voter::Init
_TEXT	ENDS
PUBLIC	?Run@Voter@@QAEXXZ				; Voter::Run
EXTRN	?gObjRemoveBuffEffect@@YAEPAUOBJECTSTRUCT@@H@Z:PROC ; gObjRemoveBuffEffect
; Function compile flags: /Ogtp
;	COMDAT ?Run@Voter@@QAEXXZ
_TEXT	SEGMENT
?Run@Voter@@QAEXXZ PROC					; Voter::Run, COMDAT
; _this$ = ecx

; 1504 : {

  00000	56		 push	 esi
  00001	57		 push	 edi

; 1505 : 	for (int n = OBJ_STARTUSERINDZT; n < OBJMAX; n++)

  00002	bf 00 a7 40 09	 mov	 edi, 155232000		; 0940a700H
  00007	eb 07 8d a4 24
	00 00 00 00	 npad	 9
$LL8@Run:

; 1506 : 	{
; 1507 : 		LPOBJ sObj = &gObj[n];

  00010	a1 00 00 00 00	 mov	 eax, DWORD PTR ?gObj@@3PAUOBJECTSTRUCT@@A ; gObj

; 1508 : 
; 1509 : 		if (gObj[n].Connected >= PLAYER_PLAYING)

  00015	83 7c 07 04 03	 cmp	 DWORD PTR [edi+eax+4], 3
  0001a	8d 34 07	 lea	 esi, DWORD PTR [edi+eax]
  0001d	7c 53		 jl	 SHORT $LN7@Run

; 1510 : 		{
; 1511 : 			if(sObj->MT_BuffTime > 0)

  0001f	8b 86 dc 2a 00
	00		 mov	 eax, DWORD PTR [esi+10972]
  00025	85 c0		 test	 eax, eax
  00027	7e 20		 jle	 SHORT $LN13@Run

; 1512 : 			{
; 1513 : 				sObj->MT_BuffTime--;

  00029	48		 dec	 eax
  0002a	89 86 dc 2a 00
	00		 mov	 DWORD PTR [esi+10972], eax

; 1514 : 
; 1515 : 				if(sObj->MT_BuffTime == 0)

  00030	75 17		 jne	 SHORT $LN13@Run

; 1516 : 				{
; 1517 : 					gObjRemoveBuffEffect(&gObj[n], AT_MMOTOP_BUFF);

  00032	8b 0d 00 00 00
	00		 mov	 ecx, DWORD PTR ?gObj@@3PAUOBJECTSTRUCT@@A ; gObj
  00038	8d 14 0f	 lea	 edx, DWORD PTR [edi+ecx]
  0003b	68 c2 00 00 00	 push	 194			; 000000c2H
  00040	52		 push	 edx
  00041	e8 00 00 00 00	 call	 ?gObjRemoveBuffEffect@@YAEPAUOBJECTSTRUCT@@H@Z ; gObjRemoveBuffEffect
  00046	83 c4 08	 add	 esp, 8
$LN13@Run:

; 1518 : 				}
; 1519 : 			}
; 1520 : 
; 1521 : 			if(sObj->QT_BuffTime > 0)

  00049	8b 86 e0 2a 00
	00		 mov	 eax, DWORD PTR [esi+10976]
  0004f	85 c0		 test	 eax, eax
  00051	7e 1f		 jle	 SHORT $LN7@Run

; 1522 : 			{
; 1523 : 				sObj->QT_BuffTime--;

  00053	48		 dec	 eax
  00054	89 86 e0 2a 00
	00		 mov	 DWORD PTR [esi+10976], eax

; 1524 : 
; 1525 : 				if(sObj->QT_BuffTime == 0)

  0005a	75 16		 jne	 SHORT $LN7@Run

; 1526 : 				{
; 1527 : 					gObjRemoveBuffEffect(&gObj[n], AT_QTOP_BUFF);

  0005c	a1 00 00 00 00	 mov	 eax, DWORD PTR ?gObj@@3PAUOBJECTSTRUCT@@A ; gObj
  00061	8d 0c 07	 lea	 ecx, DWORD PTR [edi+eax]
  00064	68 c3 00 00 00	 push	 195			; 000000c3H
  00069	51		 push	 ecx
  0006a	e8 00 00 00 00	 call	 ?gObjRemoveBuffEffect@@YAEPAUOBJECTSTRUCT@@H@Z ; gObjRemoveBuffEffect
  0006f	83 c4 08	 add	 esp, 8
$LN7@Run:

; 1505 : 	for (int n = OBJ_STARTUSERINDZT; n < OBJMAX; n++)

  00072	81 c7 50 2b 00
	00		 add	 edi, 11088		; 00002b50H
  00078	81 ff 80 d7 e9
	09		 cmp	 edi, 166320000		; 09e9d780H
  0007e	7c 90		 jl	 SHORT $LL8@Run

; 1528 : 				}
; 1529 : 			}
; 1530 : 		}
; 1531 : 	}
; 1532 : }

  00080	5f		 pop	 edi
  00081	5e		 pop	 esi
  00082	c3		 ret	 0
?Run@Voter@@QAEXXZ ENDP					; Voter::Run
_TEXT	ENDS
PUBLIC	?PlayerCalculator@Voter@@QAEXH@Z		; Voter::PlayerCalculator
; Function compile flags: /Ogtp
;	COMDAT ?PlayerCalculator@Voter@@QAEXH@Z
_TEXT	SEGMENT
_aIndex$ = 8						; size = 4
?PlayerCalculator@Voter@@QAEXH@Z PROC			; Voter::PlayerCalculator, COMDAT
; _this$ = ecx

; 1535 : {

  00000	55		 push	 ebp
  00001	8b ec		 mov	 ebp, esp

; 1536 : 	LPOBJ lpUser = &gObj[aIndex];

  00003	8b 4d 08	 mov	 ecx, DWORD PTR _aIndex$[ebp]
  00006	69 c9 50 2b 00
	00		 imul	 ecx, 11088		; 00002b50H
  0000c	03 0d 00 00 00
	00		 add	 ecx, DWORD PTR ?gObj@@3PAUOBJECTSTRUCT@@A ; gObj
  00012	56		 push	 esi

; 1537 : 
; 1538 : 	if(lpUser->MT_BuffTime > 0)

  00013	83 b9 dc 2a 00
	00 00		 cmp	 DWORD PTR [ecx+10972], 0
  0001a	0f 8e d8 00 00
	00		 jle	 $LN2@PlayerCalc

; 1539 : 	{
; 1540 : 		int iPlusDamagePercent = 10;
; 1541 : 		lpUser->m_AttackDamageMinRight	+= ( lpUser->m_AttackDamageMinRight * iPlusDamagePercent ) / 100;

  00020	8b b1 84 04 00
	00		 mov	 esi, DWORD PTR [ecx+1156]
  00026	8d 14 b6	 lea	 edx, DWORD PTR [esi+esi*4]
  00029	03 d2		 add	 edx, edx
  0002b	b8 1f 85 eb 51	 mov	 eax, 1374389535		; 51eb851fH
  00030	f7 ea		 imul	 edx
  00032	c1 fa 05	 sar	 edx, 5
  00035	8b c2		 mov	 eax, edx
  00037	c1 e8 1f	 shr	 eax, 31			; 0000001fH
  0003a	03 c2		 add	 eax, edx
  0003c	03 c6		 add	 eax, esi

; 1542 : 		lpUser->m_AttackDamageMaxRight	+= ( lpUser->m_AttackDamageMaxRight * iPlusDamagePercent ) / 100;

  0003e	8b b1 80 04 00
	00		 mov	 esi, DWORD PTR [ecx+1152]
  00044	89 81 84 04 00
	00		 mov	 DWORD PTR [ecx+1156], eax
  0004a	8d 14 b6	 lea	 edx, DWORD PTR [esi+esi*4]
  0004d	03 d2		 add	 edx, edx
  0004f	b8 1f 85 eb 51	 mov	 eax, 1374389535		; 51eb851fH
  00054	f7 ea		 imul	 edx
  00056	c1 fa 05	 sar	 edx, 5
  00059	8b c2		 mov	 eax, edx
  0005b	c1 e8 1f	 shr	 eax, 31			; 0000001fH
  0005e	03 c2		 add	 eax, edx
  00060	03 c6		 add	 eax, esi

; 1543 : 		lpUser->m_AttackDamageMinLeft	+= ( lpUser->m_AttackDamageMinLeft * iPlusDamagePercent ) / 100;

  00062	8b b1 7c 04 00
	00		 mov	 esi, DWORD PTR [ecx+1148]
  00068	89 81 80 04 00
	00		 mov	 DWORD PTR [ecx+1152], eax
  0006e	8d 14 b6	 lea	 edx, DWORD PTR [esi+esi*4]
  00071	03 d2		 add	 edx, edx
  00073	b8 1f 85 eb 51	 mov	 eax, 1374389535		; 51eb851fH
  00078	f7 ea		 imul	 edx
  0007a	c1 fa 05	 sar	 edx, 5
  0007d	8b c2		 mov	 eax, edx
  0007f	c1 e8 1f	 shr	 eax, 31			; 0000001fH
  00082	03 c2		 add	 eax, edx
  00084	03 c6		 add	 eax, esi

; 1544 : 		lpUser->m_AttackDamageMaxLeft	+= ( lpUser->m_AttackDamageMaxLeft * iPlusDamagePercent ) / 100;

  00086	8b b1 78 04 00
	00		 mov	 esi, DWORD PTR [ecx+1144]
  0008c	89 81 7c 04 00
	00		 mov	 DWORD PTR [ecx+1148], eax
  00092	8d 14 b6	 lea	 edx, DWORD PTR [esi+esi*4]
  00095	03 d2		 add	 edx, edx
  00097	b8 1f 85 eb 51	 mov	 eax, 1374389535		; 51eb851fH
  0009c	f7 ea		 imul	 edx
  0009e	c1 fa 05	 sar	 edx, 5
  000a1	8b c2		 mov	 eax, edx
  000a3	c1 e8 1f	 shr	 eax, 31			; 0000001fH
  000a6	03 c2		 add	 eax, edx
  000a8	03 c6		 add	 eax, esi

; 1545 : 		lpUser->m_MagicDamageMin		+= ( lpUser->m_MagicDamageMin * iPlusDamagePercent ) / 100;

  000aa	8b b1 68 04 00
	00		 mov	 esi, DWORD PTR [ecx+1128]
  000b0	89 81 78 04 00
	00		 mov	 DWORD PTR [ecx+1144], eax
  000b6	8d 14 b6	 lea	 edx, DWORD PTR [esi+esi*4]
  000b9	03 d2		 add	 edx, edx
  000bb	b8 1f 85 eb 51	 mov	 eax, 1374389535		; 51eb851fH
  000c0	f7 ea		 imul	 edx
  000c2	c1 fa 05	 sar	 edx, 5
  000c5	8b c2		 mov	 eax, edx
  000c7	c1 e8 1f	 shr	 eax, 31			; 0000001fH
  000ca	03 c2		 add	 eax, edx
  000cc	03 c6		 add	 eax, esi

; 1546 : 		lpUser->m_MagicDamageMax		+= ( lpUser->m_MagicDamageMax * iPlusDamagePercent ) / 100;

  000ce	8b b1 6c 04 00
	00		 mov	 esi, DWORD PTR [ecx+1132]
  000d4	89 81 68 04 00
	00		 mov	 DWORD PTR [ecx+1128], eax
  000da	8d 14 b6	 lea	 edx, DWORD PTR [esi+esi*4]
  000dd	03 d2		 add	 edx, edx
  000df	b8 1f 85 eb 51	 mov	 eax, 1374389535		; 51eb851fH
  000e4	f7 ea		 imul	 edx
  000e6	c1 fa 05	 sar	 edx, 5
  000e9	8b c2		 mov	 eax, edx
  000eb	c1 e8 1f	 shr	 eax, 31			; 0000001fH
  000ee	03 c2		 add	 eax, edx
  000f0	03 c6		 add	 eax, esi
  000f2	89 81 6c 04 00
	00		 mov	 DWORD PTR [ecx+1132], eax
$LN2@PlayerCalc:

; 1547 : 	}
; 1548 : 
; 1549 : 	if(lpUser->QT_BuffTime > 0)

  000f8	83 b9 e0 2a 00
	00 00		 cmp	 DWORD PTR [ecx+10976], 0
  000ff	7e 48		 jle	 SHORT $LN1@PlayerCalc

; 1550 : 	{
; 1551 : 		int iPlusDefencePercent = 10;
; 1552 : 		lpUser->m_Defense				+= ( lpUser->m_Defense * iPlusDefencePercent ) / 100;

  00101	8b b1 94 04 00
	00		 mov	 esi, DWORD PTR [ecx+1172]
  00107	8d 14 b6	 lea	 edx, DWORD PTR [esi+esi*4]
  0010a	03 d2		 add	 edx, edx
  0010c	b8 1f 85 eb 51	 mov	 eax, 1374389535		; 51eb851fH
  00111	f7 ea		 imul	 edx
  00113	c1 fa 05	 sar	 edx, 5
  00116	8b c2		 mov	 eax, edx
  00118	c1 e8 1f	 shr	 eax, 31			; 0000001fH
  0011b	03 c2		 add	 eax, edx
  0011d	03 c6		 add	 eax, esi

; 1553 : 		lpUser->m_MagicDefense			+= ( lpUser->m_MagicDefense * iPlusDefencePercent ) / 100;

  0011f	8b b1 98 04 00
	00		 mov	 esi, DWORD PTR [ecx+1176]
  00125	89 81 94 04 00
	00		 mov	 DWORD PTR [ecx+1172], eax
  0012b	8d 14 b6	 lea	 edx, DWORD PTR [esi+esi*4]
  0012e	03 d2		 add	 edx, edx
  00130	b8 1f 85 eb 51	 mov	 eax, 1374389535		; 51eb851fH
  00135	f7 ea		 imul	 edx
  00137	c1 fa 05	 sar	 edx, 5
  0013a	8b c2		 mov	 eax, edx
  0013c	c1 e8 1f	 shr	 eax, 31			; 0000001fH
  0013f	03 c2		 add	 eax, edx
  00141	03 c6		 add	 eax, esi
  00143	89 81 98 04 00
	00		 mov	 DWORD PTR [ecx+1176], eax
$LN1@PlayerCalc:
  00149	5e		 pop	 esi

; 1554 : 	}
; 1555 : }

  0014a	5d		 pop	 ebp
  0014b	c2 04 00	 ret	 4
?PlayerCalculator@Voter@@QAEXH@Z ENDP			; Voter::PlayerCalculator
_TEXT	ENDS
PUBLIC	?eback@?$basic_streambuf@DU?$char_traits@D@std@@@std@@IBEPADXZ ; std::basic_streambuf<char,std::char_traits<char> >::eback
; Function compile flags: /Ogtp
; File d:\program files (x86)\microsoft visual studio 10.0\vc\include\streambuf
;	COMDAT ?eback@?$basic_streambuf@DU?$char_traits@D@std@@@std@@IBEPADXZ
_TEXT	SEGMENT
?eback@?$basic_streambuf@DU?$char_traits@D@std@@@std@@IBEPADXZ PROC ; std::basic_streambuf<char,std::char_traits<char> >::eback, COMDAT
; _this$ = ecx

; 218  : 		return (*_IGfirst);

  00000	8b 41 10	 mov	 eax, DWORD PTR [ecx+16]
  00003	8b 00		 mov	 eax, DWORD PTR [eax]

; 219  : 		}

  00005	c3		 ret	 0
?eback@?$basic_streambuf@DU?$char_traits@D@std@@@std@@IBEPADXZ ENDP ; std::basic_streambuf<char,std::char_traits<char> >::eback
_TEXT	ENDS
PUBLIC	?is_open@?$basic_filebuf@DU?$char_traits@D@std@@@std@@QBE_NXZ ; std::basic_filebuf<char,std::char_traits<char> >::is_open
; Function compile flags: /Ogtp
; File d:\program files (x86)\microsoft visual studio 10.0\vc\include\fstream
;	COMDAT ?is_open@?$basic_filebuf@DU?$char_traits@D@std@@@std@@QBE_NXZ
_TEXT	SEGMENT
?is_open@?$basic_filebuf@DU?$char_traits@D@std@@@std@@QBE_NXZ PROC ; std::basic_filebuf<char,std::char_traits<char> >::is_open, COMDAT
; _this$ = ecx

; 212  : 		return (_Myfile != 0);

  00000	33 c0		 xor	 eax, eax
  00002	39 41 54	 cmp	 DWORD PTR [ecx+84], eax
  00005	0f 95 c0	 setne	 al

; 213  : 		}

  00008	c3		 ret	 0
?is_open@?$basic_filebuf@DU?$char_traits@D@std@@@std@@QBE_NXZ ENDP ; std::basic_filebuf<char,std::char_traits<char> >::is_open
_TEXT	ENDS
PUBLIC	?setg@?$basic_streambuf@DU?$char_traits@D@std@@@std@@IAEXPAD00@Z ; std::basic_streambuf<char,std::char_traits<char> >::setg
; Function compile flags: /Ogtp
; File d:\program files (x86)\microsoft visual studio 10.0\vc\include\streambuf
;	COMDAT ?setg@?$basic_streambuf@DU?$char_traits@D@std@@@std@@IAEXPAD00@Z
_TEXT	SEGMENT
__First$ = 8						; size = 4
__Next$ = 12						; size = 4
__Last$ = 16						; size = 4
?setg@?$basic_streambuf@DU?$char_traits@D@std@@@std@@IAEXPAD00@Z PROC ; std::basic_streambuf<char,std::char_traits<char> >::setg, COMDAT
; _this$ = ecx

; 248  : 		{	// set pointers for read buffer

  00000	55		 push	 ebp
  00001	8b ec		 mov	 ebp, esp

; 249  : 		*_IGfirst = _First;

  00003	8b 41 10	 mov	 eax, DWORD PTR [ecx+16]
  00006	8b 55 08	 mov	 edx, DWORD PTR __First$[ebp]
  00009	89 10		 mov	 DWORD PTR [eax], edx

; 250  : 		*_IGnext = _Next;

  0000b	8b 51 20	 mov	 edx, DWORD PTR [ecx+32]
  0000e	8b 45 0c	 mov	 eax, DWORD PTR __Next$[ebp]
  00011	89 02		 mov	 DWORD PTR [edx], eax

; 251  : 		*_IGcount = (int)(_Last - _Next);

  00013	8b 55 10	 mov	 edx, DWORD PTR __Last$[ebp]
  00016	2b d0		 sub	 edx, eax
  00018	8b 41 30	 mov	 eax, DWORD PTR [ecx+48]
  0001b	89 10		 mov	 DWORD PTR [eax], edx

; 252  : 		}

  0001d	5d		 pop	 ebp
  0001e	c2 0c 00	 ret	 12			; 0000000cH
?setg@?$basic_streambuf@DU?$char_traits@D@std@@@std@@IAEXPAD00@Z ENDP ; std::basic_streambuf<char,std::char_traits<char> >::setg
_TEXT	ENDS
PUBLIC	?_Init@?$basic_streambuf@DU?$char_traits@D@std@@@std@@IAEXPAPAD0PAH001@Z ; std::basic_streambuf<char,std::char_traits<char> >::_Init
; Function compile flags: /Ogtp
;	COMDAT ?_Init@?$basic_streambuf@DU?$char_traits@D@std@@@std@@IAEXPAPAD0PAH001@Z
_TEXT	SEGMENT
__Gf$ = 8						; size = 4
__Gn$ = 12						; size = 4
__Gc$ = 16						; size = 4
__Pf$ = 20						; size = 4
__Pn$ = 24						; size = 4
__Pc$ = 28						; size = 4
?_Init@?$basic_streambuf@DU?$char_traits@D@std@@@std@@IAEXPAPAD0PAH001@Z PROC ; std::basic_streambuf<char,std::char_traits<char> >::_Init, COMDAT
; _this$ = ecx

; 327  : 		{	// initialize buffer parameters as specified

  00000	55		 push	 ebp
  00001	8b ec		 mov	 ebp, esp

; 328  : 		_IGfirst = _Gf;

  00003	8b 45 08	 mov	 eax, DWORD PTR __Gf$[ebp]

; 329  : 		_IPfirst = _Pf;

  00006	8b 55 14	 mov	 edx, DWORD PTR __Pf$[ebp]
  00009	89 41 10	 mov	 DWORD PTR [ecx+16], eax

; 330  : 		_IGnext = _Gn;

  0000c	8b 45 0c	 mov	 eax, DWORD PTR __Gn$[ebp]
  0000f	89 51 14	 mov	 DWORD PTR [ecx+20], edx

; 331  : 		_IPnext = _Pn;

  00012	8b 55 18	 mov	 edx, DWORD PTR __Pn$[ebp]
  00015	89 41 20	 mov	 DWORD PTR [ecx+32], eax

; 332  : 		_IGcount = _Gc;

  00018	8b 45 10	 mov	 eax, DWORD PTR __Gc$[ebp]
  0001b	89 51 24	 mov	 DWORD PTR [ecx+36], edx

; 333  : 		_IPcount = _Pc;

  0001e	8b 55 1c	 mov	 edx, DWORD PTR __Pc$[ebp]
  00021	89 41 30	 mov	 DWORD PTR [ecx+48], eax
  00024	89 51 34	 mov	 DWORD PTR [ecx+52], edx

; 334  : 		}

  00027	5d		 pop	 ebp
  00028	c2 18 00	 ret	 24			; 00000018H
?_Init@?$basic_streambuf@DU?$char_traits@D@std@@@std@@IAEXPAPAD0PAH001@Z ENDP ; std::basic_streambuf<char,std::char_traits<char> >::_Init
_TEXT	ENDS
PUBLIC	??D?$_String_const_iterator@DU?$char_traits@D@std@@V?$allocator@D@2@@std@@QBEABDXZ ; std::_String_const_iterator<char,std::char_traits<char>,std::allocator<char> >::operator*
; Function compile flags: /Ogtp
; File d:\program files (x86)\microsoft visual studio 10.0\vc\include\xstring
;	COMDAT ??D?$_String_const_iterator@DU?$char_traits@D@std@@V?$allocator@D@2@@std@@QBEABDXZ
_TEXT	SEGMENT
??D?$_String_const_iterator@DU?$char_traits@D@std@@V?$allocator@D@2@@std@@QBEABDXZ PROC ; std::_String_const_iterator<char,std::char_traits<char>,std::allocator<char> >::operator*, COMDAT
; _this$ = ecx

; 71   :  #if _ITERATOR_DEBUG_LEVEL == 2
; 72   : 		if (this->_Getcont() == 0
; 73   : 			|| this->_Ptr == 0
; 74   : 			|| this->_Ptr < ((_Mystr *)this->_Getcont())->_Myptr()
; 75   : 			|| ((_Mystr *)this->_Getcont())->_Myptr()
; 76   : 				+ ((_Mystr *)this->_Getcont())->_Mysize <= this->_Ptr)
; 77   : 			{	// report error
; 78   : 			_DEBUG_ERROR("string iterator not dereferencable");
; 79   : 			_SCL_SECURE_OUT_OF_RANGE;
; 80   : 			}
; 81   : 
; 82   :  #elif _ITERATOR_DEBUG_LEVEL == 1
; 83   : 		_SCL_SECURE_VALIDATE(this->_Getcont() != 0 && this->_Ptr != 0);
; 84   : 		_SCL_SECURE_VALIDATE_RANGE(
; 85   : 			((_Mystr *)this->_Getcont())->_Myptr() <= this->_Ptr
; 86   : 			&& this->_Ptr < ((_Mystr *)this->_Getcont())->_Myptr()
; 87   : 				+ ((_Mystr *)this->_Getcont())->_Mysize);
; 88   :  #endif /* _ITERATOR_DEBUG_LEVEL */
; 89   : 
; 90   : 		__analysis_assume(this->_Ptr != 0);
; 91   : 
; 92   : 		return (*this->_Ptr);

  00000	8b 01		 mov	 eax, DWORD PTR [ecx]

; 93   : 		}

  00002	c3		 ret	 0
??D?$_String_const_iterator@DU?$char_traits@D@std@@V?$allocator@D@2@@std@@QBEABDXZ ENDP ; std::_String_const_iterator<char,std::char_traits<char>,std::allocator<char> >::operator*
_TEXT	ENDS
PUBLIC	?unshift@?$codecvt@DDH@std@@QBEHAAHPAD1AAPAD@Z	; std::codecvt<char,char,int>::unshift
; Function compile flags: /Ogtp
; File d:\program files (x86)\microsoft visual studio 10.0\vc\include\xlocale
;	COMDAT ?unshift@?$codecvt@DDH@std@@QBEHAAHPAD1AAPAD@Z
_TEXT	SEGMENT
__State$ = 8						; size = 4
__First2$ = 12						; size = 4
__Last2$ = 16						; size = 4
__Mid2$ = 20						; size = 4
?unshift@?$codecvt@DDH@std@@QBEHAAHPAD1AAPAD@Z PROC	; std::codecvt<char,char,int>::unshift, COMDAT
; _this$ = ecx

; 823  : 		{	// generate bytes to return to default shift state

  00000	55		 push	 ebp
  00001	8b ec		 mov	 ebp, esp

; 824  : 		return (do_unshift(_State, _First2, _Last2, _Mid2));

  00003	8b 01		 mov	 eax, DWORD PTR [ecx]
  00005	8b 40 18	 mov	 eax, DWORD PTR [eax+24]

; 825  : 		}

  00008	5d		 pop	 ebp

; 824  : 		return (do_unshift(_State, _First2, _Last2, _Mid2));

  00009	ff e0		 jmp	 eax
?unshift@?$codecvt@DDH@std@@QBEHAAHPAD1AAPAD@Z ENDP	; std::codecvt<char,char,int>::unshift
_TEXT	ENDS
PUBLIC	?setp@?$basic_streambuf@DU?$char_traits@D@std@@@std@@IAEXPAD0@Z ; std::basic_streambuf<char,std::char_traits<char> >::setp
; Function compile flags: /Ogtp
; File d:\program files (x86)\microsoft visual studio 10.0\vc\include\streambuf
;	COMDAT ?setp@?$basic_streambuf@DU?$char_traits@D@std@@@std@@IAEXPAD0@Z
_TEXT	SEGMENT
__First$ = 8						; size = 4
__Last$ = 12						; size = 4
?setp@?$basic_streambuf@DU?$char_traits@D@std@@@std@@IAEXPAD0@Z PROC ; std::basic_streambuf<char,std::char_traits<char> >::setp, COMDAT
; _this$ = ecx

; 289  : 		{	// set pointers for write buffer

  00000	55		 push	 ebp
  00001	8b ec		 mov	 ebp, esp

; 290  : 		*_IPfirst = _First;

  00003	8b 51 14	 mov	 edx, DWORD PTR [ecx+20]
  00006	8b 45 08	 mov	 eax, DWORD PTR __First$[ebp]
  00009	89 02		 mov	 DWORD PTR [edx], eax

; 291  : 		*_IPnext = _First;

  0000b	8b 51 24	 mov	 edx, DWORD PTR [ecx+36]
  0000e	89 02		 mov	 DWORD PTR [edx], eax

; 292  : 		*_IPcount = (int)(_Last - _First);

  00010	8b 55 0c	 mov	 edx, DWORD PTR __Last$[ebp]
  00013	2b d0		 sub	 edx, eax
  00015	8b 41 34	 mov	 eax, DWORD PTR [ecx+52]
  00018	89 10		 mov	 DWORD PTR [eax], edx

; 293  : 		}

  0001a	5d		 pop	 ebp
  0001b	c2 08 00	 ret	 8
?setp@?$basic_streambuf@DU?$char_traits@D@std@@@std@@IAEXPAD0@Z ENDP ; std::basic_streambuf<char,std::char_traits<char> >::setp
_TEXT	ENDS
PUBLIC	?fill@?$basic_ios@DU?$char_traits@D@std@@@std@@QBEDXZ ; std::basic_ios<char,std::char_traits<char> >::fill
; Function compile flags: /Ogtp
; File d:\program files (x86)\microsoft visual studio 10.0\vc\include\ios
;	COMDAT ?fill@?$basic_ios@DU?$char_traits@D@std@@@std@@QBEDXZ
_TEXT	SEGMENT
?fill@?$basic_ios@DU?$char_traits@D@std@@@std@@QBEDXZ PROC ; std::basic_ios<char,std::char_traits<char> >::fill, COMDAT
; _this$ = ecx

; 107  : 		return (_Fillch);

  00000	8a 41 40	 mov	 al, BYTE PTR [ecx+64]

; 108  : 		}

  00003	c3		 ret	 0
?fill@?$basic_ios@DU?$char_traits@D@std@@@std@@QBEDXZ ENDP ; std::basic_ios<char,std::char_traits<char> >::fill
_TEXT	ENDS
PUBLIC	?sputn@?$basic_streambuf@DU?$char_traits@D@std@@@std@@QAE_JPBD_J@Z ; std::basic_streambuf<char,std::char_traits<char> >::sputn
; Function compile flags: /Ogtp
; File d:\program files (x86)\microsoft visual studio 10.0\vc\include\streambuf
;	COMDAT ?sputn@?$basic_streambuf@DU?$char_traits@D@std@@@std@@QAE_JPBD_J@Z
_TEXT	SEGMENT
__Ptr$ = 8						; size = 4
__Count$ = 12						; size = 8
?sputn@?$basic_streambuf@DU?$char_traits@D@std@@@std@@QAE_JPBD_J@Z PROC ; std::basic_streambuf<char,std::char_traits<char> >::sputn, COMDAT
; _this$ = ecx

; 201  : 		{	// put _Count characters from array beginning at _Ptr

  00000	55		 push	 ebp
  00001	8b ec		 mov	 ebp, esp

; 202  : 		return (xsputn(_Ptr, _Count));

  00003	8b 55 10	 mov	 edx, DWORD PTR __Count$[ebp+4]
  00006	8b 01		 mov	 eax, DWORD PTR [ecx]
  00008	8b 40 24	 mov	 eax, DWORD PTR [eax+36]
  0000b	52		 push	 edx
  0000c	8b 55 0c	 mov	 edx, DWORD PTR __Count$[ebp]
  0000f	52		 push	 edx
  00010	8b 55 08	 mov	 edx, DWORD PTR __Ptr$[ebp]
  00013	52		 push	 edx
  00014	ff d0		 call	 eax

; 203  : 		}

  00016	5d		 pop	 ebp
  00017	c2 0c 00	 ret	 12			; 0000000cH
?sputn@?$basic_streambuf@DU?$char_traits@D@std@@@std@@QAE_JPBD_J@Z ENDP ; std::basic_streambuf<char,std::char_traits<char> >::sputn
_TEXT	ENDS
PUBLIC	?_Init@?$codecvt@DDH@std@@IAEXABV_Locinfo@2@@Z	; std::codecvt<char,char,int>::_Init
; Function compile flags: /Ogtp
; File d:\program files (x86)\microsoft visual studio 10.0\vc\include\xlocale
;	COMDAT ?_Init@?$codecvt@DDH@std@@IAEXABV_Locinfo@2@@Z
_TEXT	SEGMENT
___formal$ = 8						; size = 4
?_Init@?$codecvt@DDH@std@@IAEXABV_Locinfo@2@@Z PROC	; std::codecvt<char,char,int>::_Init, COMDAT
; _this$ = ecx

; 863  : 		}

  00000	c2 04 00	 ret	 4
?_Init@?$codecvt@DDH@std@@IAEXABV_Locinfo@2@@Z ENDP	; std::codecvt<char,char,int>::_Init
_TEXT	ENDS
PUBLIC	?GetTime@CTime@ATL@@QBE_JXZ			; ATL::CTime::GetTime
; Function compile flags: /Ogtp
; File d:\program files (x86)\microsoft visual studio 10.0\vc\atlmfc\include\atltime.inl
;	COMDAT ?GetTime@CTime@ATL@@QBE_JXZ
_TEXT	SEGMENT
?GetTime@CTime@ATL@@QBE_JXZ PROC			; ATL::CTime::GetTime, COMDAT
; _this$ = ecx

; 415  : 	return( m_time );

  00000	8b 01		 mov	 eax, DWORD PTR [ecx]
  00002	8b 51 04	 mov	 edx, DWORD PTR [ecx+4]

; 416  : }

  00005	c3		 ret	 0
?GetTime@CTime@ATL@@QBE_JXZ ENDP			; ATL::CTime::GetTime
_TEXT	ENDS
PUBLIC	??_7bad_alloc@std@@6B@				; std::bad_alloc::`vftable'
PUBLIC	??0bad_alloc@std@@QAE@PBD@Z			; std::bad_alloc::bad_alloc
PUBLIC	??_R4bad_alloc@std@@6B@				; std::bad_alloc::`RTTI Complete Object Locator'
PUBLIC	??_R0?AVbad_alloc@std@@@8			; std::bad_alloc `RTTI Type Descriptor'
PUBLIC	??_R3bad_alloc@std@@8				; std::bad_alloc::`RTTI Class Hierarchy Descriptor'
PUBLIC	??_R2bad_alloc@std@@8				; std::bad_alloc::`RTTI Base Class Array'
PUBLIC	??_R1A@?0A@EA@bad_alloc@std@@8			; std::bad_alloc::`RTTI Base Class Descriptor at (0,-1,0,64)'
PUBLIC	??_R1A@?0A@EA@exception@std@@8			; std::exception::`RTTI Base Class Descriptor at (0,-1,0,64)'
PUBLIC	??_R0?AVexception@std@@@8			; std::exception `RTTI Type Descriptor'
PUBLIC	??_R3exception@std@@8				; std::exception::`RTTI Class Hierarchy Descriptor'
PUBLIC	??_R2exception@std@@8				; std::exception::`RTTI Base Class Array'
EXTRN	??0exception@std@@QAE@ABQBD@Z:PROC		; std::exception::exception
EXTRN	??_7type_info@@6B@:QWORD			; type_info::`vftable'
EXTRN	??_Ebad_alloc@std@@UAEPAXI@Z:PROC		; std::bad_alloc::`vector deleting destructor'
EXTRN	?what@exception@std@@UBEPBDXZ:PROC		; std::exception::what
;	COMDAT ??_R2exception@std@@8
; File d:\program files (x86)\microsoft visual studio 10.0\vc\include\exception
rdata$r	SEGMENT
??_R2exception@std@@8 DD FLAT:??_R1A@?0A@EA@exception@std@@8 ; std::exception::`RTTI Base Class Array'
rdata$r	ENDS
;	COMDAT ??_R3exception@std@@8
rdata$r	SEGMENT
??_R3exception@std@@8 DD 00H				; std::exception::`RTTI Class Hierarchy Descriptor'
	DD	00H
	DD	01H
	DD	FLAT:??_R2exception@std@@8
rdata$r	ENDS
;	COMDAT ??_R0?AVexception@std@@@8
_DATA	SEGMENT
??_R0?AVexception@std@@@8 DD FLAT:??_7type_info@@6B@	; std::exception `RTTI Type Descriptor'
	DD	00H
	DB	'.?AVexception@std@@', 00H
_DATA	ENDS
;	COMDAT ??_R1A@?0A@EA@exception@std@@8
rdata$r	SEGMENT
??_R1A@?0A@EA@exception@std@@8 DD FLAT:??_R0?AVexception@std@@@8 ; std::exception::`RTTI Base Class Descriptor at (0,-1,0,64)'
	DD	00H
	DD	00H
	DD	0ffffffffH
	DD	00H
	DD	040H
	DD	FLAT:??_R3exception@std@@8
rdata$r	ENDS
;	COMDAT ??_R1A@?0A@EA@bad_alloc@std@@8
rdata$r	SEGMENT
??_R1A@?0A@EA@bad_alloc@std@@8 DD FLAT:??_R0?AVbad_alloc@std@@@8 ; std::bad_alloc::`RTTI Base Class Descriptor at (0,-1,0,64)'
	DD	01H
	DD	00H
	DD	0ffffffffH
	DD	00H
	DD	040H
	DD	FLAT:??_R3bad_alloc@std@@8
rdata$r	ENDS
;	COMDAT ??_R2bad_alloc@std@@8
rdata$r	SEGMENT
??_R2bad_alloc@std@@8 DD FLAT:??_R1A@?0A@EA@bad_alloc@std@@8 ; std::bad_alloc::`RTTI Base Class Array'
	DD	FLAT:??_R1A@?0A@EA@exception@std@@8
rdata$r	ENDS
;	COMDAT ??_R3bad_alloc@std@@8
rdata$r	SEGMENT
??_R3bad_alloc@std@@8 DD 00H				; std::bad_alloc::`RTTI Class Hierarchy Descriptor'
	DD	00H
	DD	02H
	DD	FLAT:??_R2bad_alloc@std@@8
rdata$r	ENDS
;	COMDAT ??_R0?AVbad_alloc@std@@@8
_DATA	SEGMENT
??_R0?AVbad_alloc@std@@@8 DD FLAT:??_7type_info@@6B@	; std::bad_alloc `RTTI Type Descriptor'
	DD	00H
	DB	'.?AVbad_alloc@std@@', 00H
_DATA	ENDS
;	COMDAT ??_R4bad_alloc@std@@6B@
rdata$r	SEGMENT
??_R4bad_alloc@std@@6B@ DD 00H				; std::bad_alloc::`RTTI Complete Object Locator'
	DD	00H
	DD	00H
	DD	FLAT:??_R0?AVbad_alloc@std@@@8
	DD	FLAT:??_R3bad_alloc@std@@8
rdata$r	ENDS
;	COMDAT ??_7bad_alloc@std@@6B@
CONST	SEGMENT
??_7bad_alloc@std@@6B@ DD FLAT:??_R4bad_alloc@std@@6B@	; std::bad_alloc::`vftable'
	DD	FLAT:??_Ebad_alloc@std@@UAEPAXI@Z
	DD	FLAT:?what@exception@std@@UBEPBDXZ
; Function compile flags: /Ogtp
CONST	ENDS
;	COMDAT ??0bad_alloc@std@@QAE@PBD@Z
_TEXT	SEGMENT
__Message$ = 8						; size = 4
??0bad_alloc@std@@QAE@PBD@Z PROC			; std::bad_alloc::bad_alloc, COMDAT
; _this$ = ecx

; 345  : 		{	// construct from message string

  00000	55		 push	 ebp
  00001	8b ec		 mov	 ebp, esp
  00003	56		 push	 esi
  00004	8d 45 08	 lea	 eax, DWORD PTR __Message$[ebp]
  00007	50		 push	 eax
  00008	8b f1		 mov	 esi, ecx
  0000a	e8 00 00 00 00	 call	 ??0exception@std@@QAE@ABQBD@Z ; std::exception::exception
  0000f	c7 06 00 00 00
	00		 mov	 DWORD PTR [esi], OFFSET ??_7bad_alloc@std@@6B@

; 346  : 		}

  00015	8b c6		 mov	 eax, esi
  00017	5e		 pop	 esi
  00018	5d		 pop	 ebp
  00019	c2 04 00	 ret	 4
??0bad_alloc@std@@QAE@PBD@Z ENDP			; std::bad_alloc::bad_alloc
_TEXT	ENDS
PUBLIC	??1bad_alloc@std@@UAE@XZ			; std::bad_alloc::~bad_alloc
EXTRN	??1exception@std@@UAE@XZ:PROC			; std::exception::~exception
; Function compile flags: /Ogtp
;	COMDAT ??1bad_alloc@std@@UAE@XZ
_TEXT	SEGMENT
??1bad_alloc@std@@UAE@XZ PROC				; std::bad_alloc::~bad_alloc, COMDAT
; _this$ = ecx

; 354  : 		{	// destroy the object

  00000	c7 01 00 00 00
	00		 mov	 DWORD PTR [ecx], OFFSET ??_7bad_alloc@std@@6B@

; 355  : 		}

  00006	e9 00 00 00 00	 jmp	 ??1exception@std@@UAE@XZ ; std::exception::~exception
??1bad_alloc@std@@UAE@XZ ENDP				; std::bad_alloc::~bad_alloc
_TEXT	ENDS
EXTRN	??3@YAXPAX@Z:PROC				; operator delete
; Function compile flags: /Ogtp
;	COMDAT ??_Gbad_alloc@std@@UAEPAXI@Z
_TEXT	SEGMENT
___flags$ = 8						; size = 4
??_Gbad_alloc@std@@UAEPAXI@Z PROC			; std::bad_alloc::`scalar deleting destructor', COMDAT
; _this$ = ecx
  00000	55		 push	 ebp
  00001	8b ec		 mov	 ebp, esp
  00003	56		 push	 esi
  00004	8b f1		 mov	 esi, ecx
  00006	c7 06 00 00 00
	00		 mov	 DWORD PTR [esi], OFFSET ??_7bad_alloc@std@@6B@
  0000c	e8 00 00 00 00	 call	 ??1exception@std@@UAE@XZ ; std::exception::~exception
  00011	f6 45 08 01	 test	 BYTE PTR ___flags$[ebp], 1
  00015	74 09		 je	 SHORT $LN6@scalar
  00017	56		 push	 esi
  00018	e8 00 00 00 00	 call	 ??3@YAXPAX@Z		; operator delete
  0001d	83 c4 04	 add	 esp, 4
$LN6@scalar:
  00020	8b c6		 mov	 eax, esi
  00022	5e		 pop	 esi
  00023	5d		 pop	 ebp
  00024	c2 04 00	 ret	 4
??_Gbad_alloc@std@@UAEPAXI@Z ENDP			; std::bad_alloc::`scalar deleting destructor'
_TEXT	ENDS
PUBLIC	?length@?$char_traits@D@std@@SAIPBD@Z		; std::char_traits<char>::length
; Function compile flags: /Ogtp
; File d:\program files (x86)\microsoft visual studio 10.0\vc\include\iosfwd
;	COMDAT ?length@?$char_traits@D@std@@SAIPBD@Z
_TEXT	SEGMENT
__First$ = 8						; size = 4
?length@?$char_traits@D@std@@SAIPBD@Z PROC		; std::char_traits<char>::length, COMDAT

; 490  : 		{	// find length of null-terminated string

  00000	55		 push	 ebp
  00001	8b ec		 mov	 ebp, esp

; 491  : 		return (_CSTD strlen(_First));

  00003	8b 45 08	 mov	 eax, DWORD PTR __First$[ebp]
  00006	8d 50 01	 lea	 edx, DWORD PTR [eax+1]
  00009	8d a4 24 00 00
	00 00		 npad	 7
$LL3@length:
  00010	8a 08		 mov	 cl, BYTE PTR [eax]
  00012	40		 inc	 eax
  00013	84 c9		 test	 cl, cl
  00015	75 f9		 jne	 SHORT $LL3@length
  00017	2b c2		 sub	 eax, edx

; 492  : 		}

  00019	5d		 pop	 ebp
  0001a	c3		 ret	 0
?length@?$char_traits@D@std@@SAIPBD@Z ENDP		; std::char_traits<char>::length
_TEXT	ENDS
PUBLIC	?copy@?$char_traits@D@std@@SAPADPADPBDI@Z	; std::char_traits<char>::copy
EXTRN	_memcpy:PROC
; Function compile flags: /Ogtp
;	COMDAT ?copy@?$char_traits@D@std@@SAPADPADPBDI@Z
_TEXT	SEGMENT
__First1$ = 8						; size = 4
__First2$ = 12						; size = 4
__Count$ = 16						; size = 4
?copy@?$char_traits@D@std@@SAPADPADPBDI@Z PROC		; std::char_traits<char>::copy, COMDAT

; 496  : 		{	// copy [_First1, _First1 + _Count) to [_First2, ...)

  00000	55		 push	 ebp
  00001	8b ec		 mov	 ebp, esp

; 498  : 		}

  00003	5d		 pop	 ebp

; 497  : 		return ((_Elem *)_CSTD memcpy(_First1, _First2, _Count));

  00004	e9 00 00 00 00	 jmp	 _memcpy
?copy@?$char_traits@D@std@@SAPADPADPBDI@Z ENDP		; std::char_traits<char>::copy
_TEXT	ENDS
PUBLIC	?assign@?$char_traits@D@std@@SAPADPADID@Z	; std::char_traits<char>::assign
EXTRN	_memset:PROC
; Function compile flags: /Ogtp
;	COMDAT ?assign@?$char_traits@D@std@@SAPADPADID@Z
_TEXT	SEGMENT
__First$ = 8						; size = 4
__Count$ = 12						; size = 4
__Ch$ = 16						; size = 1
?assign@?$char_traits@D@std@@SAPADPADID@Z PROC		; std::char_traits<char>::assign, COMDAT

; 521  : 		{	// assign _Count * _Ch to [_First, ...)

  00000	55		 push	 ebp
  00001	8b ec		 mov	 ebp, esp

; 522  : 		return ((_Elem *)_CSTD memset(_First, _Ch, _Count));

  00003	8b 45 0c	 mov	 eax, DWORD PTR __Count$[ebp]
  00006	0f be 4d 10	 movsx	 ecx, BYTE PTR __Ch$[ebp]
  0000a	8b 55 08	 mov	 edx, DWORD PTR __First$[ebp]
  0000d	50		 push	 eax
  0000e	51		 push	 ecx
  0000f	52		 push	 edx
  00010	e8 00 00 00 00	 call	 _memset
  00015	83 c4 0c	 add	 esp, 12			; 0000000cH

; 523  : 		}

  00018	5d		 pop	 ebp
  00019	c3		 ret	 0
?assign@?$char_traits@D@std@@SAPADPADID@Z ENDP		; std::char_traits<char>::assign
_TEXT	ENDS
PUBLIC	?assign@?$char_traits@D@std@@SAXAADABD@Z	; std::char_traits<char>::assign
; Function compile flags: /Ogtp
;	COMDAT ?assign@?$char_traits@D@std@@SAXAADABD@Z
_TEXT	SEGMENT
__Left$ = 8						; size = 4
__Right$ = 12						; size = 4
?assign@?$char_traits@D@std@@SAXAADABD@Z PROC		; std::char_traits<char>::assign, COMDAT

; 526  : 		{	// assign an element

  00000	55		 push	 ebp
  00001	8b ec		 mov	 ebp, esp

; 527  : 		_Left = _Right;

  00003	8b 45 0c	 mov	 eax, DWORD PTR __Right$[ebp]
  00006	8a 08		 mov	 cl, BYTE PTR [eax]
  00008	8b 55 08	 mov	 edx, DWORD PTR __Left$[ebp]
  0000b	88 0a		 mov	 BYTE PTR [edx], cl

; 528  : 		}

  0000d	5d		 pop	 ebp
  0000e	c3		 ret	 0
?assign@?$char_traits@D@std@@SAXAADABD@Z ENDP		; std::char_traits<char>::assign
_TEXT	ENDS
PUBLIC	?to_int_type@?$char_traits@D@std@@SAHABD@Z	; std::char_traits<char>::to_int_type
; Function compile flags: /Ogtp
;	COMDAT ?to_int_type@?$char_traits@D@std@@SAHABD@Z
_TEXT	SEGMENT
__Ch$ = 8						; size = 4
?to_int_type@?$char_traits@D@std@@SAHABD@Z PROC		; std::char_traits<char>::to_int_type, COMDAT

; 546  : 		{	// convert character to metacharacter

  00000	55		 push	 ebp
  00001	8b ec		 mov	 ebp, esp

; 547  : 		return ((unsigned char)_Ch);

  00003	8b 45 08	 mov	 eax, DWORD PTR __Ch$[ebp]
  00006	0f b6 00	 movzx	 eax, BYTE PTR [eax]

; 548  : 		}

  00009	5d		 pop	 ebp
  0000a	c3		 ret	 0
?to_int_type@?$char_traits@D@std@@SAHABD@Z ENDP		; std::char_traits<char>::to_int_type
_TEXT	ENDS
PUBLIC	?eq_int_type@?$char_traits@D@std@@SA_NABH0@Z	; std::char_traits<char>::eq_int_type
; Function compile flags: /Ogtp
;	COMDAT ?eq_int_type@?$char_traits@D@std@@SA_NABH0@Z
_TEXT	SEGMENT
__Left$ = 8						; size = 4
__Right$ = 12						; size = 4
?eq_int_type@?$char_traits@D@std@@SA_NABH0@Z PROC	; std::char_traits<char>::eq_int_type, COMDAT

; 552  : 		{	// test for metacharacter equality

  00000	55		 push	 ebp
  00001	8b ec		 mov	 ebp, esp

; 553  : 		return (_Left == _Right);

  00003	8b 45 08	 mov	 eax, DWORD PTR __Left$[ebp]
  00006	8b 08		 mov	 ecx, DWORD PTR [eax]
  00008	8b 55 0c	 mov	 edx, DWORD PTR __Right$[ebp]
  0000b	33 c0		 xor	 eax, eax
  0000d	3b 0a		 cmp	 ecx, DWORD PTR [edx]
  0000f	0f 94 c0	 sete	 al

; 554  : 		}

  00012	5d		 pop	 ebp
  00013	c3		 ret	 0
?eq_int_type@?$char_traits@D@std@@SA_NABH0@Z ENDP	; std::char_traits<char>::eq_int_type
_TEXT	ENDS
PUBLIC	?eof@?$char_traits@D@std@@SAHXZ			; std::char_traits<char>::eof
; Function compile flags: /Ogtp
;	COMDAT ?eof@?$char_traits@D@std@@SAHXZ
_TEXT	SEGMENT
?eof@?$char_traits@D@std@@SAHXZ PROC			; std::char_traits<char>::eof, COMDAT

; 563  : 		return (EOF);

  00000	83 c8 ff	 or	 eax, -1

; 564  : 		}

  00003	c3		 ret	 0
?eof@?$char_traits@D@std@@SAHXZ ENDP			; std::char_traits<char>::eof
_TEXT	ENDS
PUBLIC	?_Adopt@_Iterator_base0@std@@QAEXPBX@Z		; std::_Iterator_base0::_Adopt
; Function compile flags: /Ogtp
; File d:\program files (x86)\microsoft visual studio 10.0\vc\include\xutility
;	COMDAT ?_Adopt@_Iterator_base0@std@@QAEXPBX@Z
_TEXT	SEGMENT
___formal$ = 8						; size = 4
?_Adopt@_Iterator_base0@std@@QAEXPBX@Z PROC		; std::_Iterator_base0::_Adopt, COMDAT
; _this$ = ecx

; 49   : 		}

  00000	c2 04 00	 ret	 4
?_Adopt@_Iterator_base0@std@@QAEXPBX@Z ENDP		; std::_Iterator_base0::_Adopt
_TEXT	ENDS
PUBLIC	??_7runtime_error@std@@6B@			; std::runtime_error::`vftable'
PUBLIC	??0runtime_error@std@@QAE@PBD@Z			; std::runtime_error::runtime_error
PUBLIC	??_R4runtime_error@std@@6B@			; std::runtime_error::`RTTI Complete Object Locator'
PUBLIC	??_R0?AVruntime_error@std@@@8			; std::runtime_error `RTTI Type Descriptor'
PUBLIC	??_R3runtime_error@std@@8			; std::runtime_error::`RTTI Class Hierarchy Descriptor'
PUBLIC	??_R2runtime_error@std@@8			; std::runtime_error::`RTTI Base Class Array'
PUBLIC	??_R1A@?0A@EA@runtime_error@std@@8		; std::runtime_error::`RTTI Base Class Descriptor at (0,-1,0,64)'
EXTRN	??_Eruntime_error@std@@UAEPAXI@Z:PROC		; std::runtime_error::`vector deleting destructor'
;	COMDAT ??_R1A@?0A@EA@runtime_error@std@@8
; File d:\program files (x86)\microsoft visual studio 10.0\vc\include\stdexcept
rdata$r	SEGMENT
??_R1A@?0A@EA@runtime_error@std@@8 DD FLAT:??_R0?AVruntime_error@std@@@8 ; std::runtime_error::`RTTI Base Class Descriptor at (0,-1,0,64)'
	DD	01H
	DD	00H
	DD	0ffffffffH
	DD	00H
	DD	040H
	DD	FLAT:??_R3runtime_error@std@@8
rdata$r	ENDS
;	COMDAT ??_R2runtime_error@std@@8
rdata$r	SEGMENT
??_R2runtime_error@std@@8 DD FLAT:??_R1A@?0A@EA@runtime_error@std@@8 ; std::runtime_error::`RTTI Base Class Array'
	DD	FLAT:??_R1A@?0A@EA@exception@std@@8
rdata$r	ENDS
;	COMDAT ??_R3runtime_error@std@@8
rdata$r	SEGMENT
??_R3runtime_error@std@@8 DD 00H			; std::runtime_error::`RTTI Class Hierarchy Descriptor'
	DD	00H
	DD	02H
	DD	FLAT:??_R2runtime_error@std@@8
rdata$r	ENDS
;	COMDAT ??_R0?AVruntime_error@std@@@8
_DATA	SEGMENT
??_R0?AVruntime_error@std@@@8 DD FLAT:??_7type_info@@6B@ ; std::runtime_error `RTTI Type Descriptor'
	DD	00H
	DB	'.?AVruntime_error@std@@', 00H
_DATA	ENDS
;	COMDAT ??_R4runtime_error@std@@6B@
rdata$r	SEGMENT
??_R4runtime_error@std@@6B@ DD 00H			; std::runtime_error::`RTTI Complete Object Locator'
	DD	00H
	DD	00H
	DD	FLAT:??_R0?AVruntime_error@std@@@8
	DD	FLAT:??_R3runtime_error@std@@8
rdata$r	ENDS
;	COMDAT ??_7runtime_error@std@@6B@
CONST	SEGMENT
??_7runtime_error@std@@6B@ DD FLAT:??_R4runtime_error@std@@6B@ ; std::runtime_error::`vftable'
	DD	FLAT:??_Eruntime_error@std@@UAEPAXI@Z
	DD	FLAT:?what@exception@std@@UBEPBDXZ
; Function compile flags: /Ogtp
CONST	ENDS
;	COMDAT ??0runtime_error@std@@QAE@PBD@Z
_TEXT	SEGMENT
__Message$ = 8						; size = 4
??0runtime_error@std@@QAE@PBD@Z PROC			; std::runtime_error::runtime_error, COMDAT
; _this$ = ecx

; 170  : 		{	// construct from message string

  00000	55		 push	 ebp
  00001	8b ec		 mov	 ebp, esp
  00003	56		 push	 esi
  00004	8d 45 08	 lea	 eax, DWORD PTR __Message$[ebp]
  00007	50		 push	 eax
  00008	8b f1		 mov	 esi, ecx
  0000a	e8 00 00 00 00	 call	 ??0exception@std@@QAE@ABQBD@Z ; std::exception::exception
  0000f	c7 06 00 00 00
	00		 mov	 DWORD PTR [esi], OFFSET ??_7runtime_error@std@@6B@

; 171  : 		}

  00015	8b c6		 mov	 eax, esi
  00017	5e		 pop	 esi
  00018	5d		 pop	 ebp
  00019	c2 04 00	 ret	 4
??0runtime_error@std@@QAE@PBD@Z ENDP			; std::runtime_error::runtime_error
_TEXT	ENDS
PUBLIC	??1runtime_error@std@@UAE@XZ			; std::runtime_error::~runtime_error
; Function compile flags: /Ogtp
;	COMDAT ??1runtime_error@std@@UAE@XZ
_TEXT	SEGMENT
??1runtime_error@std@@UAE@XZ PROC			; std::runtime_error::~runtime_error, COMDAT
; _this$ = ecx
  00000	e9 00 00 00 00	 jmp	 ??1exception@std@@UAE@XZ ; std::exception::~exception
??1runtime_error@std@@UAE@XZ ENDP			; std::runtime_error::~runtime_error
_TEXT	ENDS
PUBLIC	?_Getctype@_Locinfo@std@@QBE?AU_Ctypevec@@XZ	; std::_Locinfo::_Getctype
EXTRN	__Getctype:PROC
; Function compile flags: /Ogtp
; File d:\program files (x86)\microsoft visual studio 10.0\vc\include\xlocinfo
;	COMDAT ?_Getctype@_Locinfo@std@@QBE?AU_Ctypevec@@XZ
_TEXT	SEGMENT
$T209453 = -16						; size = 16
___$ReturnUdt$ = 8					; size = 4
?_Getctype@_Locinfo@std@@QBE?AU_Ctypevec@@XZ PROC	; std::_Locinfo::_Getctype, COMDAT
; _this$ = ecx

; 117  : 		{	// return ctype stuff

  00000	55		 push	 ebp
  00001	8b ec		 mov	 ebp, esp

; 118  : 		return (::_Getctype());

  00003	8d 45 f0	 lea	 eax, DWORD PTR $T209453[ebp]
  00006	83 ec 10	 sub	 esp, 16			; 00000010H
  00009	50		 push	 eax
  0000a	e8 00 00 00 00	 call	 __Getctype
  0000f	8b 4d 08	 mov	 ecx, DWORD PTR ___$ReturnUdt$[ebp]
  00012	8b 10		 mov	 edx, DWORD PTR [eax]
  00014	89 11		 mov	 DWORD PTR [ecx], edx
  00016	8b 50 04	 mov	 edx, DWORD PTR [eax+4]
  00019	89 51 04	 mov	 DWORD PTR [ecx+4], edx
  0001c	8b 50 08	 mov	 edx, DWORD PTR [eax+8]
  0001f	8b 40 0c	 mov	 eax, DWORD PTR [eax+12]
  00022	89 51 08	 mov	 DWORD PTR [ecx+8], edx
  00025	89 41 0c	 mov	 DWORD PTR [ecx+12], eax
  00028	83 c4 04	 add	 esp, 4
  0002b	8b c1		 mov	 eax, ecx

; 119  : 		}

  0002d	8b e5		 mov	 esp, ebp
  0002f	5d		 pop	 ebp
  00030	c2 04 00	 ret	 4
?_Getctype@_Locinfo@std@@QBE?AU_Ctypevec@@XZ ENDP	; std::_Locinfo::_Getctype
_TEXT	ENDS
PUBLIC	??0id@locale@std@@QAE@I@Z			; std::locale::id::id
; Function compile flags: /Ogtp
; File d:\program files (x86)\microsoft visual studio 10.0\vc\include\xlocale
;	COMDAT ??0id@locale@std@@QAE@I@Z
_TEXT	SEGMENT
__Val$ = 8						; size = 4
??0id@locale@std@@QAE@I@Z PROC				; std::locale::id::id, COMDAT
; _this$ = ecx

; 71   : 			{	// construct with specified stamp value

  00000	55		 push	 ebp
  00001	8b ec		 mov	 ebp, esp
  00003	8b c1		 mov	 eax, ecx
  00005	8b 4d 08	 mov	 ecx, DWORD PTR __Val$[ebp]
  00008	89 08		 mov	 DWORD PTR [eax], ecx

; 72   : 			}

  0000a	5d		 pop	 ebp
  0000b	c2 04 00	 ret	 4
??0id@locale@std@@QAE@I@Z ENDP				; std::locale::id::id
_TEXT	ENDS
PUBLIC	??Bid@locale@std@@QAEIXZ			; std::locale::id::operator unsigned int
EXTRN	??1_Lockit@std@@QAE@XZ:PROC			; std::_Lockit::~_Lockit
EXTRN	?_Id_cnt@id@locale@std@@0HA:DWORD		; std::locale::id::_Id_cnt
EXTRN	??0_Lockit@std@@QAE@H@Z:PROC			; std::_Lockit::_Lockit
; Function compile flags: /Ogtp
;	COMDAT ??Bid@locale@std@@QAEIXZ
_TEXT	SEGMENT
__Lock$173793 = -4					; size = 4
??Bid@locale@std@@QAEIXZ PROC				; std::locale::id::operator unsigned int, COMDAT
; _this$ = ecx

; 75   : 			{	// get stamp, with lazy allocation

  00000	55		 push	 ebp
  00001	8b ec		 mov	 ebp, esp
  00003	51		 push	 ecx
  00004	56		 push	 esi
  00005	8b f1		 mov	 esi, ecx

; 76   : 			if (_Id == 0)

  00007	83 3e 00	 cmp	 DWORD PTR [esi], 0
  0000a	75 24		 jne	 SHORT $LN6@operator

; 77   : 				{	// still zero, allocate stamp
; 78   : 				_BEGIN_LOCK(_LOCK_LOCALE)

  0000c	6a 00		 push	 0
  0000e	8d 4d fc	 lea	 ecx, DWORD PTR __Lock$173793[ebp]
  00011	e8 00 00 00 00	 call	 ??0_Lockit@std@@QAE@H@Z	; std::_Lockit::_Lockit

; 79   : 					if (_Id == 0)

  00016	83 3e 00	 cmp	 DWORD PTR [esi], 0
  00019	75 0d		 jne	 SHORT $LN1@operator

; 80   : 						_Id = ++_Id_cnt;

  0001b	a1 00 00 00 00	 mov	 eax, DWORD PTR ?_Id_cnt@id@locale@std@@0HA ; std::locale::id::_Id_cnt
  00020	40		 inc	 eax
  00021	a3 00 00 00 00	 mov	 DWORD PTR ?_Id_cnt@id@locale@std@@0HA, eax ; std::locale::id::_Id_cnt
  00026	89 06		 mov	 DWORD PTR [esi], eax
$LN1@operator:

; 81   : 				_END_LOCK()

  00028	8d 4d fc	 lea	 ecx, DWORD PTR __Lock$173793[ebp]
  0002b	e8 00 00 00 00	 call	 ??1_Lockit@std@@QAE@XZ	; std::_Lockit::~_Lockit
$LN6@operator:

; 82   : 				}
; 83   : 			return (_Id);

  00030	8b 06		 mov	 eax, DWORD PTR [esi]
  00032	5e		 pop	 esi

; 84   : 			}

  00033	8b e5		 mov	 esp, ebp
  00035	5d		 pop	 ebp
  00036	c3		 ret	 0
??Bid@locale@std@@QAEIXZ ENDP				; std::locale::id::operator unsigned int
_TEXT	ENDS
PUBLIC	?_Incref@facet@locale@std@@QAEXXZ		; std::locale::facet::_Incref
; Function compile flags: /Ogtp
;	COMDAT ?_Incref@facet@locale@std@@QAEXXZ
_TEXT	SEGMENT
__Lock$173799 = -4					; size = 4
?_Incref@facet@locale@std@@QAEXXZ PROC			; std::locale::facet::_Incref, COMDAT
; _this$ = ecx

; 111  : 			{	// safely increment the reference count

  00000	55		 push	 ebp
  00001	8b ec		 mov	 ebp, esp
  00003	51		 push	 ecx
  00004	56		 push	 esi
  00005	8b f1		 mov	 esi, ecx

; 112  : 			_BEGIN_LOCK(_LOCK_LOCALE)

  00007	6a 00		 push	 0
  00009	8d 4d fc	 lea	 ecx, DWORD PTR __Lock$173799[ebp]
  0000c	e8 00 00 00 00	 call	 ??0_Lockit@std@@QAE@H@Z	; std::_Lockit::_Lockit

; 113  : 				if (_Refs < (size_t)(-1))

  00011	8b 46 04	 mov	 eax, DWORD PTR [esi+4]
  00014	83 f8 ff	 cmp	 eax, -1
  00017	73 04		 jae	 SHORT $LN1@Incref

; 114  : 					++_Refs;

  00019	40		 inc	 eax
  0001a	89 46 04	 mov	 DWORD PTR [esi+4], eax
$LN1@Incref:

; 115  : 			_END_LOCK()

  0001d	8d 4d fc	 lea	 ecx, DWORD PTR __Lock$173799[ebp]
  00020	e8 00 00 00 00	 call	 ??1_Lockit@std@@QAE@XZ	; std::_Lockit::~_Lockit
  00025	5e		 pop	 esi

; 116  : 			}

  00026	8b e5		 mov	 esp, ebp
  00028	5d		 pop	 ebp
  00029	c3		 ret	 0
?_Incref@facet@locale@std@@QAEXXZ ENDP			; std::locale::facet::_Incref
_TEXT	ENDS
PUBLIC	?_Decref@facet@locale@std@@QAEPAV123@XZ		; std::locale::facet::_Decref
; Function compile flags: /Ogtp
;	COMDAT ?_Decref@facet@locale@std@@QAEPAV123@XZ
_TEXT	SEGMENT
__Lock$173804 = -4					; size = 4
?_Decref@facet@locale@std@@QAEPAV123@XZ PROC		; std::locale::facet::_Decref, COMDAT
; _this$ = ecx

; 119  : 			{	// safely decrement the reference count, return this when dead

  00000	55		 push	 ebp
  00001	8b ec		 mov	 ebp, esp
  00003	51		 push	 ecx
  00004	56		 push	 esi
  00005	57		 push	 edi
  00006	8b f9		 mov	 edi, ecx

; 120  : 			_BEGIN_LOCK(_LOCK_LOCALE)

  00008	6a 00		 push	 0
  0000a	8d 4d fc	 lea	 ecx, DWORD PTR __Lock$173804[ebp]
  0000d	e8 00 00 00 00	 call	 ??0_Lockit@std@@QAE@H@Z	; std::_Lockit::_Lockit

; 121  : 				if (0 < _Refs && _Refs < (size_t)(-1))

  00012	8b 47 04	 mov	 eax, DWORD PTR [edi+4]
  00015	85 c0		 test	 eax, eax
  00017	74 09		 je	 SHORT $LN1@Decref
  00019	83 f8 ff	 cmp	 eax, -1
  0001c	73 04		 jae	 SHORT $LN1@Decref

; 122  : 					--_Refs;

  0001e	48		 dec	 eax
  0001f	89 47 04	 mov	 DWORD PTR [edi+4], eax
$LN1@Decref:

; 123  : 				return (_Refs == 0 ? this : 0);

  00022	8b 77 04	 mov	 esi, DWORD PTR [edi+4]
  00025	f7 de		 neg	 esi
  00027	1b f6		 sbb	 esi, esi
  00029	f7 d6		 not	 esi
  0002b	8d 4d fc	 lea	 ecx, DWORD PTR __Lock$173804[ebp]
  0002e	23 f7		 and	 esi, edi
  00030	e8 00 00 00 00	 call	 ??1_Lockit@std@@QAE@XZ	; std::_Lockit::~_Lockit
  00035	5f		 pop	 edi
  00036	8b c6		 mov	 eax, esi
  00038	5e		 pop	 esi

; 124  : 			_END_LOCK()
; 125  : 			}

  00039	8b e5		 mov	 esp, ebp
  0003b	5d		 pop	 ebp
  0003c	c3		 ret	 0
?_Decref@facet@locale@std@@QAEPAV123@XZ ENDP		; std::locale::facet::_Decref
_TEXT	ENDS
PUBLIC	?_Register@facet@locale@std@@QAEXXZ		; std::locale::facet::_Register
EXTRN	?_Facet_Register@facet@locale@std@@CAXPAV123@@Z:PROC ; std::locale::facet::_Facet_Register
; Function compile flags: /Ogtp
;	COMDAT ?_Register@facet@locale@std@@QAEXXZ
_TEXT	SEGMENT
?_Register@facet@locale@std@@QAEXXZ PROC		; std::locale::facet::_Register, COMDAT
; _this$ = ecx

; 129  :  #if defined(_M_CEE)
; 130  : 			_Facet_Register_m(this);
; 131  : 
; 132  :  #else /* defined(_M_CEE) */
; 133  : 			_Facet_Register(this);

  00000	51		 push	 ecx
  00001	e8 00 00 00 00	 call	 ?_Facet_Register@facet@locale@std@@CAXPAV123@@Z ; std::locale::facet::_Facet_Register
  00006	59		 pop	 ecx

; 134  :  #endif /* defined(_M_CEE) */
; 135  : 			}

  00007	c3		 ret	 0
?_Register@facet@locale@std@@QAEXXZ ENDP		; std::locale::facet::_Register
_TEXT	ENDS
PUBLIC	??_7facet@locale@std@@6B@			; std::locale::facet::`vftable'
PUBLIC	??1facet@locale@std@@UAE@XZ			; std::locale::facet::~facet
PUBLIC	??_R4facet@locale@std@@6B@			; std::locale::facet::`RTTI Complete Object Locator'
PUBLIC	??_R0?AVfacet@locale@std@@@8			; std::locale::facet `RTTI Type Descriptor'
PUBLIC	??_R3facet@locale@std@@8			; std::locale::facet::`RTTI Class Hierarchy Descriptor'
PUBLIC	??_R2facet@locale@std@@8			; std::locale::facet::`RTTI Base Class Array'
PUBLIC	??_R1A@?0A@EA@facet@locale@std@@8		; std::locale::facet::`RTTI Base Class Descriptor at (0,-1,0,64)'
EXTRN	??_Efacet@locale@std@@UAEPAXI@Z:PROC		; std::locale::facet::`vector deleting destructor'
;	COMDAT ??_R1A@?0A@EA@facet@locale@std@@8
rdata$r	SEGMENT
??_R1A@?0A@EA@facet@locale@std@@8 DD FLAT:??_R0?AVfacet@locale@std@@@8 ; std::locale::facet::`RTTI Base Class Descriptor at (0,-1,0,64)'
	DD	00H
	DD	00H
	DD	0ffffffffH
	DD	00H
	DD	040H
	DD	FLAT:??_R3facet@locale@std@@8
rdata$r	ENDS
;	COMDAT ??_R2facet@locale@std@@8
rdata$r	SEGMENT
??_R2facet@locale@std@@8 DD FLAT:??_R1A@?0A@EA@facet@locale@std@@8 ; std::locale::facet::`RTTI Base Class Array'
rdata$r	ENDS
;	COMDAT ??_R3facet@locale@std@@8
rdata$r	SEGMENT
??_R3facet@locale@std@@8 DD 00H				; std::locale::facet::`RTTI Class Hierarchy Descriptor'
	DD	00H
	DD	01H
	DD	FLAT:??_R2facet@locale@std@@8
rdata$r	ENDS
;	COMDAT ??_R0?AVfacet@locale@std@@@8
_DATA	SEGMENT
??_R0?AVfacet@locale@std@@@8 DD FLAT:??_7type_info@@6B@	; std::locale::facet `RTTI Type Descriptor'
	DD	00H
	DB	'.?AVfacet@locale@std@@', 00H
_DATA	ENDS
;	COMDAT ??_R4facet@locale@std@@6B@
rdata$r	SEGMENT
??_R4facet@locale@std@@6B@ DD 00H			; std::locale::facet::`RTTI Complete Object Locator'
	DD	00H
	DD	00H
	DD	FLAT:??_R0?AVfacet@locale@std@@@8
	DD	FLAT:??_R3facet@locale@std@@8
rdata$r	ENDS
;	COMDAT ??_7facet@locale@std@@6B@
CONST	SEGMENT
??_7facet@locale@std@@6B@ DD FLAT:??_R4facet@locale@std@@6B@ ; std::locale::facet::`vftable'
	DD	FLAT:??_Efacet@locale@std@@UAEPAXI@Z
; Function compile flags: /Ogtp
CONST	ENDS
;	COMDAT ??1facet@locale@std@@UAE@XZ
_TEXT	SEGMENT
??1facet@locale@std@@UAE@XZ PROC			; std::locale::facet::~facet, COMDAT
; _this$ = ecx

; 164  : 			{	// destroy the object

  00000	c7 01 00 00 00
	00		 mov	 DWORD PTR [ecx], OFFSET ??_7facet@locale@std@@6B@

; 165  : 			}

  00006	c3		 ret	 0
??1facet@locale@std@@UAE@XZ ENDP			; std::locale::facet::~facet
_TEXT	ENDS
PUBLIC	??0facet@locale@std@@IAE@I@Z			; std::locale::facet::facet
; Function compile flags: /Ogtp
;	COMDAT ??0facet@locale@std@@IAE@I@Z
_TEXT	SEGMENT
__Initrefs$ = 8						; size = 4
??0facet@locale@std@@IAE@I@Z PROC			; std::locale::facet::facet, COMDAT
; _this$ = ecx

; 170  : 			{	// construct with initial reference count

  00000	55		 push	 ebp
  00001	8b ec		 mov	 ebp, esp
  00003	8b c1		 mov	 eax, ecx
  00005	8b 4d 08	 mov	 ecx, DWORD PTR __Initrefs$[ebp]
  00008	c7 00 00 00 00
	00		 mov	 DWORD PTR [eax], OFFSET ??_7facet@locale@std@@6B@
  0000e	89 48 04	 mov	 DWORD PTR [eax+4], ecx

; 171  : 			}

  00011	5d		 pop	 ebp
  00012	c2 04 00	 ret	 4
??0facet@locale@std@@IAE@I@Z ENDP			; std::locale::facet::facet
_TEXT	ENDS
PUBLIC	??0locale@std@@QAE@ABV01@@Z			; std::locale::locale
; Function compile flags: /Ogtp
;	COMDAT ??0locale@std@@QAE@ABV01@@Z
_TEXT	SEGMENT
__Lock$209480 = 8					; size = 4
__Right$ = 8						; size = 4
??0locale@std@@QAE@ABV01@@Z PROC			; std::locale::locale, COMDAT
; _this$ = ecx

; 309  : 		{	// construct by copying

  00000	55		 push	 ebp
  00001	8b ec		 mov	 ebp, esp
  00003	8b 45 08	 mov	 eax, DWORD PTR __Right$[ebp]
  00006	56		 push	 esi
  00007	8b 30		 mov	 esi, DWORD PTR [eax]
  00009	57		 push	 edi
  0000a	8b f9		 mov	 edi, ecx

; 310  : 		_Ptr->_Incref();

  0000c	6a 00		 push	 0
  0000e	8d 4d 08	 lea	 ecx, DWORD PTR __Lock$209480[ebp]
  00011	89 37		 mov	 DWORD PTR [edi], esi
  00013	e8 00 00 00 00	 call	 ??0_Lockit@std@@QAE@H@Z	; std::_Lockit::_Lockit
  00018	8b 46 04	 mov	 eax, DWORD PTR [esi+4]
  0001b	83 f8 ff	 cmp	 eax, -1
  0001e	73 04		 jae	 SHORT $LN3@locale
  00020	40		 inc	 eax
  00021	89 46 04	 mov	 DWORD PTR [esi+4], eax
$LN3@locale:
  00024	8d 4d 08	 lea	 ecx, DWORD PTR __Lock$209480[ebp]
  00027	e8 00 00 00 00	 call	 ??1_Lockit@std@@QAE@XZ	; std::_Lockit::~_Lockit

; 311  : 		}

  0002c	8b c7		 mov	 eax, edi
  0002e	5f		 pop	 edi
  0002f	5e		 pop	 esi
  00030	5d		 pop	 ebp
  00031	c2 04 00	 ret	 4
??0locale@std@@QAE@ABV01@@Z ENDP			; std::locale::locale
_TEXT	ENDS
PUBLIC	??0locale@std@@QAE@XZ				; std::locale::locale
EXTRN	?_Getgloballocale@locale@std@@CAPAV_Locimp@12@XZ:PROC ; std::locale::_Getgloballocale
EXTRN	?_Init@locale@std@@CAPAV_Locimp@12@XZ:PROC	; std::locale::_Init
; Function compile flags: /Ogtp
;	COMDAT ??0locale@std@@QAE@XZ
_TEXT	SEGMENT
__Lock$209488 = -4					; size = 4
??0locale@std@@QAE@XZ PROC				; std::locale::locale, COMDAT
; _this$ = ecx

; 315  : 		{	// construct from current locale

  00000	55		 push	 ebp
  00001	8b ec		 mov	 ebp, esp
  00003	51		 push	 ecx
  00004	56		 push	 esi
  00005	57		 push	 edi
  00006	8b f9		 mov	 edi, ecx
  00008	e8 00 00 00 00	 call	 ?_Init@locale@std@@CAPAV_Locimp@12@XZ ; std::locale::_Init
  0000d	89 07		 mov	 DWORD PTR [edi], eax

; 316  : 		_Getgloballocale()->_Incref();

  0000f	e8 00 00 00 00	 call	 ?_Getgloballocale@locale@std@@CAPAV_Locimp@12@XZ ; std::locale::_Getgloballocale
  00014	6a 00		 push	 0
  00016	8d 4d fc	 lea	 ecx, DWORD PTR __Lock$209488[ebp]
  00019	8b f0		 mov	 esi, eax
  0001b	e8 00 00 00 00	 call	 ??0_Lockit@std@@QAE@H@Z	; std::_Lockit::_Lockit
  00020	8b 46 04	 mov	 eax, DWORD PTR [esi+4]
  00023	83 f8 ff	 cmp	 eax, -1
  00026	73 04		 jae	 SHORT $LN3@locale@2
  00028	40		 inc	 eax
  00029	89 46 04	 mov	 DWORD PTR [esi+4], eax
$LN3@locale@2:
  0002c	8d 4d fc	 lea	 ecx, DWORD PTR __Lock$209488[ebp]
  0002f	e8 00 00 00 00	 call	 ??1_Lockit@std@@QAE@XZ	; std::_Lockit::~_Lockit

; 317  : 		}

  00034	8b c7		 mov	 eax, edi
  00036	5f		 pop	 edi
  00037	5e		 pop	 esi
  00038	8b e5		 mov	 esp, ebp
  0003a	5d		 pop	 ebp
  0003b	c3		 ret	 0
??0locale@std@@QAE@XZ ENDP				; std::locale::locale
_TEXT	ENDS
PUBLIC	??1locale@std@@QAE@XZ				; std::locale::~locale
; Function compile flags: /Ogtp
;	COMDAT ??1locale@std@@QAE@XZ
_TEXT	SEGMENT
__Lock$209502 = -4					; size = 4
??1locale@std@@QAE@XZ PROC				; std::locale::~locale, COMDAT
; _this$ = ecx

; 409  : 		{	// destroy the object

  00000	55		 push	 ebp
  00001	8b ec		 mov	 ebp, esp
  00003	51		 push	 ecx
  00004	57		 push	 edi

; 410  : 		if (_Ptr != 0)

  00005	8b 39		 mov	 edi, DWORD PTR [ecx]
  00007	85 ff		 test	 edi, edi
  00009	74 3b		 je	 SHORT $LN4@locale@3

; 411  : 			_DELETE_CRT(_Ptr->_Decref());

  0000b	6a 00		 push	 0
  0000d	8d 4d fc	 lea	 ecx, DWORD PTR __Lock$209502[ebp]
  00010	e8 00 00 00 00	 call	 ??0_Lockit@std@@QAE@H@Z	; std::_Lockit::_Lockit
  00015	8b 47 04	 mov	 eax, DWORD PTR [edi+4]
  00018	85 c0		 test	 eax, eax
  0001a	74 09		 je	 SHORT $LN6@locale@3
  0001c	83 f8 ff	 cmp	 eax, -1
  0001f	73 04		 jae	 SHORT $LN6@locale@3
  00021	48		 dec	 eax
  00022	89 47 04	 mov	 DWORD PTR [edi+4], eax
$LN6@locale@3:
  00025	56		 push	 esi
  00026	8b 77 04	 mov	 esi, DWORD PTR [edi+4]
  00029	f7 de		 neg	 esi
  0002b	1b f6		 sbb	 esi, esi
  0002d	8d 4d fc	 lea	 ecx, DWORD PTR __Lock$209502[ebp]
  00030	f7 d6		 not	 esi
  00032	e8 00 00 00 00	 call	 ??1_Lockit@std@@QAE@XZ	; std::_Lockit::~_Lockit
  00037	23 f7		 and	 esi, edi
  00039	74 0a		 je	 SHORT $LN9@locale@3
  0003b	8b 06		 mov	 eax, DWORD PTR [esi]
  0003d	8b 10		 mov	 edx, DWORD PTR [eax]
  0003f	6a 01		 push	 1
  00041	8b ce		 mov	 ecx, esi
  00043	ff d2		 call	 edx
$LN9@locale@3:
  00045	5e		 pop	 esi
$LN4@locale@3:
  00046	5f		 pop	 edi

; 412  : 		}

  00047	8b e5		 mov	 esp, ebp
  00049	5d		 pop	 ebp
  0004a	c3		 ret	 0
??1locale@std@@QAE@XZ ENDP				; std::locale::~locale
_TEXT	ENDS
PUBLIC	?_Getfacet@locale@std@@QBEPBVfacet@12@I@Z	; std::locale::_Getfacet
; Function compile flags: /Ogtp
;	COMDAT ?_Getfacet@locale@std@@QBEPBVfacet@12@I@Z
_TEXT	SEGMENT
__Id$ = 8						; size = 4
?_Getfacet@locale@std@@QBEPBVfacet@12@I@Z PROC		; std::locale::_Getfacet, COMDAT
; _this$ = ecx

; 436  : 		{	// look up a facet in locale object

  00000	55		 push	 ebp
  00001	8b ec		 mov	 ebp, esp

; 437  : 		const facet *_Facptr = _Id < _Ptr->_Facetcount
; 438  : 			? _Ptr->_Facetvec[_Id] : 0;	// null if id off end

  00003	8b 09		 mov	 ecx, DWORD PTR [ecx]
  00005	56		 push	 esi
  00006	8b 75 08	 mov	 esi, DWORD PTR __Id$[ebp]
  00009	3b 71 0c	 cmp	 esi, DWORD PTR [ecx+12]
  0000c	73 25		 jae	 SHORT $LN6@Getfacet
  0000e	8b 41 08	 mov	 eax, DWORD PTR [ecx+8]
  00011	8b 04 b0	 mov	 eax, DWORD PTR [eax+esi*4]

; 439  : 		if (_Facptr != 0 || !_Ptr->_Xparent)

  00014	85 c0		 test	 eax, eax
  00016	75 21		 jne	 SHORT $LN1@Getfacet
$LN10@Getfacet:
  00018	80 79 14 00	 cmp	 BYTE PTR [ecx+20], 0
  0001c	74 1b		 je	 SHORT $LN1@Getfacet

; 440  : 			return (_Facptr);	// found facet or not transparent
; 441  : 		else
; 442  : 			{	// look in current locale
; 443  : 			locale::_Locimp *_Ptr = _Getgloballocale();

  0001e	e8 00 00 00 00	 call	 ?_Getgloballocale@locale@std@@CAPAV_Locimp@12@XZ ; std::locale::_Getgloballocale

; 444  : 			return (_Id < _Ptr->_Facetcount
; 445  : 				? _Ptr->_Facetvec[_Id]	// get from current locale
; 446  : 				: 0);	// no entry in current locale

  00023	3b 70 0c	 cmp	 esi, DWORD PTR [eax+12]
  00026	73 0f		 jae	 SHORT $LN8@Getfacet
  00028	8b 48 08	 mov	 ecx, DWORD PTR [eax+8]
  0002b	8b 04 b1	 mov	 eax, DWORD PTR [ecx+esi*4]
  0002e	5e		 pop	 esi

; 447  : 			}
; 448  : 		}

  0002f	5d		 pop	 ebp
  00030	c2 04 00	 ret	 4
$LN6@Getfacet:

; 437  : 		const facet *_Facptr = _Id < _Ptr->_Facetcount
; 438  : 			? _Ptr->_Facetvec[_Id] : 0;	// null if id off end

  00033	33 c0		 xor	 eax, eax

; 439  : 		if (_Facptr != 0 || !_Ptr->_Xparent)

  00035	eb e1		 jmp	 SHORT $LN10@Getfacet
$LN8@Getfacet:

; 444  : 			return (_Id < _Ptr->_Facetcount
; 445  : 				? _Ptr->_Facetvec[_Id]	// get from current locale
; 446  : 				: 0);	// no entry in current locale

  00037	33 c0		 xor	 eax, eax
$LN1@Getfacet:
  00039	5e		 pop	 esi

; 447  : 			}
; 448  : 		}

  0003a	5d		 pop	 ebp
  0003b	c2 04 00	 ret	 4
?_Getfacet@locale@std@@QBEPBVfacet@12@I@Z ENDP		; std::locale::_Getfacet
; Function compile flags: /Ogtp
_TEXT	ENDS
;	COMDAT ??_Gfacet@locale@std@@UAEPAXI@Z
_TEXT	SEGMENT
___flags$ = 8						; size = 4
??_Gfacet@locale@std@@UAEPAXI@Z PROC			; std::locale::facet::`scalar deleting destructor', COMDAT
; _this$ = ecx
  00000	55		 push	 ebp
  00001	8b ec		 mov	 ebp, esp
  00003	f6 45 08 01	 test	 BYTE PTR ___flags$[ebp], 1
  00007	56		 push	 esi
  00008	8b f1		 mov	 esi, ecx
  0000a	c7 06 00 00 00
	00		 mov	 DWORD PTR [esi], OFFSET ??_7facet@locale@std@@6B@
  00010	74 09		 je	 SHORT $LN6@scalar@2
  00012	56		 push	 esi
  00013	e8 00 00 00 00	 call	 ??3@YAXPAX@Z		; operator delete
  00018	83 c4 04	 add	 esp, 4
$LN6@scalar@2:
  0001b	8b c6		 mov	 eax, esi
  0001d	5e		 pop	 esi
  0001e	5d		 pop	 ebp
  0001f	c2 04 00	 ret	 4
??_Gfacet@locale@std@@UAEPAXI@Z ENDP			; std::locale::facet::`scalar deleting destructor'
_TEXT	ENDS
PUBLIC	??_7codecvt_base@std@@6B@			; std::codecvt_base::`vftable'
PUBLIC	??0codecvt_base@std@@QAE@I@Z			; std::codecvt_base::codecvt_base
PUBLIC	??_R4codecvt_base@std@@6B@			; std::codecvt_base::`RTTI Complete Object Locator'
PUBLIC	??_R0?AVcodecvt_base@std@@@8			; std::codecvt_base `RTTI Type Descriptor'
PUBLIC	??_R3codecvt_base@std@@8			; std::codecvt_base::`RTTI Class Hierarchy Descriptor'
PUBLIC	??_R2codecvt_base@std@@8			; std::codecvt_base::`RTTI Base Class Array'
PUBLIC	??_R1A@?0A@EA@codecvt_base@std@@8		; std::codecvt_base::`RTTI Base Class Descriptor at (0,-1,0,64)'
PUBLIC	?do_always_noconv@codecvt_base@std@@MBE_NXZ	; std::codecvt_base::do_always_noconv
PUBLIC	?do_max_length@codecvt_base@std@@MBEHXZ		; std::codecvt_base::do_max_length
PUBLIC	?do_encoding@codecvt_base@std@@MBEHXZ		; std::codecvt_base::do_encoding
EXTRN	??_Ecodecvt_base@std@@UAEPAXI@Z:PROC		; std::codecvt_base::`vector deleting destructor'
;	COMDAT ??_R1A@?0A@EA@codecvt_base@std@@8
rdata$r	SEGMENT
??_R1A@?0A@EA@codecvt_base@std@@8 DD FLAT:??_R0?AVcodecvt_base@std@@@8 ; std::codecvt_base::`RTTI Base Class Descriptor at (0,-1,0,64)'
	DD	01H
	DD	00H
	DD	0ffffffffH
	DD	00H
	DD	040H
	DD	FLAT:??_R3codecvt_base@std@@8
rdata$r	ENDS
;	COMDAT ??_R2codecvt_base@std@@8
rdata$r	SEGMENT
??_R2codecvt_base@std@@8 DD FLAT:??_R1A@?0A@EA@codecvt_base@std@@8 ; std::codecvt_base::`RTTI Base Class Array'
	DD	FLAT:??_R1A@?0A@EA@facet@locale@std@@8
rdata$r	ENDS
;	COMDAT ??_R3codecvt_base@std@@8
rdata$r	SEGMENT
??_R3codecvt_base@std@@8 DD 00H				; std::codecvt_base::`RTTI Class Hierarchy Descriptor'
	DD	00H
	DD	02H
	DD	FLAT:??_R2codecvt_base@std@@8
rdata$r	ENDS
;	COMDAT ??_R0?AVcodecvt_base@std@@@8
_DATA	SEGMENT
??_R0?AVcodecvt_base@std@@@8 DD FLAT:??_7type_info@@6B@	; std::codecvt_base `RTTI Type Descriptor'
	DD	00H
	DB	'.?AVcodecvt_base@std@@', 00H
_DATA	ENDS
;	COMDAT ??_R4codecvt_base@std@@6B@
rdata$r	SEGMENT
??_R4codecvt_base@std@@6B@ DD 00H			; std::codecvt_base::`RTTI Complete Object Locator'
	DD	00H
	DD	00H
	DD	FLAT:??_R0?AVcodecvt_base@std@@@8
	DD	FLAT:??_R3codecvt_base@std@@8
rdata$r	ENDS
;	COMDAT ??_7codecvt_base@std@@6B@
CONST	SEGMENT
??_7codecvt_base@std@@6B@ DD FLAT:??_R4codecvt_base@std@@6B@ ; std::codecvt_base::`vftable'
	DD	FLAT:??_Ecodecvt_base@std@@UAEPAXI@Z
	DD	FLAT:?do_always_noconv@codecvt_base@std@@MBE_NXZ
	DD	FLAT:?do_max_length@codecvt_base@std@@MBEHXZ
	DD	FLAT:?do_encoding@codecvt_base@std@@MBEHXZ
; Function compile flags: /Ogtp
CONST	ENDS
;	COMDAT ??0codecvt_base@std@@QAE@I@Z
_TEXT	SEGMENT
__Refs$ = 8						; size = 4
??0codecvt_base@std@@QAE@I@Z PROC			; std::codecvt_base::codecvt_base, COMDAT
; _this$ = ecx

; 752  : 		{	// default constructor

  00000	55		 push	 ebp
  00001	8b ec		 mov	 ebp, esp
  00003	8b c1		 mov	 eax, ecx
  00005	8b 4d 08	 mov	 ecx, DWORD PTR __Refs$[ebp]
  00008	89 48 04	 mov	 DWORD PTR [eax+4], ecx
  0000b	c7 00 00 00 00
	00		 mov	 DWORD PTR [eax], OFFSET ??_7codecvt_base@std@@6B@

; 753  : 		}

  00011	5d		 pop	 ebp
  00012	c2 04 00	 ret	 4
??0codecvt_base@std@@QAE@I@Z ENDP			; std::codecvt_base::codecvt_base
_TEXT	ENDS
PUBLIC	?always_noconv@codecvt_base@std@@QBE_NXZ	; std::codecvt_base::always_noconv
; Function compile flags: /Ogtp
;	COMDAT ?always_noconv@codecvt_base@std@@QBE_NXZ
_TEXT	SEGMENT
?always_noconv@codecvt_base@std@@QBE_NXZ PROC		; std::codecvt_base::always_noconv, COMDAT
; _this$ = ecx

; 757  : 		return (do_always_noconv());

  00000	8b 01		 mov	 eax, DWORD PTR [ecx]
  00002	8b 50 04	 mov	 edx, DWORD PTR [eax+4]
  00005	ff e2		 jmp	 edx
?always_noconv@codecvt_base@std@@QBE_NXZ ENDP		; std::codecvt_base::always_noconv
_TEXT	ENDS
PUBLIC	??1codecvt_base@std@@UAE@XZ			; std::codecvt_base::~codecvt_base
; Function compile flags: /Ogtp
;	COMDAT ??1codecvt_base@std@@UAE@XZ
_TEXT	SEGMENT
??1codecvt_base@std@@UAE@XZ PROC			; std::codecvt_base::~codecvt_base, COMDAT
; _this$ = ecx

; 772  : 		}

  00000	c7 01 00 00 00
	00		 mov	 DWORD PTR [ecx], OFFSET ??_7facet@locale@std@@6B@
  00006	c3		 ret	 0
??1codecvt_base@std@@UAE@XZ ENDP			; std::codecvt_base::~codecvt_base
; Function compile flags: /Ogtp
_TEXT	ENDS
;	COMDAT ?do_always_noconv@codecvt_base@std@@MBE_NXZ
_TEXT	SEGMENT
?do_always_noconv@codecvt_base@std@@MBE_NXZ PROC	; std::codecvt_base::do_always_noconv, COMDAT
; _this$ = ecx

; 777  : 		return (true);

  00000	b0 01		 mov	 al, 1

; 778  : 		}

  00002	c3		 ret	 0
?do_always_noconv@codecvt_base@std@@MBE_NXZ ENDP	; std::codecvt_base::do_always_noconv
; Function compile flags: /Ogtp
_TEXT	ENDS
;	COMDAT ?do_max_length@codecvt_base@std@@MBEHXZ
_TEXT	SEGMENT
?do_max_length@codecvt_base@std@@MBEHXZ PROC		; std::codecvt_base::do_max_length, COMDAT
; _this$ = ecx

; 782  : 		return (1);

  00000	b8 01 00 00 00	 mov	 eax, 1

; 783  : 		}

  00005	c3		 ret	 0
?do_max_length@codecvt_base@std@@MBEHXZ ENDP		; std::codecvt_base::do_max_length
; Function compile flags: /Ogtp
_TEXT	ENDS
;	COMDAT ?do_encoding@codecvt_base@std@@MBEHXZ
_TEXT	SEGMENT
?do_encoding@codecvt_base@std@@MBEHXZ PROC		; std::codecvt_base::do_encoding, COMDAT
; _this$ = ecx

; 787  : 		return (1);	// -1 ==> state dependent, 0 ==> varying length

  00000	b8 01 00 00 00	 mov	 eax, 1

; 788  : 		}

  00005	c3		 ret	 0
?do_encoding@codecvt_base@std@@MBEHXZ ENDP		; std::codecvt_base::do_encoding
; Function compile flags: /Ogtp
_TEXT	ENDS
;	COMDAT ??_Gcodecvt_base@std@@UAEPAXI@Z
_TEXT	SEGMENT
___flags$ = 8						; size = 4
??_Gcodecvt_base@std@@UAEPAXI@Z PROC			; std::codecvt_base::`scalar deleting destructor', COMDAT
; _this$ = ecx
  00000	55		 push	 ebp
  00001	8b ec		 mov	 ebp, esp
  00003	f6 45 08 01	 test	 BYTE PTR ___flags$[ebp], 1
  00007	56		 push	 esi
  00008	8b f1		 mov	 esi, ecx
  0000a	c7 06 00 00 00
	00		 mov	 DWORD PTR [esi], OFFSET ??_7facet@locale@std@@6B@
  00010	74 09		 je	 SHORT $LN8@scalar@3
  00012	56		 push	 esi
  00013	e8 00 00 00 00	 call	 ??3@YAXPAX@Z		; operator delete
  00018	83 c4 04	 add	 esp, 4
$LN8@scalar@3:
  0001b	8b c6		 mov	 eax, esi
  0001d	5e		 pop	 esi
  0001e	5d		 pop	 ebp
  0001f	c2 04 00	 ret	 4
??_Gcodecvt_base@std@@UAEPAXI@Z ENDP			; std::codecvt_base::`scalar deleting destructor'
_TEXT	ENDS
PUBLIC	??_7ctype_base@std@@6B@				; std::ctype_base::`vftable'
PUBLIC	??0ctype_base@std@@QAE@I@Z			; std::ctype_base::ctype_base
PUBLIC	??_R4ctype_base@std@@6B@			; std::ctype_base::`RTTI Complete Object Locator'
PUBLIC	??_R0?AUctype_base@std@@@8			; std::ctype_base `RTTI Type Descriptor'
PUBLIC	??_R3ctype_base@std@@8				; std::ctype_base::`RTTI Class Hierarchy Descriptor'
PUBLIC	??_R2ctype_base@std@@8				; std::ctype_base::`RTTI Base Class Array'
PUBLIC	??_R1A@?0A@EA@ctype_base@std@@8			; std::ctype_base::`RTTI Base Class Descriptor at (0,-1,0,64)'
EXTRN	??_Ectype_base@std@@UAEPAXI@Z:PROC		; std::ctype_base::`vector deleting destructor'
;	COMDAT ??_R1A@?0A@EA@ctype_base@std@@8
rdata$r	SEGMENT
??_R1A@?0A@EA@ctype_base@std@@8 DD FLAT:??_R0?AUctype_base@std@@@8 ; std::ctype_base::`RTTI Base Class Descriptor at (0,-1,0,64)'
	DD	01H
	DD	00H
	DD	0ffffffffH
	DD	00H
	DD	040H
	DD	FLAT:??_R3ctype_base@std@@8
rdata$r	ENDS
;	COMDAT ??_R2ctype_base@std@@8
rdata$r	SEGMENT
??_R2ctype_base@std@@8 DD FLAT:??_R1A@?0A@EA@ctype_base@std@@8 ; std::ctype_base::`RTTI Base Class Array'
	DD	FLAT:??_R1A@?0A@EA@facet@locale@std@@8
rdata$r	ENDS
;	COMDAT ??_R3ctype_base@std@@8
rdata$r	SEGMENT
??_R3ctype_base@std@@8 DD 00H				; std::ctype_base::`RTTI Class Hierarchy Descriptor'
	DD	00H
	DD	02H
	DD	FLAT:??_R2ctype_base@std@@8
rdata$r	ENDS
;	COMDAT ??_R0?AUctype_base@std@@@8
_DATA	SEGMENT
??_R0?AUctype_base@std@@@8 DD FLAT:??_7type_info@@6B@	; std::ctype_base `RTTI Type Descriptor'
	DD	00H
	DB	'.?AUctype_base@std@@', 00H
_DATA	ENDS
;	COMDAT ??_R4ctype_base@std@@6B@
rdata$r	SEGMENT
??_R4ctype_base@std@@6B@ DD 00H				; std::ctype_base::`RTTI Complete Object Locator'
	DD	00H
	DD	00H
	DD	FLAT:??_R0?AUctype_base@std@@@8
	DD	FLAT:??_R3ctype_base@std@@8
rdata$r	ENDS
;	COMDAT ??_7ctype_base@std@@6B@
CONST	SEGMENT
??_7ctype_base@std@@6B@ DD FLAT:??_R4ctype_base@std@@6B@ ; std::ctype_base::`vftable'
	DD	FLAT:??_Ectype_base@std@@UAEPAXI@Z
; Function compile flags: /Ogtp
CONST	ENDS
;	COMDAT ??0ctype_base@std@@QAE@I@Z
_TEXT	SEGMENT
__Refs$ = 8						; size = 4
??0ctype_base@std@@QAE@I@Z PROC				; std::ctype_base::ctype_base, COMDAT
; _this$ = ecx

; 2011 : 		{	// default constructor

  00000	55		 push	 ebp
  00001	8b ec		 mov	 ebp, esp
  00003	8b c1		 mov	 eax, ecx
  00005	8b 4d 08	 mov	 ecx, DWORD PTR __Refs$[ebp]
  00008	89 48 04	 mov	 DWORD PTR [eax+4], ecx
  0000b	c7 00 00 00 00
	00		 mov	 DWORD PTR [eax], OFFSET ??_7ctype_base@std@@6B@

; 2012 : 		}

  00011	5d		 pop	 ebp
  00012	c2 04 00	 ret	 4
??0ctype_base@std@@QAE@I@Z ENDP				; std::ctype_base::ctype_base
_TEXT	ENDS
PUBLIC	??1ctype_base@std@@UAE@XZ			; std::ctype_base::~ctype_base
; Function compile flags: /Ogtp
;	COMDAT ??1ctype_base@std@@UAE@XZ
_TEXT	SEGMENT
??1ctype_base@std@@UAE@XZ PROC				; std::ctype_base::~ctype_base, COMDAT
; _this$ = ecx

; 2016 : 		}

  00000	c7 01 00 00 00
	00		 mov	 DWORD PTR [ecx], OFFSET ??_7facet@locale@std@@6B@
  00006	c3		 ret	 0
??1ctype_base@std@@UAE@XZ ENDP				; std::ctype_base::~ctype_base
; Function compile flags: /Ogtp
_TEXT	ENDS
;	COMDAT ??_Gctype_base@std@@UAEPAXI@Z
_TEXT	SEGMENT
___flags$ = 8						; size = 4
??_Gctype_base@std@@UAEPAXI@Z PROC			; std::ctype_base::`scalar deleting destructor', COMDAT
; _this$ = ecx
  00000	55		 push	 ebp
  00001	8b ec		 mov	 ebp, esp
  00003	f6 45 08 01	 test	 BYTE PTR ___flags$[ebp], 1
  00007	56		 push	 esi
  00008	8b f1		 mov	 esi, ecx
  0000a	c7 06 00 00 00
	00		 mov	 DWORD PTR [esi], OFFSET ??_7facet@locale@std@@6B@
  00010	74 09		 je	 SHORT $LN8@scalar@4
  00012	56		 push	 esi
  00013	e8 00 00 00 00	 call	 ??3@YAXPAX@Z		; operator delete
  00018	83 c4 04	 add	 esp, 4
$LN8@scalar@4:
  0001b	8b c6		 mov	 eax, esi
  0001d	5e		 pop	 esi
  0001e	5d		 pop	 ebp
  0001f	c2 04 00	 ret	 4
??_Gctype_base@std@@UAEPAXI@Z ENDP			; std::ctype_base::`scalar deleting destructor'
_TEXT	ENDS
PUBLIC	?widen@?$ctype@D@std@@QBEDD@Z			; std::ctype<char>::widen
; Function compile flags: /Ogtp
;	COMDAT ?widen@?$ctype@D@std@@QBEDD@Z
_TEXT	SEGMENT
__Byte$ = 8						; size = 1
?widen@?$ctype@D@std@@QBEDD@Z PROC			; std::ctype<char>::widen, COMDAT
; _this$ = ecx

; 2324 : 		{	// widen char

  00000	55		 push	 ebp
  00001	8b ec		 mov	 ebp, esp

; 2325 : 		return (do_widen(_Byte));

  00003	8b 01		 mov	 eax, DWORD PTR [ecx]
  00005	8b 40 18	 mov	 eax, DWORD PTR [eax+24]

; 2326 : 		}

  00008	5d		 pop	 ebp

; 2325 : 		return (do_widen(_Byte));

  00009	ff e0		 jmp	 eax
?widen@?$ctype@D@std@@QBEDD@Z ENDP			; std::ctype<char>::widen
_TEXT	ENDS
PUBLIC	?_Init@?$ctype@D@std@@IAEXABV_Locinfo@2@@Z	; std::ctype<char>::_Init
; Function compile flags: /Ogtp
;	COMDAT ?_Init@?$ctype@D@std@@IAEXABV_Locinfo@2@@Z
_TEXT	SEGMENT
$T209592 = -16						; size = 16
__Lobj$ = 8						; size = 4
?_Init@?$ctype@D@std@@IAEXABV_Locinfo@2@@Z PROC		; std::ctype<char>::_Init, COMDAT
; _this$ = ecx

; 2399 : 		{	// initialize from _Lobj

  00000	55		 push	 ebp
  00001	8b ec		 mov	 ebp, esp
  00003	83 ec 10	 sub	 esp, 16			; 00000010H
  00006	56		 push	 esi

; 2400 : 		_Ctype = _Lobj._Getctype();

  00007	8d 45 f0	 lea	 eax, DWORD PTR $T209592[ebp]
  0000a	50		 push	 eax
  0000b	8b f1		 mov	 esi, ecx
  0000d	e8 00 00 00 00	 call	 __Getctype
  00012	8b 08		 mov	 ecx, DWORD PTR [eax]
  00014	89 4e 08	 mov	 DWORD PTR [esi+8], ecx
  00017	8b 50 04	 mov	 edx, DWORD PTR [eax+4]
  0001a	89 56 0c	 mov	 DWORD PTR [esi+12], edx
  0001d	8b 48 08	 mov	 ecx, DWORD PTR [eax+8]
  00020	89 4e 10	 mov	 DWORD PTR [esi+16], ecx
  00023	8b 50 0c	 mov	 edx, DWORD PTR [eax+12]
  00026	83 c4 04	 add	 esp, 4
  00029	89 56 14	 mov	 DWORD PTR [esi+20], edx
  0002c	5e		 pop	 esi

; 2401 : 		}

  0002d	8b e5		 mov	 esp, ebp
  0002f	5d		 pop	 ebp
  00030	c2 04 00	 ret	 4
?_Init@?$ctype@D@std@@IAEXABV_Locinfo@2@@Z ENDP		; std::ctype<char>::_Init
_TEXT	ENDS
PUBLIC	??0error_code@std@@QAE@HABVerror_category@1@@Z	; std::error_code::error_code
; Function compile flags: /Ogtp
; File d:\program files (x86)\microsoft visual studio 10.0\vc\include\system_error
;	COMDAT ??0error_code@std@@QAE@HABVerror_category@1@@Z
_TEXT	SEGMENT
__Val$ = 8						; size = 4
__Cat$ = 12						; size = 4
??0error_code@std@@QAE@HABVerror_category@1@@Z PROC	; std::error_code::error_code, COMDAT
; _this$ = ecx

; 204  : 		{	// construct from error code and category

  00000	55		 push	 ebp
  00001	8b ec		 mov	 ebp, esp
  00003	8b 55 0c	 mov	 edx, DWORD PTR __Cat$[ebp]
  00006	8b c1		 mov	 eax, ecx
  00008	8b 4d 08	 mov	 ecx, DWORD PTR __Val$[ebp]
  0000b	89 08		 mov	 DWORD PTR [eax], ecx
  0000d	89 50 04	 mov	 DWORD PTR [eax+4], edx

; 205  : 		}

  00010	5d		 pop	 ebp
  00011	c2 08 00	 ret	 8
??0error_code@std@@QAE@HABVerror_category@1@@Z ENDP	; std::error_code::error_code
_TEXT	ENDS
PUBLIC	?make_error_code@std@@YA?AVerror_code@1@W4io_errc@31@@Z ; std::make_error_code
EXTRN	?iostream_category@std@@YAABVerror_category@1@XZ:PROC ; std::iostream_category
; Function compile flags: /Ogtp
;	COMDAT ?make_error_code@std@@YA?AVerror_code@1@W4io_errc@31@@Z
_TEXT	SEGMENT
___$ReturnUdt$ = 8					; size = 4
__Errno$ = 12						; size = 4
?make_error_code@std@@YA?AVerror_code@1@W4io_errc@31@@Z PROC ; std::make_error_code, COMDAT

; 446  : 	{	// make an error_code

  00000	55		 push	 ebp
  00001	8b ec		 mov	 ebp, esp

; 447  : 	return (error_code(_Errno, iostream_category()));

  00003	e8 00 00 00 00	 call	 ?iostream_category@std@@YAABVerror_category@1@XZ ; std::iostream_category
  00008	8b 55 0c	 mov	 edx, DWORD PTR __Errno$[ebp]
  0000b	8b c8		 mov	 ecx, eax
  0000d	8b 45 08	 mov	 eax, DWORD PTR ___$ReturnUdt$[ebp]
  00010	89 10		 mov	 DWORD PTR [eax], edx
  00012	89 48 04	 mov	 DWORD PTR [eax+4], ecx

; 448  : 	}

  00015	5d		 pop	 ebp
  00016	c3		 ret	 0
?make_error_code@std@@YA?AVerror_code@1@W4io_errc@31@@Z ENDP ; std::make_error_code
_TEXT	ENDS
PUBLIC	?_Makestr@system_error@std@@AAEXXZ		; std::system_error::_Makestr
; Function compile flags: /Ogtp
;	COMDAT ?_Makestr@system_error@std@@AAEXXZ
_TEXT	SEGMENT
?_Makestr@system_error@std@@AAEXXZ PROC			; std::system_error::_Makestr, COMDAT
; _this$ = ecx

; 563  : //		_Mymes = this->runtime_error::what();
; 564  : //		if (!_Mymes.empty())
; 565  : //			_Mymes.append(": ");
; 566  : //		_Mymes.append(_Mycode.message());
; 567  : 		}

  00000	c3		 ret	 0
?_Makestr@system_error@std@@AAEXXZ ENDP			; std::system_error::_Makestr
_TEXT	ENDS
PUBLIC	??1system_error@std@@UAE@XZ			; std::system_error::~system_error
; Function compile flags: /Ogtp
;	COMDAT ??1system_error@std@@UAE@XZ
_TEXT	SEGMENT
??1system_error@std@@UAE@XZ PROC			; std::system_error::~system_error, COMDAT
; _this$ = ecx
  00000	e9 00 00 00 00	 jmp	 ??1exception@std@@UAE@XZ ; std::exception::~exception
??1system_error@std@@UAE@XZ ENDP			; std::system_error::~system_error
_TEXT	ENDS
PUBLIC	?rdstate@ios_base@std@@QBEHXZ			; std::ios_base::rdstate
; Function compile flags: /Ogtp
; File d:\program files (x86)\microsoft visual studio 10.0\vc\include\xiosbase
;	COMDAT ?rdstate@ios_base@std@@QBEHXZ
_TEXT	SEGMENT
?rdstate@ios_base@std@@QBEHXZ PROC			; std::ios_base::rdstate, COMDAT
; _this$ = ecx

; 336  : 		return (_Mystate);

  00000	8b 41 0c	 mov	 eax, DWORD PTR [ecx+12]

; 337  : 		}

  00003	c3		 ret	 0
?rdstate@ios_base@std@@QBEHXZ ENDP			; std::ios_base::rdstate
_TEXT	ENDS
PUBLIC	?good@ios_base@std@@QBE_NXZ			; std::ios_base::good
; Function compile flags: /Ogtp
;	COMDAT ?good@ios_base@std@@QBE_NXZ
_TEXT	SEGMENT
?good@ios_base@std@@QBE_NXZ PROC			; std::ios_base::good, COMDAT
; _this$ = ecx

; 358  : 		return (rdstate() == goodbit);

  00000	33 c0		 xor	 eax, eax
  00002	39 41 0c	 cmp	 DWORD PTR [ecx+12], eax
  00005	0f 94 c0	 sete	 al

; 359  : 		}

  00008	c3		 ret	 0
?good@ios_base@std@@QBE_NXZ ENDP			; std::ios_base::good
_TEXT	ENDS
PUBLIC	?fail@ios_base@std@@QBE_NXZ			; std::ios_base::fail
; Function compile flags: /Ogtp
;	COMDAT ?fail@ios_base@std@@QBE_NXZ
_TEXT	SEGMENT
?fail@ios_base@std@@QBE_NXZ PROC			; std::ios_base::fail, COMDAT
; _this$ = ecx

; 368  : 		return (((int)rdstate()
; 369  : 			& ((int)badbit | (int)failbit)) != 0);

  00000	f6 41 0c 06	 test	 BYTE PTR [ecx+12], 6
  00004	b8 00 00 00 00	 mov	 eax, 0
  00009	0f 95 c0	 setne	 al

; 370  : 		}

  0000c	c3		 ret	 0
?fail@ios_base@std@@QBE_NXZ ENDP			; std::ios_base::fail
_TEXT	ENDS
PUBLIC	?flags@ios_base@std@@QBEHXZ			; std::ios_base::flags
; Function compile flags: /Ogtp
;	COMDAT ?flags@ios_base@std@@QBEHXZ
_TEXT	SEGMENT
?flags@ios_base@std@@QBEHXZ PROC			; std::ios_base::flags, COMDAT
; _this$ = ecx

; 395  : 		return (_Fmtfl);

  00000	8b 41 14	 mov	 eax, DWORD PTR [ecx+20]

; 396  : 		}

  00003	c3		 ret	 0
?flags@ios_base@std@@QBEHXZ ENDP			; std::ios_base::flags
_TEXT	ENDS
PUBLIC	?width@ios_base@std@@QBE_JXZ			; std::ios_base::width
; Function compile flags: /Ogtp
;	COMDAT ?width@ios_base@std@@QBE_JXZ
_TEXT	SEGMENT
?width@ios_base@std@@QBE_JXZ PROC			; std::ios_base::width, COMDAT
; _this$ = ecx

; 440  : 		return (_Wide);

  00000	8b 41 20	 mov	 eax, DWORD PTR [ecx+32]
  00003	8b 51 24	 mov	 edx, DWORD PTR [ecx+36]

; 441  : 		}

  00006	c3		 ret	 0
?width@ios_base@std@@QBE_JXZ ENDP			; std::ios_base::width
_TEXT	ENDS
PUBLIC	?width@ios_base@std@@QAE_J_J@Z			; std::ios_base::width
; Function compile flags: /Ogtp
;	COMDAT ?width@ios_base@std@@QAE_J_J@Z
_TEXT	SEGMENT
__Newwidth$ = 8						; size = 8
?width@ios_base@std@@QAE_J_J@Z PROC			; std::ios_base::width, COMDAT
; _this$ = ecx

; 444  : 		{	// set width to argument

  00000	55		 push	 ebp
  00001	8b ec		 mov	 ebp, esp

; 445  : 		streamsize _Oldwidth = _Wide;

  00003	8b 41 20	 mov	 eax, DWORD PTR [ecx+32]
  00006	8b 51 24	 mov	 edx, DWORD PTR [ecx+36]
  00009	56		 push	 esi

; 446  : 		_Wide = _Newwidth;

  0000a	8b 75 08	 mov	 esi, DWORD PTR __Newwidth$[ebp]
  0000d	89 71 20	 mov	 DWORD PTR [ecx+32], esi
  00010	8b 75 0c	 mov	 esi, DWORD PTR __Newwidth$[ebp+4]
  00013	89 71 24	 mov	 DWORD PTR [ecx+36], esi
  00016	5e		 pop	 esi

; 447  : 		return (_Oldwidth);
; 448  : 		}

  00017	5d		 pop	 ebp
  00018	c2 08 00	 ret	 8
?width@ios_base@std@@QAE_J_J@Z ENDP			; std::ios_base::width
_TEXT	ENDS
PUBLIC	?getloc@ios_base@std@@QBE?AVlocale@2@XZ		; std::ios_base::getloc
; Function compile flags: /Ogtp
;	COMDAT ?getloc@ios_base@std@@QBE?AVlocale@2@XZ
_TEXT	SEGMENT
$T209641 = -4						; size = 4
__Lock$209653 = 8					; size = 4
___$ReturnUdt$ = 8					; size = 4
?getloc@ios_base@std@@QBE?AVlocale@2@XZ PROC		; std::ios_base::getloc, COMDAT
; _this$ = ecx

; 451  : 		{	// get locale

  00000	55		 push	 ebp
  00001	8b ec		 mov	 ebp, esp
  00003	51		 push	 ecx

; 452  : 		return (*_Ploc);

  00004	8b 41 30	 mov	 eax, DWORD PTR [ecx+48]
  00007	56		 push	 esi
  00008	8b 30		 mov	 esi, DWORD PTR [eax]
  0000a	57		 push	 edi
  0000b	8b 7d 08	 mov	 edi, DWORD PTR ___$ReturnUdt$[ebp]
  0000e	6a 00		 push	 0
  00010	8d 4d 08	 lea	 ecx, DWORD PTR __Lock$209653[ebp]
  00013	c7 45 fc 00 00
	00 00		 mov	 DWORD PTR $T209641[ebp], 0
  0001a	89 37		 mov	 DWORD PTR [edi], esi
  0001c	e8 00 00 00 00	 call	 ??0_Lockit@std@@QAE@H@Z	; std::_Lockit::_Lockit
  00021	8b 46 04	 mov	 eax, DWORD PTR [esi+4]
  00024	83 f8 ff	 cmp	 eax, -1
  00027	73 04		 jae	 SHORT $LN7@getloc
  00029	40		 inc	 eax
  0002a	89 46 04	 mov	 DWORD PTR [esi+4], eax
$LN7@getloc:
  0002d	8d 4d 08	 lea	 ecx, DWORD PTR __Lock$209653[ebp]
  00030	e8 00 00 00 00	 call	 ??1_Lockit@std@@QAE@XZ	; std::_Lockit::~_Lockit
  00035	8b c7		 mov	 eax, edi
  00037	5f		 pop	 edi
  00038	5e		 pop	 esi

; 453  : 		}

  00039	8b e5		 mov	 esp, ebp
  0003b	5d		 pop	 ebp
  0003c	c2 04 00	 ret	 4
?getloc@ios_base@std@@QBE?AVlocale@2@XZ ENDP		; std::ios_base::getloc
_TEXT	ENDS
PUBLIC	??_7ios_base@std@@6B@				; std::ios_base::`vftable'
PUBLIC	??1ios_base@std@@UAE@XZ				; std::ios_base::~ios_base
PUBLIC	??_R4ios_base@std@@6B@				; std::ios_base::`RTTI Complete Object Locator'
PUBLIC	??_R0?AVios_base@std@@@8			; std::ios_base `RTTI Type Descriptor'
PUBLIC	??_R3ios_base@std@@8				; std::ios_base::`RTTI Class Hierarchy Descriptor'
PUBLIC	??_R2ios_base@std@@8				; std::ios_base::`RTTI Base Class Array'
PUBLIC	??_R1A@?0A@EA@ios_base@std@@8			; std::ios_base::`RTTI Base Class Descriptor at (0,-1,0,64)'
PUBLIC	??_R17?0A@EA@?$_Iosb@H@std@@8			; std::_Iosb<int>::`RTTI Base Class Descriptor at (8,-1,0,64)'
PUBLIC	??_R0?AV?$_Iosb@H@std@@@8			; std::_Iosb<int> `RTTI Type Descriptor'
PUBLIC	??_R3?$_Iosb@H@std@@8				; std::_Iosb<int>::`RTTI Class Hierarchy Descriptor'
PUBLIC	??_R2?$_Iosb@H@std@@8				; std::_Iosb<int>::`RTTI Base Class Array'
PUBLIC	??_R1A@?0A@EA@?$_Iosb@H@std@@8			; std::_Iosb<int>::`RTTI Base Class Descriptor at (0,-1,0,64)'
EXTRN	?_Ios_base_dtor@ios_base@std@@CAXPAV12@@Z:PROC	; std::ios_base::_Ios_base_dtor
EXTRN	??_Eios_base@std@@UAEPAXI@Z:PROC		; std::ios_base::`vector deleting destructor'
;	COMDAT ??_R1A@?0A@EA@?$_Iosb@H@std@@8
rdata$r	SEGMENT
??_R1A@?0A@EA@?$_Iosb@H@std@@8 DD FLAT:??_R0?AV?$_Iosb@H@std@@@8 ; std::_Iosb<int>::`RTTI Base Class Descriptor at (0,-1,0,64)'
	DD	00H
	DD	00H
	DD	0ffffffffH
	DD	00H
	DD	040H
	DD	FLAT:??_R3?$_Iosb@H@std@@8
rdata$r	ENDS
;	COMDAT ??_R2?$_Iosb@H@std@@8
rdata$r	SEGMENT
??_R2?$_Iosb@H@std@@8 DD FLAT:??_R1A@?0A@EA@?$_Iosb@H@std@@8 ; std::_Iosb<int>::`RTTI Base Class Array'
rdata$r	ENDS
;	COMDAT ??_R3?$_Iosb@H@std@@8
rdata$r	SEGMENT
??_R3?$_Iosb@H@std@@8 DD 00H				; std::_Iosb<int>::`RTTI Class Hierarchy Descriptor'
	DD	00H
	DD	01H
	DD	FLAT:??_R2?$_Iosb@H@std@@8
rdata$r	ENDS
;	COMDAT ??_R0?AV?$_Iosb@H@std@@@8
_DATA	SEGMENT
??_R0?AV?$_Iosb@H@std@@@8 DD FLAT:??_7type_info@@6B@	; std::_Iosb<int> `RTTI Type Descriptor'
	DD	00H
	DB	'.?AV?$_Iosb@H@std@@', 00H
_DATA	ENDS
;	COMDAT ??_R17?0A@EA@?$_Iosb@H@std@@8
rdata$r	SEGMENT
??_R17?0A@EA@?$_Iosb@H@std@@8 DD FLAT:??_R0?AV?$_Iosb@H@std@@@8 ; std::_Iosb<int>::`RTTI Base Class Descriptor at (8,-1,0,64)'
	DD	00H
	DD	08H
	DD	0ffffffffH
	DD	00H
	DD	040H
	DD	FLAT:??_R3?$_Iosb@H@std@@8
rdata$r	ENDS
;	COMDAT ??_R1A@?0A@EA@ios_base@std@@8
rdata$r	SEGMENT
??_R1A@?0A@EA@ios_base@std@@8 DD FLAT:??_R0?AVios_base@std@@@8 ; std::ios_base::`RTTI Base Class Descriptor at (0,-1,0,64)'
	DD	01H
	DD	00H
	DD	0ffffffffH
	DD	00H
	DD	040H
	DD	FLAT:??_R3ios_base@std@@8
rdata$r	ENDS
;	COMDAT ??_R2ios_base@std@@8
rdata$r	SEGMENT
??_R2ios_base@std@@8 DD FLAT:??_R1A@?0A@EA@ios_base@std@@8 ; std::ios_base::`RTTI Base Class Array'
	DD	FLAT:??_R17?0A@EA@?$_Iosb@H@std@@8
rdata$r	ENDS
;	COMDAT ??_R3ios_base@std@@8
rdata$r	SEGMENT
??_R3ios_base@std@@8 DD 00H				; std::ios_base::`RTTI Class Hierarchy Descriptor'
	DD	00H
	DD	02H
	DD	FLAT:??_R2ios_base@std@@8
rdata$r	ENDS
;	COMDAT ??_R0?AVios_base@std@@@8
_DATA	SEGMENT
??_R0?AVios_base@std@@@8 DD FLAT:??_7type_info@@6B@	; std::ios_base `RTTI Type Descriptor'
	DD	00H
	DB	'.?AVios_base@std@@', 00H
_DATA	ENDS
;	COMDAT ??_R4ios_base@std@@6B@
rdata$r	SEGMENT
??_R4ios_base@std@@6B@ DD 00H				; std::ios_base::`RTTI Complete Object Locator'
	DD	00H
	DD	00H
	DD	FLAT:??_R0?AVios_base@std@@@8
	DD	FLAT:??_R3ios_base@std@@8
rdata$r	ENDS
;	COMDAT ??_7ios_base@std@@6B@
CONST	SEGMENT
??_7ios_base@std@@6B@ DD FLAT:??_R4ios_base@std@@6B@	; std::ios_base::`vftable'
	DD	FLAT:??_Eios_base@std@@UAEPAXI@Z
; Function compile flags: /Ogtp
CONST	ENDS
;	COMDAT ??1ios_base@std@@UAE@XZ
_TEXT	SEGMENT
??1ios_base@std@@UAE@XZ PROC				; std::ios_base::~ios_base, COMDAT
; _this$ = ecx

; 541  : 		_Ios_base_dtor(this);

  00000	51		 push	 ecx
  00001	c7 01 00 00 00
	00		 mov	 DWORD PTR [ecx], OFFSET ??_7ios_base@std@@6B@
  00007	e8 00 00 00 00	 call	 ?_Ios_base_dtor@ios_base@std@@CAXPAV12@@Z ; std::ios_base::_Ios_base_dtor
  0000c	59		 pop	 ecx

; 542  : 		}

  0000d	c3		 ret	 0
??1ios_base@std@@UAE@XZ ENDP				; std::ios_base::~ios_base
_TEXT	ENDS
PUBLIC	??0ios_base@std@@IAE@XZ				; std::ios_base::ios_base
; Function compile flags: /Ogtp
;	COMDAT ??0ios_base@std@@IAE@XZ
_TEXT	SEGMENT
??0ios_base@std@@IAE@XZ PROC				; std::ios_base::ios_base, COMDAT
; _this$ = ecx

; 549  : 	__CLR_OR_THIS_CALL ios_base()

  00000	8b c1		 mov	 eax, ecx
  00002	c7 00 00 00 00
	00		 mov	 DWORD PTR [eax], OFFSET ??_7ios_base@std@@6B@

; 550  : 		{	// default constructor
; 551  : 		}

  00008	c3		 ret	 0
??0ios_base@std@@IAE@XZ ENDP				; std::ios_base::ios_base
; Function compile flags: /Ogtp
_TEXT	ENDS
;	COMDAT ??_Gios_base@std@@UAEPAXI@Z
_TEXT	SEGMENT
___flags$ = 8						; size = 4
??_Gios_base@std@@UAEPAXI@Z PROC			; std::ios_base::`scalar deleting destructor', COMDAT
; _this$ = ecx
  00000	55		 push	 ebp
  00001	8b ec		 mov	 ebp, esp
  00003	56		 push	 esi
  00004	8b f1		 mov	 esi, ecx
  00006	56		 push	 esi
  00007	c7 06 00 00 00
	00		 mov	 DWORD PTR [esi], OFFSET ??_7ios_base@std@@6B@
  0000d	e8 00 00 00 00	 call	 ?_Ios_base_dtor@ios_base@std@@CAXPAV12@@Z ; std::ios_base::_Ios_base_dtor
  00012	83 c4 04	 add	 esp, 4
  00015	f6 45 08 01	 test	 BYTE PTR ___flags$[ebp], 1
  00019	74 09		 je	 SHORT $LN6@scalar@5
  0001b	56		 push	 esi
  0001c	e8 00 00 00 00	 call	 ??3@YAXPAX@Z		; operator delete
  00021	83 c4 04	 add	 esp, 4
$LN6@scalar@5:
  00024	8b c6		 mov	 eax, esi
  00026	5e		 pop	 esi
  00027	5d		 pop	 ebp
  00028	c2 04 00	 ret	 4
??_Gios_base@std@@UAEPAXI@Z ENDP			; std::ios_base::`scalar deleting destructor'
_TEXT	ENDS
PUBLIC	?size@?$basic_string@DU?$char_traits@D@std@@V?$allocator@D@2@@std@@QBEIXZ ; std::basic_string<char,std::char_traits<char>,std::allocator<char> >::size
; Function compile flags: /Ogtp
; File d:\program files (x86)\microsoft visual studio 10.0\vc\include\xstring
;	COMDAT ?size@?$basic_string@DU?$char_traits@D@std@@V?$allocator@D@2@@std@@QBEIXZ
_TEXT	SEGMENT
?size@?$basic_string@DU?$char_traits@D@std@@V?$allocator@D@2@@std@@QBEIXZ PROC ; std::basic_string<char,std::char_traits<char>,std::allocator<char> >::size, COMDAT
; _this$ = ecx

; 1512 : 		return (this->_Mysize);

  00000	8b 41 10	 mov	 eax, DWORD PTR [ecx+16]

; 1513 : 		}

  00003	c3		 ret	 0
?size@?$basic_string@DU?$char_traits@D@std@@V?$allocator@D@2@@std@@QBEIXZ ENDP ; std::basic_string<char,std::char_traits<char>,std::allocator<char> >::size
_TEXT	ENDS
PUBLIC	??0?$_Yarn@D@std@@QAE@XZ			; std::_Yarn<char>::_Yarn<char>
; Function compile flags: /Ogtp
; File d:\program files (x86)\microsoft visual studio 10.0\vc\include\xutility
;	COMDAT ??0?$_Yarn@D@std@@QAE@XZ
_TEXT	SEGMENT
??0?$_Yarn@D@std@@QAE@XZ PROC				; std::_Yarn<char>::_Yarn<char>, COMDAT
; _this$ = ecx

; 3315 : 		{	// default construct

  00000	8b c1		 mov	 eax, ecx
  00002	c7 00 00 00 00
	00		 mov	 DWORD PTR [eax], 0
  00008	c6 40 04 00	 mov	 BYTE PTR [eax+4], 0

; 3316 : 		}

  0000c	c3		 ret	 0
??0?$_Yarn@D@std@@QAE@XZ ENDP				; std::_Yarn<char>::_Yarn<char>
_TEXT	ENDS
PUBLIC	?c_str@?$_Yarn@D@std@@QBEPBDXZ			; std::_Yarn<char>::c_str
; Function compile flags: /Ogtp
;	COMDAT ?c_str@?$_Yarn@D@std@@QBEPBDXZ
_TEXT	SEGMENT
?c_str@?$_Yarn@D@std@@QBEPBDXZ PROC			; std::_Yarn<char>::c_str, COMDAT
; _this$ = ecx

; 3376 : 		return (_Myptr != 0 ? _Myptr : &_Nul);

  00000	8b 01		 mov	 eax, DWORD PTR [ecx]
  00002	85 c0		 test	 eax, eax
  00004	75 03		 jne	 SHORT $LN4@c_str
  00006	8d 41 04	 lea	 eax, DWORD PTR [ecx+4]
$LN4@c_str:

; 3377 : 		}

  00009	c3		 ret	 0
?c_str@?$_Yarn@D@std@@QBEPBDXZ ENDP			; std::_Yarn<char>::c_str
_TEXT	ENDS
PUBLIC	??_7?$basic_ostream@DU?$char_traits@D@std@@@std@@6B@ ; std::basic_ostream<char,std::char_traits<char> >::`vftable'
PUBLIC	??1?$basic_ostream@DU?$char_traits@D@std@@@std@@UAE@XZ ; std::basic_ostream<char,std::char_traits<char> >::~basic_ostream<char,std::char_traits<char> >
PUBLIC	??_R4?$basic_ostream@DU?$char_traits@D@std@@@std@@6B@ ; std::basic_ostream<char,std::char_traits<char> >::`RTTI Complete Object Locator'
PUBLIC	??_R0?AV?$basic_ostream@DU?$char_traits@D@std@@@std@@@8 ; std::basic_ostream<char,std::char_traits<char> > `RTTI Type Descriptor'
PUBLIC	??_R3?$basic_ostream@DU?$char_traits@D@std@@@std@@8 ; std::basic_ostream<char,std::char_traits<char> >::`RTTI Class Hierarchy Descriptor'
PUBLIC	??_R2?$basic_ostream@DU?$char_traits@D@std@@@std@@8 ; std::basic_ostream<char,std::char_traits<char> >::`RTTI Base Class Array'
PUBLIC	??_R1A@?0A@EA@?$basic_ostream@DU?$char_traits@D@std@@@std@@8 ; std::basic_ostream<char,std::char_traits<char> >::`RTTI Base Class Descriptor at (0,-1,0,64)'
PUBLIC	??_R1A@A@3FA@?$basic_ios@DU?$char_traits@D@std@@@std@@8 ; std::basic_ios<char,std::char_traits<char> >::`RTTI Base Class Descriptor at (0,0,4,80)'
PUBLIC	??_R0?AV?$basic_ios@DU?$char_traits@D@std@@@std@@@8 ; std::basic_ios<char,std::char_traits<char> > `RTTI Type Descriptor'
PUBLIC	??_R3?$basic_ios@DU?$char_traits@D@std@@@std@@8	; std::basic_ios<char,std::char_traits<char> >::`RTTI Class Hierarchy Descriptor'
PUBLIC	??_R2?$basic_ios@DU?$char_traits@D@std@@@std@@8	; std::basic_ios<char,std::char_traits<char> >::`RTTI Base Class Array'
PUBLIC	??_R1A@?0A@EA@?$basic_ios@DU?$char_traits@D@std@@@std@@8 ; std::basic_ios<char,std::char_traits<char> >::`RTTI Base Class Descriptor at (0,-1,0,64)'
PUBLIC	??_R1A@A@3EA@ios_base@std@@8			; std::ios_base::`RTTI Base Class Descriptor at (0,0,4,64)'
PUBLIC	??_R17A@3EA@?$_Iosb@H@std@@8			; std::_Iosb<int>::`RTTI Base Class Descriptor at (8,0,4,64)'
EXTRN	??_E?$basic_ostream@DU?$char_traits@D@std@@@std@@UAEPAXI@Z:PROC ; std::basic_ostream<char,std::char_traits<char> >::`vector deleting destructor'
;	COMDAT ??_R17A@3EA@?$_Iosb@H@std@@8
; File d:\program files (x86)\microsoft visual studio 10.0\vc\include\ostream
rdata$r	SEGMENT
??_R17A@3EA@?$_Iosb@H@std@@8 DD FLAT:??_R0?AV?$_Iosb@H@std@@@8 ; std::_Iosb<int>::`RTTI Base Class Descriptor at (8,0,4,64)'
	DD	00H
	DD	08H
	DD	00H
	DD	04H
	DD	040H
	DD	FLAT:??_R3?$_Iosb@H@std@@8
rdata$r	ENDS
;	COMDAT ??_R1A@A@3EA@ios_base@std@@8
rdata$r	SEGMENT
??_R1A@A@3EA@ios_base@std@@8 DD FLAT:??_R0?AVios_base@std@@@8 ; std::ios_base::`RTTI Base Class Descriptor at (0,0,4,64)'
	DD	01H
	DD	00H
	DD	00H
	DD	04H
	DD	040H
	DD	FLAT:??_R3ios_base@std@@8
rdata$r	ENDS
;	COMDAT ??_R1A@?0A@EA@?$basic_ios@DU?$char_traits@D@std@@@std@@8
rdata$r	SEGMENT
??_R1A@?0A@EA@?$basic_ios@DU?$char_traits@D@std@@@std@@8 DD FLAT:??_R0?AV?$basic_ios@DU?$char_traits@D@std@@@std@@@8 ; std::basic_ios<char,std::char_traits<char> >::`RTTI Base Class Descriptor at (0,-1,0,64)'
	DD	02H
	DD	00H
	DD	0ffffffffH
	DD	00H
	DD	040H
	DD	FLAT:??_R3?$basic_ios@DU?$char_traits@D@std@@@std@@8
rdata$r	ENDS
;	COMDAT ??_R2?$basic_ios@DU?$char_traits@D@std@@@std@@8
rdata$r	SEGMENT
??_R2?$basic_ios@DU?$char_traits@D@std@@@std@@8 DD FLAT:??_R1A@?0A@EA@?$basic_ios@DU?$char_traits@D@std@@@std@@8 ; std::basic_ios<char,std::char_traits<char> >::`RTTI Base Class Array'
	DD	FLAT:??_R1A@?0A@EA@ios_base@std@@8
	DD	FLAT:??_R17?0A@EA@?$_Iosb@H@std@@8
rdata$r	ENDS
;	COMDAT ??_R3?$basic_ios@DU?$char_traits@D@std@@@std@@8
rdata$r	SEGMENT
??_R3?$basic_ios@DU?$char_traits@D@std@@@std@@8 DD 00H	; std::basic_ios<char,std::char_traits<char> >::`RTTI Class Hierarchy Descriptor'
	DD	00H
	DD	03H
	DD	FLAT:??_R2?$basic_ios@DU?$char_traits@D@std@@@std@@8
rdata$r	ENDS
;	COMDAT ??_R0?AV?$basic_ios@DU?$char_traits@D@std@@@std@@@8
_DATA	SEGMENT
??_R0?AV?$basic_ios@DU?$char_traits@D@std@@@std@@@8 DD FLAT:??_7type_info@@6B@ ; std::basic_ios<char,std::char_traits<char> > `RTTI Type Descriptor'
	DD	00H
	DB	'.?AV?$basic_ios@DU?$char_traits@D@std@@@std@@', 00H
_DATA	ENDS
;	COMDAT ??_R1A@A@3FA@?$basic_ios@DU?$char_traits@D@std@@@std@@8
rdata$r	SEGMENT
??_R1A@A@3FA@?$basic_ios@DU?$char_traits@D@std@@@std@@8 DD FLAT:??_R0?AV?$basic_ios@DU?$char_traits@D@std@@@std@@@8 ; std::basic_ios<char,std::char_traits<char> >::`RTTI Base Class Descriptor at (0,0,4,80)'
	DD	02H
	DD	00H
	DD	00H
	DD	04H
	DD	050H
	DD	FLAT:??_R3?$basic_ios@DU?$char_traits@D@std@@@std@@8
rdata$r	ENDS
;	COMDAT ??_R1A@?0A@EA@?$basic_ostream@DU?$char_traits@D@std@@@std@@8
rdata$r	SEGMENT
??_R1A@?0A@EA@?$basic_ostream@DU?$char_traits@D@std@@@std@@8 DD FLAT:??_R0?AV?$basic_ostream@DU?$char_traits@D@std@@@std@@@8 ; std::basic_ostream<char,std::char_traits<char> >::`RTTI Base Class Descriptor at (0,-1,0,64)'
	DD	03H
	DD	00H
	DD	0ffffffffH
	DD	00H
	DD	040H
	DD	FLAT:??_R3?$basic_ostream@DU?$char_traits@D@std@@@std@@8
rdata$r	ENDS
;	COMDAT ??_R2?$basic_ostream@DU?$char_traits@D@std@@@std@@8
rdata$r	SEGMENT
??_R2?$basic_ostream@DU?$char_traits@D@std@@@std@@8 DD FLAT:??_R1A@?0A@EA@?$basic_ostream@DU?$char_traits@D@std@@@std@@8 ; std::basic_ostream<char,std::char_traits<char> >::`RTTI Base Class Array'
	DD	FLAT:??_R1A@A@3FA@?$basic_ios@DU?$char_traits@D@std@@@std@@8
	DD	FLAT:??_R1A@A@3EA@ios_base@std@@8
	DD	FLAT:??_R17A@3EA@?$_Iosb@H@std@@8
rdata$r	ENDS
;	COMDAT ??_R3?$basic_ostream@DU?$char_traits@D@std@@@std@@8
rdata$r	SEGMENT
??_R3?$basic_ostream@DU?$char_traits@D@std@@@std@@8 DD 00H ; std::basic_ostream<char,std::char_traits<char> >::`RTTI Class Hierarchy Descriptor'
	DD	00H
	DD	04H
	DD	FLAT:??_R2?$basic_ostream@DU?$char_traits@D@std@@@std@@8
rdata$r	ENDS
;	COMDAT ??_R0?AV?$basic_ostream@DU?$char_traits@D@std@@@std@@@8
_DATA	SEGMENT
??_R0?AV?$basic_ostream@DU?$char_traits@D@std@@@std@@@8 DD FLAT:??_7type_info@@6B@ ; std::basic_ostream<char,std::char_traits<char> > `RTTI Type Descriptor'
	DD	00H
	DB	'.?AV?$basic_ostream@DU?$char_traits@D@std@@@std@@', 00H
_DATA	ENDS
;	COMDAT ??_R4?$basic_ostream@DU?$char_traits@D@std@@@std@@6B@
rdata$r	SEGMENT
??_R4?$basic_ostream@DU?$char_traits@D@std@@@std@@6B@ DD 00H ; std::basic_ostream<char,std::char_traits<char> >::`RTTI Complete Object Locator'
	DD	08H
	DD	00H
	DD	FLAT:??_R0?AV?$basic_ostream@DU?$char_traits@D@std@@@std@@@8
	DD	FLAT:??_R3?$basic_ostream@DU?$char_traits@D@std@@@std@@8
rdata$r	ENDS
;	COMDAT ??_7?$basic_ostream@DU?$char_traits@D@std@@@std@@6B@
CONST	SEGMENT
??_7?$basic_ostream@DU?$char_traits@D@std@@@std@@6B@ DD FLAT:??_R4?$basic_ostream@DU?$char_traits@D@std@@@std@@6B@ ; std::basic_ostream<char,std::char_traits<char> >::`vftable'
	DD	FLAT:??_E?$basic_ostream@DU?$char_traits@D@std@@@std@@UAEPAXI@Z
; Function compile flags: /Ogtp
CONST	ENDS
;	COMDAT ??1?$basic_ostream@DU?$char_traits@D@std@@@std@@UAE@XZ
_TEXT	SEGMENT
??1?$basic_ostream@DU?$char_traits@D@std@@@std@@UAE@XZ PROC ; std::basic_ostream<char,std::char_traits<char> >::~basic_ostream<char,std::char_traits<char> >, COMDAT
; _this$ = ecx

; 79   : 		{	// destroy the object

  00000	8b 41 f8	 mov	 eax, DWORD PTR [ecx-8]
  00003	8b 50 04	 mov	 edx, DWORD PTR [eax+4]
  00006	c7 44 0a f8 00
	00 00 00	 mov	 DWORD PTR [edx+ecx-8], OFFSET ??_7?$basic_ostream@DU?$char_traits@D@std@@@std@@6B@

; 80   : 		}

  0000e	c3		 ret	 0
??1?$basic_ostream@DU?$char_traits@D@std@@@std@@UAE@XZ ENDP ; std::basic_ostream<char,std::char_traits<char> >::~basic_ostream<char,std::char_traits<char> >
_TEXT	ENDS
PUBLIC	??1?$basic_ios@DU?$char_traits@D@std@@@std@@UAE@XZ ; std::basic_ios<char,std::char_traits<char> >::~basic_ios<char,std::char_traits<char> >
; Function compile flags: /Ogtp
; File d:\program files (x86)\microsoft visual studio 10.0\vc\include\ios
;	COMDAT ??1?$basic_ios@DU?$char_traits@D@std@@@std@@UAE@XZ
_TEXT	SEGMENT
??1?$basic_ios@DU?$char_traits@D@std@@@std@@UAE@XZ PROC	; std::basic_ios<char,std::char_traits<char> >::~basic_ios<char,std::char_traits<char> >, COMDAT
; _this$ = ecx

; 38   : 		}

  00000	51		 push	 ecx
  00001	c7 01 00 00 00
	00		 mov	 DWORD PTR [ecx], OFFSET ??_7ios_base@std@@6B@
  00007	e8 00 00 00 00	 call	 ?_Ios_base_dtor@ios_base@std@@CAXPAV12@@Z ; std::ios_base::_Ios_base_dtor
  0000c	59		 pop	 ecx
  0000d	c3		 ret	 0
??1?$basic_ios@DU?$char_traits@D@std@@@std@@UAE@XZ ENDP	; std::basic_ios<char,std::char_traits<char> >::~basic_ios<char,std::char_traits<char> >
_TEXT	ENDS
PUBLIC	?rdbuf@?$basic_ios@DU?$char_traits@D@std@@@std@@QBEPAV?$basic_streambuf@DU?$char_traits@D@std@@@2@XZ ; std::basic_ios<char,std::char_traits<char> >::rdbuf
; Function compile flags: /Ogtp
;	COMDAT ?rdbuf@?$basic_ios@DU?$char_traits@D@std@@@std@@QBEPAV?$basic_streambuf@DU?$char_traits@D@std@@@2@XZ
_TEXT	SEGMENT
?rdbuf@?$basic_ios@DU?$char_traits@D@std@@@std@@QBEPAV?$basic_streambuf@DU?$char_traits@D@std@@@2@XZ PROC ; std::basic_ios<char,std::char_traits<char> >::rdbuf, COMDAT
; _this$ = ecx

; 86   : 		return (_Mystrbuf);

  00000	8b 41 38	 mov	 eax, DWORD PTR [ecx+56]

; 87   : 		}

  00003	c3		 ret	 0
?rdbuf@?$basic_ios@DU?$char_traits@D@std@@@std@@QBEPAV?$basic_streambuf@DU?$char_traits@D@std@@@2@XZ ENDP ; std::basic_ios<char,std::char_traits<char> >::rdbuf
_TEXT	ENDS
PUBLIC	??_Glocale@std@@QAEPAXI@Z			; std::locale::`scalar deleting destructor'
; Function compile flags: /Ogtp
;	COMDAT ??_Glocale@std@@QAEPAXI@Z
_TEXT	SEGMENT
__Lock$209715 = -4					; size = 4
___flags$ = 8						; size = 4
??_Glocale@std@@QAEPAXI@Z PROC				; std::locale::`scalar deleting destructor', COMDAT
; _this$ = ecx
  00000	55		 push	 ebp
  00001	8b ec		 mov	 ebp, esp
  00003	51		 push	 ecx
  00004	53		 push	 ebx
  00005	8b d9		 mov	 ebx, ecx
  00007	57		 push	 edi
  00008	8b 3b		 mov	 edi, DWORD PTR [ebx]
  0000a	85 ff		 test	 edi, edi
  0000c	74 3b		 je	 SHORT $LN7@scalar@6
  0000e	6a 00		 push	 0
  00010	8d 4d fc	 lea	 ecx, DWORD PTR __Lock$209715[ebp]
  00013	e8 00 00 00 00	 call	 ??0_Lockit@std@@QAE@H@Z	; std::_Lockit::_Lockit
  00018	8b 47 04	 mov	 eax, DWORD PTR [edi+4]
  0001b	85 c0		 test	 eax, eax
  0001d	74 09		 je	 SHORT $LN9@scalar@6
  0001f	83 f8 ff	 cmp	 eax, -1
  00022	73 04		 jae	 SHORT $LN9@scalar@6
  00024	48		 dec	 eax
  00025	89 47 04	 mov	 DWORD PTR [edi+4], eax
$LN9@scalar@6:
  00028	56		 push	 esi
  00029	8b 77 04	 mov	 esi, DWORD PTR [edi+4]
  0002c	f7 de		 neg	 esi
  0002e	1b f6		 sbb	 esi, esi
  00030	8d 4d fc	 lea	 ecx, DWORD PTR __Lock$209715[ebp]
  00033	f7 d6		 not	 esi
  00035	e8 00 00 00 00	 call	 ??1_Lockit@std@@QAE@XZ	; std::_Lockit::~_Lockit
  0003a	23 f7		 and	 esi, edi
  0003c	74 0a		 je	 SHORT $LN13@scalar@6
  0003e	8b 06		 mov	 eax, DWORD PTR [esi]
  00040	8b 10		 mov	 edx, DWORD PTR [eax]
  00042	6a 01		 push	 1
  00044	8b ce		 mov	 ecx, esi
  00046	ff d2		 call	 edx
$LN13@scalar@6:
  00048	5e		 pop	 esi
$LN7@scalar@6:
  00049	f6 45 08 01	 test	 BYTE PTR ___flags$[ebp], 1
  0004d	74 09		 je	 SHORT $LN12@scalar@6
  0004f	53		 push	 ebx
  00050	e8 00 00 00 00	 call	 ??3@YAXPAX@Z		; operator delete
  00055	83 c4 04	 add	 esp, 4
$LN12@scalar@6:
  00058	5f		 pop	 edi
  00059	8b c3		 mov	 eax, ebx
  0005b	5b		 pop	 ebx
  0005c	8b e5		 mov	 esp, ebp
  0005e	5d		 pop	 ebp
  0005f	c2 04 00	 ret	 4
??_Glocale@std@@QAEPAXI@Z ENDP				; std::locale::`scalar deleting destructor'
_TEXT	ENDS
PUBLIC	??_D?$basic_ostream@DU?$char_traits@D@std@@@std@@QAEXXZ ; std::basic_ostream<char,std::char_traits<char> >::`vbase destructor'
; Function compile flags: /Ogtp
;	COMDAT ??_D?$basic_ostream@DU?$char_traits@D@std@@@std@@QAEXXZ
_TEXT	SEGMENT
??_D?$basic_ostream@DU?$char_traits@D@std@@@std@@QAEXXZ PROC ; std::basic_ostream<char,std::char_traits<char> >::`vbase destructor', COMDAT
; _this$ = ecx
  00000	8d 41 08	 lea	 eax, DWORD PTR [ecx+8]
  00003	8b 48 f8	 mov	 ecx, DWORD PTR [eax-8]
  00006	8b 51 04	 mov	 edx, DWORD PTR [ecx+4]
  00009	c7 44 02 f8 00
	00 00 00	 mov	 DWORD PTR [edx+eax-8], OFFSET ??_7?$basic_ostream@DU?$char_traits@D@std@@@std@@6B@
  00011	50		 push	 eax
  00012	c7 00 00 00 00
	00		 mov	 DWORD PTR [eax], OFFSET ??_7ios_base@std@@6B@
  00018	e8 00 00 00 00	 call	 ?_Ios_base_dtor@ios_base@std@@CAXPAV12@@Z ; std::ios_base::_Ios_base_dtor
  0001d	59		 pop	 ecx
  0001e	c3		 ret	 0
??_D?$basic_ostream@DU?$char_traits@D@std@@@std@@QAEXXZ ENDP ; std::basic_ostream<char,std::char_traits<char> >::`vbase destructor'
_TEXT	ENDS
PUBLIC	??1?$_String_val@DV?$allocator@D@std@@@std@@QAE@XZ ; std::_String_val<char,std::allocator<char> >::~_String_val<char,std::allocator<char> >
; Function compile flags: /Ogtp
; File d:\program files (x86)\microsoft visual studio 10.0\vc\include\xstring
;	COMDAT ??1?$_String_val@DV?$allocator@D@std@@@std@@QAE@XZ
_TEXT	SEGMENT
??1?$_String_val@DV?$allocator@D@std@@@std@@QAE@XZ PROC	; std::_String_val<char,std::allocator<char> >::~_String_val<char,std::allocator<char> >, COMDAT
; _this$ = ecx

; 459  : 		}

  00000	c3		 ret	 0
??1?$_String_val@DV?$allocator@D@std@@@std@@QAE@XZ ENDP	; std::_String_val<char,std::allocator<char> >::~_String_val<char,std::allocator<char> >
_TEXT	ENDS
PUBLIC	??0?$allocator@D@std@@QAE@XZ			; std::allocator<char>::allocator<char>
; Function compile flags: /Ogtp
; File d:\program files (x86)\microsoft visual studio 10.0\vc\include\xmemory
;	COMDAT ??0?$allocator@D@std@@QAE@XZ
_TEXT	SEGMENT
??0?$allocator@D@std@@QAE@XZ PROC			; std::allocator<char>::allocator<char>, COMDAT
; _this$ = ecx

; 161  : 	_ALLOCATOR() _THROW0()

  00000	8b c1		 mov	 eax, ecx

; 162  : 		{	// construct default allocator (do nothing)
; 163  : 		}

  00002	c3		 ret	 0
??0?$allocator@D@std@@QAE@XZ ENDP			; std::allocator<char>::allocator<char>
_TEXT	ENDS
PUBLIC	??0?$allocator@D@std@@QAE@ABV01@@Z		; std::allocator<char>::allocator<char>
; Function compile flags: /Ogtp
;	COMDAT ??0?$allocator@D@std@@QAE@ABV01@@Z
_TEXT	SEGMENT
___formal$ = 8						; size = 4
??0?$allocator@D@std@@QAE@ABV01@@Z PROC			; std::allocator<char>::allocator<char>, COMDAT
; _this$ = ecx

; 165  : 	_ALLOCATOR(const _ALLOCATOR<_Ty>&) _THROW0()

  00000	8b c1		 mov	 eax, ecx

; 166  : 		{	// construct by copying (do nothing)
; 167  : 		}

  00002	c2 04 00	 ret	 4
??0?$allocator@D@std@@QAE@ABV01@@Z ENDP			; std::allocator<char>::allocator<char>
_TEXT	ENDS
PUBLIC	?_Tidy@?$_Yarn@D@std@@AAEXXZ			; std::_Yarn<char>::_Tidy
EXTRN	_free:PROC
; Function compile flags: /Ogtp
; File d:\program files (x86)\microsoft visual studio 10.0\vc\include\xutility
;	COMDAT ?_Tidy@?$_Yarn@D@std@@AAEXXZ
_TEXT	SEGMENT
?_Tidy@?$_Yarn@D@std@@AAEXXZ PROC			; std::_Yarn<char>::_Tidy, COMDAT
; _this$ = ecx

; 3391 : 		{	// discard any string

  00000	56		 push	 esi
  00001	8b f1		 mov	 esi, ecx

; 3392 : 		if (_Myptr != 0)

  00003	8b 06		 mov	 eax, DWORD PTR [esi]
  00005	85 c0		 test	 eax, eax
  00007	74 09		 je	 SHORT $LN4@Tidy

; 3393 : 
; 3394 :  #ifdef _DEBUG
; 3395 : 			_free_dbg(_Myptr, _CRT_BLOCK);
; 3396 : 
; 3397 :  #else /* _DEBUG */
; 3398 : 			_CSTD free(_Myptr);

  00009	50		 push	 eax
  0000a	e8 00 00 00 00	 call	 _free
  0000f	83 c4 04	 add	 esp, 4
$LN4@Tidy:

; 3399 :  #endif /* _DEBUG */
; 3400 : 
; 3401 : 		_Myptr = 0;

  00012	c7 06 00 00 00
	00		 mov	 DWORD PTR [esi], 0
  00018	5e		 pop	 esi

; 3402 : 		}

  00019	c3		 ret	 0
?_Tidy@?$_Yarn@D@std@@AAEXXZ ENDP			; std::_Yarn<char>::_Tidy
_TEXT	ENDS
PUBLIC	?pubsync@?$basic_streambuf@DU?$char_traits@D@std@@@std@@QAEHXZ ; std::basic_streambuf<char,std::char_traits<char> >::pubsync
; Function compile flags: /Ogtp
; File d:\program files (x86)\microsoft visual studio 10.0\vc\include\streambuf
;	COMDAT ?pubsync@?$basic_streambuf@DU?$char_traits@D@std@@@std@@QAEHXZ
_TEXT	SEGMENT
?pubsync@?$basic_streambuf@DU?$char_traits@D@std@@@std@@QAEHXZ PROC ; std::basic_streambuf<char,std::char_traits<char> >::pubsync, COMDAT
; _this$ = ecx

; 141  : 		return (sync());

  00000	8b 01		 mov	 eax, DWORD PTR [ecx]
  00002	8b 50 34	 mov	 edx, DWORD PTR [eax+52]
  00005	ff e2		 jmp	 edx
?pubsync@?$basic_streambuf@DU?$char_traits@D@std@@@std@@QAEHXZ ENDP ; std::basic_streambuf<char,std::char_traits<char> >::pubsync
_TEXT	ENDS
PUBLIC	?_Pnavail@?$basic_streambuf@DU?$char_traits@D@std@@@std@@IBE_JXZ ; std::basic_streambuf<char,std::char_traits<char> >::_Pnavail
; Function compile flags: /Ogtp
;	COMDAT ?_Pnavail@?$basic_streambuf@DU?$char_traits@D@std@@@std@@IBE_JXZ
_TEXT	SEGMENT
?_Pnavail@?$basic_streambuf@DU?$char_traits@D@std@@@std@@IBE_JXZ PROC ; std::basic_streambuf<char,std::char_traits<char> >::_Pnavail, COMDAT
; _this$ = ecx

; 310  : 		return (*_IPnext != 0 ? *_IPcount : 0);

  00000	8b 41 24	 mov	 eax, DWORD PTR [ecx+36]
  00003	83 38 00	 cmp	 DWORD PTR [eax], 0
  00006	74 07		 je	 SHORT $LN3@Pnavail
  00008	8b 49 34	 mov	 ecx, DWORD PTR [ecx+52]
  0000b	8b 01		 mov	 eax, DWORD PTR [ecx]
  0000d	99		 cdq

; 311  : 		}

  0000e	c3		 ret	 0
$LN3@Pnavail:

; 310  : 		return (*_IPnext != 0 ? *_IPcount : 0);

  0000f	33 c0		 xor	 eax, eax
  00011	99		 cdq

; 311  : 		}

  00012	c3		 ret	 0
?_Pnavail@?$basic_streambuf@DU?$char_traits@D@std@@@std@@IBE_JXZ ENDP ; std::basic_streambuf<char,std::char_traits<char> >::_Pnavail
_TEXT	ENDS
PUBLIC	??Bsentry@?$basic_ostream@DU?$char_traits@D@std@@@std@@QBEPQ_Bool_struct@2@HXZ ; std::basic_ostream<char,std::char_traits<char> >::sentry::operator int std::_Bool_struct::*
; Function compile flags: /Ogtp
; File d:\program files (x86)\microsoft visual studio 10.0\vc\include\ostream
;	COMDAT ??Bsentry@?$basic_ostream@DU?$char_traits@D@std@@@std@@QBEPQ_Bool_struct@2@HXZ
_TEXT	SEGMENT
??Bsentry@?$basic_ostream@DU?$char_traits@D@std@@@std@@QBEPQ_Bool_struct@2@HXZ PROC ; std::basic_ostream<char,std::char_traits<char> >::sentry::operator int std::_Bool_struct::*, COMDAT
; _this$ = ecx

; 133  : 			return (_Ok ? _CONVERTIBLE_TO_TRUE : 0);

  00000	33 c0		 xor	 eax, eax
  00002	38 41 04	 cmp	 BYTE PTR [ecx+4], al
  00005	0f 95 c0	 setne	 al
  00008	48		 dec	 eax

; 134  : 			}

  00009	c3		 ret	 0
??Bsentry@?$basic_ostream@DU?$char_traits@D@std@@@std@@QBEPQ_Bool_struct@2@HXZ ENDP ; std::basic_ostream<char,std::char_traits<char> >::sentry::operator int std::_Bool_struct::*
_TEXT	ENDS
PUBLIC	?_Myptr@?$basic_string@DU?$char_traits@D@std@@V?$allocator@D@2@@std@@QAEPADXZ ; std::basic_string<char,std::char_traits<char>,std::allocator<char> >::_Myptr
; Function compile flags: /Ogtp
; File d:\program files (x86)\microsoft visual studio 10.0\vc\include\xstring
;	COMDAT ?_Myptr@?$basic_string@DU?$char_traits@D@std@@V?$allocator@D@2@@std@@QAEPADXZ
_TEXT	SEGMENT
?_Myptr@?$basic_string@DU?$char_traits@D@std@@V?$allocator@D@2@@std@@QAEPADXZ PROC ; std::basic_string<char,std::char_traits<char>,std::allocator<char> >::_Myptr, COMDAT
; _this$ = ecx

; 2003 : 		{	// determine current pointer to buffer for mutable string

  00000	8b c1		 mov	 eax, ecx

; 2004 : 		return (this->_BUF_SIZE <= this->_Myres ? this->_Bx._Ptr
; 2005 : 			: this->_Bx._Buf);

  00002	83 78 14 10	 cmp	 DWORD PTR [eax+20], 16	; 00000010H
  00006	72 02		 jb	 SHORT $LN4@Myptr
  00008	8b 00		 mov	 eax, DWORD PTR [eax]
$LN4@Myptr:

; 2006 : 		}

  0000a	c3		 ret	 0
?_Myptr@?$basic_string@DU?$char_traits@D@std@@V?$allocator@D@2@@std@@QAEPADXZ ENDP ; std::basic_string<char,std::char_traits<char>,std::allocator<char> >::_Myptr
_TEXT	ENDS
PUBLIC	?deallocate@?$allocator@D@std@@QAEXPADI@Z	; std::allocator<char>::deallocate
; Function compile flags: /Ogtp
; File d:\program files (x86)\microsoft visual studio 10.0\vc\include\xmemory
;	COMDAT ?deallocate@?$allocator@D@std@@QAEXPADI@Z
_TEXT	SEGMENT
__Ptr$ = 8						; size = 4
___formal$ = 12						; size = 4
?deallocate@?$allocator@D@std@@QAEXPADI@Z PROC		; std::allocator<char>::deallocate, COMDAT
; _this$ = ecx

; 181  : 		{	// deallocate object at _Ptr, ignore size

  00000	55		 push	 ebp
  00001	8b ec		 mov	 ebp, esp

; 182  : 		::operator delete(_Ptr);

  00003	8b 45 08	 mov	 eax, DWORD PTR __Ptr$[ebp]
  00006	50		 push	 eax
  00007	e8 00 00 00 00	 call	 ??3@YAXPAX@Z		; operator delete
  0000c	83 c4 04	 add	 esp, 4

; 183  : 		}

  0000f	5d		 pop	 ebp
  00010	c2 08 00	 ret	 8
?deallocate@?$allocator@D@std@@QAEXPADI@Z ENDP		; std::allocator<char>::deallocate
_TEXT	ENDS
PUBLIC	?tie@?$basic_ios@DU?$char_traits@D@std@@@std@@QBEPAV?$basic_ostream@DU?$char_traits@D@std@@@2@XZ ; std::basic_ios<char,std::char_traits<char> >::tie
; Function compile flags: /Ogtp
; File d:\program files (x86)\microsoft visual studio 10.0\vc\include\ios
;	COMDAT ?tie@?$basic_ios@DU?$char_traits@D@std@@@std@@QBEPAV?$basic_ostream@DU?$char_traits@D@std@@@2@XZ
_TEXT	SEGMENT
?tie@?$basic_ios@DU?$char_traits@D@std@@@std@@QBEPAV?$basic_ostream@DU?$char_traits@D@std@@@2@XZ PROC ; std::basic_ios<char,std::char_traits<char> >::tie, COMDAT
; _this$ = ecx

; 74   : 		return (_Tiestr);

  00000	8b 41 3c	 mov	 eax, DWORD PTR [ecx+60]

; 75   : 		}

  00003	c3		 ret	 0
?tie@?$basic_ios@DU?$char_traits@D@std@@@std@@QBEPAV?$basic_ostream@DU?$char_traits@D@std@@@2@XZ ENDP ; std::basic_ios<char,std::char_traits<char> >::tie
_TEXT	ENDS
PUBLIC	?_Pninc@?$basic_streambuf@DU?$char_traits@D@std@@@std@@IAEPADXZ ; std::basic_streambuf<char,std::char_traits<char> >::_Pninc
; Function compile flags: /Ogtp
; File d:\program files (x86)\microsoft visual studio 10.0\vc\include\streambuf
;	COMDAT ?_Pninc@?$basic_streambuf@DU?$char_traits@D@std@@@std@@IAEPADXZ
_TEXT	SEGMENT
?_Pninc@?$basic_streambuf@DU?$char_traits@D@std@@@std@@IAEPADXZ PROC ; std::basic_streambuf<char,std::char_traits<char> >::_Pninc, COMDAT
; _this$ = ecx

; 304  : 		--*_IPcount;

  00000	8b 41 34	 mov	 eax, DWORD PTR [ecx+52]
  00003	ff 08		 dec	 DWORD PTR [eax]

; 305  : 		return ((*_IPnext)++);

  00005	8b 49 24	 mov	 ecx, DWORD PTR [ecx+36]
  00008	8b 01		 mov	 eax, DWORD PTR [ecx]
  0000a	8d 50 01	 lea	 edx, DWORD PTR [eax+1]
  0000d	89 11		 mov	 DWORD PTR [ecx], edx

; 306  : 		}

  0000f	c3		 ret	 0
?_Pninc@?$basic_streambuf@DU?$char_traits@D@std@@@std@@IAEPADXZ ENDP ; std::basic_streambuf<char,std::char_traits<char> >::_Pninc
_TEXT	ENDS
PUBLIC	??0_Sentry_base@?$basic_ostream@DU?$char_traits@D@std@@@std@@QAE@AAV12@@Z ; std::basic_ostream<char,std::char_traits<char> >::_Sentry_base::_Sentry_base
; Function compile flags: /Ogtp
; File d:\program files (x86)\microsoft visual studio 10.0\vc\include\ostream
;	COMDAT ??0_Sentry_base@?$basic_ostream@DU?$char_traits@D@std@@@std@@QAE@AAV12@@Z
_TEXT	SEGMENT
__Ostr$ = 8						; size = 4
??0_Sentry_base@?$basic_ostream@DU?$char_traits@D@std@@@std@@QAE@AAV12@@Z PROC ; std::basic_ostream<char,std::char_traits<char> >::_Sentry_base::_Sentry_base, COMDAT
; _this$ = ecx

; 91   : 			{	// lock the stream buffer, if there

  00000	55		 push	 ebp
  00001	8b ec		 mov	 ebp, esp
  00003	8b 45 08	 mov	 eax, DWORD PTR __Ostr$[ebp]
  00006	56		 push	 esi
  00007	8b f1		 mov	 esi, ecx
  00009	89 06		 mov	 DWORD PTR [esi], eax

; 92   : 			if (_Myostr.rdbuf() != 0)

  0000b	8b 08		 mov	 ecx, DWORD PTR [eax]
  0000d	8b 51 04	 mov	 edx, DWORD PTR [ecx+4]
  00010	8b 4c 02 38	 mov	 ecx, DWORD PTR [edx+eax+56]
  00014	85 c9		 test	 ecx, ecx
  00016	74 07		 je	 SHORT $LN8@Sentry_bas

; 93   : 				_Myostr.rdbuf()->_Lock();

  00018	8b 01		 mov	 eax, DWORD PTR [ecx]
  0001a	8b 50 04	 mov	 edx, DWORD PTR [eax+4]
  0001d	ff d2		 call	 edx
$LN8@Sentry_bas:

; 94   : 			}

  0001f	8b c6		 mov	 eax, esi
  00021	5e		 pop	 esi
  00022	5d		 pop	 ebp
  00023	c2 04 00	 ret	 4
??0_Sentry_base@?$basic_ostream@DU?$char_traits@D@std@@@std@@QAE@AAV12@@Z ENDP ; std::basic_ostream<char,std::char_traits<char> >::_Sentry_base::_Sentry_base
_TEXT	ENDS
PUBLIC	??1_Sentry_base@?$basic_ostream@DU?$char_traits@D@std@@@std@@QAE@XZ ; std::basic_ostream<char,std::char_traits<char> >::_Sentry_base::~_Sentry_base
; Function compile flags: /Ogtp
;	COMDAT ??1_Sentry_base@?$basic_ostream@DU?$char_traits@D@std@@@std@@QAE@XZ
_TEXT	SEGMENT
??1_Sentry_base@?$basic_ostream@DU?$char_traits@D@std@@@std@@QAE@XZ PROC ; std::basic_ostream<char,std::char_traits<char> >::_Sentry_base::~_Sentry_base, COMDAT
; _this$ = ecx

; 98   : 			if (_Myostr.rdbuf() != 0)

  00000	8b 01		 mov	 eax, DWORD PTR [ecx]
  00002	8b 08		 mov	 ecx, DWORD PTR [eax]
  00004	8b 51 04	 mov	 edx, DWORD PTR [ecx+4]
  00007	8b 44 02 38	 mov	 eax, DWORD PTR [edx+eax+56]
  0000b	85 c0		 test	 eax, eax
  0000d	74 09		 je	 SHORT $LN1@Sentry_bas@2

; 99   : 				_Myostr.rdbuf()->_Unlock();

  0000f	8b 10		 mov	 edx, DWORD PTR [eax]
  00011	8b c8		 mov	 ecx, eax
  00013	8b 42 08	 mov	 eax, DWORD PTR [edx+8]
  00016	ff e0		 jmp	 eax
$LN1@Sentry_bas@2:

; 100  : 			}

  00018	c3		 ret	 0
??1_Sentry_base@?$basic_ostream@DU?$char_traits@D@std@@@std@@QAE@XZ ENDP ; std::basic_ostream<char,std::char_traits<char> >::_Sentry_base::~_Sentry_base
_TEXT	ENDS
PUBLIC	?_Chassign@?$basic_string@DU?$char_traits@D@std@@V?$allocator@D@2@@std@@QAEXIID@Z ; std::basic_string<char,std::char_traits<char>,std::allocator<char> >::_Chassign
; Function compile flags: /Ogtp
; File d:\program files (x86)\microsoft visual studio 10.0\vc\include\xstring
;	COMDAT ?_Chassign@?$basic_string@DU?$char_traits@D@std@@V?$allocator@D@2@@std@@QAEXIID@Z
_TEXT	SEGMENT
__Off$ = 8						; size = 4
__Count$ = 12						; size = 4
__Ch$ = 16						; size = 1
?_Chassign@?$basic_string@DU?$char_traits@D@std@@V?$allocator@D@2@@std@@QAEXIID@Z PROC ; std::basic_string<char,std::char_traits<char>,std::allocator<char> >::_Chassign, COMDAT
; _this$ = ecx

; 1911 : 		{	// assign _Count copies of _Ch beginning at _Off

  00000	55		 push	 ebp
  00001	8b ec		 mov	 ebp, esp

; 1912 : 		if (_Count == 1)

  00003	8b 45 0c	 mov	 eax, DWORD PTR __Count$[ebp]
  00006	83 f8 01	 cmp	 eax, 1
  00009	75 15		 jne	 SHORT $LN2@Chassign

; 1913 : 			_Traits::assign(*(_Myptr() + _Off), _Ch);

  0000b	83 79 14 10	 cmp	 DWORD PTR [ecx+20], 16	; 00000010H
  0000f	72 02		 jb	 SHORT $LN7@Chassign
  00011	8b 09		 mov	 ecx, DWORD PTR [ecx]
$LN7@Chassign:
  00013	8a 45 10	 mov	 al, BYTE PTR __Ch$[ebp]
  00016	8b 55 08	 mov	 edx, DWORD PTR __Off$[ebp]
  00019	88 04 11	 mov	 BYTE PTR [ecx+edx], al

; 1916 : 		}

  0001c	5d		 pop	 ebp
  0001d	c2 0c 00	 ret	 12			; 0000000cH
$LN2@Chassign:

; 1914 : 		else
; 1915 : 			_Traits::assign(_Myptr() + _Off, _Count, _Ch);

  00020	83 79 14 10	 cmp	 DWORD PTR [ecx+20], 16	; 00000010H
  00024	72 02		 jb	 SHORT $LN13@Chassign
  00026	8b 09		 mov	 ecx, DWORD PTR [ecx]
$LN13@Chassign:
  00028	03 4d 08	 add	 ecx, DWORD PTR __Off$[ebp]
  0002b	50		 push	 eax
  0002c	0f be 45 10	 movsx	 eax, BYTE PTR __Ch$[ebp]
  00030	50		 push	 eax
  00031	51		 push	 ecx
  00032	e8 00 00 00 00	 call	 _memset
  00037	83 c4 0c	 add	 esp, 12			; 0000000cH

; 1916 : 		}

  0003a	5d		 pop	 ebp
  0003b	c2 0c 00	 ret	 12			; 0000000cH
?_Chassign@?$basic_string@DU?$char_traits@D@std@@V?$allocator@D@2@@std@@QAEXIID@Z ENDP ; std::basic_string<char,std::char_traits<char>,std::allocator<char> >::_Chassign
_TEXT	ENDS
PUBLIC	??_C@_0BA@JFNIOLAK@string?5too?5long?$AA@	; `string'
PUBLIC	?_Xlen@?$basic_string@DU?$char_traits@D@std@@V?$allocator@D@2@@std@@QBEXXZ ; std::basic_string<char,std::char_traits<char>,std::allocator<char> >::_Xlen
EXTRN	?_Xlength_error@std@@YAXPBD@Z:PROC		; std::_Xlength_error
;	COMDAT ??_C@_0BA@JFNIOLAK@string?5too?5long?$AA@
CONST	SEGMENT
??_C@_0BA@JFNIOLAK@string?5too?5long?$AA@ DB 'string too long', 00H ; `string'
; Function compile flags: /Ogtp
CONST	ENDS
;	COMDAT ?_Xlen@?$basic_string@DU?$char_traits@D@std@@V?$allocator@D@2@@std@@QBEXXZ
_TEXT	SEGMENT
?_Xlen@?$basic_string@DU?$char_traits@D@std@@V?$allocator@D@2@@std@@QBEXXZ PROC ; std::basic_string<char,std::char_traits<char>,std::allocator<char> >::_Xlen, COMDAT
; _this$ = ecx

; 2016 : 		_Xlength_error("string too long");

  00000	68 00 00 00 00	 push	 OFFSET ??_C@_0BA@JFNIOLAK@string?5too?5long?$AA@
  00005	e8 00 00 00 00	 call	 ?_Xlength_error@std@@YAXPBD@Z ; std::_Xlength_error
$LN4@Xlen:
$LN3@Xlen:
  0000a	cc		 int	 3
?_Xlen@?$basic_string@DU?$char_traits@D@std@@V?$allocator@D@2@@std@@QBEXXZ ENDP ; std::basic_string<char,std::char_traits<char>,std::allocator<char> >::_Xlen
_TEXT	ENDS
PUBLIC	??0?$_String_const_iterator@DU?$char_traits@D@std@@V?$allocator@D@2@@std@@QAE@PBDPBU_Container_base0@1@@Z ; std::_String_const_iterator<char,std::char_traits<char>,std::allocator<char> >::_String_const_iterator<char,std::char_traits<char>,std::allocator<char> >
; Function compile flags: /Ogtp
;	COMDAT ??0?$_String_const_iterator@DU?$char_traits@D@std@@V?$allocator@D@2@@std@@QAE@PBDPBU_Container_base0@1@@Z
_TEXT	SEGMENT
__Parg$ = 8						; size = 4
__Pstring$ = 12						; size = 4
??0?$_String_const_iterator@DU?$char_traits@D@std@@V?$allocator@D@2@@std@@QAE@PBDPBU_Container_base0@1@@Z PROC ; std::_String_const_iterator<char,std::char_traits<char>,std::allocator<char> >::_String_const_iterator<char,std::char_traits<char>,std::allocator<char> >, COMDAT
; _this$ = ecx

; 50   : 	_String_const_iterator(pointer _Parg, const _Container_base *_Pstring)

  00000	55		 push	 ebp
  00001	8b ec		 mov	 ebp, esp
  00003	8b c1		 mov	 eax, ecx

; 51   : 		{	// construct with pointer _Parg
; 52   : 		this->_Adopt(_Pstring);
; 53   : 		this->_Ptr = _Parg;

  00005	8b 4d 08	 mov	 ecx, DWORD PTR __Parg$[ebp]
  00008	89 08		 mov	 DWORD PTR [eax], ecx

; 54   : 		}

  0000a	5d		 pop	 ebp
  0000b	c2 08 00	 ret	 8
??0?$_String_const_iterator@DU?$char_traits@D@std@@V?$allocator@D@2@@std@@QAE@PBDPBU_Container_base0@1@@Z ENDP ; std::_String_const_iterator<char,std::char_traits<char>,std::allocator<char> >::_String_const_iterator<char,std::char_traits<char>,std::allocator<char> >
_TEXT	ENDS
PUBLIC	?max_size@?$allocator@D@std@@QBEIXZ		; std::allocator<char>::max_size
; Function compile flags: /Ogtp
; File d:\program files (x86)\microsoft visual studio 10.0\vc\include\xmemory
;	COMDAT ?max_size@?$allocator@D@std@@QBEIXZ
_TEXT	SEGMENT
?max_size@?$allocator@D@std@@QBEIXZ PROC		; std::allocator<char>::max_size, COMDAT
; _this$ = ecx

; 218  : 		_SIZT _Count = (_SIZT)(-1) / sizeof (_Ty);
; 219  : 		return (0 < _Count ? _Count : 1);

  00000	83 c8 ff	 or	 eax, -1

; 220  : 		}

  00003	c3		 ret	 0
?max_size@?$allocator@D@std@@QBEIXZ ENDP		; std::allocator<char>::max_size
_TEXT	ENDS
PUBLIC	__TI2?AVbad_alloc@std@@
PUBLIC	??$_Allocate@D@std@@YAPADIPAD@Z			; std::_Allocate<char>
PUBLIC	__CTA2?AVbad_alloc@std@@
PUBLIC	__CT??_R0?AVbad_alloc@std@@@8??0bad_alloc@std@@QAE@ABV01@@Z12
PUBLIC	??0bad_alloc@std@@QAE@ABV01@@Z			; std::bad_alloc::bad_alloc
PUBLIC	__CT??_R0?AVexception@std@@@8??0exception@std@@QAE@ABV01@@Z12
EXTRN	??2@YAPAXI@Z:PROC				; operator new
EXTRN	__CxxThrowException@8:PROC
EXTRN	??0exception@std@@QAE@ABV01@@Z:PROC		; std::exception::exception
;	COMDAT __CT??_R0?AVexception@std@@@8??0exception@std@@QAE@ABV01@@Z12
; File d:\program files (x86)\microsoft visual studio 10.0\vc\include\exception
xdata$x	SEGMENT
__CT??_R0?AVexception@std@@@8??0exception@std@@QAE@ABV01@@Z12 DD 00H
	DD	FLAT:??_R0?AVexception@std@@@8
	DD	00H
	DD	0ffffffffH
	ORG $+4
	DD	0cH
	DD	FLAT:??0exception@std@@QAE@ABV01@@Z
xdata$x	ENDS
;	COMDAT __CT??_R0?AVbad_alloc@std@@@8??0bad_alloc@std@@QAE@ABV01@@Z12
xdata$x	SEGMENT
__CT??_R0?AVbad_alloc@std@@@8??0bad_alloc@std@@QAE@ABV01@@Z12 DD 00H
	DD	FLAT:??_R0?AVbad_alloc@std@@@8
	DD	00H
	DD	0ffffffffH
	ORG $+4
	DD	0cH
	DD	FLAT:??0bad_alloc@std@@QAE@ABV01@@Z
xdata$x	ENDS
;	COMDAT __CTA2?AVbad_alloc@std@@
xdata$x	SEGMENT
__CTA2?AVbad_alloc@std@@ DD 02H
	DD	FLAT:__CT??_R0?AVbad_alloc@std@@@8??0bad_alloc@std@@QAE@ABV01@@Z12
	DD	FLAT:__CT??_R0?AVexception@std@@@8??0exception@std@@QAE@ABV01@@Z12
xdata$x	ENDS
;	COMDAT __TI2?AVbad_alloc@std@@
xdata$x	SEGMENT
__TI2?AVbad_alloc@std@@ DD 00H
	DD	FLAT:??1bad_alloc@std@@UAE@XZ
	DD	00H
	DD	FLAT:__CTA2?AVbad_alloc@std@@
; Function compile flags: /Ogtp
; File d:\program files (x86)\microsoft visual studio 10.0\vc\include\xmemory
xdata$x	ENDS
;	COMDAT ??$_Allocate@D@std@@YAPADIPAD@Z
_TEXT	SEGMENT
$T209840 = -12						; size = 12
$T209845 = 8						; size = 4
__Count$ = 8						; size = 4
___formal$ = 12						; size = 4
??$_Allocate@D@std@@YAPADIPAD@Z PROC			; std::_Allocate<char>, COMDAT

; 30   : 	{	// allocate storage for _Count elements of type _Ty

  00000	55		 push	 ebp
  00001	8b ec		 mov	 ebp, esp

; 31   : 	void *_Ptr = 0;
; 32   : 
; 33   : 	if (_Count <= 0)

  00003	8b 4d 08	 mov	 ecx, DWORD PTR __Count$[ebp]
  00006	83 ec 0c	 sub	 esp, 12			; 0000000cH
  00009	33 c0		 xor	 eax, eax
  0000b	85 c9		 test	 ecx, ecx

; 34   : 		_Count = 0;
; 35   : 	else if (((_SIZT)(-1) / sizeof (_Ty) < _Count)

  0000d	74 3a		 je	 SHORT $LN5@Allocate

; 36   : 		|| (_Ptr = ::operator new(_Count * sizeof (_Ty))) == 0)

  0000f	83 f9 ff	 cmp	 ecx, -1
  00012	77 0d		 ja	 SHORT $LN1@Allocate
  00014	51		 push	 ecx
  00015	e8 00 00 00 00	 call	 ??2@YAPAXI@Z		; operator new
  0001a	83 c4 04	 add	 esp, 4
  0001d	85 c0		 test	 eax, eax

; 38   : 
; 39   : 	return ((_Ty _FARQ *)_Ptr);

  0001f	75 28		 jne	 SHORT $LN5@Allocate
$LN1@Allocate:

; 37   : 		_THROW_NCEE(bad_alloc, 0);

  00021	8d 45 08	 lea	 eax, DWORD PTR $T209845[ebp]
  00024	50		 push	 eax
  00025	8d 4d f4	 lea	 ecx, DWORD PTR $T209840[ebp]
  00028	c7 45 08 00 00
	00 00		 mov	 DWORD PTR $T209845[ebp], 0
  0002f	e8 00 00 00 00	 call	 ??0exception@std@@QAE@ABQBD@Z ; std::exception::exception
  00034	68 00 00 00 00	 push	 OFFSET __TI2?AVbad_alloc@std@@
  00039	8d 4d f4	 lea	 ecx, DWORD PTR $T209840[ebp]
  0003c	51		 push	 ecx
  0003d	c7 45 f4 00 00
	00 00		 mov	 DWORD PTR $T209840[ebp], OFFSET ??_7bad_alloc@std@@6B@
  00044	e8 00 00 00 00	 call	 __CxxThrowException@8
$LN10@Allocate:
$LN5@Allocate:

; 40   : 	}

  00049	8b e5		 mov	 esp, ebp
  0004b	5d		 pop	 ebp
  0004c	c3		 ret	 0
$LN9@Allocate:
??$_Allocate@D@std@@YAPADIPAD@Z ENDP			; std::_Allocate<char>
; Function compile flags: /Ogtp
_TEXT	ENDS
;	COMDAT ??0bad_alloc@std@@QAE@ABV01@@Z
_TEXT	SEGMENT
___that$ = 8						; size = 4
??0bad_alloc@std@@QAE@ABV01@@Z PROC			; std::bad_alloc::bad_alloc, COMDAT
; _this$ = ecx
  00000	55		 push	 ebp
  00001	8b ec		 mov	 ebp, esp
  00003	8b 45 08	 mov	 eax, DWORD PTR ___that$[ebp]
  00006	56		 push	 esi
  00007	50		 push	 eax
  00008	8b f1		 mov	 esi, ecx
  0000a	e8 00 00 00 00	 call	 ??0exception@std@@QAE@ABV01@@Z ; std::exception::exception
  0000f	c7 06 00 00 00
	00		 mov	 DWORD PTR [esi], OFFSET ??_7bad_alloc@std@@6B@
  00015	8b c6		 mov	 eax, esi
  00017	5e		 pop	 esi
  00018	5d		 pop	 ebp
  00019	c2 04 00	 ret	 4
??0bad_alloc@std@@QAE@ABV01@@Z ENDP			; std::bad_alloc::bad_alloc
_TEXT	ENDS
PUBLIC	??_C@_0BG@BMABLBJK@?$FLMMOTOP?$FN?$FL?$CFs?$FN?5Date?3?5?$CFs?$AA@ ; `string'
PUBLIC	??_C@_0BD@DNPJLPDE@?$EA?$FLMMOTOP?$FN?5Date?3?5?$CFs?$AA@ ; `string'
PUBLIC	??_C@_0BO@GLDGCAIH@?$EA?$FLMMOTOP?$FN?5Life?5Bank?5Bonus?3?5?$CFd?$AA@ ; `string'
PUBLIC	??_C@_0BO@MPCAPFDH@?$EA?$FLMMOTOP?$FN?5Soul?5Bank?5Bonus?3?5?$CFd?$AA@ ; `string'
PUBLIC	??_C@_0BP@JOJEBDFB@?$EA?$FLMMOTOP?$FN?5Bless?5Bank?5Bonus?3?5?$CFd?$AA@ ; `string'
PUBLIC	??_C@_0BP@JEJBFDGG@?$EA?$FLMMOTOP?$FN?5Chaos?5Bank?5Bonus?3?5?$CFd?$AA@ ; `string'
PUBLIC	??_C@_0BL@MIFEJOAN@?$EA?$FLMMOTOP?$FN?5ZtCred?5Bonus?3?5?$CFd?$AA@ ; `string'
PUBLIC	??_C@_0BL@JNNNGMEB@?$EA?$FLMMOTOP?$FN?5Goblin?5Bonus?3?5?$CFd?$AA@ ; `string'
PUBLIC	??_C@_0BL@MCFHKCKK@?$EA?$FLMMOTOP?$FN?5WCoinP?5Bonus?3?5?$CFd?$AA@ ; `string'
PUBLIC	??_C@_0BL@KOOOOGNL@?$EA?$FLMMOTOP?$FN?5WcoinC?5Bonus?3?5?$CFd?$AA@ ; `string'
PUBLIC	??_C@_0BJ@NMLLBIJJ@?$EA?$FLMMOTOP?$FN?5Item?5Bonus?3?5?$CFs?$AA@ ; `string'
PUBLIC	??_C@_0DG@CODMCGBJ@?$EA?$FLMMOTOP?$FN?5Need?5to?5make?5space?5in?5@ ; `string'
PUBLIC	??_C@_0BH@LAAAIICJ@?$EA?$FLSMS?5MMOTOP?$FN?5Date?3?5?$CFs?$AA@ ; `string'
PUBLIC	??_C@_0CC@HGBANFMA@?$EA?$FLSMS?5MMOTOP?$FN?5Life?5Bank?5Bonus?3?5?$CF@ ; `string'
PUBLIC	??_C@_0CC@NCAGAAHA@?$EA?$FLSMS?5MMOTOP?$FN?5Soul?5Bank?5Bonus?3?5?$CF@ ; `string'
PUBLIC	??_C@_0CD@HGDBOBJH@?$EA?$FLSMS?5MMOTOP?$FN?5Bless?5Bank?5Bonus?3?5@ ; `string'
PUBLIC	??_C@_0CD@HMDEKBKA@?$EA?$FLSMS?5MMOTOP?$FN?5Chaos?5Bank?5Bonus?3?5@ ; `string'
PUBLIC	??_C@_0BP@DJMFBNNJ@?$EA?$FLSMS?5MMOTOP?$FN?5ZtCred?5Bonus?3?5?$CFd?$AA@ ; `string'
PUBLIC	??_C@_0BP@GMEMOPJF@?$EA?$FLSMS?5MMOTOP?$FN?5Goblin?5Bonus?3?5?$CFd?$AA@ ; `string'
PUBLIC	??_C@_0BP@DDMGCBHO@?$EA?$FLSMS?5MMOTOP?$FN?5WCoinP?5Bonus?3?5?$CFd?$AA@ ; `string'
PUBLIC	??_C@_0BP@FPHPGFAP@?$EA?$FLSMS?5MMOTOP?$FN?5WcoinC?5Bonus?3?5?$CFd?$AA@ ; `string'
PUBLIC	??_C@_0BN@GCHBLMLE@?$EA?$FLSMS?5MMOTOP?$FN?5Item?5Bonus?3?5?$CFs?$AA@ ; `string'
PUBLIC	??_C@_0DK@LGEFFFOE@?$EA?$FLSMS?5MMOTOP?$FN?5Need?5to?5make?5space@ ; `string'
PUBLIC	??_C@_0BC@FFOHHNEG@?$CFd?4?$CFd?4?$CFd?5?$CFd?3?$CFd?3?$CFd?$AA@ ; `string'
PUBLIC	??_C@_05DNIIFBMG@?$CFs?5?$CFs?$AA@		; `string'
PUBLIC	??_C@_0BC@FDIFMHGC@?$CFd?5?$CFs?5?$CFs?5?$CFs?5?$CFs?5?$CFd?$AA@ ; `string'
PUBLIC	??_C@_0L@HNCANJIK@mmotop?4txt?$AA@		; `string'
PUBLIC	??_C@_01KDCPPGHE@r?$AA@				; `string'
PUBLIC	__$ArrayPad$
PUBLIC	?MootopReed@Voter@@QAEXXZ			; Voter::MootopReed
EXTRN	_remove:PROC
EXTRN	_fclose:PROC
EXTRN	?MootopVoteUp@CAchievements@@QAEXH@Z:PROC	; CAchievements::MootopVoteUp
EXTRN	?g_Achievements@@3VCAchievements@@A:BYTE	; g_Achievements
EXTRN	?Output@CLogToFile@@QAAXPADZZ:PROC		; CLogToFile::Output
EXTRN	?LogAdd@@3P6AXPADZZA:DWORD			; LogAdd
EXTRN	?ZtUserDataSend@@YAXH@Z:PROC			; ZtUserDataSend
EXTRN	?gObjApplyBuffEffectDuration@@YAEPAUOBJECTSTRUCT@@HEHEHH@Z:PROC ; gObjApplyBuffEffectDuration
EXTRN	?CheckUser@CZtLicense@@QAE_NH@Z:PROC		; CZtLicense::CheckUser
EXTRN	?g_ZtLicense@@3VCZtLicense@@A:BYTE		; g_ZtLicense
EXTRN	?GDSaveUserInfo@GameShop@@QAEXH@Z:PROC		; GameShop::GDSaveUserInfo
EXTRN	?gGameShop@@3VGameShop@@A:BYTE			; gGameShop
EXTRN	?ItemSerialCreateSend@@YAXHEEEHEEEEEHEE@Z:PROC	; ItemSerialCreateSend
EXTRN	?MessageChat@@YAXHPADZZ:PROC			; MessageChat
EXTRN	?CheckInventoryEmptySpace@@YAHPAUOBJECTSTRUCT@@HH@Z:PROC ; CheckInventoryEmptySpace
EXTRN	?ItemAttribute@@3PAUITEM_ATTRIBUTE@@A:BYTE	; ItemAttribute
EXTRN	?StrToCTime@@YA?AVCTime@ATL@@PBD@Z:PROC		; StrToCTime
EXTRN	_sprintf:PROC
EXTRN	_sscanf:PROC
EXTRN	_fgets:PROC
EXTRN	_feof:PROC
EXTRN	_fopen:PROC
EXTRN	___security_cookie:DWORD
EXTRN	__fltused:DWORD
EXTRN	@__security_check_cookie@4:PROC
;	COMDAT ??_C@_0BG@BMABLBJK@?$FLMMOTOP?$FN?$FL?$CFs?$FN?5Date?3?5?$CFs?$AA@
; File d:\program files (x86)\microsoft visual studio 10.0\vc\atlmfc\include\atltime.inl
CONST	SEGMENT
??_C@_0BG@BMABLBJK@?$FLMMOTOP?$FN?$FL?$CFs?$FN?5Date?3?5?$CFs?$AA@ DB '[M'
	DB	'MOTOP][%s] Date: %s', 00H			; `string'
CONST	ENDS
;	COMDAT ??_C@_0BD@DNPJLPDE@?$EA?$FLMMOTOP?$FN?5Date?3?5?$CFs?$AA@
CONST	SEGMENT
??_C@_0BD@DNPJLPDE@?$EA?$FLMMOTOP?$FN?5Date?3?5?$CFs?$AA@ DB '@[MMOTOP] D'
	DB	'ate: %s', 00H				; `string'
CONST	ENDS
;	COMDAT ??_C@_0BO@GLDGCAIH@?$EA?$FLMMOTOP?$FN?5Life?5Bank?5Bonus?3?5?$CFd?$AA@
CONST	SEGMENT
??_C@_0BO@GLDGCAIH@?$EA?$FLMMOTOP?$FN?5Life?5Bank?5Bonus?3?5?$CFd?$AA@ DB '@'
	DB	'[MMOTOP] Life Bank Bonus: %d', 00H		; `string'
CONST	ENDS
;	COMDAT ??_C@_0BO@MPCAPFDH@?$EA?$FLMMOTOP?$FN?5Soul?5Bank?5Bonus?3?5?$CFd?$AA@
CONST	SEGMENT
??_C@_0BO@MPCAPFDH@?$EA?$FLMMOTOP?$FN?5Soul?5Bank?5Bonus?3?5?$CFd?$AA@ DB '@'
	DB	'[MMOTOP] Soul Bank Bonus: %d', 00H		; `string'
CONST	ENDS
;	COMDAT ??_C@_0BP@JOJEBDFB@?$EA?$FLMMOTOP?$FN?5Bless?5Bank?5Bonus?3?5?$CFd?$AA@
CONST	SEGMENT
??_C@_0BP@JOJEBDFB@?$EA?$FLMMOTOP?$FN?5Bless?5Bank?5Bonus?3?5?$CFd?$AA@ DB '@'
	DB	'[MMOTOP] Bless Bank Bonus: %d', 00H		; `string'
CONST	ENDS
;	COMDAT ??_C@_0BP@JEJBFDGG@?$EA?$FLMMOTOP?$FN?5Chaos?5Bank?5Bonus?3?5?$CFd?$AA@
CONST	SEGMENT
??_C@_0BP@JEJBFDGG@?$EA?$FLMMOTOP?$FN?5Chaos?5Bank?5Bonus?3?5?$CFd?$AA@ DB '@'
	DB	'[MMOTOP] Chaos Bank Bonus: %d', 00H		; `string'
CONST	ENDS
;	COMDAT ??_C@_0BL@MIFEJOAN@?$EA?$FLMMOTOP?$FN?5ZtCred?5Bonus?3?5?$CFd?$AA@
CONST	SEGMENT
??_C@_0BL@MIFEJOAN@?$EA?$FLMMOTOP?$FN?5ZtCred?5Bonus?3?5?$CFd?$AA@ DB '@['
	DB	'MMOTOP] ZtCred Bonus: %d', 00H		; `string'
CONST	ENDS
;	COMDAT ??_C@_0BL@JNNNGMEB@?$EA?$FLMMOTOP?$FN?5Goblin?5Bonus?3?5?$CFd?$AA@
CONST	SEGMENT
??_C@_0BL@JNNNGMEB@?$EA?$FLMMOTOP?$FN?5Goblin?5Bonus?3?5?$CFd?$AA@ DB '@['
	DB	'MMOTOP] Goblin Bonus: %d', 00H		; `string'
CONST	ENDS
;	COMDAT ??_C@_0BL@MCFHKCKK@?$EA?$FLMMOTOP?$FN?5WCoinP?5Bonus?3?5?$CFd?$AA@
CONST	SEGMENT
??_C@_0BL@MCFHKCKK@?$EA?$FLMMOTOP?$FN?5WCoinP?5Bonus?3?5?$CFd?$AA@ DB '@['
	DB	'MMOTOP] WCoinP Bonus: %d', 00H		; `string'
CONST	ENDS
;	COMDAT ??_C@_0BL@KOOOOGNL@?$EA?$FLMMOTOP?$FN?5WcoinC?5Bonus?3?5?$CFd?$AA@
CONST	SEGMENT
??_C@_0BL@KOOOOGNL@?$EA?$FLMMOTOP?$FN?5WcoinC?5Bonus?3?5?$CFd?$AA@ DB '@['
	DB	'MMOTOP] WcoinC Bonus: %d', 00H		; `string'
CONST	ENDS
;	COMDAT ??_C@_0BJ@NMLLBIJJ@?$EA?$FLMMOTOP?$FN?5Item?5Bonus?3?5?$CFs?$AA@
CONST	SEGMENT
??_C@_0BJ@NMLLBIJJ@?$EA?$FLMMOTOP?$FN?5Item?5Bonus?3?5?$CFs?$AA@ DB '@[MM'
	DB	'OTOP] Item Bonus: %s', 00H			; `string'
CONST	ENDS
;	COMDAT ??_C@_0DG@CODMCGBJ@?$EA?$FLMMOTOP?$FN?5Need?5to?5make?5space?5in?5@
CONST	SEGMENT
??_C@_0DG@CODMCGBJ@?$EA?$FLMMOTOP?$FN?5Need?5to?5make?5space?5in?5@ DB '@'
	DB	'[MMOTOP] Need to make space in the inventory (%dx%d)', 00H ; `string'
CONST	ENDS
;	COMDAT ??_C@_0BH@LAAAIICJ@?$EA?$FLSMS?5MMOTOP?$FN?5Date?3?5?$CFs?$AA@
CONST	SEGMENT
??_C@_0BH@LAAAIICJ@?$EA?$FLSMS?5MMOTOP?$FN?5Date?3?5?$CFs?$AA@ DB '@[SMS '
	DB	'MMOTOP] Date: %s', 00H			; `string'
CONST	ENDS
;	COMDAT ??_C@_0CC@HGBANFMA@?$EA?$FLSMS?5MMOTOP?$FN?5Life?5Bank?5Bonus?3?5?$CF@
CONST	SEGMENT
??_C@_0CC@HGBANFMA@?$EA?$FLSMS?5MMOTOP?$FN?5Life?5Bank?5Bonus?3?5?$CF@ DB '@'
	DB	'[SMS MMOTOP] Life Bank Bonus: %d', 00H	; `string'
CONST	ENDS
;	COMDAT ??_C@_0CC@NCAGAAHA@?$EA?$FLSMS?5MMOTOP?$FN?5Soul?5Bank?5Bonus?3?5?$CF@
CONST	SEGMENT
??_C@_0CC@NCAGAAHA@?$EA?$FLSMS?5MMOTOP?$FN?5Soul?5Bank?5Bonus?3?5?$CF@ DB '@'
	DB	'[SMS MMOTOP] Soul Bank Bonus: %d', 00H	; `string'
CONST	ENDS
;	COMDAT ??_C@_0CD@HGDBOBJH@?$EA?$FLSMS?5MMOTOP?$FN?5Bless?5Bank?5Bonus?3?5@
CONST	SEGMENT
??_C@_0CD@HGDBOBJH@?$EA?$FLSMS?5MMOTOP?$FN?5Bless?5Bank?5Bonus?3?5@ DB '@'
	DB	'[SMS MMOTOP] Bless Bank Bonus: %d', 00H	; `string'
CONST	ENDS
;	COMDAT ??_C@_0CD@HMDEKBKA@?$EA?$FLSMS?5MMOTOP?$FN?5Chaos?5Bank?5Bonus?3?5@
CONST	SEGMENT
??_C@_0CD@HMDEKBKA@?$EA?$FLSMS?5MMOTOP?$FN?5Chaos?5Bank?5Bonus?3?5@ DB '@'
	DB	'[SMS MMOTOP] Chaos Bank Bonus: %d', 00H	; `string'
CONST	ENDS
;	COMDAT ??_C@_0BP@DJMFBNNJ@?$EA?$FLSMS?5MMOTOP?$FN?5ZtCred?5Bonus?3?5?$CFd?$AA@
CONST	SEGMENT
??_C@_0BP@DJMFBNNJ@?$EA?$FLSMS?5MMOTOP?$FN?5ZtCred?5Bonus?3?5?$CFd?$AA@ DB '@'
	DB	'[SMS MMOTOP] ZtCred Bonus: %d', 00H		; `string'
CONST	ENDS
;	COMDAT ??_C@_0BP@GMEMOPJF@?$EA?$FLSMS?5MMOTOP?$FN?5Goblin?5Bonus?3?5?$CFd?$AA@
CONST	SEGMENT
??_C@_0BP@GMEMOPJF@?$EA?$FLSMS?5MMOTOP?$FN?5Goblin?5Bonus?3?5?$CFd?$AA@ DB '@'
	DB	'[SMS MMOTOP] Goblin Bonus: %d', 00H		; `string'
CONST	ENDS
;	COMDAT ??_C@_0BP@DDMGCBHO@?$EA?$FLSMS?5MMOTOP?$FN?5WCoinP?5Bonus?3?5?$CFd?$AA@
CONST	SEGMENT
??_C@_0BP@DDMGCBHO@?$EA?$FLSMS?5MMOTOP?$FN?5WCoinP?5Bonus?3?5?$CFd?$AA@ DB '@'
	DB	'[SMS MMOTOP] WCoinP Bonus: %d', 00H		; `string'
CONST	ENDS
;	COMDAT ??_C@_0BP@FPHPGFAP@?$EA?$FLSMS?5MMOTOP?$FN?5WcoinC?5Bonus?3?5?$CFd?$AA@
CONST	SEGMENT
??_C@_0BP@FPHPGFAP@?$EA?$FLSMS?5MMOTOP?$FN?5WcoinC?5Bonus?3?5?$CFd?$AA@ DB '@'
	DB	'[SMS MMOTOP] WcoinC Bonus: %d', 00H		; `string'
CONST	ENDS
;	COMDAT ??_C@_0BN@GCHBLMLE@?$EA?$FLSMS?5MMOTOP?$FN?5Item?5Bonus?3?5?$CFs?$AA@
CONST	SEGMENT
??_C@_0BN@GCHBLMLE@?$EA?$FLSMS?5MMOTOP?$FN?5Item?5Bonus?3?5?$CFs?$AA@ DB '@'
	DB	'[SMS MMOTOP] Item Bonus: %s', 00H		; `string'
CONST	ENDS
;	COMDAT ??_C@_0DK@LGEFFFOE@?$EA?$FLSMS?5MMOTOP?$FN?5Need?5to?5make?5space@
CONST	SEGMENT
??_C@_0DK@LGEFFFOE@?$EA?$FLSMS?5MMOTOP?$FN?5Need?5to?5make?5space@ DB '@['
	DB	'SMS MMOTOP] Need to make space in the inventory (%dx%d)', 00H ; `string'
CONST	ENDS
;	COMDAT ??_C@_0BC@FFOHHNEG@?$CFd?4?$CFd?4?$CFd?5?$CFd?3?$CFd?3?$CFd?$AA@
CONST	SEGMENT
??_C@_0BC@FFOHHNEG@?$CFd?4?$CFd?4?$CFd?5?$CFd?3?$CFd?3?$CFd?$AA@ DB '%d.%'
	DB	'd.%d %d:%d:%d', 00H				; `string'
CONST	ENDS
;	COMDAT ??_C@_05DNIIFBMG@?$CFs?5?$CFs?$AA@
CONST	SEGMENT
??_C@_05DNIIFBMG@?$CFs?5?$CFs?$AA@ DB '%s %s', 00H	; `string'
CONST	ENDS
;	COMDAT ??_C@_0BC@FDIFMHGC@?$CFd?5?$CFs?5?$CFs?5?$CFs?5?$CFs?5?$CFd?$AA@
CONST	SEGMENT
??_C@_0BC@FDIFMHGC@?$CFd?5?$CFs?5?$CFs?5?$CFs?5?$CFs?5?$CFd?$AA@ DB '%d %'
	DB	's %s %s %s %d', 00H				; `string'
CONST	ENDS
;	COMDAT ??_C@_0L@HNCANJIK@mmotop?4txt?$AA@
CONST	SEGMENT
??_C@_0L@HNCANJIK@mmotop?4txt?$AA@ DB 'mmotop.txt', 00H	; `string'
CONST	ENDS
;	COMDAT ??_C@_01KDCPPGHE@r?$AA@
CONST	SEGMENT
??_C@_01KDCPPGHE@r?$AA@ DB 'r', 00H			; `string'
; Function compile flags: /Ogtp
; File e:\work\tranet_version\gs\gameserver\voter.cpp
CONST	ENDS
;	COMDAT ?MootopReed@Voter@@QAEXXZ
_TEXT	SEGMENT
_ct$207833 = -1264					; size = 8
_nDay$207814 = -1256					; size = 4
_mId$207803 = -1252					; size = 4
_nMin$207816 = -1248					; size = 4
_nMonth$207813 = -1244					; size = 4
_nHour$207815 = -1240					; size = 4
_nYear$207812 = -1236					; size = 4
_file$ = -1232						; size = 4
_nSec$207817 = -1228					; size = 4
_tData$207835 = -1224					; size = 4
_mRewerd$207808 = -1220					; size = 4
tv948 = -1216						; size = 4
tv942 = -1216						; size = 4
tv936 = -1216						; size = 4
_Height$207866 = -1216					; size = 4
tv832 = -1212						; size = 4
tv823 = -1212						; size = 4
tv803 = -1212						; size = 4
_Width$207867 = -1212					; size = 4
_Buff$ = -1208						; size = 512
_Buff2$207891 = -696					; size = 512
_DataTime$207810 = -184					; size = 100
_mGetIp$207806 = -84					; size = 20
_mGetDate$207804 = -64					; size = 20
_mGetTime$207805 = -44					; size = 20
_mGetAccaunt$207807 = -24				; size = 20
__$ArrayPad$ = -4					; size = 4
?MootopReed@Voter@@QAEXXZ PROC				; Voter::MootopReed, COMDAT
; _this$ = ecx

; 356  : {

  00000	55		 push	 ebp
  00001	8b ec		 mov	 ebp, esp
  00003	81 ec f0 04 00
	00		 sub	 esp, 1264		; 000004f0H
  00009	a1 00 00 00 00	 mov	 eax, DWORD PTR ___security_cookie
  0000e	33 c5		 xor	 eax, ebp
  00010	89 45 fc	 mov	 DWORD PTR __$ArrayPad$[ebp], eax
  00013	57		 push	 edi
  00014	8b f9		 mov	 edi, ecx

; 357  : 	if(!this->MMOTOP_Enable) return;

  00016	80 3f 00	 cmp	 BYTE PTR [edi], 0
  00019	0f 84 63 08 00
	00		 je	 $LN1@MootopReed

; 358  : 
; 359  : 	FILE * file = fopen(MMOTOP_FILE, "r");

  0001f	56		 push	 esi
  00020	68 00 00 00 00	 push	 OFFSET ??_C@_01KDCPPGHE@r?$AA@
  00025	68 00 00 00 00	 push	 OFFSET ??_C@_0L@HNCANJIK@mmotop?4txt?$AA@
  0002a	e8 00 00 00 00	 call	 _fopen
  0002f	8b f0		 mov	 esi, eax
  00031	83 c4 08	 add	 esp, 8
  00034	89 b5 30 fb ff
	ff		 mov	 DWORD PTR _file$[ebp], esi

; 360  : 
; 361  : 	if (file == NULL)

  0003a	85 f6		 test	 esi, esi
  0003c	0f 84 3f 08 00
	00		 je	 $LN69@MootopReed

; 362  : 	{
; 363  : #ifdef VOTE_DEBUG
; 364  : 		LogAddC(2,"[VOTE]No FILE");
; 365  : #endif
; 366  : 		return;
; 367  : 	}
; 368  : 
; 369  : 	char Buff[512];
; 370  : 
; 371  : 	int Count = 0;
; 372  : 
; 373  : 	while (!feof(file))

  00042	56		 push	 esi
  00043	e8 00 00 00 00	 call	 _feof
  00048	83 c4 04	 add	 esp, 4
  0004b	85 c0		 test	 eax, eax
  0004d	0f 85 12 08 00
	00		 jne	 $LN41@MootopReed
  00053	53		 push	 ebx
$LL42@MootopReed:

; 374  : 	{
; 375  : 		fgets(Buff,512,file);

  00054	56		 push	 esi
  00055	8d 85 48 fb ff
	ff		 lea	 eax, DWORD PTR _Buff$[ebp]
  0005b	68 00 02 00 00	 push	 512			; 00000200H
  00060	50		 push	 eax
  00061	e8 00 00 00 00	 call	 _fgets

; 376  : 
; 377  : 		int mId;
; 378  : 		char mGetDate[20];
; 379  : 		char mGetTime[20];
; 380  : 		char mGetIp[20];
; 381  : 		char mGetAccaunt[20];
; 382  : 		int mRewerd;
; 383  : 
; 384  : 		sscanf(Buff, "%d %s %s %s %s %d",&mId, &mGetDate, &mGetTime, &mGetIp, &mGetAccaunt, &mRewerd);

  00066	8d 8d 3c fb ff
	ff		 lea	 ecx, DWORD PTR _mRewerd$207808[ebp]
  0006c	51		 push	 ecx
  0006d	8d 55 e8	 lea	 edx, DWORD PTR _mGetAccaunt$207807[ebp]
  00070	52		 push	 edx
  00071	8d 45 ac	 lea	 eax, DWORD PTR _mGetIp$207806[ebp]
  00074	50		 push	 eax
  00075	8d 4d d4	 lea	 ecx, DWORD PTR _mGetTime$207805[ebp]
  00078	51		 push	 ecx
  00079	8d 55 c0	 lea	 edx, DWORD PTR _mGetDate$207804[ebp]
  0007c	52		 push	 edx
  0007d	8d 85 1c fb ff
	ff		 lea	 eax, DWORD PTR _mId$207803[ebp]
  00083	50		 push	 eax
  00084	8d 8d 48 fb ff
	ff		 lea	 ecx, DWORD PTR _Buff$[ebp]
  0008a	68 00 00 00 00	 push	 OFFSET ??_C@_0BC@FDIFMHGC@?$CFd?5?$CFs?5?$CFs?5?$CFs?5?$CFs?5?$CFd?$AA@
  0008f	51		 push	 ecx
  00090	e8 00 00 00 00	 call	 _sscanf

; 385  : 
; 386  : 		char DataTime[100];
; 387  : 		sprintf(DataTime, "%s %s",mGetDate, mGetTime);

  00095	8d 55 d4	 lea	 edx, DWORD PTR _mGetTime$207805[ebp]
  00098	52		 push	 edx
  00099	8d 45 c0	 lea	 eax, DWORD PTR _mGetDate$207804[ebp]
  0009c	50		 push	 eax
  0009d	8d 8d 48 ff ff
	ff		 lea	 ecx, DWORD PTR _DataTime$207810[ebp]
  000a3	68 00 00 00 00	 push	 OFFSET ??_C@_05DNIIFBMG@?$CFs?5?$CFs?$AA@
  000a8	51		 push	 ecx
  000a9	e8 00 00 00 00	 call	 _sprintf

; 388  : 
; 389  : 		int nYear, nMonth, nDay, nHour, nMin, nSec;
; 390  : 		sscanf(DataTime, "%d.%d.%d %d:%d:%d", &nDay, &nMonth, &nYear, &nHour, &nMin, &nSec);

  000ae	8d 95 34 fb ff
	ff		 lea	 edx, DWORD PTR _nSec$207817[ebp]
  000b4	52		 push	 edx
  000b5	8d 85 20 fb ff
	ff		 lea	 eax, DWORD PTR _nMin$207816[ebp]
  000bb	50		 push	 eax
  000bc	8d 8d 28 fb ff
	ff		 lea	 ecx, DWORD PTR _nHour$207815[ebp]
  000c2	51		 push	 ecx
  000c3	8d 95 2c fb ff
	ff		 lea	 edx, DWORD PTR _nYear$207812[ebp]
  000c9	52		 push	 edx
  000ca	8d 85 24 fb ff
	ff		 lea	 eax, DWORD PTR _nMonth$207813[ebp]
  000d0	50		 push	 eax
  000d1	8d 8d 18 fb ff
	ff		 lea	 ecx, DWORD PTR _nDay$207814[ebp]
  000d7	51		 push	 ecx
  000d8	8d 95 48 ff ff
	ff		 lea	 edx, DWORD PTR _DataTime$207810[ebp]
  000de	68 00 00 00 00	 push	 OFFSET ??_C@_0BC@FFOHHNEG@?$CFd?4?$CFd?4?$CFd?5?$CFd?3?$CFd?3?$CFd?$AA@
  000e3	52		 push	 edx
  000e4	e8 00 00 00 00	 call	 _sscanf
  000e9	83 c4 5c	 add	 esp, 92			; 0000005cH

; 391  : 		//20140215010507
; 392  : 		if( ((nYear >= 1900)  && (nMonth >= 1 && nMonth <= 12) && (nDay >= 1 && nDay <= 31) && (nHour >= 0 && nHour <= 23) && (nMin >= 0 && nMin <= 59) && (nSec >= 0 && nSec <= 59)) )

  000ec	81 bd 2c fb ff
	ff 6c 07 00 00	 cmp	 DWORD PTR _nYear$207812[ebp], 1900 ; 0000076cH
  000f6	0f 8c 51 07 00
	00		 jl	 $LN67@MootopReed
  000fc	8b 85 24 fb ff
	ff		 mov	 eax, DWORD PTR _nMonth$207813[ebp]
  00102	48		 dec	 eax
  00103	83 f8 0b	 cmp	 eax, 11			; 0000000bH
  00106	0f 87 41 07 00
	00		 ja	 $LN67@MootopReed
  0010c	8b 8d 18 fb ff
	ff		 mov	 ecx, DWORD PTR _nDay$207814[ebp]
  00112	49		 dec	 ecx
  00113	83 f9 1e	 cmp	 ecx, 30			; 0000001eH
  00116	0f 87 31 07 00
	00		 ja	 $LN67@MootopReed
  0011c	83 bd 28 fb ff
	ff 17		 cmp	 DWORD PTR _nHour$207815[ebp], 23 ; 00000017H
  00123	0f 87 24 07 00
	00		 ja	 $LN67@MootopReed
  00129	b8 3b 00 00 00	 mov	 eax, 59			; 0000003bH
  0012e	39 85 20 fb ff
	ff		 cmp	 DWORD PTR _nMin$207816[ebp], eax
  00134	0f 87 13 07 00
	00		 ja	 $LN67@MootopReed
  0013a	39 85 34 fb ff
	ff		 cmp	 DWORD PTR _nSec$207817[ebp], eax
  00140	0f 87 07 07 00
	00		 ja	 $LN67@MootopReed

; 393  : 		{
; 394  : 
; 395  : 		}
; 396  : 		else
; 397  : 		{
; 398  : 			continue;
; 399  : 		}
; 400  : 
; 401  : 		int aIndex = -1;
; 402  : 
; 403  : 		for (int n = OBJ_STARTUSERINDZT; n<OBJMAX; n++)

  00146	8b 15 00 00 00
	00		 mov	 edx, DWORD PTR ?gObj@@3PAUOBJECTSTRUCT@@A ; gObj
  0014c	bb b0 36 00 00	 mov	 ebx, 14000		; 000036b0H
  00151	81 c2 6c a7 40
	09		 add	 edx, 155232108		; 0940a76cH
$LL38@MootopReed:

; 404  : 		{
; 405  : 			if (gObj[n].Connected >= PLAYER_PLAYING)

  00157	83 7a 98 03	 cmp	 DWORD PTR [edx-104], 3
  0015b	7c 6c		 jl	 SHORT $LN37@MootopReed

; 406  : 			{
; 407  : 				if (gObj[n].AccountID[0] == mGetAccaunt[0])

  0015d	8a 4d e8	 mov	 cl, BYTE PTR _mGetAccaunt$207807[ebp]
  00160	38 0a		 cmp	 BYTE PTR [edx], cl
  00162	75 2c		 jne	 SHORT $LN34@MootopReed

; 408  : 				{
; 409  : 					if (!strcmp(gObj[n].AccountID, mGetAccaunt))

  00164	8d 75 e8	 lea	 esi, DWORD PTR _mGetAccaunt$207807[ebp]
  00167	8b c2		 mov	 eax, edx
  00169	8d a4 24 00 00
	00 00		 npad	 7
$LL58@MootopReed:
  00170	8a 08		 mov	 cl, BYTE PTR [eax]
  00172	3a 0e		 cmp	 cl, BYTE PTR [esi]
  00174	75 4a		 jne	 SHORT $LN63@MootopReed
  00176	84 c9		 test	 cl, cl
  00178	74 12		 je	 SHORT $LN60@MootopReed
  0017a	8a 48 01	 mov	 cl, BYTE PTR [eax+1]
  0017d	3a 4e 01	 cmp	 cl, BYTE PTR [esi+1]
  00180	75 3e		 jne	 SHORT $LN63@MootopReed
  00182	83 c0 02	 add	 eax, 2
  00185	83 c6 02	 add	 esi, 2
  00188	84 c9		 test	 cl, cl
  0018a	75 e4		 jne	 SHORT $LL58@MootopReed
$LN60@MootopReed:
  0018c	33 c0		 xor	 eax, eax
  0018e	eb 35		 jmp	 SHORT $LN65@MootopReed
$LN34@MootopReed:

; 410  : 					{
; 411  : 						aIndex = n;
; 412  : 						break;
; 413  : 					}
; 414  : 				}
; 415  : 				else if(gObj[n].Name[0] == mGetAccaunt[0])

  00190	38 4a 0b	 cmp	 BYTE PTR [edx+11], cl
  00193	8d 42 0b	 lea	 eax, DWORD PTR [edx+11]
  00196	75 31		 jne	 SHORT $LN37@MootopReed

; 416  : 				{
; 417  : 					if (!strcmp(gObj[n].Name, mGetAccaunt))

  00198	8d 75 e8	 lea	 esi, DWORD PTR _mGetAccaunt$207807[ebp]
  0019b	eb 03 8d 49 00	 npad	 5
$LL62@MootopReed:
  001a0	8a 08		 mov	 cl, BYTE PTR [eax]
  001a2	3a 0e		 cmp	 cl, BYTE PTR [esi]
  001a4	75 1a		 jne	 SHORT $LN63@MootopReed
  001a6	84 c9		 test	 cl, cl
  001a8	74 12		 je	 SHORT $LN64@MootopReed
  001aa	8a 48 01	 mov	 cl, BYTE PTR [eax+1]
  001ad	3a 4e 01	 cmp	 cl, BYTE PTR [esi+1]
  001b0	75 0e		 jne	 SHORT $LN63@MootopReed
  001b2	83 c0 02	 add	 eax, 2
  001b5	83 c6 02	 add	 esi, 2
  001b8	84 c9		 test	 cl, cl
  001ba	75 e4		 jne	 SHORT $LL62@MootopReed
$LN64@MootopReed:
  001bc	33 c0		 xor	 eax, eax
  001be	eb 05		 jmp	 SHORT $LN65@MootopReed
$LN63@MootopReed:
  001c0	1b c0		 sbb	 eax, eax
  001c2	83 d8 ff	 sbb	 eax, -1
$LN65@MootopReed:
  001c5	85 c0		 test	 eax, eax
  001c7	74 18		 je	 SHORT $LN66@MootopReed
$LN37@MootopReed:

; 393  : 		{
; 394  : 
; 395  : 		}
; 396  : 		else
; 397  : 		{
; 398  : 			continue;
; 399  : 		}
; 400  : 
; 401  : 		int aIndex = -1;
; 402  : 
; 403  : 		for (int n = OBJ_STARTUSERINDZT; n<OBJMAX; n++)

  001c9	43		 inc	 ebx
  001ca	81 c2 50 2b 00
	00		 add	 edx, 11088		; 00002b50H
  001d0	81 fb 98 3a 00
	00		 cmp	 ebx, 15000		; 00003a98H
  001d6	0f 8c 7b ff ff
	ff		 jl	 $LL38@MootopReed

; 416  : 				{
; 417  : 					if (!strcmp(gObj[n].Name, mGetAccaunt))

  001dc	e9 6c 06 00 00	 jmp	 $LN67@MootopReed
$LN66@MootopReed:

; 418  : 					{
; 419  : 						aIndex = n;
; 420  : 						break;
; 421  : 					}
; 422  : 				}
; 423  : 			}
; 424  : 		}
; 425  : 
; 426  : 		if(aIndex == -1) continue;

  001e1	83 fb ff	 cmp	 ebx, -1
  001e4	0f 84 63 06 00
	00		 je	 $LN67@MootopReed

; 427  : 
; 428  : 		CTime ct = StrToCTime(DataTime);

  001ea	8d 95 48 ff ff
	ff		 lea	 edx, DWORD PTR _DataTime$207810[ebp]
  001f0	52		 push	 edx
  001f1	8d 85 10 fb ff
	ff		 lea	 eax, DWORD PTR _ct$207833[ebp]
  001f7	50		 push	 eax
  001f8	e8 00 00 00 00	 call	 ?StrToCTime@@YA?AVCTime@ATL@@PBD@Z ; StrToCTime

; 429  : 		DWORD tData = ct.GetTime();

  001fd	8b 85 10 fb ff
	ff		 mov	 eax, DWORD PTR _ct$207833[ebp]

; 430  : 
; 431  : 		LPOBJ lpObj = &gObj[aIndex];

  00203	8b f3		 mov	 esi, ebx
  00205	69 f6 50 2b 00
	00		 imul	 esi, 11088		; 00002b50H
  0020b	03 35 00 00 00
	00		 add	 esi, DWORD PTR ?gObj@@3PAUOBJECTSTRUCT@@A ; gObj
  00211	83 c4 08	 add	 esp, 8
  00214	89 85 38 fb ff
	ff		 mov	 DWORD PTR _tData$207835[ebp], eax

; 432  : 
; 433  : 
; 434  : 		if(tData > lpObj->MTDate)

  0021a	3b 86 0c 28 00
	00		 cmp	 eax, DWORD PTR [esi+10252]
  00220	0f 86 27 06 00
	00		 jbe	 $LN67@MootopReed

; 435  : 		{
; 436  : 			if(mRewerd == 2)

  00226	83 bd 3c fb ff
	ff 02		 cmp	 DWORD PTR _mRewerd$207808[ebp], 2
  0022d	0f 85 b9 02 00
	00		 jne	 $LN27@MootopReed

; 437  : 			{
; 438  : 			//~~~~~~~~~~~~~~~~~~~~~~~~~~~~~~~~~~~~~~~~~~~~~~~~~
; 439  : 				if (this->MMOTOP_SMSBonusItemActive)

  00233	83 bf 10 01 00
	00 00		 cmp	 DWORD PTR [edi+272], 0
  0023a	0f 84 a4 00 00
	00		 je	 $LN26@MootopReed

; 440  : 				{
; 441  : 					int Height = ItemAttribute[ITEMGET(this->MMOTOP_SMSBonusItemType, this->MMOTOP_SMSBonusItemIndex)].Height;

  00240	8b 87 14 01 00
	00		 mov	 eax, DWORD PTR [edi+276]
  00246	c1 e0 09	 shl	 eax, 9
  00249	03 87 18 01 00
	00		 add	 eax, DWORD PTR [edi+280]
  0024f	6b c0 70	 imul	 eax, 112		; 00000070H
  00252	0f b6 88 24 00
	00 00		 movzx	 ecx, BYTE PTR ?ItemAttribute@@3PAUITEM_ATTRIBUTE@@A[eax+36]

; 442  : 					int Width = ItemAttribute[ITEMGET(this->MMOTOP_SMSBonusItemType, this->MMOTOP_SMSBonusItemIndex)].Width;

  00259	0f b6 80 23 00
	00 00		 movzx	 eax, BYTE PTR ?ItemAttribute@@3PAUITEM_ATTRIBUTE@@A[eax+35]

; 443  : 
; 444  : 					if(!CheckInventoryEmptySpace(lpObj, Height, Width))

  00260	50		 push	 eax
  00261	51		 push	 ecx
  00262	56		 push	 esi
  00263	e8 00 00 00 00	 call	 ?CheckInventoryEmptySpace@@YAHPAUOBJECTSTRUCT@@HH@Z ; CheckInventoryEmptySpace
  00268	83 c4 0c	 add	 esp, 12			; 0000000cH
  0026b	85 c0		 test	 eax, eax
  0026d	75 1a		 jne	 SHORT $LN25@MootopReed

; 445  : 					{
; 446  : 						MessageChat(aIndex, "@[SMS MMOTOP] Need to make space in the inventory (%dx%d)", this->MMOTOP_SMSBonusWcoinC);

  0026f	8b 8f 00 01 00
	00		 mov	 ecx, DWORD PTR [edi+256]
  00275	51		 push	 ecx
  00276	68 00 00 00 00	 push	 OFFSET ??_C@_0DK@LGEFFFOE@?$EA?$FLSMS?5MMOTOP?$FN?5Need?5to?5make?5space@
  0027b	53		 push	 ebx
  0027c	e8 00 00 00 00	 call	 ?MessageChat@@YAXHPADZZ	; MessageChat
  00281	83 c4 0c	 add	 esp, 12			; 0000000cH

; 447  : 						continue;

  00284	e9 c4 05 00 00	 jmp	 $LN67@MootopReed
$LN25@MootopReed:

; 448  : 					}
; 449  : 
; 450  : 					ItemSerialCreateSend(aIndex, 235, 0, 0, ITEMGET(this->MMOTOP_SMSBonusItemType, this->MMOTOP_SMSBonusItemIndex), this->MMOTOP_SMSBonusItemLevel, 0, 0, 0, 0, aIndex, 0, 0);

  00289	8b 87 14 01 00
	00		 mov	 eax, DWORD PTR [edi+276]
  0028f	0f b6 97 1c 01
	00 00		 movzx	 edx, BYTE PTR [edi+284]
  00296	6a 00		 push	 0
  00298	6a 00		 push	 0
  0029a	53		 push	 ebx
  0029b	6a 00		 push	 0
  0029d	6a 00		 push	 0
  0029f	6a 00		 push	 0
  002a1	6a 00		 push	 0
  002a3	52		 push	 edx
  002a4	c1 e0 09	 shl	 eax, 9
  002a7	03 87 18 01 00
	00		 add	 eax, DWORD PTR [edi+280]
  002ad	50		 push	 eax
  002ae	6a 00		 push	 0
  002b0	6a 00		 push	 0
  002b2	68 eb 00 00 00	 push	 235			; 000000ebH
  002b7	53		 push	 ebx
  002b8	e8 00 00 00 00	 call	 ?ItemSerialCreateSend@@YAXHEEEHEEEEEHEE@Z ; ItemSerialCreateSend

; 451  : 					MessageChat(aIndex, "@[SMS MMOTOP] Item Bonus: %s", ItemAttribute[ITEMGET(this->MMOTOP_SMSBonusItemType, this->MMOTOP_SMSBonusItemIndex)].Name);

  002bd	8b 8f 14 01 00
	00		 mov	 ecx, DWORD PTR [edi+276]
  002c3	c1 e1 09	 shl	 ecx, 9
  002c6	03 8f 18 01 00
	00		 add	 ecx, DWORD PTR [edi+280]
  002cc	6b c9 70	 imul	 ecx, 112		; 00000070H
  002cf	81 c1 00 00 00
	00		 add	 ecx, OFFSET ?ItemAttribute@@3PAUITEM_ATTRIBUTE@@A ; ItemAttribute
  002d5	51		 push	 ecx
  002d6	68 00 00 00 00	 push	 OFFSET ??_C@_0BN@GCHBLMLE@?$EA?$FLSMS?5MMOTOP?$FN?5Item?5Bonus?3?5?$CFs?$AA@
  002db	53		 push	 ebx
  002dc	e8 00 00 00 00	 call	 ?MessageChat@@YAXHPADZZ	; MessageChat
  002e1	83 c4 40	 add	 esp, 64			; 00000040H
$LN26@MootopReed:

; 452  : 				}
; 453  : 
; 454  : 				if (this->MMOTOP_SMSBonusWcoinC > 0)

  002e4	8b 87 00 01 00
	00		 mov	 eax, DWORD PTR [edi+256]
  002ea	89 85 44 fb ff
	ff		 mov	 DWORD PTR tv803[ebp], eax
  002f0	85 c0		 test	 eax, eax
  002f2	7e 32		 jle	 SHORT $LN24@MootopReed

; 455  : 				{
; 456  : 					lpObj->GameShop.WCoinC += this->MMOTOP_SMSBonusWcoinC;

  002f4	db 85 44 fb ff
	ff		 fild	 DWORD PTR tv803[ebp]

; 457  : 					gGameShop.GDSaveUserInfo(aIndex);

  002fa	53		 push	 ebx
  002fb	b9 00 00 00 00	 mov	 ecx, OFFSET ?gGameShop@@3VGameShop@@A ; gGameShop
  00300	dc 86 00 23 00
	00		 fadd	 QWORD PTR [esi+8960]
  00306	dd 9e 00 23 00
	00		 fstp	 QWORD PTR [esi+8960]
  0030c	e8 00 00 00 00	 call	 ?GDSaveUserInfo@GameShop@@QAEXH@Z ; GameShop::GDSaveUserInfo

; 458  : 					MessageChat(aIndex, "@[SMS MMOTOP] WcoinC Bonus: %d", this->MMOTOP_SMSBonusWcoinC);

  00311	8b 97 00 01 00
	00		 mov	 edx, DWORD PTR [edi+256]
  00317	52		 push	 edx
  00318	68 00 00 00 00	 push	 OFFSET ??_C@_0BP@FPHPGFAP@?$EA?$FLSMS?5MMOTOP?$FN?5WcoinC?5Bonus?3?5?$CFd?$AA@
  0031d	53		 push	 ebx
  0031e	e8 00 00 00 00	 call	 ?MessageChat@@YAXHPADZZ	; MessageChat
  00323	83 c4 0c	 add	 esp, 12			; 0000000cH
$LN24@MootopReed:

; 459  : 				}
; 460  : 
; 461  : 				if (this->MMOTOP_SMSBonusWcoinP > 0)

  00326	8b 87 04 01 00
	00		 mov	 eax, DWORD PTR [edi+260]
  0032c	89 85 44 fb ff
	ff		 mov	 DWORD PTR tv823[ebp], eax
  00332	85 c0		 test	 eax, eax
  00334	7e 32		 jle	 SHORT $LN23@MootopReed

; 462  : 				{
; 463  : 					lpObj->GameShop.WCoinP += this->MMOTOP_SMSBonusWcoinP;

  00336	db 85 44 fb ff
	ff		 fild	 DWORD PTR tv823[ebp]

; 464  : 					gGameShop.GDSaveUserInfo(aIndex);

  0033c	53		 push	 ebx
  0033d	b9 00 00 00 00	 mov	 ecx, OFFSET ?gGameShop@@3VGameShop@@A ; gGameShop
  00342	dc 86 f8 22 00
	00		 fadd	 QWORD PTR [esi+8952]
  00348	dd 9e f8 22 00
	00		 fstp	 QWORD PTR [esi+8952]
  0034e	e8 00 00 00 00	 call	 ?GDSaveUserInfo@GameShop@@QAEXH@Z ; GameShop::GDSaveUserInfo

; 465  : 					MessageChat(aIndex, "@[SMS MMOTOP] WCoinP Bonus: %d", this->MMOTOP_SMSBonusWcoinP);

  00353	8b 87 04 01 00
	00		 mov	 eax, DWORD PTR [edi+260]
  00359	50		 push	 eax
  0035a	68 00 00 00 00	 push	 OFFSET ??_C@_0BP@DDMGCBHO@?$EA?$FLSMS?5MMOTOP?$FN?5WCoinP?5Bonus?3?5?$CFd?$AA@
  0035f	53		 push	 ebx
  00360	e8 00 00 00 00	 call	 ?MessageChat@@YAXHPADZZ	; MessageChat
  00365	83 c4 0c	 add	 esp, 12			; 0000000cH
$LN23@MootopReed:

; 466  : 				}
; 467  : 
; 468  : 				if (this->MMOTOP_SMSBonusWcoinG > 0)

  00368	8b 87 08 01 00
	00		 mov	 eax, DWORD PTR [edi+264]
  0036e	89 85 44 fb ff
	ff		 mov	 DWORD PTR tv832[ebp], eax
  00374	85 c0		 test	 eax, eax
  00376	7e 32		 jle	 SHORT $LN22@MootopReed

; 469  : 				{
; 470  : 					lpObj->GameShop.GoblinPoint += this->MMOTOP_SMSBonusWcoinG;

  00378	db 85 44 fb ff
	ff		 fild	 DWORD PTR tv832[ebp]

; 471  : 					gGameShop.GDSaveUserInfo(aIndex);

  0037e	53		 push	 ebx
  0037f	b9 00 00 00 00	 mov	 ecx, OFFSET ?gGameShop@@3VGameShop@@A ; gGameShop
  00384	dc 86 08 23 00
	00		 fadd	 QWORD PTR [esi+8968]
  0038a	dd 9e 08 23 00
	00		 fstp	 QWORD PTR [esi+8968]
  00390	e8 00 00 00 00	 call	 ?GDSaveUserInfo@GameShop@@QAEXH@Z ; GameShop::GDSaveUserInfo

; 472  : 					MessageChat(aIndex, "@[SMS MMOTOP] Goblin Bonus: %d", this->MMOTOP_SMSBonusWcoinG);

  00395	8b 8f 08 01 00
	00		 mov	 ecx, DWORD PTR [edi+264]
  0039b	51		 push	 ecx
  0039c	68 00 00 00 00	 push	 OFFSET ??_C@_0BP@GMEMOPJF@?$EA?$FLSMS?5MMOTOP?$FN?5Goblin?5Bonus?3?5?$CFd?$AA@
  003a1	53		 push	 ebx
  003a2	e8 00 00 00 00	 call	 ?MessageChat@@YAXHPADZZ	; MessageChat
  003a7	83 c4 0c	 add	 esp, 12			; 0000000cH
$LN22@MootopReed:

; 473  : 				}
; 474  : 
; 475  : 				if (this->MMOTOP_SMSBonusZtCred > 0)

  003aa	83 bf 0c 01 00
	00 00		 cmp	 DWORD PTR [edi+268], 0
  003b1	7e 27		 jle	 SHORT $LN21@MootopReed

; 476  : 				{
; 477  : 					lpObj->ZtCred += this->MMOTOP_SMSBonusZtCred;

  003b3	db 87 0c 01 00
	00		 fild	 DWORD PTR [edi+268]
  003b9	d8 86 a8 22 00
	00		 fadd	 DWORD PTR [esi+8872]
  003bf	d9 9e a8 22 00
	00		 fstp	 DWORD PTR [esi+8872]

; 478  : 					MessageChat(aIndex, "@[SMS MMOTOP] ZtCred Bonus: %d", this->MMOTOP_SMSBonusZtCred);

  003c5	8b 97 0c 01 00
	00		 mov	 edx, DWORD PTR [edi+268]
  003cb	52		 push	 edx
  003cc	68 00 00 00 00	 push	 OFFSET ??_C@_0BP@DJMFBNNJ@?$EA?$FLSMS?5MMOTOP?$FN?5ZtCred?5Bonus?3?5?$CFd?$AA@
  003d1	53		 push	 ebx
  003d2	e8 00 00 00 00	 call	 ?MessageChat@@YAXHPADZZ	; MessageChat
  003d7	83 c4 0c	 add	 esp, 12			; 0000000cH
$LN21@MootopReed:

; 479  : 				}
; 480  : 
; 481  : 				if (this->MMOTOP_SMSBonusChaosBank > 0)

  003da	83 bf 20 01 00
	00 00		 cmp	 DWORD PTR [edi+288], 0
  003e1	7e 21		 jle	 SHORT $LN20@MootopReed

; 482  : 				{
; 483  : 					lpObj->ChaosBank += this->MMOTOP_SMSBonusChaosBank;

  003e3	8b 87 20 01 00
	00		 mov	 eax, DWORD PTR [edi+288]
  003e9	01 86 e4 27 00
	00		 add	 DWORD PTR [esi+10212], eax

; 484  : 					MessageChat(aIndex, "@[SMS MMOTOP] Chaos Bank Bonus: %d", this->MMOTOP_SMSBonusChaosBank);

  003ef	8b 8f 20 01 00
	00		 mov	 ecx, DWORD PTR [edi+288]
  003f5	51		 push	 ecx
  003f6	68 00 00 00 00	 push	 OFFSET ??_C@_0CD@HMDEKBKA@?$EA?$FLSMS?5MMOTOP?$FN?5Chaos?5Bank?5Bonus?3?5@
  003fb	53		 push	 ebx
  003fc	e8 00 00 00 00	 call	 ?MessageChat@@YAXHPADZZ	; MessageChat
  00401	83 c4 0c	 add	 esp, 12			; 0000000cH
$LN20@MootopReed:

; 485  : 				}
; 486  : 
; 487  : 				if (this->MMOTOP_SMSBonusBlessBank > 0)

  00404	83 bf 24 01 00
	00 00		 cmp	 DWORD PTR [edi+292], 0
  0040b	7e 21		 jle	 SHORT $LN19@MootopReed

; 488  : 				{
; 489  : 					lpObj->BlessBank += this->MMOTOP_SMSBonusBlessBank;

  0040d	8b 97 24 01 00
	00		 mov	 edx, DWORD PTR [edi+292]
  00413	01 96 e8 27 00
	00		 add	 DWORD PTR [esi+10216], edx

; 490  : 					MessageChat(aIndex, "@[SMS MMOTOP] Bless Bank Bonus: %d", this->MMOTOP_SMSBonusBlessBank);

  00419	8b 87 24 01 00
	00		 mov	 eax, DWORD PTR [edi+292]
  0041f	50		 push	 eax
  00420	68 00 00 00 00	 push	 OFFSET ??_C@_0CD@HGDBOBJH@?$EA?$FLSMS?5MMOTOP?$FN?5Bless?5Bank?5Bonus?3?5@
  00425	53		 push	 ebx
  00426	e8 00 00 00 00	 call	 ?MessageChat@@YAXHPADZZ	; MessageChat
  0042b	83 c4 0c	 add	 esp, 12			; 0000000cH
$LN19@MootopReed:

; 491  : 				}
; 492  : 
; 493  : 				if (this->MMOTOP_SMSBonusSoulBank > 0)

  0042e	83 bf 28 01 00
	00 00		 cmp	 DWORD PTR [edi+296], 0
  00435	7e 21		 jle	 SHORT $LN18@MootopReed

; 494  : 				{
; 495  : 					lpObj->SoulBank += this->MMOTOP_SMSBonusSoulBank;

  00437	8b 8f 28 01 00
	00		 mov	 ecx, DWORD PTR [edi+296]
  0043d	01 8e ec 27 00
	00		 add	 DWORD PTR [esi+10220], ecx

; 496  : 					MessageChat(aIndex, "@[SMS MMOTOP] Soul Bank Bonus: %d", this->MMOTOP_SMSBonusSoulBank);

  00443	8b 97 28 01 00
	00		 mov	 edx, DWORD PTR [edi+296]
  00449	52		 push	 edx
  0044a	68 00 00 00 00	 push	 OFFSET ??_C@_0CC@NCAGAAHA@?$EA?$FLSMS?5MMOTOP?$FN?5Soul?5Bank?5Bonus?3?5?$CF@
  0044f	53		 push	 ebx
  00450	e8 00 00 00 00	 call	 ?MessageChat@@YAXHPADZZ	; MessageChat
  00455	83 c4 0c	 add	 esp, 12			; 0000000cH
$LN18@MootopReed:

; 497  : 				}
; 498  : 
; 499  : 				if (this->MMOTOP_SMSBonusLifeBank > 0)

  00458	83 bf 2c 01 00
	00 00		 cmp	 DWORD PTR [edi+300], 0
  0045f	7e 21		 jle	 SHORT $LN17@MootopReed

; 500  : 				{
; 501  : 					lpObj->LifeBank += this->MMOTOP_SMSBonusLifeBank;

  00461	8b 87 2c 01 00
	00		 mov	 eax, DWORD PTR [edi+300]
  00467	01 86 f0 27 00
	00		 add	 DWORD PTR [esi+10224], eax

; 502  : 					MessageChat(aIndex, "@[SMS MMOTOP] Life Bank Bonus: %d", this->MMOTOP_SMSBonusLifeBank);

  0046d	8b 8f 2c 01 00
	00		 mov	 ecx, DWORD PTR [edi+300]
  00473	51		 push	 ecx
  00474	68 00 00 00 00	 push	 OFFSET ??_C@_0CC@HGBANFMA@?$EA?$FLSMS?5MMOTOP?$FN?5Life?5Bank?5Bonus?3?5?$CF@
  00479	53		 push	 ebx
  0047a	e8 00 00 00 00	 call	 ?MessageChat@@YAXHPADZZ	; MessageChat
  0047f	83 c4 0c	 add	 esp, 12			; 0000000cH
$LN17@MootopReed:

; 503  : 				}
; 504  : 
; 505  : 				// --> Buff Effect Custom
; 506  : 				if(g_ZtLicense.CheckUser(eZtUB::Gredy) || g_ZtLicense.CheckUser(eZtUB::GredyLocal) || g_ZtLicense.CheckUser(eZtUB::Gredy2))

  00482	6a 20		 push	 32			; 00000020H
  00484	b9 00 00 00 00	 mov	 ecx, OFFSET ?g_ZtLicense@@3VCZtLicense@@A ; g_ZtLicense
  00489	e8 00 00 00 00	 call	 ?CheckUser@CZtLicense@@QAE_NH@Z ; CZtLicense::CheckUser
  0048e	84 c0		 test	 al, al
  00490	75 20		 jne	 SHORT $LN15@MootopReed
  00492	6a 21		 push	 33			; 00000021H
  00494	b9 00 00 00 00	 mov	 ecx, OFFSET ?g_ZtLicense@@3VCZtLicense@@A ; g_ZtLicense
  00499	e8 00 00 00 00	 call	 ?CheckUser@CZtLicense@@QAE_NH@Z ; CZtLicense::CheckUser
  0049e	84 c0		 test	 al, al
  004a0	75 10		 jne	 SHORT $LN15@MootopReed
  004a2	6a 22		 push	 34			; 00000022H
  004a4	b9 00 00 00 00	 mov	 ecx, OFFSET ?g_ZtLicense@@3VCZtLicense@@A ; g_ZtLicense
  004a9	e8 00 00 00 00	 call	 ?CheckUser@CZtLicense@@QAE_NH@Z ; CZtLicense::CheckUser
  004ae	84 c0		 test	 al, al
  004b0	74 29		 je	 SHORT $LN16@MootopReed
$LN15@MootopReed:

; 507  : 				{
; 508  : 					lpObj->MT_BuffTime += this->MMOTOP_BuffTime;

  004b2	8b 97 60 02 00
	00		 mov	 edx, DWORD PTR [edi+608]
  004b8	01 96 dc 2a 00
	00		 add	 DWORD PTR [esi+10972], edx

; 509  : 					gObjApplyBuffEffectDuration(lpObj, AT_MMOTOP_BUFF, 0, 0, 0, 0, this->MMOTOP_BuffTime);

  004be	8b 87 60 02 00
	00		 mov	 eax, DWORD PTR [edi+608]
  004c4	50		 push	 eax
  004c5	6a 00		 push	 0
  004c7	6a 00		 push	 0
  004c9	6a 00		 push	 0
  004cb	6a 00		 push	 0
  004cd	68 c2 00 00 00	 push	 194			; 000000c2H
  004d2	56		 push	 esi
  004d3	e8 00 00 00 00	 call	 ?gObjApplyBuffEffectDuration@@YAEPAUOBJECTSTRUCT@@HEHEHH@Z ; gObjApplyBuffEffectDuration
  004d8	83 c4 1c	 add	 esp, 28			; 0000001cH
$LN16@MootopReed:

; 510  : 				}
; 511  : 
; 512  : 				MessageChat(aIndex,"@[SMS MMOTOP] Date: %s",DataTime);

  004db	8d 8d 48 ff ff
	ff		 lea	 ecx, DWORD PTR _DataTime$207810[ebp]
  004e1	51		 push	 ecx
  004e2	68 00 00 00 00	 push	 OFFSET ??_C@_0BH@LAAAIICJ@?$EA?$FLSMS?5MMOTOP?$FN?5Date?3?5?$CFs?$AA@

; 513  : 			}
; 514  : 			else

  004e7	e9 c6 02 00 00	 jmp	 $LN71@MootopReed
$LN27@MootopReed:

; 515  : 			{
; 516  : 			//~~~~~~~~~~~~~~~~~~~~~~~~~~~~~~~~~~~~~~~~~~~~~~~~~
; 517  : 
; 518  : 				if (this->MMOTOP_BonusItemActive)

  004ec	83 bf e0 00 00
	00 00		 cmp	 DWORD PTR [edi+224], 0
  004f3	0f 84 b6 00 00
	00		 je	 $LN13@MootopReed

; 519  : 				{
; 520  : 					int Height = ItemAttribute[ITEMGET(this->MMOTOP_BonusItemType, this->MMOTOP_BonusItemIndex)].Height;

  004f9	8b 87 e4 00 00
	00		 mov	 eax, DWORD PTR [edi+228]
  004ff	c1 e0 09	 shl	 eax, 9
  00502	03 87 e8 00 00
	00		 add	 eax, DWORD PTR [edi+232]
  00508	6b c0 70	 imul	 eax, 112		; 00000070H
  0050b	0f b6 88 24 00
	00 00		 movzx	 ecx, BYTE PTR ?ItemAttribute@@3PAUITEM_ATTRIBUTE@@A[eax+36]

; 521  : 					int Width = ItemAttribute[ITEMGET(this->MMOTOP_BonusItemType, this->MMOTOP_BonusItemIndex)].Width;

  00512	0f b6 80 23 00
	00 00		 movzx	 eax, BYTE PTR ?ItemAttribute@@3PAUITEM_ATTRIBUTE@@A[eax+35]

; 522  : 
; 523  : 					if(!CheckInventoryEmptySpace(lpObj, Height, Width))

  00519	50		 push	 eax
  0051a	51		 push	 ecx
  0051b	56		 push	 esi
  0051c	89 8d 40 fb ff
	ff		 mov	 DWORD PTR _Height$207866[ebp], ecx
  00522	89 85 44 fb ff
	ff		 mov	 DWORD PTR _Width$207867[ebp], eax
  00528	e8 00 00 00 00	 call	 ?CheckInventoryEmptySpace@@YAHPAUOBJECTSTRUCT@@HH@Z ; CheckInventoryEmptySpace
  0052d	83 c4 0c	 add	 esp, 12			; 0000000cH
  00530	85 c0		 test	 eax, eax
  00532	75 21		 jne	 SHORT $LN12@MootopReed

; 524  : 					{
; 525  : 						MessageChat(aIndex,"@[MMOTOP] Need to make space in the inventory (%dx%d)",Height,Width);

  00534	8b 95 44 fb ff
	ff		 mov	 edx, DWORD PTR _Width$207867[ebp]
  0053a	8b 85 40 fb ff
	ff		 mov	 eax, DWORD PTR _Height$207866[ebp]
  00540	52		 push	 edx
  00541	50		 push	 eax
  00542	68 00 00 00 00	 push	 OFFSET ??_C@_0DG@CODMCGBJ@?$EA?$FLMMOTOP?$FN?5Need?5to?5make?5space?5in?5@
  00547	53		 push	 ebx
  00548	e8 00 00 00 00	 call	 ?MessageChat@@YAXHPADZZ	; MessageChat
  0054d	83 c4 10	 add	 esp, 16			; 00000010H

; 526  : 						continue;

  00550	e9 f8 02 00 00	 jmp	 $LN67@MootopReed
$LN12@MootopReed:

; 527  : 					}
; 528  : 
; 529  : 					ItemSerialCreateSend(aIndex, 235, 0, 0, ITEMGET(this->MMOTOP_BonusItemType, this->MMOTOP_BonusItemIndex), this->MMOTOP_BonusItemLevel, 0, 0, 0, 0, aIndex, 0, 0);

  00555	8b 97 e4 00 00
	00		 mov	 edx, DWORD PTR [edi+228]
  0055b	0f b6 8f ec 00
	00 00		 movzx	 ecx, BYTE PTR [edi+236]
  00562	6a 00		 push	 0
  00564	6a 00		 push	 0
  00566	53		 push	 ebx
  00567	6a 00		 push	 0
  00569	6a 00		 push	 0
  0056b	6a 00		 push	 0
  0056d	6a 00		 push	 0
  0056f	51		 push	 ecx
  00570	c1 e2 09	 shl	 edx, 9
  00573	03 97 e8 00 00
	00		 add	 edx, DWORD PTR [edi+232]
  00579	52		 push	 edx
  0057a	6a 00		 push	 0
  0057c	6a 00		 push	 0
  0057e	68 eb 00 00 00	 push	 235			; 000000ebH
  00583	53		 push	 ebx
  00584	e8 00 00 00 00	 call	 ?ItemSerialCreateSend@@YAXHEEEHEEEEEHEE@Z ; ItemSerialCreateSend

; 530  : 					MessageChat(aIndex, "@[MMOTOP] Item Bonus: %s", ItemAttribute[ITEMGET(this->MMOTOP_SMSBonusItemType, this->MMOTOP_SMSBonusItemIndex)].Name);

  00589	8b 87 14 01 00
	00		 mov	 eax, DWORD PTR [edi+276]
  0058f	c1 e0 09	 shl	 eax, 9
  00592	03 87 18 01 00
	00		 add	 eax, DWORD PTR [edi+280]
  00598	6b c0 70	 imul	 eax, 112		; 00000070H
  0059b	05 00 00 00 00	 add	 eax, OFFSET ?ItemAttribute@@3PAUITEM_ATTRIBUTE@@A ; ItemAttribute
  005a0	50		 push	 eax
  005a1	68 00 00 00 00	 push	 OFFSET ??_C@_0BJ@NMLLBIJJ@?$EA?$FLMMOTOP?$FN?5Item?5Bonus?3?5?$CFs?$AA@
  005a6	53		 push	 ebx
  005a7	e8 00 00 00 00	 call	 ?MessageChat@@YAXHPADZZ	; MessageChat
  005ac	83 c4 40	 add	 esp, 64			; 00000040H
$LN13@MootopReed:

; 531  : 				}
; 532  : 
; 533  : 				if (this->MMOTOP_BonusWcoinC > 0)

  005af	8b 87 d0 00 00
	00		 mov	 eax, DWORD PTR [edi+208]
  005b5	89 85 40 fb ff
	ff		 mov	 DWORD PTR tv936[ebp], eax
  005bb	85 c0		 test	 eax, eax
  005bd	7e 32		 jle	 SHORT $LN11@MootopReed

; 534  : 				{
; 535  : 					lpObj->GameShop.WCoinC += this->MMOTOP_BonusWcoinC;

  005bf	db 85 40 fb ff
	ff		 fild	 DWORD PTR tv936[ebp]

; 536  : 					gGameShop.GDSaveUserInfo(aIndex);

  005c5	53		 push	 ebx
  005c6	b9 00 00 00 00	 mov	 ecx, OFFSET ?gGameShop@@3VGameShop@@A ; gGameShop
  005cb	dc 86 00 23 00
	00		 fadd	 QWORD PTR [esi+8960]
  005d1	dd 9e 00 23 00
	00		 fstp	 QWORD PTR [esi+8960]
  005d7	e8 00 00 00 00	 call	 ?GDSaveUserInfo@GameShop@@QAEXH@Z ; GameShop::GDSaveUserInfo

; 537  : 					MessageChat(aIndex, "@[MMOTOP] WcoinC Bonus: %d", this->MMOTOP_BonusWcoinC);

  005dc	8b 8f d0 00 00
	00		 mov	 ecx, DWORD PTR [edi+208]
  005e2	51		 push	 ecx
  005e3	68 00 00 00 00	 push	 OFFSET ??_C@_0BL@KOOOOGNL@?$EA?$FLMMOTOP?$FN?5WcoinC?5Bonus?3?5?$CFd?$AA@
  005e8	53		 push	 ebx
  005e9	e8 00 00 00 00	 call	 ?MessageChat@@YAXHPADZZ	; MessageChat
  005ee	83 c4 0c	 add	 esp, 12			; 0000000cH
$LN11@MootopReed:

; 538  : 				}
; 539  : 
; 540  : 				if (this->MMOTOP_BonusWcoinP > 0)

  005f1	8b 87 d4 00 00
	00		 mov	 eax, DWORD PTR [edi+212]
  005f7	89 85 40 fb ff
	ff		 mov	 DWORD PTR tv942[ebp], eax
  005fd	85 c0		 test	 eax, eax
  005ff	7e 32		 jle	 SHORT $LN10@MootopReed

; 541  : 				{
; 542  : 					lpObj->GameShop.WCoinP += this->MMOTOP_BonusWcoinP;

  00601	db 85 40 fb ff
	ff		 fild	 DWORD PTR tv942[ebp]

; 543  : 					gGameShop.GDSaveUserInfo(aIndex);

  00607	53		 push	 ebx
  00608	b9 00 00 00 00	 mov	 ecx, OFFSET ?gGameShop@@3VGameShop@@A ; gGameShop
  0060d	dc 86 f8 22 00
	00		 fadd	 QWORD PTR [esi+8952]
  00613	dd 9e f8 22 00
	00		 fstp	 QWORD PTR [esi+8952]
  00619	e8 00 00 00 00	 call	 ?GDSaveUserInfo@GameShop@@QAEXH@Z ; GameShop::GDSaveUserInfo

; 544  : 					MessageChat(aIndex, "@[MMOTOP] WCoinP Bonus: %d", this->MMOTOP_BonusWcoinP);

  0061e	8b 97 d4 00 00
	00		 mov	 edx, DWORD PTR [edi+212]
  00624	52		 push	 edx
  00625	68 00 00 00 00	 push	 OFFSET ??_C@_0BL@MCFHKCKK@?$EA?$FLMMOTOP?$FN?5WCoinP?5Bonus?3?5?$CFd?$AA@
  0062a	53		 push	 ebx
  0062b	e8 00 00 00 00	 call	 ?MessageChat@@YAXHPADZZ	; MessageChat
  00630	83 c4 0c	 add	 esp, 12			; 0000000cH
$LN10@MootopReed:

; 545  : 				}
; 546  : 
; 547  : 				if (this->MMOTOP_BonusWcoinG > 0)

  00633	8b 87 d8 00 00
	00		 mov	 eax, DWORD PTR [edi+216]
  00639	89 85 40 fb ff
	ff		 mov	 DWORD PTR tv948[ebp], eax
  0063f	85 c0		 test	 eax, eax
  00641	7e 32		 jle	 SHORT $LN9@MootopReed

; 548  : 				{
; 549  : 					lpObj->GameShop.GoblinPoint += this->MMOTOP_BonusWcoinG;

  00643	db 85 40 fb ff
	ff		 fild	 DWORD PTR tv948[ebp]

; 550  : 					gGameShop.GDSaveUserInfo(aIndex);

  00649	53		 push	 ebx
  0064a	b9 00 00 00 00	 mov	 ecx, OFFSET ?gGameShop@@3VGameShop@@A ; gGameShop
  0064f	dc 86 08 23 00
	00		 fadd	 QWORD PTR [esi+8968]
  00655	dd 9e 08 23 00
	00		 fstp	 QWORD PTR [esi+8968]
  0065b	e8 00 00 00 00	 call	 ?GDSaveUserInfo@GameShop@@QAEXH@Z ; GameShop::GDSaveUserInfo

; 551  : 					MessageChat(aIndex, "@[MMOTOP] Goblin Bonus: %d", this->MMOTOP_BonusWcoinG);

  00660	8b 87 d8 00 00
	00		 mov	 eax, DWORD PTR [edi+216]
  00666	50		 push	 eax
  00667	68 00 00 00 00	 push	 OFFSET ??_C@_0BL@JNNNGMEB@?$EA?$FLMMOTOP?$FN?5Goblin?5Bonus?3?5?$CFd?$AA@
  0066c	53		 push	 ebx
  0066d	e8 00 00 00 00	 call	 ?MessageChat@@YAXHPADZZ	; MessageChat
  00672	83 c4 0c	 add	 esp, 12			; 0000000cH
$LN9@MootopReed:

; 552  : 				}
; 553  : 
; 554  : 				if (this->MMOTOP_BonusZtCred > 0)

  00675	83 bf dc 00 00
	00 00		 cmp	 DWORD PTR [edi+220], 0
  0067c	7e 27		 jle	 SHORT $LN8@MootopReed

; 555  : 				{
; 556  : 					lpObj->ZtCred += this->MMOTOP_BonusZtCred;

  0067e	db 87 dc 00 00
	00		 fild	 DWORD PTR [edi+220]
  00684	d8 86 a8 22 00
	00		 fadd	 DWORD PTR [esi+8872]
  0068a	d9 9e a8 22 00
	00		 fstp	 DWORD PTR [esi+8872]

; 557  : 					MessageChat(aIndex, "@[MMOTOP] ZtCred Bonus: %d", this->MMOTOP_BonusZtCred);

  00690	8b 8f dc 00 00
	00		 mov	 ecx, DWORD PTR [edi+220]
  00696	51		 push	 ecx
  00697	68 00 00 00 00	 push	 OFFSET ??_C@_0BL@MIFEJOAN@?$EA?$FLMMOTOP?$FN?5ZtCred?5Bonus?3?5?$CFd?$AA@
  0069c	53		 push	 ebx
  0069d	e8 00 00 00 00	 call	 ?MessageChat@@YAXHPADZZ	; MessageChat
  006a2	83 c4 0c	 add	 esp, 12			; 0000000cH
$LN8@MootopReed:

; 558  : 				}
; 559  : 
; 560  : 				if (this->MMOTOP_BonusChaosBank > 0)

  006a5	83 bf f0 00 00
	00 00		 cmp	 DWORD PTR [edi+240], 0
  006ac	7e 21		 jle	 SHORT $LN7@MootopReed

; 561  : 				{
; 562  : 					lpObj->ChaosBank += this->MMOTOP_BonusChaosBank;

  006ae	8b 97 f0 00 00
	00		 mov	 edx, DWORD PTR [edi+240]
  006b4	01 96 e4 27 00
	00		 add	 DWORD PTR [esi+10212], edx

; 563  : 					MessageChat(aIndex, "@[MMOTOP] Chaos Bank Bonus: %d", this->MMOTOP_BonusChaosBank);

  006ba	8b 87 f0 00 00
	00		 mov	 eax, DWORD PTR [edi+240]
  006c0	50		 push	 eax
  006c1	68 00 00 00 00	 push	 OFFSET ??_C@_0BP@JEJBFDGG@?$EA?$FLMMOTOP?$FN?5Chaos?5Bank?5Bonus?3?5?$CFd?$AA@
  006c6	53		 push	 ebx
  006c7	e8 00 00 00 00	 call	 ?MessageChat@@YAXHPADZZ	; MessageChat
  006cc	83 c4 0c	 add	 esp, 12			; 0000000cH
$LN7@MootopReed:

; 564  : 				}
; 565  : 
; 566  : 				if (this->MMOTOP_BonusBlessBank > 0)

  006cf	83 bf f4 00 00
	00 00		 cmp	 DWORD PTR [edi+244], 0
  006d6	7e 21		 jle	 SHORT $LN6@MootopReed

; 567  : 				{
; 568  : 					lpObj->BlessBank += this->MMOTOP_BonusBlessBank;

  006d8	8b 8f f4 00 00
	00		 mov	 ecx, DWORD PTR [edi+244]
  006de	01 8e e8 27 00
	00		 add	 DWORD PTR [esi+10216], ecx

; 569  : 					MessageChat(aIndex, "@[MMOTOP] Bless Bank Bonus: %d", this->MMOTOP_BonusBlessBank);

  006e4	8b 97 f4 00 00
	00		 mov	 edx, DWORD PTR [edi+244]
  006ea	52		 push	 edx
  006eb	68 00 00 00 00	 push	 OFFSET ??_C@_0BP@JOJEBDFB@?$EA?$FLMMOTOP?$FN?5Bless?5Bank?5Bonus?3?5?$CFd?$AA@
  006f0	53		 push	 ebx
  006f1	e8 00 00 00 00	 call	 ?MessageChat@@YAXHPADZZ	; MessageChat
  006f6	83 c4 0c	 add	 esp, 12			; 0000000cH
$LN6@MootopReed:

; 570  : 				}
; 571  : 
; 572  : 				if (this->MMOTOP_BonusSoulBank > 0)

  006f9	83 bf f8 00 00
	00 00		 cmp	 DWORD PTR [edi+248], 0
  00700	7e 21		 jle	 SHORT $LN5@MootopReed

; 573  : 				{
; 574  : 					lpObj->SoulBank += this->MMOTOP_BonusSoulBank;

  00702	8b 87 f8 00 00
	00		 mov	 eax, DWORD PTR [edi+248]
  00708	01 86 ec 27 00
	00		 add	 DWORD PTR [esi+10220], eax

; 575  : 					MessageChat(aIndex, "@[MMOTOP] Soul Bank Bonus: %d", this->MMOTOP_BonusSoulBank);

  0070e	8b 8f f8 00 00
	00		 mov	 ecx, DWORD PTR [edi+248]
  00714	51		 push	 ecx
  00715	68 00 00 00 00	 push	 OFFSET ??_C@_0BO@MPCAPFDH@?$EA?$FLMMOTOP?$FN?5Soul?5Bank?5Bonus?3?5?$CFd?$AA@
  0071a	53		 push	 ebx
  0071b	e8 00 00 00 00	 call	 ?MessageChat@@YAXHPADZZ	; MessageChat
  00720	83 c4 0c	 add	 esp, 12			; 0000000cH
$LN5@MootopReed:

; 576  : 				}
; 577  : 
; 578  : 				if (this->MMOTOP_BonusLifeBank > 0)

  00723	83 bf fc 00 00
	00 00		 cmp	 DWORD PTR [edi+252], 0
  0072a	7e 21		 jle	 SHORT $LN4@MootopReed

; 579  : 				{
; 580  : 					lpObj->LifeBank += this->MMOTOP_BonusLifeBank;

  0072c	8b 97 fc 00 00
	00		 mov	 edx, DWORD PTR [edi+252]
  00732	01 96 f0 27 00
	00		 add	 DWORD PTR [esi+10224], edx

; 581  : 					MessageChat(aIndex, "@[MMOTOP] Life Bank Bonus: %d", this->MMOTOP_BonusLifeBank);

  00738	8b 87 fc 00 00
	00		 mov	 eax, DWORD PTR [edi+252]
  0073e	50		 push	 eax
  0073f	68 00 00 00 00	 push	 OFFSET ??_C@_0BO@GLDGCAIH@?$EA?$FLMMOTOP?$FN?5Life?5Bank?5Bonus?3?5?$CFd?$AA@
  00744	53		 push	 ebx
  00745	e8 00 00 00 00	 call	 ?MessageChat@@YAXHPADZZ	; MessageChat
  0074a	83 c4 0c	 add	 esp, 12			; 0000000cH
$LN4@MootopReed:

; 582  : 				}
; 583  : 
; 584  : 				// --> Buff Effect Custom
; 585  : 				if(g_ZtLicense.CheckUser(eZtUB::Gredy) || g_ZtLicense.CheckUser(eZtUB::GredyLocal) || g_ZtLicense.CheckUser(eZtUB::Gredy2))

  0074d	6a 20		 push	 32			; 00000020H
  0074f	b9 00 00 00 00	 mov	 ecx, OFFSET ?g_ZtLicense@@3VCZtLicense@@A ; g_ZtLicense
  00754	e8 00 00 00 00	 call	 ?CheckUser@CZtLicense@@QAE_NH@Z ; CZtLicense::CheckUser
  00759	84 c0		 test	 al, al
  0075b	75 20		 jne	 SHORT $LN2@MootopReed
  0075d	6a 21		 push	 33			; 00000021H
  0075f	b9 00 00 00 00	 mov	 ecx, OFFSET ?g_ZtLicense@@3VCZtLicense@@A ; g_ZtLicense
  00764	e8 00 00 00 00	 call	 ?CheckUser@CZtLicense@@QAE_NH@Z ; CZtLicense::CheckUser
  00769	84 c0		 test	 al, al
  0076b	75 10		 jne	 SHORT $LN2@MootopReed
  0076d	6a 22		 push	 34			; 00000022H
  0076f	b9 00 00 00 00	 mov	 ecx, OFFSET ?g_ZtLicense@@3VCZtLicense@@A ; g_ZtLicense
  00774	e8 00 00 00 00	 call	 ?CheckUser@CZtLicense@@QAE_NH@Z ; CZtLicense::CheckUser
  00779	84 c0		 test	 al, al
  0077b	74 29		 je	 SHORT $LN3@MootopReed
$LN2@MootopReed:

; 586  : 				{
; 587  : 					lpObj->MT_BuffTime += this->MMOTOP_SMSBuffTime;

  0077d	8b 8f 64 02 00
	00		 mov	 ecx, DWORD PTR [edi+612]
  00783	01 8e dc 2a 00
	00		 add	 DWORD PTR [esi+10972], ecx
  00789	8b 86 dc 2a 00
	00		 mov	 eax, DWORD PTR [esi+10972]

; 588  : 					gObjApplyBuffEffectDuration(lpObj, AT_MMOTOP_BUFF, 0, 0, 0, 0, lpObj->MT_BuffTime);

  0078f	50		 push	 eax
  00790	6a 00		 push	 0
  00792	6a 00		 push	 0
  00794	6a 00		 push	 0
  00796	6a 00		 push	 0
  00798	68 c2 00 00 00	 push	 194			; 000000c2H
  0079d	56		 push	 esi
  0079e	e8 00 00 00 00	 call	 ?gObjApplyBuffEffectDuration@@YAEPAUOBJECTSTRUCT@@HEHEHH@Z ; gObjApplyBuffEffectDuration
  007a3	83 c4 1c	 add	 esp, 28			; 0000001cH
$LN3@MootopReed:

; 589  : 				}
; 590  : 
; 591  : 				MessageChat(aIndex,"@[MMOTOP] Date: %s",DataTime);

  007a6	8d 95 48 ff ff
	ff		 lea	 edx, DWORD PTR _DataTime$207810[ebp]
  007ac	52		 push	 edx
  007ad	68 00 00 00 00	 push	 OFFSET ??_C@_0BD@DNPJLPDE@?$EA?$FLMMOTOP?$FN?5Date?3?5?$CFs?$AA@
$LN71@MootopReed:
  007b2	53		 push	 ebx
  007b3	e8 00 00 00 00	 call	 ?MessageChat@@YAXHPADZZ	; MessageChat

; 592  : 			}
; 593  : 
; 594  : 			lpObj->MTDate = tData;

  007b8	8b 85 38 fb ff
	ff		 mov	 eax, DWORD PTR _tData$207835[ebp]
  007be	83 c4 0c	 add	 esp, 12			; 0000000cH

; 595  : 			
; 596  : 			ZtUserDataSend(aIndex);

  007c1	53		 push	 ebx
  007c2	89 86 0c 28 00
	00		 mov	 DWORD PTR [esi+10252], eax
  007c8	e8 00 00 00 00	 call	 ?ZtUserDataSend@@YAXH@Z	; ZtUserDataSend

; 597  : #ifndef FIX_DS_CRASH
; 598  : 			GJSetCharacterInfo(lpObj, lpObj->m_Index, 0);
; 599  : #endif
; 600  : 			LogAdd("[MMOTOP][%s] Date: %s", lpObj->AccountID,DataTime);

  007cd	8d 8d 48 ff ff
	ff		 lea	 ecx, DWORD PTR _DataTime$207810[ebp]
  007d3	51		 push	 ecx
  007d4	8d 56 6c	 lea	 edx, DWORD PTR [esi+108]
  007d7	52		 push	 edx
  007d8	68 00 00 00 00	 push	 OFFSET ??_C@_0BG@BMABLBJK@?$FLMMOTOP?$FN?$FL?$CFs?$FN?5Date?3?5?$CFs?$AA@
  007dd	ff 15 00 00 00
	00		 call	 DWORD PTR ?LogAdd@@3P6AXPADZZA ; LogAdd

; 601  : 
; 602  : #if(MMOTOP_LOG==TRUE)
; 603  : 			char Buff2[512] = { 0 };

  007e3	68 ff 01 00 00	 push	 511			; 000001ffH
  007e8	8d 85 49 fd ff
	ff		 lea	 eax, DWORD PTR _Buff2$207891[ebp+1]
  007ee	6a 00		 push	 0
  007f0	50		 push	 eax
  007f1	c6 85 48 fd ff
	ff 00		 mov	 BYTE PTR _Buff2$207891[ebp], 0
  007f8	e8 00 00 00 00	 call	 _memset

; 604  : 			sprintf(Buff2, "%d %s %s %s %s %d", mId, mGetDate, mGetTime, mGetIp, mGetAccaunt, mRewerd);

  007fd	8b 8d 3c fb ff
	ff		 mov	 ecx, DWORD PTR _mRewerd$207808[ebp]
  00803	51		 push	 ecx
  00804	8d 55 e8	 lea	 edx, DWORD PTR _mGetAccaunt$207807[ebp]
  00807	52		 push	 edx
  00808	8d 45 ac	 lea	 eax, DWORD PTR _mGetIp$207806[ebp]
  0080b	50		 push	 eax
  0080c	8b 85 1c fb ff
	ff		 mov	 eax, DWORD PTR _mId$207803[ebp]
  00812	8d 4d d4	 lea	 ecx, DWORD PTR _mGetTime$207805[ebp]
  00815	51		 push	 ecx
  00816	8d 55 c0	 lea	 edx, DWORD PTR _mGetDate$207804[ebp]
  00819	52		 push	 edx
  0081a	50		 push	 eax
  0081b	8d 8d 48 fd ff
	ff		 lea	 ecx, DWORD PTR _Buff2$207891[ebp]
  00821	68 00 00 00 00	 push	 OFFSET ??_C@_0BC@FDIFMHGC@?$CFd?5?$CFs?5?$CFs?5?$CFs?5?$CFs?5?$CFd?$AA@
  00826	51		 push	 ecx
  00827	e8 00 00 00 00	 call	 _sprintf

; 605  : 			g_MmotopLog.Output(Buff2);

  0082c	8d 95 48 fd ff
	ff		 lea	 edx, DWORD PTR _Buff2$207891[ebp]
  00832	52		 push	 edx
  00833	68 00 00 00 00	 push	 OFFSET ?g_MmotopLog@@3VCLogToFile@@A ; g_MmotopLog
  00838	e8 00 00 00 00	 call	 ?Output@CLogToFile@@QAAXPADZZ ; CLogToFile::Output

; 606  : #endif
; 607  : #if(SYSTEM_ACHIEVEMENTS)
; 608  : 			g_Achievements.MootopVoteUp(lpObj->m_Index);

  0083d	8b 06		 mov	 eax, DWORD PTR [esi]
  0083f	83 c4 44	 add	 esp, 68			; 00000044H
  00842	50		 push	 eax
  00843	b9 00 00 00 00	 mov	 ecx, OFFSET ?g_Achievements@@3VCAchievements@@A ; g_Achievements
  00848	e8 00 00 00 00	 call	 ?MootopVoteUp@CAchievements@@QAEXH@Z ; CAchievements::MootopVoteUp
$LN67@MootopReed:

; 362  : 	{
; 363  : #ifdef VOTE_DEBUG
; 364  : 		LogAddC(2,"[VOTE]No FILE");
; 365  : #endif
; 366  : 		return;
; 367  : 	}
; 368  : 
; 369  : 	char Buff[512];
; 370  : 
; 371  : 	int Count = 0;
; 372  : 
; 373  : 	while (!feof(file))

  0084d	8b b5 30 fb ff
	ff		 mov	 esi, DWORD PTR _file$[ebp]
  00853	56		 push	 esi
  00854	e8 00 00 00 00	 call	 _feof
  00859	83 c4 04	 add	 esp, 4
  0085c	85 c0		 test	 eax, eax
  0085e	0f 84 f0 f7 ff
	ff		 je	 $LL42@MootopReed
  00864	5b		 pop	 ebx
$LN41@MootopReed:

; 609  : #endif
; 610  : 		}
; 611  : 		
; 612  : 	}
; 613  : 
; 614  : 	fclose(file);

  00865	56		 push	 esi
  00866	e8 00 00 00 00	 call	 _fclose
  0086b	83 c4 04	 add	 esp, 4

; 615  : 	if (this->MMOTOP_DeleteVoteFile)

  0086e	80 7f 01 00	 cmp	 BYTE PTR [edi+1], 0
  00872	74 0d		 je	 SHORT $LN69@MootopReed

; 616  : 	{
; 617  : 		remove(MMOTOP_FILE);

  00874	68 00 00 00 00	 push	 OFFSET ??_C@_0L@HNCANJIK@mmotop?4txt?$AA@
  00879	e8 00 00 00 00	 call	 _remove
  0087e	83 c4 04	 add	 esp, 4
$LN69@MootopReed:
  00881	5e		 pop	 esi
$LN1@MootopReed:

; 618  : 	}
; 619  : }

  00882	8b 4d fc	 mov	 ecx, DWORD PTR __$ArrayPad$[ebp]
  00885	33 cd		 xor	 ecx, ebp
  00887	5f		 pop	 edi
  00888	e8 00 00 00 00	 call	 @__security_check_cookie@4
  0088d	8b e5		 mov	 esp, ebp
  0088f	5d		 pop	 ebp
  00890	c3		 ret	 0
?MootopReed@Voter@@QAEXXZ ENDP				; Voter::MootopReed
_TEXT	ENDS
PUBLIC	??_C@_0BE@OHJFKBPP@?$FLQTOP?$FN?$FL?$CFs?$FN?5Date?3?5?$CFs?$AA@ ; `string'
PUBLIC	??_C@_0BB@EPGEHIK@?$EA?$FLQTOP?$FN?5Date?3?5?$CFs?$AA@ ; `string'
PUBLIC	??_C@_0BM@CAGLDOOI@?$EA?$FLQTOP?$FN?5Life?5Bank?5Bonus?3?5?$CFd?$AA@ ; `string'
PUBLIC	??_C@_0BM@IEHNOLFI@?$EA?$FLQTOP?$FN?5Soul?5Bank?5Bonus?3?5?$CFd?$AA@ ; `string'
PUBLIC	??_C@_0BN@EDNCDCIG@?$EA?$FLQTOP?$FN?5Bless?5Bank?5Bonus?3?5?$CFd?$AA@ ; `string'
PUBLIC	??_C@_0BN@EJNHHCLB@?$EA?$FLQTOP?$FN?5Chaos?5Bank?5Bonus?3?5?$CFd?$AA@ ; `string'
PUBLIC	??_C@_0BJ@BNOEGAE@?$EA?$FLQTOP?$FN?5ZtCred?5Bonus?3?5?$CFd?$AA@ ; `string'
PUBLIC	??_C@_0BJ@FEFHLEEI@?$EA?$FLQTOP?$FN?5Goblin?5Bonus?3?5?$CFd?$AA@ ; `string'
PUBLIC	??_C@_0BJ@LNNHKKD@?$EA?$FLQTOP?$FN?5WCoinP?5Bonus?3?5?$CFd?$AA@ ; `string'
PUBLIC	??_C@_0BJ@GHGEDONC@?$EA?$FLQTOP?$FN?5WcoinC?5Bonus?3?5?$CFd?$AA@ ; `string'
PUBLIC	??_C@_0BH@PHOGLPEJ@?$EA?$FLQTOP?$FN?5Item?5Bonus?3?5?$CFs?$AA@ ; `string'
PUBLIC	??_C@_0DE@MCFMOACN@?$EA?$FLQTOP?$FN?5Need?5to?5make?5space?5in?5th@ ; `string'
PUBLIC	??_C@_0BF@OKPMBKFL@?$EA?$FLSMS?5QTOP?$FN?5Date?3?5?$CFs?$AA@ ; `string'
PUBLIC	??_C@_0CA@KBCELJKG@?$EA?$FLSMS?5QTOP?$FN?5Life?5Bank?5Bonus?3?5?$CFd?$AA@ ; `string'
PUBLIC	??_C@_0CA@FDCGMBG@?$EA?$FLSMS?5QTOP?$FN?5Soul?5Bank?5Bonus?3?5?$CFd?$AA@ ; `string'
PUBLIC	??_C@_0CB@NCDHBBJG@?$EA?$FLSMS?5QTOP?$FN?5Bless?5Bank?5Bonus?3?5?$CFd@ ; `string'
PUBLIC	??_C@_0CB@NIDCFBKB@?$EA?$FLSMS?5QTOP?$FN?5Chaos?5Bank?5Bonus?3?5?$CFd@ ; `string'
PUBLIC	??_C@_0BN@LPBEOCCJ@?$EA?$FLSMS?5QTOP?$FN?5ZtCred?5Bonus?3?5?$CFd?$AA@ ; `string'
PUBLIC	??_C@_0BN@OKJNBAGF@?$EA?$FLSMS?5QTOP?$FN?5Goblin?5Bonus?3?5?$CFd?$AA@ ; `string'
PUBLIC	??_C@_0BN@LFBHNOIO@?$EA?$FLSMS?5QTOP?$FN?5WCoinP?5Bonus?3?5?$CFd?$AA@ ; `string'
PUBLIC	??_C@_0BN@NJKOJKPP@?$EA?$FLSMS?5QTOP?$FN?5WcoinC?5Bonus?3?5?$CFd?$AA@ ; `string'
PUBLIC	??_C@_0BL@CCMGGGHH@?$EA?$FLSMS?5QTOP?$FN?5Item?5Bonus?3?5?$CFs?$AA@ ; `string'
PUBLIC	??_C@_0DI@EACAPLAC@?$EA?$FLSMS?5QTOP?$FN?5Need?5to?5make?5space?5i@ ; `string'
PUBLIC	??_C@_08CLPFLBNE@qtop?4txt?$AA@			; `string'
PUBLIC	__$ArrayPad$
PUBLIC	?QtopReed@Voter@@QAEXXZ				; Voter::QtopReed
EXTRN	?GJSetCharacterInfo@@YAXPAUOBJECTSTRUCT@@HH@Z:PROC ; GJSetCharacterInfo
;	COMDAT ??_C@_0BE@OHJFKBPP@?$FLQTOP?$FN?$FL?$CFs?$FN?5Date?3?5?$CFs?$AA@
; File d:\program files (x86)\microsoft visual studio 10.0\vc\atlmfc\include\atltime.inl
CONST	SEGMENT
??_C@_0BE@OHJFKBPP@?$FLQTOP?$FN?$FL?$CFs?$FN?5Date?3?5?$CFs?$AA@ DB '[QTO'
	DB	'P][%s] Date: %s', 00H			; `string'
CONST	ENDS
;	COMDAT ??_C@_0BB@EPGEHIK@?$EA?$FLQTOP?$FN?5Date?3?5?$CFs?$AA@
CONST	SEGMENT
??_C@_0BB@EPGEHIK@?$EA?$FLQTOP?$FN?5Date?3?5?$CFs?$AA@ DB '@[QTOP] Date: '
	DB	'%s', 00H					; `string'
CONST	ENDS
;	COMDAT ??_C@_0BM@CAGLDOOI@?$EA?$FLQTOP?$FN?5Life?5Bank?5Bonus?3?5?$CFd?$AA@
CONST	SEGMENT
??_C@_0BM@CAGLDOOI@?$EA?$FLQTOP?$FN?5Life?5Bank?5Bonus?3?5?$CFd?$AA@ DB '@'
	DB	'[QTOP] Life Bank Bonus: %d', 00H		; `string'
CONST	ENDS
;	COMDAT ??_C@_0BM@IEHNOLFI@?$EA?$FLQTOP?$FN?5Soul?5Bank?5Bonus?3?5?$CFd?$AA@
CONST	SEGMENT
??_C@_0BM@IEHNOLFI@?$EA?$FLQTOP?$FN?5Soul?5Bank?5Bonus?3?5?$CFd?$AA@ DB '@'
	DB	'[QTOP] Soul Bank Bonus: %d', 00H		; `string'
CONST	ENDS
;	COMDAT ??_C@_0BN@EDNCDCIG@?$EA?$FLQTOP?$FN?5Bless?5Bank?5Bonus?3?5?$CFd?$AA@
CONST	SEGMENT
??_C@_0BN@EDNCDCIG@?$EA?$FLQTOP?$FN?5Bless?5Bank?5Bonus?3?5?$CFd?$AA@ DB '@'
	DB	'[QTOP] Bless Bank Bonus: %d', 00H		; `string'
CONST	ENDS
;	COMDAT ??_C@_0BN@EJNHHCLB@?$EA?$FLQTOP?$FN?5Chaos?5Bank?5Bonus?3?5?$CFd?$AA@
CONST	SEGMENT
??_C@_0BN@EJNHHCLB@?$EA?$FLQTOP?$FN?5Chaos?5Bank?5Bonus?3?5?$CFd?$AA@ DB '@'
	DB	'[QTOP] Chaos Bank Bonus: %d', 00H		; `string'
CONST	ENDS
;	COMDAT ??_C@_0BJ@BNOEGAE@?$EA?$FLQTOP?$FN?5ZtCred?5Bonus?3?5?$CFd?$AA@
CONST	SEGMENT
??_C@_0BJ@BNOEGAE@?$EA?$FLQTOP?$FN?5ZtCred?5Bonus?3?5?$CFd?$AA@ DB '@[QTO'
	DB	'P] ZtCred Bonus: %d', 00H			; `string'
CONST	ENDS
;	COMDAT ??_C@_0BJ@FEFHLEEI@?$EA?$FLQTOP?$FN?5Goblin?5Bonus?3?5?$CFd?$AA@
CONST	SEGMENT
??_C@_0BJ@FEFHLEEI@?$EA?$FLQTOP?$FN?5Goblin?5Bonus?3?5?$CFd?$AA@ DB '@[QT'
	DB	'OP] Goblin Bonus: %d', 00H			; `string'
CONST	ENDS
;	COMDAT ??_C@_0BJ@LNNHKKD@?$EA?$FLQTOP?$FN?5WCoinP?5Bonus?3?5?$CFd?$AA@
CONST	SEGMENT
??_C@_0BJ@LNNHKKD@?$EA?$FLQTOP?$FN?5WCoinP?5Bonus?3?5?$CFd?$AA@ DB '@[QTO'
	DB	'P] WCoinP Bonus: %d', 00H			; `string'
CONST	ENDS
;	COMDAT ??_C@_0BJ@GHGEDONC@?$EA?$FLQTOP?$FN?5WcoinC?5Bonus?3?5?$CFd?$AA@
CONST	SEGMENT
??_C@_0BJ@GHGEDONC@?$EA?$FLQTOP?$FN?5WcoinC?5Bonus?3?5?$CFd?$AA@ DB '@[QT'
	DB	'OP] WcoinC Bonus: %d', 00H			; `string'
CONST	ENDS
;	COMDAT ??_C@_0BH@PHOGLPEJ@?$EA?$FLQTOP?$FN?5Item?5Bonus?3?5?$CFs?$AA@
CONST	SEGMENT
??_C@_0BH@PHOGLPEJ@?$EA?$FLQTOP?$FN?5Item?5Bonus?3?5?$CFs?$AA@ DB '@[QTOP'
	DB	'] Item Bonus: %s', 00H			; `string'
CONST	ENDS
;	COMDAT ??_C@_0DE@MCFMOACN@?$EA?$FLQTOP?$FN?5Need?5to?5make?5space?5in?5th@
CONST	SEGMENT
??_C@_0DE@MCFMOACN@?$EA?$FLQTOP?$FN?5Need?5to?5make?5space?5in?5th@ DB '@'
	DB	'[QTOP] Need to make space in the inventory (%dx%d)', 00H ; `string'
CONST	ENDS
;	COMDAT ??_C@_0BF@OKPMBKFL@?$EA?$FLSMS?5QTOP?$FN?5Date?3?5?$CFs?$AA@
CONST	SEGMENT
??_C@_0BF@OKPMBKFL@?$EA?$FLSMS?5QTOP?$FN?5Date?3?5?$CFs?$AA@ DB '@[SMS QT'
	DB	'OP] Date: %s', 00H				; `string'
CONST	ENDS
;	COMDAT ??_C@_0CA@KBCELJKG@?$EA?$FLSMS?5QTOP?$FN?5Life?5Bank?5Bonus?3?5?$CFd?$AA@
CONST	SEGMENT
??_C@_0CA@KBCELJKG@?$EA?$FLSMS?5QTOP?$FN?5Life?5Bank?5Bonus?3?5?$CFd?$AA@ DB '@'
	DB	'[SMS QTOP] Life Bank Bonus: %d', 00H	; `string'
CONST	ENDS
;	COMDAT ??_C@_0CA@FDCGMBG@?$EA?$FLSMS?5QTOP?$FN?5Soul?5Bank?5Bonus?3?5?$CFd?$AA@
CONST	SEGMENT
??_C@_0CA@FDCGMBG@?$EA?$FLSMS?5QTOP?$FN?5Soul?5Bank?5Bonus?3?5?$CFd?$AA@ DB '@'
	DB	'[SMS QTOP] Soul Bank Bonus: %d', 00H	; `string'
CONST	ENDS
;	COMDAT ??_C@_0CB@NCDHBBJG@?$EA?$FLSMS?5QTOP?$FN?5Bless?5Bank?5Bonus?3?5?$CFd@
CONST	SEGMENT
??_C@_0CB@NCDHBBJG@?$EA?$FLSMS?5QTOP?$FN?5Bless?5Bank?5Bonus?3?5?$CFd@ DB '@'
	DB	'[SMS QTOP] Bless Bank Bonus: %d', 00H	; `string'
CONST	ENDS
;	COMDAT ??_C@_0CB@NIDCFBKB@?$EA?$FLSMS?5QTOP?$FN?5Chaos?5Bank?5Bonus?3?5?$CFd@
CONST	SEGMENT
??_C@_0CB@NIDCFBKB@?$EA?$FLSMS?5QTOP?$FN?5Chaos?5Bank?5Bonus?3?5?$CFd@ DB '@'
	DB	'[SMS QTOP] Chaos Bank Bonus: %d', 00H	; `string'
CONST	ENDS
;	COMDAT ??_C@_0BN@LPBEOCCJ@?$EA?$FLSMS?5QTOP?$FN?5ZtCred?5Bonus?3?5?$CFd?$AA@
CONST	SEGMENT
??_C@_0BN@LPBEOCCJ@?$EA?$FLSMS?5QTOP?$FN?5ZtCred?5Bonus?3?5?$CFd?$AA@ DB '@'
	DB	'[SMS QTOP] ZtCred Bonus: %d', 00H		; `string'
CONST	ENDS
;	COMDAT ??_C@_0BN@OKJNBAGF@?$EA?$FLSMS?5QTOP?$FN?5Goblin?5Bonus?3?5?$CFd?$AA@
CONST	SEGMENT
??_C@_0BN@OKJNBAGF@?$EA?$FLSMS?5QTOP?$FN?5Goblin?5Bonus?3?5?$CFd?$AA@ DB '@'
	DB	'[SMS QTOP] Goblin Bonus: %d', 00H		; `string'
CONST	ENDS
;	COMDAT ??_C@_0BN@LFBHNOIO@?$EA?$FLSMS?5QTOP?$FN?5WCoinP?5Bonus?3?5?$CFd?$AA@
CONST	SEGMENT
??_C@_0BN@LFBHNOIO@?$EA?$FLSMS?5QTOP?$FN?5WCoinP?5Bonus?3?5?$CFd?$AA@ DB '@'
	DB	'[SMS QTOP] WCoinP Bonus: %d', 00H		; `string'
CONST	ENDS
;	COMDAT ??_C@_0BN@NJKOJKPP@?$EA?$FLSMS?5QTOP?$FN?5WcoinC?5Bonus?3?5?$CFd?$AA@
CONST	SEGMENT
??_C@_0BN@NJKOJKPP@?$EA?$FLSMS?5QTOP?$FN?5WcoinC?5Bonus?3?5?$CFd?$AA@ DB '@'
	DB	'[SMS QTOP] WcoinC Bonus: %d', 00H		; `string'
CONST	ENDS
;	COMDAT ??_C@_0BL@CCMGGGHH@?$EA?$FLSMS?5QTOP?$FN?5Item?5Bonus?3?5?$CFs?$AA@
CONST	SEGMENT
??_C@_0BL@CCMGGGHH@?$EA?$FLSMS?5QTOP?$FN?5Item?5Bonus?3?5?$CFs?$AA@ DB '@'
	DB	'[SMS QTOP] Item Bonus: %s', 00H		; `string'
CONST	ENDS
;	COMDAT ??_C@_0DI@EACAPLAC@?$EA?$FLSMS?5QTOP?$FN?5Need?5to?5make?5space?5i@
CONST	SEGMENT
??_C@_0DI@EACAPLAC@?$EA?$FLSMS?5QTOP?$FN?5Need?5to?5make?5space?5i@ DB '@'
	DB	'[SMS QTOP] Need to make space in the inventory (%dx%d)', 00H ; `string'
CONST	ENDS
;	COMDAT ??_C@_08CLPFLBNE@qtop?4txt?$AA@
CONST	SEGMENT
??_C@_08CLPFLBNE@qtop?4txt?$AA@ DB 'qtop.txt', 00H	; `string'
; Function compile flags: /Ogtp
; File e:\work\tranet_version\gs\gameserver\voter.cpp
CONST	ENDS
;	COMDAT ?QtopReed@Voter@@QAEXXZ
_TEXT	SEGMENT
_mId$207960 = -752					; size = 4
_ct$207984 = -748					; size = 8
_nMonth$207968 = -740					; size = 4
_nDay$207969 = -736					; size = 4
_mRewerd$207965 = -732					; size = 4
_nYear$207967 = -728					; size = 4
_nSec$207972 = -724					; size = 4
_file$ = -720						; size = 4
_nMin$207971 = -716					; size = 4
_nHour$207970 = -712					; size = 4
_tData$207986 = -708					; size = 4
tv953 = -704						; size = 4
tv947 = -704						; size = 4
tv941 = -704						; size = 4
_Height$208017 = -704					; size = 4
tv837 = -700						; size = 4
tv828 = -700						; size = 4
tv808 = -700						; size = 4
_Width$208018 = -700					; size = 4
_Buff$ = -696						; size = 512
_DataTime$207966 = -184					; size = 100
_mGetIp$207963 = -84					; size = 20
_mGetDate$207961 = -64					; size = 20
_mGetTime$207962 = -44					; size = 20
_mGetAccaunt$207964 = -24				; size = 20
__$ArrayPad$ = -4					; size = 4
?QtopReed@Voter@@QAEXXZ PROC				; Voter::QtopReed, COMDAT
; _this$ = ecx

; 787  : {

  00000	55		 push	 ebp
  00001	8b ec		 mov	 ebp, esp
  00003	81 ec f0 02 00
	00		 sub	 esp, 752		; 000002f0H
  00009	a1 00 00 00 00	 mov	 eax, DWORD PTR ___security_cookie
  0000e	33 c5		 xor	 eax, ebp
  00010	89 45 fc	 mov	 DWORD PTR __$ArrayPad$[ebp], eax
  00013	57		 push	 edi
  00014	8b f9		 mov	 edi, ecx

; 788  : 	if (!this->QTOP_Enable) return;

  00016	80 bf 30 01 00
	00 00		 cmp	 BYTE PTR [edi+304], 0
  0001d	0f 84 97 08 00
	00		 je	 $LN1@QtopReed

; 789  : 
; 790  : 	FILE * file = fopen(QTOP_FILE, "r");

  00023	56		 push	 esi
  00024	68 00 00 00 00	 push	 OFFSET ??_C@_01KDCPPGHE@r?$AA@
  00029	68 00 00 00 00	 push	 OFFSET ??_C@_08CLPFLBNE@qtop?4txt?$AA@
  0002e	e8 00 00 00 00	 call	 _fopen
  00033	8b f0		 mov	 esi, eax
  00035	83 c4 08	 add	 esp, 8
  00038	89 b5 30 fd ff
	ff		 mov	 DWORD PTR _file$[ebp], esi

; 791  : 
; 792  : 	if (file == NULL)

  0003e	85 f6		 test	 esi, esi
  00040	0f 84 73 08 00
	00		 je	 $LN70@QtopReed

; 793  : 	{
; 794  : #ifdef VOTE_DEBUG
; 795  : 		LogAddC(2, "[VOTE]No FILE");
; 796  : #endif
; 797  : 		return;
; 798  : 	}
; 799  : 
; 800  : 	char Buff[512];
; 801  : 
; 802  : 	int Count = 0;
; 803  : 
; 804  : 	while (!feof(file))

  00046	56		 push	 esi
  00047	e8 00 00 00 00	 call	 _feof
  0004c	83 c4 04	 add	 esp, 4
  0004f	85 c0		 test	 eax, eax
  00051	0f 85 43 08 00
	00		 jne	 $LN43@QtopReed
  00057	53		 push	 ebx
  00058	eb 06 8d 9b 00
	00 00 00	 npad	 8
$LL44@QtopReed:

; 805  : 	{
; 806  : 		ZeroMemory(&Buff, sizeof(Buff));

  00060	68 00 02 00 00	 push	 512			; 00000200H
  00065	8d 85 48 fd ff
	ff		 lea	 eax, DWORD PTR _Buff$[ebp]
  0006b	6a 00		 push	 0
  0006d	50		 push	 eax
  0006e	e8 00 00 00 00	 call	 _memset

; 807  : 		fgets(Buff, 512, file);

  00073	56		 push	 esi
  00074	8d 8d 48 fd ff
	ff		 lea	 ecx, DWORD PTR _Buff$[ebp]
  0007a	68 00 02 00 00	 push	 512			; 00000200H
  0007f	51		 push	 ecx
  00080	e8 00 00 00 00	 call	 _fgets

; 808  : 
; 809  : 		int iLen = strlen(Buff);

  00085	8d 85 48 fd ff
	ff		 lea	 eax, DWORD PTR _Buff$[ebp]
  0008b	83 c4 18	 add	 esp, 24			; 00000018H
  0008e	8d 50 01	 lea	 edx, DWORD PTR [eax+1]
$LL62@QtopReed:
  00091	8a 08		 mov	 cl, BYTE PTR [eax]
  00093	40		 inc	 eax
  00094	84 c9		 test	 cl, cl
  00096	75 f9		 jne	 SHORT $LL62@QtopReed
  00098	2b c2		 sub	 eax, edx

; 810  : 
; 811  : 		if(iLen < 10)

  0009a	83 f8 0a	 cmp	 eax, 10			; 0000000aH
  0009d	0f 8c df 07 00
	00		 jl	 $LN67@QtopReed

; 812  : 		{
; 813  : 			continue;
; 814  : 		}
; 815  : 
; 816  : 		for(int i = 0; i < iLen; i++)

  000a3	33 c9		 xor	 ecx, ecx
  000a5	85 c0		 test	 eax, eax
  000a7	7e 1e		 jle	 SHORT $LN39@QtopReed
  000a9	8d a4 24 00 00
	00 00		 npad	 7
$LL41@QtopReed:

; 817  : 		{
; 818  : 			if(Buff[i] == '|')

  000b0	80 bc 0d 48 fd
	ff ff 7c	 cmp	 BYTE PTR _Buff$[ebp+ecx], 124 ; 0000007cH
  000b8	75 08		 jne	 SHORT $LN40@QtopReed

; 819  : 			{
; 820  : 				Buff[i] = ' ';

  000ba	c6 84 0d 48 fd
	ff ff 20	 mov	 BYTE PTR _Buff$[ebp+ecx], 32 ; 00000020H
$LN40@QtopReed:

; 812  : 		{
; 813  : 			continue;
; 814  : 		}
; 815  : 
; 816  : 		for(int i = 0; i < iLen; i++)

  000c2	41		 inc	 ecx
  000c3	3b c8		 cmp	 ecx, eax
  000c5	7c e9		 jl	 SHORT $LL41@QtopReed
$LN39@QtopReed:

; 821  : 			}
; 822  : 		}
; 823  : 
; 824  : 		int mId;// = 0;
; 825  : 		char mGetDate[20] = { 0 };

  000c7	33 c0		 xor	 eax, eax
  000c9	89 45 c1	 mov	 DWORD PTR _mGetDate$207961[ebp+1], eax
  000cc	89 45 c5	 mov	 DWORD PTR _mGetDate$207961[ebp+5], eax
  000cf	89 45 c9	 mov	 DWORD PTR _mGetDate$207961[ebp+9], eax
  000d2	89 45 cd	 mov	 DWORD PTR _mGetDate$207961[ebp+13], eax
  000d5	66 89 45 d1	 mov	 WORD PTR _mGetDate$207961[ebp+17], ax
