; Listing generated by Microsoft (R) Optimizing Compiler Version 16.00.30319.01 

	TITLE	E:\work\tranet_version\GS\GameServer\wsJoinServerCli.cpp
	.686P
	.XMM
	include listing.inc
	.model	flat

INCLUDELIB LIBCMT
INCLUDELIB OLDNAMES

PUBLIC	??_7wsJoinServerCli@@6B@			; wsJoinServerCli::`vftable'
PUBLIC	??0wsJoinServerCli@@QAE@XZ			; wsJoinServerCli::wsJoinServerCli
PUBLIC	??_R4wsJoinServerCli@@6B@			; wsJoinServerCli::`RTTI Complete Object Locator'
PUBLIC	??_R0?AVwsJoinServerCli@@@8			; wsJoinServerCli `RTTI Type Descriptor'
PUBLIC	??_R3wsJoinServerCli@@8				; wsJoinServerCli::`RTTI Class Hierarchy Descriptor'
PUBLIC	??_R2wsJoinServerCli@@8				; wsJoinServerCli::`RTTI Base Class Array'
PUBLIC	??_R1A@?0A@EA@wsJoinServerCli@@8		; wsJoinServerCli::`RTTI Base Class Descriptor at (0,-1,0,64)'
PUBLIC	??_R13?0A@EA@MyWinsockBase@@8			; MyWinsockBase::`RTTI Base Class Descriptor at (4,-1,0,64)'
PUBLIC	??_R0?AVMyWinsockBase@@@8			; MyWinsockBase `RTTI Type Descriptor'
PUBLIC	??_R3MyWinsockBase@@8				; MyWinsockBase::`RTTI Class Hierarchy Descriptor'
PUBLIC	??_R2MyWinsockBase@@8				; MyWinsockBase::`RTTI Base Class Array'
PUBLIC	??_R1A@?0A@EA@MyWinsockBase@@8			; MyWinsockBase::`RTTI Base Class Descriptor at (0,-1,0,64)'
EXTRN	??0MyWinsockBase@@QAE@XZ:PROC			; MyWinsockBase::MyWinsockBase
EXTRN	??_7type_info@@6B@:QWORD			; type_info::`vftable'
EXTRN	??_EwsJoinServerCli@@UAEPAXI@Z:PROC		; wsJoinServerCli::`vector deleting destructor'
;	COMDAT ??_R1A@?0A@EA@MyWinsockBase@@8
; File e:\work\tranet_version\gs\gameserver\wsjoinservercli.cpp
rdata$r	SEGMENT
??_R1A@?0A@EA@MyWinsockBase@@8 DD FLAT:??_R0?AVMyWinsockBase@@@8 ; MyWinsockBase::`RTTI Base Class Descriptor at (0,-1,0,64)'
	DD	00H
	DD	00H
	DD	0ffffffffH
	DD	00H
	DD	040H
	DD	FLAT:??_R3MyWinsockBase@@8
rdata$r	ENDS
;	COMDAT ??_R2MyWinsockBase@@8
rdata$r	SEGMENT
??_R2MyWinsockBase@@8 DD FLAT:??_R1A@?0A@EA@MyWinsockBase@@8 ; MyWinsockBase::`RTTI Base Class Array'
rdata$r	ENDS
;	COMDAT ??_R3MyWinsockBase@@8
rdata$r	SEGMENT
??_R3MyWinsockBase@@8 DD 00H				; MyWinsockBase::`RTTI Class Hierarchy Descriptor'
	DD	00H
	DD	01H
	DD	FLAT:??_R2MyWinsockBase@@8
rdata$r	ENDS
;	COMDAT ??_R0?AVMyWinsockBase@@@8
_DATA	SEGMENT
??_R0?AVMyWinsockBase@@@8 DD FLAT:??_7type_info@@6B@	; MyWinsockBase `RTTI Type Descriptor'
	DD	00H
	DB	'.?AVMyWinsockBase@@', 00H
_DATA	ENDS
;	COMDAT ??_R13?0A@EA@MyWinsockBase@@8
rdata$r	SEGMENT
??_R13?0A@EA@MyWinsockBase@@8 DD FLAT:??_R0?AVMyWinsockBase@@@8 ; MyWinsockBase::`RTTI Base Class Descriptor at (4,-1,0,64)'
	DD	00H
	DD	04H
	DD	0ffffffffH
	DD	00H
	DD	040H
	DD	FLAT:??_R3MyWinsockBase@@8
rdata$r	ENDS
;	COMDAT ??_R1A@?0A@EA@wsJoinServerCli@@8
rdata$r	SEGMENT
??_R1A@?0A@EA@wsJoinServerCli@@8 DD FLAT:??_R0?AVwsJoinServerCli@@@8 ; wsJoinServerCli::`RTTI Base Class Descriptor at (0,-1,0,64)'
	DD	01H
	DD	00H
	DD	0ffffffffH
	DD	00H
	DD	040H
	DD	FLAT:??_R3wsJoinServerCli@@8
rdata$r	ENDS
;	COMDAT ??_R2wsJoinServerCli@@8
rdata$r	SEGMENT
??_R2wsJoinServerCli@@8 DD FLAT:??_R1A@?0A@EA@wsJoinServerCli@@8 ; wsJoinServerCli::`RTTI Base Class Array'
	DD	FLAT:??_R13?0A@EA@MyWinsockBase@@8
rdata$r	ENDS
;	COMDAT ??_R3wsJoinServerCli@@8
rdata$r	SEGMENT
??_R3wsJoinServerCli@@8 DD 00H				; wsJoinServerCli::`RTTI Class Hierarchy Descriptor'
	DD	00H
	DD	02H
	DD	FLAT:??_R2wsJoinServerCli@@8
rdata$r	ENDS
;	COMDAT ??_R0?AVwsJoinServerCli@@@8
_DATA	SEGMENT
??_R0?AVwsJoinServerCli@@@8 DD FLAT:??_7type_info@@6B@	; wsJoinServerCli `RTTI Type Descriptor'
	DD	00H
	DB	'.?AVwsJoinServerCli@@', 00H
_DATA	ENDS
;	COMDAT ??_R4wsJoinServerCli@@6B@
rdata$r	SEGMENT
??_R4wsJoinServerCli@@6B@ DD 00H			; wsJoinServerCli::`RTTI Complete Object Locator'
	DD	00H
	DD	00H
	DD	FLAT:??_R0?AVwsJoinServerCli@@@8
	DD	FLAT:??_R3wsJoinServerCli@@8
rdata$r	ENDS
;	COMDAT ??_7wsJoinServerCli@@6B@
CONST	SEGMENT
??_7wsJoinServerCli@@6B@ DD FLAT:??_R4wsJoinServerCli@@6B@ ; wsJoinServerCli::`vftable'
	DD	FLAT:??_EwsJoinServerCli@@UAEPAXI@Z
; Function compile flags: /Ogtp
CONST	ENDS
;	COMDAT ??0wsJoinServerCli@@QAE@XZ
_TEXT	SEGMENT
??0wsJoinServerCli@@QAE@XZ PROC				; wsJoinServerCli::wsJoinServerCli, COMDAT
; _this$ = ecx

; 6    : {

  00000	56		 push	 esi
  00001	8b f1		 mov	 esi, ecx
  00003	8d 4e 04	 lea	 ecx, DWORD PTR [esi+4]
  00006	e8 00 00 00 00	 call	 ??0MyWinsockBase@@QAE@XZ ; MyWinsockBase::MyWinsockBase
  0000b	c7 06 00 00 00
	00		 mov	 DWORD PTR [esi], OFFSET ??_7wsJoinServerCli@@6B@

; 7    : 	return;
; 8    : }

  00011	8b c6		 mov	 eax, esi
  00013	5e		 pop	 esi
  00014	c3		 ret	 0
??0wsJoinServerCli@@QAE@XZ ENDP				; wsJoinServerCli::wsJoinServerCli
_TEXT	ENDS
PUBLIC	??1wsJoinServerCli@@UAE@XZ			; wsJoinServerCli::~wsJoinServerCli
EXTRN	??1MyWinsockBase@@QAE@XZ:PROC			; MyWinsockBase::~MyWinsockBase
; Function compile flags: /Ogtp
;	COMDAT ??1wsJoinServerCli@@UAE@XZ
_TEXT	SEGMENT
??1wsJoinServerCli@@UAE@XZ PROC				; wsJoinServerCli::~wsJoinServerCli, COMDAT
; _this$ = ecx

; 11   : {

  00000	c7 01 00 00 00
	00		 mov	 DWORD PTR [ecx], OFFSET ??_7wsJoinServerCli@@6B@

; 12   : 	return;
; 13   : }

  00006	83 c1 04	 add	 ecx, 4
  00009	e9 00 00 00 00	 jmp	 ??1MyWinsockBase@@QAE@XZ ; MyWinsockBase::~MyWinsockBase
??1wsJoinServerCli@@UAE@XZ ENDP				; wsJoinServerCli::~wsJoinServerCli
_TEXT	ENDS
PUBLIC	?SetProtocolCore@wsJoinServerCli@@QAEHP6AXEPAEH@Z@Z ; wsJoinServerCli::SetProtocolCore
; Function compile flags: /Ogtp
;	COMDAT ?SetProtocolCore@wsJoinServerCli@@QAEHP6AXEPAEH@Z@Z
_TEXT	SEGMENT
_pc$ = 8						; size = 4
?SetProtocolCore@wsJoinServerCli@@QAEHP6AXEPAEH@Z@Z PROC ; wsJoinServerCli::SetProtocolCore, COMDAT
; _this$ = ecx

; 17   : {

  00000	55		 push	 ebp
  00001	8b ec		 mov	 ebp, esp

; 18   : 	this->wsProtocolCore = pc;

  00003	8b 45 08	 mov	 eax, DWORD PTR _pc$[ebp]
  00006	89 81 24 00 19
	00		 mov	 DWORD PTR [ecx+1638436], eax

; 19   : 	return TRUE;

  0000c	b8 01 00 00 00	 mov	 eax, 1

; 20   : }

  00011	5d		 pop	 ebp
  00012	c2 04 00	 ret	 4
?SetProtocolCore@wsJoinServerCli@@QAEHP6AXEPAEH@Z@Z ENDP ; wsJoinServerCli::SetProtocolCore
_TEXT	ENDS
PUBLIC	??_C@_0BP@DJPBKKNL@Client?5WSAAsyncSelect?5error?5?$CFd?$AA@ ; `string'
PUBLIC	??_C@_0BL@INMHEGJC@server?5name?5not?5found?5?$FL?$CFs?$FN?$AA@ ; `string'
PUBLIC	??_C@_0BF@CPKGJHBM@?5Connect?5Error?5?$CFs?5?$CFd?$AA@ ; `string'
PUBLIC	??_C@_0BE@MELEPACJ@wsJoinServerCli?4cpp?$AA@	; `string'
PUBLIC	__$ArrayPad$
PUBLIC	?Connect@wsJoinServerCli@@QAEHPADGK@Z		; wsJoinServerCli::Connect
EXTRN	?SetConnect@MyWinsockBase@@QAEXH@Z:PROC		; MyWinsockBase::SetConnect
EXTRN	__imp__closesocket@4:PROC
EXTRN	__imp__WSAAsyncSelect@16:PROC
EXTRN	?Close@MyWinsockBase@@QAEHI@Z:PROC		; MyWinsockBase::Close
EXTRN	__imp__WSAGetLastError@0:PROC
EXTRN	__imp__connect@12:PROC
EXTRN	__imp__setsockopt@20:PROC
EXTRN	__imp__gethostbyname@4:PROC
EXTRN	__imp__inet_addr@4:PROC
EXTRN	__imp__htons@4:PROC
EXTRN	?LogAdd@@3P6AXPADZZA:DWORD			; LogAdd
EXTRN	___security_cookie:DWORD
EXTRN	@__security_check_cookie@4:PROC
EXTRN	_memcpy:PROC
;	COMDAT ??_C@_0BP@DJPBKKNL@Client?5WSAAsyncSelect?5error?5?$CFd?$AA@
CONST	SEGMENT
??_C@_0BP@DJPBKKNL@Client?5WSAAsyncSelect?5error?5?$CFd?$AA@ DB 'Client W'
	DB	'SAAsyncSelect error %d', 00H		; `string'
CONST	ENDS
;	COMDAT ??_C@_0BL@INMHEGJC@server?5name?5not?5found?5?$FL?$CFs?$FN?$AA@
CONST	SEGMENT
??_C@_0BL@INMHEGJC@server?5name?5not?5found?5?$FL?$CFs?$FN?$AA@ DB 'serve'
	DB	'r name not found [%s]', 00H			; `string'
CONST	ENDS
;	COMDAT ??_C@_0BF@CPKGJHBM@?5Connect?5Error?5?$CFs?5?$CFd?$AA@
CONST	SEGMENT
??_C@_0BF@CPKGJHBM@?5Connect?5Error?5?$CFs?5?$CFd?$AA@ DB ' Connect Error'
	DB	' %s %d', 00H				; `string'
CONST	ENDS
;	COMDAT ??_C@_0BE@MELEPACJ@wsJoinServerCli?4cpp?$AA@
CONST	SEGMENT
??_C@_0BE@MELEPACJ@wsJoinServerCli?4cpp?$AA@ DB 'wsJoinServerCli.cpp', 00H ; `string'
; Function compile flags: /Ogtp
CONST	ENDS
;	COMDAT ?Connect@wsJoinServerCli@@QAEHPADGK@Z
_TEXT	SEGMENT
_snd_buf$ = -24						; size = 4
_addr$ = -20						; size = 16
__$ArrayPad$ = -4					; size = 4
_ip_addr$ = 8						; size = 4
_port$ = 12						; size = 2
_WinMsgNum$ = 16					; size = 4
?Connect@wsJoinServerCli@@QAEHPADGK@Z PROC		; wsJoinServerCli::Connect, COMDAT
; _this$ = ecx

; 78   : {

  00000	55		 push	 ebp
  00001	8b ec		 mov	 ebp, esp
  00003	83 ec 18	 sub	 esp, 24			; 00000018H
  00006	a1 00 00 00 00	 mov	 eax, DWORD PTR ___security_cookie
  0000b	33 c5		 xor	 eax, ebp
  0000d	89 45 fc	 mov	 DWORD PTR __$ArrayPad$[ebp], eax
  00010	56		 push	 esi
  00011	8b f1		 mov	 esi, ecx

; 79   :     int result; // eax@2
; 80   :     sockaddr_in addr; // [sp+8h] [bp-1Ch]@3
; 81   :     int nResult; // [sp+18h] [bp-Ch]@7
; 82   :     hostent *host = NULL; // [sp+1Ch] [bp-8h]@1
; 83   :     int snd_buf = 81920;	//81920
; 84   :  
; 85   :     if ( !this->m_hWnd )

  00013	83 7e 08 00	 cmp	 DWORD PTR [esi+8], 0
  00017	57		 push	 edi
  00018	8b 7d 08	 mov	 edi, DWORD PTR _ip_addr$[ebp]
  0001b	c7 45 e8 00 40
	01 00		 mov	 DWORD PTR _snd_buf$[ebp], 81920 ; 00014000H
  00022	75 29		 jne	 SHORT $LN8@Connect

; 86   :     {
; 87   :         LogAdd(" Connect Error %s %d", __FILE__, __LINE__);

  00024	6a 57		 push	 87			; 00000057H
  00026	68 00 00 00 00	 push	 OFFSET ??_C@_0BE@MELEPACJ@wsJoinServerCli?4cpp?$AA@
  0002b	68 00 00 00 00	 push	 OFFSET ??_C@_0BF@CPKGJHBM@?5Connect?5Error?5?$CFs?5?$CFd?$AA@
  00030	ff 15 00 00 00
	00		 call	 DWORD PTR ?LogAdd@@3P6AXPADZZA ; LogAdd
  00036	83 c4 0c	 add	 esp, 12			; 0000000cH
  00039	5f		 pop	 edi

; 88   :         return 0;

  0003a	33 c0		 xor	 eax, eax
  0003c	5e		 pop	 esi

; 133  :     }
; 134  :     return result;
; 135  : }

  0003d	8b 4d fc	 mov	 ecx, DWORD PTR __$ArrayPad$[ebp]
  00040	33 cd		 xor	 ecx, ebp
  00042	e8 00 00 00 00	 call	 @__security_check_cookie@4
  00047	8b e5		 mov	 esp, ebp
  00049	5d		 pop	 ebp
  0004a	c2 0c 00	 ret	 12			; 0000000cH
$LN8@Connect:

; 89   :     }
; 90   :  
; 91   :     addr.sin_family = AF_INET;
; 92   :     addr.sin_port = htons(port);

  0004d	8b 4d 0c	 mov	 ecx, DWORD PTR _port$[ebp]
  00050	b8 02 00 00 00	 mov	 eax, 2
  00055	51		 push	 ecx
  00056	66 89 45 ec	 mov	 WORD PTR _addr$[ebp], ax
  0005a	ff 15 00 00 00
	00		 call	 DWORD PTR __imp__htons@4

; 93   :     addr.sin_addr.S_un.S_addr = inet_addr(ip_addr);

  00060	57		 push	 edi
  00061	66 89 45 ee	 mov	 WORD PTR _addr$[ebp+2], ax
  00065	ff 15 00 00 00
	00		 call	 DWORD PTR __imp__inet_addr@4
  0006b	89 45 f0	 mov	 DWORD PTR _addr$[ebp+4], eax

; 94   :  
; 95   :     if ( addr.sin_addr.S_un.S_addr == -1 )

  0006e	83 f8 ff	 cmp	 eax, -1
  00071	75 45		 jne	 SHORT $LN7@Connect

; 96   :     {
; 97   :         host = gethostbyname(ip_addr);

  00073	57		 push	 edi
  00074	ff 15 00 00 00
	00		 call	 DWORD PTR __imp__gethostbyname@4

; 98   :  
; 99   :         if ( !host )

  0007a	85 c0		 test	 eax, eax
  0007c	75 23		 jne	 SHORT $LN6@Connect

; 100  :         {
; 101  :             LogAdd("server name not found [%s]", ip_addr);

  0007e	57		 push	 edi
  0007f	68 00 00 00 00	 push	 OFFSET ??_C@_0BL@INMHEGJC@server?5name?5not?5found?5?$FL?$CFs?$FN?$AA@
  00084	ff 15 00 00 00
	00		 call	 DWORD PTR ?LogAdd@@3P6AXPADZZA ; LogAdd
  0008a	83 c4 08	 add	 esp, 8
  0008d	5f		 pop	 edi

; 102  :             return 0;

  0008e	33 c0		 xor	 eax, eax
  00090	5e		 pop	 esi

; 133  :     }
; 134  :     return result;
; 135  : }

  00091	8b 4d fc	 mov	 ecx, DWORD PTR __$ArrayPad$[ebp]
  00094	33 cd		 xor	 ecx, ebp
  00096	e8 00 00 00 00	 call	 @__security_check_cookie@4
  0009b	8b e5		 mov	 esp, ebp
  0009d	5d		 pop	 ebp
  0009e	c2 0c 00	 ret	 12			; 0000000cH
$LN6@Connect:

; 103  :         }
; 104  :  
; 105  :         memcpy((char *)&addr.sin_addr, *host->h_addr_list, host->h_length);

  000a1	0f bf 50 0a	 movsx	 edx, WORD PTR [eax+10]
  000a5	8b 40 0c	 mov	 eax, DWORD PTR [eax+12]
  000a8	8b 08		 mov	 ecx, DWORD PTR [eax]
  000aa	52		 push	 edx
  000ab	51		 push	 ecx
  000ac	8d 55 f0	 lea	 edx, DWORD PTR _addr$[ebp+4]
  000af	52		 push	 edx
  000b0	e8 00 00 00 00	 call	 _memcpy
  000b5	83 c4 0c	 add	 esp, 12			; 0000000cH
$LN7@Connect:

; 106  :     }
; 107  :  
; 108  :     setsockopt(this->m_socket, 0xFFFF, 4097, (const char *)&snd_buf, 4);

  000b8	8b 4e 0c	 mov	 ecx, DWORD PTR [esi+12]
  000bb	6a 04		 push	 4
  000bd	8d 45 e8	 lea	 eax, DWORD PTR _snd_buf$[ebp]
  000c0	50		 push	 eax
  000c1	68 01 10 00 00	 push	 4097			; 00001001H
  000c6	68 ff ff 00 00	 push	 65535			; 0000ffffH
  000cb	51		 push	 ecx
  000cc	ff 15 00 00 00
	00		 call	 DWORD PTR __imp__setsockopt@20

; 109  :  
; 110  :     nResult = connect(this->m_socket, (const struct sockaddr *)&addr, 16);

  000d2	8b 46 0c	 mov	 eax, DWORD PTR [esi+12]
  000d5	6a 10		 push	 16			; 00000010H
  000d7	8d 55 ec	 lea	 edx, DWORD PTR _addr$[ebp]
  000da	52		 push	 edx
  000db	50		 push	 eax
  000dc	ff 15 00 00 00
	00		 call	 DWORD PTR __imp__connect@12

; 111  :  
; 112  :     if ( nResult != -1 || WSAGetLastError() == 10035 )

  000e2	8b 3d 00 00 00
	00		 mov	 edi, DWORD PTR __imp__WSAGetLastError@0
  000e8	83 f8 ff	 cmp	 eax, -1
  000eb	75 29		 jne	 SHORT $LN4@Connect
  000ed	ff d7		 call	 edi
  000ef	3d 33 27 00 00	 cmp	 eax, 10035		; 00002733H
  000f4	74 20		 je	 SHORT $LN4@Connect

; 126  :             result = 1;
; 127  :         }
; 128  :     }
; 129  :     else
; 130  :     {
; 131  :         this->Close(this->m_socket);

  000f6	8b 4e 0c	 mov	 ecx, DWORD PTR [esi+12]
  000f9	51		 push	 ecx
  000fa	8d 4e 04	 lea	 ecx, DWORD PTR [esi+4]
  000fd	e8 00 00 00 00	 call	 ?Close@MyWinsockBase@@QAEHI@Z ; MyWinsockBase::Close
  00102	5f		 pop	 edi

; 132  :         result = 0;

  00103	33 c0		 xor	 eax, eax
  00105	5e		 pop	 esi

; 133  :     }
; 134  :     return result;
; 135  : }

  00106	8b 4d fc	 mov	 ecx, DWORD PTR __$ArrayPad$[ebp]
  00109	33 cd		 xor	 ecx, ebp
  0010b	e8 00 00 00 00	 call	 @__security_check_cookie@4
  00110	8b e5		 mov	 esp, ebp
  00112	5d		 pop	 ebp
  00113	c2 0c 00	 ret	 12			; 0000000cH
$LN4@Connect:

; 113  :     {
; 114  :         nResult = WSAAsyncSelect(this->m_socket, this->m_hWnd, WinMsgNum, 35);

  00116	8b 55 10	 mov	 edx, DWORD PTR _WinMsgNum$[ebp]
  00119	8b 46 08	 mov	 eax, DWORD PTR [esi+8]
  0011c	8b 4e 0c	 mov	 ecx, DWORD PTR [esi+12]
  0011f	6a 23		 push	 35			; 00000023H
  00121	52		 push	 edx
  00122	50		 push	 eax
  00123	51		 push	 ecx
  00124	ff 15 00 00 00
	00		 call	 DWORD PTR __imp__WSAAsyncSelect@16

; 115  :  
; 116  :         if ( nResult == -1 )

  0012a	83 f8 ff	 cmp	 eax, -1
  0012d	75 2f		 jne	 SHORT $LN3@Connect

; 117  :         {
; 118  :             closesocket(this->m_socket);

  0012f	8b 56 0c	 mov	 edx, DWORD PTR [esi+12]
  00132	52		 push	 edx
  00133	ff 15 00 00 00
	00		 call	 DWORD PTR __imp__closesocket@4

; 119  :             LogAdd("Client WSAAsyncSelect error %d", WSAGetLastError());

  00139	ff d7		 call	 edi
  0013b	50		 push	 eax
  0013c	68 00 00 00 00	 push	 OFFSET ??_C@_0BP@DJPBKKNL@Client?5WSAAsyncSelect?5error?5?$CFd?$AA@
  00141	ff 15 00 00 00
	00		 call	 DWORD PTR ?LogAdd@@3P6AXPADZZA ; LogAdd
  00147	83 c4 08	 add	 esp, 8
  0014a	5f		 pop	 edi

; 120  :             result = 0;

  0014b	33 c0		 xor	 eax, eax
  0014d	5e		 pop	 esi

; 133  :     }
; 134  :     return result;
; 135  : }

  0014e	8b 4d fc	 mov	 ecx, DWORD PTR __$ArrayPad$[ebp]
  00151	33 cd		 xor	 ecx, ebp
  00153	e8 00 00 00 00	 call	 @__security_check_cookie@4
  00158	8b e5		 mov	 esp, ebp
  0015a	5d		 pop	 ebp
  0015b	c2 0c 00	 ret	 12			; 0000000cH
$LN3@Connect:

; 121  :         }
; 122  :         else
; 123  :         {
; 124  :             this->m_SendBufLen = 0;
; 125  :             this->SetConnect(TRUE);

  0015e	6a 01		 push	 1
  00160	8d 4e 04	 lea	 ecx, DWORD PTR [esi+4]
  00163	c7 86 1c 80 0c
	00 00 00 00 00	 mov	 DWORD PTR [esi+819228], 0
  0016d	e8 00 00 00 00	 call	 ?SetConnect@MyWinsockBase@@QAEXH@Z ; MyWinsockBase::SetConnect

; 133  :     }
; 134  :     return result;
; 135  : }

  00172	8b 4d fc	 mov	 ecx, DWORD PTR __$ArrayPad$[ebp]
  00175	5f		 pop	 edi
  00176	33 cd		 xor	 ecx, ebp
  00178	b8 01 00 00 00	 mov	 eax, 1
  0017d	5e		 pop	 esi
  0017e	e8 00 00 00 00	 call	 @__security_check_cookie@4
  00183	8b e5		 mov	 esp, ebp
  00185	5d		 pop	 ebp
  00186	c2 0c 00	 ret	 12			; 0000000cH
?Connect@wsJoinServerCli@@QAEHPADGK@Z ENDP		; wsJoinServerCli::Connect
_TEXT	ENDS
PUBLIC	??_C@_0CC@HECGJOBH@error?9L3?5?3?5send?$CI?$CJ?5?5result?5is?5zer@ ; `string'
PUBLIC	??_C@_0CG@DMMIJENA@error?9L3?5?3?5buffer?5error?5closed?5?$CF@ ; `string'
PUBLIC	??_C@_0BG@DJOPGDCB@error?9L3?5?3?5?$CFd?5?$CI?$CFs?5?$CFd?$CJ?$AA@ ; `string'
PUBLIC	??_C@_0EH@IGAACNFP@Error?5wsJoinServerClli?5DataSend?5@ ; `string'
PUBLIC	?DataSend@wsJoinServerCli@@QAEHPADH@Z		; wsJoinServerCli::DataSend
EXTRN	?LogAddC@@3P6AXEPADZZA:DWORD			; LogAddC
EXTRN	__imp__send@16:PROC
EXTRN	?Close@MyWinsockBase@@QAEHXZ:PROC		; MyWinsockBase::Close
EXTRN	?LogAddTD@@3P6AXPADZZA:DWORD			; LogAddTD
;	COMDAT ??_C@_0CC@HECGJOBH@error?9L3?5?3?5send?$CI?$CJ?5?5result?5is?5zer@
CONST	SEGMENT
??_C@_0CC@HECGJOBH@error?9L3?5?3?5send?$CI?$CJ?5?5result?5is?5zer@ DB 'er'
	DB	'ror-L3 : send()  result is zero', 00H	; `string'
CONST	ENDS
;	COMDAT ??_C@_0CG@DMMIJENA@error?9L3?5?3?5buffer?5error?5closed?5?$CF@
CONST	SEGMENT
??_C@_0CG@DMMIJENA@error?9L3?5?3?5buffer?5error?5closed?5?$CF@ DB 'error-'
	DB	'L3 : buffer error closed %d, %d', 00H	; `string'
CONST	ENDS
;	COMDAT ??_C@_0BG@DJOPGDCB@error?9L3?5?3?5?$CFd?5?$CI?$CFs?5?$CFd?$CJ?$AA@
CONST	SEGMENT
??_C@_0BG@DJOPGDCB@error?9L3?5?3?5?$CFd?5?$CI?$CFs?5?$CFd?$CJ?$AA@ DB 'er'
	DB	'ror-L3 : %d (%s %d)', 00H			; `string'
CONST	ENDS
;	COMDAT ??_C@_0EH@IGAACNFP@Error?5wsJoinServerClli?5DataSend?5@
CONST	SEGMENT
??_C@_0EH@IGAACNFP@Error?5wsJoinServerClli?5DataSend?5@ DB 'Error wsJoinS'
	DB	'erverClli DataSend m_SendBufLen+len > MAX_JOINSENDBUFSIZE', 00H ; `string'
; Function compile flags: /Ogtp
CONST	ENDS
;	COMDAT ?DataSend@wsJoinServerCli@@QAEHPADH@Z
_TEXT	SEGMENT
_sendbuflen$ = 8					; size = 4
_buf$ = 8						; size = 4
_nLeft$ = 12						; size = 4
_len$ = 12						; size = 4
?DataSend@wsJoinServerCli@@QAEHPADH@Z PROC		; wsJoinServerCli::DataSend, COMDAT
; _this$ = ecx

; 231  : {

  00000	55		 push	 ebp
  00001	8b ec		 mov	 ebp, esp
  00003	53		 push	 ebx
  00004	57		 push	 edi

; 232  :     int nResult;
; 233  :     int nLeft;
; 234  :     int nDx;    // Degeneration X :)
; 235  :     LPBYTE sendbuf;
; 236  :     int* sendbuflen;
; 237  :    
; 238  :     if ( len <= 0 )

  00005	8b 7d 0c	 mov	 edi, DWORD PTR _len$[ebp]
  00008	8b d9		 mov	 ebx, ecx
  0000a	85 ff		 test	 edi, edi
  0000c	7f 08		 jg	 SHORT $LN14@DataSend
$LN28@DataSend:
  0000e	5f		 pop	 edi

; 239  :     {
; 240  :         return 0;

  0000f	33 c0		 xor	 eax, eax
  00011	5b		 pop	 ebx

; 324  : }

  00012	5d		 pop	 ebp
  00013	c2 08 00	 ret	 8
$LN14@DataSend:

; 241  :     }
; 242  :  
; 243  :     if ( this->m_socket  == INVALID_SOCKET )    //

  00016	83 7b 0c ff	 cmp	 DWORD PTR [ebx+12], -1

; 244  :     {
; 245  :         return 0;

  0001a	74 f2		 je	 SHORT $LN28@DataSend

; 246  :     }
; 247  :  
; 248  :     nDx = 0;
; 249  :  
; 250  :     //sendbuf = this->m_SendBuf;
; 251  :     //sendbuflen = &len;    // Strange, dangeorus
; 252  :  
; 253  :     if ( this->m_SendBufLen  > 0 )

  0001c	8b 83 1c 80 0c
	00		 mov	 eax, DWORD PTR [ebx+819228]
  00022	56		 push	 esi
  00023	33 f6		 xor	 esi, esi
  00025	85 c0		 test	 eax, eax
  00027	7e 4c		 jle	 SHORT $LN12@DataSend

; 254  :     {
; 255  :         if ( (this->m_SendBufLen +len) < MAX_WS_BUF_LEN )

  00029	8d 0c 38	 lea	 ecx, DWORD PTR [eax+edi]
  0002c	81 f9 00 80 0c
	00		 cmp	 ecx, 819200		; 000c8000H
  00032	7d 22		 jge	 SHORT $LN11@DataSend

; 256  :         {
; 257  :             memcpy(&this->m_SendBuf[this->m_SendBufLen], buf, len);

  00034	8b 55 08	 mov	 edx, DWORD PTR _buf$[ebp]
  00037	57		 push	 edi
  00038	52		 push	 edx
  00039	8d 44 18 1c	 lea	 eax, DWORD PTR [eax+ebx+28]
  0003d	50		 push	 eax
  0003e	e8 00 00 00 00	 call	 _memcpy
  00043	83 c4 0c	 add	 esp, 12			; 0000000cH

; 258  :             this->m_SendBufLen += len;

  00046	01 bb 1c 80 0c
	00		 add	 DWORD PTR [ebx+819228], edi

; 318  :         {
; 319  :             break;
; 320  :         }
; 321  :     }
; 322  :  
; 323  :     return TRUE;

  0004c	8d 46 01	 lea	 eax, DWORD PTR [esi+1]
  0004f	5e		 pop	 esi
  00050	5f		 pop	 edi
  00051	5b		 pop	 ebx

; 324  : }

  00052	5d		 pop	 ebp
  00053	c2 08 00	 ret	 8
$LN11@DataSend:

; 259  :             return TRUE;
; 260  :         }
; 261  :  
; 262  :         LogAddTD("Error wsJoinServerClli DataSend m_SendBufLen+len > MAX_JOINSENDBUFSIZE");

  00056	68 00 00 00 00	 push	 OFFSET ??_C@_0EH@IGAACNFP@Error?5wsJoinServerClli?5DataSend?5@
  0005b	ff 15 00 00 00
	00		 call	 DWORD PTR ?LogAddTD@@3P6AXPADZZA ; LogAddTD
  00061	83 c4 04	 add	 esp, 4

; 263  :         this->Close();

  00064	8d 4b 04	 lea	 ecx, DWORD PTR [ebx+4]
  00067	e8 00 00 00 00	 call	 ?Close@MyWinsockBase@@QAEHXZ ; MyWinsockBase::Close
  0006c	5e		 pop	 esi
  0006d	5f		 pop	 edi

; 288  :                 return FALSE;

  0006e	33 c0		 xor	 eax, eax
  00070	5b		 pop	 ebx

; 324  : }

  00071	5d		 pop	 ebp
  00072	c2 08 00	 ret	 8
$LN12@DataSend:

; 264  :         return FALSE;
; 265  :     }
; 266  :  
; 267  :     nLeft = len;

  00075	89 7d 0c	 mov	 DWORD PTR _nLeft$[ebp], edi
$LL10@DataSend:

; 268  :  
; 269  :     while ( true )
; 270  :     {
; 271  :         nResult = send(this->m_socket, (char*)&buf[nDx], (len - nDx), 0);

  00078	8b 55 08	 mov	 edx, DWORD PTR _buf$[ebp]
  0007b	6a 00		 push	 0
  0007d	8b cf		 mov	 ecx, edi
  0007f	2b ce		 sub	 ecx, esi
  00081	51		 push	 ecx
  00082	8b 4b 0c	 mov	 ecx, DWORD PTR [ebx+12]
  00085	8d 04 16	 lea	 eax, DWORD PTR [esi+edx]
  00088	50		 push	 eax
  00089	51		 push	 ecx
  0008a	ff 15 00 00 00
	00		 call	 DWORD PTR __imp__send@16

; 272  :  
; 273  :         if ( nResult == -1)

  00090	83 f8 ff	 cmp	 eax, -1
  00093	75 25		 jne	 SHORT $LN8@DataSend

; 274  :         {
; 275  :             if ( WSAGetLastError() != WSAEWOULDBLOCK )

  00095	ff 15 00 00 00
	00		 call	 DWORD PTR __imp__WSAGetLastError@0
  0009b	3d 33 27 00 00	 cmp	 eax, 10035		; 00002733H
  000a0	75 37		 jne	 SHORT $LN19@DataSend

; 281  :             }
; 282  :  
; 283  :             if( (len + nLeft) > MAX_WS_BUF_LEN )

  000a2	8b 45 0c	 mov	 eax, DWORD PTR _nLeft$[ebp]
  000a5	8d 14 38	 lea	 edx, DWORD PTR [eax+edi]
  000a8	81 fa 00 80 0c
	00		 cmp	 edx, 819200		; 000c8000H
  000ae	7f 47		 jg	 SHORT $LN20@DataSend

; 289  :             }
; 290  :  
; 291  :             /*if( !this->m_SendBufLen )
; 292  :             {
; 293  :                 return false;
; 294  :             }*/
; 295  :  
; 296  :             if ( nDx >= 0 )

  000b0	85 f6		 test	 esi, esi
  000b2	0f 89 86 00 00
	00		 jns	 $LN23@DataSend

; 297  :             {
; 298  :                 /*memcpy( &this->m_SendBuf[this->m_SendBufLen],  &buf[nDx], nLeft);
; 299  :                 this->m_SendBufLen +=nLeft;
; 300  :                 LogAdd("error-L3 : Copy1 : nLeft:%d len:%d nDx:%d", nLeft, this->m_SendBufLen , nDx);*/
; 301  :                 return TRUE;
; 302  :             }
; 303  :         }

  000b8	eb 0d		 jmp	 SHORT $LN24@DataSend
$LN8@DataSend:

; 304  :         else if ( nResult == 0 )

  000ba	85 c0		 test	 eax, eax
  000bc	74 6b		 je	 SHORT $LN22@DataSend

; 307  :             break;
; 308  :         }
; 309  :  
; 310  :         if ( nResult > 0 )

  000be	7e 07		 jle	 SHORT $LN24@DataSend

; 311  :         {
; 312  :             nDx += nResult;
; 313  :             nLeft -= nResult;

  000c0	29 45 0c	 sub	 DWORD PTR _nLeft$[ebp], eax
  000c3	03 f0		 add	 esi, eax

; 314  :             len -= nResult;

  000c5	2b f8		 sub	 edi, eax
$LN24@DataSend:

; 315  :         }
; 316  :  
; 317  :         if ( nLeft <= 0)

  000c7	83 7d 0c 00	 cmp	 DWORD PTR _nLeft$[ebp], 0
  000cb	7f ab		 jg	 SHORT $LL10@DataSend

; 318  :         {
; 319  :             break;
; 320  :         }
; 321  :     }
; 322  :  
; 323  :     return TRUE;

  000cd	5e		 pop	 esi
  000ce	5f		 pop	 edi
  000cf	b8 01 00 00 00	 mov	 eax, 1
  000d4	5b		 pop	 ebx

; 324  : }

  000d5	5d		 pop	 ebp
  000d6	c2 08 00	 ret	 8
$LN19@DataSend:

; 276  :             {
; 277  :                 LogAdd("error-L3 : %d (%s %d)", WSAGetLastError(), __FILE__, __LINE__);

  000d9	68 15 01 00 00	 push	 277			; 00000115H
  000de	68 00 00 00 00	 push	 OFFSET ??_C@_0BE@MELEPACJ@wsJoinServerCli?4cpp?$AA@
  000e3	ff 15 00 00 00
	00		 call	 DWORD PTR __imp__WSAGetLastError@0
  000e9	50		 push	 eax
  000ea	68 00 00 00 00	 push	 OFFSET ??_C@_0BG@DJOPGDCB@error?9L3?5?3?5?$CFd?5?$CI?$CFs?5?$CFd?$CJ?$AA@
  000ef	ff 15 00 00 00
	00		 call	 DWORD PTR ?LogAdd@@3P6AXPADZZA ; LogAdd

; 278  :                 len = 0;
; 279  :                 this->Close(this->m_socket);
; 280  :                 return FALSE;

  000f5	eb 1a		 jmp	 SHORT $LN26@DataSend
$LN20@DataSend:

; 284  :             {
; 285  :                 LogAddC(2,"error-L3 : buffer error closed %d, %d", (*sendbuflen+nLeft), MAX_WS_BUF_LEN);

  000f7	8b 4d 08	 mov	 ecx, DWORD PTR _sendbuflen$[ebp]
  000fa	8b 11		 mov	 edx, DWORD PTR [ecx]
  000fc	68 00 80 0c 00	 push	 819200			; 000c8000H
  00101	03 d0		 add	 edx, eax
  00103	52		 push	 edx
  00104	68 00 00 00 00	 push	 OFFSET ??_C@_0CG@DMMIJENA@error?9L3?5?3?5buffer?5error?5closed?5?$CF@
  00109	6a 02		 push	 2
  0010b	ff 15 00 00 00
	00		 call	 DWORD PTR ?LogAddC@@3P6AXEPADZZA ; LogAddC
$LN26@DataSend:

; 286  :                 len = 0;
; 287  :                 this->Close(this->m_socket);

  00111	8b 43 0c	 mov	 eax, DWORD PTR [ebx+12]
  00114	83 c4 10	 add	 esp, 16			; 00000010H
  00117	50		 push	 eax
  00118	8d 4b 04	 lea	 ecx, DWORD PTR [ebx+4]
  0011b	e8 00 00 00 00	 call	 ?Close@MyWinsockBase@@QAEHI@Z ; MyWinsockBase::Close
  00120	5e		 pop	 esi
  00121	5f		 pop	 edi

; 288  :                 return FALSE;

  00122	33 c0		 xor	 eax, eax
  00124	5b		 pop	 ebx

; 324  : }

  00125	5d		 pop	 ebp
  00126	c2 08 00	 ret	 8
$LN22@DataSend:

; 305  :         {
; 306  :             LogAdd("error-L3 : send()  result is zero", WSAGetLastError());

  00129	ff 15 00 00 00
	00		 call	 DWORD PTR __imp__WSAGetLastError@0
  0012f	50		 push	 eax
  00130	68 00 00 00 00	 push	 OFFSET ??_C@_0CC@HECGJOBH@error?9L3?5?3?5send?$CI?$CJ?5?5result?5is?5zer@
  00135	ff 15 00 00 00
	00		 call	 DWORD PTR ?LogAdd@@3P6AXPADZZA ; LogAdd
  0013b	83 c4 08	 add	 esp, 8
$LN23@DataSend:

; 318  :         {
; 319  :             break;
; 320  :         }
; 321  :     }
; 322  :  
; 323  :     return TRUE;

  0013e	5e		 pop	 esi
  0013f	5f		 pop	 edi
  00140	b8 01 00 00 00	 mov	 eax, 1
  00145	5b		 pop	 ebx

; 324  : }

  00146	5d		 pop	 ebp
  00147	c2 08 00	 ret	 8
?DataSend@wsJoinServerCli@@QAEHPADH@Z ENDP		; wsJoinServerCli::DataSend
_TEXT	ENDS
PUBLIC	??_C@_0BJ@BMEBGMFO@send?$CI?$CJ?5result?5is?5zero?5?$CFd?$AA@ ; `string'
PUBLIC	??_C@_0CE@HIKCACFP@FD_WRITE?5send?$CI?$CJ?5WSAEWOULDBLOCK?5?3@ ; `string'
PUBLIC	??_C@_0BL@HNPHKEOO@FD_WRITE?5send?$CI?$CJ?5?$LP?$KB?$LH?$KP?5?$CFd?5?$CFd?$AA@ ; `string'
PUBLIC	??_C@_0CC@CMOPGBFG@error?9L3?5?3?5nDx?5?$CFd?5m_SendBufLen?5?$CF@ ; `string'
PUBLIC	?FDWRITE_MsgDataSend@wsJoinServerCli@@QAEHXZ	; wsJoinServerCli::FDWRITE_MsgDataSend
;	COMDAT ??_C@_0BJ@BMEBGMFO@send?$CI?$CJ?5result?5is?5zero?5?$CFd?$AA@
CONST	SEGMENT
??_C@_0BJ@BMEBGMFO@send?$CI?$CJ?5result?5is?5zero?5?$CFd?$AA@ DB 'send() '
	DB	'result is zero %d', 00H			; `string'
CONST	ENDS
;	COMDAT ??_C@_0CE@HIKCACFP@FD_WRITE?5send?$CI?$CJ?5WSAEWOULDBLOCK?5?3@
CONST	SEGMENT
??_C@_0CE@HIKCACFP@FD_WRITE?5send?$CI?$CJ?5WSAEWOULDBLOCK?5?3@ DB 'FD_WRI'
	DB	'TE send() WSAEWOULDBLOCK : %d', 00H		; `string'
CONST	ENDS
;	COMDAT ??_C@_0BL@HNPHKEOO@FD_WRITE?5send?$CI?$CJ?5?$LP?$KB?$LH?$KP?5?$CFd?5?$CFd?$AA@
CONST	SEGMENT
??_C@_0BL@HNPHKEOO@FD_WRITE?5send?$CI?$CJ?5?$LP?$KB?$LH?$KP?5?$CFd?5?$CFd?$AA@ DB 'F'
	DB	'D_WRITE send() ', 0bfH, 0a1H, 0b7H, 0afH, ' %d %d', 00H ; `string'
CONST	ENDS
;	COMDAT ??_C@_0CC@CMOPGBFG@error?9L3?5?3?5nDx?5?$CFd?5m_SendBufLen?5?$CF@
CONST	SEGMENT
??_C@_0CC@CMOPGBFG@error?9L3?5?3?5nDx?5?$CFd?5m_SendBufLen?5?$CF@ DB 'err'
	DB	'or-L3 : nDx %d m_SendBufLen %d', 00H	; `string'
; Function compile flags: /Ogtp
CONST	ENDS
;	COMDAT ?FDWRITE_MsgDataSend@wsJoinServerCli@@QAEHXZ
_TEXT	SEGMENT
?FDWRITE_MsgDataSend@wsJoinServerCli@@QAEHXZ PROC	; wsJoinServerCli::FDWRITE_MsgDataSend, COMDAT
; _this$ = ecx

; 331  : {

  00000	56		 push	 esi
  00001	57		 push	 edi
  00002	8b f1		 mov	 esi, ecx

; 332  : 	int nResult;
; 333  : 	int nDx;	// Degeneration X :)
; 334  : 	LPBYTE sendbuf;
; 335  : 	int* sendbuflen;
; 336  : 
; 337  : 	nDx=0;
; 338  : 	sendbuf=&this->m_SendBuf[0];
; 339  : 	sendbuflen=&this->m_SendBufLen ;
; 340  : 
; 341  : 	if (this->m_SendBufLen < 1)

  00004	b8 01 00 00 00	 mov	 eax, 1
  00009	33 ff		 xor	 edi, edi
  0000b	39 86 1c 80 0c
	00		 cmp	 DWORD PTR [esi+819228], eax

; 342  : 	{
; 343  : 		return TRUE;

  00011	0f 8c e3 00 00
	00		 jl	 $LN9@FDWRITE_Ms

; 344  : 	}
; 345  : 
; 346  : 	while (*sendbuflen>0)

  00017	53		 push	 ebx
  00018	39 be 1c 80 0c
	00		 cmp	 DWORD PTR [esi+819228], edi
  0001e	0f 8e d0 00 00
	00		 jle	 $LN6@FDWRITE_Ms
$LL7@FDWRITE_Ms:

; 347  : 	{
; 348  : 		nResult=send(this->m_socket, (char*)&sendbuf[nDx], *sendbuflen-nDx, 0);

  00024	8b 86 1c 80 0c
	00		 mov	 eax, DWORD PTR [esi+819228]
  0002a	8b 56 0c	 mov	 edx, DWORD PTR [esi+12]
  0002d	6a 00		 push	 0
  0002f	2b c7		 sub	 eax, edi
  00031	50		 push	 eax
  00032	8d 4c 3e 1c	 lea	 ecx, DWORD PTR [esi+edi+28]
  00036	51		 push	 ecx
  00037	52		 push	 edx
  00038	ff 15 00 00 00
	00		 call	 DWORD PTR __imp__send@16
  0003e	8b d8		 mov	 ebx, eax

; 349  : 		if (nResult == -1)

  00040	83 fb ff	 cmp	 ebx, -1
  00043	74 4b		 je	 SHORT $LN12@FDWRITE_Ms

; 360  : 				break;
; 361  : 			}
; 362  : 		}
; 363  : 		if (nResult <= 0)

  00045	85 db		 test	 ebx, ebx
  00047	0f 8e 92 00 00
	00		 jle	 $LN13@FDWRITE_Ms

; 366  : 			break;
; 367  : 		}
; 368  : 		LogAdd("error-L3 : nDx %d m_SendBufLen %d", nDx, this->m_SendBufLen );

  0004d	8b 86 1c 80 0c
	00		 mov	 eax, DWORD PTR [esi+819228]
  00053	50		 push	 eax
  00054	57		 push	 edi
  00055	68 00 00 00 00	 push	 OFFSET ??_C@_0CC@CMOPGBFG@error?9L3?5?3?5nDx?5?$CFd?5m_SendBufLen?5?$CF@
  0005a	ff 15 00 00 00
	00		 call	 DWORD PTR ?LogAdd@@3P6AXPADZZA ; LogAdd

; 369  : 
; 370  : 		if (nResult > 0)
; 371  : 		{
; 372  : 			nDx += nResult;
; 373  : 			*sendbuflen -= nResult;

  00060	29 9e 1c 80 0c
	00		 sub	 DWORD PTR [esi+819228], ebx

; 374  : 		}
; 375  : 
; 376  : 		LogAdd("error-L3 : nDx %d m_SendBufLen %d", nDx, this->m_SendBufLen );

  00066	8b 8e 1c 80 0c
	00		 mov	 ecx, DWORD PTR [esi+819228]
  0006c	51		 push	 ecx
  0006d	03 fb		 add	 edi, ebx
  0006f	57		 push	 edi
  00070	68 00 00 00 00	 push	 OFFSET ??_C@_0CC@CMOPGBFG@error?9L3?5?3?5nDx?5?$CFd?5m_SendBufLen?5?$CF@
  00075	ff 15 00 00 00
	00		 call	 DWORD PTR ?LogAdd@@3P6AXPADZZA ; LogAdd
  0007b	83 c4 18	 add	 esp, 24			; 00000018H
  0007e	83 be 1c 80 0c
	00 00		 cmp	 DWORD PTR [esi+819228], 0
  00085	7f 9d		 jg	 SHORT $LL7@FDWRITE_Ms

; 377  : 	}
; 378  : 	return TRUE;

  00087	5b		 pop	 ebx
  00088	5f		 pop	 edi
  00089	b8 01 00 00 00	 mov	 eax, 1
  0008e	5e		 pop	 esi

; 379  : }

  0008f	c3		 ret	 0
$LN12@FDWRITE_Ms:

; 350  : 		{
; 351  : 			if ( WSAGetLastError() != WSAEWOULDBLOCK)

  00090	8b 3d 00 00 00
	00		 mov	 edi, DWORD PTR __imp__WSAGetLastError@0
  00096	ff d7		 call	 edi
  00098	3d 33 27 00 00	 cmp	 eax, 10035		; 00002733H
  0009d	74 26		 je	 SHORT $LN4@FDWRITE_Ms

; 352  : 			{
; 353  : 				LogAdd("FD_WRITE send() ¿¡·¯ %d %d", WSAGetLastError(), *sendbuflen);

  0009f	8b 96 1c 80 0c
	00		 mov	 edx, DWORD PTR [esi+819228]
  000a5	52		 push	 edx
  000a6	ff d7		 call	 edi
  000a8	50		 push	 eax
  000a9	68 00 00 00 00	 push	 OFFSET ??_C@_0BL@HNPHKEOO@FD_WRITE?5send?$CI?$CJ?5?$LP?$KB?$LH?$KP?5?$CFd?5?$CFd?$AA@
  000ae	ff 15 00 00 00
	00		 call	 DWORD PTR ?LogAdd@@3P6AXPADZZA ; LogAdd
  000b4	83 c4 0c	 add	 esp, 12			; 0000000cH

; 354  : 				this->Close();

  000b7	8d 4e 04	 lea	 ecx, DWORD PTR [esi+4]
  000ba	e8 00 00 00 00	 call	 ?Close@MyWinsockBase@@QAEHXZ ; MyWinsockBase::Close
  000bf	5b		 pop	 ebx
  000c0	5f		 pop	 edi

; 355  : 				return FALSE;

  000c1	33 c0		 xor	 eax, eax
  000c3	5e		 pop	 esi

; 379  : }

  000c4	c3		 ret	 0
$LN4@FDWRITE_Ms:

; 356  : 			}
; 357  : 			else
; 358  : 			{
; 359  : 				LogAdd("FD_WRITE send() WSAEWOULDBLOCK : %d", WSAGetLastError());

  000c5	ff d7		 call	 edi
  000c7	50		 push	 eax
  000c8	68 00 00 00 00	 push	 OFFSET ??_C@_0CE@HIKCACFP@FD_WRITE?5send?$CI?$CJ?5WSAEWOULDBLOCK?5?3@

; 364  : 		{
; 365  : 			LogAdd("send() result is zero %d", WSAGetLastError());

  000cd	ff 15 00 00 00
	00		 call	 DWORD PTR ?LogAdd@@3P6AXPADZZA ; LogAdd
  000d3	83 c4 08	 add	 esp, 8
  000d6	5b		 pop	 ebx
  000d7	5f		 pop	 edi

; 377  : 	}
; 378  : 	return TRUE;

  000d8	b8 01 00 00 00	 mov	 eax, 1
  000dd	5e		 pop	 esi

; 379  : }

  000de	c3		 ret	 0
$LN13@FDWRITE_Ms:

; 364  : 		{
; 365  : 			LogAdd("send() result is zero %d", WSAGetLastError());

  000df	ff 15 00 00 00
	00		 call	 DWORD PTR __imp__WSAGetLastError@0
  000e5	50		 push	 eax
  000e6	68 00 00 00 00	 push	 OFFSET ??_C@_0BJ@BMEBGMFO@send?$CI?$CJ?5result?5is?5zero?5?$CFd?$AA@
  000eb	ff 15 00 00 00
	00		 call	 DWORD PTR ?LogAdd@@3P6AXPADZZA ; LogAdd
  000f1	83 c4 08	 add	 esp, 8
$LN6@FDWRITE_Ms:

; 377  : 	}
; 378  : 	return TRUE;

  000f4	b8 01 00 00 00	 mov	 eax, 1
  000f9	5b		 pop	 ebx
$LN9@FDWRITE_Ms:

; 379  : }

  000fa	5f		 pop	 edi
  000fb	5e		 pop	 esi
  000fc	c3		 ret	 0
?FDWRITE_MsgDataSend@wsJoinServerCli@@QAEHXZ ENDP	; wsJoinServerCli::FDWRITE_MsgDataSend
_TEXT	ENDS
PUBLIC	??_C@_0DN@KEDJNFOA@error?9L2?5?3?5header?5error?5?$CI?$CFs?5?$CFd?$CJl@ ; `string'
PUBLIC	??_C@_0BD@JDAMFKGN@error?9L2?5?3?5size?5?$CFd?$AA@ ; `string'
PUBLIC	??_C@_0BJ@MHCMJICL@error?9L3?5?3?5recv?5error?5?$CFd?$AA@ ; `string'
PUBLIC	??_C@_0CE@LOFMLGPB@error?9L3?5?3?5closed?5?$CFd?5?9?5buff?3?$CFd?$CI?$CF@ ; `string'
PUBLIC	?DataRecv@wsJoinServerCli@@QAEHXZ		; wsJoinServerCli::DataRecv
EXTRN	__imp__recv@16:PROC
;	COMDAT ??_C@_0DN@KEDJNFOA@error?9L2?5?3?5header?5error?5?$CI?$CFs?5?$CFd?$CJl@
CONST	SEGMENT
??_C@_0DN@KEDJNFOA@error?9L2?5?3?5header?5error?5?$CI?$CFs?5?$CFd?$CJl@ DB 'e'
	DB	'rror-L2 : header error (%s %d)lOfs:%d, head: 0x%02X size:%d', 00H ; `string'
CONST	ENDS
;	COMDAT ??_C@_0BD@JDAMFKGN@error?9L2?5?3?5size?5?$CFd?$AA@
CONST	SEGMENT
??_C@_0BD@JDAMFKGN@error?9L2?5?3?5size?5?$CFd?$AA@ DB 'error-L2 : size %d'
	DB	00H						; `string'
CONST	ENDS
;	COMDAT ??_C@_0BJ@MHCMJICL@error?9L3?5?3?5recv?5error?5?$CFd?$AA@
CONST	SEGMENT
??_C@_0BJ@MHCMJICL@error?9L3?5?3?5recv?5error?5?$CFd?$AA@ DB 'error-L3 : '
	DB	'recv error %d', 00H				; `string'
CONST	ENDS
;	COMDAT ??_C@_0CE@LOFMLGPB@error?9L3?5?3?5closed?5?$CFd?5?9?5buff?3?$CFd?$CI?$CF@
CONST	SEGMENT
??_C@_0CE@LOFMLGPB@error?9L3?5?3?5closed?5?$CFd?5?9?5buff?3?$CFd?$CI?$CF@ DB 'e'
	DB	'rror-L3 : closed %d - buff:%d(%d) ', 00H	; `string'
; Function compile flags: /Ogtp
CONST	ENDS
;	COMDAT ?DataRecv@wsJoinServerCli@@QAEHXZ
_TEXT	SEGMENT
_recvbuf$ = -8						; size = 4
_headcode$ = -4						; size = 1
?DataRecv@wsJoinServerCli@@QAEHXZ PROC			; wsJoinServerCli::DataRecv, COMDAT
; _this$ = ecx

; 384  : {

  00000	55		 push	 ebp
  00001	8b ec		 mov	 ebp, esp
  00003	83 ec 08	 sub	 esp, 8
  00006	56		 push	 esi
  00007	8b f1		 mov	 esi, ecx

; 385  : 	int nResult;
; 386  : 	LPBYTE recvbuf;
; 387  : 	int* recvbuflen;
; 388  : 	int lOfs;
; 389  : 	int size;
; 390  : 	BYTE headcode;
; 391  : 
; 392  : 	recvbuf= (LPBYTE)&this->m_RecvBuf[0]   ;
; 393  : 	recvbuflen=&this->m_RecvBufLen ;
; 394  : 	nResult=recv(this->m_socket , (char*)&recvbuf[*recvbuflen], (MAX_WS_BUF_LEN-*recvbuflen), 0);

  00009	8b 86 20 00 19
	00		 mov	 eax, DWORD PTR [esi+1638432]
  0000f	8b 56 0c	 mov	 edx, DWORD PTR [esi+12]
  00012	57		 push	 edi
  00013	6a 00		 push	 0
  00015	b9 00 80 0c 00	 mov	 ecx, 819200		; 000c8000H
  0001a	2b c8		 sub	 ecx, eax
  0001c	8d be 20 80 0c
	00		 lea	 edi, DWORD PTR [esi+819232]
  00022	51		 push	 ecx
  00023	03 c7		 add	 eax, edi
  00025	50		 push	 eax
  00026	52		 push	 edx
  00027	89 7d f8	 mov	 DWORD PTR _recvbuf$[ebp], edi
  0002a	ff 15 00 00 00
	00		 call	 DWORD PTR __imp__recv@16

; 395  : 
; 396  : 	if ( nResult == 0 )

  00030	85 c0		 test	 eax, eax
  00032	75 33		 jne	 SHORT $LN18@DataRecv

; 397  : 	{
; 398  : 		LogAdd("error-L3 : closed %d - buff:%d(%d) ",
; 399  : 			WSAGetLastError(), this->m_RecvBufLen, MAX_WS_BUF_LEN - *recvbuflen);

  00034	8b 8e 20 00 19
	00		 mov	 ecx, DWORD PTR [esi+1638432]
  0003a	b8 00 80 0c 00	 mov	 eax, 819200		; 000c8000H
  0003f	2b 86 20 00 19
	00		 sub	 eax, DWORD PTR [esi+1638432]
  00045	50		 push	 eax
  00046	51		 push	 ecx
  00047	ff 15 00 00 00
	00		 call	 DWORD PTR __imp__WSAGetLastError@0
  0004d	50		 push	 eax
  0004e	68 00 00 00 00	 push	 OFFSET ??_C@_0CE@LOFMLGPB@error?9L3?5?3?5closed?5?$CFd?5?9?5buff?3?$CFd?$CI?$CF@
  00053	ff 15 00 00 00
	00		 call	 DWORD PTR ?LogAdd@@3P6AXPADZZA ; LogAdd
  00059	83 c4 10	 add	 esp, 16			; 00000010H
$LN27@DataRecv:

; 400  : 
; 401  : 		return 1;

  0005c	5f		 pop	 edi
  0005d	b8 01 00 00 00	 mov	 eax, 1
  00062	5e		 pop	 esi

; 496  : 	return 0;
; 497  : }

  00063	8b e5		 mov	 esp, ebp
  00065	5d		 pop	 ebp
  00066	c3		 ret	 0
$LN18@DataRecv:

; 402  : 	}
; 403  : 	else if (nResult == -1 )

  00067	83 f8 ff	 cmp	 eax, -1
  0006a	75 2b		 jne	 SHORT $LN16@DataRecv

; 404  : 	{
; 405  : 		if ( WSAGetLastError() == WSAEWOULDBLOCK )

  0006c	8b 35 00 00 00
	00		 mov	 esi, DWORD PTR __imp__WSAGetLastError@0
  00072	ff d6		 call	 esi
  00074	3d 33 27 00 00	 cmp	 eax, 10035		; 00002733H

; 406  : 		{
; 407  : 			return 1;

  00079	74 e1		 je	 SHORT $LN27@DataRecv

; 408  : 		}
; 409  : 		LogAdd("error-L3 : recv error %d", WSAGetLastError() );

  0007b	ff d6		 call	 esi
  0007d	50		 push	 eax
  0007e	68 00 00 00 00	 push	 OFFSET ??_C@_0BJ@MHCMJICL@error?9L3?5?3?5recv?5error?5?$CFd?$AA@
  00083	ff 15 00 00 00
	00		 call	 DWORD PTR ?LogAdd@@3P6AXPADZZA ; LogAdd
  00089	83 c4 08	 add	 esp, 8
  0008c	5f		 pop	 edi

; 410  : 		return 1;

  0008d	b8 01 00 00 00	 mov	 eax, 1
  00092	5e		 pop	 esi

; 496  : 	return 0;
; 497  : }

  00093	8b e5		 mov	 esp, ebp
  00095	5d		 pop	 ebp
  00096	c3		 ret	 0
$LN16@DataRecv:

; 411  : 	}
; 412  : 
; 413  : 	*recvbuflen += nResult;

  00097	01 86 20 00 19
	00		 add	 DWORD PTR [esi+1638432], eax

; 414  : 
; 415  : 	if (*recvbuflen<3)

  0009d	83 be 20 00 19
	00 03		 cmp	 DWORD PTR [esi+1638432], 3
  000a4	7d 0b		 jge	 SHORT $LN14@DataRecv

; 416  : 	{
; 417  : 		return 3;

  000a6	5f		 pop	 edi
  000a7	b8 03 00 00 00	 mov	 eax, 3
  000ac	5e		 pop	 esi

; 496  : 	return 0;
; 497  : }

  000ad	8b e5		 mov	 esp, ebp
  000af	5d		 pop	 ebp
  000b0	c3		 ret	 0
$LN14@DataRecv:
  000b1	53		 push	 ebx

; 418  : 	}
; 419  : 
; 420  : 	lOfs=0;

  000b2	33 db		 xor	 ebx, ebx
$LL13@DataRecv:

; 421  : 	size=0;
; 422  : 
; 423  : 	//LogAddC(2, "[DEBUG] Type: %x", recvbuf[lOfs]);
; 424  : 
; 425  : 	while ( true )
; 426  : 	{
; 427  : 		
; 428  : 		if (recvbuf[lOfs] == 0xC1 )	// Type packet handling C1 Type

  000b4	8a 0c 3b	 mov	 cl, BYTE PTR [ebx+edi]
  000b7	8d 04 3b	 lea	 eax, DWORD PTR [ebx+edi]
  000ba	80 f9 c1	 cmp	 cl, 193			; 000000c1H
  000bd	75 09		 jne	 SHORT $LN11@DataRecv

; 429  : 		{
; 430  : 			LPBYTE c1subbase = (LPBYTE)&recvbuf[lOfs];
; 431  : 			size=c1subbase[1];

  000bf	0f b6 78 01	 movzx	 edi, BYTE PTR [eax+1]

; 432  : 			headcode=c1subbase[2];

  000c3	8a 50 02	 mov	 dl, BYTE PTR [eax+2]
  000c6	eb 19		 jmp	 SHORT $LN25@DataRecv
$LN11@DataRecv:

; 433  : 		}
; 434  : 		else if ( recvbuf[lOfs] == 0xC2 ) // Type packet handling C2 Type

  000c8	80 f9 c2	 cmp	 cl, 194			; 000000c2H
  000cb	0f 85 86 00 00
	00		 jne	 $LN9@DataRecv

; 435  : 		{
; 436  : 			LPBYTE c2subbase=(LPBYTE)&recvbuf[lOfs];
; 437  : 			size = c2subbase[1] * 256;
; 438  : 			size |= c2subbase[2];

  000d1	0f b6 78 01	 movzx	 edi, BYTE PTR [eax+1]
  000d5	0f b6 48 02	 movzx	 ecx, BYTE PTR [eax+2]

; 439  : 			headcode = c2subbase[3];

  000d9	8a 50 03	 mov	 dl, BYTE PTR [eax+3]
  000dc	c1 e7 08	 shl	 edi, 8
  000df	0b f9		 or	 edi, ecx
$LN25@DataRecv:
  000e1	88 55 fc	 mov	 BYTE PTR _headcode$[ebp], dl

; 462  : 		}
; 463  : 
; 464  : 		if ( size <= 0 )

  000e4	85 ff		 test	 edi, edi
  000e6	7e 2f		 jle	 SHORT $LN22@DataRecv

; 467  : 			return 0;
; 468  : 		}
; 469  : 
; 470  : 		if ( size <= *recvbuflen )

  000e8	3b be 20 00 19
	00		 cmp	 edi, DWORD PTR [esi+1638432]
  000ee	7f 3f		 jg	 SHORT $LN6@DataRecv

; 471  : 		{
; 472  : 			this->wsProtocolCore(headcode, &recvbuf[lOfs], size);

  000f0	8b 8e 24 00 19
	00		 mov	 ecx, DWORD PTR [esi+1638436]
  000f6	57		 push	 edi
  000f7	50		 push	 eax
  000f8	8b 45 fc	 mov	 eax, DWORD PTR _headcode$[ebp]
  000fb	50		 push	 eax
  000fc	ff d1		 call	 ecx

; 473  : 			lOfs += size;
; 474  : 			*recvbuflen -= size;

  000fe	29 be 20 00 19
	00		 sub	 DWORD PTR [esi+1638432], edi
  00104	83 c4 0c	 add	 esp, 12			; 0000000cH
  00107	03 df		 add	 ebx, edi

; 475  : 
; 476  : 			if ( *recvbuflen <= 0)

  00109	83 be 20 00 19
	00 00		 cmp	 DWORD PTR [esi+1638432], 0
  00110	7e 74		 jle	 SHORT $LN26@DataRecv

; 489  : 			break;
; 490  : 		}
; 491  : 		else
; 492  : 		{
; 493  : 			break;
; 494  : 		}
; 495  : 	}

  00112	8b 7d f8	 mov	 edi, DWORD PTR _recvbuf$[ebp]
  00115	eb 9d		 jmp	 SHORT $LL13@DataRecv
$LN22@DataRecv:

; 465  : 		{
; 466  : 			LogAdd("error-L2 : size %d", size);

  00117	57		 push	 edi
  00118	68 00 00 00 00	 push	 OFFSET ??_C@_0BD@JDAMFKGN@error?9L2?5?3?5size?5?$CFd?$AA@
  0011d	ff 15 00 00 00
	00		 call	 DWORD PTR ?LogAdd@@3P6AXPADZZA ; LogAdd
  00123	83 c4 08	 add	 esp, 8
  00126	5b		 pop	 ebx
  00127	5f		 pop	 edi
  00128	33 c0		 xor	 eax, eax
  0012a	5e		 pop	 esi

; 496  : 	return 0;
; 497  : }

  0012b	8b e5		 mov	 esp, ebp
  0012d	5d		 pop	 ebp
  0012e	c3		 ret	 0
$LN6@DataRecv:

; 477  : 			{
; 478  : 				break;
; 479  : 			}
; 480  : 		}	
; 481  : 		else if ( lOfs > 0 )

  0012f	85 db		 test	 ebx, ebx
  00131	7e 53		 jle	 SHORT $LN26@DataRecv

; 482  : 		{
; 483  : 			if ( *recvbuflen < 1 ) 

  00133	8b b6 20 00 19
	00		 mov	 esi, DWORD PTR [esi+1638432]
  00139	83 fe 01	 cmp	 esi, 1
  0013c	7c 48		 jl	 SHORT $LN26@DataRecv

; 484  : 			{
; 485  : 				break;
; 486  : 			}
; 487  : 
; 488  : 			memcpy(recvbuf, &recvbuf[lOfs], *recvbuflen);

  0013e	8b 45 f8	 mov	 eax, DWORD PTR _recvbuf$[ebp]
  00141	56		 push	 esi
  00142	03 d8		 add	 ebx, eax
  00144	53		 push	 ebx
  00145	50		 push	 eax
  00146	e8 00 00 00 00	 call	 _memcpy
  0014b	83 c4 0c	 add	 esp, 12			; 0000000cH
  0014e	5b		 pop	 ebx
  0014f	5f		 pop	 edi
  00150	33 c0		 xor	 eax, eax
  00152	5e		 pop	 esi

; 496  : 	return 0;
; 497  : }

  00153	8b e5		 mov	 esp, ebp
  00155	5d		 pop	 ebp
  00156	c3		 ret	 0
$LN9@DataRecv:

; 440  : 
; 441  : 			//header = lpMsg[count];
; 442  : 			//size = MAKEWORD(recvbuf[lOfs+2],recvbuf[lOfs+1]);
; 443  : 			//headcode = recvbuf[lOfs+3];
; 444  : 		}
; 445  : 		else
; 446  : 		{
; 447  : 			LogAdd("error-L2 : header error (%s %d)lOfs:%d, head: 0x%02X size:%d", __FILE__, __LINE__, lOfs, recvbuf[lOfs], *recvbuflen);

  00157	8b 96 20 00 19
	00		 mov	 edx, DWORD PTR [esi+1638432]
  0015d	0f b6 04 3b	 movzx	 eax, BYTE PTR [ebx+edi]
  00161	52		 push	 edx
  00162	50		 push	 eax
  00163	53		 push	 ebx
  00164	68 bf 01 00 00	 push	 447			; 000001bfH
  00169	68 00 00 00 00	 push	 OFFSET ??_C@_0BE@MELEPACJ@wsJoinServerCli?4cpp?$AA@
  0016e	68 00 00 00 00	 push	 OFFSET ??_C@_0DN@KEDJNFOA@error?9L2?5?3?5header?5error?5?$CI?$CFs?5?$CFd?$CJl@
  00173	ff 15 00 00 00
	00		 call	 DWORD PTR ?LogAdd@@3P6AXPADZZA ; LogAdd
  00179	83 c4 18	 add	 esp, 24			; 00000018H

; 448  : 			
; 449  : 			/*char DebugOut[6000] = { 0 };
; 450  : 
; 451  : 			for( int i = 0; i < 200; i++ )
; 452  : 			{
; 453  : 				char ByteFormat[100] = { 0 };
; 454  : 				sprintf(ByteFormat, "%X ", recvbuf[i]);
; 455  : 				strcat(DebugOut, ByteFormat);
; 456  : 			}
; 457  : 			
; 458  : 			LogAddC(2, DebugOut);	*/		
; 459  : 			
; 460  : 			*recvbuflen = 0;

  0017c	c7 86 20 00 19
	00 00 00 00 00	 mov	 DWORD PTR [esi+1638432], 0
$LN26@DataRecv:

; 461  : 			return 0;

  00186	5b		 pop	 ebx
  00187	5f		 pop	 edi
  00188	33 c0		 xor	 eax, eax
  0018a	5e		 pop	 esi

; 496  : 	return 0;
; 497  : }

  0018b	8b e5		 mov	 esp, ebp
  0018d	5d		 pop	 ebp
  0018e	c3		 ret	 0
?DataRecv@wsJoinServerCli@@QAEHXZ ENDP			; wsJoinServerCli::DataRecv
_TEXT	ENDS
EXTRN	??3@YAXPAX@Z:PROC				; operator delete
; Function compile flags: /Ogtp
;	COMDAT ??_GwsJoinServerCli@@UAEPAXI@Z
_TEXT	SEGMENT
___flags$ = 8						; size = 4
??_GwsJoinServerCli@@UAEPAXI@Z PROC			; wsJoinServerCli::`scalar deleting destructor', COMDAT
; _this$ = ecx
  00000	55		 push	 ebp
  00001	8b ec		 mov	 ebp, esp
  00003	56		 push	 esi
  00004	8b f1		 mov	 esi, ecx
  00006	e8 00 00 00 00	 call	 ??1wsJoinServerCli@@UAE@XZ ; wsJoinServerCli::~wsJoinServerCli
  0000b	f6 45 08 01	 test	 BYTE PTR ___flags$[ebp], 1
  0000f	74 09		 je	 SHORT $LN4@scalar
  00011	56		 push	 esi
  00012	e8 00 00 00 00	 call	 ??3@YAXPAX@Z		; operator delete
  00017	83 c4 04	 add	 esp, 4
$LN4@scalar:
  0001a	8b c6		 mov	 eax, esi
  0001c	5e		 pop	 esi
  0001d	5d		 pop	 ebp
  0001e	c2 04 00	 ret	 4
??_GwsJoinServerCli@@UAEPAXI@Z ENDP			; wsJoinServerCli::`scalar deleting destructor'
_TEXT	ENDS
END
