; Listing generated by Microsoft (R) Optimizing Compiler Version 16.00.30319.01 

	TITLE	E:\work\tranet_version\GS\GameServer\WzAG.cpp
	.686P
	.XMM
	include listing.inc
	.model	flat

INCLUDELIB LIBCMT
INCLUDELIB OLDNAMES

PUBLIC	?SMDFile@@3PAU_iobuf@@A				; SMDFile
PUBLIC	?DataBuffer@@3PADA				; DataBuffer
PUBLIC	?DataBufferSize@@3KA				; DataBufferSize
PUBLIC	?gWzAG@@3VWzAG@@A				; gWzAG
PUBLIC	?sztmpServerName@@3PADA				; sztmpServerName
PUBLIC	?szServerKey@@3PAEA				; szServerKey
_BSS	SEGMENT
?SMDFile@@3PAU_iobuf@@A DD 01H DUP (?)			; SMDFile
?DataBuffer@@3PADA DD 01H DUP (?)			; DataBuffer
?DataBufferSize@@3KA DD 01H DUP (?)			; DataBufferSize
?gWzAG@@3VWzAG@@A DB 01H DUP (?)			; gWzAG
	ALIGN	4

?sztmpServerName@@3PADA DB 033H DUP (?)			; sztmpServerName
_BSS	ENDS
_DATA	SEGMENT
_g_iNpcUpDfLevel_CGATE DD 01H
	DD	02H
	DD	02dc6c0H
	DD	02H
	DD	03H
	DD	02dc6c0H
	DD	03H
	DD	04H
	DD	02dc6c0H
_g_iNpcUpDfLevel_CSTATUE DD 01H
	DD	03H
	DD	02dc6c0H
	DD	02H
	DD	05H
	DD	02dc6c0H
	DD	03H
	DD	07H
	DD	02dc6c0H
_g_iNpcUpMaxHP_CGATE DD 02625a0H
	DD	02H
	DD	0f4240H
	DD	03567e0H
	DD	03H
	DD	0f4240H
	DD	04f5880H
	DD	04H
	DD	0f4240H
_g_iNpcUpMaxHP_CSTATUE DD 02191c0H
	DD	03H
	DD	0f4240H
	DD	033e140H
	DD	05H
	DD	0f4240H
	DD	04c4b40H
	DD	07H
	DD	0f4240H
_g_iNpcUpRgLevel_CSTATUE DD 01H
	DD	03H
	DD	04c4b40H
	DD	02H
	DD	05H
	DD	04c4b40H
	DD	03H
	DD	07H
	DD	04c4b40H
_g_iCsUserReSpawnArea DD 023H
	DD	011H
	DD	090H
	DD	030H
	DD	04aH
	DD	090H
	DD	073H
	DD	09aH
	DD	023H
	DD	011H
	DD	090H
	DD	030H
_g_iNpcDefense_CGATE DD 064H
	DD	0b4H
	DD	012cH
	DD	0208H
_g_iNpcDefense_CSTATUE DD 050H
	DD	0b4H
	DD	0154H
	DD	0226H
_g_iCastleWallStepAxisY DD 071H
	DD	0a0H
	DD	0cbH
?szServerKey@@3PAEA DB 029H				; szServerKey
	DB	023H
	DB	0beH
	DB	00H
	DB	0e1H
	DB	06cH
	DB	0d6H
	DB	0aeH
	DB	052H
	DB	090H
	DB	049H
	DB	0f1H
	DB	0f1H
	DB	0bbH
	DB	0e9H
	DB	0ebH
	DB	0b3H
	DB	0a6H
	DB	0dbH
_DATA	ENDS
PUBLIC	??_H@YGXPAXIHP6EPAX0@Z@Z			; `vector constructor iterator'
; Function compile flags: /Ogtp
;	COMDAT ??_H@YGXPAXIHP6EPAX0@Z@Z
_TEXT	SEGMENT
___t$ = 8						; size = 4
___s$ = 12						; size = 4
___n$ = 16						; size = 4
___f$ = 20						; size = 4
??_H@YGXPAXIHP6EPAX0@Z@Z PROC				; `vector constructor iterator', COMDAT
  00000	55		 push	 ebp
  00001	8b ec		 mov	 ebp, esp
  00003	57		 push	 edi
  00004	8b 7d 10	 mov	 edi, DWORD PTR ___n$[ebp]
  00007	4f		 dec	 edi
  00008	78 14		 js	 SHORT $LN1@vector
  0000a	53		 push	 ebx
  0000b	8b 5d 14	 mov	 ebx, DWORD PTR ___f$[ebp]
  0000e	56		 push	 esi
  0000f	8b 75 08	 mov	 esi, DWORD PTR ___t$[ebp]
$LL2@vector:
  00012	8b ce		 mov	 ecx, esi
  00014	ff d3		 call	 ebx
  00016	03 75 0c	 add	 esi, DWORD PTR ___s$[ebp]
  00019	4f		 dec	 edi
  0001a	79 f6		 jns	 SHORT $LL2@vector
  0001c	5e		 pop	 esi
  0001d	5b		 pop	 ebx
$LN1@vector:
  0001e	5f		 pop	 edi
  0001f	5d		 pop	 ebp
  00020	c2 10 00	 ret	 16			; 00000010H
??_H@YGXPAXIHP6EPAX0@Z@Z ENDP				; `vector constructor iterator'
_TEXT	ENDS
PUBLIC	?GameServerAuthCallBackFunc@@YAXHH@Z		; GameServerAuthCallBackFunc
EXTRN	?ReadCommonServerInfo@@YAXXZ:PROC		; ReadCommonServerInfo
EXTRN	?GameMonsterAllCloseAndReLoad@@YAXXZ:PROC	; GameMonsterAllCloseAndReLoad
EXTRN	?ReadServerInfo@@YAXXZ:PROC			; ReadServerInfo
; Function compile flags: /Ogtp
; File e:\work\tranet_version\gs\gameserver\wzag.cpp
;	COMDAT ?GameServerAuthCallBackFunc@@YAXHH@Z
_TEXT	SEGMENT
_Type$ = 8						; size = 4
_Data$ = 12						; size = 4
?GameServerAuthCallBackFunc@@YAXHH@Z PROC		; GameServerAuthCallBackFunc, COMDAT

; 25   : {

  00000	55		 push	 ebp
  00001	8b ec		 mov	 ebp, esp

; 26   : 	if (!Type)

  00003	83 7d 08 00	 cmp	 DWORD PTR _Type$[ebp], 0
  00007	75 1e		 jne	 SHORT $LN4@GameServer

; 27   : 	{
; 28   : 		switch (Data)

  00009	8b 45 0c	 mov	 eax, DWORD PTR _Data$[ebp]
  0000c	48		 dec	 eax
  0000d	74 12		 je	 SHORT $LN3@GameServer
  0000f	48		 dec	 eax
  00010	74 09		 je	 SHORT $LN2@GameServer
  00012	48		 dec	 eax
  00013	75 12		 jne	 SHORT $LN4@GameServer

; 33   : 		}
; 34   : 	}
; 35   : }

  00015	5d		 pop	 ebp

; 32   : 		case 3:	ReadServerInfo();				break;

  00016	e9 00 00 00 00	 jmp	 ?ReadServerInfo@@YAXXZ	; ReadServerInfo
$LN2@GameServer:

; 33   : 		}
; 34   : 	}
; 35   : }

  0001b	5d		 pop	 ebp

; 31   : 		case 2:	GameMonsterAllCloseAndReLoad();	break;

  0001c	e9 00 00 00 00	 jmp	 ?GameMonsterAllCloseAndReLoad@@YAXXZ ; GameMonsterAllCloseAndReLoad
$LN3@GameServer:

; 33   : 		}
; 34   : 	}
; 35   : }

  00021	5d		 pop	 ebp

; 29   : 		{
; 30   : 		case 1:	ReadCommonServerInfo();			break;

  00022	e9 00 00 00 00	 jmp	 ?ReadCommonServerInfo@@YAXXZ ; ReadCommonServerInfo
$LN4@GameServer:

; 33   : 		}
; 34   : 	}
; 35   : }

  00027	5d		 pop	 ebp
  00028	c3		 ret	 0
?GameServerAuthCallBackFunc@@YAXHH@Z ENDP		; GameServerAuthCallBackFunc
_TEXT	ENDS
PUBLIC	??_C@_0BA@JHAHNEJ@ClientExeSerial?$AA@		; `string'
PUBLIC	??_C@_0P@EMJDPFDH@GameServerInfo?$AA@		; `string'
PUBLIC	??_C@_0BB@FBDFNIJB@ClientExeVersion?$AA@	; `string'
PUBLIC	??_C@_00CNPNBAHC@?$AA@				; `string'
PUBLIC	??_C@_0BM@GJEGIJCL@?4?4?2Data?2Other?2commonloc?4cfg?$AA@ ; `string'
PUBLIC	__$ArrayPad$
PUBLIC	?GetClientVersion@WzAG@@QAEXPAD0@Z		; WzAG::GetClientVersion
EXTRN	__imp__GetPrivateProfileStringA@24:PROC
EXTRN	___security_cookie:DWORD
EXTRN	@__security_check_cookie@4:PROC
;	COMDAT ??_C@_0BA@JHAHNEJ@ClientExeSerial?$AA@
CONST	SEGMENT
??_C@_0BA@JHAHNEJ@ClientExeSerial?$AA@ DB 'ClientExeSerial', 00H ; `string'
CONST	ENDS
;	COMDAT ??_C@_0P@EMJDPFDH@GameServerInfo?$AA@
CONST	SEGMENT
??_C@_0P@EMJDPFDH@GameServerInfo?$AA@ DB 'GameServerInfo', 00H ; `string'
CONST	ENDS
;	COMDAT ??_C@_0BB@FBDFNIJB@ClientExeVersion?$AA@
CONST	SEGMENT
??_C@_0BB@FBDFNIJB@ClientExeVersion?$AA@ DB 'ClientExeVersion', 00H ; `string'
CONST	ENDS
;	COMDAT ??_C@_00CNPNBAHC@?$AA@
CONST	SEGMENT
??_C@_00CNPNBAHC@?$AA@ DB 00H				; `string'
CONST	ENDS
;	COMDAT ??_C@_0BM@GJEGIJCL@?4?4?2Data?2Other?2commonloc?4cfg?$AA@
CONST	SEGMENT
??_C@_0BM@GJEGIJCL@?4?4?2Data?2Other?2commonloc?4cfg?$AA@ DB '..\Data\Oth'
	DB	'er\commonloc.cfg', 00H			; `string'
; Function compile flags: /Ogtp
CONST	ENDS
;	COMDAT ?GetClientVersion@WzAG@@QAEXPAD0@Z
_TEXT	SEGMENT
_ClientSerialBuff$ = -44				; size = 20
_ClientVersionBuff$ = -24				; size = 20
__$ArrayPad$ = -4					; size = 4
_ClientVersion$ = 8					; size = 4
_ClientSerial$ = 12					; size = 4
?GetClientVersion@WzAG@@QAEXPAD0@Z PROC			; WzAG::GetClientVersion, COMDAT
; _this$ = ecx

; 39   : {

  00000	55		 push	 ebp
  00001	8b ec		 mov	 ebp, esp
  00003	83 ec 2c	 sub	 esp, 44			; 0000002cH
  00006	a1 00 00 00 00	 mov	 eax, DWORD PTR ___security_cookie
  0000b	33 c5		 xor	 eax, ebp
  0000d	89 45 fc	 mov	 DWORD PTR __$ArrayPad$[ebp], eax
  00010	53		 push	 ebx

; 40   : 	char ClientVersionBuff[20];
; 41   : 	char ClientSerialBuff[20];
; 42   : 	// ----
; 43   : 	GetPrivateProfileString("GameServerInfo", "ClientExeVersion", "", ClientVersionBuff, 20, "..\\Data\\Other\\commonloc.cfg");

  00011	8b 1d 00 00 00
	00		 mov	 ebx, DWORD PTR __imp__GetPrivateProfileStringA@24
  00017	56		 push	 esi
  00018	8b 75 08	 mov	 esi, DWORD PTR _ClientVersion$[ebp]
  0001b	57		 push	 edi
  0001c	8b 7d 0c	 mov	 edi, DWORD PTR _ClientSerial$[ebp]
  0001f	68 00 00 00 00	 push	 OFFSET ??_C@_0BM@GJEGIJCL@?4?4?2Data?2Other?2commonloc?4cfg?$AA@
  00024	6a 14		 push	 20			; 00000014H
  00026	8d 45 e8	 lea	 eax, DWORD PTR _ClientVersionBuff$[ebp]
  00029	50		 push	 eax
  0002a	68 00 00 00 00	 push	 OFFSET ??_C@_00CNPNBAHC@?$AA@
  0002f	68 00 00 00 00	 push	 OFFSET ??_C@_0BB@FBDFNIJB@ClientExeVersion?$AA@
  00034	68 00 00 00 00	 push	 OFFSET ??_C@_0P@EMJDPFDH@GameServerInfo?$AA@
  00039	ff d3		 call	 ebx

; 44   : 	GetPrivateProfileString("GameServerInfo", "ClientExeSerial", "", ClientSerialBuff, 20, "..\\Data\\Other\\commonloc.cfg");

  0003b	68 00 00 00 00	 push	 OFFSET ??_C@_0BM@GJEGIJCL@?4?4?2Data?2Other?2commonloc?4cfg?$AA@
  00040	6a 14		 push	 20			; 00000014H
  00042	8d 4d d4	 lea	 ecx, DWORD PTR _ClientSerialBuff$[ebp]
  00045	51		 push	 ecx
  00046	68 00 00 00 00	 push	 OFFSET ??_C@_00CNPNBAHC@?$AA@
  0004b	68 00 00 00 00	 push	 OFFSET ??_C@_0BA@JHAHNEJ@ClientExeSerial?$AA@
  00050	68 00 00 00 00	 push	 OFFSET ??_C@_0P@EMJDPFDH@GameServerInfo?$AA@
  00055	ff d3		 call	 ebx

; 45   : 	// ----
; 46   : 	memcpy(ClientVersion, ClientVersionBuff, 20);

  00057	8b 55 e8	 mov	 edx, DWORD PTR _ClientVersionBuff$[ebp]
  0005a	8b 45 ec	 mov	 eax, DWORD PTR _ClientVersionBuff$[ebp+4]
  0005d	8b 4d f0	 mov	 ecx, DWORD PTR _ClientVersionBuff$[ebp+8]
  00060	89 16		 mov	 DWORD PTR [esi], edx
  00062	8b 55 f4	 mov	 edx, DWORD PTR _ClientVersionBuff$[ebp+12]
  00065	89 46 04	 mov	 DWORD PTR [esi+4], eax
  00068	8b 45 f8	 mov	 eax, DWORD PTR _ClientVersionBuff$[ebp+16]
  0006b	89 4e 08	 mov	 DWORD PTR [esi+8], ecx

; 47   : 	memcpy(ClientSerial, ClientSerialBuff, 20);

  0006e	8b 4d d4	 mov	 ecx, DWORD PTR _ClientSerialBuff$[ebp]
  00071	89 56 0c	 mov	 DWORD PTR [esi+12], edx
  00074	8b 55 d8	 mov	 edx, DWORD PTR _ClientSerialBuff$[ebp+4]
  00077	89 46 10	 mov	 DWORD PTR [esi+16], eax
  0007a	8b 45 dc	 mov	 eax, DWORD PTR _ClientSerialBuff$[ebp+8]
  0007d	89 0f		 mov	 DWORD PTR [edi], ecx
  0007f	8b 4d e0	 mov	 ecx, DWORD PTR _ClientSerialBuff$[ebp+12]
  00082	89 57 04	 mov	 DWORD PTR [edi+4], edx
  00085	8b 55 e4	 mov	 edx, DWORD PTR _ClientSerialBuff$[ebp+16]
  00088	89 47 08	 mov	 DWORD PTR [edi+8], eax
  0008b	89 4f 0c	 mov	 DWORD PTR [edi+12], ecx

; 48   : }

  0008e	8b 4d fc	 mov	 ecx, DWORD PTR __$ArrayPad$[ebp]
  00091	89 57 10	 mov	 DWORD PTR [edi+16], edx
  00094	5f		 pop	 edi
  00095	5e		 pop	 esi
  00096	33 cd		 xor	 ecx, ebp
  00098	5b		 pop	 ebx
  00099	e8 00 00 00 00	 call	 @__security_check_cookie@4
  0009e	8b e5		 mov	 esp, ebp
  000a0	5d		 pop	 ebp
  000a1	c2 08 00	 ret	 8
?GetClientVersion@WzAG@@QAEXPAD0@Z ENDP			; WzAG::GetClientVersion
_TEXT	ENDS
PUBLIC	?GetDataBuffer@WzAG@@QAEPADXZ			; WzAG::GetDataBuffer
; Function compile flags: /Ogtp
;	COMDAT ?GetDataBuffer@WzAG@@QAEPADXZ
_TEXT	SEGMENT
?GetDataBuffer@WzAG@@QAEPADXZ PROC			; WzAG::GetDataBuffer, COMDAT
; _this$ = ecx

; 53   : 	return DataBuffer;

  00000	a1 00 00 00 00	 mov	 eax, DWORD PTR ?DataBuffer@@3PADA ; DataBuffer

; 54   : }

  00005	c3		 ret	 0
?GetDataBuffer@WzAG@@QAEPADXZ ENDP			; WzAG::GetDataBuffer
_TEXT	ENDS
PUBLIC	?GetDataBufferSize@WzAG@@QAEHXZ			; WzAG::GetDataBufferSize
; Function compile flags: /Ogtp
;	COMDAT ?GetDataBufferSize@WzAG@@QAEHXZ
_TEXT	SEGMENT
?GetDataBufferSize@WzAG@@QAEHXZ PROC			; WzAG::GetDataBufferSize, COMDAT
; _this$ = ecx

; 59   : 	return DataBufferSize;

  00000	a1 00 00 00 00	 mov	 eax, DWORD PTR ?DataBufferSize@@3KA ; DataBufferSize

; 60   : }

  00005	c3		 ret	 0
?GetDataBufferSize@WzAG@@QAEHXZ ENDP			; WzAG::GetDataBufferSize
_TEXT	ENDS
PUBLIC	?GetKey@WzAG@@QAEXPADHH@Z			; WzAG::GetKey
; Function compile flags: /Ogtp
;	COMDAT ?GetKey@WzAG@@QAEXPADHH@Z
_TEXT	SEGMENT
_Key$ = 8						; size = 4
_StartIndex$ = 12					; size = 4
_Len$ = 16						; size = 4
?GetKey@WzAG@@QAEXPADHH@Z PROC				; WzAG::GetKey, COMDAT
; _this$ = ecx

; 64   : {

  00000	55		 push	 ebp
  00001	8b ec		 mov	 ebp, esp

; 65   : 	memcpy(Key, szServerKey, sizeof(szServerKey));

  00003	8b 0d 00 00 00
	00		 mov	 ecx, DWORD PTR ?szServerKey@@3PAEA
  00009	8b 45 08	 mov	 eax, DWORD PTR _Key$[ebp]
  0000c	89 08		 mov	 DWORD PTR [eax], ecx
  0000e	8b 15 04 00 00
	00		 mov	 edx, DWORD PTR ?szServerKey@@3PAEA+4
  00014	89 50 04	 mov	 DWORD PTR [eax+4], edx
  00017	8b 0d 08 00 00
	00		 mov	 ecx, DWORD PTR ?szServerKey@@3PAEA+8
  0001d	89 48 08	 mov	 DWORD PTR [eax+8], ecx
  00020	8b 15 0c 00 00
	00		 mov	 edx, DWORD PTR ?szServerKey@@3PAEA+12
  00026	89 50 0c	 mov	 DWORD PTR [eax+12], edx
  00029	66 8b 0d 10 00
	00 00		 mov	 cx, WORD PTR ?szServerKey@@3PAEA+16
  00030	66 89 48 10	 mov	 WORD PTR [eax+16], cx
  00034	8a 15 12 00 00
	00		 mov	 dl, BYTE PTR ?szServerKey@@3PAEA+18
  0003a	88 50 12	 mov	 BYTE PTR [eax+18], dl

; 66   : }

  0003d	5d		 pop	 ebp
  0003e	c2 0c 00	 ret	 12			; 0000000cH
?GetKey@WzAG@@QAEXPADHH@Z ENDP				; WzAG::GetKey
_TEXT	ENDS
PUBLIC	?ReleaseData@WzAG@@QAEXXZ			; WzAG::ReleaseData
EXTRN	??_V@YAXPAX@Z:PROC				; operator delete[]
; Function compile flags: /Ogtp
;	COMDAT ?ReleaseData@WzAG@@QAEXXZ
_TEXT	SEGMENT
?ReleaseData@WzAG@@QAEXXZ PROC				; WzAG::ReleaseData, COMDAT
; _this$ = ecx

; 71   : 	delete [] DataBuffer;

  00000	a1 00 00 00 00	 mov	 eax, DWORD PTR ?DataBuffer@@3PADA ; DataBuffer
  00005	50		 push	 eax
  00006	e8 00 00 00 00	 call	 ??_V@YAXPAX@Z		; operator delete[]
  0000b	83 c4 04	 add	 esp, 4

; 72   : 	DataBufferSize = 0;

  0000e	c7 05 00 00 00
	00 00 00 00 00	 mov	 DWORD PTR ?DataBufferSize@@3KA, 0 ; DataBufferSize

; 73   : }

  00018	c3		 ret	 0
?ReleaseData@WzAG@@QAEXXZ ENDP				; WzAG::ReleaseData
_TEXT	ENDS
PUBLIC	??_C@_06JPHCLLC@Error?$CB?$AA@			; `string'
PUBLIC	??_C@_02JDPG@rb?$AA@				; `string'
PUBLIC	??_C@_0BJ@BFLDOHGO@?4?4?2data?2Shops?2Shop19?4txt?$AA@ ; `string'
PUBLIC	??_C@_0BJ@NOOPDEML@?4?4?2data?2Shops?2Shop18?4txt?$AA@ ; `string'
PUBLIC	??_C@_0BJ@CPLJIGBO@?4?4?2data?2Shops?2Shop17?4txt?$AA@ ; `string'
PUBLIC	??_C@_0BJ@OEOFFFLL@?4?4?2data?2Shops?2Shop16?4txt?$AA@ ; `string'
PUBLIC	??_C@_0BJ@GCHBCHBF@?4?4?2data?2Shops?2Shop15?4txt?$AA@ ; `string'
PUBLIC	??_C@_0BJ@KJCNPELA@?4?4?2data?2Shops?2Shop14?4txt?$AA@ ; `string'
PUBLIC	??_C@_0BJ@LECIMEAI@?4?4?2data?2Shops?2Shop13?4txt?$AA@ ; `string'
PUBLIC	??_C@_0BO@FDENOPBB@?4?4?2Data?2Items?2ItemSetType?4txt?$AA@ ; `string'
PUBLIC	??_C@_0CA@PODOEDPD@?4?4?2Data?2Items?2ItemSetOption?4txt?$AA@ ; `string'
PUBLIC	??_C@_0BE@HLAIMECE@?4?4?2Data?2MoveReq?4txt?$AA@ ; `string'
PUBLIC	??_C@_0BJ@HPHEBHKN@?4?4?2data?2Shops?2Shop12?4txt?$AA@ ; `string'
PUBLIC	??_C@_0BJ@PJOAGFAD@?4?4?2data?2Shops?2Shop11?4txt?$AA@ ; `string'
PUBLIC	??_C@_0BJ@DCLMLGKG@?4?4?2data?2Shops?2Shop10?4txt?$AA@ ; `string'
PUBLIC	??_C@_0BI@BCOACCJ@?4?4?2data?2Shops?2Shop9?4txt?$AA@ ; `string'
PUBLIC	??_C@_0BI@MKHCNBIM@?4?4?2data?2Shops?2Shop8?4txt?$AA@ ; `string'
PUBLIC	??_C@_0BI@DLCEGDFJ@?4?4?2data?2Shops?2Shop7?4txt?$AA@ ; `string'
PUBLIC	??_C@_0BI@PAHILAPM@?4?4?2data?2Shops?2Shop6?4txt?$AA@ ; `string'
PUBLIC	??_C@_0BI@HGOMMCFC@?4?4?2data?2Shops?2Shop5?4txt?$AA@ ; `string'
PUBLIC	??_C@_0BI@LNLABBPH@?4?4?2data?2Shops?2Shop4?4txt?$AA@ ; `string'
PUBLIC	??_C@_0BI@KALFCBEP@?4?4?2data?2Shops?2Shop3?4txt?$AA@ ; `string'
PUBLIC	??_C@_0BI@GLOJPCOK@?4?4?2data?2Shops?2Shop2?4txt?$AA@ ; `string'
PUBLIC	??_C@_0BI@ONHNIAEE@?4?4?2data?2Shops?2Shop1?4txt?$AA@ ; `string'
PUBLIC	??_C@_0BI@CGCBFDOB@?4?4?2data?2Shops?2Shop0?4txt?$AA@ ; `string'
PUBLIC	??_C@_0CE@LNFJNEBB@?4?4?2Data?2Monsters?2MonsterSetBase?4@ ; `string'
PUBLIC	??_C@_0BB@FGLJGNCE@?4?4?2Data?2Gate?4txt?$AA@	; `string'
PUBLIC	??_C@_0BN@JDJPJJNO@?4?4?2Data?2Monsters?2Monster?4txt?$AA@ ; `string'
PUBLIC	??_C@_0BL@CDGBLNEO@?4?4?2Data?2Other?2CheckSum?4dat?$AA@ ; `string'
PUBLIC	??_C@_0BC@IEPPCBPK@?4?4?2Data?2Quest?4txt?$AA@	; `string'
PUBLIC	??_C@_0BJ@DJGILM@?4?4?2Data?2Skills?2Skill?4txt?$AA@ ; `string'
PUBLIC	??_C@_0BH@KFDILPPP@?4?4?2Data?2Items?2Item?4txt?$AA@ ; `string'
PUBLIC	?RequestData@WzAG@@QAEXH@Z			; WzAG::RequestData
EXTRN	_fclose:PROC
EXTRN	_fread:PROC
EXTRN	??_U@YAPAXI@Z:PROC				; operator new[]
EXTRN	_ftell:PROC
EXTRN	_fseek:PROC
EXTRN	__imp__ExitProcess@4:PROC
EXTRN	__imp__MessageBoxA@16:PROC
EXTRN	_fopen:PROC
;	COMDAT ??_C@_06JPHCLLC@Error?$CB?$AA@
CONST	SEGMENT
??_C@_06JPHCLLC@Error?$CB?$AA@ DB 'Error!', 00H		; `string'
CONST	ENDS
;	COMDAT ??_C@_02JDPG@rb?$AA@
CONST	SEGMENT
??_C@_02JDPG@rb?$AA@ DB 'rb', 00H			; `string'
CONST	ENDS
;	COMDAT ??_C@_0BJ@BFLDOHGO@?4?4?2data?2Shops?2Shop19?4txt?$AA@
CONST	SEGMENT
??_C@_0BJ@BFLDOHGO@?4?4?2data?2Shops?2Shop19?4txt?$AA@ DB '..\data\Shops\'
	DB	'Shop19.txt', 00H				; `string'
CONST	ENDS
;	COMDAT ??_C@_0BJ@NOOPDEML@?4?4?2data?2Shops?2Shop18?4txt?$AA@
CONST	SEGMENT
??_C@_0BJ@NOOPDEML@?4?4?2data?2Shops?2Shop18?4txt?$AA@ DB '..\data\Shops\'
	DB	'Shop18.txt', 00H				; `string'
CONST	ENDS
;	COMDAT ??_C@_0BJ@CPLJIGBO@?4?4?2data?2Shops?2Shop17?4txt?$AA@
CONST	SEGMENT
??_C@_0BJ@CPLJIGBO@?4?4?2data?2Shops?2Shop17?4txt?$AA@ DB '..\data\Shops\'
	DB	'Shop17.txt', 00H				; `string'
CONST	ENDS
;	COMDAT ??_C@_0BJ@OEOFFFLL@?4?4?2data?2Shops?2Shop16?4txt?$AA@
CONST	SEGMENT
??_C@_0BJ@OEOFFFLL@?4?4?2data?2Shops?2Shop16?4txt?$AA@ DB '..\data\Shops\'
	DB	'Shop16.txt', 00H				; `string'
CONST	ENDS
;	COMDAT ??_C@_0BJ@GCHBCHBF@?4?4?2data?2Shops?2Shop15?4txt?$AA@
CONST	SEGMENT
??_C@_0BJ@GCHBCHBF@?4?4?2data?2Shops?2Shop15?4txt?$AA@ DB '..\data\Shops\'
	DB	'Shop15.txt', 00H				; `string'
CONST	ENDS
;	COMDAT ??_C@_0BJ@KJCNPELA@?4?4?2data?2Shops?2Shop14?4txt?$AA@
CONST	SEGMENT
??_C@_0BJ@KJCNPELA@?4?4?2data?2Shops?2Shop14?4txt?$AA@ DB '..\data\Shops\'
	DB	'Shop14.txt', 00H				; `string'
CONST	ENDS
;	COMDAT ??_C@_0BJ@LECIMEAI@?4?4?2data?2Shops?2Shop13?4txt?$AA@
CONST	SEGMENT
??_C@_0BJ@LECIMEAI@?4?4?2data?2Shops?2Shop13?4txt?$AA@ DB '..\data\Shops\'
	DB	'Shop13.txt', 00H				; `string'
CONST	ENDS
;	COMDAT ??_C@_0BO@FDENOPBB@?4?4?2Data?2Items?2ItemSetType?4txt?$AA@
CONST	SEGMENT
??_C@_0BO@FDENOPBB@?4?4?2Data?2Items?2ItemSetType?4txt?$AA@ DB '..\Data\I'
	DB	'tems\ItemSetType.txt', 00H			; `string'
CONST	ENDS
;	COMDAT ??_C@_0CA@PODOEDPD@?4?4?2Data?2Items?2ItemSetOption?4txt?$AA@
CONST	SEGMENT
??_C@_0CA@PODOEDPD@?4?4?2Data?2Items?2ItemSetOption?4txt?$AA@ DB '..\Data'
	DB	'\Items\ItemSetOption.txt', 00H		; `string'
CONST	ENDS
;	COMDAT ??_C@_0BE@HLAIMECE@?4?4?2Data?2MoveReq?4txt?$AA@
CONST	SEGMENT
??_C@_0BE@HLAIMECE@?4?4?2Data?2MoveReq?4txt?$AA@ DB '..\Data\MoveReq.txt', 00H ; `string'
CONST	ENDS
;	COMDAT ??_C@_0BJ@HPHEBHKN@?4?4?2data?2Shops?2Shop12?4txt?$AA@
CONST	SEGMENT
??_C@_0BJ@HPHEBHKN@?4?4?2data?2Shops?2Shop12?4txt?$AA@ DB '..\data\Shops\'
	DB	'Shop12.txt', 00H				; `string'
CONST	ENDS
;	COMDAT ??_C@_0BJ@PJOAGFAD@?4?4?2data?2Shops?2Shop11?4txt?$AA@
CONST	SEGMENT
??_C@_0BJ@PJOAGFAD@?4?4?2data?2Shops?2Shop11?4txt?$AA@ DB '..\data\Shops\'
	DB	'Shop11.txt', 00H				; `string'
CONST	ENDS
;	COMDAT ??_C@_0BJ@DCLMLGKG@?4?4?2data?2Shops?2Shop10?4txt?$AA@
CONST	SEGMENT
??_C@_0BJ@DCLMLGKG@?4?4?2data?2Shops?2Shop10?4txt?$AA@ DB '..\data\Shops\'
	DB	'Shop10.txt', 00H				; `string'
CONST	ENDS
;	COMDAT ??_C@_0BI@BCOACCJ@?4?4?2data?2Shops?2Shop9?4txt?$AA@
CONST	SEGMENT
??_C@_0BI@BCOACCJ@?4?4?2data?2Shops?2Shop9?4txt?$AA@ DB '..\data\Shops\Sh'
	DB	'op9.txt', 00H				; `string'
CONST	ENDS
;	COMDAT ??_C@_0BI@MKHCNBIM@?4?4?2data?2Shops?2Shop8?4txt?$AA@
CONST	SEGMENT
??_C@_0BI@MKHCNBIM@?4?4?2data?2Shops?2Shop8?4txt?$AA@ DB '..\data\Shops\S'
	DB	'hop8.txt', 00H				; `string'
CONST	ENDS
;	COMDAT ??_C@_0BI@DLCEGDFJ@?4?4?2data?2Shops?2Shop7?4txt?$AA@
CONST	SEGMENT
??_C@_0BI@DLCEGDFJ@?4?4?2data?2Shops?2Shop7?4txt?$AA@ DB '..\data\Shops\S'
	DB	'hop7.txt', 00H				; `string'
CONST	ENDS
;	COMDAT ??_C@_0BI@PAHILAPM@?4?4?2data?2Shops?2Shop6?4txt?$AA@
CONST	SEGMENT
??_C@_0BI@PAHILAPM@?4?4?2data?2Shops?2Shop6?4txt?$AA@ DB '..\data\Shops\S'
	DB	'hop6.txt', 00H				; `string'
CONST	ENDS
;	COMDAT ??_C@_0BI@HGOMMCFC@?4?4?2data?2Shops?2Shop5?4txt?$AA@
CONST	SEGMENT
??_C@_0BI@HGOMMCFC@?4?4?2data?2Shops?2Shop5?4txt?$AA@ DB '..\data\Shops\S'
	DB	'hop5.txt', 00H				; `string'
CONST	ENDS
;	COMDAT ??_C@_0BI@LNLABBPH@?4?4?2data?2Shops?2Shop4?4txt?$AA@
CONST	SEGMENT
??_C@_0BI@LNLABBPH@?4?4?2data?2Shops?2Shop4?4txt?$AA@ DB '..\data\Shops\S'
	DB	'hop4.txt', 00H				; `string'
CONST	ENDS
;	COMDAT ??_C@_0BI@KALFCBEP@?4?4?2data?2Shops?2Shop3?4txt?$AA@
CONST	SEGMENT
??_C@_0BI@KALFCBEP@?4?4?2data?2Shops?2Shop3?4txt?$AA@ DB '..\data\Shops\S'
	DB	'hop3.txt', 00H				; `string'
CONST	ENDS
;	COMDAT ??_C@_0BI@GLOJPCOK@?4?4?2data?2Shops?2Shop2?4txt?$AA@
CONST	SEGMENT
??_C@_0BI@GLOJPCOK@?4?4?2data?2Shops?2Shop2?4txt?$AA@ DB '..\data\Shops\S'
	DB	'hop2.txt', 00H				; `string'
CONST	ENDS
;	COMDAT ??_C@_0BI@ONHNIAEE@?4?4?2data?2Shops?2Shop1?4txt?$AA@
CONST	SEGMENT
??_C@_0BI@ONHNIAEE@?4?4?2data?2Shops?2Shop1?4txt?$AA@ DB '..\data\Shops\S'
	DB	'hop1.txt', 00H				; `string'
CONST	ENDS
;	COMDAT ??_C@_0BI@CGCBFDOB@?4?4?2data?2Shops?2Shop0?4txt?$AA@
CONST	SEGMENT
??_C@_0BI@CGCBFDOB@?4?4?2data?2Shops?2Shop0?4txt?$AA@ DB '..\data\Shops\S'
	DB	'hop0.txt', 00H				; `string'
CONST	ENDS
;	COMDAT ??_C@_0CE@LNFJNEBB@?4?4?2Data?2Monsters?2MonsterSetBase?4@
CONST	SEGMENT
??_C@_0CE@LNFJNEBB@?4?4?2Data?2Monsters?2MonsterSetBase?4@ DB '..\Data\Mo'
	DB	'nsters\MonsterSetBase.txt', 00H		; `string'
CONST	ENDS
;	COMDAT ??_C@_0BB@FGLJGNCE@?4?4?2Data?2Gate?4txt?$AA@
CONST	SEGMENT
??_C@_0BB@FGLJGNCE@?4?4?2Data?2Gate?4txt?$AA@ DB '..\Data\Gate.txt', 00H ; `string'
CONST	ENDS
;	COMDAT ??_C@_0BN@JDJPJJNO@?4?4?2Data?2Monsters?2Monster?4txt?$AA@
CONST	SEGMENT
??_C@_0BN@JDJPJJNO@?4?4?2Data?2Monsters?2Monster?4txt?$AA@ DB '..\Data\Mo'
	DB	'nsters\Monster.txt', 00H			; `string'
CONST	ENDS
;	COMDAT ??_C@_0BL@CDGBLNEO@?4?4?2Data?2Other?2CheckSum?4dat?$AA@
CONST	SEGMENT
??_C@_0BL@CDGBLNEO@?4?4?2Data?2Other?2CheckSum?4dat?$AA@ DB '..\Data\Othe'
	DB	'r\CheckSum.dat', 00H			; `string'
CONST	ENDS
;	COMDAT ??_C@_0BC@IEPPCBPK@?4?4?2Data?2Quest?4txt?$AA@
CONST	SEGMENT
??_C@_0BC@IEPPCBPK@?4?4?2Data?2Quest?4txt?$AA@ DB '..\Data\Quest.txt', 00H ; `string'
CONST	ENDS
;	COMDAT ??_C@_0BJ@DJGILM@?4?4?2Data?2Skills?2Skill?4txt?$AA@
CONST	SEGMENT
??_C@_0BJ@DJGILM@?4?4?2Data?2Skills?2Skill?4txt?$AA@ DB '..\Data\Skills\S'
	DB	'kill.txt', 00H				; `string'
CONST	ENDS
;	COMDAT ??_C@_0BH@KFDILPPP@?4?4?2Data?2Items?2Item?4txt?$AA@
CONST	SEGMENT
??_C@_0BH@KFDILPPP@?4?4?2Data?2Items?2Item?4txt?$AA@ DB '..\Data\Items\It'
	DB	'em.txt', 00H				; `string'
; Function compile flags: /Ogtp
CONST	ENDS
;	COMDAT ?RequestData@WzAG@@QAEXH@Z
_TEXT	SEGMENT
_Type$ = 8						; size = 4
?RequestData@WzAG@@QAEXH@Z PROC				; WzAG::RequestData, COMDAT
; _this$ = ecx

; 77   : {

  00000	55		 push	 ebp
  00001	8b ec		 mov	 ebp, esp

; 78   : 	const char *v2; // esi@1
; 79   : 	FILE *v3; // eax@38
; 80   : 	int result; // eax@40
; 81   : 
; 82   : 	v2 = 0;
; 83   : 	switch ( Type )

  00003	8b 45 08	 mov	 eax, DWORD PTR _Type$[ebp]
  00006	56		 push	 esi
  00007	33 f6		 xor	 esi, esi
  00009	57		 push	 edi
  0000a	83 f8 24	 cmp	 eax, 36			; 00000024H
  0000d	0f 87 f8 00 00
	00		 ja	 $LN41@RequestDat
  00013	ff 24 85 00 00
	00 00		 jmp	 DWORD PTR $LN47@RequestDat[eax*4]
$LN40@RequestDat:

; 84   : 	{
; 85   : 	case 0:
; 86   : 		v2 = "..\\Data\\Items\\Item.txt";

  0001a	be 00 00 00 00	 mov	 esi, OFFSET ??_C@_0BH@KFDILPPP@?4?4?2Data?2Items?2Item?4txt?$AA@

; 87   : 		break;

  0001f	e9 e7 00 00 00	 jmp	 $LN41@RequestDat
$LN38@RequestDat:

; 88   : 	case 1:
; 89   : 		v2 = "..\\Data\\Items\\Item.txt";
; 90   : 		break;
; 91   : 	case 2:
; 92   : 		v2 = "..\\Data\\Skills\\Skill.txt";

  00024	be 00 00 00 00	 mov	 esi, OFFSET ??_C@_0BJ@DJGILM@?4?4?2Data?2Skills?2Skill?4txt?$AA@

; 93   : 		break;

  00029	e9 dd 00 00 00	 jmp	 $LN41@RequestDat
$LN36@RequestDat:

; 94   : 	case 3:
; 95   : 		v2 = "..\\Data\\Skills\\Skill.txt";
; 96   : 		break;
; 97   : 	case 4:
; 98   : 		v2 = "..\\Data\\Quest.txt";

  0002e	be 00 00 00 00	 mov	 esi, OFFSET ??_C@_0BC@IEPPCBPK@?4?4?2Data?2Quest?4txt?$AA@

; 99   : 		break;

  00033	e9 d3 00 00 00	 jmp	 $LN41@RequestDat
$LN34@RequestDat:

; 100  : 	case 5:
; 101  : 		v2 = "..\\Data\\Quest.txt";
; 102  : 		break;
; 103  : 	case 6:
; 104  : 		v2 = "..\\Data\\Other\\CheckSum.dat";

  00038	be 00 00 00 00	 mov	 esi, OFFSET ??_C@_0BL@CDGBLNEO@?4?4?2Data?2Other?2CheckSum?4dat?$AA@

; 105  : 		break;

  0003d	e9 c9 00 00 00	 jmp	 $LN41@RequestDat
$LN33@RequestDat:

; 106  : 	case 7:
; 107  : 		v2 = "..\\Data\\Monsters\\Monster.txt";

  00042	be 00 00 00 00	 mov	 esi, OFFSET ??_C@_0BN@JDJPJJNO@?4?4?2Data?2Monsters?2Monster?4txt?$AA@

; 108  : 		break;

  00047	e9 bf 00 00 00	 jmp	 $LN41@RequestDat
$LN32@RequestDat:

; 109  : 	case 8:
; 110  : 		v2 = "..\\Data\\Gate.txt";

  0004c	be 00 00 00 00	 mov	 esi, OFFSET ??_C@_0BB@FGLJGNCE@?4?4?2Data?2Gate?4txt?$AA@

; 111  : 		break;

  00051	e9 b5 00 00 00	 jmp	 $LN41@RequestDat
$LN31@RequestDat:

; 112  : 	case 9:
; 113  : 		v2 = "..\\Data\\Monsters\\MonsterSetBase.txt";

  00056	be 00 00 00 00	 mov	 esi, OFFSET ??_C@_0CE@LNFJNEBB@?4?4?2Data?2Monsters?2MonsterSetBase?4@

; 114  : 		break;

  0005b	e9 ab 00 00 00	 jmp	 $LN41@RequestDat
$LN30@RequestDat:

; 115  : 	case 11:
; 116  : 		v2 = "..\\data\\Shops\\Shop0.txt";

  00060	be 00 00 00 00	 mov	 esi, OFFSET ??_C@_0BI@CGCBFDOB@?4?4?2data?2Shops?2Shop0?4txt?$AA@

; 117  : 		break;

  00065	e9 a1 00 00 00	 jmp	 $LN41@RequestDat
$LN29@RequestDat:

; 118  : 	case 12:
; 119  : 		v2 = "..\\data\\Shops\\Shop1.txt";

  0006a	be 00 00 00 00	 mov	 esi, OFFSET ??_C@_0BI@ONHNIAEE@?4?4?2data?2Shops?2Shop1?4txt?$AA@

; 120  : 		break;

  0006f	e9 97 00 00 00	 jmp	 $LN41@RequestDat
$LN28@RequestDat:

; 121  : 	case 13:
; 122  : 		v2 = "..\\data\\Shops\\Shop2.txt";

  00074	be 00 00 00 00	 mov	 esi, OFFSET ??_C@_0BI@GLOJPCOK@?4?4?2data?2Shops?2Shop2?4txt?$AA@

; 123  : 		break;

  00079	e9 8d 00 00 00	 jmp	 $LN41@RequestDat
$LN27@RequestDat:

; 124  : 	case 14:
; 125  : 		v2 = "..\\data\\Shops\\Shop3.txt";

  0007e	be 00 00 00 00	 mov	 esi, OFFSET ??_C@_0BI@KALFCBEP@?4?4?2data?2Shops?2Shop3?4txt?$AA@

; 126  : 		break;

  00083	e9 83 00 00 00	 jmp	 $LN41@RequestDat
$LN26@RequestDat:

; 127  : 	case 15:
; 128  : 		v2 = "..\\data\\Shops\\Shop4.txt";

  00088	be 00 00 00 00	 mov	 esi, OFFSET ??_C@_0BI@LNLABBPH@?4?4?2data?2Shops?2Shop4?4txt?$AA@

; 129  : 		break;

  0008d	eb 7c		 jmp	 SHORT $LN41@RequestDat
$LN25@RequestDat:

; 130  : 	case 16:
; 131  : 		v2 = "..\\data\\Shops\\Shop5.txt";

  0008f	be 00 00 00 00	 mov	 esi, OFFSET ??_C@_0BI@HGOMMCFC@?4?4?2data?2Shops?2Shop5?4txt?$AA@

; 132  : 		break;

  00094	eb 75		 jmp	 SHORT $LN41@RequestDat
$LN24@RequestDat:

; 133  : 	case 17:
; 134  : 		v2 = "..\\data\\Shops\\Shop6.txt";

  00096	be 00 00 00 00	 mov	 esi, OFFSET ??_C@_0BI@PAHILAPM@?4?4?2data?2Shops?2Shop6?4txt?$AA@

; 135  : 		break;

  0009b	eb 6e		 jmp	 SHORT $LN41@RequestDat
$LN23@RequestDat:

; 136  : 	case 18:
; 137  : 		v2 = "..\\data\\Shops\\Shop7.txt";

  0009d	be 00 00 00 00	 mov	 esi, OFFSET ??_C@_0BI@DLCEGDFJ@?4?4?2data?2Shops?2Shop7?4txt?$AA@

; 138  : 		break;

  000a2	eb 67		 jmp	 SHORT $LN41@RequestDat
$LN22@RequestDat:

; 139  : 	case 19:
; 140  : 		v2 = "..\\data\\Shops\\Shop8.txt";

  000a4	be 00 00 00 00	 mov	 esi, OFFSET ??_C@_0BI@MKHCNBIM@?4?4?2data?2Shops?2Shop8?4txt?$AA@

; 141  : 		break;

  000a9	eb 60		 jmp	 SHORT $LN41@RequestDat
$LN21@RequestDat:

; 142  : 	case 20:
; 143  : 		v2 = "..\\data\\Shops\\Shop9.txt";

  000ab	be 00 00 00 00	 mov	 esi, OFFSET ??_C@_0BI@BCOACCJ@?4?4?2data?2Shops?2Shop9?4txt?$AA@

; 144  : 		break;

  000b0	eb 59		 jmp	 SHORT $LN41@RequestDat
$LN20@RequestDat:

; 145  : 	case 21:
; 146  : 		v2 = "..\\data\\Shops\\Shop10.txt";

  000b2	be 00 00 00 00	 mov	 esi, OFFSET ??_C@_0BJ@DCLMLGKG@?4?4?2data?2Shops?2Shop10?4txt?$AA@

; 147  : 		break;

  000b7	eb 52		 jmp	 SHORT $LN41@RequestDat
$LN19@RequestDat:

; 148  : 	case 22:
; 149  : 		v2 = "..\\data\\Shops\\Shop11.txt";

  000b9	be 00 00 00 00	 mov	 esi, OFFSET ??_C@_0BJ@PJOAGFAD@?4?4?2data?2Shops?2Shop11?4txt?$AA@

; 150  : 		break;

  000be	eb 4b		 jmp	 SHORT $LN41@RequestDat
$LN18@RequestDat:

; 151  : 	case 23:
; 152  : 		v2 = "..\\data\\Shops\\Shop12.txt";

  000c0	be 00 00 00 00	 mov	 esi, OFFSET ??_C@_0BJ@HPHEBHKN@?4?4?2data?2Shops?2Shop12?4txt?$AA@

; 153  : 		break;

  000c5	eb 44		 jmp	 SHORT $LN41@RequestDat
$LN17@RequestDat:

; 154  : 	case 24:
; 155  : 		v2 = "..\\Data\\MoveReq.txt";

  000c7	be 00 00 00 00	 mov	 esi, OFFSET ??_C@_0BE@HLAIMECE@?4?4?2Data?2MoveReq?4txt?$AA@

; 156  : 		break;

  000cc	eb 3d		 jmp	 SHORT $LN41@RequestDat
$LN15@RequestDat:

; 157  : 	case 25:
; 158  : 		v2 = "..\\Data\\MoveReq.txt";
; 159  : 		break;
; 160  : 	case 26:
; 161  : 		v2 = "..\\Data\\Items\\ItemSetOption.txt";

  000ce	be 00 00 00 00	 mov	 esi, OFFSET ??_C@_0CA@PODOEDPD@?4?4?2Data?2Items?2ItemSetOption?4txt?$AA@

; 162  : 		break;

  000d3	eb 36		 jmp	 SHORT $LN41@RequestDat
$LN13@RequestDat:

; 163  : 	case 27:
; 164  : 		v2 = "..\\Data\\Items\\ItemSetOption.txt";
; 165  : 		break;
; 166  : 	case 28:
; 167  : 		v2 = "..\\Data\\Items\\ItemSetType.txt";

  000d5	be 00 00 00 00	 mov	 esi, OFFSET ??_C@_0BO@FDENOPBB@?4?4?2Data?2Items?2ItemSetType?4txt?$AA@

; 168  : 		break;

  000da	eb 2f		 jmp	 SHORT $LN41@RequestDat
$LN11@RequestDat:

; 169  : 	case 29:
; 170  : 		v2 = "..\\Data\\Items\\ItemSetType.txt";
; 171  : 		break;
; 172  : 	case 30:
; 173  : 		v2 = "..\\data\\Shops\\Shop13.txt";

  000dc	be 00 00 00 00	 mov	 esi, OFFSET ??_C@_0BJ@LECIMEAI@?4?4?2data?2Shops?2Shop13?4txt?$AA@

; 174  : 		break;

  000e1	eb 28		 jmp	 SHORT $LN41@RequestDat
$LN10@RequestDat:

; 175  : 	case 31:
; 176  : 		v2 = "..\\data\\Shops\\Shop14.txt";

  000e3	be 00 00 00 00	 mov	 esi, OFFSET ??_C@_0BJ@KJCNPELA@?4?4?2data?2Shops?2Shop14?4txt?$AA@

; 177  : 		break;

  000e8	eb 21		 jmp	 SHORT $LN41@RequestDat
$LN9@RequestDat:

; 178  : 	case 32:
; 179  : 		v2 = "..\\data\\Shops\\Shop15.txt";

  000ea	be 00 00 00 00	 mov	 esi, OFFSET ??_C@_0BJ@GCHBCHBF@?4?4?2data?2Shops?2Shop15?4txt?$AA@

; 180  : 		break;

  000ef	eb 1a		 jmp	 SHORT $LN41@RequestDat
$LN8@RequestDat:

; 181  : 	case 33:
; 182  : 		v2 = "..\\data\\Shops\\Shop16.txt";

  000f1	be 00 00 00 00	 mov	 esi, OFFSET ??_C@_0BJ@OEOFFFLL@?4?4?2data?2Shops?2Shop16?4txt?$AA@

; 183  : 		break;

  000f6	eb 13		 jmp	 SHORT $LN41@RequestDat
$LN7@RequestDat:

; 184  : 	case 34:
; 185  : 		v2 = "..\\data\\Shops\\Shop17.txt";

  000f8	be 00 00 00 00	 mov	 esi, OFFSET ??_C@_0BJ@CPLJIGBO@?4?4?2data?2Shops?2Shop17?4txt?$AA@

; 186  : 		break;

  000fd	eb 0c		 jmp	 SHORT $LN41@RequestDat
$LN6@RequestDat:

; 187  : 	case 35:
; 188  : 		v2 = "..\\data\\Shops\\Shop18.txt";

  000ff	be 00 00 00 00	 mov	 esi, OFFSET ??_C@_0BJ@NOOPDEML@?4?4?2data?2Shops?2Shop18?4txt?$AA@

; 189  : 		break;

  00104	eb 05		 jmp	 SHORT $LN41@RequestDat
$LN5@RequestDat:

; 190  : 	case 36:
; 191  : 		v2 = "..\\data\\Shops\\Shop19.txt";

  00106	be 00 00 00 00	 mov	 esi, OFFSET ??_C@_0BJ@BFLDOHGO@?4?4?2data?2Shops?2Shop19?4txt?$AA@
$LN41@RequestDat:

; 192  : 		break;
; 193  : 	case 10:
; 194  : 		break;
; 195  : 	}
; 196  : 	v3 = fopen(v2, "rb");	//ok

  0010b	68 00 00 00 00	 push	 OFFSET ??_C@_02JDPG@rb?$AA@
  00110	56		 push	 esi
  00111	e8 00 00 00 00	 call	 _fopen
  00116	8b f8		 mov	 edi, eax
  00118	83 c4 08	 add	 esp, 8

; 197  : 	FILE * File = v3;
; 198  : 	if ( !v3 )

  0011b	85 ff		 test	 edi, edi
  0011d	75 17		 jne	 SHORT $LN3@RequestDat

; 199  : 	{
; 200  : 		MessageBoxA(0, v2, "Error!", 0);

  0011f	50		 push	 eax
$LN46@RequestDat:
  00120	68 00 00 00 00	 push	 OFFSET ??_C@_06JPHCLLC@Error?$CB?$AA@
  00125	56		 push	 esi
  00126	6a 00		 push	 0
  00128	ff 15 00 00 00
	00		 call	 DWORD PTR __imp__MessageBoxA@16

; 201  : 		ExitProcess(0);

  0012e	6a 00		 push	 0
  00130	ff 15 00 00 00
	00		 call	 DWORD PTR __imp__ExitProcess@4
$LN48@RequestDat:
$LN3@RequestDat:

; 202  : 	}
; 203  : 	fseek(v3, 0, 2);

  00136	6a 02		 push	 2
  00138	6a 00		 push	 0
  0013a	57		 push	 edi
  0013b	e8 00 00 00 00	 call	 _fseek

; 204  : 	DataBufferSize = ftell(File);

  00140	57		 push	 edi
  00141	e8 00 00 00 00	 call	 _ftell
  00146	83 c4 10	 add	 esp, 16			; 00000010H
  00149	a3 00 00 00 00	 mov	 DWORD PTR ?DataBufferSize@@3KA, eax ; DataBufferSize

; 205  : 	if ( !DataBufferSize )
; 206  : 	{
; 207  : 		MessageBoxA(0, v2, "Error!", 0);

  0014e	6a 00		 push	 0
  00150	85 c0		 test	 eax, eax

; 208  : 		ExitProcess(0);

  00152	74 cc		 je	 SHORT $LN46@RequestDat

; 209  : 	}
; 210  : 	fseek(File, 0, 0);

  00154	6a 00		 push	 0
  00156	57		 push	 edi
  00157	e8 00 00 00 00	 call	 _fseek

; 211  : 	if( DataBuffer != NULL )

  0015c	a1 00 00 00 00	 mov	 eax, DWORD PTR ?DataBuffer@@3PADA ; DataBuffer
  00161	83 c4 0c	 add	 esp, 12			; 0000000cH
  00164	85 c0		 test	 eax, eax
  00166	74 09		 je	 SHORT $LN1@RequestDat

; 212  : 	{
; 213  : 		delete[] DataBuffer;

  00168	50		 push	 eax
  00169	e8 00 00 00 00	 call	 ??_V@YAXPAX@Z		; operator delete[]
  0016e	83 c4 04	 add	 esp, 4
$LN1@RequestDat:

; 214  : 	}
; 215  : 	DataBuffer = new char[DataBufferSize + 1];

  00171	a1 00 00 00 00	 mov	 eax, DWORD PTR ?DataBufferSize@@3KA ; DataBufferSize
  00176	40		 inc	 eax
  00177	50		 push	 eax
  00178	e8 00 00 00 00	 call	 ??_U@YAPAXI@Z		; operator new[]

; 216  : 	// ----
; 217  : 	fread((void *)DataBuffer, DataBufferSize, 1, File);

  0017d	8b 0d 00 00 00
	00		 mov	 ecx, DWORD PTR ?DataBufferSize@@3KA ; DataBufferSize
  00183	57		 push	 edi
  00184	6a 01		 push	 1
  00186	51		 push	 ecx
  00187	50		 push	 eax
  00188	a3 00 00 00 00	 mov	 DWORD PTR ?DataBuffer@@3PADA, eax ; DataBuffer
  0018d	e8 00 00 00 00	 call	 _fread

; 218  : 	fclose(File);

  00192	57		 push	 edi
  00193	e8 00 00 00 00	 call	 _fclose
  00198	83 c4 18	 add	 esp, 24			; 00000018H
  0019b	5f		 pop	 edi
  0019c	5e		 pop	 esi

; 219  : }

  0019d	5d		 pop	 ebp
  0019e	c2 04 00	 ret	 4
$LN45@RequestDat:
  001a1	8d 49 00	 npad	 3
$LN47@RequestDat:
  001a4	00 00 00 00	 DD	 $LN40@RequestDat
  001a8	00 00 00 00	 DD	 $LN40@RequestDat
  001ac	00 00 00 00	 DD	 $LN38@RequestDat
  001b0	00 00 00 00	 DD	 $LN38@RequestDat
  001b4	00 00 00 00	 DD	 $LN36@RequestDat
  001b8	00 00 00 00	 DD	 $LN36@RequestDat
  001bc	00 00 00 00	 DD	 $LN34@RequestDat
  001c0	00 00 00 00	 DD	 $LN33@RequestDat
  001c4	00 00 00 00	 DD	 $LN32@RequestDat
  001c8	00 00 00 00	 DD	 $LN31@RequestDat
  001cc	00 00 00 00	 DD	 $LN41@RequestDat
  001d0	00 00 00 00	 DD	 $LN30@RequestDat
  001d4	00 00 00 00	 DD	 $LN29@RequestDat
  001d8	00 00 00 00	 DD	 $LN28@RequestDat
  001dc	00 00 00 00	 DD	 $LN27@RequestDat
  001e0	00 00 00 00	 DD	 $LN26@RequestDat
  001e4	00 00 00 00	 DD	 $LN25@RequestDat
  001e8	00 00 00 00	 DD	 $LN24@RequestDat
  001ec	00 00 00 00	 DD	 $LN23@RequestDat
  001f0	00 00 00 00	 DD	 $LN22@RequestDat
  001f4	00 00 00 00	 DD	 $LN21@RequestDat
  001f8	00 00 00 00	 DD	 $LN20@RequestDat
  001fc	00 00 00 00	 DD	 $LN19@RequestDat
  00200	00 00 00 00	 DD	 $LN18@RequestDat
  00204	00 00 00 00	 DD	 $LN17@RequestDat
  00208	00 00 00 00	 DD	 $LN17@RequestDat
  0020c	00 00 00 00	 DD	 $LN15@RequestDat
  00210	00 00 00 00	 DD	 $LN15@RequestDat
  00214	00 00 00 00	 DD	 $LN13@RequestDat
  00218	00 00 00 00	 DD	 $LN13@RequestDat
  0021c	00 00 00 00	 DD	 $LN11@RequestDat
  00220	00 00 00 00	 DD	 $LN10@RequestDat
  00224	00 00 00 00	 DD	 $LN9@RequestDat
  00228	00 00 00 00	 DD	 $LN8@RequestDat
  0022c	00 00 00 00	 DD	 $LN7@RequestDat
  00230	00 00 00 00	 DD	 $LN6@RequestDat
  00234	00 00 00 00	 DD	 $LN5@RequestDat
?RequestData@WzAG@@QAEXH@Z ENDP				; WzAG::RequestData
_TEXT	ENDS
PUBLIC	?SetInfo@WzAG@@QAE_NHEFPAD0HP6AXHH@Z@Z		; WzAG::SetInfo
; Function compile flags: /Ogtp
;	COMDAT ?SetInfo@WzAG@@QAE_NHEFPAD0HP6AXHH@Z@Z
_TEXT	SEGMENT
_CountryCode$ = 8					; size = 4
_Partition$ = 12					; size = 1
_ServerCode$ = 16					; size = 2
_ServerVersion$ = 20					; size = 4
_ServerName$ = 24					; size = 4
_ServerType$ = 28					; size = 4
_CallBack$ = 32						; size = 4
?SetInfo@WzAG@@QAE_NHEFPAD0HP6AXHH@Z@Z PROC		; WzAG::SetInfo, COMDAT
; _this$ = ecx

; 223  : {

  00000	55		 push	 ebp
  00001	8b ec		 mov	 ebp, esp

; 224  : 	if( DataBuffer )		

  00003	a1 00 00 00 00	 mov	 eax, DWORD PTR ?DataBuffer@@3PADA ; DataBuffer
  00008	85 c0		 test	 eax, eax
  0000a	74 09		 je	 SHORT $LN2@SetInfo

; 225  : 	{
; 226  : 		delete [] DataBuffer;

  0000c	50		 push	 eax
  0000d	e8 00 00 00 00	 call	 ??_V@YAXPAX@Z		; operator delete[]
  00012	83 c4 04	 add	 esp, 4
$LN2@SetInfo:

; 227  : 	}
; 228  : 	// ----
; 229  : 	if( DataBufferSize )

  00015	83 3d 00 00 00
	00 00		 cmp	 DWORD PTR ?DataBufferSize@@3KA, 0 ; DataBufferSize
  0001c	74 0a		 je	 SHORT $LN1@SetInfo

; 230  : 	{
; 231  : 		DataBufferSize = 0;

  0001e	c7 05 00 00 00
	00 00 00 00 00	 mov	 DWORD PTR ?DataBufferSize@@3KA, 0 ; DataBufferSize
$LN1@SetInfo:

; 232  : 	}
; 233  : 	// ----
; 234  : 	strcpy(sztmpServerName, ServerName);

  00028	8b 45 18	 mov	 eax, DWORD PTR _ServerName$[ebp]
  0002b	ba 00 00 00 00	 mov	 edx, OFFSET ?sztmpServerName@@3PADA ; sztmpServerName
  00030	2b d0		 sub	 edx, eax
$LL5@SetInfo:
  00032	8a 08		 mov	 cl, BYTE PTR [eax]
  00034	88 0c 02	 mov	 BYTE PTR [edx+eax], cl
  00037	40		 inc	 eax
  00038	84 c9		 test	 cl, cl
  0003a	75 f6		 jne	 SHORT $LL5@SetInfo

; 235  : 	// ----
; 236  : 	return true;

  0003c	b0 01		 mov	 al, 1

; 237  : }

  0003e	5d		 pop	 ebp
  0003f	c2 1c 00	 ret	 28			; 0000001cH
?SetInfo@WzAG@@QAE_NHEFPAD0HP6AXHH@Z@Z ENDP		; WzAG::SetInfo
_TEXT	ENDS
PUBLIC	?SetSubInfo@WzAG@@QAEXHHHHMH@Z			; WzAG::SetSubInfo
; Function compile flags: /Ogtp
;	COMDAT ?SetSubInfo@WzAG@@QAEXHHHHMH@Z
_TEXT	SEGMENT
_ServerMaxUser$ = 8					; size = 4
_ObjTotalUser$ = 12					; size = 4
_MonsterHP$ = 16					; size = 4
_ItemDropPer$ = 20					; size = 4
_AddExperience$ = 24					; size = 4
_EventFlag$ = 28					; size = 4
?SetSubInfo@WzAG@@QAEXHHHHMH@Z PROC			; WzAG::SetSubInfo, COMDAT
; _this$ = ecx

; 242  : 	// ----
; 243  : }

  00000	c2 18 00	 ret	 24			; 00000018H
?SetSubInfo@WzAG@@QAEXHHHHMH@Z ENDP			; WzAG::SetSubInfo
_TEXT	ENDS
PUBLIC	??_C@_05MDAMHPFF@Korea?$AA@			; `string'
PUBLIC	??_C@_07BGODPMK@Vietnam?$AA@			; `string'
PUBLIC	??_C@_0M@FCHOEOBK@Phillipines?$AA@		; `string'
PUBLIC	??_C@_08KLPMBLEF@Thailand?$AA@			; `string'
PUBLIC	??_C@_06KGAAFLPN@Taiwan?$AA@			; `string'
PUBLIC	??_C@_05BGDCBOFH@China?$AA@			; `string'
PUBLIC	??_C@_05JNPIGOAJ@Japan?$AA@			; `string'
PUBLIC	??_C@_07NEKHPBCG@English?$AA@			; `string'
PUBLIC	?GetCountryNameByCode@WzAG@@AAEPADH@Z		; WzAG::GetCountryNameByCode
;	COMDAT ??_C@_05MDAMHPFF@Korea?$AA@
CONST	SEGMENT
??_C@_05MDAMHPFF@Korea?$AA@ DB 'Korea', 00H		; `string'
CONST	ENDS
;	COMDAT ??_C@_07BGODPMK@Vietnam?$AA@
CONST	SEGMENT
??_C@_07BGODPMK@Vietnam?$AA@ DB 'Vietnam', 00H		; `string'
CONST	ENDS
;	COMDAT ??_C@_0M@FCHOEOBK@Phillipines?$AA@
CONST	SEGMENT
??_C@_0M@FCHOEOBK@Phillipines?$AA@ DB 'Phillipines', 00H ; `string'
CONST	ENDS
;	COMDAT ??_C@_08KLPMBLEF@Thailand?$AA@
CONST	SEGMENT
??_C@_08KLPMBLEF@Thailand?$AA@ DB 'Thailand', 00H	; `string'
CONST	ENDS
;	COMDAT ??_C@_06KGAAFLPN@Taiwan?$AA@
CONST	SEGMENT
??_C@_06KGAAFLPN@Taiwan?$AA@ DB 'Taiwan', 00H		; `string'
CONST	ENDS
;	COMDAT ??_C@_05BGDCBOFH@China?$AA@
CONST	SEGMENT
??_C@_05BGDCBOFH@China?$AA@ DB 'China', 00H		; `string'
CONST	ENDS
;	COMDAT ??_C@_05JNPIGOAJ@Japan?$AA@
CONST	SEGMENT
??_C@_05JNPIGOAJ@Japan?$AA@ DB 'Japan', 00H		; `string'
CONST	ENDS
;	COMDAT ??_C@_07NEKHPBCG@English?$AA@
CONST	SEGMENT
??_C@_07NEKHPBCG@English?$AA@ DB 'English', 00H		; `string'
; Function compile flags: /Ogtp
CONST	ENDS
;	COMDAT ?GetCountryNameByCode@WzAG@@AAEPADH@Z
_TEXT	SEGMENT
_iCountryCode$ = 8					; size = 4
?GetCountryNameByCode@WzAG@@AAEPADH@Z PROC		; WzAG::GetCountryNameByCode, COMDAT
; _this$ = ecx

; 247  : {

  00000	55		 push	 ebp
  00001	8b ec		 mov	 ebp, esp

; 248  : 	return (iCountryCode==1)?("English"):(iCountryCode==2)?("Japan"):(iCountryCode==3)?("China"):(iCountryCode==4)?("Taiwan"):(iCountryCode==5)?("Thailand"):(iCountryCode==6)?("Phillipines"):(iCountryCode==7)?("Vietnam"):("Korea");

  00003	8b 45 08	 mov	 eax, DWORD PTR _iCountryCode$[ebp]
  00006	83 f8 01	 cmp	 eax, 1
  00009	75 09		 jne	 SHORT $LN15@GetCountry
  0000b	b8 00 00 00 00	 mov	 eax, OFFSET ??_C@_07NEKHPBCG@English?$AA@

; 249  : }

  00010	5d		 pop	 ebp
  00011	c2 04 00	 ret	 4
$LN15@GetCountry:

; 248  : 	return (iCountryCode==1)?("English"):(iCountryCode==2)?("Japan"):(iCountryCode==3)?("China"):(iCountryCode==4)?("Taiwan"):(iCountryCode==5)?("Thailand"):(iCountryCode==6)?("Phillipines"):(iCountryCode==7)?("Vietnam"):("Korea");

  00014	83 f8 02	 cmp	 eax, 2
  00017	75 09		 jne	 SHORT $LN13@GetCountry
  00019	b8 00 00 00 00	 mov	 eax, OFFSET ??_C@_05JNPIGOAJ@Japan?$AA@

; 249  : }

  0001e	5d		 pop	 ebp
  0001f	c2 04 00	 ret	 4
$LN13@GetCountry:

; 248  : 	return (iCountryCode==1)?("English"):(iCountryCode==2)?("Japan"):(iCountryCode==3)?("China"):(iCountryCode==4)?("Taiwan"):(iCountryCode==5)?("Thailand"):(iCountryCode==6)?("Phillipines"):(iCountryCode==7)?("Vietnam"):("Korea");

  00022	83 f8 03	 cmp	 eax, 3
  00025	75 09		 jne	 SHORT $LN11@GetCountry
  00027	b8 00 00 00 00	 mov	 eax, OFFSET ??_C@_05BGDCBOFH@China?$AA@

; 249  : }

  0002c	5d		 pop	 ebp
  0002d	c2 04 00	 ret	 4
$LN11@GetCountry:

; 248  : 	return (iCountryCode==1)?("English"):(iCountryCode==2)?("Japan"):(iCountryCode==3)?("China"):(iCountryCode==4)?("Taiwan"):(iCountryCode==5)?("Thailand"):(iCountryCode==6)?("Phillipines"):(iCountryCode==7)?("Vietnam"):("Korea");

  00030	83 f8 04	 cmp	 eax, 4
  00033	75 09		 jne	 SHORT $LN9@GetCountry
  00035	b8 00 00 00 00	 mov	 eax, OFFSET ??_C@_06KGAAFLPN@Taiwan?$AA@

; 249  : }

  0003a	5d		 pop	 ebp
  0003b	c2 04 00	 ret	 4
$LN9@GetCountry:

; 248  : 	return (iCountryCode==1)?("English"):(iCountryCode==2)?("Japan"):(iCountryCode==3)?("China"):(iCountryCode==4)?("Taiwan"):(iCountryCode==5)?("Thailand"):(iCountryCode==6)?("Phillipines"):(iCountryCode==7)?("Vietnam"):("Korea");

  0003e	83 f8 05	 cmp	 eax, 5
  00041	75 09		 jne	 SHORT $LN7@GetCountry
  00043	b8 00 00 00 00	 mov	 eax, OFFSET ??_C@_08KLPMBLEF@Thailand?$AA@

; 249  : }

  00048	5d		 pop	 ebp
  00049	c2 04 00	 ret	 4
$LN7@GetCountry:

; 248  : 	return (iCountryCode==1)?("English"):(iCountryCode==2)?("Japan"):(iCountryCode==3)?("China"):(iCountryCode==4)?("Taiwan"):(iCountryCode==5)?("Thailand"):(iCountryCode==6)?("Phillipines"):(iCountryCode==7)?("Vietnam"):("Korea");

  0004c	83 f8 06	 cmp	 eax, 6
  0004f	75 09		 jne	 SHORT $LN5@GetCountry
  00051	b8 00 00 00 00	 mov	 eax, OFFSET ??_C@_0M@FCHOEOBK@Phillipines?$AA@

; 249  : }

  00056	5d		 pop	 ebp
  00057	c2 04 00	 ret	 4
$LN5@GetCountry:

; 248  : 	return (iCountryCode==1)?("English"):(iCountryCode==2)?("Japan"):(iCountryCode==3)?("China"):(iCountryCode==4)?("Taiwan"):(iCountryCode==5)?("Thailand"):(iCountryCode==6)?("Phillipines"):(iCountryCode==7)?("Vietnam"):("Korea");

  0005a	83 f8 07	 cmp	 eax, 7
  0005d	b8 00 00 00 00	 mov	 eax, OFFSET ??_C@_07BGODPMK@Vietnam?$AA@
  00062	74 05		 je	 SHORT $LN4@GetCountry
  00064	b8 00 00 00 00	 mov	 eax, OFFSET ??_C@_05MDAMHPFF@Korea?$AA@
$LN4@GetCountry:

; 249  : }

  00069	5d		 pop	 ebp
  0006a	c2 04 00	 ret	 4
?GetCountryNameByCode@WzAG@@AAEPADH@Z ENDP		; WzAG::GetCountryNameByCode
_TEXT	ENDS
PUBLIC	??_C@_0L@FGHHMDFA@MainServer?$AA@		; `string'
PUBLIC	??_C@_0BA@MMJDKKGF@Internal?5Server?$AA@	; `string'
PUBLIC	??_C@_0L@FOLCHMGI@TestServer?$AA@		; `string'
PUBLIC	?GetServerTypeByType@WzAG@@AAEPADH@Z		; WzAG::GetServerTypeByType
;	COMDAT ??_C@_0L@FGHHMDFA@MainServer?$AA@
CONST	SEGMENT
??_C@_0L@FGHHMDFA@MainServer?$AA@ DB 'MainServer', 00H	; `string'
CONST	ENDS
;	COMDAT ??_C@_0BA@MMJDKKGF@Internal?5Server?$AA@
CONST	SEGMENT
??_C@_0BA@MMJDKKGF@Internal?5Server?$AA@ DB 'Internal Server', 00H ; `string'
CONST	ENDS
;	COMDAT ??_C@_0L@FOLCHMGI@TestServer?$AA@
CONST	SEGMENT
??_C@_0L@FOLCHMGI@TestServer?$AA@ DB 'TestServer', 00H	; `string'
; Function compile flags: /Ogtp
CONST	ENDS
;	COMDAT ?GetServerTypeByType@WzAG@@AAEPADH@Z
_TEXT	SEGMENT
_ServerType$ = 8					; size = 4
?GetServerTypeByType@WzAG@@AAEPADH@Z PROC		; WzAG::GetServerTypeByType, COMDAT
; _this$ = ecx

; 253  : {

  00000	55		 push	 ebp
  00001	8b ec		 mov	 ebp, esp

; 254  : 	return (ServerType==1)?("TestServer"):(ServerType==2)?("Internal Server"):("MainServer");

  00003	8b 45 08	 mov	 eax, DWORD PTR _ServerType$[ebp]
  00006	83 f8 01	 cmp	 eax, 1
  00009	75 09		 jne	 SHORT $LN5@GetServerT
  0000b	b8 00 00 00 00	 mov	 eax, OFFSET ??_C@_0L@FOLCHMGI@TestServer?$AA@

; 255  : }

  00010	5d		 pop	 ebp
  00011	c2 04 00	 ret	 4
$LN5@GetServerT:

; 254  : 	return (ServerType==1)?("TestServer"):(ServerType==2)?("Internal Server"):("MainServer");

  00014	83 f8 02	 cmp	 eax, 2
  00017	b8 00 00 00 00	 mov	 eax, OFFSET ??_C@_0BA@MMJDKKGF@Internal?5Server?$AA@
  0001c	74 05		 je	 SHORT $LN4@GetServerT
  0001e	b8 00 00 00 00	 mov	 eax, OFFSET ??_C@_0L@FGHHMDFA@MainServer?$AA@
$LN4@GetServerT:

; 255  : }

  00023	5d		 pop	 ebp
  00024	c2 04 00	 ret	 4
?GetServerTypeByType@WzAG@@AAEPADH@Z ENDP		; WzAG::GetServerTypeByType
_TEXT	ENDS
PUBLIC	??_C@_0BH@JJJKECHB@?$HM?5NProtect?5CheckSum?5?$HM?5?$AA@ ; `string'
PUBLIC	??_C@_0BD@HNEFMGCE@?$HM?5Eledora?5Event?5?$HM?5?$AA@ ; `string'
PUBLIC	??_C@_0BF@BBGHIHK@?$HM?5EventChip?5Event?5?$HM?5?$AA@ ; `string'
PUBLIC	??_C@_0BH@GGAHMDCB@?$HM?5Ring?5Attack?5Event?5?$HM?5?$AA@ ; `string'
PUBLIC	??_C@_0BB@PHGDCDDI@?$HM?5Medal?5Event?5?$HM?5?$AA@ ; `string'
PUBLIC	??_C@_0BJ@LKICJNHN@?$HM?5Heart?5Of?5Love?5Event?5?$HM?5?$AA@ ; `string'
PUBLIC	??_C@_0BI@LCLNHMLE@?$HM?5Fire?5Cracker?5Event?5?$HM?5?$AA@ ; `string'
PUBLIC	??_C@_0BF@CFKCHCCC@?$HM?5XMas?5Star?5Event?5?$HM?5?$AA@ ; `string'
PUBLIC	??_C@_0BI@GJDGAFKJ@?$HM?5Blood?5Castle?5Event?5?$HM?5?$AA@ ; `string'
PUBLIC	??_C@_0BI@CFJOPHED@?$HM?5Devil?5Square?5Event?5?$HM?5?$AA@ ; `string'
PUBLIC	?GetEventFlag@WzAG@@AAEPADH@Z			; WzAG::GetEventFlag
EXTRN	_memset:PROC
;	COMDAT ??_C@_0BH@JJJKECHB@?$HM?5NProtect?5CheckSum?5?$HM?5?$AA@
CONST	SEGMENT
??_C@_0BH@JJJKECHB@?$HM?5NProtect?5CheckSum?5?$HM?5?$AA@ DB '| NProtect C'
	DB	'heckSum | ', 00H				; `string'
CONST	ENDS
;	COMDAT ??_C@_0BD@HNEFMGCE@?$HM?5Eledora?5Event?5?$HM?5?$AA@
CONST	SEGMENT
??_C@_0BD@HNEFMGCE@?$HM?5Eledora?5Event?5?$HM?5?$AA@ DB '| Eledora Event '
	DB	'| ', 00H					; `string'
CONST	ENDS
;	COMDAT ??_C@_0BF@BBGHIHK@?$HM?5EventChip?5Event?5?$HM?5?$AA@
CONST	SEGMENT
??_C@_0BF@BBGHIHK@?$HM?5EventChip?5Event?5?$HM?5?$AA@ DB '| EventChip Eve'
	DB	'nt | ', 00H					; `string'
CONST	ENDS
;	COMDAT ??_C@_0BH@GGAHMDCB@?$HM?5Ring?5Attack?5Event?5?$HM?5?$AA@
CONST	SEGMENT
??_C@_0BH@GGAHMDCB@?$HM?5Ring?5Attack?5Event?5?$HM?5?$AA@ DB '| Ring Atta'
	DB	'ck Event | ', 00H				; `string'
CONST	ENDS
;	COMDAT ??_C@_0BB@PHGDCDDI@?$HM?5Medal?5Event?5?$HM?5?$AA@
CONST	SEGMENT
??_C@_0BB@PHGDCDDI@?$HM?5Medal?5Event?5?$HM?5?$AA@ DB '| Medal Event | ', 00H ; `string'
CONST	ENDS
;	COMDAT ??_C@_0BJ@LKICJNHN@?$HM?5Heart?5Of?5Love?5Event?5?$HM?5?$AA@
CONST	SEGMENT
??_C@_0BJ@LKICJNHN@?$HM?5Heart?5Of?5Love?5Event?5?$HM?5?$AA@ DB '| Heart '
	DB	'Of Love Event | ', 00H			; `string'
CONST	ENDS
;	COMDAT ??_C@_0BI@LCLNHMLE@?$HM?5Fire?5Cracker?5Event?5?$HM?5?$AA@
CONST	SEGMENT
??_C@_0BI@LCLNHMLE@?$HM?5Fire?5Cracker?5Event?5?$HM?5?$AA@ DB '| Fire Cra'
	DB	'cker Event | ', 00H				; `string'
CONST	ENDS
;	COMDAT ??_C@_0BF@CFKCHCCC@?$HM?5XMas?5Star?5Event?5?$HM?5?$AA@
CONST	SEGMENT
??_C@_0BF@CFKCHCCC@?$HM?5XMas?5Star?5Event?5?$HM?5?$AA@ DB '| XMas Star E'
	DB	'vent | ', 00H				; `string'
CONST	ENDS
;	COMDAT ??_C@_0BI@GJDGAFKJ@?$HM?5Blood?5Castle?5Event?5?$HM?5?$AA@
CONST	SEGMENT
??_C@_0BI@GJDGAFKJ@?$HM?5Blood?5Castle?5Event?5?$HM?5?$AA@ DB '| Blood Ca'
	DB	'stle Event | ', 00H				; `string'
CONST	ENDS
;	COMDAT ??_C@_0BI@CFJOPHED@?$HM?5Devil?5Square?5Event?5?$HM?5?$AA@
CONST	SEGMENT
??_C@_0BI@CFJOPHED@?$HM?5Devil?5Square?5Event?5?$HM?5?$AA@ DB '| Devil Sq'
	DB	'uare Event | ', 00H				; `string'
; Function compile flags: /Ogtp
CONST	ENDS
;	COMDAT ?GetEventFlag@WzAG@@AAEPADH@Z
_TEXT	SEGMENT
_Flag$ = 8						; size = 4
?GetEventFlag@WzAG@@AAEPADH@Z PROC			; WzAG::GetEventFlag, COMDAT
; _this$ = ecx

; 259  : {

  00000	55		 push	 ebp
  00001	8b ec		 mov	 ebp, esp
  00003	53		 push	 ebx
  00004	56		 push	 esi
  00005	57		 push	 edi

; 260  : 	char * ReturnText = new char[512];

  00006	68 00 02 00 00	 push	 512			; 00000200H
  0000b	e8 00 00 00 00	 call	 ??_U@YAPAXI@Z		; operator new[]

; 261  : 	memset(ReturnText, 0, 512);

  00010	68 00 02 00 00	 push	 512			; 00000200H
  00015	8b d8		 mov	 ebx, eax
  00017	6a 00		 push	 0
  00019	53		 push	 ebx
  0001a	e8 00 00 00 00	 call	 _memset

; 262  : 	// ----
; 263  : 	if(EVENT_ACTIVE(1))		strcat(ReturnText, "| Devil Square Event | ");

  0001f	8b 55 08	 mov	 edx, DWORD PTR _Flag$[ebp]
  00022	83 c4 10	 add	 esp, 16			; 00000010H
  00025	f6 c2 01	 test	 dl, 1
  00028	74 43		 je	 SHORT $LN24@GetEventFl
  0002a	8d 43 ff	 lea	 eax, DWORD PTR [ebx-1]
  0002d	8d 49 00	 npad	 3
$LL13@GetEventFl:
  00030	8a 48 01	 mov	 cl, BYTE PTR [eax+1]
  00033	40		 inc	 eax
  00034	84 c9		 test	 cl, cl
  00036	75 f8		 jne	 SHORT $LL13@GetEventFl
  00038	8b 0d 00 00 00
	00		 mov	 ecx, DWORD PTR ??_C@_0BI@CFJOPHED@?$HM?5Devil?5Square?5Event?5?$HM?5?$AA@
  0003e	89 08		 mov	 DWORD PTR [eax], ecx
  00040	8b 0d 04 00 00
	00		 mov	 ecx, DWORD PTR ??_C@_0BI@CFJOPHED@?$HM?5Devil?5Square?5Event?5?$HM?5?$AA@+4
  00046	89 48 04	 mov	 DWORD PTR [eax+4], ecx
  00049	8b 0d 08 00 00
	00		 mov	 ecx, DWORD PTR ??_C@_0BI@CFJOPHED@?$HM?5Devil?5Square?5Event?5?$HM?5?$AA@+8
  0004f	89 48 08	 mov	 DWORD PTR [eax+8], ecx
  00052	8b 0d 0c 00 00
	00		 mov	 ecx, DWORD PTR ??_C@_0BI@CFJOPHED@?$HM?5Devil?5Square?5Event?5?$HM?5?$AA@+12
  00058	89 48 0c	 mov	 DWORD PTR [eax+12], ecx
  0005b	8b 0d 10 00 00
	00		 mov	 ecx, DWORD PTR ??_C@_0BI@CFJOPHED@?$HM?5Devil?5Square?5Event?5?$HM?5?$AA@+16
  00061	89 48 10	 mov	 DWORD PTR [eax+16], ecx
  00064	8b 0d 14 00 00
	00		 mov	 ecx, DWORD PTR ??_C@_0BI@CFJOPHED@?$HM?5Devil?5Square?5Event?5?$HM?5?$AA@+20
  0006a	89 48 14	 mov	 DWORD PTR [eax+20], ecx
$LN24@GetEventFl:

; 264  : 	if(EVENT_ACTIVE(2))		strcat(ReturnText, "| Blood Castle Event | ");

  0006d	f6 c2 02	 test	 dl, 2
  00070	74 40		 je	 SHORT $LN25@GetEventFl
  00072	8d 43 ff	 lea	 eax, DWORD PTR [ebx-1]
$LL14@GetEventFl:
  00075	8a 48 01	 mov	 cl, BYTE PTR [eax+1]
  00078	40		 inc	 eax
  00079	84 c9		 test	 cl, cl
  0007b	75 f8		 jne	 SHORT $LL14@GetEventFl
  0007d	8b 0d 00 00 00
	00		 mov	 ecx, DWORD PTR ??_C@_0BI@GJDGAFKJ@?$HM?5Blood?5Castle?5Event?5?$HM?5?$AA@
  00083	89 08		 mov	 DWORD PTR [eax], ecx
  00085	8b 0d 04 00 00
	00		 mov	 ecx, DWORD PTR ??_C@_0BI@GJDGAFKJ@?$HM?5Blood?5Castle?5Event?5?$HM?5?$AA@+4
  0008b	89 48 04	 mov	 DWORD PTR [eax+4], ecx
  0008e	8b 0d 08 00 00
	00		 mov	 ecx, DWORD PTR ??_C@_0BI@GJDGAFKJ@?$HM?5Blood?5Castle?5Event?5?$HM?5?$AA@+8
  00094	89 48 08	 mov	 DWORD PTR [eax+8], ecx
  00097	8b 0d 0c 00 00
	00		 mov	 ecx, DWORD PTR ??_C@_0BI@GJDGAFKJ@?$HM?5Blood?5Castle?5Event?5?$HM?5?$AA@+12
  0009d	89 48 0c	 mov	 DWORD PTR [eax+12], ecx
  000a0	8b 0d 10 00 00
	00		 mov	 ecx, DWORD PTR ??_C@_0BI@GJDGAFKJ@?$HM?5Blood?5Castle?5Event?5?$HM?5?$AA@+16
  000a6	89 48 10	 mov	 DWORD PTR [eax+16], ecx
  000a9	8b 0d 14 00 00
	00		 mov	 ecx, DWORD PTR ??_C@_0BI@GJDGAFKJ@?$HM?5Blood?5Castle?5Event?5?$HM?5?$AA@+20
  000af	89 48 14	 mov	 DWORD PTR [eax+20], ecx
$LN25@GetEventFl:

; 265  : 	if(EVENT_ACTIVE(256))	strcat(ReturnText, "| XMas Star Event | ");

  000b2	f7 c2 00 01 00
	00		 test	 edx, 256		; 00000100H
  000b8	74 43		 je	 SHORT $LN8@GetEventFl
  000ba	8d 43 ff	 lea	 eax, DWORD PTR [ebx-1]
  000bd	8d 49 00	 npad	 3
$LL15@GetEventFl:
  000c0	8a 48 01	 mov	 cl, BYTE PTR [eax+1]
  000c3	40		 inc	 eax
  000c4	84 c9		 test	 cl, cl
  000c6	75 f8		 jne	 SHORT $LL15@GetEventFl
  000c8	8b 0d 00 00 00
	00		 mov	 ecx, DWORD PTR ??_C@_0BF@CFKCHCCC@?$HM?5XMas?5Star?5Event?5?$HM?5?$AA@
  000ce	89 08		 mov	 DWORD PTR [eax], ecx
  000d0	8b 0d 04 00 00
	00		 mov	 ecx, DWORD PTR ??_C@_0BF@CFKCHCCC@?$HM?5XMas?5Star?5Event?5?$HM?5?$AA@+4
  000d6	89 48 04	 mov	 DWORD PTR [eax+4], ecx
  000d9	8b 0d 08 00 00
	00		 mov	 ecx, DWORD PTR ??_C@_0BF@CFKCHCCC@?$HM?5XMas?5Star?5Event?5?$HM?5?$AA@+8
  000df	89 48 08	 mov	 DWORD PTR [eax+8], ecx
  000e2	8b 0d 0c 00 00
	00		 mov	 ecx, DWORD PTR ??_C@_0BF@CFKCHCCC@?$HM?5XMas?5Star?5Event?5?$HM?5?$AA@+12
  000e8	89 48 0c	 mov	 DWORD PTR [eax+12], ecx
  000eb	8b 0d 10 00 00
	00		 mov	 ecx, DWORD PTR ??_C@_0BF@CFKCHCCC@?$HM?5XMas?5Star?5Event?5?$HM?5?$AA@+16
  000f1	89 48 10	 mov	 DWORD PTR [eax+16], ecx
  000f4	8a 0d 14 00 00
	00		 mov	 cl, BYTE PTR ??_C@_0BF@CFKCHCCC@?$HM?5XMas?5Star?5Event?5?$HM?5?$AA@+20
  000fa	88 48 14	 mov	 BYTE PTR [eax+20], cl
$LN8@GetEventFl:

; 266  : 	if(EVENT_ACTIVE(512))	strcat(ReturnText, "| Fire Cracker Event | ");

  000fd	f7 c2 00 02 00
	00		 test	 edx, 512		; 00000200H
  00103	74 40		 je	 SHORT $LN26@GetEventFl
  00105	8d 43 ff	 lea	 eax, DWORD PTR [ebx-1]
$LL16@GetEventFl:
  00108	8a 48 01	 mov	 cl, BYTE PTR [eax+1]
  0010b	40		 inc	 eax
  0010c	84 c9		 test	 cl, cl
  0010e	75 f8		 jne	 SHORT $LL16@GetEventFl
  00110	8b 0d 00 00 00
	00		 mov	 ecx, DWORD PTR ??_C@_0BI@LCLNHMLE@?$HM?5Fire?5Cracker?5Event?5?$HM?5?$AA@
  00116	89 08		 mov	 DWORD PTR [eax], ecx
  00118	8b 0d 04 00 00
	00		 mov	 ecx, DWORD PTR ??_C@_0BI@LCLNHMLE@?$HM?5Fire?5Cracker?5Event?5?$HM?5?$AA@+4
  0011e	89 48 04	 mov	 DWORD PTR [eax+4], ecx
  00121	8b 0d 08 00 00
	00		 mov	 ecx, DWORD PTR ??_C@_0BI@LCLNHMLE@?$HM?5Fire?5Cracker?5Event?5?$HM?5?$AA@+8
  00127	89 48 08	 mov	 DWORD PTR [eax+8], ecx
  0012a	8b 0d 0c 00 00
	00		 mov	 ecx, DWORD PTR ??_C@_0BI@LCLNHMLE@?$HM?5Fire?5Cracker?5Event?5?$HM?5?$AA@+12
  00130	89 48 0c	 mov	 DWORD PTR [eax+12], ecx
  00133	8b 0d 10 00 00
	00		 mov	 ecx, DWORD PTR ??_C@_0BI@LCLNHMLE@?$HM?5Fire?5Cracker?5Event?5?$HM?5?$AA@+16
  00139	89 48 10	 mov	 DWORD PTR [eax+16], ecx
  0013c	8b 0d 14 00 00
	00		 mov	 ecx, DWORD PTR ??_C@_0BI@LCLNHMLE@?$HM?5Fire?5Cracker?5Event?5?$HM?5?$AA@+20
  00142	89 48 14	 mov	 DWORD PTR [eax+20], ecx
$LN26@GetEventFl:

; 267  : 	if(EVENT_ACTIVE(1024))	strcat(ReturnText, "| Heart Of Love Event | ");

  00145	f7 c2 00 04 00
	00		 test	 edx, 1024		; 00000400H
  0014b	74 18		 je	 SHORT $LN6@GetEventFl
  0014d	8d 7b ff	 lea	 edi, DWORD PTR [ebx-1]
$LL17@GetEventFl:
  00150	8a 47 01	 mov	 al, BYTE PTR [edi+1]
  00153	47		 inc	 edi
  00154	84 c0		 test	 al, al
  00156	75 f8		 jne	 SHORT $LL17@GetEventFl
  00158	b9 06 00 00 00	 mov	 ecx, 6
  0015d	be 00 00 00 00	 mov	 esi, OFFSET ??_C@_0BJ@LKICJNHN@?$HM?5Heart?5Of?5Love?5Event?5?$HM?5?$AA@
  00162	f3 a5		 rep movsd
  00164	a4		 movsb
$LN6@GetEventFl:

; 268  : 	if(EVENT_ACTIVE(2048))	strcat(ReturnText, "| Medal Event | ");

  00165	f7 c2 00 08 00
	00		 test	 edx, 2048		; 00000800H
  0016b	74 37		 je	 SHORT $LN5@GetEventFl
  0016d	8d 43 ff	 lea	 eax, DWORD PTR [ebx-1]
$LL18@GetEventFl:
  00170	8a 48 01	 mov	 cl, BYTE PTR [eax+1]
  00173	40		 inc	 eax
  00174	84 c9		 test	 cl, cl
  00176	75 f8		 jne	 SHORT $LL18@GetEventFl
  00178	8b 0d 00 00 00
	00		 mov	 ecx, DWORD PTR ??_C@_0BB@PHGDCDDI@?$HM?5Medal?5Event?5?$HM?5?$AA@
  0017e	89 08		 mov	 DWORD PTR [eax], ecx
  00180	8b 0d 04 00 00
	00		 mov	 ecx, DWORD PTR ??_C@_0BB@PHGDCDDI@?$HM?5Medal?5Event?5?$HM?5?$AA@+4
  00186	89 48 04	 mov	 DWORD PTR [eax+4], ecx
  00189	8b 0d 08 00 00
	00		 mov	 ecx, DWORD PTR ??_C@_0BB@PHGDCDDI@?$HM?5Medal?5Event?5?$HM?5?$AA@+8
  0018f	89 48 08	 mov	 DWORD PTR [eax+8], ecx
  00192	8b 0d 0c 00 00
	00		 mov	 ecx, DWORD PTR ??_C@_0BB@PHGDCDDI@?$HM?5Medal?5Event?5?$HM?5?$AA@+12
  00198	89 48 0c	 mov	 DWORD PTR [eax+12], ecx
  0019b	8a 0d 10 00 00
	00		 mov	 cl, BYTE PTR ??_C@_0BB@PHGDCDDI@?$HM?5Medal?5Event?5?$HM?5?$AA@+16
  001a1	88 48 10	 mov	 BYTE PTR [eax+16], cl
$LN5@GetEventFl:

; 269  : 	if(EVENT_ACTIVE(4096))	strcat(ReturnText, "| Ring Attack Event | ");

  001a4	f7 c2 00 10 00
	00		 test	 edx, 4096		; 00001000H
  001aa	74 1b		 je	 SHORT $LN4@GetEventFl
  001ac	8d 7b ff	 lea	 edi, DWORD PTR [ebx-1]
  001af	90		 npad	 1
$LL19@GetEventFl:
  001b0	8a 47 01	 mov	 al, BYTE PTR [edi+1]
  001b3	47		 inc	 edi
  001b4	84 c0		 test	 al, al
  001b6	75 f8		 jne	 SHORT $LL19@GetEventFl
  001b8	b9 05 00 00 00	 mov	 ecx, 5
  001bd	be 00 00 00 00	 mov	 esi, OFFSET ??_C@_0BH@GGAHMDCB@?$HM?5Ring?5Attack?5Event?5?$HM?5?$AA@
  001c2	f3 a5		 rep movsd
  001c4	66 a5		 movsw
  001c6	a4		 movsb
$LN4@GetEventFl:

; 270  : 	if(EVENT_ACTIVE(8192))	strcat(ReturnText, "| EventChip Event | ");

  001c7	f7 c2 00 20 00
	00		 test	 edx, 8192		; 00002000H
  001cd	74 40		 je	 SHORT $LN3@GetEventFl
  001cf	8d 43 ff	 lea	 eax, DWORD PTR [ebx-1]
$LL20@GetEventFl:
  001d2	8a 48 01	 mov	 cl, BYTE PTR [eax+1]
  001d5	40		 inc	 eax
  001d6	84 c9		 test	 cl, cl
  001d8	75 f8		 jne	 SHORT $LL20@GetEventFl
  001da	8b 0d 00 00 00
	00		 mov	 ecx, DWORD PTR ??_C@_0BF@BBGHIHK@?$HM?5EventChip?5Event?5?$HM?5?$AA@
  001e0	89 08		 mov	 DWORD PTR [eax], ecx
  001e2	8b 0d 04 00 00
	00		 mov	 ecx, DWORD PTR ??_C@_0BF@BBGHIHK@?$HM?5EventChip?5Event?5?$HM?5?$AA@+4
  001e8	89 48 04	 mov	 DWORD PTR [eax+4], ecx
  001eb	8b 0d 08 00 00
	00		 mov	 ecx, DWORD PTR ??_C@_0BF@BBGHIHK@?$HM?5EventChip?5Event?5?$HM?5?$AA@+8
  001f1	89 48 08	 mov	 DWORD PTR [eax+8], ecx
  001f4	8b 0d 0c 00 00
	00		 mov	 ecx, DWORD PTR ??_C@_0BF@BBGHIHK@?$HM?5EventChip?5Event?5?$HM?5?$AA@+12
  001fa	89 48 0c	 mov	 DWORD PTR [eax+12], ecx
  001fd	8b 0d 10 00 00
	00		 mov	 ecx, DWORD PTR ??_C@_0BF@BBGHIHK@?$HM?5EventChip?5Event?5?$HM?5?$AA@+16
  00203	89 48 10	 mov	 DWORD PTR [eax+16], ecx
  00206	8a 0d 14 00 00
	00		 mov	 cl, BYTE PTR ??_C@_0BF@BBGHIHK@?$HM?5EventChip?5Event?5?$HM?5?$AA@+20
  0020c	88 48 14	 mov	 BYTE PTR [eax+20], cl
$LN3@GetEventFl:

; 271  : 	if(EVENT_ACTIVE(16384))	strcat(ReturnText, "| Eledora Event | ");

  0020f	f7 c2 00 40 00
	00		 test	 edx, 16384		; 00004000H
  00215	74 48		 je	 SHORT $LN2@GetEventFl
  00217	8d 43 ff	 lea	 eax, DWORD PTR [ebx-1]
  0021a	8d 9b 00 00 00
	00		 npad	 6
$LL21@GetEventFl:
  00220	8a 48 01	 mov	 cl, BYTE PTR [eax+1]
  00223	40		 inc	 eax
  00224	84 c9		 test	 cl, cl
  00226	75 f8		 jne	 SHORT $LL21@GetEventFl
  00228	8b 0d 00 00 00
	00		 mov	 ecx, DWORD PTR ??_C@_0BD@HNEFMGCE@?$HM?5Eledora?5Event?5?$HM?5?$AA@
  0022e	89 08		 mov	 DWORD PTR [eax], ecx
  00230	8b 0d 04 00 00
	00		 mov	 ecx, DWORD PTR ??_C@_0BD@HNEFMGCE@?$HM?5Eledora?5Event?5?$HM?5?$AA@+4
  00236	89 48 04	 mov	 DWORD PTR [eax+4], ecx
  00239	8b 0d 08 00 00
	00		 mov	 ecx, DWORD PTR ??_C@_0BD@HNEFMGCE@?$HM?5Eledora?5Event?5?$HM?5?$AA@+8
  0023f	89 48 08	 mov	 DWORD PTR [eax+8], ecx
  00242	8b 0d 0c 00 00
	00		 mov	 ecx, DWORD PTR ??_C@_0BD@HNEFMGCE@?$HM?5Eledora?5Event?5?$HM?5?$AA@+12
  00248	89 48 0c	 mov	 DWORD PTR [eax+12], ecx
  0024b	66 8b 0d 10 00
	00 00		 mov	 cx, WORD PTR ??_C@_0BD@HNEFMGCE@?$HM?5Eledora?5Event?5?$HM?5?$AA@+16
  00252	66 89 48 10	 mov	 WORD PTR [eax+16], cx
  00256	8a 0d 12 00 00
	00		 mov	 cl, BYTE PTR ??_C@_0BD@HNEFMGCE@?$HM?5Eledora?5Event?5?$HM?5?$AA@+18
  0025c	88 48 12	 mov	 BYTE PTR [eax+18], cl
$LN2@GetEventFl:

; 272  : 	if(EVENT_ACTIVE(65536))	strcat(ReturnText, "| NProtect CheckSum | ");

  0025f	f7 c2 00 00 01
	00		 test	 edx, 65536		; 00010000H
  00265	74 20		 je	 SHORT $LN23@GetEventFl
  00267	8d 7b ff	 lea	 edi, DWORD PTR [ebx-1]
  0026a	8d 9b 00 00 00
	00		 npad	 6
$LL22@GetEventFl:
  00270	8a 47 01	 mov	 al, BYTE PTR [edi+1]
  00273	47		 inc	 edi
  00274	84 c0		 test	 al, al
  00276	75 f8		 jne	 SHORT $LL22@GetEventFl
  00278	b9 05 00 00 00	 mov	 ecx, 5
  0027d	be 00 00 00 00	 mov	 esi, OFFSET ??_C@_0BH@JJJKECHB@?$HM?5NProtect?5CheckSum?5?$HM?5?$AA@
  00282	f3 a5		 rep movsd
  00284	66 a5		 movsw
  00286	a4		 movsb
$LN23@GetEventFl:

; 273  : 	// ----
; 274  : 	return ReturnText;

  00287	5f		 pop	 edi
  00288	5e		 pop	 esi
  00289	8b c3		 mov	 eax, ebx
  0028b	5b		 pop	 ebx

; 275  : }

  0028c	5d		 pop	 ebp
  0028d	c2 04 00	 ret	 4
?GetEventFlag@WzAG@@AAEPADH@Z ENDP			; WzAG::GetEventFlag
_TEXT	ENDS
END
