; Listing generated by Microsoft (R) Optimizing Compiler Version 16.00.30319.01 

	TITLE	E:\work\tranet_version\GS\GameServer\XMasAttackEvent.cpp
	.686P
	.XMM
	include listing.inc
	.model	flat

INCLUDELIB LIBCMT
INCLUDELIB OLDNAMES

PUBLIC	?ErrorType@@3FA					; ErrorType
_DATA	SEGMENT
_g_iNpcUpDfLevel_CGATE DD 01H
	DD	02H
	DD	02dc6c0H
	DD	02H
	DD	03H
	DD	02dc6c0H
	DD	03H
	DD	04H
	DD	02dc6c0H
_g_iNpcUpDfLevel_CSTATUE DD 01H
	DD	03H
	DD	02dc6c0H
	DD	02H
	DD	05H
	DD	02dc6c0H
	DD	03H
	DD	07H
	DD	02dc6c0H
_g_iNpcUpMaxHP_CGATE DD 02625a0H
	DD	02H
	DD	0f4240H
	DD	03567e0H
	DD	03H
	DD	0f4240H
	DD	04f5880H
	DD	04H
	DD	0f4240H
_g_iNpcUpMaxHP_CSTATUE DD 02191c0H
	DD	03H
	DD	0f4240H
	DD	033e140H
	DD	05H
	DD	0f4240H
	DD	04c4b40H
	DD	07H
	DD	0f4240H
_g_iNpcUpRgLevel_CSTATUE DD 01H
	DD	03H
	DD	04c4b40H
	DD	02H
	DD	05H
	DD	04c4b40H
	DD	03H
	DD	07H
	DD	04c4b40H
_g_iCsUserReSpawnArea DD 023H
	DD	011H
	DD	090H
	DD	030H
	DD	04aH
	DD	090H
	DD	073H
	DD	09aH
	DD	023H
	DD	011H
	DD	090H
	DD	030H
_g_iNpcDefense_CGATE DD 064H
	DD	0b4H
	DD	012cH
	DD	0208H
_g_iNpcDefense_CSTATUE DD 050H
	DD	0b4H
	DD	0154H
	DD	0226H
_g_iCastleWallStepAxisY DD 071H
	DD	0a0H
	DD	0cbH
?ErrorType@@3FA DW 0168H				; ErrorType
	ORG $+6
_g_XMasMapDestPosition DD 085H
	DD	04fH
	DD	057H
	DD	07eH
	DD	085H
	DD	0b2H
	DD	0b4H
	DD	07eH
	DD	0a4H
	DD	02aH
	DD	0ddH
	DD	055H
	DD	0a4H
	DD	02aH
	DD	0ddH
	DD	055H
	DD	0a0H
	DD	04bH
	DD	0a0H
	DD	04bH
	DD	098H
	DD	075H
	DD	0d1H
	DD	085H
_DATA	ENDS
PUBLIC	??2@YAPAXIPAX@Z					; operator new
; Function compile flags: /Ogtp
; File d:\program files (x86)\microsoft visual studio 10.0\vc\include\new.h
;	COMDAT ??2@YAPAXIPAX@Z
_TEXT	SEGMENT
___formal$ = 8						; size = 4
__Where$ = 12						; size = 4
??2@YAPAXIPAX@Z PROC					; operator new, COMDAT

; 81   :         {return (_Where); }

  00000	55		 push	 ebp
  00001	8b ec		 mov	 ebp, esp
  00003	8b 45 0c	 mov	 eax, DWORD PTR __Where$[ebp]
  00006	5d		 pop	 ebp
  00007	c3		 ret	 0
??2@YAPAXIPAX@Z ENDP					; operator new
_TEXT	ENDS
PUBLIC	??3@YAXPAX0@Z					; operator delete
; Function compile flags: /Ogtp
;	COMDAT ??3@YAXPAX0@Z
_TEXT	SEGMENT
___formal$ = 8						; size = 4
___formal$ = 12						; size = 4
??3@YAXPAX0@Z PROC					; operator delete, COMDAT

; 83   :         {return; }

  00000	c3		 ret	 0
??3@YAXPAX0@Z ENDP					; operator delete
_TEXT	ENDS
PUBLIC	??_H@YGXPAXIHP6EPAX0@Z@Z			; `vector constructor iterator'
; Function compile flags: /Ogtp
;	COMDAT ??_H@YGXPAXIHP6EPAX0@Z@Z
_TEXT	SEGMENT
___t$ = 8						; size = 4
___s$ = 12						; size = 4
___n$ = 16						; size = 4
___f$ = 20						; size = 4
??_H@YGXPAXIHP6EPAX0@Z@Z PROC				; `vector constructor iterator', COMDAT
  00000	55		 push	 ebp
  00001	8b ec		 mov	 ebp, esp
  00003	57		 push	 edi
  00004	8b 7d 10	 mov	 edi, DWORD PTR ___n$[ebp]
  00007	4f		 dec	 edi
  00008	78 14		 js	 SHORT $LN1@vector
  0000a	53		 push	 ebx
  0000b	8b 5d 14	 mov	 ebx, DWORD PTR ___f$[ebp]
  0000e	56		 push	 esi
  0000f	8b 75 08	 mov	 esi, DWORD PTR ___t$[ebp]
$LL2@vector:
  00012	8b ce		 mov	 ecx, esi
  00014	ff d3		 call	 ebx
  00016	03 75 0c	 add	 esi, DWORD PTR ___s$[ebp]
  00019	4f		 dec	 edi
  0001a	79 f6		 jns	 SHORT $LL2@vector
  0001c	5e		 pop	 esi
  0001d	5b		 pop	 ebx
$LN1@vector:
  0001e	5f		 pop	 edi
  0001f	5d		 pop	 ebp
  00020	c2 10 00	 ret	 16			; 00000010H
??_H@YGXPAXIHP6EPAX0@Z@Z ENDP				; `vector constructor iterator'
_TEXT	ENDS
PUBLIC	__$ArrayPad$
EXTRN	_isalnum:PROC
EXTRN	_isalpha:PROC
EXTRN	_atof:PROC
EXTRN	_isdigit:PROC
EXTRN	_getc:PROC
EXTRN	_ungetc:PROC
EXTRN	_isspace:PROC
EXTRN	_fgetc:PROC
EXTRN	___security_cookie:DWORD
EXTRN	__fltused:DWORD
EXTRN	@__security_check_cookie@4:PROC
_BSS	SEGMENT
_CurrentToken DD 01H DUP (?)
_TokenNumber DD	01H DUP (?)
_SMDFile DD	01H DUP (?)
_TokenString DB	064H DUP (?)
; Function compile flags: /Ogtp
; File e:\work\tranet_version\gs\include\readscript.h
_BSS	ENDS
;	COMDAT ?GetToken@@YA?AW4SMDToken@@XZ
_TEXT	SEGMENT
_TempString$ = -104					; size = 100
__$ArrayPad$ = -4					; size = 4
?GetToken@@YA?AW4SMDToken@@XZ PROC			; GetToken, COMDAT

; 24   : {

  00000	55		 push	 ebp
  00001	8b ec		 mov	 ebp, esp
  00003	83 ec 68	 sub	 esp, 104		; 00000068H
  00006	a1 00 00 00 00	 mov	 eax, DWORD PTR ___security_cookie
  0000b	33 c5		 xor	 eax, ebp
  0000d	89 45 fc	 mov	 DWORD PTR __$ArrayPad$[ebp], eax

; 25   : 	char ch;
; 26   : 	char* p;
; 27   : 	char TempString[100];
; 28   : 
; 29   : 	TokenString[0]=0;

  00010	c6 05 00 00 00
	00 00		 mov	 BYTE PTR _TokenString, 0
  00017	53		 push	 ebx
  00018	eb 06 8d 9b 00
	00 00 00	 npad	 8
$LL31@GetToken:

; 30   : 
; 31   : 	do
; 32   : 	{
; 33   : 		if ((ch=fgetc(SMDFile)) == -1)

  00020	a1 00 00 00 00	 mov	 eax, DWORD PTR _SMDFile
  00025	50		 push	 eax
  00026	e8 00 00 00 00	 call	 _fgetc
  0002b	8a d8		 mov	 bl, al
  0002d	83 c4 04	 add	 esp, 4
  00030	80 fb ff	 cmp	 bl, -1
  00033	74 64		 je	 SHORT $LN39@GetToken

; 36   : 		}
; 37   : 		else
; 38   : 		{	
; 39   : 			if (ch=='/')		// this is /

  00035	80 fb 2f	 cmp	 bl, 47			; 0000002fH
  00038	75 31		 jne	 SHORT $LN30@GetToken

; 40   : 			{
; 41   : 				if((ch=fgetc(SMDFile)) == '/')

  0003a	8b 0d 00 00 00
	00		 mov	 ecx, DWORD PTR _SMDFile
  00040	51		 push	 ecx
  00041	e8 00 00 00 00	 call	 _fgetc
  00046	8a d8		 mov	 bl, al
  00048	83 c4 04	 add	 esp, 4
  0004b	80 fb 2f	 cmp	 bl, 47			; 0000002fH
  0004e	75 1b		 jne	 SHORT $LN30@GetToken
$LL24@GetToken:

; 42   : 				{
; 43   : 					while ((ch != '\n') && (ch != -1))	// End of Line (EOL)

  00050	80 fb ff	 cmp	 bl, -1
  00053	74 44		 je	 SHORT $LN39@GetToken

; 44   : 					{
; 45   : 						ch=fgetc(SMDFile);

  00055	8b 15 00 00 00
	00		 mov	 edx, DWORD PTR _SMDFile
  0005b	52		 push	 edx
  0005c	e8 00 00 00 00	 call	 _fgetc
  00061	8a d8		 mov	 bl, al
  00063	83 c4 04	 add	 esp, 4
  00066	80 fb 0a	 cmp	 bl, 10			; 0000000aH
  00069	75 e5		 jne	 SHORT $LL24@GetToken
$LN30@GetToken:

; 46   : 					}
; 47   : 	
; 48   : 					if (ch == -1)
; 49   : 					{
; 50   : 						return END;	// End of FILE
; 51   : 					}
; 52   : 				}
; 53   : 			}
; 54   : 		}
; 55   : 	}
; 56   : 	while (isspace(ch) != 0);

  0006b	0f be c3	 movsx	 eax, bl
  0006e	50		 push	 eax
  0006f	e8 00 00 00 00	 call	 _isspace
  00074	83 c4 04	 add	 esp, 4
  00077	85 c0		 test	 eax, eax
  00079	75 a5		 jne	 SHORT $LL31@GetToken

; 57   : 
; 58   : 	
; 59   : 	switch(ch)

  0007b	0f be c3	 movsx	 eax, bl
  0007e	8d 48 de	 lea	 ecx, DWORD PTR [eax-34]
  00081	56		 push	 esi
  00082	83 f9 5b	 cmp	 ecx, 91			; 0000005bH
  00085	0f 87 2b 01 00
	00		 ja	 $LN6@GetToken
  0008b	0f b6 89 00 00
	00 00		 movzx	 ecx, BYTE PTR $LN46@GetToken[ecx]
  00092	ff 24 8d 00 00
	00 00		 jmp	 DWORD PTR $LN50@GetToken[ecx*4]
$LN39@GetToken:

; 34   : 		{
; 35   : 			return END;	// End of FILE (EOF)

  00099	b8 02 00 00 00	 mov	 eax, 2
  0009e	5b		 pop	 ebx

; 147  : 		}
; 148  : 		break;
; 149  : 
; 150  : 	}
; 151  : 
; 152  : 	return NAME;
; 153  : }

  0009f	8b 4d fc	 mov	 ecx, DWORD PTR __$ArrayPad$[ebp]
  000a2	33 cd		 xor	 ecx, ebp
  000a4	e8 00 00 00 00	 call	 @__security_check_cookie@4
  000a9	8b e5		 mov	 esp, ebp
  000ab	5d		 pop	 ebp
  000ac	c3		 ret	 0
$LN19@GetToken:

; 60   : 	{
; 61   : 
; 62   : 	case 0x23:	// #
; 63   : 		return CurrentToken=COMMAND;

  000ad	b8 23 00 00 00	 mov	 eax, 35			; 00000023H
  000b2	e9 99 01 00 00	 jmp	 $LN48@GetToken
$LN18@GetToken:

; 64   : 		break;
; 65   : 	
; 66   : 	case 0x3B:	// ;
; 67   : 		return CurrentToken=SEMICOLON;

  000b7	b8 3b 00 00 00	 mov	 eax, 59			; 0000003bH
  000bc	e9 8f 01 00 00	 jmp	 $LN48@GetToken
$LN17@GetToken:

; 68   : 		break;
; 69   : 	
; 70   : 	case 0x2C:	// ,
; 71   : 
; 72   : 		return CurrentToken=COMMA;

  000c1	b8 2c 00 00 00	 mov	 eax, 44			; 0000002cH
  000c6	e9 85 01 00 00	 jmp	 $LN48@GetToken
$LN16@GetToken:

; 73   : 		break;
; 74   : 	
; 75   : 	case 0x7B:	// {
; 76   : 		return CurrentToken = LP;

  000cb	b8 7b 00 00 00	 mov	 eax, 123		; 0000007bH
  000d0	e9 7b 01 00 00	 jmp	 $LN48@GetToken
$LN15@GetToken:

; 77   : 		break;
; 78   : 
; 79   : 	case 0x7D:	// }
; 80   : 		return CurrentToken = RP;

  000d5	b8 7d 00 00 00	 mov	 eax, 125		; 0000007dH
  000da	e9 71 01 00 00	 jmp	 $LN48@GetToken
$LN14@GetToken:

; 81   : 		break;
; 82   : 	// Nice Index Table :)	by Deathway
; 83   : 	// Numbers Case
; 84   : 	case 0x2D:	//-
; 85   : 	case 0x2E:	//.
; 86   : 	case '0':	//0
; 87   : 	case '1':	//1
; 88   : 	case '2':	//2
; 89   : 	case '3':	//3
; 90   : 	case '4':	//4		
; 91   : 	case '5':	//5
; 92   : 	case '6':	//6
; 93   : 	case '7':	//7
; 94   : 	case '8':	//8
; 95   : 	case '9':	//9
; 96   : 		ungetc(ch, SMDFile);

  000df	8b 15 00 00 00
	00		 mov	 edx, DWORD PTR _SMDFile
  000e5	52		 push	 edx
  000e6	50		 push	 eax
  000e7	e8 00 00 00 00	 call	 _ungetc

; 97   : 		p = TempString;
; 98   : 		
; 99   : 		while (((ch=getc(SMDFile)) != -1) && ((ch == 0x2E) || (isdigit(ch) != 0) || (ch == 0x2D)))  // 2e '.'  2D '-'

  000ec	a1 00 00 00 00	 mov	 eax, DWORD PTR _SMDFile
  000f1	50		 push	 eax
  000f2	8d 75 98	 lea	 esi, DWORD PTR _TempString$[ebp]
  000f5	e8 00 00 00 00	 call	 _getc
  000fa	8a d8		 mov	 bl, al
  000fc	83 c4 0c	 add	 esp, 12			; 0000000cH
  000ff	80 fb ff	 cmp	 bl, -1
  00102	74 33		 je	 SHORT $LN12@GetToken
$LL13@GetToken:
  00104	80 fb 2e	 cmp	 bl, 46			; 0000002eH
  00107	74 15		 je	 SHORT $LN11@GetToken
  00109	0f be cb	 movsx	 ecx, bl
  0010c	51		 push	 ecx
  0010d	e8 00 00 00 00	 call	 _isdigit
  00112	83 c4 04	 add	 esp, 4
  00115	85 c0		 test	 eax, eax
  00117	75 05		 jne	 SHORT $LN11@GetToken
  00119	80 fb 2d	 cmp	 bl, 45			; 0000002dH
  0011c	75 19		 jne	 SHORT $LN12@GetToken
$LN11@GetToken:
  0011e	8b 15 00 00 00
	00		 mov	 edx, DWORD PTR _SMDFile

; 100  : 		{
; 101  : 			*p = ch;	// Construct a String

  00124	88 1e		 mov	 BYTE PTR [esi], bl
  00126	52		 push	 edx

; 102  : 			p++;

  00127	46		 inc	 esi
  00128	e8 00 00 00 00	 call	 _getc
  0012d	8a d8		 mov	 bl, al
  0012f	83 c4 04	 add	 esp, 4
  00132	80 fb ff	 cmp	 bl, -1
  00135	75 cd		 jne	 SHORT $LL13@GetToken
$LN12@GetToken:

; 103  : 		}		
; 104  : 		*p = 0;
; 105  : 		TokenNumber = atof( TempString);	// Select the first Byte as Main ID

  00137	8d 45 98	 lea	 eax, DWORD PTR _TempString$[ebp]
  0013a	50		 push	 eax
  0013b	c6 06 00	 mov	 BYTE PTR [esi], 0
  0013e	e8 00 00 00 00	 call	 _atof
  00143	d9 1d 00 00 00
	00		 fstp	 DWORD PTR _TokenNumber
  00149	83 c4 04	 add	 esp, 4
  0014c	5e		 pop	 esi

; 106  : 		return CurrentToken  = NUMBER ;

  0014d	c7 05 00 00 00
	00 01 00 00 00	 mov	 DWORD PTR _CurrentToken, 1
  00157	b8 01 00 00 00	 mov	 eax, 1
  0015c	5b		 pop	 ebx

; 147  : 		}
; 148  : 		break;
; 149  : 
; 150  : 	}
; 151  : 
; 152  : 	return NAME;
; 153  : }

  0015d	8b 4d fc	 mov	 ecx, DWORD PTR __$ArrayPad$[ebp]
  00160	33 cd		 xor	 ecx, ebp
  00162	e8 00 00 00 00	 call	 @__security_check_cookie@4
  00167	8b e5		 mov	 esp, ebp
  00169	5d		 pop	 ebp
  0016a	c3		 ret	 0
$LN10@GetToken:

; 107  : 		break;
; 108  : 
; 109  : 	case '\"':	// "	String Case
; 110  : 		p=&TokenString[0];
; 111  : 		
; 112  : 		while (((ch=getc(SMDFile)) != -1 ) && (ch != 0x22))	// nice

  0016b	8b 0d 00 00 00
	00		 mov	 ecx, DWORD PTR _SMDFile
  00171	51		 push	 ecx
  00172	be 00 00 00 00	 mov	 esi, OFFSET _TokenString
  00177	e8 00 00 00 00	 call	 _getc
  0017c	83 c4 04	 add	 esp, 4
  0017f	3c ff		 cmp	 al, -1
  00181	74 1e		 je	 SHORT $LN8@GetToken
$LL9@GetToken:
  00183	3c 22		 cmp	 al, 34			; 00000022H
  00185	0f 84 a1 00 00
	00		 je	 $LN7@GetToken
  0018b	8b 15 00 00 00
	00		 mov	 edx, DWORD PTR _SMDFile

; 113  : 		{
; 114  : 			*p = ch;

  00191	88 06		 mov	 BYTE PTR [esi], al
  00193	52		 push	 edx

; 115  : 			p++;

  00194	46		 inc	 esi
  00195	e8 00 00 00 00	 call	 _getc
  0019a	83 c4 04	 add	 esp, 4
  0019d	3c ff		 cmp	 al, -1
  0019f	75 e2		 jne	 SHORT $LL9@GetToken
$LN8@GetToken:

; 116  : 		}
; 117  : 		if (ch != 0x22 )

  001a1	3c 22		 cmp	 al, 34			; 00000022H
  001a3	0f 84 83 00 00
	00		 je	 $LN7@GetToken

; 118  : 		{
; 119  : 			ungetc(ch, SMDFile);

  001a9	8b 0d 00 00 00
	00		 mov	 ecx, DWORD PTR _SMDFile
  001af	0f be d0	 movsx	 edx, al
  001b2	51		 push	 ecx
  001b3	52		 push	 edx

; 120  : 		}
; 121  : 		*p = 0;
; 122  : 		return CurrentToken = NAME;

  001b4	eb 6e		 jmp	 SHORT $LN49@GetToken
$LN6@GetToken:

; 123  : 		break;
; 124  : 
; 125  : 	default:	// Others
; 126  : 		if (isalpha(ch))

  001b6	50		 push	 eax
  001b7	e8 00 00 00 00	 call	 _isalpha
  001bc	83 c4 04	 add	 esp, 4
  001bf	85 c0		 test	 eax, eax
  001c1	0f 84 84 00 00
	00		 je	 $LN5@GetToken

; 127  : 		{
; 128  : 			p=&TokenString[0];
; 129  : 			*p=ch;
; 130  : 			p++;
; 131  : 
; 132  : 			while ( ((ch=getc(SMDFile)) != -1) && ( (ch == 0x2E) || (ch == 0x5F) || (isalnum(ch) != 0) ) )

  001c7	a1 00 00 00 00	 mov	 eax, DWORD PTR _SMDFile
  001cc	50		 push	 eax
  001cd	88 1d 00 00 00
	00		 mov	 BYTE PTR _TokenString, bl
  001d3	be 01 00 00 00	 mov	 esi, OFFSET _TokenString+1
  001d8	e8 00 00 00 00	 call	 _getc
  001dd	8a d8		 mov	 bl, al
  001df	83 c4 04	 add	 esp, 4
  001e2	80 fb ff	 cmp	 bl, -1
  001e5	74 33		 je	 SHORT $LN3@GetToken
$LL4@GetToken:
  001e7	80 fb 2e	 cmp	 bl, 46			; 0000002eH
  001ea	74 15		 je	 SHORT $LN2@GetToken
  001ec	80 fb 5f	 cmp	 bl, 95			; 0000005fH
  001ef	74 10		 je	 SHORT $LN2@GetToken
  001f1	0f be cb	 movsx	 ecx, bl
  001f4	51		 push	 ecx
  001f5	e8 00 00 00 00	 call	 _isalnum
  001fa	83 c4 04	 add	 esp, 4
  001fd	85 c0		 test	 eax, eax
  001ff	74 19		 je	 SHORT $LN3@GetToken
$LN2@GetToken:
  00201	8b 15 00 00 00
	00		 mov	 edx, DWORD PTR _SMDFile

; 133  : 			{
; 134  : 				*p=ch;

  00207	88 1e		 mov	 BYTE PTR [esi], bl
  00209	52		 push	 edx

; 135  : 				p++;

  0020a	46		 inc	 esi
  0020b	e8 00 00 00 00	 call	 _getc
  00210	8a d8		 mov	 bl, al
  00212	83 c4 04	 add	 esp, 4
  00215	80 fb ff	 cmp	 bl, -1
  00218	75 cd		 jne	 SHORT $LL4@GetToken
$LN3@GetToken:

; 136  : 				
; 137  : 			}
; 138  : 
; 139  : 			ungetc(ch, SMDFile);

  0021a	a1 00 00 00 00	 mov	 eax, DWORD PTR _SMDFile
  0021f	0f be cb	 movsx	 ecx, bl
  00222	50		 push	 eax
  00223	51		 push	 ecx
$LN49@GetToken:
  00224	e8 00 00 00 00	 call	 _ungetc
  00229	83 c4 08	 add	 esp, 8
$LN7@GetToken:

; 140  : 			*p=0;

  0022c	c6 06 00	 mov	 BYTE PTR [esi], 0
  0022f	5e		 pop	 esi

; 141  : 			CurrentToken=NAME;

  00230	c7 05 00 00 00
	00 00 00 00 00	 mov	 DWORD PTR _CurrentToken, 0

; 142  : 			return CurrentToken;

  0023a	33 c0		 xor	 eax, eax
  0023c	5b		 pop	 ebx

; 147  : 		}
; 148  : 		break;
; 149  : 
; 150  : 	}
; 151  : 
; 152  : 	return NAME;
; 153  : }

  0023d	8b 4d fc	 mov	 ecx, DWORD PTR __$ArrayPad$[ebp]
  00240	33 cd		 xor	 ecx, ebp
  00242	e8 00 00 00 00	 call	 @__security_check_cookie@4
  00247	8b e5		 mov	 esp, ebp
  00249	5d		 pop	 ebp
  0024a	c3		 ret	 0
$LN5@GetToken:

; 143  : 		}
; 144  : 		else
; 145  : 		{
; 146  : 			return CurrentToken = SMD_ERROR; // '<'

  0024b	b8 3c 00 00 00	 mov	 eax, 60			; 0000003cH
$LN48@GetToken:

; 147  : 		}
; 148  : 		break;
; 149  : 
; 150  : 	}
; 151  : 
; 152  : 	return NAME;
; 153  : }

  00250	8b 4d fc	 mov	 ecx, DWORD PTR __$ArrayPad$[ebp]
  00253	5e		 pop	 esi
  00254	33 cd		 xor	 ecx, ebp
  00256	a3 00 00 00 00	 mov	 DWORD PTR _CurrentToken, eax
  0025b	5b		 pop	 ebx
  0025c	e8 00 00 00 00	 call	 @__security_check_cookie@4
  00261	8b e5		 mov	 esp, ebp
  00263	5d		 pop	 ebp
  00264	c3		 ret	 0
  00265	8d 49 00	 npad	 3
$LN50@GetToken:
  00268	00 00 00 00	 DD	 $LN10@GetToken
  0026c	00 00 00 00	 DD	 $LN19@GetToken
  00270	00 00 00 00	 DD	 $LN17@GetToken
  00274	00 00 00 00	 DD	 $LN14@GetToken
  00278	00 00 00 00	 DD	 $LN18@GetToken
  0027c	00 00 00 00	 DD	 $LN16@GetToken
  00280	00 00 00 00	 DD	 $LN15@GetToken
  00284	00 00 00 00	 DD	 $LN6@GetToken
$LN46@GetToken:
  00288	00		 DB	 0
  00289	01		 DB	 1
  0028a	07		 DB	 7
  0028b	07		 DB	 7
  0028c	07		 DB	 7
  0028d	07		 DB	 7
  0028e	07		 DB	 7
  0028f	07		 DB	 7
  00290	07		 DB	 7
  00291	07		 DB	 7
  00292	02		 DB	 2
  00293	03		 DB	 3
  00294	03		 DB	 3
  00295	07		 DB	 7
  00296	03		 DB	 3
  00297	03		 DB	 3
  00298	03		 DB	 3
  00299	03		 DB	 3
  0029a	03		 DB	 3
  0029b	03		 DB	 3
  0029c	03		 DB	 3
  0029d	03		 DB	 3
  0029e	03		 DB	 3
  0029f	03		 DB	 3
  002a0	07		 DB	 7
  002a1	04		 DB	 4
  002a2	07		 DB	 7
  002a3	07		 DB	 7
  002a4	07		 DB	 7
  002a5	07		 DB	 7
  002a6	07		 DB	 7
  002a7	07		 DB	 7
  002a8	07		 DB	 7
  002a9	07		 DB	 7
  002aa	07		 DB	 7
  002ab	07		 DB	 7
  002ac	07		 DB	 7
  002ad	07		 DB	 7
  002ae	07		 DB	 7
  002af	07		 DB	 7
  002b0	07		 DB	 7
  002b1	07		 DB	 7
  002b2	07		 DB	 7
  002b3	07		 DB	 7
  002b4	07		 DB	 7
  002b5	07		 DB	 7
  002b6	07		 DB	 7
  002b7	07		 DB	 7
  002b8	07		 DB	 7
  002b9	07		 DB	 7
  002ba	07		 DB	 7
  002bb	07		 DB	 7
  002bc	07		 DB	 7
  002bd	07		 DB	 7
  002be	07		 DB	 7
  002bf	07		 DB	 7
  002c0	07		 DB	 7
  002c1	07		 DB	 7
  002c2	07		 DB	 7
  002c3	07		 DB	 7
  002c4	07		 DB	 7
  002c5	07		 DB	 7
  002c6	07		 DB	 7
  002c7	07		 DB	 7
  002c8	07		 DB	 7
  002c9	07		 DB	 7
  002ca	07		 DB	 7
  002cb	07		 DB	 7
  002cc	07		 DB	 7
  002cd	07		 DB	 7
  002ce	07		 DB	 7
  002cf	07		 DB	 7
  002d0	07		 DB	 7
  002d1	07		 DB	 7
  002d2	07		 DB	 7
  002d3	07		 DB	 7
  002d4	07		 DB	 7
  002d5	07		 DB	 7
  002d6	07		 DB	 7
  002d7	07		 DB	 7
  002d8	07		 DB	 7
  002d9	07		 DB	 7
  002da	07		 DB	 7
  002db	07		 DB	 7
  002dc	07		 DB	 7
  002dd	07		 DB	 7
  002de	07		 DB	 7
  002df	07		 DB	 7
  002e0	07		 DB	 7
  002e1	05		 DB	 5
  002e2	07		 DB	 7
  002e3	06		 DB	 6
?GetToken@@YA?AW4SMDToken@@XZ ENDP			; GetToken
_TEXT	ENDS
PUBLIC	??_7CXMasMonsterHerd@@6B@			; CXMasMonsterHerd::`vftable'
PUBLIC	??0CXMasMonsterHerd@@QAE@XZ			; CXMasMonsterHerd::CXMasMonsterHerd
PUBLIC	??_R4CXMasMonsterHerd@@6B@			; CXMasMonsterHerd::`RTTI Complete Object Locator'
PUBLIC	??_R0?AVCXMasMonsterHerd@@@8			; CXMasMonsterHerd `RTTI Type Descriptor'
PUBLIC	??_R3CXMasMonsterHerd@@8			; CXMasMonsterHerd::`RTTI Class Hierarchy Descriptor'
PUBLIC	??_R2CXMasMonsterHerd@@8			; CXMasMonsterHerd::`RTTI Base Class Array'
PUBLIC	??_R1A@?0A@EA@CXMasMonsterHerd@@8		; CXMasMonsterHerd::`RTTI Base Class Descriptor at (0,-1,0,64)'
PUBLIC	??_R1A@?0A@EA@MonsterHerd@@8			; MonsterHerd::`RTTI Base Class Descriptor at (0,-1,0,64)'
PUBLIC	??_R0?AVMonsterHerd@@@8				; MonsterHerd `RTTI Type Descriptor'
PUBLIC	??_R3MonsterHerd@@8				; MonsterHerd::`RTTI Class Hierarchy Descriptor'
PUBLIC	??_R2MonsterHerd@@8				; MonsterHerd::`RTTI Base Class Array'
PUBLIC	?Start@CXMasMonsterHerd@@UAEHXZ			; CXMasMonsterHerd::Start
PUBLIC	?MonsterHerdItemDrop@CXMasMonsterHerd@@UAEHPAUOBJECTSTRUCT@@@Z ; CXMasMonsterHerd::MonsterHerdItemDrop
EXTRN	??0MonsterHerd@@QAE@XZ:PROC			; MonsterHerd::MonsterHerd
EXTRN	??_7type_info@@6B@:QWORD			; type_info::`vftable'
EXTRN	??_ECXMasMonsterHerd@@UAEPAXI@Z:PROC		; CXMasMonsterHerd::`vector deleting destructor'
EXTRN	?SetTotalInfo@MonsterHerd@@UAEHHHHH@Z:PROC	; MonsterHerd::SetTotalInfo
EXTRN	?AddMonster@MonsterHerd@@UAEHHHH@Z:PROC		; MonsterHerd::AddMonster
EXTRN	?SetRadius@MonsterHerd@@UAEXH@Z:PROC		; MonsterHerd::SetRadius
EXTRN	?SetPosition@MonsterHerd@@UAEXEE@Z:PROC		; MonsterHerd::SetPosition
EXTRN	?Stop@MonsterHerd@@UAEXXZ:PROC			; MonsterHerd::Stop
EXTRN	?CheckInRadius@MonsterHerd@@UAEHH@Z:PROC	; MonsterHerd::CheckInRadius
EXTRN	?GetCurrentLocation@MonsterHerd@@UAEHAAE0@Z:PROC ; MonsterHerd::GetCurrentLocation
EXTRN	?GetRandomLocation@MonsterHerd@@UAEHAAE0@Z:PROC	; MonsterHerd::GetRandomLocation
EXTRN	?CheckLocation@MonsterHerd@@UAEHAAE0@Z:PROC	; MonsterHerd::CheckLocation
EXTRN	?MoveHerd@MonsterHerd@@UAEHEE@Z:PROC		; MonsterHerd::MoveHerd
EXTRN	?GetMonsterData@MonsterHerd@@UAEPAU_MONSTER_HERD_DATA@@H@Z:PROC ; MonsterHerd::GetMonsterData
EXTRN	?BeenAttacked@MonsterHerd@@UAEXPAUOBJECTSTRUCT@@0@Z:PROC ; MonsterHerd::BeenAttacked
EXTRN	?OrderAttack@MonsterHerd@@UAEXPAUOBJECTSTRUCT@@0H@Z:PROC ; MonsterHerd::OrderAttack
EXTRN	?MonsterBaseAct@MonsterHerd@@UAEXPAUOBJECTSTRUCT@@@Z:PROC ; MonsterHerd::MonsterBaseAct
EXTRN	?MonsterMoveAction@MonsterHerd@@UAEXPAUOBJECTSTRUCT@@@Z:PROC ; MonsterHerd::MonsterMoveAction
EXTRN	?MonsterAttackAction@MonsterHerd@@UAEXPAUOBJECTSTRUCT@@0@Z:PROC ; MonsterHerd::MonsterAttackAction
EXTRN	?MonsterDieAction@MonsterHerd@@UAEXPAUOBJECTSTRUCT@@@Z:PROC ; MonsterHerd::MonsterDieAction
EXTRN	?MonsterRegenAction@MonsterHerd@@UAEHPAUOBJECTSTRUCT@@@Z:PROC ; MonsterHerd::MonsterRegenAction
;	COMDAT ??_R2MonsterHerd@@8
; File e:\work\tranet_version\gs\gameserver\xmasattackevent.cpp
rdata$r	SEGMENT
??_R2MonsterHerd@@8 DD FLAT:??_R1A@?0A@EA@MonsterHerd@@8 ; MonsterHerd::`RTTI Base Class Array'
rdata$r	ENDS
;	COMDAT ??_R3MonsterHerd@@8
rdata$r	SEGMENT
??_R3MonsterHerd@@8 DD 00H				; MonsterHerd::`RTTI Class Hierarchy Descriptor'
	DD	00H
	DD	01H
	DD	FLAT:??_R2MonsterHerd@@8
rdata$r	ENDS
;	COMDAT ??_R0?AVMonsterHerd@@@8
_DATA	SEGMENT
??_R0?AVMonsterHerd@@@8 DD FLAT:??_7type_info@@6B@	; MonsterHerd `RTTI Type Descriptor'
	DD	00H
	DB	'.?AVMonsterHerd@@', 00H
_DATA	ENDS
;	COMDAT ??_R1A@?0A@EA@MonsterHerd@@8
rdata$r	SEGMENT
??_R1A@?0A@EA@MonsterHerd@@8 DD FLAT:??_R0?AVMonsterHerd@@@8 ; MonsterHerd::`RTTI Base Class Descriptor at (0,-1,0,64)'
	DD	00H
	DD	00H
	DD	0ffffffffH
	DD	00H
	DD	040H
	DD	FLAT:??_R3MonsterHerd@@8
rdata$r	ENDS
;	COMDAT ??_R1A@?0A@EA@CXMasMonsterHerd@@8
rdata$r	SEGMENT
??_R1A@?0A@EA@CXMasMonsterHerd@@8 DD FLAT:??_R0?AVCXMasMonsterHerd@@@8 ; CXMasMonsterHerd::`RTTI Base Class Descriptor at (0,-1,0,64)'
	DD	01H
	DD	00H
	DD	0ffffffffH
	DD	00H
	DD	040H
	DD	FLAT:??_R3CXMasMonsterHerd@@8
rdata$r	ENDS
;	COMDAT ??_R2CXMasMonsterHerd@@8
rdata$r	SEGMENT
??_R2CXMasMonsterHerd@@8 DD FLAT:??_R1A@?0A@EA@CXMasMonsterHerd@@8 ; CXMasMonsterHerd::`RTTI Base Class Array'
	DD	FLAT:??_R1A@?0A@EA@MonsterHerd@@8
rdata$r	ENDS
;	COMDAT ??_R3CXMasMonsterHerd@@8
rdata$r	SEGMENT
??_R3CXMasMonsterHerd@@8 DD 00H				; CXMasMonsterHerd::`RTTI Class Hierarchy Descriptor'
	DD	00H
	DD	02H
	DD	FLAT:??_R2CXMasMonsterHerd@@8
rdata$r	ENDS
;	COMDAT ??_R0?AVCXMasMonsterHerd@@@8
_DATA	SEGMENT
??_R0?AVCXMasMonsterHerd@@@8 DD FLAT:??_7type_info@@6B@	; CXMasMonsterHerd `RTTI Type Descriptor'
	DD	00H
	DB	'.?AVCXMasMonsterHerd@@', 00H
_DATA	ENDS
;	COMDAT ??_R4CXMasMonsterHerd@@6B@
rdata$r	SEGMENT
??_R4CXMasMonsterHerd@@6B@ DD 00H			; CXMasMonsterHerd::`RTTI Complete Object Locator'
	DD	00H
	DD	00H
	DD	FLAT:??_R0?AVCXMasMonsterHerd@@@8
	DD	FLAT:??_R3CXMasMonsterHerd@@8
rdata$r	ENDS
;	COMDAT ??_7CXMasMonsterHerd@@6B@
CONST	SEGMENT
??_7CXMasMonsterHerd@@6B@ DD FLAT:??_R4CXMasMonsterHerd@@6B@ ; CXMasMonsterHerd::`vftable'
	DD	FLAT:??_ECXMasMonsterHerd@@UAEPAXI@Z
	DD	FLAT:?SetTotalInfo@MonsterHerd@@UAEHHHHH@Z
	DD	FLAT:?AddMonster@MonsterHerd@@UAEHHHH@Z
	DD	FLAT:?SetRadius@MonsterHerd@@UAEXH@Z
	DD	FLAT:?SetPosition@MonsterHerd@@UAEXEE@Z
	DD	FLAT:?Start@CXMasMonsterHerd@@UAEHXZ
	DD	FLAT:?Stop@MonsterHerd@@UAEXXZ
	DD	FLAT:?CheckInRadius@MonsterHerd@@UAEHH@Z
	DD	FLAT:?GetCurrentLocation@MonsterHerd@@UAEHAAE0@Z
	DD	FLAT:?GetRandomLocation@MonsterHerd@@UAEHAAE0@Z
	DD	FLAT:?CheckLocation@MonsterHerd@@UAEHAAE0@Z
	DD	FLAT:?MoveHerd@MonsterHerd@@UAEHEE@Z
	DD	FLAT:?MonsterHerdItemDrop@CXMasMonsterHerd@@UAEHPAUOBJECTSTRUCT@@@Z
	DD	FLAT:?GetMonsterData@MonsterHerd@@UAEPAU_MONSTER_HERD_DATA@@H@Z
	DD	FLAT:?BeenAttacked@MonsterHerd@@UAEXPAUOBJECTSTRUCT@@0@Z
	DD	FLAT:?OrderAttack@MonsterHerd@@UAEXPAUOBJECTSTRUCT@@0H@Z
	DD	FLAT:?MonsterBaseAct@MonsterHerd@@UAEXPAUOBJECTSTRUCT@@@Z
	DD	FLAT:?MonsterMoveAction@MonsterHerd@@UAEXPAUOBJECTSTRUCT@@@Z
	DD	FLAT:?MonsterAttackAction@MonsterHerd@@UAEXPAUOBJECTSTRUCT@@0@Z
	DD	FLAT:?MonsterDieAction@MonsterHerd@@UAEXPAUOBJECTSTRUCT@@@Z
	DD	FLAT:?MonsterRegenAction@MonsterHerd@@UAEHPAUOBJECTSTRUCT@@@Z
; Function compile flags: /Ogtp
CONST	ENDS
;	COMDAT ??0CXMasMonsterHerd@@QAE@XZ
_TEXT	SEGMENT
??0CXMasMonsterHerd@@QAE@XZ PROC			; CXMasMonsterHerd::CXMasMonsterHerd, COMDAT
; _this$ = ecx

; 17   : {

  00000	56		 push	 esi
  00001	8b f1		 mov	 esi, ecx
  00003	e8 00 00 00 00	 call	 ??0MonsterHerd@@QAE@XZ	; MonsterHerd::MonsterHerd
  00008	c7 06 00 00 00
	00		 mov	 DWORD PTR [esi], OFFSET ??_7CXMasMonsterHerd@@6B@

; 18   : 	return;
; 19   : }

  0000e	8b c6		 mov	 eax, esi
  00010	5e		 pop	 esi
  00011	c3		 ret	 0
??0CXMasMonsterHerd@@QAE@XZ ENDP			; CXMasMonsterHerd::CXMasMonsterHerd
_TEXT	ENDS
PUBLIC	??1CXMasMonsterHerd@@UAE@XZ			; CXMasMonsterHerd::~CXMasMonsterHerd
EXTRN	??1MonsterHerd@@UAE@XZ:PROC			; MonsterHerd::~MonsterHerd
; Function compile flags: /Ogtp
;	COMDAT ??1CXMasMonsterHerd@@UAE@XZ
_TEXT	SEGMENT
??1CXMasMonsterHerd@@UAE@XZ PROC			; CXMasMonsterHerd::~CXMasMonsterHerd, COMDAT
; _this$ = ecx

; 22   : {

  00000	c7 01 00 00 00
	00		 mov	 DWORD PTR [ecx], OFFSET ??_7CXMasMonsterHerd@@6B@

; 23   : 	return;
; 24   : }

  00006	e9 00 00 00 00	 jmp	 ??1MonsterHerd@@UAE@XZ	; MonsterHerd::~MonsterHerd
??1CXMasMonsterHerd@@UAE@XZ ENDP			; CXMasMonsterHerd::~CXMasMonsterHerd
_TEXT	ENDS
EXTRN	?Start@MonsterHerd@@UAEHXZ:PROC			; MonsterHerd::Start
; Function compile flags: /Ogtp
;	COMDAT ?Start@CXMasMonsterHerd@@UAEHXZ
_TEXT	SEGMENT
?Start@CXMasMonsterHerd@@UAEHXZ PROC			; CXMasMonsterHerd::Start, COMDAT
; _this$ = ecx

; 28   : 	return this->MonsterHerd::Start();

  00000	e9 00 00 00 00	 jmp	 ?Start@MonsterHerd@@UAEHXZ ; MonsterHerd::Start
?Start@CXMasMonsterHerd@@UAEHXZ ENDP			; CXMasMonsterHerd::Start
_TEXT	ENDS
PUBLIC	??_C@_0DE@HBJLJHOD@?$FLXMasAttackEvent?$FN?5White?5Wizard?5K@ ; `string'
EXTRN	?MoneyItemDrop@MapClass@@QAEHHHH@Z:PROC		; MapClass::MoneyItemDrop
EXTRN	?MapC@@3PAVMapClass@@A:BYTE			; MapC
EXTRN	?g_iXMasAttackEventDropZen@@3HA:DWORD		; g_iXMasAttackEventDropZen
EXTRN	?ItemSerialCreateSend@@YAXHEEEHEEEEEHEE@Z:PROC	; ItemSerialCreateSend
EXTRN	?ItemGetNumberMake@@YAHHH@Z:PROC		; ItemGetNumberMake
EXTRN	?gObjMonsterTopHitDamageUser@@YAHPAUOBJECTSTRUCT@@@Z:PROC ; gObjMonsterTopHitDamageUser
EXTRN	?g_iXMasAttackEventDropRate@@3HA:DWORD		; g_iXMasAttackEventDropRate
EXTRN	?LogAddTD@@3P6AXPADZZA:DWORD			; LogAddTD
EXTRN	?gObjGiveRewardBuff@@YAHPAUOBJECTSTRUCT@@HPAHHEHEHH@Z:PROC ; gObjGiveRewardBuff
EXTRN	_rand:PROC
;	COMDAT ??_C@_0DE@HBJLJHOD@?$FLXMasAttackEvent?$FN?5White?5Wizard?5K@
CONST	SEGMENT
??_C@_0DE@HBJLJHOD@?$FLXMasAttackEvent?$FN?5White?5Wizard?5K@ DB '[XMasAt'
	DB	'tackEvent] White Wizard Killed, MapNumber:%d', 00H ; `string'
; Function compile flags: /Ogtp
CONST	ENDS
;	COMDAT ?MonsterHerdItemDrop@CXMasMonsterHerd@@UAEHPAUOBJECTSTRUCT@@@Z
_TEXT	SEGMENT
_count$213230 = 8					; size = 4
_lpObj$ = 8						; size = 4
?MonsterHerdItemDrop@CXMasMonsterHerd@@UAEHPAUOBJECTSTRUCT@@@Z PROC ; CXMasMonsterHerd::MonsterHerdItemDrop, COMDAT
; _this$ = ecx

; 32   : {

  00000	55		 push	 ebp
  00001	8b ec		 mov	 ebp, esp
  00003	56		 push	 esi

; 33   : 	if ( lpObj->Class != 476 && lpObj->Class != 466 )

  00004	8b 75 08	 mov	 esi, DWORD PTR _lpObj$[ebp]
  00007	0f b7 86 b8 00
	00 00		 movzx	 eax, WORD PTR [esi+184]
  0000e	b9 dc 01 00 00	 mov	 ecx, 476		; 000001dcH
  00013	66 3b c1	 cmp	 ax, cx
  00016	74 11		 je	 SHORT $LN11@MonsterHer
  00018	ba d2 01 00 00	 mov	 edx, 466		; 000001d2H
  0001d	66 3b c2	 cmp	 ax, dx
  00020	74 07		 je	 SHORT $LN11@MonsterHer

; 34   : 	{
; 35   : 		return FALSE;

  00022	33 c0		 xor	 eax, eax
  00024	5e		 pop	 esi

; 93   : 
; 94   : }

  00025	5d		 pop	 ebp
  00026	c2 04 00	 ret	 4
$LN11@MonsterHer:
  00029	57		 push	 edi

; 36   : 	}
; 37   : 
; 38   : 	if ( lpObj->Class == 476 )

  0002a	66 3b c1	 cmp	 ax, cx
  0002d	0f 85 cd 00 00
	00		 jne	 $LN10@MonsterHer

; 39   : 	{
; 40   : 		int count = 0;

  00033	c7 45 08 00 00
	00 00		 mov	 DWORD PTR _count$213230[ebp], 0

; 41   : 
; 42   : 		int irandreward = rand()%3; //loc3

  0003a	e8 00 00 00 00	 call	 _rand
  0003f	99		 cdq
  00040	b9 03 00 00 00	 mov	 ecx, 3
  00045	f7 f9		 idiv	 ecx

; 43   : 
; 44   : 		switch(irandreward)

  00047	83 ea 00	 sub	 edx, 0
  0004a	74 34		 je	 SHORT $LN7@MonsterHer
  0004c	4a		 dec	 edx
  0004d	74 19		 je	 SHORT $LN4@MonsterHer
  0004f	4a		 dec	 edx
  00050	0f 85 89 00 00
	00		 jne	 $LN8@MonsterHer

; 68   : 		case 2:
; 69   : 			gObjGiveRewardBuff(lpObj, 10, &count, AT_XMASS_MANA, 5, 500, 0, 0, 1800);

  00056	68 08 07 00 00	 push	 1800			; 00000708H
  0005b	52		 push	 edx
  0005c	52		 push	 edx
  0005d	68 f4 01 00 00	 push	 500			; 000001f4H
  00062	6a 05		 push	 5
  00064	6a 5d		 push	 93			; 0000005dH

; 70   : 			break;

  00066	eb 68		 jmp	 SHORT $LN15@MonsterHer
$LN4@MonsterHer:

; 63   : 			}
; 64   : 			break;
; 65   : 		case 1:
; 66   : 			gObjGiveRewardBuff(lpObj, 10, &count, AT_XMASS_HEALTH, 4, 500, 0, 0, 1800);

  00068	68 08 07 00 00	 push	 1800			; 00000708H
  0006d	6a 00		 push	 0
  0006f	6a 00		 push	 0
  00071	68 f4 01 00 00	 push	 500			; 000001f4H
  00076	6a 04		 push	 4
  00078	6a 5c		 push	 92			; 0000005cH
  0007a	8d 45 08	 lea	 eax, DWORD PTR _count$213230[ebp]
  0007d	50		 push	 eax

; 67   : 			break;

  0007e	eb 54		 jmp	 SHORT $LN16@MonsterHer
$LN7@MonsterHer:

; 45   : 		{
; 46   : 		case 0:
; 47   : 			{
; 48   : 				int iAttack = 0; //4
; 49   : 				int iDefense = 0; //5
; 50   : 
; 51   : 				if(lpObj->Level <= 180)

  00080	b9 b4 00 00 00	 mov	 ecx, 180		; 000000b4H
  00085	66 39 8e be 00
	00 00		 cmp	 WORD PTR [esi+190], cx
  0008c	7f 2b		 jg	 SHORT $LN6@MonsterHer

; 52   : 				{
; 53   : 					iAttack = lpObj->Level / 3 + 45;

  0008e	0f bf 8e be 00
	00 00		 movsx	 ecx, WORD PTR [esi+190]
  00095	b8 56 55 55 55	 mov	 eax, 1431655766		; 55555556H
  0009a	f7 e9		 imul	 ecx
  0009c	8b c2		 mov	 eax, edx
  0009e	c1 e8 1f	 shr	 eax, 31			; 0000001fH
  000a1	8d 7c 02 2d	 lea	 edi, DWORD PTR [edx+eax+45]

; 54   : 					iDefense = lpObj->Level / 5 + 50;

  000a5	b8 67 66 66 66	 mov	 eax, 1717986919		; 66666667H
  000aa	f7 e9		 imul	 ecx
  000ac	d1 fa		 sar	 edx, 1
  000ae	8b ca		 mov	 ecx, edx
  000b0	c1 e9 1f	 shr	 ecx, 31			; 0000001fH
  000b3	8d 44 0a 32	 lea	 eax, DWORD PTR [edx+ecx+50]

; 55   : 				}
; 56   : 				else

  000b7	eb 0a		 jmp	 SHORT $LN5@MonsterHer
$LN6@MonsterHer:

; 57   : 				{
; 58   : 					iAttack = 105;

  000b9	bf 69 00 00 00	 mov	 edi, 105		; 00000069H

; 59   : 					iDefense = 86;

  000be	b8 56 00 00 00	 mov	 eax, 86			; 00000056H
$LN5@MonsterHer:

; 60   : 				}
; 61   : 
; 62   : 				gObjGiveRewardBuff(lpObj, 10, &count, AT_XMASS_REWARD, 2, iAttack, 3, iDefense, 1800);

  000c3	68 08 07 00 00	 push	 1800			; 00000708H
  000c8	50		 push	 eax
  000c9	6a 03		 push	 3
  000cb	57		 push	 edi
  000cc	6a 02		 push	 2
  000ce	6a 5b		 push	 91			; 0000005bH
$LN15@MonsterHer:
  000d0	8d 55 08	 lea	 edx, DWORD PTR _count$213230[ebp]
  000d3	52		 push	 edx
$LN16@MonsterHer:
  000d4	6a 0a		 push	 10			; 0000000aH
  000d6	56		 push	 esi
  000d7	e8 00 00 00 00	 call	 ?gObjGiveRewardBuff@@YAHPAUOBJECTSTRUCT@@HPAHHEHEHH@Z ; gObjGiveRewardBuff
  000dc	83 c4 24	 add	 esp, 36			; 00000024H
$LN8@MonsterHer:

; 71   : 		};
; 72   : 
; 73   : 		LogAddTD("[XMasAttackEvent] White Wizard Killed, MapNumber:%d", lpObj->MapNumber);

  000df	0f b6 86 49 01
	00 00		 movzx	 eax, BYTE PTR [esi+329]
  000e6	50		 push	 eax
  000e7	68 00 00 00 00	 push	 OFFSET ??_C@_0DE@HBJLJHOD@?$FLXMasAttackEvent?$FN?5White?5Wizard?5K@
  000ec	ff 15 00 00 00
	00		 call	 DWORD PTR ?LogAddTD@@3P6AXPADZZA ; LogAddTD
  000f2	83 c4 08	 add	 esp, 8
  000f5	5f		 pop	 edi

; 74   : 		return TRUE;

  000f6	b8 01 00 00 00	 mov	 eax, 1
  000fb	5e		 pop	 esi

; 93   : 
; 94   : }

  000fc	5d		 pop	 ebp
  000fd	c2 04 00	 ret	 4
$LN10@MonsterHer:

; 75   : 	}
; 76   : 	
; 77   : 	if ( lpObj->Class == 466 )

  00100	b9 d2 01 00 00	 mov	 ecx, 466		; 000001d2H
  00105	66 3b c1	 cmp	 ax, cx
  00108	0f 85 9e 00 00
	00		 jne	 $LN2@MonsterHer

; 78   : 	{
; 79   : 		if ( (rand()%100) < g_iXMasAttackEventDropRate )

  0010e	e8 00 00 00 00	 call	 _rand
  00113	99		 cdq
  00114	b9 64 00 00 00	 mov	 ecx, 100		; 00000064H
  00119	f7 f9		 idiv	 ecx
  0011b	3b 15 00 00 00
	00		 cmp	 edx, DWORD PTR ?g_iXMasAttackEventDropRate@@3HA ; g_iXMasAttackEventDropRate
  00121	7d 4f		 jge	 SHORT $LN1@MonsterHer

; 80   : 		{
; 81   : 			int iIndex = gObjMonsterTopHitDamageUser(lpObj);

  00123	56		 push	 esi
  00124	e8 00 00 00 00	 call	 ?gObjMonsterTopHitDamageUser@@YAHPAUOBJECTSTRUCT@@@Z ; gObjMonsterTopHitDamageUser

; 82   : 			int itemnumber = ItemGetNumberMake(13, 66);

  00129	6a 42		 push	 66			; 00000042H
  0012b	6a 0d		 push	 13			; 0000000dH
  0012d	8b f8		 mov	 edi, eax
  0012f	e8 00 00 00 00	 call	 ?ItemGetNumberMake@@YAHHH@Z ; ItemGetNumberMake

; 83   : 
; 84   : 			ItemSerialCreateSend(lpObj->m_Index, lpObj->MapNumber, (BYTE)lpObj->X, (BYTE)lpObj->Y, itemnumber, 0, 10, 0, 0, 0, iIndex, 0, 0);

  00134	0f b6 96 46 01
	00 00		 movzx	 edx, BYTE PTR [esi+326]
  0013b	0f b6 8e 49 01
	00 00		 movzx	 ecx, BYTE PTR [esi+329]
  00142	6a 00		 push	 0
  00144	6a 00		 push	 0
  00146	57		 push	 edi
  00147	6a 00		 push	 0
  00149	6a 00		 push	 0
  0014b	6a 00		 push	 0
  0014d	6a 0a		 push	 10			; 0000000aH
  0014f	6a 00		 push	 0
  00151	50		 push	 eax
  00152	0f b6 86 44 01
	00 00		 movzx	 eax, BYTE PTR [esi+324]
  00159	52		 push	 edx
  0015a	8b 16		 mov	 edx, DWORD PTR [esi]
  0015c	50		 push	 eax
  0015d	51		 push	 ecx
  0015e	52		 push	 edx
  0015f	e8 00 00 00 00	 call	 ?ItemSerialCreateSend@@YAXHEEEHEEEEEHEE@Z ; ItemSerialCreateSend
  00164	83 c4 40	 add	 esp, 64			; 00000040H
  00167	5f		 pop	 edi

; 85   : 			return TRUE;

  00168	b8 01 00 00 00	 mov	 eax, 1
  0016d	5e		 pop	 esi

; 93   : 
; 94   : }

  0016e	5d		 pop	 ebp
  0016f	c2 04 00	 ret	 4
$LN1@MonsterHer:

; 86   : 		}
; 87   : 
; 88   : 		MapC[lpObj->MapNumber].MoneyItemDrop(g_iXMasAttackEventDropZen, (BYTE)lpObj->X, (BYTE)lpObj->Y);

  00172	0f b6 86 46 01
	00 00		 movzx	 eax, BYTE PTR [esi+326]
  00179	0f b6 8e 44 01
	00 00		 movzx	 ecx, BYTE PTR [esi+324]
  00180	8b 15 00 00 00
	00		 mov	 edx, DWORD PTR ?g_iXMasAttackEventDropZen@@3HA ; g_iXMasAttackEventDropZen
  00186	50		 push	 eax
  00187	51		 push	 ecx
  00188	0f b6 8e 49 01
	00 00		 movzx	 ecx, BYTE PTR [esi+329]
  0018f	69 c9 48 3d 05
	00		 imul	 ecx, 343368		; 00053d48H
  00195	52		 push	 edx
  00196	81 c1 00 00 00
	00		 add	 ecx, OFFSET ?MapC@@3PAVMapClass@@A ; MapC
  0019c	e8 00 00 00 00	 call	 ?MoneyItemDrop@MapClass@@QAEHHHH@Z ; MapClass::MoneyItemDrop
  001a1	5f		 pop	 edi

; 89   : 		return TRUE;

  001a2	b8 01 00 00 00	 mov	 eax, 1
  001a7	5e		 pop	 esi

; 93   : 
; 94   : }

  001a8	5d		 pop	 ebp
  001a9	c2 04 00	 ret	 4
$LN2@MonsterHer:
  001ac	5f		 pop	 edi

; 90   : 	}
; 91   : 
; 92   : 	return FALSE;

  001ad	33 c0		 xor	 eax, eax
  001af	5e		 pop	 esi

; 93   : 
; 94   : }

  001b0	5d		 pop	 ebp
  001b1	c2 04 00	 ret	 4
?MonsterHerdItemDrop@CXMasMonsterHerd@@UAEHPAUOBJECTSTRUCT@@@Z ENDP ; CXMasMonsterHerd::MonsterHerdItemDrop
_TEXT	ENDS
PUBLIC	?ProcState_None@CXMasAttackEvent@@QAEXXZ	; CXMasAttackEvent::ProcState_None
; Function compile flags: /Ogtp
;	COMDAT ?ProcState_None@CXMasAttackEvent@@QAEXXZ
_TEXT	SEGMENT
?ProcState_None@CXMasAttackEvent@@QAEXXZ PROC		; CXMasAttackEvent::ProcState_None, COMDAT
; _this$ = ecx

; 378  : 	return;
; 379  : }

  00000	c3		 ret	 0
?ProcState_None@CXMasAttackEvent@@QAEXXZ ENDP		; CXMasAttackEvent::ProcState_None
_TEXT	ENDS
PUBLIC	__$ArrayPad$
PUBLIC	?SendMessageA@CXMasAttackEvent@@QAEXPADH@Z	; CXMasAttackEvent::SendMessageA
EXTRN	?DataSendAll@@YAXPAEH@Z:PROC			; DataSendAll
EXTRN	?PHeadSetB@@YAXPAEEH@Z:PROC			; PHeadSetB
EXTRN	?AllSendServerMsg@@YAXPAD@Z:PROC		; AllSendServerMsg
EXTRN	__imp__wsprintfA:PROC
; Function compile flags: /Ogtp
;	COMDAT ?SendMessageA@CXMasAttackEvent@@QAEXPADH@Z
_TEXT	SEGMENT
_pMsg$ = -268						; size = 6
_szTemp$ = -260						; size = 256
__$ArrayPad$ = -4					; size = 4
_lpMsg$ = 8						; size = 4
_Effect$ = 12						; size = 4
?SendMessageA@CXMasAttackEvent@@QAEXPADH@Z PROC		; CXMasAttackEvent::SendMessageA, COMDAT
; _this$ = ecx

; 423  : {

  00000	55		 push	 ebp
  00001	8b ec		 mov	 ebp, esp
  00003	81 ec 0c 01 00
	00		 sub	 esp, 268		; 0000010cH
  00009	a1 00 00 00 00	 mov	 eax, DWORD PTR ___security_cookie
  0000e	33 c5		 xor	 eax, ebp
  00010	89 45 fc	 mov	 DWORD PTR __$ArrayPad$[ebp], eax
  00013	8b 45 08	 mov	 eax, DWORD PTR _lpMsg$[ebp]

; 424  : 	char szTemp[256];
; 425  : 
; 426  : 	wsprintf(szTemp, lpMsg);

  00016	50		 push	 eax
  00017	8d 85 fc fe ff
	ff		 lea	 eax, DWORD PTR _szTemp$[ebp]
  0001d	50		 push	 eax
  0001e	ff 15 00 00 00
	00		 call	 DWORD PTR __imp__wsprintfA

; 427  : 	AllSendServerMsg(szTemp);

  00024	8d 8d fc fe ff
	ff		 lea	 ecx, DWORD PTR _szTemp$[ebp]
  0002a	51		 push	 ecx
  0002b	e8 00 00 00 00	 call	 ?AllSendServerMsg@@YAXPAD@Z ; AllSendServerMsg

; 428  : 
; 429  : 	PMSG_ANS_CL_EFFECT pMsg;
; 430  : 
; 431  : 	PHeadSetB((LPBYTE)&pMsg, 0x9E, sizeof(pMsg));

  00030	6a 06		 push	 6
  00032	8d 95 f4 fe ff
	ff		 lea	 edx, DWORD PTR _pMsg$[ebp]
  00038	68 9e 00 00 00	 push	 158			; 0000009eH
  0003d	52		 push	 edx
  0003e	e8 00 00 00 00	 call	 ?PHeadSetB@@YAXPAEEH@Z	; PHeadSetB

; 432  : 	pMsg.wEffectNum = Effect;
; 433  : 
; 434  : 	DataSendAll((LPBYTE)&pMsg, pMsg.h.size);

  00043	0f b6 8d f5 fe
	ff ff		 movzx	 ecx, BYTE PTR _pMsg$[ebp+1]
  0004a	66 8b 45 0c	 mov	 ax, WORD PTR _Effect$[ebp]
  0004e	51		 push	 ecx
  0004f	8d 95 f4 fe ff
	ff		 lea	 edx, DWORD PTR _pMsg$[ebp]
  00055	52		 push	 edx
  00056	66 89 85 f8 fe
	ff ff		 mov	 WORD PTR _pMsg$[ebp+4], ax
  0005d	e8 00 00 00 00	 call	 ?DataSendAll@@YAXPAEH@Z	; DataSendAll

; 435  : }

  00062	8b 4d fc	 mov	 ecx, DWORD PTR __$ArrayPad$[ebp]
  00065	33 cd		 xor	 ecx, ebp
  00067	83 c4 20	 add	 esp, 32			; 00000020H
  0006a	e8 00 00 00 00	 call	 @__security_check_cookie@4
  0006f	8b e5		 mov	 esp, ebp
  00071	5d		 pop	 ebp
  00072	c2 08 00	 ret	 8
?SendMessageA@CXMasAttackEvent@@QAEXPADH@Z ENDP		; CXMasAttackEvent::SendMessageA
_TEXT	ENDS
PUBLIC	?GetX@CXMasMonsterHerd@@QAEEXZ			; CXMasMonsterHerd::GetX
; Function compile flags: /Ogtp
;	COMDAT ?GetX@CXMasMonsterHerd@@QAEEXZ
_TEXT	SEGMENT
?GetX@CXMasMonsterHerd@@QAEEXZ PROC			; CXMasMonsterHerd::GetX, COMDAT
; _this$ = ecx

; 526  : 	return this->m_iCUR_X;

  00000	8a 41 0c	 mov	 al, BYTE PTR [ecx+12]

; 527  : }

  00003	c3		 ret	 0
?GetX@CXMasMonsterHerd@@QAEEXZ ENDP			; CXMasMonsterHerd::GetX
_TEXT	ENDS
PUBLIC	?GetY@CXMasMonsterHerd@@QAEEXZ			; CXMasMonsterHerd::GetY
; Function compile flags: /Ogtp
;	COMDAT ?GetY@CXMasMonsterHerd@@QAEEXZ
_TEXT	SEGMENT
?GetY@CXMasMonsterHerd@@QAEEXZ PROC			; CXMasMonsterHerd::GetY, COMDAT
; _this$ = ecx

; 531  : 	return this->m_iCUR_Y;

  00000	8a 41 10	 mov	 al, BYTE PTR [ecx+16]

; 532  : }

  00003	c3		 ret	 0
?GetY@CXMasMonsterHerd@@QAEEXZ ENDP			; CXMasMonsterHerd::GetY
_TEXT	ENDS
PUBLIC	?GetMapNumber@CXMasMonsterHerd@@QAEHXZ		; CXMasMonsterHerd::GetMapNumber
; Function compile flags: /Ogtp
;	COMDAT ?GetMapNumber@CXMasMonsterHerd@@QAEHXZ
_TEXT	SEGMENT
?GetMapNumber@CXMasMonsterHerd@@QAEHXZ PROC		; CXMasMonsterHerd::GetMapNumber, COMDAT
; _this$ = ecx

; 536  : 	return this->m_iMapNumber;

  00000	8b 41 08	 mov	 eax, DWORD PTR [ecx+8]

; 537  : }

  00003	c3		 ret	 0
?GetMapNumber@CXMasMonsterHerd@@QAEHXZ ENDP		; CXMasMonsterHerd::GetMapNumber
_TEXT	ENDS
PUBLIC	?SetState_None@CXMasAttackEvent@@QAEXXZ		; CXMasAttackEvent::SetState_None
; Function compile flags: /Ogtp
;	COMDAT ?SetState_None@CXMasAttackEvent@@QAEXXZ
_TEXT	SEGMENT
?SetState_None@CXMasAttackEvent@@QAEXXZ PROC		; CXMasAttackEvent::SetState_None, COMDAT
; _this$ = ecx

; 541  : 	this->StopEvent();

  00000	8b 01		 mov	 eax, DWORD PTR [ecx]
  00002	8b 50 0c	 mov	 edx, DWORD PTR [eax+12]
  00005	ff e2		 jmp	 edx
?SetState_None@CXMasAttackEvent@@QAEXXZ ENDP		; CXMasAttackEvent::SetState_None
_TEXT	ENDS
PUBLIC	?SetState_Playing@CXMasAttackEvent@@QAEXXZ	; CXMasAttackEvent::SetState_Playing
EXTRN	?SetMiliSeconds@CEventTimer@@QAEXH@Z:PROC	; CEventTimer::SetMiliSeconds
; Function compile flags: /Ogtp
;	COMDAT ?SetState_Playing@CXMasAttackEvent@@QAEXXZ
_TEXT	SEGMENT
?SetState_Playing@CXMasAttackEvent@@QAEXXZ PROC		; CXMasAttackEvent::SetState_Playing, COMDAT
; _this$ = ecx

; 559  : {

  00000	56		 push	 esi
  00001	8b f1		 mov	 esi, ecx

; 560  : 	this->m_EventTimer.SetMiliSeconds(this->m_iTIME_MIN_PLAY);

  00003	8b 86 84 00 00
	00		 mov	 eax, DWORD PTR [esi+132]
  00009	50		 push	 eax
  0000a	8d 4e 58	 lea	 ecx, DWORD PTR [esi+88]
  0000d	e8 00 00 00 00	 call	 ?SetMiliSeconds@CEventTimer@@QAEXH@Z ; CEventTimer::SetMiliSeconds

; 561  : 	this->StartEvent();

  00012	8b 16		 mov	 edx, DWORD PTR [esi]
  00014	8b 42 08	 mov	 eax, DWORD PTR [edx+8]
  00017	8b ce		 mov	 ecx, esi
  00019	5e		 pop	 esi
  0001a	ff e0		 jmp	 eax
?SetState_Playing@CXMasAttackEvent@@QAEXXZ ENDP		; CXMasAttackEvent::SetState_Playing
_TEXT	ENDS
PUBLIC	?EventLog@CXMasAttackEvent@@QAEXPADHEE@Z	; CXMasAttackEvent::EventLog
; Function compile flags: /Ogtp
;	COMDAT ?EventLog@CXMasAttackEvent@@QAEXPADHEE@Z
_TEXT	SEGMENT
_Msg$ = 8						; size = 4
_MapNumber$ = 12					; size = 4
_cX$ = 16						; size = 1
_cY$ = 20						; size = 1
?EventLog@CXMasAttackEvent@@QAEXPADHEE@Z PROC		; CXMasAttackEvent::EventLog, COMDAT
; _this$ = ecx

; 604  : }

  00000	c2 10 00	 ret	 16			; 00000010H
?EventLog@CXMasAttackEvent@@QAEXPADHEE@Z ENDP		; CXMasAttackEvent::EventLog
_TEXT	ENDS
PUBLIC	?MonsterHerdMoveCheck@CXMasAttackEvent@@QAEHPAVCXMasMonsterHerd@@PAUXMASMONSTER_MAP_INFO@@@Z ; CXMasAttackEvent::MonsterHerdMoveCheck
; Function compile flags: /Ogtp
;	COMDAT ?MonsterHerdMoveCheck@CXMasAttackEvent@@QAEHPAVCXMasMonsterHerd@@PAUXMASMONSTER_MAP_INFO@@@Z
_TEXT	SEGMENT
_iRandY$ = -16						; size = 1
_iRandX$ = -12						; size = 1
_iCount$ = -8						; size = 4
_iCY$ = -2						; size = 1
_iCX$ = -1						; size = 1
_vtHerdInfo$ = 8					; size = 4
_MonsterMapInfo$ = 12					; size = 4
?MonsterHerdMoveCheck@CXMasAttackEvent@@QAEHPAVCXMasMonsterHerd@@PAUXMASMONSTER_MAP_INFO@@@Z PROC ; CXMasAttackEvent::MonsterHerdMoveCheck, COMDAT
; _this$ = ecx

; 657  : {

  00000	55		 push	 ebp
  00001	8b ec		 mov	 ebp, esp
  00003	83 ec 10	 sub	 esp, 16			; 00000010H
  00006	57		 push	 edi
  00007	8b f9		 mov	 edi, ecx

; 658  : 	int iCount = 1000; //2
; 659  : 	BYTE iRandX; //3
; 660  : 	BYTE iRandY; //4
; 661  : 	BYTE iCX; //5
; 662  : 	BYTE iCY; //6
; 663  : 
; 664  : 	if(vtHerdInfo->GetCurrentLocation(iCX, iCY) == FALSE)

  00009	8b 4d 08	 mov	 ecx, DWORD PTR _vtHerdInfo$[ebp]
  0000c	8b 01		 mov	 eax, DWORD PTR [ecx]
  0000e	8b 40 20	 mov	 eax, DWORD PTR [eax+32]
  00011	8d 55 fe	 lea	 edx, DWORD PTR _iCY$[ebp]
  00014	52		 push	 edx
  00015	8d 55 ff	 lea	 edx, DWORD PTR _iCX$[ebp]
  00018	52		 push	 edx
  00019	c7 45 f8 e8 03
	00 00		 mov	 DWORD PTR _iCount$[ebp], 1000 ; 000003e8H
  00020	ff d0		 call	 eax
  00022	85 c0		 test	 eax, eax
  00024	75 07		 jne	 SHORT $LN17@MonsterHer@2
  00026	5f		 pop	 edi

; 688  : }

  00027	8b e5		 mov	 esp, ebp
  00029	5d		 pop	 ebp
  0002a	c2 08 00	 ret	 8
$LN17@MonsterHer@2:
  0002d	53		 push	 ebx
  0002e	56		 push	 esi

; 665  : 	{
; 666  : 		return FALSE;

  0002f	8b 75 0c	 mov	 esi, DWORD PTR _MonsterMapInfo$[ebp]
$LL7@MonsterHer@2:

; 667  : 	}
; 668  : 
; 669  : 	while(iCount-- != 0)

  00032	ff 4d f8	 dec	 DWORD PTR _iCount$[ebp]

; 670  : 	{
; 671  : 		iRandX = (rand() % this->m_iMOVE_RAND_SIZE) * ( (rand() % 3 -1) * -1 ) + iCX;

  00035	e8 00 00 00 00	 call	 _rand
  0003a	99		 cdq
  0003b	f7 7f 74	 idiv	 DWORD PTR [edi+116]
  0003e	8b da		 mov	 ebx, edx
  00040	e8 00 00 00 00	 call	 _rand
  00045	99		 cdq
  00046	b9 03 00 00 00	 mov	 ecx, 3
  0004b	f7 f9		 idiv	 ecx
  0004d	8b c2		 mov	 eax, edx
  0004f	8a 55 ff	 mov	 dl, BYTE PTR _iCX$[ebp]
  00052	fe c8		 dec	 al
  00054	f6 eb		 imul	 bl
  00056	2a d0		 sub	 dl, al
  00058	88 55 f4	 mov	 BYTE PTR _iRandX$[ebp], dl

; 672  : 		iRandY = (rand() % this->m_iMOVE_RAND_SIZE) * ( (rand() % 3 -1) * -1 ) + iCY;

  0005b	e8 00 00 00 00	 call	 _rand
  00060	99		 cdq
  00061	f7 7f 74	 idiv	 DWORD PTR [edi+116]
  00064	8b da		 mov	 ebx, edx
  00066	e8 00 00 00 00	 call	 _rand
  0006b	99		 cdq
  0006c	b9 03 00 00 00	 mov	 ecx, 3
  00071	f7 f9		 idiv	 ecx
  00073	8a 4d fe	 mov	 cl, BYTE PTR _iCY$[ebp]
  00076	8b c2		 mov	 eax, edx
  00078	fe c8		 dec	 al
  0007a	f6 eb		 imul	 bl
  0007c	2a c8		 sub	 cl, al

; 673  : 
; 674  : 		if ( iRandX < MonsterMapInfo->m_iMinX || iRandX > MonsterMapInfo->m_iMaxX )

  0007e	0f b6 45 f4	 movzx	 eax, BYTE PTR _iRandX$[ebp]
  00082	88 4d f0	 mov	 BYTE PTR _iRandY$[ebp], cl
  00085	3b 46 04	 cmp	 eax, DWORD PTR [esi+4]
  00088	7c 2a		 jl	 SHORT $LN2@MonsterHer@2
  0008a	3b 46 0c	 cmp	 eax, DWORD PTR [esi+12]
  0008d	7f 25		 jg	 SHORT $LN2@MonsterHer@2

; 675  : 			continue;
; 676  : 
; 677  : 		if ( iRandY < MonsterMapInfo->m_iMinY || iRandY > MonsterMapInfo->m_iMaxY )

  0008f	0f b6 c1	 movzx	 eax, cl
  00092	3b 46 08	 cmp	 eax, DWORD PTR [esi+8]
  00095	7c 1d		 jl	 SHORT $LN2@MonsterHer@2
  00097	3b 46 10	 cmp	 eax, DWORD PTR [esi+16]
  0009a	7f 18		 jg	 SHORT $LN2@MonsterHer@2

; 678  : 			continue;
; 679  : 
; 680  : 		if ( vtHerdInfo->CheckLocation(iRandX, iRandY) != FALSE )

  0009c	8b 5d 08	 mov	 ebx, DWORD PTR _vtHerdInfo$[ebp]
  0009f	8b 13		 mov	 edx, DWORD PTR [ebx]
  000a1	8b 52 28	 mov	 edx, DWORD PTR [edx+40]
  000a4	8d 45 f0	 lea	 eax, DWORD PTR _iRandY$[ebp]
  000a7	50		 push	 eax
  000a8	8d 4d f4	 lea	 ecx, DWORD PTR _iRandX$[ebp]
  000ab	51		 push	 ecx
  000ac	8b cb		 mov	 ecx, ebx
  000ae	ff d2		 call	 edx
  000b0	85 c0		 test	 eax, eax
  000b2	75 0d		 jne	 SHORT $LN14@MonsterHer@2
$LN2@MonsterHer@2:

; 667  : 	}
; 668  : 
; 669  : 	while(iCount-- != 0)

  000b4	83 7d f8 00	 cmp	 DWORD PTR _iCount$[ebp], 0
  000b8	0f 85 74 ff ff
	ff		 jne	 $LL7@MonsterHer@2
  000be	8b 5d 08	 mov	 ebx, DWORD PTR _vtHerdInfo$[ebp]
$LN14@MonsterHer@2:

; 681  : 		{
; 682  : 			break;
; 683  : 		}
; 684  : 	}
; 685  : 
; 686  : 	vtHerdInfo->MoveHerd(iRandX, iRandY);

  000c1	8b 4d f0	 mov	 ecx, DWORD PTR _iRandY$[ebp]
  000c4	8b 03		 mov	 eax, DWORD PTR [ebx]
  000c6	8b 55 f4	 mov	 edx, DWORD PTR _iRandX$[ebp]
  000c9	8b 40 2c	 mov	 eax, DWORD PTR [eax+44]
  000cc	51		 push	 ecx
  000cd	52		 push	 edx
  000ce	8b cb		 mov	 ecx, ebx
  000d0	ff d0		 call	 eax
  000d2	5e		 pop	 esi
  000d3	5b		 pop	 ebx

; 687  : 	return TRUE;

  000d4	b8 01 00 00 00	 mov	 eax, 1
  000d9	5f		 pop	 edi

; 688  : }

  000da	8b e5		 mov	 esp, ebp
  000dc	5d		 pop	 ebp
  000dd	c2 08 00	 ret	 8
?MonsterHerdMoveCheck@CXMasAttackEvent@@QAEHPAVCXMasMonsterHerd@@PAUXMASMONSTER_MAP_INFO@@@Z ENDP ; CXMasAttackEvent::MonsterHerdMoveCheck
_TEXT	ENDS
PUBLIC	?End_Menual@CXMasAttackEvent@@UAEXXZ		; CXMasAttackEvent::End_Menual
; Function compile flags: /Ogtp
;	COMDAT ?End_Menual@CXMasAttackEvent@@UAEXXZ
_TEXT	SEGMENT
?End_Menual@CXMasAttackEvent@@UAEXXZ PROC		; CXMasAttackEvent::End_Menual, COMDAT
; _this$ = ecx

; 803  : 	this->SetMenualStart(FALSE);

  00000	8b 01		 mov	 eax, DWORD PTR [ecx]
  00002	8b 50 14	 mov	 edx, DWORD PTR [eax+20]
  00005	6a 00		 push	 0
  00007	ff d2		 call	 edx

; 804  : }

  00009	c3		 ret	 0
?End_Menual@CXMasAttackEvent@@UAEXXZ ENDP		; CXMasAttackEvent::End_Menual
_TEXT	ENDS
PUBLIC	?empty@?$vector@UXMASMONSTER_EVENT_TIME@@V?$allocator@UXMASMONSTER_EVENT_TIME@@@std@@@std@@QBE_NXZ ; std::vector<XMASMONSTER_EVENT_TIME,std::allocator<XMASMONSTER_EVENT_TIME> >::empty
; Function compile flags: /Ogtp
; File d:\program files (x86)\microsoft visual studio 10.0\vc\include\vector
;	COMDAT ?empty@?$vector@UXMASMONSTER_EVENT_TIME@@V?$allocator@UXMASMONSTER_EVENT_TIME@@@std@@@std@@QBE_NXZ
_TEXT	SEGMENT
?empty@?$vector@UXMASMONSTER_EVENT_TIME@@V?$allocator@UXMASMONSTER_EVENT_TIME@@@std@@@std@@QBE_NXZ PROC ; std::vector<XMASMONSTER_EVENT_TIME,std::allocator<XMASMONSTER_EVENT_TIME> >::empty, COMDAT
; _this$ = ecx

; 889  : 		return (this->_Myfirst == this->_Mylast);

  00000	8b 01		 mov	 eax, DWORD PTR [ecx]
  00002	33 d2		 xor	 edx, edx
  00004	3b 41 04	 cmp	 eax, DWORD PTR [ecx+4]
  00007	0f 94 c0	 sete	 al

; 890  : 		}

  0000a	c3		 ret	 0
?empty@?$vector@UXMASMONSTER_EVENT_TIME@@V?$allocator@UXMASMONSTER_EVENT_TIME@@@std@@@std@@QBE_NXZ ENDP ; std::vector<XMASMONSTER_EVENT_TIME,std::allocator<XMASMONSTER_EVENT_TIME> >::empty
_TEXT	ENDS
PUBLIC	?empty@?$vector@UXMASMONSTER_DATA@@V?$allocator@UXMASMONSTER_DATA@@@std@@@std@@QBE_NXZ ; std::vector<XMASMONSTER_DATA,std::allocator<XMASMONSTER_DATA> >::empty
; Function compile flags: /Ogtp
;	COMDAT ?empty@?$vector@UXMASMONSTER_DATA@@V?$allocator@UXMASMONSTER_DATA@@@std@@@std@@QBE_NXZ
_TEXT	SEGMENT
?empty@?$vector@UXMASMONSTER_DATA@@V?$allocator@UXMASMONSTER_DATA@@@std@@@std@@QBE_NXZ PROC ; std::vector<XMASMONSTER_DATA,std::allocator<XMASMONSTER_DATA> >::empty, COMDAT
; _this$ = ecx

; 889  : 		return (this->_Myfirst == this->_Mylast);

  00000	8b 01		 mov	 eax, DWORD PTR [ecx]
  00002	33 d2		 xor	 edx, edx
  00004	3b 41 04	 cmp	 eax, DWORD PTR [ecx+4]
  00007	0f 94 c0	 sete	 al

; 890  : 		}

  0000a	c3		 ret	 0
?empty@?$vector@UXMASMONSTER_DATA@@V?$allocator@UXMASMONSTER_DATA@@@std@@@std@@QBE_NXZ ENDP ; std::vector<XMASMONSTER_DATA,std::allocator<XMASMONSTER_DATA> >::empty
_TEXT	ENDS
PUBLIC	?size@?$vector@PAVCXMasMonsterHerd@@V?$allocator@PAVCXMasMonsterHerd@@@std@@@std@@QBEIXZ ; std::vector<CXMasMonsterHerd *,std::allocator<CXMasMonsterHerd *> >::size
; Function compile flags: /Ogtp
;	COMDAT ?size@?$vector@PAVCXMasMonsterHerd@@V?$allocator@PAVCXMasMonsterHerd@@@std@@@std@@QBEIXZ
_TEXT	SEGMENT
?size@?$vector@PAVCXMasMonsterHerd@@V?$allocator@PAVCXMasMonsterHerd@@@std@@@std@@QBEIXZ PROC ; std::vector<CXMasMonsterHerd *,std::allocator<CXMasMonsterHerd *> >::size, COMDAT
; _this$ = ecx

; 879  : 		return (this->_Mylast - this->_Myfirst);

  00000	8b 41 04	 mov	 eax, DWORD PTR [ecx+4]
  00003	2b 01		 sub	 eax, DWORD PTR [ecx]
  00005	c1 f8 02	 sar	 eax, 2

; 880  : 		}

  00008	c3		 ret	 0
?size@?$vector@PAVCXMasMonsterHerd@@V?$allocator@PAVCXMasMonsterHerd@@@std@@@std@@QBEIXZ ENDP ; std::vector<CXMasMonsterHerd *,std::allocator<CXMasMonsterHerd *> >::size
_TEXT	ENDS
PUBLIC	??A?$vector@PAVCXMasMonsterHerd@@V?$allocator@PAVCXMasMonsterHerd@@@std@@@std@@QAEAAPAVCXMasMonsterHerd@@I@Z ; std::vector<CXMasMonsterHerd *,std::allocator<CXMasMonsterHerd *> >::operator[]
; Function compile flags: /Ogtp
;	COMDAT ??A?$vector@PAVCXMasMonsterHerd@@V?$allocator@PAVCXMasMonsterHerd@@@std@@@std@@QAEAAPAVCXMasMonsterHerd@@I@Z
_TEXT	SEGMENT
__Pos$ = 8						; size = 4
??A?$vector@PAVCXMasMonsterHerd@@V?$allocator@PAVCXMasMonsterHerd@@@std@@@std@@QAEAAPAVCXMasMonsterHerd@@I@Z PROC ; std::vector<CXMasMonsterHerd *,std::allocator<CXMasMonsterHerd *> >::operator[], COMDAT
; _this$ = ecx

; 928  : 		{	// subscript mutable sequence

  00000	55		 push	 ebp
  00001	8b ec		 mov	 ebp, esp

; 929  :  #if _ITERATOR_DEBUG_LEVEL == 2
; 930  : 		if (size() <= _Pos)
; 931  : 			{	// report error
; 932  : 			_DEBUG_ERROR("vector subscript out of range");
; 933  : 			_SCL_SECURE_OUT_OF_RANGE;
; 934  : 			}
; 935  : 
; 936  :  #elif _ITERATOR_DEBUG_LEVEL == 1
; 937  : 		_SCL_SECURE_VALIDATE_RANGE(_Pos < size());
; 938  :  #endif /* _ITERATOR_DEBUG_LEVEL */
; 939  : 
; 940  : 		return (*(this->_Myfirst + _Pos));

  00003	8b 01		 mov	 eax, DWORD PTR [ecx]
  00005	8b 4d 08	 mov	 ecx, DWORD PTR __Pos$[ebp]
  00008	8d 04 88	 lea	 eax, DWORD PTR [eax+ecx*4]

; 941  : 		}

  0000b	5d		 pop	 ebp
  0000c	c2 04 00	 ret	 4
??A?$vector@PAVCXMasMonsterHerd@@V?$allocator@PAVCXMasMonsterHerd@@@std@@@std@@QAEAAPAVCXMasMonsterHerd@@I@Z ENDP ; std::vector<CXMasMonsterHerd *,std::allocator<CXMasMonsterHerd *> >::operator[]
_TEXT	ENDS
PUBLIC	?size@?$vector@UXMASMONSTER_MAP_INFO@@V?$allocator@UXMASMONSTER_MAP_INFO@@@std@@@std@@QBEIXZ ; std::vector<XMASMONSTER_MAP_INFO,std::allocator<XMASMONSTER_MAP_INFO> >::size
; Function compile flags: /Ogtp
;	COMDAT ?size@?$vector@UXMASMONSTER_MAP_INFO@@V?$allocator@UXMASMONSTER_MAP_INFO@@@std@@@std@@QBEIXZ
_TEXT	SEGMENT
?size@?$vector@UXMASMONSTER_MAP_INFO@@V?$allocator@UXMASMONSTER_MAP_INFO@@@std@@@std@@QBEIXZ PROC ; std::vector<XMASMONSTER_MAP_INFO,std::allocator<XMASMONSTER_MAP_INFO> >::size, COMDAT
; _this$ = ecx

; 879  : 		return (this->_Mylast - this->_Myfirst);

  00000	8b 51 04	 mov	 edx, DWORD PTR [ecx+4]
  00003	2b 11		 sub	 edx, DWORD PTR [ecx]
  00005	b8 67 66 66 66	 mov	 eax, 1717986919		; 66666667H
  0000a	f7 ea		 imul	 edx
  0000c	c1 fa 03	 sar	 edx, 3
  0000f	8b c2		 mov	 eax, edx
  00011	c1 e8 1f	 shr	 eax, 31			; 0000001fH
  00014	03 c2		 add	 eax, edx

; 880  : 		}

  00016	c3		 ret	 0
?size@?$vector@UXMASMONSTER_MAP_INFO@@V?$allocator@UXMASMONSTER_MAP_INFO@@@std@@@std@@QBEIXZ ENDP ; std::vector<XMASMONSTER_MAP_INFO,std::allocator<XMASMONSTER_MAP_INFO> >::size
_TEXT	ENDS
PUBLIC	??A?$vector@UXMASMONSTER_MAP_INFO@@V?$allocator@UXMASMONSTER_MAP_INFO@@@std@@@std@@QAEAAUXMASMONSTER_MAP_INFO@@I@Z ; std::vector<XMASMONSTER_MAP_INFO,std::allocator<XMASMONSTER_MAP_INFO> >::operator[]
; Function compile flags: /Ogtp
;	COMDAT ??A?$vector@UXMASMONSTER_MAP_INFO@@V?$allocator@UXMASMONSTER_MAP_INFO@@@std@@@std@@QAEAAUXMASMONSTER_MAP_INFO@@I@Z
_TEXT	SEGMENT
__Pos$ = 8						; size = 4
??A?$vector@UXMASMONSTER_MAP_INFO@@V?$allocator@UXMASMONSTER_MAP_INFO@@@std@@@std@@QAEAAUXMASMONSTER_MAP_INFO@@I@Z PROC ; std::vector<XMASMONSTER_MAP_INFO,std::allocator<XMASMONSTER_MAP_INFO> >::operator[], COMDAT
; _this$ = ecx

; 928  : 		{	// subscript mutable sequence

  00000	55		 push	 ebp
  00001	8b ec		 mov	 ebp, esp

; 929  :  #if _ITERATOR_DEBUG_LEVEL == 2
; 930  : 		if (size() <= _Pos)
; 931  : 			{	// report error
; 932  : 			_DEBUG_ERROR("vector subscript out of range");
; 933  : 			_SCL_SECURE_OUT_OF_RANGE;
; 934  : 			}
; 935  : 
; 936  :  #elif _ITERATOR_DEBUG_LEVEL == 1
; 937  : 		_SCL_SECURE_VALIDATE_RANGE(_Pos < size());
; 938  :  #endif /* _ITERATOR_DEBUG_LEVEL */
; 939  : 
; 940  : 		return (*(this->_Myfirst + _Pos));

  00003	8b 45 08	 mov	 eax, DWORD PTR __Pos$[ebp]
  00006	8b 09		 mov	 ecx, DWORD PTR [ecx]
  00008	8d 04 80	 lea	 eax, DWORD PTR [eax+eax*4]
  0000b	8d 04 81	 lea	 eax, DWORD PTR [ecx+eax*4]

; 941  : 		}

  0000e	5d		 pop	 ebp
  0000f	c2 04 00	 ret	 4
??A?$vector@UXMASMONSTER_MAP_INFO@@V?$allocator@UXMASMONSTER_MAP_INFO@@@std@@@std@@QAEAAUXMASMONSTER_MAP_INFO@@I@Z ENDP ; std::vector<XMASMONSTER_MAP_INFO,std::allocator<XMASMONSTER_MAP_INFO> >::operator[]
_TEXT	ENDS
PUBLIC	?_Inside@?$vector@UXMASMONSTER_EVENT_TIME@@V?$allocator@UXMASMONSTER_EVENT_TIME@@@std@@@std@@IBE_NPBUXMASMONSTER_EVENT_TIME@@@Z ; std::vector<XMASMONSTER_EVENT_TIME,std::allocator<XMASMONSTER_EVENT_TIME> >::_Inside
; Function compile flags: /Ogtp
;	COMDAT ?_Inside@?$vector@UXMASMONSTER_EVENT_TIME@@V?$allocator@UXMASMONSTER_EVENT_TIME@@@std@@@std@@IBE_NPBUXMASMONSTER_EVENT_TIME@@@Z
_TEXT	SEGMENT
__Ptr$ = 8						; size = 4
?_Inside@?$vector@UXMASMONSTER_EVENT_TIME@@V?$allocator@UXMASMONSTER_EVENT_TIME@@@std@@@std@@IBE_NPBUXMASMONSTER_EVENT_TIME@@@Z PROC ; std::vector<XMASMONSTER_EVENT_TIME,std::allocator<XMASMONSTER_EVENT_TIME> >::_Inside, COMDAT
; _this$ = ecx

; 1285 : 		{	// test if _Ptr points inside vector

  00000	55		 push	 ebp
  00001	8b ec		 mov	 ebp, esp

; 1286 : 		return (_Ptr < this->_Mylast && this->_Myfirst <= _Ptr);

  00003	8b 45 08	 mov	 eax, DWORD PTR __Ptr$[ebp]
  00006	3b 41 04	 cmp	 eax, DWORD PTR [ecx+4]
  00009	73 0d		 jae	 SHORT $LN3@Inside
  0000b	39 01		 cmp	 DWORD PTR [ecx], eax
  0000d	77 09		 ja	 SHORT $LN3@Inside
  0000f	b8 01 00 00 00	 mov	 eax, 1

; 1287 : 		}

  00014	5d		 pop	 ebp
  00015	c2 04 00	 ret	 4
$LN3@Inside:

; 1286 : 		return (_Ptr < this->_Mylast && this->_Myfirst <= _Ptr);

  00018	33 c0		 xor	 eax, eax

; 1287 : 		}

  0001a	5d		 pop	 ebp
  0001b	c2 04 00	 ret	 4
?_Inside@?$vector@UXMASMONSTER_EVENT_TIME@@V?$allocator@UXMASMONSTER_EVENT_TIME@@@std@@@std@@IBE_NPBUXMASMONSTER_EVENT_TIME@@@Z ENDP ; std::vector<XMASMONSTER_EVENT_TIME,std::allocator<XMASMONSTER_EVENT_TIME> >::_Inside
_TEXT	ENDS
PUBLIC	?_Orphan_range@?$vector@UXMASMONSTER_EVENT_TIME@@V?$allocator@UXMASMONSTER_EVENT_TIME@@@std@@@std@@IBEXPAUXMASMONSTER_EVENT_TIME@@0@Z ; std::vector<XMASMONSTER_EVENT_TIME,std::allocator<XMASMONSTER_EVENT_TIME> >::_Orphan_range
; Function compile flags: /Ogtp
;	COMDAT ?_Orphan_range@?$vector@UXMASMONSTER_EVENT_TIME@@V?$allocator@UXMASMONSTER_EVENT_TIME@@@std@@@std@@IBEXPAUXMASMONSTER_EVENT_TIME@@0@Z
_TEXT	SEGMENT
___formal$ = 8						; size = 4
___formal$ = 12						; size = 4
?_Orphan_range@?$vector@UXMASMONSTER_EVENT_TIME@@V?$allocator@UXMASMONSTER_EVENT_TIME@@@std@@@std@@IBEXPAUXMASMONSTER_EVENT_TIME@@0@Z PROC ; std::vector<XMASMONSTER_EVENT_TIME,std::allocator<XMASMONSTER_EVENT_TIME> >::_Orphan_range, COMDAT
; _this$ = ecx

; 1454 : 		}

  00000	c2 08 00	 ret	 8
?_Orphan_range@?$vector@UXMASMONSTER_EVENT_TIME@@V?$allocator@UXMASMONSTER_EVENT_TIME@@@std@@@std@@IBEXPAUXMASMONSTER_EVENT_TIME@@0@Z ENDP ; std::vector<XMASMONSTER_EVENT_TIME,std::allocator<XMASMONSTER_EVENT_TIME> >::_Orphan_range
_TEXT	ENDS
PUBLIC	?_Inside@?$vector@UXMASMONSTER_DATA@@V?$allocator@UXMASMONSTER_DATA@@@std@@@std@@IBE_NPBUXMASMONSTER_DATA@@@Z ; std::vector<XMASMONSTER_DATA,std::allocator<XMASMONSTER_DATA> >::_Inside
; Function compile flags: /Ogtp
;	COMDAT ?_Inside@?$vector@UXMASMONSTER_DATA@@V?$allocator@UXMASMONSTER_DATA@@@std@@@std@@IBE_NPBUXMASMONSTER_DATA@@@Z
_TEXT	SEGMENT
__Ptr$ = 8						; size = 4
?_Inside@?$vector@UXMASMONSTER_DATA@@V?$allocator@UXMASMONSTER_DATA@@@std@@@std@@IBE_NPBUXMASMONSTER_DATA@@@Z PROC ; std::vector<XMASMONSTER_DATA,std::allocator<XMASMONSTER_DATA> >::_Inside, COMDAT
; _this$ = ecx

; 1285 : 		{	// test if _Ptr points inside vector

  00000	55		 push	 ebp
  00001	8b ec		 mov	 ebp, esp

; 1286 : 		return (_Ptr < this->_Mylast && this->_Myfirst <= _Ptr);

  00003	8b 45 08	 mov	 eax, DWORD PTR __Ptr$[ebp]
  00006	3b 41 04	 cmp	 eax, DWORD PTR [ecx+4]
  00009	73 0d		 jae	 SHORT $LN3@Inside@2
  0000b	39 01		 cmp	 DWORD PTR [ecx], eax
  0000d	77 09		 ja	 SHORT $LN3@Inside@2
  0000f	b8 01 00 00 00	 mov	 eax, 1

; 1287 : 		}

  00014	5d		 pop	 ebp
  00015	c2 04 00	 ret	 4
$LN3@Inside@2:

; 1286 : 		return (_Ptr < this->_Mylast && this->_Myfirst <= _Ptr);

  00018	33 c0		 xor	 eax, eax

; 1287 : 		}

  0001a	5d		 pop	 ebp
  0001b	c2 04 00	 ret	 4
?_Inside@?$vector@UXMASMONSTER_DATA@@V?$allocator@UXMASMONSTER_DATA@@@std@@@std@@IBE_NPBUXMASMONSTER_DATA@@@Z ENDP ; std::vector<XMASMONSTER_DATA,std::allocator<XMASMONSTER_DATA> >::_Inside
_TEXT	ENDS
PUBLIC	?_Orphan_range@?$vector@UXMASMONSTER_DATA@@V?$allocator@UXMASMONSTER_DATA@@@std@@@std@@IBEXPAUXMASMONSTER_DATA@@0@Z ; std::vector<XMASMONSTER_DATA,std::allocator<XMASMONSTER_DATA> >::_Orphan_range
; Function compile flags: /Ogtp
;	COMDAT ?_Orphan_range@?$vector@UXMASMONSTER_DATA@@V?$allocator@UXMASMONSTER_DATA@@@std@@@std@@IBEXPAUXMASMONSTER_DATA@@0@Z
_TEXT	SEGMENT
___formal$ = 8						; size = 4
___formal$ = 12						; size = 4
?_Orphan_range@?$vector@UXMASMONSTER_DATA@@V?$allocator@UXMASMONSTER_DATA@@@std@@@std@@IBEXPAUXMASMONSTER_DATA@@0@Z PROC ; std::vector<XMASMONSTER_DATA,std::allocator<XMASMONSTER_DATA> >::_Orphan_range, COMDAT
; _this$ = ecx

; 1454 : 		}

  00000	c2 08 00	 ret	 8
?_Orphan_range@?$vector@UXMASMONSTER_DATA@@V?$allocator@UXMASMONSTER_DATA@@@std@@@std@@IBEXPAUXMASMONSTER_DATA@@0@Z ENDP ; std::vector<XMASMONSTER_DATA,std::allocator<XMASMONSTER_DATA> >::_Orphan_range
_TEXT	ENDS
PUBLIC	?_Inside@?$vector@PAVCXMasMonsterHerd@@V?$allocator@PAVCXMasMonsterHerd@@@std@@@std@@IBE_NPBQAVCXMasMonsterHerd@@@Z ; std::vector<CXMasMonsterHerd *,std::allocator<CXMasMonsterHerd *> >::_Inside
; Function compile flags: /Ogtp
;	COMDAT ?_Inside@?$vector@PAVCXMasMonsterHerd@@V?$allocator@PAVCXMasMonsterHerd@@@std@@@std@@IBE_NPBQAVCXMasMonsterHerd@@@Z
_TEXT	SEGMENT
__Ptr$ = 8						; size = 4
?_Inside@?$vector@PAVCXMasMonsterHerd@@V?$allocator@PAVCXMasMonsterHerd@@@std@@@std@@IBE_NPBQAVCXMasMonsterHerd@@@Z PROC ; std::vector<CXMasMonsterHerd *,std::allocator<CXMasMonsterHerd *> >::_Inside, COMDAT
; _this$ = ecx

; 1285 : 		{	// test if _Ptr points inside vector

  00000	55		 push	 ebp
  00001	8b ec		 mov	 ebp, esp

; 1286 : 		return (_Ptr < this->_Mylast && this->_Myfirst <= _Ptr);

  00003	8b 45 08	 mov	 eax, DWORD PTR __Ptr$[ebp]
  00006	3b 41 04	 cmp	 eax, DWORD PTR [ecx+4]
  00009	73 0d		 jae	 SHORT $LN3@Inside@3
  0000b	39 01		 cmp	 DWORD PTR [ecx], eax
  0000d	77 09		 ja	 SHORT $LN3@Inside@3
  0000f	b8 01 00 00 00	 mov	 eax, 1

; 1287 : 		}

  00014	5d		 pop	 ebp
  00015	c2 04 00	 ret	 4
$LN3@Inside@3:

; 1286 : 		return (_Ptr < this->_Mylast && this->_Myfirst <= _Ptr);

  00018	33 c0		 xor	 eax, eax

; 1287 : 		}

  0001a	5d		 pop	 ebp
  0001b	c2 04 00	 ret	 4
?_Inside@?$vector@PAVCXMasMonsterHerd@@V?$allocator@PAVCXMasMonsterHerd@@@std@@@std@@IBE_NPBQAVCXMasMonsterHerd@@@Z ENDP ; std::vector<CXMasMonsterHerd *,std::allocator<CXMasMonsterHerd *> >::_Inside
_TEXT	ENDS
PUBLIC	?_Orphan_range@?$vector@PAVCXMasMonsterHerd@@V?$allocator@PAVCXMasMonsterHerd@@@std@@@std@@IBEXPAPAVCXMasMonsterHerd@@0@Z ; std::vector<CXMasMonsterHerd *,std::allocator<CXMasMonsterHerd *> >::_Orphan_range
; Function compile flags: /Ogtp
;	COMDAT ?_Orphan_range@?$vector@PAVCXMasMonsterHerd@@V?$allocator@PAVCXMasMonsterHerd@@@std@@@std@@IBEXPAPAVCXMasMonsterHerd@@0@Z
_TEXT	SEGMENT
___formal$ = 8						; size = 4
___formal$ = 12						; size = 4
?_Orphan_range@?$vector@PAVCXMasMonsterHerd@@V?$allocator@PAVCXMasMonsterHerd@@@std@@@std@@IBEXPAPAVCXMasMonsterHerd@@0@Z PROC ; std::vector<CXMasMonsterHerd *,std::allocator<CXMasMonsterHerd *> >::_Orphan_range, COMDAT
; _this$ = ecx

; 1454 : 		}

  00000	c2 08 00	 ret	 8
?_Orphan_range@?$vector@PAVCXMasMonsterHerd@@V?$allocator@PAVCXMasMonsterHerd@@@std@@@std@@IBEXPAPAVCXMasMonsterHerd@@0@Z ENDP ; std::vector<CXMasMonsterHerd *,std::allocator<CXMasMonsterHerd *> >::_Orphan_range
_TEXT	ENDS
PUBLIC	?_Inside@?$vector@UXMASMONSTER_MAP_INFO@@V?$allocator@UXMASMONSTER_MAP_INFO@@@std@@@std@@IBE_NPBUXMASMONSTER_MAP_INFO@@@Z ; std::vector<XMASMONSTER_MAP_INFO,std::allocator<XMASMONSTER_MAP_INFO> >::_Inside
; Function compile flags: /Ogtp
;	COMDAT ?_Inside@?$vector@UXMASMONSTER_MAP_INFO@@V?$allocator@UXMASMONSTER_MAP_INFO@@@std@@@std@@IBE_NPBUXMASMONSTER_MAP_INFO@@@Z
_TEXT	SEGMENT
__Ptr$ = 8						; size = 4
?_Inside@?$vector@UXMASMONSTER_MAP_INFO@@V?$allocator@UXMASMONSTER_MAP_INFO@@@std@@@std@@IBE_NPBUXMASMONSTER_MAP_INFO@@@Z PROC ; std::vector<XMASMONSTER_MAP_INFO,std::allocator<XMASMONSTER_MAP_INFO> >::_Inside, COMDAT
; _this$ = ecx

; 1285 : 		{	// test if _Ptr points inside vector

  00000	55		 push	 ebp
  00001	8b ec		 mov	 ebp, esp

; 1286 : 		return (_Ptr < this->_Mylast && this->_Myfirst <= _Ptr);

  00003	8b 45 08	 mov	 eax, DWORD PTR __Ptr$[ebp]
  00006	3b 41 04	 cmp	 eax, DWORD PTR [ecx+4]
  00009	73 0d		 jae	 SHORT $LN3@Inside@4
  0000b	39 01		 cmp	 DWORD PTR [ecx], eax
  0000d	77 09		 ja	 SHORT $LN3@Inside@4
  0000f	b8 01 00 00 00	 mov	 eax, 1

; 1287 : 		}

  00014	5d		 pop	 ebp
  00015	c2 04 00	 ret	 4
$LN3@Inside@4:

; 1286 : 		return (_Ptr < this->_Mylast && this->_Myfirst <= _Ptr);

  00018	33 c0		 xor	 eax, eax

; 1287 : 		}

  0001a	5d		 pop	 ebp
  0001b	c2 04 00	 ret	 4
?_Inside@?$vector@UXMASMONSTER_MAP_INFO@@V?$allocator@UXMASMONSTER_MAP_INFO@@@std@@@std@@IBE_NPBUXMASMONSTER_MAP_INFO@@@Z ENDP ; std::vector<XMASMONSTER_MAP_INFO,std::allocator<XMASMONSTER_MAP_INFO> >::_Inside
_TEXT	ENDS
PUBLIC	?_Orphan_range@?$vector@UXMASMONSTER_MAP_INFO@@V?$allocator@UXMASMONSTER_MAP_INFO@@@std@@@std@@IBEXPAUXMASMONSTER_MAP_INFO@@0@Z ; std::vector<XMASMONSTER_MAP_INFO,std::allocator<XMASMONSTER_MAP_INFO> >::_Orphan_range
; Function compile flags: /Ogtp
;	COMDAT ?_Orphan_range@?$vector@UXMASMONSTER_MAP_INFO@@V?$allocator@UXMASMONSTER_MAP_INFO@@@std@@@std@@IBEXPAUXMASMONSTER_MAP_INFO@@0@Z
_TEXT	SEGMENT
___formal$ = 8						; size = 4
___formal$ = 12						; size = 4
?_Orphan_range@?$vector@UXMASMONSTER_MAP_INFO@@V?$allocator@UXMASMONSTER_MAP_INFO@@@std@@@std@@IBEXPAUXMASMONSTER_MAP_INFO@@0@Z PROC ; std::vector<XMASMONSTER_MAP_INFO,std::allocator<XMASMONSTER_MAP_INFO> >::_Orphan_range, COMDAT
; _this$ = ecx

; 1454 : 		}

  00000	c2 08 00	 ret	 8
?_Orphan_range@?$vector@UXMASMONSTER_MAP_INFO@@V?$allocator@UXMASMONSTER_MAP_INFO@@@std@@@std@@IBEXPAUXMASMONSTER_MAP_INFO@@0@Z ENDP ; std::vector<XMASMONSTER_MAP_INFO,std::allocator<XMASMONSTER_MAP_INFO> >::_Orphan_range
_TEXT	ENDS
PUBLIC	??1?$_Vector_val@UXMASMONSTER_MAP_INFO@@V?$allocator@UXMASMONSTER_MAP_INFO@@@std@@@std@@QAE@XZ ; std::_Vector_val<XMASMONSTER_MAP_INFO,std::allocator<XMASMONSTER_MAP_INFO> >::~_Vector_val<XMASMONSTER_MAP_INFO,std::allocator<XMASMONSTER_MAP_INFO> >
; Function compile flags: /Ogtp
;	COMDAT ??1?$_Vector_val@UXMASMONSTER_MAP_INFO@@V?$allocator@UXMASMONSTER_MAP_INFO@@@std@@@std@@QAE@XZ
_TEXT	SEGMENT
??1?$_Vector_val@UXMASMONSTER_MAP_INFO@@V?$allocator@UXMASMONSTER_MAP_INFO@@@std@@@std@@QAE@XZ PROC ; std::_Vector_val<XMASMONSTER_MAP_INFO,std::allocator<XMASMONSTER_MAP_INFO> >::~_Vector_val<XMASMONSTER_MAP_INFO,std::allocator<XMASMONSTER_MAP_INFO> >, COMDAT
; _this$ = ecx

; 434  : 		}

  00000	c3		 ret	 0
??1?$_Vector_val@UXMASMONSTER_MAP_INFO@@V?$allocator@UXMASMONSTER_MAP_INFO@@@std@@@std@@QAE@XZ ENDP ; std::_Vector_val<XMASMONSTER_MAP_INFO,std::allocator<XMASMONSTER_MAP_INFO> >::~_Vector_val<XMASMONSTER_MAP_INFO,std::allocator<XMASMONSTER_MAP_INFO> >
_TEXT	ENDS
PUBLIC	??0?$allocator@UXMASMONSTER_MAP_INFO@@@std@@QAE@XZ ; std::allocator<XMASMONSTER_MAP_INFO>::allocator<XMASMONSTER_MAP_INFO>
; Function compile flags: /Ogtp
; File d:\program files (x86)\microsoft visual studio 10.0\vc\include\xmemory
;	COMDAT ??0?$allocator@UXMASMONSTER_MAP_INFO@@@std@@QAE@XZ
_TEXT	SEGMENT
??0?$allocator@UXMASMONSTER_MAP_INFO@@@std@@QAE@XZ PROC	; std::allocator<XMASMONSTER_MAP_INFO>::allocator<XMASMONSTER_MAP_INFO>, COMDAT
; _this$ = ecx

; 161  : 	_ALLOCATOR() _THROW0()

  00000	8b c1		 mov	 eax, ecx

; 162  : 		{	// construct default allocator (do nothing)
; 163  : 		}

  00002	c3		 ret	 0
??0?$allocator@UXMASMONSTER_MAP_INFO@@@std@@QAE@XZ ENDP	; std::allocator<XMASMONSTER_MAP_INFO>::allocator<XMASMONSTER_MAP_INFO>
_TEXT	ENDS
PUBLIC	??D?$_Vector_const_iterator@V?$_Vector_val@PAVCXMasMonsterHerd@@V?$allocator@PAVCXMasMonsterHerd@@@std@@@std@@@std@@QBEABQAVCXMasMonsterHerd@@XZ ; std::_Vector_const_iterator<std::_Vector_val<CXMasMonsterHerd *,std::allocator<CXMasMonsterHerd *> > >::operator*
; Function compile flags: /Ogtp
; File d:\program files (x86)\microsoft visual studio 10.0\vc\include\vector
;	COMDAT ??D?$_Vector_const_iterator@V?$_Vector_val@PAVCXMasMonsterHerd@@V?$allocator@PAVCXMasMonsterHerd@@@std@@@std@@@std@@QBEABQAVCXMasMonsterHerd@@XZ
_TEXT	SEGMENT
??D?$_Vector_const_iterator@V?$_Vector_val@PAVCXMasMonsterHerd@@V?$allocator@PAVCXMasMonsterHerd@@@std@@@std@@@std@@QBEABQAVCXMasMonsterHerd@@XZ PROC ; std::_Vector_const_iterator<std::_Vector_val<CXMasMonsterHerd *,std::allocator<CXMasMonsterHerd *> > >::operator*, COMDAT
; _this$ = ecx

; 64   :  #if _ITERATOR_DEBUG_LEVEL == 2
; 65   : 		if (this->_Getcont() == 0
; 66   : 			|| this->_Ptr == 0
; 67   : 			|| this->_Ptr < ((_Myvec *)this->_Getcont())->_Myfirst
; 68   : 			|| ((_Myvec *)this->_Getcont())->_Mylast <= this->_Ptr)
; 69   : 			{	// report error
; 70   : 			_DEBUG_ERROR("vector iterator not dereferencable");
; 71   : 			_SCL_SECURE_OUT_OF_RANGE;
; 72   : 			}
; 73   : 
; 74   :  #elif _ITERATOR_DEBUG_LEVEL == 1
; 75   : 		_SCL_SECURE_VALIDATE(this->_Getcont() != 0);
; 76   : 		_SCL_SECURE_VALIDATE_RANGE(
; 77   : 			this->_Ptr != 0
; 78   : 			&& ((_Myvec *)this->_Getcont())->_Myfirst <= this->_Ptr
; 79   : 			&& this->_Ptr < ((_Myvec *)this->_Getcont())->_Mylast);
; 80   :  #endif /* _ITERATOR_DEBUG_LEVEL */
; 81   : 
; 82   : 		__analysis_assume(this->_Ptr != 0);
; 83   : 
; 84   : 		return (*this->_Ptr);

  00000	8b 01		 mov	 eax, DWORD PTR [ecx]

; 85   : 		}

  00002	c3		 ret	 0
??D?$_Vector_const_iterator@V?$_Vector_val@PAVCXMasMonsterHerd@@V?$allocator@PAVCXMasMonsterHerd@@@std@@@std@@@std@@QBEABQAVCXMasMonsterHerd@@XZ ENDP ; std::_Vector_const_iterator<std::_Vector_val<CXMasMonsterHerd *,std::allocator<CXMasMonsterHerd *> > >::operator*
_TEXT	ENDS
PUBLIC	??E?$_Vector_const_iterator@V?$_Vector_val@PAVCXMasMonsterHerd@@V?$allocator@PAVCXMasMonsterHerd@@@std@@@std@@@std@@QAEAAV01@XZ ; std::_Vector_const_iterator<std::_Vector_val<CXMasMonsterHerd *,std::allocator<CXMasMonsterHerd *> > >::operator++
; Function compile flags: /Ogtp
;	COMDAT ??E?$_Vector_const_iterator@V?$_Vector_val@PAVCXMasMonsterHerd@@V?$allocator@PAVCXMasMonsterHerd@@@std@@@std@@@std@@QAEAAV01@XZ
_TEXT	SEGMENT
??E?$_Vector_const_iterator@V?$_Vector_val@PAVCXMasMonsterHerd@@V?$allocator@PAVCXMasMonsterHerd@@@std@@@std@@@std@@QAEAAV01@XZ PROC ; std::_Vector_const_iterator<std::_Vector_val<CXMasMonsterHerd *,std::allocator<CXMasMonsterHerd *> > >::operator++, COMDAT
; _this$ = ecx

; 93   : 		{	// preincrement

  00000	8b c1		 mov	 eax, ecx

; 94   :  #if _ITERATOR_DEBUG_LEVEL == 2
; 95   : 		if (this->_Getcont() == 0
; 96   : 			|| this->_Ptr == 0
; 97   : 			|| ((_Myvec *)this->_Getcont())->_Mylast <= this->_Ptr)
; 98   : 			{	// report error
; 99   : 			_DEBUG_ERROR("vector iterator not incrementable");
; 100  : 			_SCL_SECURE_OUT_OF_RANGE;
; 101  : 			}
; 102  : 
; 103  :  #elif _ITERATOR_DEBUG_LEVEL == 1
; 104  : 		_SCL_SECURE_VALIDATE(this->_Getcont() != 0);
; 105  : 		_SCL_SECURE_VALIDATE_RANGE(
; 106  : 			this->_Ptr != 0
; 107  : 			&& this->_Ptr < ((_Myvec *)this->_Getcont())->_Mylast);
; 108  :  #endif /* _ITERATOR_DEBUG_LEVEL */
; 109  : 
; 110  : 		++this->_Ptr;

  00002	83 00 04	 add	 DWORD PTR [eax], 4

; 111  : 		return (*this);
; 112  : 		}

  00005	c3		 ret	 0
??E?$_Vector_const_iterator@V?$_Vector_val@PAVCXMasMonsterHerd@@V?$allocator@PAVCXMasMonsterHerd@@@std@@@std@@@std@@QAEAAV01@XZ ENDP ; std::_Vector_const_iterator<std::_Vector_val<CXMasMonsterHerd *,std::allocator<CXMasMonsterHerd *> > >::operator++
_TEXT	ENDS
PUBLIC	??D?$_Vector_const_iterator@V?$_Vector_val@UXMASMONSTER_DATA@@V?$allocator@UXMASMONSTER_DATA@@@std@@@std@@@std@@QBEABUXMASMONSTER_DATA@@XZ ; std::_Vector_const_iterator<std::_Vector_val<XMASMONSTER_DATA,std::allocator<XMASMONSTER_DATA> > >::operator*
; Function compile flags: /Ogtp
;	COMDAT ??D?$_Vector_const_iterator@V?$_Vector_val@UXMASMONSTER_DATA@@V?$allocator@UXMASMONSTER_DATA@@@std@@@std@@@std@@QBEABUXMASMONSTER_DATA@@XZ
_TEXT	SEGMENT
??D?$_Vector_const_iterator@V?$_Vector_val@UXMASMONSTER_DATA@@V?$allocator@UXMASMONSTER_DATA@@@std@@@std@@@std@@QBEABUXMASMONSTER_DATA@@XZ PROC ; std::_Vector_const_iterator<std::_Vector_val<XMASMONSTER_DATA,std::allocator<XMASMONSTER_DATA> > >::operator*, COMDAT
; _this$ = ecx

; 64   :  #if _ITERATOR_DEBUG_LEVEL == 2
; 65   : 		if (this->_Getcont() == 0
; 66   : 			|| this->_Ptr == 0
; 67   : 			|| this->_Ptr < ((_Myvec *)this->_Getcont())->_Myfirst
; 68   : 			|| ((_Myvec *)this->_Getcont())->_Mylast <= this->_Ptr)
; 69   : 			{	// report error
; 70   : 			_DEBUG_ERROR("vector iterator not dereferencable");
; 71   : 			_SCL_SECURE_OUT_OF_RANGE;
; 72   : 			}
; 73   : 
; 74   :  #elif _ITERATOR_DEBUG_LEVEL == 1
; 75   : 		_SCL_SECURE_VALIDATE(this->_Getcont() != 0);
; 76   : 		_SCL_SECURE_VALIDATE_RANGE(
; 77   : 			this->_Ptr != 0
; 78   : 			&& ((_Myvec *)this->_Getcont())->_Myfirst <= this->_Ptr
; 79   : 			&& this->_Ptr < ((_Myvec *)this->_Getcont())->_Mylast);
; 80   :  #endif /* _ITERATOR_DEBUG_LEVEL */
; 81   : 
; 82   : 		__analysis_assume(this->_Ptr != 0);
; 83   : 
; 84   : 		return (*this->_Ptr);

  00000	8b 01		 mov	 eax, DWORD PTR [ecx]

; 85   : 		}

  00002	c3		 ret	 0
??D?$_Vector_const_iterator@V?$_Vector_val@UXMASMONSTER_DATA@@V?$allocator@UXMASMONSTER_DATA@@@std@@@std@@@std@@QBEABUXMASMONSTER_DATA@@XZ ENDP ; std::_Vector_const_iterator<std::_Vector_val<XMASMONSTER_DATA,std::allocator<XMASMONSTER_DATA> > >::operator*
_TEXT	ENDS
PUBLIC	??0?$_Vector_const_iterator@V?$_Vector_val@UXMASMONSTER_EVENT_TIME@@V?$allocator@UXMASMONSTER_EVENT_TIME@@@std@@@std@@@std@@QAE@XZ ; std::_Vector_const_iterator<std::_Vector_val<XMASMONSTER_EVENT_TIME,std::allocator<XMASMONSTER_EVENT_TIME> > >::_Vector_const_iterator<std::_Vector_val<XMASMONSTER_EVENT_TIME,std::allocator<XMASMONSTER_EVENT_TIME> > >
; Function compile flags: /Ogtp
;	COMDAT ??0?$_Vector_const_iterator@V?$_Vector_val@UXMASMONSTER_EVENT_TIME@@V?$allocator@UXMASMONSTER_EVENT_TIME@@@std@@@std@@@std@@QAE@XZ
_TEXT	SEGMENT
??0?$_Vector_const_iterator@V?$_Vector_val@UXMASMONSTER_EVENT_TIME@@V?$allocator@UXMASMONSTER_EVENT_TIME@@@std@@@std@@@std@@QAE@XZ PROC ; std::_Vector_const_iterator<std::_Vector_val<XMASMONSTER_EVENT_TIME,std::allocator<XMASMONSTER_EVENT_TIME> > >::_Vector_const_iterator<std::_Vector_val<XMASMONSTER_EVENT_TIME,std::allocator<XMASMONSTER_EVENT_TIME> > >, COMDAT
; _this$ = ecx

; 40   : 		{	// construct with null pointer

  00000	8b c1		 mov	 eax, ecx
  00002	c7 00 00 00 00
	00		 mov	 DWORD PTR [eax], 0

; 41   : 		}

  00008	c3		 ret	 0
??0?$_Vector_const_iterator@V?$_Vector_val@UXMASMONSTER_EVENT_TIME@@V?$allocator@UXMASMONSTER_EVENT_TIME@@@std@@@std@@@std@@QAE@XZ ENDP ; std::_Vector_const_iterator<std::_Vector_val<XMASMONSTER_EVENT_TIME,std::allocator<XMASMONSTER_EVENT_TIME> > >::_Vector_const_iterator<std::_Vector_val<XMASMONSTER_EVENT_TIME,std::allocator<XMASMONSTER_EVENT_TIME> > >
_TEXT	ENDS
PUBLIC	??D?$_Vector_const_iterator@V?$_Vector_val@UXMASMONSTER_EVENT_TIME@@V?$allocator@UXMASMONSTER_EVENT_TIME@@@std@@@std@@@std@@QBEABUXMASMONSTER_EVENT_TIME@@XZ ; std::_Vector_const_iterator<std::_Vector_val<XMASMONSTER_EVENT_TIME,std::allocator<XMASMONSTER_EVENT_TIME> > >::operator*
; Function compile flags: /Ogtp
;	COMDAT ??D?$_Vector_const_iterator@V?$_Vector_val@UXMASMONSTER_EVENT_TIME@@V?$allocator@UXMASMONSTER_EVENT_TIME@@@std@@@std@@@std@@QBEABUXMASMONSTER_EVENT_TIME@@XZ
_TEXT	SEGMENT
??D?$_Vector_const_iterator@V?$_Vector_val@UXMASMONSTER_EVENT_TIME@@V?$allocator@UXMASMONSTER_EVENT_TIME@@@std@@@std@@@std@@QBEABUXMASMONSTER_EVENT_TIME@@XZ PROC ; std::_Vector_const_iterator<std::_Vector_val<XMASMONSTER_EVENT_TIME,std::allocator<XMASMONSTER_EVENT_TIME> > >::operator*, COMDAT
; _this$ = ecx

; 64   :  #if _ITERATOR_DEBUG_LEVEL == 2
; 65   : 		if (this->_Getcont() == 0
; 66   : 			|| this->_Ptr == 0
; 67   : 			|| this->_Ptr < ((_Myvec *)this->_Getcont())->_Myfirst
; 68   : 			|| ((_Myvec *)this->_Getcont())->_Mylast <= this->_Ptr)
; 69   : 			{	// report error
; 70   : 			_DEBUG_ERROR("vector iterator not dereferencable");
; 71   : 			_SCL_SECURE_OUT_OF_RANGE;
; 72   : 			}
; 73   : 
; 74   :  #elif _ITERATOR_DEBUG_LEVEL == 1
; 75   : 		_SCL_SECURE_VALIDATE(this->_Getcont() != 0);
; 76   : 		_SCL_SECURE_VALIDATE_RANGE(
; 77   : 			this->_Ptr != 0
; 78   : 			&& ((_Myvec *)this->_Getcont())->_Myfirst <= this->_Ptr
; 79   : 			&& this->_Ptr < ((_Myvec *)this->_Getcont())->_Mylast);
; 80   :  #endif /* _ITERATOR_DEBUG_LEVEL */
; 81   : 
; 82   : 		__analysis_assume(this->_Ptr != 0);
; 83   : 
; 84   : 		return (*this->_Ptr);

  00000	8b 01		 mov	 eax, DWORD PTR [ecx]

; 85   : 		}

  00002	c3		 ret	 0
??D?$_Vector_const_iterator@V?$_Vector_val@UXMASMONSTER_EVENT_TIME@@V?$allocator@UXMASMONSTER_EVENT_TIME@@@std@@@std@@@std@@QBEABUXMASMONSTER_EVENT_TIME@@XZ ENDP ; std::_Vector_const_iterator<std::_Vector_val<XMASMONSTER_EVENT_TIME,std::allocator<XMASMONSTER_EVENT_TIME> > >::operator*
_TEXT	ENDS
PUBLIC	?capacity@?$vector@UXMASMONSTER_EVENT_TIME@@V?$allocator@UXMASMONSTER_EVENT_TIME@@@std@@@std@@QBEIXZ ; std::vector<XMASMONSTER_EVENT_TIME,std::allocator<XMASMONSTER_EVENT_TIME> >::capacity
; Function compile flags: /Ogtp
;	COMDAT ?capacity@?$vector@UXMASMONSTER_EVENT_TIME@@V?$allocator@UXMASMONSTER_EVENT_TIME@@@std@@@std@@QBEIXZ
_TEXT	SEGMENT
?capacity@?$vector@UXMASMONSTER_EVENT_TIME@@V?$allocator@UXMASMONSTER_EVENT_TIME@@@std@@@std@@QBEIXZ PROC ; std::vector<XMASMONSTER_EVENT_TIME,std::allocator<XMASMONSTER_EVENT_TIME> >::capacity, COMDAT
; _this$ = ecx

; 777  : 		return (this->_Myend - this->_Myfirst);

  00000	8b 41 08	 mov	 eax, DWORD PTR [ecx+8]
  00003	2b 01		 sub	 eax, DWORD PTR [ecx]
  00005	c1 f8 03	 sar	 eax, 3

; 778  : 		}

  00008	c3		 ret	 0
?capacity@?$vector@UXMASMONSTER_EVENT_TIME@@V?$allocator@UXMASMONSTER_EVENT_TIME@@@std@@@std@@QBEIXZ ENDP ; std::vector<XMASMONSTER_EVENT_TIME,std::allocator<XMASMONSTER_EVENT_TIME> >::capacity
_TEXT	ENDS
PUBLIC	?size@?$vector@UXMASMONSTER_EVENT_TIME@@V?$allocator@UXMASMONSTER_EVENT_TIME@@@std@@@std@@QBEIXZ ; std::vector<XMASMONSTER_EVENT_TIME,std::allocator<XMASMONSTER_EVENT_TIME> >::size
; Function compile flags: /Ogtp
;	COMDAT ?size@?$vector@UXMASMONSTER_EVENT_TIME@@V?$allocator@UXMASMONSTER_EVENT_TIME@@@std@@@std@@QBEIXZ
_TEXT	SEGMENT
?size@?$vector@UXMASMONSTER_EVENT_TIME@@V?$allocator@UXMASMONSTER_EVENT_TIME@@@std@@@std@@QBEIXZ PROC ; std::vector<XMASMONSTER_EVENT_TIME,std::allocator<XMASMONSTER_EVENT_TIME> >::size, COMDAT
; _this$ = ecx

; 879  : 		return (this->_Mylast - this->_Myfirst);

  00000	8b 41 04	 mov	 eax, DWORD PTR [ecx+4]
  00003	2b 01		 sub	 eax, DWORD PTR [ecx]
  00005	c1 f8 03	 sar	 eax, 3

; 880  : 		}

  00008	c3		 ret	 0
?size@?$vector@UXMASMONSTER_EVENT_TIME@@V?$allocator@UXMASMONSTER_EVENT_TIME@@@std@@@std@@QBEIXZ ENDP ; std::vector<XMASMONSTER_EVENT_TIME,std::allocator<XMASMONSTER_EVENT_TIME> >::size
_TEXT	ENDS
PUBLIC	??_C@_0BD@OLBABOEK@vector?$DMT?$DO?5too?5long?$AA@ ; `string'
PUBLIC	?_Xlen@?$vector@UXMASMONSTER_EVENT_TIME@@V?$allocator@UXMASMONSTER_EVENT_TIME@@@std@@@std@@IBEXXZ ; std::vector<XMASMONSTER_EVENT_TIME,std::allocator<XMASMONSTER_EVENT_TIME> >::_Xlen
EXTRN	?_Xlength_error@std@@YAXPBD@Z:PROC		; std::_Xlength_error
;	COMDAT ??_C@_0BD@OLBABOEK@vector?$DMT?$DO?5too?5long?$AA@
CONST	SEGMENT
??_C@_0BD@OLBABOEK@vector?$DMT?$DO?5too?5long?$AA@ DB 'vector<T> too long'
	DB	00H						; `string'
; Function compile flags: /Ogtp
CONST	ENDS
;	COMDAT ?_Xlen@?$vector@UXMASMONSTER_EVENT_TIME@@V?$allocator@UXMASMONSTER_EVENT_TIME@@@std@@@std@@IBEXXZ
_TEXT	SEGMENT
?_Xlen@?$vector@UXMASMONSTER_EVENT_TIME@@V?$allocator@UXMASMONSTER_EVENT_TIME@@@std@@@std@@IBEXXZ PROC ; std::vector<XMASMONSTER_EVENT_TIME,std::allocator<XMASMONSTER_EVENT_TIME> >::_Xlen, COMDAT
; _this$ = ecx

; 1427 : 		_Xlength_error("vector<T> too long");

  00000	68 00 00 00 00	 push	 OFFSET ??_C@_0BD@OLBABOEK@vector?$DMT?$DO?5too?5long?$AA@
  00005	e8 00 00 00 00	 call	 ?_Xlength_error@std@@YAXPBD@Z ; std::_Xlength_error
$LN4@Xlen:
$LN3@Xlen:
  0000a	cc		 int	 3
?_Xlen@?$vector@UXMASMONSTER_EVENT_TIME@@V?$allocator@UXMASMONSTER_EVENT_TIME@@@std@@@std@@IBEXXZ ENDP ; std::vector<XMASMONSTER_EVENT_TIME,std::allocator<XMASMONSTER_EVENT_TIME> >::_Xlen
_TEXT	ENDS
PUBLIC	?capacity@?$vector@UXMASMONSTER_DATA@@V?$allocator@UXMASMONSTER_DATA@@@std@@@std@@QBEIXZ ; std::vector<XMASMONSTER_DATA,std::allocator<XMASMONSTER_DATA> >::capacity
; Function compile flags: /Ogtp
;	COMDAT ?capacity@?$vector@UXMASMONSTER_DATA@@V?$allocator@UXMASMONSTER_DATA@@@std@@@std@@QBEIXZ
_TEXT	SEGMENT
?capacity@?$vector@UXMASMONSTER_DATA@@V?$allocator@UXMASMONSTER_DATA@@@std@@@std@@QBEIXZ PROC ; std::vector<XMASMONSTER_DATA,std::allocator<XMASMONSTER_DATA> >::capacity, COMDAT
; _this$ = ecx

; 777  : 		return (this->_Myend - this->_Myfirst);

  00000	8b 51 08	 mov	 edx, DWORD PTR [ecx+8]
  00003	2b 11		 sub	 edx, DWORD PTR [ecx]
  00005	b8 ab aa aa 2a	 mov	 eax, 715827883		; 2aaaaaabH
  0000a	f7 ea		 imul	 edx
  0000c	d1 fa		 sar	 edx, 1
  0000e	8b c2		 mov	 eax, edx
  00010	c1 e8 1f	 shr	 eax, 31			; 0000001fH
  00013	03 c2		 add	 eax, edx

; 778  : 		}

  00015	c3		 ret	 0
?capacity@?$vector@UXMASMONSTER_DATA@@V?$allocator@UXMASMONSTER_DATA@@@std@@@std@@QBEIXZ ENDP ; std::vector<XMASMONSTER_DATA,std::allocator<XMASMONSTER_DATA> >::capacity
_TEXT	ENDS
PUBLIC	?size@?$vector@UXMASMONSTER_DATA@@V?$allocator@UXMASMONSTER_DATA@@@std@@@std@@QBEIXZ ; std::vector<XMASMONSTER_DATA,std::allocator<XMASMONSTER_DATA> >::size
; Function compile flags: /Ogtp
;	COMDAT ?size@?$vector@UXMASMONSTER_DATA@@V?$allocator@UXMASMONSTER_DATA@@@std@@@std@@QBEIXZ
_TEXT	SEGMENT
?size@?$vector@UXMASMONSTER_DATA@@V?$allocator@UXMASMONSTER_DATA@@@std@@@std@@QBEIXZ PROC ; std::vector<XMASMONSTER_DATA,std::allocator<XMASMONSTER_DATA> >::size, COMDAT
; _this$ = ecx

; 879  : 		return (this->_Mylast - this->_Myfirst);

  00000	8b 51 04	 mov	 edx, DWORD PTR [ecx+4]
  00003	2b 11		 sub	 edx, DWORD PTR [ecx]
  00005	b8 ab aa aa 2a	 mov	 eax, 715827883		; 2aaaaaabH
  0000a	f7 ea		 imul	 edx
  0000c	d1 fa		 sar	 edx, 1
  0000e	8b c2		 mov	 eax, edx
  00010	c1 e8 1f	 shr	 eax, 31			; 0000001fH
  00013	03 c2		 add	 eax, edx

; 880  : 		}

  00015	c3		 ret	 0
?size@?$vector@UXMASMONSTER_DATA@@V?$allocator@UXMASMONSTER_DATA@@@std@@@std@@QBEIXZ ENDP ; std::vector<XMASMONSTER_DATA,std::allocator<XMASMONSTER_DATA> >::size
_TEXT	ENDS
PUBLIC	?_Xlen@?$vector@UXMASMONSTER_DATA@@V?$allocator@UXMASMONSTER_DATA@@@std@@@std@@IBEXXZ ; std::vector<XMASMONSTER_DATA,std::allocator<XMASMONSTER_DATA> >::_Xlen
; Function compile flags: /Ogtp
;	COMDAT ?_Xlen@?$vector@UXMASMONSTER_DATA@@V?$allocator@UXMASMONSTER_DATA@@@std@@@std@@IBEXXZ
_TEXT	SEGMENT
?_Xlen@?$vector@UXMASMONSTER_DATA@@V?$allocator@UXMASMONSTER_DATA@@@std@@@std@@IBEXXZ PROC ; std::vector<XMASMONSTER_DATA,std::allocator<XMASMONSTER_DATA> >::_Xlen, COMDAT
; _this$ = ecx

; 1427 : 		_Xlength_error("vector<T> too long");

  00000	68 00 00 00 00	 push	 OFFSET ??_C@_0BD@OLBABOEK@vector?$DMT?$DO?5too?5long?$AA@
  00005	e8 00 00 00 00	 call	 ?_Xlength_error@std@@YAXPBD@Z ; std::_Xlength_error
$LN4@Xlen@2:
$LN3@Xlen@2:
  0000a	cc		 int	 3
?_Xlen@?$vector@UXMASMONSTER_DATA@@V?$allocator@UXMASMONSTER_DATA@@@std@@@std@@IBEXXZ ENDP ; std::vector<XMASMONSTER_DATA,std::allocator<XMASMONSTER_DATA> >::_Xlen
_TEXT	ENDS
PUBLIC	?capacity@?$vector@PAVCXMasMonsterHerd@@V?$allocator@PAVCXMasMonsterHerd@@@std@@@std@@QBEIXZ ; std::vector<CXMasMonsterHerd *,std::allocator<CXMasMonsterHerd *> >::capacity
; Function compile flags: /Ogtp
;	COMDAT ?capacity@?$vector@PAVCXMasMonsterHerd@@V?$allocator@PAVCXMasMonsterHerd@@@std@@@std@@QBEIXZ
_TEXT	SEGMENT
?capacity@?$vector@PAVCXMasMonsterHerd@@V?$allocator@PAVCXMasMonsterHerd@@@std@@@std@@QBEIXZ PROC ; std::vector<CXMasMonsterHerd *,std::allocator<CXMasMonsterHerd *> >::capacity, COMDAT
; _this$ = ecx

; 777  : 		return (this->_Myend - this->_Myfirst);

  00000	8b 41 08	 mov	 eax, DWORD PTR [ecx+8]
  00003	2b 01		 sub	 eax, DWORD PTR [ecx]
  00005	c1 f8 02	 sar	 eax, 2

; 778  : 		}

  00008	c3		 ret	 0
?capacity@?$vector@PAVCXMasMonsterHerd@@V?$allocator@PAVCXMasMonsterHerd@@@std@@@std@@QBEIXZ ENDP ; std::vector<CXMasMonsterHerd *,std::allocator<CXMasMonsterHerd *> >::capacity
_TEXT	ENDS
PUBLIC	?_Xlen@?$vector@PAVCXMasMonsterHerd@@V?$allocator@PAVCXMasMonsterHerd@@@std@@@std@@IBEXXZ ; std::vector<CXMasMonsterHerd *,std::allocator<CXMasMonsterHerd *> >::_Xlen
; Function compile flags: /Ogtp
;	COMDAT ?_Xlen@?$vector@PAVCXMasMonsterHerd@@V?$allocator@PAVCXMasMonsterHerd@@@std@@@std@@IBEXXZ
_TEXT	SEGMENT
?_Xlen@?$vector@PAVCXMasMonsterHerd@@V?$allocator@PAVCXMasMonsterHerd@@@std@@@std@@IBEXXZ PROC ; std::vector<CXMasMonsterHerd *,std::allocator<CXMasMonsterHerd *> >::_Xlen, COMDAT
; _this$ = ecx

; 1427 : 		_Xlength_error("vector<T> too long");

  00000	68 00 00 00 00	 push	 OFFSET ??_C@_0BD@OLBABOEK@vector?$DMT?$DO?5too?5long?$AA@
  00005	e8 00 00 00 00	 call	 ?_Xlength_error@std@@YAXPBD@Z ; std::_Xlength_error
$LN4@Xlen@3:
$LN3@Xlen@3:
  0000a	cc		 int	 3
?_Xlen@?$vector@PAVCXMasMonsterHerd@@V?$allocator@PAVCXMasMonsterHerd@@@std@@@std@@IBEXXZ ENDP ; std::vector<CXMasMonsterHerd *,std::allocator<CXMasMonsterHerd *> >::_Xlen
_TEXT	ENDS
PUBLIC	?capacity@?$vector@UXMASMONSTER_MAP_INFO@@V?$allocator@UXMASMONSTER_MAP_INFO@@@std@@@std@@QBEIXZ ; std::vector<XMASMONSTER_MAP_INFO,std::allocator<XMASMONSTER_MAP_INFO> >::capacity
; Function compile flags: /Ogtp
;	COMDAT ?capacity@?$vector@UXMASMONSTER_MAP_INFO@@V?$allocator@UXMASMONSTER_MAP_INFO@@@std@@@std@@QBEIXZ
_TEXT	SEGMENT
?capacity@?$vector@UXMASMONSTER_MAP_INFO@@V?$allocator@UXMASMONSTER_MAP_INFO@@@std@@@std@@QBEIXZ PROC ; std::vector<XMASMONSTER_MAP_INFO,std::allocator<XMASMONSTER_MAP_INFO> >::capacity, COMDAT
; _this$ = ecx

; 777  : 		return (this->_Myend - this->_Myfirst);

  00000	8b 51 08	 mov	 edx, DWORD PTR [ecx+8]
  00003	2b 11		 sub	 edx, DWORD PTR [ecx]
  00005	b8 67 66 66 66	 mov	 eax, 1717986919		; 66666667H
  0000a	f7 ea		 imul	 edx
  0000c	c1 fa 03	 sar	 edx, 3
  0000f	8b c2		 mov	 eax, edx
  00011	c1 e8 1f	 shr	 eax, 31			; 0000001fH
  00014	03 c2		 add	 eax, edx

; 778  : 		}

  00016	c3		 ret	 0
?capacity@?$vector@UXMASMONSTER_MAP_INFO@@V?$allocator@UXMASMONSTER_MAP_INFO@@@std@@@std@@QBEIXZ ENDP ; std::vector<XMASMONSTER_MAP_INFO,std::allocator<XMASMONSTER_MAP_INFO> >::capacity
_TEXT	ENDS
PUBLIC	?_Xlen@?$vector@UXMASMONSTER_MAP_INFO@@V?$allocator@UXMASMONSTER_MAP_INFO@@@std@@@std@@IBEXXZ ; std::vector<XMASMONSTER_MAP_INFO,std::allocator<XMASMONSTER_MAP_INFO> >::_Xlen
; Function compile flags: /Ogtp
;	COMDAT ?_Xlen@?$vector@UXMASMONSTER_MAP_INFO@@V?$allocator@UXMASMONSTER_MAP_INFO@@@std@@@std@@IBEXXZ
_TEXT	SEGMENT
?_Xlen@?$vector@UXMASMONSTER_MAP_INFO@@V?$allocator@UXMASMONSTER_MAP_INFO@@@std@@@std@@IBEXXZ PROC ; std::vector<XMASMONSTER_MAP_INFO,std::allocator<XMASMONSTER_MAP_INFO> >::_Xlen, COMDAT
; _this$ = ecx

; 1427 : 		_Xlength_error("vector<T> too long");

  00000	68 00 00 00 00	 push	 OFFSET ??_C@_0BD@OLBABOEK@vector?$DMT?$DO?5too?5long?$AA@
  00005	e8 00 00 00 00	 call	 ?_Xlength_error@std@@YAXPBD@Z ; std::_Xlength_error
$LN4@Xlen@4:
$LN3@Xlen@4:
  0000a	cc		 int	 3
?_Xlen@?$vector@UXMASMONSTER_MAP_INFO@@V?$allocator@UXMASMONSTER_MAP_INFO@@@std@@@std@@IBEXXZ ENDP ; std::vector<XMASMONSTER_MAP_INFO,std::allocator<XMASMONSTER_MAP_INFO> >::_Xlen
_TEXT	ENDS
PUBLIC	??0?$allocator@UXMASMONSTER_MAP_INFO@@@std@@QAE@ABV01@@Z ; std::allocator<XMASMONSTER_MAP_INFO>::allocator<XMASMONSTER_MAP_INFO>
; Function compile flags: /Ogtp
; File d:\program files (x86)\microsoft visual studio 10.0\vc\include\xmemory
;	COMDAT ??0?$allocator@UXMASMONSTER_MAP_INFO@@@std@@QAE@ABV01@@Z
_TEXT	SEGMENT
___formal$ = 8						; size = 4
??0?$allocator@UXMASMONSTER_MAP_INFO@@@std@@QAE@ABV01@@Z PROC ; std::allocator<XMASMONSTER_MAP_INFO>::allocator<XMASMONSTER_MAP_INFO>, COMDAT
; _this$ = ecx

; 165  : 	_ALLOCATOR(const _ALLOCATOR<_Ty>&) _THROW0()

  00000	8b c1		 mov	 eax, ecx

; 166  : 		{	// construct by copying (do nothing)
; 167  : 		}

  00002	c2 04 00	 ret	 4
??0?$allocator@UXMASMONSTER_MAP_INFO@@@std@@QAE@ABV01@@Z ENDP ; std::allocator<XMASMONSTER_MAP_INFO>::allocator<XMASMONSTER_MAP_INFO>
_TEXT	ENDS
PUBLIC	?deallocate@?$allocator@UXMASMONSTER_MAP_INFO@@@std@@QAEXPAUXMASMONSTER_MAP_INFO@@I@Z ; std::allocator<XMASMONSTER_MAP_INFO>::deallocate
EXTRN	??3@YAXPAX@Z:PROC				; operator delete
; Function compile flags: /Ogtp
;	COMDAT ?deallocate@?$allocator@UXMASMONSTER_MAP_INFO@@@std@@QAEXPAUXMASMONSTER_MAP_INFO@@I@Z
_TEXT	SEGMENT
__Ptr$ = 8						; size = 4
___formal$ = 12						; size = 4
?deallocate@?$allocator@UXMASMONSTER_MAP_INFO@@@std@@QAEXPAUXMASMONSTER_MAP_INFO@@I@Z PROC ; std::allocator<XMASMONSTER_MAP_INFO>::deallocate, COMDAT
; _this$ = ecx

; 181  : 		{	// deallocate object at _Ptr, ignore size

  00000	55		 push	 ebp
  00001	8b ec		 mov	 ebp, esp

; 182  : 		::operator delete(_Ptr);

  00003	8b 45 08	 mov	 eax, DWORD PTR __Ptr$[ebp]
  00006	50		 push	 eax
  00007	e8 00 00 00 00	 call	 ??3@YAXPAX@Z		; operator delete
  0000c	83 c4 04	 add	 esp, 4

; 183  : 		}

  0000f	5d		 pop	 ebp
  00010	c2 08 00	 ret	 8
?deallocate@?$allocator@UXMASMONSTER_MAP_INFO@@@std@@QAEXPAUXMASMONSTER_MAP_INFO@@I@Z ENDP ; std::allocator<XMASMONSTER_MAP_INFO>::deallocate
_TEXT	ENDS
PUBLIC	?_Compat@?$_Vector_const_iterator@V?$_Vector_val@PAVCXMasMonsterHerd@@V?$allocator@PAVCXMasMonsterHerd@@@std@@@std@@@std@@QBEXABV12@@Z ; std::_Vector_const_iterator<std::_Vector_val<CXMasMonsterHerd *,std::allocator<CXMasMonsterHerd *> > >::_Compat
; Function compile flags: /Ogtp
; File d:\program files (x86)\microsoft visual studio 10.0\vc\include\vector
;	COMDAT ?_Compat@?$_Vector_const_iterator@V?$_Vector_val@PAVCXMasMonsterHerd@@V?$allocator@PAVCXMasMonsterHerd@@@std@@@std@@@std@@QBEXABV12@@Z
_TEXT	SEGMENT
___formal$ = 8						; size = 4
?_Compat@?$_Vector_const_iterator@V?$_Vector_val@PAVCXMasMonsterHerd@@V?$allocator@PAVCXMasMonsterHerd@@@std@@@std@@@std@@QBEXABV12@@Z PROC ; std::_Vector_const_iterator<std::_Vector_val<CXMasMonsterHerd *,std::allocator<CXMasMonsterHerd *> > >::_Compat, COMDAT
; _this$ = ecx

; 253  : 		}

  00000	c2 04 00	 ret	 4
?_Compat@?$_Vector_const_iterator@V?$_Vector_val@PAVCXMasMonsterHerd@@V?$allocator@PAVCXMasMonsterHerd@@@std@@@std@@@std@@QBEXABV12@@Z ENDP ; std::_Vector_const_iterator<std::_Vector_val<CXMasMonsterHerd *,std::allocator<CXMasMonsterHerd *> > >::_Compat
_TEXT	ENDS
PUBLIC	??E?$_Vector_const_iterator@V?$_Vector_val@UXMASMONSTER_MAP_INFO@@V?$allocator@UXMASMONSTER_MAP_INFO@@@std@@@std@@@std@@QAEAAV01@XZ ; std::_Vector_const_iterator<std::_Vector_val<XMASMONSTER_MAP_INFO,std::allocator<XMASMONSTER_MAP_INFO> > >::operator++
; Function compile flags: /Ogtp
;	COMDAT ??E?$_Vector_const_iterator@V?$_Vector_val@UXMASMONSTER_MAP_INFO@@V?$allocator@UXMASMONSTER_MAP_INFO@@@std@@@std@@@std@@QAEAAV01@XZ
_TEXT	SEGMENT
??E?$_Vector_const_iterator@V?$_Vector_val@UXMASMONSTER_MAP_INFO@@V?$allocator@UXMASMONSTER_MAP_INFO@@@std@@@std@@@std@@QAEAAV01@XZ PROC ; std::_Vector_const_iterator<std::_Vector_val<XMASMONSTER_MAP_INFO,std::allocator<XMASMONSTER_MAP_INFO> > >::operator++, COMDAT
; _this$ = ecx

; 93   : 		{	// preincrement

  00000	8b c1		 mov	 eax, ecx

; 94   :  #if _ITERATOR_DEBUG_LEVEL == 2
; 95   : 		if (this->_Getcont() == 0
; 96   : 			|| this->_Ptr == 0
; 97   : 			|| ((_Myvec *)this->_Getcont())->_Mylast <= this->_Ptr)
; 98   : 			{	// report error
; 99   : 			_DEBUG_ERROR("vector iterator not incrementable");
; 100  : 			_SCL_SECURE_OUT_OF_RANGE;
; 101  : 			}
; 102  : 
; 103  :  #elif _ITERATOR_DEBUG_LEVEL == 1
; 104  : 		_SCL_SECURE_VALIDATE(this->_Getcont() != 0);
; 105  : 		_SCL_SECURE_VALIDATE_RANGE(
; 106  : 			this->_Ptr != 0
; 107  : 			&& this->_Ptr < ((_Myvec *)this->_Getcont())->_Mylast);
; 108  :  #endif /* _ITERATOR_DEBUG_LEVEL */
; 109  : 
; 110  : 		++this->_Ptr;

  00002	83 00 14	 add	 DWORD PTR [eax], 20	; 00000014H

; 111  : 		return (*this);
; 112  : 		}

  00005	c3		 ret	 0
??E?$_Vector_const_iterator@V?$_Vector_val@UXMASMONSTER_MAP_INFO@@V?$allocator@UXMASMONSTER_MAP_INFO@@@std@@@std@@@std@@QAEAAV01@XZ ENDP ; std::_Vector_const_iterator<std::_Vector_val<XMASMONSTER_MAP_INFO,std::allocator<XMASMONSTER_MAP_INFO> > >::operator++
_TEXT	ENDS
PUBLIC	?_Compat@?$_Vector_const_iterator@V?$_Vector_val@UXMASMONSTER_MAP_INFO@@V?$allocator@UXMASMONSTER_MAP_INFO@@@std@@@std@@@std@@QBEXABV12@@Z ; std::_Vector_const_iterator<std::_Vector_val<XMASMONSTER_MAP_INFO,std::allocator<XMASMONSTER_MAP_INFO> > >::_Compat
; Function compile flags: /Ogtp
;	COMDAT ?_Compat@?$_Vector_const_iterator@V?$_Vector_val@UXMASMONSTER_MAP_INFO@@V?$allocator@UXMASMONSTER_MAP_INFO@@@std@@@std@@@std@@QBEXABV12@@Z
_TEXT	SEGMENT
___formal$ = 8						; size = 4
?_Compat@?$_Vector_const_iterator@V?$_Vector_val@UXMASMONSTER_MAP_INFO@@V?$allocator@UXMASMONSTER_MAP_INFO@@@std@@@std@@@std@@QBEXABV12@@Z PROC ; std::_Vector_const_iterator<std::_Vector_val<XMASMONSTER_MAP_INFO,std::allocator<XMASMONSTER_MAP_INFO> > >::_Compat, COMDAT
; _this$ = ecx

; 253  : 		}

  00000	c2 04 00	 ret	 4
?_Compat@?$_Vector_const_iterator@V?$_Vector_val@UXMASMONSTER_MAP_INFO@@V?$allocator@UXMASMONSTER_MAP_INFO@@@std@@@std@@@std@@QBEXABV12@@Z ENDP ; std::_Vector_const_iterator<std::_Vector_val<XMASMONSTER_MAP_INFO,std::allocator<XMASMONSTER_MAP_INFO> > >::_Compat
_TEXT	ENDS
PUBLIC	??E?$_Vector_const_iterator@V?$_Vector_val@UXMASMONSTER_DATA@@V?$allocator@UXMASMONSTER_DATA@@@std@@@std@@@std@@QAEAAV01@XZ ; std::_Vector_const_iterator<std::_Vector_val<XMASMONSTER_DATA,std::allocator<XMASMONSTER_DATA> > >::operator++
; Function compile flags: /Ogtp
;	COMDAT ??E?$_Vector_const_iterator@V?$_Vector_val@UXMASMONSTER_DATA@@V?$allocator@UXMASMONSTER_DATA@@@std@@@std@@@std@@QAEAAV01@XZ
_TEXT	SEGMENT
??E?$_Vector_const_iterator@V?$_Vector_val@UXMASMONSTER_DATA@@V?$allocator@UXMASMONSTER_DATA@@@std@@@std@@@std@@QAEAAV01@XZ PROC ; std::_Vector_const_iterator<std::_Vector_val<XMASMONSTER_DATA,std::allocator<XMASMONSTER_DATA> > >::operator++, COMDAT
; _this$ = ecx

; 93   : 		{	// preincrement

  00000	8b c1		 mov	 eax, ecx

; 94   :  #if _ITERATOR_DEBUG_LEVEL == 2
; 95   : 		if (this->_Getcont() == 0
; 96   : 			|| this->_Ptr == 0
; 97   : 			|| ((_Myvec *)this->_Getcont())->_Mylast <= this->_Ptr)
; 98   : 			{	// report error
; 99   : 			_DEBUG_ERROR("vector iterator not incrementable");
; 100  : 			_SCL_SECURE_OUT_OF_RANGE;
; 101  : 			}
; 102  : 
; 103  :  #elif _ITERATOR_DEBUG_LEVEL == 1
; 104  : 		_SCL_SECURE_VALIDATE(this->_Getcont() != 0);
; 105  : 		_SCL_SECURE_VALIDATE_RANGE(
; 106  : 			this->_Ptr != 0
; 107  : 			&& this->_Ptr < ((_Myvec *)this->_Getcont())->_Mylast);
; 108  :  #endif /* _ITERATOR_DEBUG_LEVEL */
; 109  : 
; 110  : 		++this->_Ptr;

  00002	83 00 0c	 add	 DWORD PTR [eax], 12	; 0000000cH

; 111  : 		return (*this);
; 112  : 		}

  00005	c3		 ret	 0
??E?$_Vector_const_iterator@V?$_Vector_val@UXMASMONSTER_DATA@@V?$allocator@UXMASMONSTER_DATA@@@std@@@std@@@std@@QAEAAV01@XZ ENDP ; std::_Vector_const_iterator<std::_Vector_val<XMASMONSTER_DATA,std::allocator<XMASMONSTER_DATA> > >::operator++
_TEXT	ENDS
PUBLIC	?_Compat@?$_Vector_const_iterator@V?$_Vector_val@UXMASMONSTER_DATA@@V?$allocator@UXMASMONSTER_DATA@@@std@@@std@@@std@@QBEXABV12@@Z ; std::_Vector_const_iterator<std::_Vector_val<XMASMONSTER_DATA,std::allocator<XMASMONSTER_DATA> > >::_Compat
; Function compile flags: /Ogtp
;	COMDAT ?_Compat@?$_Vector_const_iterator@V?$_Vector_val@UXMASMONSTER_DATA@@V?$allocator@UXMASMONSTER_DATA@@@std@@@std@@@std@@QBEXABV12@@Z
_TEXT	SEGMENT
___formal$ = 8						; size = 4
?_Compat@?$_Vector_const_iterator@V?$_Vector_val@UXMASMONSTER_DATA@@V?$allocator@UXMASMONSTER_DATA@@@std@@@std@@@std@@QBEXABV12@@Z PROC ; std::_Vector_const_iterator<std::_Vector_val<XMASMONSTER_DATA,std::allocator<XMASMONSTER_DATA> > >::_Compat, COMDAT
; _this$ = ecx

; 253  : 		}

  00000	c2 04 00	 ret	 4
?_Compat@?$_Vector_const_iterator@V?$_Vector_val@UXMASMONSTER_DATA@@V?$allocator@UXMASMONSTER_DATA@@@std@@@std@@@std@@QBEXABV12@@Z ENDP ; std::_Vector_const_iterator<std::_Vector_val<XMASMONSTER_DATA,std::allocator<XMASMONSTER_DATA> > >::_Compat
_TEXT	ENDS
PUBLIC	??E?$_Vector_const_iterator@V?$_Vector_val@UXMASMONSTER_EVENT_TIME@@V?$allocator@UXMASMONSTER_EVENT_TIME@@@std@@@std@@@std@@QAEAAV01@XZ ; std::_Vector_const_iterator<std::_Vector_val<XMASMONSTER_EVENT_TIME,std::allocator<XMASMONSTER_EVENT_TIME> > >::operator++
; Function compile flags: /Ogtp
;	COMDAT ??E?$_Vector_const_iterator@V?$_Vector_val@UXMASMONSTER_EVENT_TIME@@V?$allocator@UXMASMONSTER_EVENT_TIME@@@std@@@std@@@std@@QAEAAV01@XZ
_TEXT	SEGMENT
??E?$_Vector_const_iterator@V?$_Vector_val@UXMASMONSTER_EVENT_TIME@@V?$allocator@UXMASMONSTER_EVENT_TIME@@@std@@@std@@@std@@QAEAAV01@XZ PROC ; std::_Vector_const_iterator<std::_Vector_val<XMASMONSTER_EVENT_TIME,std::allocator<XMASMONSTER_EVENT_TIME> > >::operator++, COMDAT
; _this$ = ecx

; 93   : 		{	// preincrement

  00000	8b c1		 mov	 eax, ecx

; 94   :  #if _ITERATOR_DEBUG_LEVEL == 2
; 95   : 		if (this->_Getcont() == 0
; 96   : 			|| this->_Ptr == 0
; 97   : 			|| ((_Myvec *)this->_Getcont())->_Mylast <= this->_Ptr)
; 98   : 			{	// report error
; 99   : 			_DEBUG_ERROR("vector iterator not incrementable");
; 100  : 			_SCL_SECURE_OUT_OF_RANGE;
; 101  : 			}
; 102  : 
; 103  :  #elif _ITERATOR_DEBUG_LEVEL == 1
; 104  : 		_SCL_SECURE_VALIDATE(this->_Getcont() != 0);
; 105  : 		_SCL_SECURE_VALIDATE_RANGE(
; 106  : 			this->_Ptr != 0
; 107  : 			&& this->_Ptr < ((_Myvec *)this->_Getcont())->_Mylast);
; 108  :  #endif /* _ITERATOR_DEBUG_LEVEL */
; 109  : 
; 110  : 		++this->_Ptr;

  00002	83 00 08	 add	 DWORD PTR [eax], 8

; 111  : 		return (*this);
; 112  : 		}

  00005	c3		 ret	 0
??E?$_Vector_const_iterator@V?$_Vector_val@UXMASMONSTER_EVENT_TIME@@V?$allocator@UXMASMONSTER_EVENT_TIME@@@std@@@std@@@std@@QAEAAV01@XZ ENDP ; std::_Vector_const_iterator<std::_Vector_val<XMASMONSTER_EVENT_TIME,std::allocator<XMASMONSTER_EVENT_TIME> > >::operator++
_TEXT	ENDS
PUBLIC	?_Compat@?$_Vector_const_iterator@V?$_Vector_val@UXMASMONSTER_EVENT_TIME@@V?$allocator@UXMASMONSTER_EVENT_TIME@@@std@@@std@@@std@@QBEXABV12@@Z ; std::_Vector_const_iterator<std::_Vector_val<XMASMONSTER_EVENT_TIME,std::allocator<XMASMONSTER_EVENT_TIME> > >::_Compat
; Function compile flags: /Ogtp
;	COMDAT ?_Compat@?$_Vector_const_iterator@V?$_Vector_val@UXMASMONSTER_EVENT_TIME@@V?$allocator@UXMASMONSTER_EVENT_TIME@@@std@@@std@@@std@@QBEXABV12@@Z
_TEXT	SEGMENT
___formal$ = 8						; size = 4
?_Compat@?$_Vector_const_iterator@V?$_Vector_val@UXMASMONSTER_EVENT_TIME@@V?$allocator@UXMASMONSTER_EVENT_TIME@@@std@@@std@@@std@@QBEXABV12@@Z PROC ; std::_Vector_const_iterator<std::_Vector_val<XMASMONSTER_EVENT_TIME,std::allocator<XMASMONSTER_EVENT_TIME> > >::_Compat, COMDAT
; _this$ = ecx

; 253  : 		}

  00000	c2 04 00	 ret	 4
?_Compat@?$_Vector_const_iterator@V?$_Vector_val@UXMASMONSTER_EVENT_TIME@@V?$allocator@UXMASMONSTER_EVENT_TIME@@@std@@@std@@@std@@QBEXABV12@@Z ENDP ; std::_Vector_const_iterator<std::_Vector_val<XMASMONSTER_EVENT_TIME,std::allocator<XMASMONSTER_EVENT_TIME> > >::_Compat
_TEXT	ENDS
PUBLIC	?deallocate@?$allocator@UXMASMONSTER_EVENT_TIME@@@std@@QAEXPAUXMASMONSTER_EVENT_TIME@@I@Z ; std::allocator<XMASMONSTER_EVENT_TIME>::deallocate
; Function compile flags: /Ogtp
; File d:\program files (x86)\microsoft visual studio 10.0\vc\include\xmemory
;	COMDAT ?deallocate@?$allocator@UXMASMONSTER_EVENT_TIME@@@std@@QAEXPAUXMASMONSTER_EVENT_TIME@@I@Z
_TEXT	SEGMENT
__Ptr$ = 8						; size = 4
___formal$ = 12						; size = 4
?deallocate@?$allocator@UXMASMONSTER_EVENT_TIME@@@std@@QAEXPAUXMASMONSTER_EVENT_TIME@@I@Z PROC ; std::allocator<XMASMONSTER_EVENT_TIME>::deallocate, COMDAT
; _this$ = ecx

; 181  : 		{	// deallocate object at _Ptr, ignore size

  00000	55		 push	 ebp
  00001	8b ec		 mov	 ebp, esp

; 182  : 		::operator delete(_Ptr);

  00003	8b 45 08	 mov	 eax, DWORD PTR __Ptr$[ebp]
  00006	50		 push	 eax
  00007	e8 00 00 00 00	 call	 ??3@YAXPAX@Z		; operator delete
  0000c	83 c4 04	 add	 esp, 4

; 183  : 		}

  0000f	5d		 pop	 ebp
  00010	c2 08 00	 ret	 8
?deallocate@?$allocator@UXMASMONSTER_EVENT_TIME@@@std@@QAEXPAUXMASMONSTER_EVENT_TIME@@I@Z ENDP ; std::allocator<XMASMONSTER_EVENT_TIME>::deallocate
_TEXT	ENDS
PUBLIC	?max_size@?$allocator@UXMASMONSTER_EVENT_TIME@@@std@@QBEIXZ ; std::allocator<XMASMONSTER_EVENT_TIME>::max_size
; Function compile flags: /Ogtp
;	COMDAT ?max_size@?$allocator@UXMASMONSTER_EVENT_TIME@@@std@@QBEIXZ
_TEXT	SEGMENT
?max_size@?$allocator@UXMASMONSTER_EVENT_TIME@@@std@@QBEIXZ PROC ; std::allocator<XMASMONSTER_EVENT_TIME>::max_size, COMDAT
; _this$ = ecx

; 218  : 		_SIZT _Count = (_SIZT)(-1) / sizeof (_Ty);
; 219  : 		return (0 < _Count ? _Count : 1);

  00000	b8 ff ff ff 1f	 mov	 eax, 536870911		; 1fffffffH

; 220  : 		}

  00005	c3		 ret	 0
?max_size@?$allocator@UXMASMONSTER_EVENT_TIME@@@std@@QBEIXZ ENDP ; std::allocator<XMASMONSTER_EVENT_TIME>::max_size
_TEXT	ENDS
PUBLIC	?deallocate@?$allocator@UXMASMONSTER_DATA@@@std@@QAEXPAUXMASMONSTER_DATA@@I@Z ; std::allocator<XMASMONSTER_DATA>::deallocate
; Function compile flags: /Ogtp
;	COMDAT ?deallocate@?$allocator@UXMASMONSTER_DATA@@@std@@QAEXPAUXMASMONSTER_DATA@@I@Z
_TEXT	SEGMENT
__Ptr$ = 8						; size = 4
___formal$ = 12						; size = 4
?deallocate@?$allocator@UXMASMONSTER_DATA@@@std@@QAEXPAUXMASMONSTER_DATA@@I@Z PROC ; std::allocator<XMASMONSTER_DATA>::deallocate, COMDAT
; _this$ = ecx

; 181  : 		{	// deallocate object at _Ptr, ignore size

  00000	55		 push	 ebp
  00001	8b ec		 mov	 ebp, esp

; 182  : 		::operator delete(_Ptr);

  00003	8b 45 08	 mov	 eax, DWORD PTR __Ptr$[ebp]
  00006	50		 push	 eax
  00007	e8 00 00 00 00	 call	 ??3@YAXPAX@Z		; operator delete
  0000c	83 c4 04	 add	 esp, 4

; 183  : 		}

  0000f	5d		 pop	 ebp
  00010	c2 08 00	 ret	 8
?deallocate@?$allocator@UXMASMONSTER_DATA@@@std@@QAEXPAUXMASMONSTER_DATA@@I@Z ENDP ; std::allocator<XMASMONSTER_DATA>::deallocate
_TEXT	ENDS
PUBLIC	?max_size@?$allocator@UXMASMONSTER_DATA@@@std@@QBEIXZ ; std::allocator<XMASMONSTER_DATA>::max_size
; Function compile flags: /Ogtp
;	COMDAT ?max_size@?$allocator@UXMASMONSTER_DATA@@@std@@QBEIXZ
_TEXT	SEGMENT
?max_size@?$allocator@UXMASMONSTER_DATA@@@std@@QBEIXZ PROC ; std::allocator<XMASMONSTER_DATA>::max_size, COMDAT
; _this$ = ecx

; 218  : 		_SIZT _Count = (_SIZT)(-1) / sizeof (_Ty);
; 219  : 		return (0 < _Count ? _Count : 1);

  00000	b8 55 55 55 15	 mov	 eax, 357913941		; 15555555H

; 220  : 		}

  00005	c3		 ret	 0
?max_size@?$allocator@UXMASMONSTER_DATA@@@std@@QBEIXZ ENDP ; std::allocator<XMASMONSTER_DATA>::max_size
_TEXT	ENDS
PUBLIC	?deallocate@?$allocator@PAVCXMasMonsterHerd@@@std@@QAEXPAPAVCXMasMonsterHerd@@I@Z ; std::allocator<CXMasMonsterHerd *>::deallocate
; Function compile flags: /Ogtp
;	COMDAT ?deallocate@?$allocator@PAVCXMasMonsterHerd@@@std@@QAEXPAPAVCXMasMonsterHerd@@I@Z
_TEXT	SEGMENT
__Ptr$ = 8						; size = 4
___formal$ = 12						; size = 4
?deallocate@?$allocator@PAVCXMasMonsterHerd@@@std@@QAEXPAPAVCXMasMonsterHerd@@I@Z PROC ; std::allocator<CXMasMonsterHerd *>::deallocate, COMDAT
; _this$ = ecx

; 181  : 		{	// deallocate object at _Ptr, ignore size

  00000	55		 push	 ebp
  00001	8b ec		 mov	 ebp, esp

; 182  : 		::operator delete(_Ptr);

  00003	8b 45 08	 mov	 eax, DWORD PTR __Ptr$[ebp]
  00006	50		 push	 eax
  00007	e8 00 00 00 00	 call	 ??3@YAXPAX@Z		; operator delete
  0000c	83 c4 04	 add	 esp, 4

; 183  : 		}

  0000f	5d		 pop	 ebp
  00010	c2 08 00	 ret	 8
?deallocate@?$allocator@PAVCXMasMonsterHerd@@@std@@QAEXPAPAVCXMasMonsterHerd@@I@Z ENDP ; std::allocator<CXMasMonsterHerd *>::deallocate
_TEXT	ENDS
PUBLIC	?max_size@?$allocator@PAVCXMasMonsterHerd@@@std@@QBEIXZ ; std::allocator<CXMasMonsterHerd *>::max_size
; Function compile flags: /Ogtp
;	COMDAT ?max_size@?$allocator@PAVCXMasMonsterHerd@@@std@@QBEIXZ
_TEXT	SEGMENT
?max_size@?$allocator@PAVCXMasMonsterHerd@@@std@@QBEIXZ PROC ; std::allocator<CXMasMonsterHerd *>::max_size, COMDAT
; _this$ = ecx

; 218  : 		_SIZT _Count = (_SIZT)(-1) / sizeof (_Ty);
; 219  : 		return (0 < _Count ? _Count : 1);

  00000	b8 ff ff ff 3f	 mov	 eax, 1073741823		; 3fffffffH

; 220  : 		}

  00005	c3		 ret	 0
?max_size@?$allocator@PAVCXMasMonsterHerd@@@std@@QBEIXZ ENDP ; std::allocator<CXMasMonsterHerd *>::max_size
_TEXT	ENDS
PUBLIC	?max_size@?$allocator@UXMASMONSTER_MAP_INFO@@@std@@QBEIXZ ; std::allocator<XMASMONSTER_MAP_INFO>::max_size
; Function compile flags: /Ogtp
;	COMDAT ?max_size@?$allocator@UXMASMONSTER_MAP_INFO@@@std@@QBEIXZ
_TEXT	SEGMENT
?max_size@?$allocator@UXMASMONSTER_MAP_INFO@@@std@@QBEIXZ PROC ; std::allocator<XMASMONSTER_MAP_INFO>::max_size, COMDAT
; _this$ = ecx

; 218  : 		_SIZT _Count = (_SIZT)(-1) / sizeof (_Ty);
; 219  : 		return (0 < _Count ? _Count : 1);

  00000	b8 cc cc cc 0c	 mov	 eax, 214748364		; 0cccccccH

; 220  : 		}

  00005	c3		 ret	 0
?max_size@?$allocator@UXMASMONSTER_MAP_INFO@@@std@@QBEIXZ ENDP ; std::allocator<XMASMONSTER_MAP_INFO>::max_size
_TEXT	ENDS
PUBLIC	??$addressof@$$CBUXMASMONSTER_EVENT_TIME@@@std@@YAPBUXMASMONSTER_EVENT_TIME@@ABU1@@Z ; std::addressof<XMASMONSTER_EVENT_TIME const >
; Function compile flags: /Ogtp
;	COMDAT ??$addressof@$$CBUXMASMONSTER_EVENT_TIME@@@std@@YAPBUXMASMONSTER_EVENT_TIME@@ABU1@@Z
_TEXT	SEGMENT
__Val$ = 8						; size = 4
??$addressof@$$CBUXMASMONSTER_EVENT_TIME@@@std@@YAPBUXMASMONSTER_EVENT_TIME@@ABU1@@Z PROC ; std::addressof<XMASMONSTER_EVENT_TIME const >, COMDAT

; 110  : 	{	// return address of _Val

  00000	55		 push	 ebp
  00001	8b ec		 mov	 ebp, esp

; 111  : 	return ((_Ty *) &(char&)_Val);

  00003	8b 45 08	 mov	 eax, DWORD PTR __Val$[ebp]

; 112  : 	}

  00006	5d		 pop	 ebp
  00007	c3		 ret	 0
??$addressof@$$CBUXMASMONSTER_EVENT_TIME@@@std@@YAPBUXMASMONSTER_EVENT_TIME@@ABU1@@Z ENDP ; std::addressof<XMASMONSTER_EVENT_TIME const >
_TEXT	ENDS
PUBLIC	??$addressof@$$CBUXMASMONSTER_DATA@@@std@@YAPBUXMASMONSTER_DATA@@ABU1@@Z ; std::addressof<XMASMONSTER_DATA const >
; Function compile flags: /Ogtp
;	COMDAT ??$addressof@$$CBUXMASMONSTER_DATA@@@std@@YAPBUXMASMONSTER_DATA@@ABU1@@Z
_TEXT	SEGMENT
__Val$ = 8						; size = 4
??$addressof@$$CBUXMASMONSTER_DATA@@@std@@YAPBUXMASMONSTER_DATA@@ABU1@@Z PROC ; std::addressof<XMASMONSTER_DATA const >, COMDAT

; 110  : 	{	// return address of _Val

  00000	55		 push	 ebp
  00001	8b ec		 mov	 ebp, esp

; 111  : 	return ((_Ty *) &(char&)_Val);

  00003	8b 45 08	 mov	 eax, DWORD PTR __Val$[ebp]

; 112  : 	}

  00006	5d		 pop	 ebp
  00007	c3		 ret	 0
??$addressof@$$CBUXMASMONSTER_DATA@@@std@@YAPBUXMASMONSTER_DATA@@ABU1@@Z ENDP ; std::addressof<XMASMONSTER_DATA const >
_TEXT	ENDS
PUBLIC	??$addressof@PAVCXMasMonsterHerd@@@std@@YAPAPAVCXMasMonsterHerd@@AAPAV1@@Z ; std::addressof<CXMasMonsterHerd *>
; Function compile flags: /Ogtp
;	COMDAT ??$addressof@PAVCXMasMonsterHerd@@@std@@YAPAPAVCXMasMonsterHerd@@AAPAV1@@Z
_TEXT	SEGMENT
__Val$ = 8						; size = 4
??$addressof@PAVCXMasMonsterHerd@@@std@@YAPAPAVCXMasMonsterHerd@@AAPAV1@@Z PROC ; std::addressof<CXMasMonsterHerd *>, COMDAT

; 110  : 	{	// return address of _Val

  00000	55		 push	 ebp
  00001	8b ec		 mov	 ebp, esp

; 111  : 	return ((_Ty *) &(char&)_Val);

  00003	8b 45 08	 mov	 eax, DWORD PTR __Val$[ebp]

; 112  : 	}

  00006	5d		 pop	 ebp
  00007	c3		 ret	 0
??$addressof@PAVCXMasMonsterHerd@@@std@@YAPAPAVCXMasMonsterHerd@@AAPAV1@@Z ENDP ; std::addressof<CXMasMonsterHerd *>
_TEXT	ENDS
PUBLIC	??$forward@PAVCXMasMonsterHerd@@@std@@YA$$QAPAVCXMasMonsterHerd@@AAPAV1@@Z ; std::forward<CXMasMonsterHerd *>
; Function compile flags: /Ogtp
; File d:\program files (x86)\microsoft visual studio 10.0\vc\include\utility
;	COMDAT ??$forward@PAVCXMasMonsterHerd@@@std@@YA$$QAPAVCXMasMonsterHerd@@AAPAV1@@Z
_TEXT	SEGMENT
__Arg$ = 8						; size = 4
??$forward@PAVCXMasMonsterHerd@@@std@@YA$$QAPAVCXMasMonsterHerd@@AAPAV1@@Z PROC ; std::forward<CXMasMonsterHerd *>, COMDAT

; 78   : 	{	// forward _Arg, given explicitly specified type parameter

  00000	55		 push	 ebp
  00001	8b ec		 mov	 ebp, esp

; 79   : 	return ((_Ty&&)_Arg);

  00003	8b 45 08	 mov	 eax, DWORD PTR __Arg$[ebp]

; 80   : 	}

  00006	5d		 pop	 ebp
  00007	c3		 ret	 0
??$forward@PAVCXMasMonsterHerd@@@std@@YA$$QAPAVCXMasMonsterHerd@@AAPAV1@@Z ENDP ; std::forward<CXMasMonsterHerd *>
_TEXT	ENDS
PUBLIC	??$addressof@$$CBUXMASMONSTER_MAP_INFO@@@std@@YAPBUXMASMONSTER_MAP_INFO@@ABU1@@Z ; std::addressof<XMASMONSTER_MAP_INFO const >
; Function compile flags: /Ogtp
; File d:\program files (x86)\microsoft visual studio 10.0\vc\include\xmemory
;	COMDAT ??$addressof@$$CBUXMASMONSTER_MAP_INFO@@@std@@YAPBUXMASMONSTER_MAP_INFO@@ABU1@@Z
_TEXT	SEGMENT
__Val$ = 8						; size = 4
??$addressof@$$CBUXMASMONSTER_MAP_INFO@@@std@@YAPBUXMASMONSTER_MAP_INFO@@ABU1@@Z PROC ; std::addressof<XMASMONSTER_MAP_INFO const >, COMDAT

; 110  : 	{	// return address of _Val

  00000	55		 push	 ebp
  00001	8b ec		 mov	 ebp, esp

; 111  : 	return ((_Ty *) &(char&)_Val);

  00003	8b 45 08	 mov	 eax, DWORD PTR __Val$[ebp]

; 112  : 	}

  00006	5d		 pop	 ebp
  00007	c3		 ret	 0
??$addressof@$$CBUXMASMONSTER_MAP_INFO@@@std@@YAPBUXMASMONSTER_MAP_INFO@@ABU1@@Z ENDP ; std::addressof<XMASMONSTER_MAP_INFO const >
_TEXT	ENDS
PUBLIC	?construct@?$allocator@PAVCXMasMonsterHerd@@@std@@QAEXPAPAVCXMasMonsterHerd@@$$QAPAV3@@Z ; std::allocator<CXMasMonsterHerd *>::construct
; Function compile flags: /Ogtp
;	COMDAT ?construct@?$allocator@PAVCXMasMonsterHerd@@@std@@QAEXPAPAVCXMasMonsterHerd@@$$QAPAV3@@Z
_TEXT	SEGMENT
__Ptr$ = 8						; size = 4
__Val$ = 12						; size = 4
?construct@?$allocator@PAVCXMasMonsterHerd@@@std@@QAEXPAPAVCXMasMonsterHerd@@$$QAPAV3@@Z PROC ; std::allocator<CXMasMonsterHerd *>::construct, COMDAT
; _this$ = ecx

; 201  : 		{	// construct object at _Ptr with value _Val

  00000	55		 push	 ebp
  00001	8b ec		 mov	 ebp, esp

; 202  : 		::new ((void _FARQ *)_Ptr) _Ty(_STD forward<_Ty>(_Val));

  00003	8b 45 08	 mov	 eax, DWORD PTR __Ptr$[ebp]
  00006	85 c0		 test	 eax, eax
  00008	74 07		 je	 SHORT $LN3@construct
  0000a	8b 4d 0c	 mov	 ecx, DWORD PTR __Val$[ebp]
  0000d	8b 11		 mov	 edx, DWORD PTR [ecx]
  0000f	89 10		 mov	 DWORD PTR [eax], edx
$LN3@construct:

; 203  : 		}

  00011	5d		 pop	 ebp
  00012	c2 08 00	 ret	 8
?construct@?$allocator@PAVCXMasMonsterHerd@@@std@@QAEXPAPAVCXMasMonsterHerd@@$$QAPAV3@@Z ENDP ; std::allocator<CXMasMonsterHerd *>::construct
_TEXT	ENDS
PUBLIC	??$forward@AAUXMASMONSTER_EVENT_TIME@@@std@@YAAAUXMASMONSTER_EVENT_TIME@@AAU1@@Z ; std::forward<XMASMONSTER_EVENT_TIME &>
; Function compile flags: /Ogtp
; File d:\program files (x86)\microsoft visual studio 10.0\vc\include\utility
;	COMDAT ??$forward@AAUXMASMONSTER_EVENT_TIME@@@std@@YAAAUXMASMONSTER_EVENT_TIME@@AAU1@@Z
_TEXT	SEGMENT
__Arg$ = 8						; size = 4
??$forward@AAUXMASMONSTER_EVENT_TIME@@@std@@YAAAUXMASMONSTER_EVENT_TIME@@AAU1@@Z PROC ; std::forward<XMASMONSTER_EVENT_TIME &>, COMDAT

; 78   : 	{	// forward _Arg, given explicitly specified type parameter

  00000	55		 push	 ebp
  00001	8b ec		 mov	 ebp, esp

; 79   : 	return ((_Ty&&)_Arg);

  00003	8b 45 08	 mov	 eax, DWORD PTR __Arg$[ebp]

; 80   : 	}

  00006	5d		 pop	 ebp
  00007	c3		 ret	 0
??$forward@AAUXMASMONSTER_EVENT_TIME@@@std@@YAAAUXMASMONSTER_EVENT_TIME@@AAU1@@Z ENDP ; std::forward<XMASMONSTER_EVENT_TIME &>
_TEXT	ENDS
PUBLIC	??$construct@AAUXMASMONSTER_EVENT_TIME@@@?$allocator@UXMASMONSTER_EVENT_TIME@@@std@@QAEXPAUXMASMONSTER_EVENT_TIME@@AAU2@@Z ; std::allocator<XMASMONSTER_EVENT_TIME>::construct<XMASMONSTER_EVENT_TIME &>
; Function compile flags: /Ogtp
; File d:\program files (x86)\microsoft visual studio 10.0\vc\include\xmemory
;	COMDAT ??$construct@AAUXMASMONSTER_EVENT_TIME@@@?$allocator@UXMASMONSTER_EVENT_TIME@@@std@@QAEXPAUXMASMONSTER_EVENT_TIME@@AAU2@@Z
_TEXT	SEGMENT
__Ptr$ = 8						; size = 4
__Val$ = 12						; size = 4
??$construct@AAUXMASMONSTER_EVENT_TIME@@@?$allocator@UXMASMONSTER_EVENT_TIME@@@std@@QAEXPAUXMASMONSTER_EVENT_TIME@@AAU2@@Z PROC ; std::allocator<XMASMONSTER_EVENT_TIME>::construct<XMASMONSTER_EVENT_TIME &>, COMDAT
; _this$ = ecx

; 206  : 		void construct(pointer _Ptr, _Other&& _Val)

  00000	55		 push	 ebp
  00001	8b ec		 mov	 ebp, esp

; 207  : 		{	// construct object at _Ptr with value _Val
; 208  : 		::new ((void _FARQ *)_Ptr) _Ty(_STD forward<_Other>(_Val));

  00003	8b 45 08	 mov	 eax, DWORD PTR __Ptr$[ebp]
  00006	85 c0		 test	 eax, eax
  00008	74 0d		 je	 SHORT $LN3@construct@2
  0000a	8b 4d 0c	 mov	 ecx, DWORD PTR __Val$[ebp]
  0000d	8b 11		 mov	 edx, DWORD PTR [ecx]
  0000f	89 10		 mov	 DWORD PTR [eax], edx
  00011	8b 49 04	 mov	 ecx, DWORD PTR [ecx+4]
  00014	89 48 04	 mov	 DWORD PTR [eax+4], ecx
$LN3@construct@2:

; 209  : 		}

  00017	5d		 pop	 ebp
  00018	c2 08 00	 ret	 8
??$construct@AAUXMASMONSTER_EVENT_TIME@@@?$allocator@UXMASMONSTER_EVENT_TIME@@@std@@QAEXPAUXMASMONSTER_EVENT_TIME@@AAU2@@Z ENDP ; std::allocator<XMASMONSTER_EVENT_TIME>::construct<XMASMONSTER_EVENT_TIME &>
_TEXT	ENDS
PUBLIC	??$forward@ABUXMASMONSTER_EVENT_TIME@@@std@@YAABUXMASMONSTER_EVENT_TIME@@ABU1@@Z ; std::forward<XMASMONSTER_EVENT_TIME const &>
; Function compile flags: /Ogtp
; File d:\program files (x86)\microsoft visual studio 10.0\vc\include\utility
;	COMDAT ??$forward@ABUXMASMONSTER_EVENT_TIME@@@std@@YAABUXMASMONSTER_EVENT_TIME@@ABU1@@Z
_TEXT	SEGMENT
__Arg$ = 8						; size = 4
??$forward@ABUXMASMONSTER_EVENT_TIME@@@std@@YAABUXMASMONSTER_EVENT_TIME@@ABU1@@Z PROC ; std::forward<XMASMONSTER_EVENT_TIME const &>, COMDAT

; 78   : 	{	// forward _Arg, given explicitly specified type parameter

  00000	55		 push	 ebp
  00001	8b ec		 mov	 ebp, esp

; 79   : 	return ((_Ty&&)_Arg);

  00003	8b 45 08	 mov	 eax, DWORD PTR __Arg$[ebp]

; 80   : 	}

  00006	5d		 pop	 ebp
  00007	c3		 ret	 0
??$forward@ABUXMASMONSTER_EVENT_TIME@@@std@@YAABUXMASMONSTER_EVENT_TIME@@ABU1@@Z ENDP ; std::forward<XMASMONSTER_EVENT_TIME const &>
_TEXT	ENDS
PUBLIC	??$forward@AAUXMASMONSTER_DATA@@@std@@YAAAUXMASMONSTER_DATA@@AAU1@@Z ; std::forward<XMASMONSTER_DATA &>
; Function compile flags: /Ogtp
;	COMDAT ??$forward@AAUXMASMONSTER_DATA@@@std@@YAAAUXMASMONSTER_DATA@@AAU1@@Z
_TEXT	SEGMENT
__Arg$ = 8						; size = 4
??$forward@AAUXMASMONSTER_DATA@@@std@@YAAAUXMASMONSTER_DATA@@AAU1@@Z PROC ; std::forward<XMASMONSTER_DATA &>, COMDAT

; 78   : 	{	// forward _Arg, given explicitly specified type parameter

  00000	55		 push	 ebp
  00001	8b ec		 mov	 ebp, esp

; 79   : 	return ((_Ty&&)_Arg);

  00003	8b 45 08	 mov	 eax, DWORD PTR __Arg$[ebp]

; 80   : 	}

  00006	5d		 pop	 ebp
  00007	c3		 ret	 0
??$forward@AAUXMASMONSTER_DATA@@@std@@YAAAUXMASMONSTER_DATA@@AAU1@@Z ENDP ; std::forward<XMASMONSTER_DATA &>
_TEXT	ENDS
PUBLIC	??$construct@AAUXMASMONSTER_DATA@@@?$allocator@UXMASMONSTER_DATA@@@std@@QAEXPAUXMASMONSTER_DATA@@AAU2@@Z ; std::allocator<XMASMONSTER_DATA>::construct<XMASMONSTER_DATA &>
; Function compile flags: /Ogtp
; File d:\program files (x86)\microsoft visual studio 10.0\vc\include\xmemory
;	COMDAT ??$construct@AAUXMASMONSTER_DATA@@@?$allocator@UXMASMONSTER_DATA@@@std@@QAEXPAUXMASMONSTER_DATA@@AAU2@@Z
_TEXT	SEGMENT
__Ptr$ = 8						; size = 4
__Val$ = 12						; size = 4
??$construct@AAUXMASMONSTER_DATA@@@?$allocator@UXMASMONSTER_DATA@@@std@@QAEXPAUXMASMONSTER_DATA@@AAU2@@Z PROC ; std::allocator<XMASMONSTER_DATA>::construct<XMASMONSTER_DATA &>, COMDAT
; _this$ = ecx

; 206  : 		void construct(pointer _Ptr, _Other&& _Val)

  00000	55		 push	 ebp
  00001	8b ec		 mov	 ebp, esp

; 207  : 		{	// construct object at _Ptr with value _Val
; 208  : 		::new ((void _FARQ *)_Ptr) _Ty(_STD forward<_Other>(_Val));

  00003	8b 45 08	 mov	 eax, DWORD PTR __Ptr$[ebp]
  00006	85 c0		 test	 eax, eax
  00008	74 13		 je	 SHORT $LN3@construct@3
  0000a	8b 4d 0c	 mov	 ecx, DWORD PTR __Val$[ebp]
  0000d	8b 11		 mov	 edx, DWORD PTR [ecx]
  0000f	89 10		 mov	 DWORD PTR [eax], edx
  00011	8b 51 04	 mov	 edx, DWORD PTR [ecx+4]
  00014	89 50 04	 mov	 DWORD PTR [eax+4], edx
  00017	8b 49 08	 mov	 ecx, DWORD PTR [ecx+8]
  0001a	89 48 08	 mov	 DWORD PTR [eax+8], ecx
$LN3@construct@3:

; 209  : 		}

  0001d	5d		 pop	 ebp
  0001e	c2 08 00	 ret	 8
??$construct@AAUXMASMONSTER_DATA@@@?$allocator@UXMASMONSTER_DATA@@@std@@QAEXPAUXMASMONSTER_DATA@@AAU2@@Z ENDP ; std::allocator<XMASMONSTER_DATA>::construct<XMASMONSTER_DATA &>
_TEXT	ENDS
PUBLIC	??$forward@ABUXMASMONSTER_DATA@@@std@@YAABUXMASMONSTER_DATA@@ABU1@@Z ; std::forward<XMASMONSTER_DATA const &>
; Function compile flags: /Ogtp
; File d:\program files (x86)\microsoft visual studio 10.0\vc\include\utility
;	COMDAT ??$forward@ABUXMASMONSTER_DATA@@@std@@YAABUXMASMONSTER_DATA@@ABU1@@Z
_TEXT	SEGMENT
__Arg$ = 8						; size = 4
??$forward@ABUXMASMONSTER_DATA@@@std@@YAABUXMASMONSTER_DATA@@ABU1@@Z PROC ; std::forward<XMASMONSTER_DATA const &>, COMDAT

; 78   : 	{	// forward _Arg, given explicitly specified type parameter

  00000	55		 push	 ebp
  00001	8b ec		 mov	 ebp, esp

; 79   : 	return ((_Ty&&)_Arg);

  00003	8b 45 08	 mov	 eax, DWORD PTR __Arg$[ebp]

; 80   : 	}

  00006	5d		 pop	 ebp
  00007	c3		 ret	 0
??$forward@ABUXMASMONSTER_DATA@@@std@@YAABUXMASMONSTER_DATA@@ABU1@@Z ENDP ; std::forward<XMASMONSTER_DATA const &>
_TEXT	ENDS
PUBLIC	??$_Ptr_cat@PAVCXMasMonsterHerd@@PAV1@@std@@YA?AU_Scalar_ptr_iterator_tag@0@PAPAVCXMasMonsterHerd@@0@Z ; std::_Ptr_cat<CXMasMonsterHerd *,CXMasMonsterHerd *>
; Function compile flags: /Ogtp
; File d:\program files (x86)\microsoft visual studio 10.0\vc\include\xutility
;	COMDAT ??$_Ptr_cat@PAVCXMasMonsterHerd@@PAV1@@std@@YA?AU_Scalar_ptr_iterator_tag@0@PAPAVCXMasMonsterHerd@@0@Z
_TEXT	SEGMENT
__Cat$ = -1						; size = 1
___formal$ = 8						; size = 4
___formal$ = 12						; size = 4
??$_Ptr_cat@PAVCXMasMonsterHerd@@PAV1@@std@@YA?AU_Scalar_ptr_iterator_tag@0@PAPAVCXMasMonsterHerd@@0@Z PROC ; std::_Ptr_cat<CXMasMonsterHerd *,CXMasMonsterHerd *>, COMDAT

; 516  : 	{	// return pointer category from pointers

  00000	55		 push	 ebp
  00001	8b ec		 mov	 ebp, esp
  00003	51		 push	 ecx

; 517  : 	typename _Ptr_cat_helper<_Elem1, _Elem2>::_Type _Cat;
; 518  : 	return (_Cat);

  00004	8a 45 ff	 mov	 al, BYTE PTR __Cat$[ebp]

; 519  : 	}

  00007	8b e5		 mov	 esp, ebp
  00009	5d		 pop	 ebp
  0000a	c3		 ret	 0
??$_Ptr_cat@PAVCXMasMonsterHerd@@PAV1@@std@@YA?AU_Scalar_ptr_iterator_tag@0@PAPAVCXMasMonsterHerd@@0@Z ENDP ; std::_Ptr_cat<CXMasMonsterHerd *,CXMasMonsterHerd *>
_TEXT	ENDS
PUBLIC	??$_Move@PAPAVCXMasMonsterHerd@@PAPAV1@@std@@YAPAPAVCXMasMonsterHerd@@PAPAV1@00U_Scalar_ptr_iterator_tag@0@@Z ; std::_Move<CXMasMonsterHerd * *,CXMasMonsterHerd * *>
EXTRN	_memmove:PROC
; Function compile flags: /Ogtp
;	COMDAT ??$_Move@PAPAVCXMasMonsterHerd@@PAPAV1@@std@@YAPAPAVCXMasMonsterHerd@@PAPAV1@00U_Scalar_ptr_iterator_tag@0@@Z
_TEXT	SEGMENT
__First$ = 8						; size = 4
__Last$ = 12						; size = 4
__Dest$ = 16						; size = 4
___formal$ = 20						; size = 1
??$_Move@PAPAVCXMasMonsterHerd@@PAPAV1@@std@@YAPAPAVCXMasMonsterHerd@@PAPAV1@00U_Scalar_ptr_iterator_tag@0@@Z PROC ; std::_Move<CXMasMonsterHerd * *,CXMasMonsterHerd * *>, COMDAT

; 2522 : 	{	// move [_First, _Last) to [_Dest, ...), pointers to scalars

  00000	55		 push	 ebp
  00001	8b ec		 mov	 ebp, esp

; 2523 : 	ptrdiff_t _Count = _Last - _First;

  00003	8b 4d 08	 mov	 ecx, DWORD PTR __First$[ebp]
  00006	8b 45 0c	 mov	 eax, DWORD PTR __Last$[ebp]
  00009	56		 push	 esi
  0000a	2b c1		 sub	 eax, ecx
  0000c	57		 push	 edi

; 2524 : 	_CSTD memmove(&*_Dest, &*_First,
; 2525 : 		_Count * sizeof (*_First));

  0000d	8b 7d 10	 mov	 edi, DWORD PTR __Dest$[ebp]
  00010	c1 f8 02	 sar	 eax, 2
  00013	8d 34 85 00 00
	00 00		 lea	 esi, DWORD PTR [eax*4]
  0001a	56		 push	 esi
  0001b	51		 push	 ecx
  0001c	57		 push	 edi
  0001d	e8 00 00 00 00	 call	 _memmove
  00022	83 c4 0c	 add	 esp, 12			; 0000000cH

; 2526 : 	return (_Dest + _Count);

  00025	8d 04 3e	 lea	 eax, DWORD PTR [esi+edi]
  00028	5f		 pop	 edi
  00029	5e		 pop	 esi

; 2527 : 	}

  0002a	5d		 pop	 ebp
  0002b	c3		 ret	 0
??$_Move@PAPAVCXMasMonsterHerd@@PAPAV1@@std@@YAPAPAVCXMasMonsterHerd@@PAPAV1@00U_Scalar_ptr_iterator_tag@0@@Z ENDP ; std::_Move<CXMasMonsterHerd * *,CXMasMonsterHerd * *>
_TEXT	ENDS
PUBLIC	??$forward@AAUXMASMONSTER_MAP_INFO@@@std@@YAAAUXMASMONSTER_MAP_INFO@@AAU1@@Z ; std::forward<XMASMONSTER_MAP_INFO &>
; Function compile flags: /Ogtp
; File d:\program files (x86)\microsoft visual studio 10.0\vc\include\utility
;	COMDAT ??$forward@AAUXMASMONSTER_MAP_INFO@@@std@@YAAAUXMASMONSTER_MAP_INFO@@AAU1@@Z
_TEXT	SEGMENT
__Arg$ = 8						; size = 4
??$forward@AAUXMASMONSTER_MAP_INFO@@@std@@YAAAUXMASMONSTER_MAP_INFO@@AAU1@@Z PROC ; std::forward<XMASMONSTER_MAP_INFO &>, COMDAT

; 78   : 	{	// forward _Arg, given explicitly specified type parameter

  00000	55		 push	 ebp
  00001	8b ec		 mov	 ebp, esp

; 79   : 	return ((_Ty&&)_Arg);

  00003	8b 45 08	 mov	 eax, DWORD PTR __Arg$[ebp]

; 80   : 	}

  00006	5d		 pop	 ebp
  00007	c3		 ret	 0
??$forward@AAUXMASMONSTER_MAP_INFO@@@std@@YAAAUXMASMONSTER_MAP_INFO@@AAU1@@Z ENDP ; std::forward<XMASMONSTER_MAP_INFO &>
_TEXT	ENDS
PUBLIC	??$construct@AAUXMASMONSTER_MAP_INFO@@@?$allocator@UXMASMONSTER_MAP_INFO@@@std@@QAEXPAUXMASMONSTER_MAP_INFO@@AAU2@@Z ; std::allocator<XMASMONSTER_MAP_INFO>::construct<XMASMONSTER_MAP_INFO &>
; Function compile flags: /Ogtp
; File d:\program files (x86)\microsoft visual studio 10.0\vc\include\xmemory
;	COMDAT ??$construct@AAUXMASMONSTER_MAP_INFO@@@?$allocator@UXMASMONSTER_MAP_INFO@@@std@@QAEXPAUXMASMONSTER_MAP_INFO@@AAU2@@Z
_TEXT	SEGMENT
__Ptr$ = 8						; size = 4
__Val$ = 12						; size = 4
??$construct@AAUXMASMONSTER_MAP_INFO@@@?$allocator@UXMASMONSTER_MAP_INFO@@@std@@QAEXPAUXMASMONSTER_MAP_INFO@@AAU2@@Z PROC ; std::allocator<XMASMONSTER_MAP_INFO>::construct<XMASMONSTER_MAP_INFO &>, COMDAT
; _this$ = ecx

; 206  : 		void construct(pointer _Ptr, _Other&& _Val)

  00000	55		 push	 ebp
  00001	8b ec		 mov	 ebp, esp

; 207  : 		{	// construct object at _Ptr with value _Val
; 208  : 		::new ((void _FARQ *)_Ptr) _Ty(_STD forward<_Other>(_Val));

  00003	8b 45 08	 mov	 eax, DWORD PTR __Ptr$[ebp]
  00006	85 c0		 test	 eax, eax
  00008	74 1f		 je	 SHORT $LN3@construct@4
  0000a	8b 4d 0c	 mov	 ecx, DWORD PTR __Val$[ebp]
  0000d	8b 11		 mov	 edx, DWORD PTR [ecx]
  0000f	89 10		 mov	 DWORD PTR [eax], edx
  00011	8b 51 04	 mov	 edx, DWORD PTR [ecx+4]
  00014	89 50 04	 mov	 DWORD PTR [eax+4], edx
  00017	8b 51 08	 mov	 edx, DWORD PTR [ecx+8]
  0001a	89 50 08	 mov	 DWORD PTR [eax+8], edx
  0001d	8b 51 0c	 mov	 edx, DWORD PTR [ecx+12]
  00020	89 50 0c	 mov	 DWORD PTR [eax+12], edx
  00023	8b 49 10	 mov	 ecx, DWORD PTR [ecx+16]
  00026	89 48 10	 mov	 DWORD PTR [eax+16], ecx
$LN3@construct@4:

; 209  : 		}

  00029	5d		 pop	 ebp
  0002a	c2 08 00	 ret	 8
??$construct@AAUXMASMONSTER_MAP_INFO@@@?$allocator@UXMASMONSTER_MAP_INFO@@@std@@QAEXPAUXMASMONSTER_MAP_INFO@@AAU2@@Z ENDP ; std::allocator<XMASMONSTER_MAP_INFO>::construct<XMASMONSTER_MAP_INFO &>
_TEXT	ENDS
PUBLIC	??$forward@ABUXMASMONSTER_MAP_INFO@@@std@@YAABUXMASMONSTER_MAP_INFO@@ABU1@@Z ; std::forward<XMASMONSTER_MAP_INFO const &>
; Function compile flags: /Ogtp
; File d:\program files (x86)\microsoft visual studio 10.0\vc\include\utility
;	COMDAT ??$forward@ABUXMASMONSTER_MAP_INFO@@@std@@YAABUXMASMONSTER_MAP_INFO@@ABU1@@Z
_TEXT	SEGMENT
__Arg$ = 8						; size = 4
??$forward@ABUXMASMONSTER_MAP_INFO@@@std@@YAABUXMASMONSTER_MAP_INFO@@ABU1@@Z PROC ; std::forward<XMASMONSTER_MAP_INFO const &>, COMDAT

; 78   : 	{	// forward _Arg, given explicitly specified type parameter

  00000	55		 push	 ebp
  00001	8b ec		 mov	 ebp, esp

; 79   : 	return ((_Ty&&)_Arg);

  00003	8b 45 08	 mov	 eax, DWORD PTR __Arg$[ebp]

; 80   : 	}

  00006	5d		 pop	 ebp
  00007	c3		 ret	 0
??$forward@ABUXMASMONSTER_MAP_INFO@@@std@@YAABUXMASMONSTER_MAP_INFO@@ABU1@@Z ENDP ; std::forward<XMASMONSTER_MAP_INFO const &>
_TEXT	ENDS
PUBLIC	??$_Destroy_range@V?$allocator@PAVCXMasMonsterHerd@@@std@@@std@@YAXPAPAVCXMasMonsterHerd@@0AAV?$allocator@PAVCXMasMonsterHerd@@@0@U_Scalar_ptr_iterator_tag@0@@Z ; std::_Destroy_range<std::allocator<CXMasMonsterHerd *> >
; Function compile flags: /Ogtp
; File d:\program files (x86)\microsoft visual studio 10.0\vc\include\xmemory
;	COMDAT ??$_Destroy_range@V?$allocator@PAVCXMasMonsterHerd@@@std@@@std@@YAXPAPAVCXMasMonsterHerd@@0AAV?$allocator@PAVCXMasMonsterHerd@@@0@U_Scalar_ptr_iterator_tag@0@@Z
_TEXT	SEGMENT
__First$ = 8						; size = 4
__Last$ = 12						; size = 4
__Al$ = 16						; size = 4
___formal$ = 20						; size = 1
??$_Destroy_range@V?$allocator@PAVCXMasMonsterHerd@@@std@@@std@@YAXPAPAVCXMasMonsterHerd@@0AAV?$allocator@PAVCXMasMonsterHerd@@@0@U_Scalar_ptr_iterator_tag@0@@Z PROC ; std::_Destroy_range<std::allocator<CXMasMonsterHerd *> >, COMDAT

; 105  : 	}

  00000	c3		 ret	 0
??$_Destroy_range@V?$allocator@PAVCXMasMonsterHerd@@@std@@@std@@YAXPAPAVCXMasMonsterHerd@@0AAV?$allocator@PAVCXMasMonsterHerd@@@0@U_Scalar_ptr_iterator_tag@0@@Z ENDP ; std::_Destroy_range<std::allocator<CXMasMonsterHerd *> >
_TEXT	ENDS
PUBLIC	??$_Ptr_cat@UXMASMONSTER_MAP_INFO@@U1@@std@@YA?AU_Nonscalar_ptr_iterator_tag@0@PAUXMASMONSTER_MAP_INFO@@0@Z ; std::_Ptr_cat<XMASMONSTER_MAP_INFO,XMASMONSTER_MAP_INFO>
; Function compile flags: /Ogtp
; File d:\program files (x86)\microsoft visual studio 10.0\vc\include\xutility
;	COMDAT ??$_Ptr_cat@UXMASMONSTER_MAP_INFO@@U1@@std@@YA?AU_Nonscalar_ptr_iterator_tag@0@PAUXMASMONSTER_MAP_INFO@@0@Z
_TEXT	SEGMENT
__Cat$ = -1						; size = 1
___formal$ = 8						; size = 4
___formal$ = 12						; size = 4
??$_Ptr_cat@UXMASMONSTER_MAP_INFO@@U1@@std@@YA?AU_Nonscalar_ptr_iterator_tag@0@PAUXMASMONSTER_MAP_INFO@@0@Z PROC ; std::_Ptr_cat<XMASMONSTER_MAP_INFO,XMASMONSTER_MAP_INFO>, COMDAT

; 516  : 	{	// return pointer category from pointers

  00000	55		 push	 ebp
  00001	8b ec		 mov	 ebp, esp
  00003	51		 push	 ecx

; 517  : 	typename _Ptr_cat_helper<_Elem1, _Elem2>::_Type _Cat;
; 518  : 	return (_Cat);

  00004	8a 45 ff	 mov	 al, BYTE PTR __Cat$[ebp]

; 519  : 	}

  00007	8b e5		 mov	 esp, ebp
  00009	5d		 pop	 ebp
  0000a	c3		 ret	 0
??$_Ptr_cat@UXMASMONSTER_MAP_INFO@@U1@@std@@YA?AU_Nonscalar_ptr_iterator_tag@0@PAUXMASMONSTER_MAP_INFO@@0@Z ENDP ; std::_Ptr_cat<XMASMONSTER_MAP_INFO,XMASMONSTER_MAP_INFO>
_TEXT	ENDS
PUBLIC	??$_Ptr_cat@UXMASMONSTER_EVENT_TIME@@U1@@std@@YA?AU_Nonscalar_ptr_iterator_tag@0@PAUXMASMONSTER_EVENT_TIME@@0@Z ; std::_Ptr_cat<XMASMONSTER_EVENT_TIME,XMASMONSTER_EVENT_TIME>
; Function compile flags: /Ogtp
;	COMDAT ??$_Ptr_cat@UXMASMONSTER_EVENT_TIME@@U1@@std@@YA?AU_Nonscalar_ptr_iterator_tag@0@PAUXMASMONSTER_EVENT_TIME@@0@Z
_TEXT	SEGMENT
__Cat$ = -1						; size = 1
___formal$ = 8						; size = 4
___formal$ = 12						; size = 4
??$_Ptr_cat@UXMASMONSTER_EVENT_TIME@@U1@@std@@YA?AU_Nonscalar_ptr_iterator_tag@0@PAUXMASMONSTER_EVENT_TIME@@0@Z PROC ; std::_Ptr_cat<XMASMONSTER_EVENT_TIME,XMASMONSTER_EVENT_TIME>, COMDAT

; 516  : 	{	// return pointer category from pointers

  00000	55		 push	 ebp
  00001	8b ec		 mov	 ebp, esp
  00003	51		 push	 ecx

; 517  : 	typename _Ptr_cat_helper<_Elem1, _Elem2>::_Type _Cat;
; 518  : 	return (_Cat);

  00004	8a 45 ff	 mov	 al, BYTE PTR __Cat$[ebp]

; 519  : 	}

  00007	8b e5		 mov	 esp, ebp
  00009	5d		 pop	 ebp
  0000a	c3		 ret	 0
??$_Ptr_cat@UXMASMONSTER_EVENT_TIME@@U1@@std@@YA?AU_Nonscalar_ptr_iterator_tag@0@PAUXMASMONSTER_EVENT_TIME@@0@Z ENDP ; std::_Ptr_cat<XMASMONSTER_EVENT_TIME,XMASMONSTER_EVENT_TIME>
_TEXT	ENDS
PUBLIC	??$_Ptr_cat@UXMASMONSTER_DATA@@U1@@std@@YA?AU_Nonscalar_ptr_iterator_tag@0@PAUXMASMONSTER_DATA@@0@Z ; std::_Ptr_cat<XMASMONSTER_DATA,XMASMONSTER_DATA>
; Function compile flags: /Ogtp
;	COMDAT ??$_Ptr_cat@UXMASMONSTER_DATA@@U1@@std@@YA?AU_Nonscalar_ptr_iterator_tag@0@PAUXMASMONSTER_DATA@@0@Z
_TEXT	SEGMENT
__Cat$ = -1						; size = 1
___formal$ = 8						; size = 4
___formal$ = 12						; size = 4
??$_Ptr_cat@UXMASMONSTER_DATA@@U1@@std@@YA?AU_Nonscalar_ptr_iterator_tag@0@PAUXMASMONSTER_DATA@@0@Z PROC ; std::_Ptr_cat<XMASMONSTER_DATA,XMASMONSTER_DATA>, COMDAT

; 516  : 	{	// return pointer category from pointers

  00000	55		 push	 ebp
  00001	8b ec		 mov	 ebp, esp
  00003	51		 push	 ecx

; 517  : 	typename _Ptr_cat_helper<_Elem1, _Elem2>::_Type _Cat;
; 518  : 	return (_Cat);

  00004	8a 45 ff	 mov	 al, BYTE PTR __Cat$[ebp]

; 519  : 	}

  00007	8b e5		 mov	 esp, ebp
  00009	5d		 pop	 ebp
  0000a	c3		 ret	 0
??$_Ptr_cat@UXMASMONSTER_DATA@@U1@@std@@YA?AU_Nonscalar_ptr_iterator_tag@0@PAUXMASMONSTER_DATA@@0@Z ENDP ; std::_Ptr_cat<XMASMONSTER_DATA,XMASMONSTER_DATA>
_TEXT	ENDS
PUBLIC	??$_Construct@UXMASMONSTER_EVENT_TIME@@ABU1@@std@@YAXPAUXMASMONSTER_EVENT_TIME@@ABU1@@Z ; std::_Construct<XMASMONSTER_EVENT_TIME,XMASMONSTER_EVENT_TIME const &>
; Function compile flags: /Ogtp
; File d:\program files (x86)\microsoft visual studio 10.0\vc\include\xmemory
;	COMDAT ??$_Construct@UXMASMONSTER_EVENT_TIME@@ABU1@@std@@YAXPAUXMASMONSTER_EVENT_TIME@@ABU1@@Z
_TEXT	SEGMENT
__Ptr$ = 8						; size = 4
__Val$ = 12						; size = 4
??$_Construct@UXMASMONSTER_EVENT_TIME@@ABU1@@std@@YAXPAUXMASMONSTER_EVENT_TIME@@ABU1@@Z PROC ; std::_Construct<XMASMONSTER_EVENT_TIME,XMASMONSTER_EVENT_TIME const &>, COMDAT

; 46   : 	{	// construct object at _Ptr with value _Val

  00000	55		 push	 ebp
  00001	8b ec		 mov	 ebp, esp

; 47   : 	void _FARQ *_Vptr = _Ptr;
; 48   : 	::new (_Vptr) _Ty1(_STD forward<_Ty2>(_Val));

  00003	8b 45 08	 mov	 eax, DWORD PTR __Ptr$[ebp]
  00006	85 c0		 test	 eax, eax
  00008	74 0d		 je	 SHORT $LN3@Construct
  0000a	8b 4d 0c	 mov	 ecx, DWORD PTR __Val$[ebp]
  0000d	8b 11		 mov	 edx, DWORD PTR [ecx]
  0000f	89 10		 mov	 DWORD PTR [eax], edx
  00011	8b 49 04	 mov	 ecx, DWORD PTR [ecx+4]
  00014	89 48 04	 mov	 DWORD PTR [eax+4], ecx
$LN3@Construct:

; 49   : 	}

  00017	5d		 pop	 ebp
  00018	c3		 ret	 0
??$_Construct@UXMASMONSTER_EVENT_TIME@@ABU1@@std@@YAXPAUXMASMONSTER_EVENT_TIME@@ABU1@@Z ENDP ; std::_Construct<XMASMONSTER_EVENT_TIME,XMASMONSTER_EVENT_TIME const &>
_TEXT	ENDS
PUBLIC	??$_Construct@UXMASMONSTER_DATA@@ABU1@@std@@YAXPAUXMASMONSTER_DATA@@ABU1@@Z ; std::_Construct<XMASMONSTER_DATA,XMASMONSTER_DATA const &>
; Function compile flags: /Ogtp
;	COMDAT ??$_Construct@UXMASMONSTER_DATA@@ABU1@@std@@YAXPAUXMASMONSTER_DATA@@ABU1@@Z
_TEXT	SEGMENT
__Ptr$ = 8						; size = 4
__Val$ = 12						; size = 4
??$_Construct@UXMASMONSTER_DATA@@ABU1@@std@@YAXPAUXMASMONSTER_DATA@@ABU1@@Z PROC ; std::_Construct<XMASMONSTER_DATA,XMASMONSTER_DATA const &>, COMDAT

; 46   : 	{	// construct object at _Ptr with value _Val

  00000	55		 push	 ebp
  00001	8b ec		 mov	 ebp, esp

; 47   : 	void _FARQ *_Vptr = _Ptr;
; 48   : 	::new (_Vptr) _Ty1(_STD forward<_Ty2>(_Val));

  00003	8b 45 08	 mov	 eax, DWORD PTR __Ptr$[ebp]
  00006	85 c0		 test	 eax, eax
  00008	74 13		 je	 SHORT $LN3@Construct@2
  0000a	8b 4d 0c	 mov	 ecx, DWORD PTR __Val$[ebp]
  0000d	8b 11		 mov	 edx, DWORD PTR [ecx]
  0000f	89 10		 mov	 DWORD PTR [eax], edx
  00011	8b 51 04	 mov	 edx, DWORD PTR [ecx+4]
  00014	89 50 04	 mov	 DWORD PTR [eax+4], edx
  00017	8b 49 08	 mov	 ecx, DWORD PTR [ecx+8]
  0001a	89 48 08	 mov	 DWORD PTR [eax+8], ecx
$LN3@Construct@2:

; 49   : 	}

  0001d	5d		 pop	 ebp
  0001e	c3		 ret	 0
??$_Construct@UXMASMONSTER_DATA@@ABU1@@std@@YAXPAUXMASMONSTER_DATA@@ABU1@@Z ENDP ; std::_Construct<XMASMONSTER_DATA,XMASMONSTER_DATA const &>
_TEXT	ENDS
PUBLIC	??$_Construct@UXMASMONSTER_MAP_INFO@@ABU1@@std@@YAXPAUXMASMONSTER_MAP_INFO@@ABU1@@Z ; std::_Construct<XMASMONSTER_MAP_INFO,XMASMONSTER_MAP_INFO const &>
; Function compile flags: /Ogtp
;	COMDAT ??$_Construct@UXMASMONSTER_MAP_INFO@@ABU1@@std@@YAXPAUXMASMONSTER_MAP_INFO@@ABU1@@Z
_TEXT	SEGMENT
__Ptr$ = 8						; size = 4
__Val$ = 12						; size = 4
??$_Construct@UXMASMONSTER_MAP_INFO@@ABU1@@std@@YAXPAUXMASMONSTER_MAP_INFO@@ABU1@@Z PROC ; std::_Construct<XMASMONSTER_MAP_INFO,XMASMONSTER_MAP_INFO const &>, COMDAT

; 46   : 	{	// construct object at _Ptr with value _Val

  00000	55		 push	 ebp
  00001	8b ec		 mov	 ebp, esp

; 47   : 	void _FARQ *_Vptr = _Ptr;
; 48   : 	::new (_Vptr) _Ty1(_STD forward<_Ty2>(_Val));

  00003	8b 45 08	 mov	 eax, DWORD PTR __Ptr$[ebp]
  00006	85 c0		 test	 eax, eax
  00008	74 1f		 je	 SHORT $LN3@Construct@3
  0000a	8b 4d 0c	 mov	 ecx, DWORD PTR __Val$[ebp]
  0000d	8b 11		 mov	 edx, DWORD PTR [ecx]
  0000f	89 10		 mov	 DWORD PTR [eax], edx
  00011	8b 51 04	 mov	 edx, DWORD PTR [ecx+4]
  00014	89 50 04	 mov	 DWORD PTR [eax+4], edx
  00017	8b 51 08	 mov	 edx, DWORD PTR [ecx+8]
  0001a	89 50 08	 mov	 DWORD PTR [eax+8], edx
  0001d	8b 51 0c	 mov	 edx, DWORD PTR [ecx+12]
  00020	89 50 0c	 mov	 DWORD PTR [eax+12], edx
  00023	8b 49 10	 mov	 ecx, DWORD PTR [ecx+16]
  00026	89 48 10	 mov	 DWORD PTR [eax+16], ecx
$LN3@Construct@3:

; 49   : 	}

  00029	5d		 pop	 ebp
  0002a	c3		 ret	 0
??$_Construct@UXMASMONSTER_MAP_INFO@@ABU1@@std@@YAXPAUXMASMONSTER_MAP_INFO@@ABU1@@Z ENDP ; std::_Construct<XMASMONSTER_MAP_INFO,XMASMONSTER_MAP_INFO const &>
_TEXT	ENDS
PUBLIC	??$_Val_type@PAUXMASMONSTER_EVENT_TIME@@@std@@YAPAUXMASMONSTER_EVENT_TIME@@PAU1@@Z ; std::_Val_type<XMASMONSTER_EVENT_TIME *>
; Function compile flags: /Ogtp
; File d:\program files (x86)\microsoft visual studio 10.0\vc\include\xutility
;	COMDAT ??$_Val_type@PAUXMASMONSTER_EVENT_TIME@@@std@@YAPAUXMASMONSTER_EVENT_TIME@@PAU1@@Z
_TEXT	SEGMENT
___formal$ = 8						; size = 4
??$_Val_type@PAUXMASMONSTER_EVENT_TIME@@@std@@YAPAUXMASMONSTER_EVENT_TIME@@PAU1@@Z PROC ; std::_Val_type<XMASMONSTER_EVENT_TIME *>, COMDAT

; 790  : 	return (0);

  00000	33 c0		 xor	 eax, eax

; 791  : 	}

  00002	c3		 ret	 0
??$_Val_type@PAUXMASMONSTER_EVENT_TIME@@@std@@YAPAUXMASMONSTER_EVENT_TIME@@PAU1@@Z ENDP ; std::_Val_type<XMASMONSTER_EVENT_TIME *>
_TEXT	ENDS
PUBLIC	??$_Val_type@PAUXMASMONSTER_DATA@@@std@@YAPAUXMASMONSTER_DATA@@PAU1@@Z ; std::_Val_type<XMASMONSTER_DATA *>
; Function compile flags: /Ogtp
;	COMDAT ??$_Val_type@PAUXMASMONSTER_DATA@@@std@@YAPAUXMASMONSTER_DATA@@PAU1@@Z
_TEXT	SEGMENT
___formal$ = 8						; size = 4
??$_Val_type@PAUXMASMONSTER_DATA@@@std@@YAPAUXMASMONSTER_DATA@@PAU1@@Z PROC ; std::_Val_type<XMASMONSTER_DATA *>, COMDAT

; 790  : 	return (0);

  00000	33 c0		 xor	 eax, eax

; 791  : 	}

  00002	c3		 ret	 0
??$_Val_type@PAUXMASMONSTER_DATA@@@std@@YAPAUXMASMONSTER_DATA@@PAU1@@Z ENDP ; std::_Val_type<XMASMONSTER_DATA *>
_TEXT	ENDS
PUBLIC	??$_Val_type@PAPAVCXMasMonsterHerd@@@std@@YAPAPAVCXMasMonsterHerd@@PAPAV1@@Z ; std::_Val_type<CXMasMonsterHerd * *>
; Function compile flags: /Ogtp
;	COMDAT ??$_Val_type@PAPAVCXMasMonsterHerd@@@std@@YAPAPAVCXMasMonsterHerd@@PAPAV1@@Z
_TEXT	SEGMENT
___formal$ = 8						; size = 4
??$_Val_type@PAPAVCXMasMonsterHerd@@@std@@YAPAPAVCXMasMonsterHerd@@PAPAV1@@Z PROC ; std::_Val_type<CXMasMonsterHerd * *>, COMDAT

; 790  : 	return (0);

  00000	33 c0		 xor	 eax, eax

; 791  : 	}

  00002	c3		 ret	 0
??$_Val_type@PAPAVCXMasMonsterHerd@@@std@@YAPAPAVCXMasMonsterHerd@@PAPAV1@@Z ENDP ; std::_Val_type<CXMasMonsterHerd * *>
_TEXT	ENDS
PUBLIC	??$_Uninit_move@PAVCXMasMonsterHerd@@PAV1@PAV1@@std@@YAPAPAVCXMasMonsterHerd@@PAPAV1@00AAV?$allocator@PAVCXMasMonsterHerd@@@0@0U_Scalar_ptr_iterator_tag@0@@Z ; std::_Uninit_move<CXMasMonsterHerd *,CXMasMonsterHerd *,CXMasMonsterHerd *>
; Function compile flags: /Ogtp
; File d:\program files (x86)\microsoft visual studio 10.0\vc\include\memory
;	COMDAT ??$_Uninit_move@PAVCXMasMonsterHerd@@PAV1@PAV1@@std@@YAPAPAVCXMasMonsterHerd@@PAPAV1@00AAV?$allocator@PAVCXMasMonsterHerd@@@0@0U_Scalar_ptr_iterator_tag@0@@Z
_TEXT	SEGMENT
__First$ = 8						; size = 4
__Last$ = 12						; size = 4
__Dest$ = 16						; size = 4
___formal$ = 20						; size = 4
___formal$ = 24						; size = 4
___formal$ = 28						; size = 1
??$_Uninit_move@PAVCXMasMonsterHerd@@PAV1@PAV1@@std@@YAPAPAVCXMasMonsterHerd@@PAPAV1@00AAV?$allocator@PAVCXMasMonsterHerd@@@0@0U_Scalar_ptr_iterator_tag@0@@Z PROC ; std::_Uninit_move<CXMasMonsterHerd *,CXMasMonsterHerd *,CXMasMonsterHerd *>, COMDAT

; 456  : 	{	// move [_First, _Last) to raw _Dest, scalar type

  00000	55		 push	 ebp
  00001	8b ec		 mov	 ebp, esp

; 457  : 	_DEBUG_RANGE(_First, _Last);
; 458  : 	_DEBUG_POINTER(_Dest);
; 459  : 	size_t _Count = (size_t)(_Last - _First);

  00003	8b 4d 08	 mov	 ecx, DWORD PTR __First$[ebp]
  00006	8b 45 0c	 mov	 eax, DWORD PTR __Last$[ebp]
  00009	2b c1		 sub	 eax, ecx
  0000b	56		 push	 esi
  0000c	c1 f8 02	 sar	 eax, 2

; 460  : 	return ((_Ty2 *)_CSTD memmove(&*_Dest, &*_First,
; 461  : 		_Count * sizeof (*_First)) + _Count);	// NB: non-overlapping move

  0000f	8d 34 85 00 00
	00 00		 lea	 esi, DWORD PTR [eax*4]
  00016	8b 45 10	 mov	 eax, DWORD PTR __Dest$[ebp]
  00019	56		 push	 esi
  0001a	51		 push	 ecx
  0001b	50		 push	 eax
  0001c	e8 00 00 00 00	 call	 _memmove
  00021	83 c4 0c	 add	 esp, 12			; 0000000cH
  00024	03 c6		 add	 eax, esi
  00026	5e		 pop	 esi

; 462  : 	}

  00027	5d		 pop	 ebp
  00028	c3		 ret	 0
??$_Uninit_move@PAVCXMasMonsterHerd@@PAV1@PAV1@@std@@YAPAPAVCXMasMonsterHerd@@PAPAV1@00AAV?$allocator@PAVCXMasMonsterHerd@@@0@0U_Scalar_ptr_iterator_tag@0@@Z ENDP ; std::_Uninit_move<CXMasMonsterHerd *,CXMasMonsterHerd *,CXMasMonsterHerd *>
_TEXT	ENDS
PUBLIC	??$_Val_type@PAUXMASMONSTER_MAP_INFO@@@std@@YAPAUXMASMONSTER_MAP_INFO@@PAU1@@Z ; std::_Val_type<XMASMONSTER_MAP_INFO *>
; Function compile flags: /Ogtp
; File d:\program files (x86)\microsoft visual studio 10.0\vc\include\xutility
;	COMDAT ??$_Val_type@PAUXMASMONSTER_MAP_INFO@@@std@@YAPAUXMASMONSTER_MAP_INFO@@PAU1@@Z
_TEXT	SEGMENT
___formal$ = 8						; size = 4
??$_Val_type@PAUXMASMONSTER_MAP_INFO@@@std@@YAPAUXMASMONSTER_MAP_INFO@@PAU1@@Z PROC ; std::_Val_type<XMASMONSTER_MAP_INFO *>, COMDAT

; 790  : 	return (0);

  00000	33 c0		 xor	 eax, eax

; 791  : 	}

  00002	c3		 ret	 0
??$_Val_type@PAUXMASMONSTER_MAP_INFO@@@std@@YAPAUXMASMONSTER_MAP_INFO@@PAU1@@Z ENDP ; std::_Val_type<XMASMONSTER_MAP_INFO *>
_TEXT	ENDS
PUBLIC	??$_Destroy@UXMASMONSTER_EVENT_TIME@@@std@@YAXPAUXMASMONSTER_EVENT_TIME@@@Z ; std::_Destroy<XMASMONSTER_EVENT_TIME>
; Function compile flags: /Ogtp
; File d:\program files (x86)\microsoft visual studio 10.0\vc\include\xmemory
;	COMDAT ??$_Destroy@UXMASMONSTER_EVENT_TIME@@@std@@YAXPAUXMASMONSTER_EVENT_TIME@@@Z
_TEXT	SEGMENT
__Ptr$ = 8						; size = 4
??$_Destroy@UXMASMONSTER_EVENT_TIME@@@std@@YAXPAUXMASMONSTER_EVENT_TIME@@@Z PROC ; std::_Destroy<XMASMONSTER_EVENT_TIME>, COMDAT

; 63   : 	_Ptr->~_Ty();
; 64   : 	}

  00000	c3		 ret	 0
??$_Destroy@UXMASMONSTER_EVENT_TIME@@@std@@YAXPAUXMASMONSTER_EVENT_TIME@@@Z ENDP ; std::_Destroy<XMASMONSTER_EVENT_TIME>
_TEXT	ENDS
PUBLIC	??$_Destroy@UXMASMONSTER_DATA@@@std@@YAXPAUXMASMONSTER_DATA@@@Z ; std::_Destroy<XMASMONSTER_DATA>
; Function compile flags: /Ogtp
;	COMDAT ??$_Destroy@UXMASMONSTER_DATA@@@std@@YAXPAUXMASMONSTER_DATA@@@Z
_TEXT	SEGMENT
__Ptr$ = 8						; size = 4
??$_Destroy@UXMASMONSTER_DATA@@@std@@YAXPAUXMASMONSTER_DATA@@@Z PROC ; std::_Destroy<XMASMONSTER_DATA>, COMDAT

; 63   : 	_Ptr->~_Ty();
; 64   : 	}

  00000	c3		 ret	 0
??$_Destroy@UXMASMONSTER_DATA@@@std@@YAXPAUXMASMONSTER_DATA@@@Z ENDP ; std::_Destroy<XMASMONSTER_DATA>
_TEXT	ENDS
PUBLIC	??$_Destroy@UXMASMONSTER_MAP_INFO@@@std@@YAXPAUXMASMONSTER_MAP_INFO@@@Z ; std::_Destroy<XMASMONSTER_MAP_INFO>
; Function compile flags: /Ogtp
;	COMDAT ??$_Destroy@UXMASMONSTER_MAP_INFO@@@std@@YAXPAUXMASMONSTER_MAP_INFO@@@Z
_TEXT	SEGMENT
__Ptr$ = 8						; size = 4
??$_Destroy@UXMASMONSTER_MAP_INFO@@@std@@YAXPAUXMASMONSTER_MAP_INFO@@@Z PROC ; std::_Destroy<XMASMONSTER_MAP_INFO>, COMDAT

; 63   : 	_Ptr->~_Ty();
; 64   : 	}

  00000	c3		 ret	 0
??$_Destroy@UXMASMONSTER_MAP_INFO@@@std@@YAXPAUXMASMONSTER_MAP_INFO@@@Z ENDP ; std::_Destroy<XMASMONSTER_MAP_INFO>
_TEXT	ENDS
PUBLIC	??$forward@UXMASMONSTER_EVENT_TIME@@@std@@YA$$QAUXMASMONSTER_EVENT_TIME@@AAU1@@Z ; std::forward<XMASMONSTER_EVENT_TIME>
; Function compile flags: /Ogtp
; File d:\program files (x86)\microsoft visual studio 10.0\vc\include\utility
;	COMDAT ??$forward@UXMASMONSTER_EVENT_TIME@@@std@@YA$$QAUXMASMONSTER_EVENT_TIME@@AAU1@@Z
_TEXT	SEGMENT
__Arg$ = 8						; size = 4
??$forward@UXMASMONSTER_EVENT_TIME@@@std@@YA$$QAUXMASMONSTER_EVENT_TIME@@AAU1@@Z PROC ; std::forward<XMASMONSTER_EVENT_TIME>, COMDAT

; 78   : 	{	// forward _Arg, given explicitly specified type parameter

  00000	55		 push	 ebp
  00001	8b ec		 mov	 ebp, esp

; 79   : 	return ((_Ty&&)_Arg);

  00003	8b 45 08	 mov	 eax, DWORD PTR __Arg$[ebp]

; 80   : 	}

  00006	5d		 pop	 ebp
  00007	c3		 ret	 0
??$forward@UXMASMONSTER_EVENT_TIME@@@std@@YA$$QAUXMASMONSTER_EVENT_TIME@@AAU1@@Z ENDP ; std::forward<XMASMONSTER_EVENT_TIME>
_TEXT	ENDS
PUBLIC	??$forward@UXMASMONSTER_DATA@@@std@@YA$$QAUXMASMONSTER_DATA@@AAU1@@Z ; std::forward<XMASMONSTER_DATA>
; Function compile flags: /Ogtp
;	COMDAT ??$forward@UXMASMONSTER_DATA@@@std@@YA$$QAUXMASMONSTER_DATA@@AAU1@@Z
_TEXT	SEGMENT
__Arg$ = 8						; size = 4
??$forward@UXMASMONSTER_DATA@@@std@@YA$$QAUXMASMONSTER_DATA@@AAU1@@Z PROC ; std::forward<XMASMONSTER_DATA>, COMDAT

; 78   : 	{	// forward _Arg, given explicitly specified type parameter

  00000	55		 push	 ebp
  00001	8b ec		 mov	 ebp, esp

; 79   : 	return ((_Ty&&)_Arg);

  00003	8b 45 08	 mov	 eax, DWORD PTR __Arg$[ebp]

; 80   : 	}

  00006	5d		 pop	 ebp
  00007	c3		 ret	 0
??$forward@UXMASMONSTER_DATA@@@std@@YA$$QAUXMASMONSTER_DATA@@AAU1@@Z ENDP ; std::forward<XMASMONSTER_DATA>
_TEXT	ENDS
PUBLIC	??$forward@UXMASMONSTER_MAP_INFO@@@std@@YA$$QAUXMASMONSTER_MAP_INFO@@AAU1@@Z ; std::forward<XMASMONSTER_MAP_INFO>
; Function compile flags: /Ogtp
;	COMDAT ??$forward@UXMASMONSTER_MAP_INFO@@@std@@YA$$QAUXMASMONSTER_MAP_INFO@@AAU1@@Z
_TEXT	SEGMENT
__Arg$ = 8						; size = 4
??$forward@UXMASMONSTER_MAP_INFO@@@std@@YA$$QAUXMASMONSTER_MAP_INFO@@AAU1@@Z PROC ; std::forward<XMASMONSTER_MAP_INFO>, COMDAT

; 78   : 	{	// forward _Arg, given explicitly specified type parameter

  00000	55		 push	 ebp
  00001	8b ec		 mov	 ebp, esp

; 79   : 	return ((_Ty&&)_Arg);

  00003	8b 45 08	 mov	 eax, DWORD PTR __Arg$[ebp]

; 80   : 	}

  00006	5d		 pop	 ebp
  00007	c3		 ret	 0
??$forward@UXMASMONSTER_MAP_INFO@@@std@@YA$$QAUXMASMONSTER_MAP_INFO@@AAU1@@Z ENDP ; std::forward<XMASMONSTER_MAP_INFO>
_TEXT	ENDS
PUBLIC	??_7bad_alloc@std@@6B@				; std::bad_alloc::`vftable'
PUBLIC	??0bad_alloc@std@@QAE@PBD@Z			; std::bad_alloc::bad_alloc
PUBLIC	??_R4bad_alloc@std@@6B@				; std::bad_alloc::`RTTI Complete Object Locator'
PUBLIC	??_R0?AVbad_alloc@std@@@8			; std::bad_alloc `RTTI Type Descriptor'
PUBLIC	??_R3bad_alloc@std@@8				; std::bad_alloc::`RTTI Class Hierarchy Descriptor'
PUBLIC	??_R2bad_alloc@std@@8				; std::bad_alloc::`RTTI Base Class Array'
PUBLIC	??_R1A@?0A@EA@bad_alloc@std@@8			; std::bad_alloc::`RTTI Base Class Descriptor at (0,-1,0,64)'
PUBLIC	??_R1A@?0A@EA@exception@std@@8			; std::exception::`RTTI Base Class Descriptor at (0,-1,0,64)'
PUBLIC	??_R0?AVexception@std@@@8			; std::exception `RTTI Type Descriptor'
PUBLIC	??_R3exception@std@@8				; std::exception::`RTTI Class Hierarchy Descriptor'
PUBLIC	??_R2exception@std@@8				; std::exception::`RTTI Base Class Array'
EXTRN	??0exception@std@@QAE@ABQBD@Z:PROC		; std::exception::exception
EXTRN	??_Ebad_alloc@std@@UAEPAXI@Z:PROC		; std::bad_alloc::`vector deleting destructor'
EXTRN	?what@exception@std@@UBEPBDXZ:PROC		; std::exception::what
;	COMDAT ??_R2exception@std@@8
; File d:\program files (x86)\microsoft visual studio 10.0\vc\include\exception
rdata$r	SEGMENT
??_R2exception@std@@8 DD FLAT:??_R1A@?0A@EA@exception@std@@8 ; std::exception::`RTTI Base Class Array'
rdata$r	ENDS
;	COMDAT ??_R3exception@std@@8
rdata$r	SEGMENT
??_R3exception@std@@8 DD 00H				; std::exception::`RTTI Class Hierarchy Descriptor'
	DD	00H
	DD	01H
	DD	FLAT:??_R2exception@std@@8
rdata$r	ENDS
;	COMDAT ??_R0?AVexception@std@@@8
_DATA	SEGMENT
??_R0?AVexception@std@@@8 DD FLAT:??_7type_info@@6B@	; std::exception `RTTI Type Descriptor'
	DD	00H
	DB	'.?AVexception@std@@', 00H
_DATA	ENDS
;	COMDAT ??_R1A@?0A@EA@exception@std@@8
rdata$r	SEGMENT
??_R1A@?0A@EA@exception@std@@8 DD FLAT:??_R0?AVexception@std@@@8 ; std::exception::`RTTI Base Class Descriptor at (0,-1,0,64)'
	DD	00H
	DD	00H
	DD	0ffffffffH
	DD	00H
	DD	040H
	DD	FLAT:??_R3exception@std@@8
rdata$r	ENDS
;	COMDAT ??_R1A@?0A@EA@bad_alloc@std@@8
rdata$r	SEGMENT
??_R1A@?0A@EA@bad_alloc@std@@8 DD FLAT:??_R0?AVbad_alloc@std@@@8 ; std::bad_alloc::`RTTI Base Class Descriptor at (0,-1,0,64)'
	DD	01H
	DD	00H
	DD	0ffffffffH
	DD	00H
	DD	040H
	DD	FLAT:??_R3bad_alloc@std@@8
rdata$r	ENDS
;	COMDAT ??_R2bad_alloc@std@@8
rdata$r	SEGMENT
??_R2bad_alloc@std@@8 DD FLAT:??_R1A@?0A@EA@bad_alloc@std@@8 ; std::bad_alloc::`RTTI Base Class Array'
	DD	FLAT:??_R1A@?0A@EA@exception@std@@8
rdata$r	ENDS
;	COMDAT ??_R3bad_alloc@std@@8
rdata$r	SEGMENT
??_R3bad_alloc@std@@8 DD 00H				; std::bad_alloc::`RTTI Class Hierarchy Descriptor'
	DD	00H
	DD	02H
	DD	FLAT:??_R2bad_alloc@std@@8
rdata$r	ENDS
;	COMDAT ??_R0?AVbad_alloc@std@@@8
_DATA	SEGMENT
??_R0?AVbad_alloc@std@@@8 DD FLAT:??_7type_info@@6B@	; std::bad_alloc `RTTI Type Descriptor'
	DD	00H
	DB	'.?AVbad_alloc@std@@', 00H
_DATA	ENDS
;	COMDAT ??_R4bad_alloc@std@@6B@
rdata$r	SEGMENT
??_R4bad_alloc@std@@6B@ DD 00H				; std::bad_alloc::`RTTI Complete Object Locator'
	DD	00H
	DD	00H
	DD	FLAT:??_R0?AVbad_alloc@std@@@8
	DD	FLAT:??_R3bad_alloc@std@@8
rdata$r	ENDS
;	COMDAT ??_7bad_alloc@std@@6B@
CONST	SEGMENT
??_7bad_alloc@std@@6B@ DD FLAT:??_R4bad_alloc@std@@6B@	; std::bad_alloc::`vftable'
	DD	FLAT:??_Ebad_alloc@std@@UAEPAXI@Z
	DD	FLAT:?what@exception@std@@UBEPBDXZ
; Function compile flags: /Ogtp
CONST	ENDS
;	COMDAT ??0bad_alloc@std@@QAE@PBD@Z
_TEXT	SEGMENT
__Message$ = 8						; size = 4
??0bad_alloc@std@@QAE@PBD@Z PROC			; std::bad_alloc::bad_alloc, COMDAT
; _this$ = ecx

; 345  : 		{	// construct from message string

  00000	55		 push	 ebp
  00001	8b ec		 mov	 ebp, esp
  00003	56		 push	 esi
  00004	8d 45 08	 lea	 eax, DWORD PTR __Message$[ebp]
  00007	50		 push	 eax
  00008	8b f1		 mov	 esi, ecx
  0000a	e8 00 00 00 00	 call	 ??0exception@std@@QAE@ABQBD@Z ; std::exception::exception
  0000f	c7 06 00 00 00
	00		 mov	 DWORD PTR [esi], OFFSET ??_7bad_alloc@std@@6B@

; 346  : 		}

  00015	8b c6		 mov	 eax, esi
  00017	5e		 pop	 esi
  00018	5d		 pop	 ebp
  00019	c2 04 00	 ret	 4
??0bad_alloc@std@@QAE@PBD@Z ENDP			; std::bad_alloc::bad_alloc
_TEXT	ENDS
PUBLIC	??1bad_alloc@std@@UAE@XZ			; std::bad_alloc::~bad_alloc
EXTRN	??1exception@std@@UAE@XZ:PROC			; std::exception::~exception
; Function compile flags: /Ogtp
;	COMDAT ??1bad_alloc@std@@UAE@XZ
_TEXT	SEGMENT
??1bad_alloc@std@@UAE@XZ PROC				; std::bad_alloc::~bad_alloc, COMDAT
; _this$ = ecx

; 354  : 		{	// destroy the object

  00000	c7 01 00 00 00
	00		 mov	 DWORD PTR [ecx], OFFSET ??_7bad_alloc@std@@6B@

; 355  : 		}

  00006	e9 00 00 00 00	 jmp	 ??1exception@std@@UAE@XZ ; std::exception::~exception
??1bad_alloc@std@@UAE@XZ ENDP				; std::bad_alloc::~bad_alloc
; Function compile flags: /Ogtp
_TEXT	ENDS
;	COMDAT ??_Gbad_alloc@std@@UAEPAXI@Z
_TEXT	SEGMENT
___flags$ = 8						; size = 4
??_Gbad_alloc@std@@UAEPAXI@Z PROC			; std::bad_alloc::`scalar deleting destructor', COMDAT
; _this$ = ecx
  00000	55		 push	 ebp
  00001	8b ec		 mov	 ebp, esp
  00003	56		 push	 esi
  00004	8b f1		 mov	 esi, ecx
  00006	c7 06 00 00 00
	00		 mov	 DWORD PTR [esi], OFFSET ??_7bad_alloc@std@@6B@
  0000c	e8 00 00 00 00	 call	 ??1exception@std@@UAE@XZ ; std::exception::~exception
  00011	f6 45 08 01	 test	 BYTE PTR ___flags$[ebp], 1
  00015	74 09		 je	 SHORT $LN6@scalar
  00017	56		 push	 esi
  00018	e8 00 00 00 00	 call	 ??3@YAXPAX@Z		; operator delete
  0001d	83 c4 04	 add	 esp, 4
$LN6@scalar:
  00020	8b c6		 mov	 eax, esi
  00022	5e		 pop	 esi
  00023	5d		 pop	 ebp
  00024	c2 04 00	 ret	 4
??_Gbad_alloc@std@@UAEPAXI@Z ENDP			; std::bad_alloc::`scalar deleting destructor'
_TEXT	ENDS
PUBLIC	?_Orphan_all@_Container_base0@std@@QAEXXZ	; std::_Container_base0::_Orphan_all
; Function compile flags: /Ogtp
; File d:\program files (x86)\microsoft visual studio 10.0\vc\include\xutility
;	COMDAT ?_Orphan_all@_Container_base0@std@@QAEXXZ
_TEXT	SEGMENT
?_Orphan_all@_Container_base0@std@@QAEXXZ PROC		; std::_Container_base0::_Orphan_all, COMDAT
; _this$ = ecx

; 38   : 		}

  00000	c3		 ret	 0
?_Orphan_all@_Container_base0@std@@QAEXXZ ENDP		; std::_Container_base0::_Orphan_all
_TEXT	ENDS
PUBLIC	?_Adopt@_Iterator_base0@std@@QAEXPBX@Z		; std::_Iterator_base0::_Adopt
; Function compile flags: /Ogtp
;	COMDAT ?_Adopt@_Iterator_base0@std@@QAEXPBX@Z
_TEXT	SEGMENT
___formal$ = 8						; size = 4
?_Adopt@_Iterator_base0@std@@QAEXPBX@Z PROC		; std::_Iterator_base0::_Adopt, COMDAT
; _this$ = ecx

; 49   : 		}

  00000	c2 04 00	 ret	 4
?_Adopt@_Iterator_base0@std@@QAEXPBX@Z ENDP		; std::_Iterator_base0::_Adopt
; Function compile flags: /Ogtp
_TEXT	ENDS
;	COMDAT ??_GCXMasMonsterHerd@@UAEPAXI@Z
_TEXT	SEGMENT
___flags$ = 8						; size = 4
??_GCXMasMonsterHerd@@UAEPAXI@Z PROC			; CXMasMonsterHerd::`scalar deleting destructor', COMDAT
; _this$ = ecx
  00000	55		 push	 ebp
  00001	8b ec		 mov	 ebp, esp
  00003	56		 push	 esi
  00004	8b f1		 mov	 esi, ecx
  00006	e8 00 00 00 00	 call	 ??1CXMasMonsterHerd@@UAE@XZ ; CXMasMonsterHerd::~CXMasMonsterHerd
  0000b	f6 45 08 01	 test	 BYTE PTR ___flags$[ebp], 1
  0000f	74 09		 je	 SHORT $LN4@scalar@2
  00011	56		 push	 esi
  00012	e8 00 00 00 00	 call	 ??3@YAXPAX@Z		; operator delete
  00017	83 c4 04	 add	 esp, 4
$LN4@scalar@2:
  0001a	8b c6		 mov	 eax, esi
  0001c	5e		 pop	 esi
  0001d	5d		 pop	 ebp
  0001e	c2 04 00	 ret	 4
??_GCXMasMonsterHerd@@UAEPAXI@Z ENDP			; CXMasMonsterHerd::`scalar deleting destructor'
_TEXT	ENDS
PUBLIC	?Move@CXMasAttackEvent@@QAEXXZ			; CXMasAttackEvent::Move
; Function compile flags: /Ogtp
; File e:\work\tranet_version\gs\gameserver\xmasattackevent.cpp
;	COMDAT ?Move@CXMasAttackEvent@@QAEXXZ
_TEXT	SEGMENT
_MonsterMapInfo$213616 = -32				; size = 20
tv262 = -12						; size = 4
tv304 = -8						; size = 4
_i$213612 = -4						; size = 4
?Move@CXMasAttackEvent@@QAEXXZ PROC			; CXMasAttackEvent::Move, COMDAT
; _this$ = ecx

; 566  : {

  00000	55		 push	 ebp
  00001	8b ec		 mov	 ebp, esp
  00003	83 ec 20	 sub	 esp, 32			; 00000020H
  00006	56		 push	 esi
  00007	8b f1		 mov	 esi, ecx

; 567  : 	if(this->m_bDoEvent == FALSE)

  00009	33 c0		 xor	 eax, eax
  0000b	39 46 04	 cmp	 DWORD PTR [esi+4], eax
  0000e	0f 84 96 00 00
	00		 je	 $LN18@Move

; 568  : 	{
; 569  : 		return;
; 570  : 	}
; 571  : 
; 572  : 	if(this->m_bMonsterToDest != FALSE)

  00014	39 46 70	 cmp	 DWORD PTR [esi+112], eax
  00017	0f 85 8d 00 00
	00		 jne	 $LN18@Move

; 573  : 	{
; 574  : 		return;
; 575  : 	}
; 576  : 
; 577  : 	for(int i = 0; i < this->m_vtXMasMonsterHerd.size(); i++)

  0001d	8b 4e 48	 mov	 ecx, DWORD PTR [esi+72]
  00020	8b 56 4c	 mov	 edx, DWORD PTR [esi+76]
  00023	2b d1		 sub	 edx, ecx
  00025	c1 fa 02	 sar	 edx, 2
  00028	89 45 fc	 mov	 DWORD PTR _i$213612[ebp], eax
  0002b	85 d2		 test	 edx, edx
  0002d	74 7b		 je	 SHORT $LN18@Move
  0002f	53		 push	 ebx
  00030	89 45 f8	 mov	 DWORD PTR tv304[ebp], eax
  00033	57		 push	 edi
$LL20@Move:

; 578  : 	{
; 579  : 		XMASMONSTER_MAP_INFO MonsterMapInfo = this->m_vtXMasMonsterMapInfo[i]; //perfect

  00034	8b 46 5c	 mov	 eax, DWORD PTR [esi+92]
  00037	03 45 f8	 add	 eax, DWORD PTR tv304[ebp]
  0003a	8b 10		 mov	 edx, DWORD PTR [eax]
  0003c	89 55 e0	 mov	 DWORD PTR _MonsterMapInfo$213616[ebp], edx
  0003f	8b 50 04	 mov	 edx, DWORD PTR [eax+4]
  00042	89 55 e4	 mov	 DWORD PTR _MonsterMapInfo$213616[ebp+4], edx
  00045	8b 50 08	 mov	 edx, DWORD PTR [eax+8]
  00048	89 55 e8	 mov	 DWORD PTR _MonsterMapInfo$213616[ebp+8], edx
  0004b	8b 50 0c	 mov	 edx, DWORD PTR [eax+12]
  0004e	8b 40 10	 mov	 eax, DWORD PTR [eax+16]
  00051	89 55 ec	 mov	 DWORD PTR _MonsterMapInfo$213616[ebp+12], edx

; 580  : 		
; 581  : 		CXMasMonsterHerd * vtHerdInfo = this->m_vtXMasMonsterHerd[i]; //perfect

  00054	8b 55 fc	 mov	 edx, DWORD PTR _i$213612[ebp]
  00057	8b 1c 91	 mov	 ebx, DWORD PTR [ecx+edx*4]
  0005a	89 45 f0	 mov	 DWORD PTR _MonsterMapInfo$213616[ebp+16], eax

; 582  : 
; 583  : 		if(this->MonsterHerdMoveCheck(vtHerdInfo, &MonsterMapInfo) == FALSE)

  0005d	8d 45 e0	 lea	 eax, DWORD PTR _MonsterMapInfo$213616[ebp]
  00060	50		 push	 eax
  00061	53		 push	 ebx
  00062	8b ce		 mov	 ecx, esi
  00064	e8 00 00 00 00	 call	 ?MonsterHerdMoveCheck@CXMasAttackEvent@@QAEHPAVCXMasMonsterHerd@@PAUXMASMONSTER_MAP_INFO@@@Z ; CXMasAttackEvent::MonsterHerdMoveCheck
  00069	85 c0		 test	 eax, eax
  0006b	74 3b		 je	 SHORT $LN21@Move

; 584  : 		{
; 585  : 			break;
; 586  : 		}
; 587  : 
; 588  : 		int iDIVIDE = this->m_iRADIUS_MAX - this->m_iRADIUS_MIN;
; 589  : 
; 590  : 		if ( iDIVIDE <= 0 )
; 591  : 			iDIVIDE = 1;
; 592  : 
; 593  : 		int iRADIUS = iDIVIDE + this->m_iRADIUS_MIN;
; 594  : 
; 595  : 		if ( iRADIUS <= 3 )
; 596  : 			iRADIUS = 3;
; 597  : 
; 598  : 		vtHerdInfo->SetRadius((rand() % (this->m_iRADIUS_MAX - this->m_iRADIUS_MIN)) + this->m_iRADIUS_MIN);

  0006d	8b 4e 78	 mov	 ecx, DWORD PTR [esi+120]
  00070	8b 3b		 mov	 edi, DWORD PTR [ebx]
  00072	89 4d f4	 mov	 DWORD PTR tv262[ebp], ecx
  00075	e8 00 00 00 00	 call	 _rand
  0007a	8b 4e 7c	 mov	 ecx, DWORD PTR [esi+124]
  0007d	2b 4d f4	 sub	 ecx, DWORD PTR tv262[ebp]
  00080	99		 cdq
  00081	f7 f9		 idiv	 ecx
  00083	8b cb		 mov	 ecx, ebx
  00085	03 55 f4	 add	 edx, DWORD PTR tv262[ebp]
  00088	52		 push	 edx
  00089	8b 57 0c	 mov	 edx, DWORD PTR [edi+12]
  0008c	ff d2		 call	 edx
  0008e	8b 4e 48	 mov	 ecx, DWORD PTR [esi+72]
  00091	8b 56 4c	 mov	 edx, DWORD PTR [esi+76]
  00094	8b 45 fc	 mov	 eax, DWORD PTR _i$213612[ebp]
  00097	83 45 f8 14	 add	 DWORD PTR tv304[ebp], 20 ; 00000014H
  0009b	2b d1		 sub	 edx, ecx
  0009d	40		 inc	 eax
  0009e	c1 fa 02	 sar	 edx, 2
  000a1	89 45 fc	 mov	 DWORD PTR _i$213612[ebp], eax
  000a4	3b c2		 cmp	 eax, edx
  000a6	72 8c		 jb	 SHORT $LL20@Move
$LN21@Move:
  000a8	5f		 pop	 edi
  000a9	5b		 pop	 ebx
$LN18@Move:
  000aa	5e		 pop	 esi

; 599  : 	}
; 600  : }

  000ab	8b e5		 mov	 esp, ebp
  000ad	5d		 pop	 ebp
  000ae	c3		 ret	 0
?Move@CXMasAttackEvent@@QAEXXZ ENDP			; CXMasAttackEvent::Move
_TEXT	ENDS
PUBLIC	??D?$_Vector_iterator@V?$_Vector_val@PAVCXMasMonsterHerd@@V?$allocator@PAVCXMasMonsterHerd@@@std@@@std@@@std@@QBEAAPAVCXMasMonsterHerd@@XZ ; std::_Vector_iterator<std::_Vector_val<CXMasMonsterHerd *,std::allocator<CXMasMonsterHerd *> > >::operator*
; Function compile flags: /Ogtp
; File d:\program files (x86)\microsoft visual studio 10.0\vc\include\vector
;	COMDAT ??D?$_Vector_iterator@V?$_Vector_val@PAVCXMasMonsterHerd@@V?$allocator@PAVCXMasMonsterHerd@@@std@@@std@@@std@@QBEAAPAVCXMasMonsterHerd@@XZ
_TEXT	SEGMENT
??D?$_Vector_iterator@V?$_Vector_val@PAVCXMasMonsterHerd@@V?$allocator@PAVCXMasMonsterHerd@@@std@@@std@@@std@@QBEAAPAVCXMasMonsterHerd@@XZ PROC ; std::_Vector_iterator<std::_Vector_val<CXMasMonsterHerd *,std::allocator<CXMasMonsterHerd *> > >::operator*, COMDAT
; _this$ = ecx

; 322  : 		return ((reference)**(_Mybase *)this);

  00000	8b 01		 mov	 eax, DWORD PTR [ecx]

; 323  : 		}

  00002	c3		 ret	 0
??D?$_Vector_iterator@V?$_Vector_val@PAVCXMasMonsterHerd@@V?$allocator@PAVCXMasMonsterHerd@@@std@@@std@@@std@@QBEAAPAVCXMasMonsterHerd@@XZ ENDP ; std::_Vector_iterator<std::_Vector_val<CXMasMonsterHerd *,std::allocator<CXMasMonsterHerd *> > >::operator*
_TEXT	ENDS
PUBLIC	??E?$_Vector_iterator@V?$_Vector_val@PAVCXMasMonsterHerd@@V?$allocator@PAVCXMasMonsterHerd@@@std@@@std@@@std@@QAEAAV01@XZ ; std::_Vector_iterator<std::_Vector_val<CXMasMonsterHerd *,std::allocator<CXMasMonsterHerd *> > >::operator++
; Function compile flags: /Ogtp
;	COMDAT ??E?$_Vector_iterator@V?$_Vector_val@PAVCXMasMonsterHerd@@V?$allocator@PAVCXMasMonsterHerd@@@std@@@std@@@std@@QAEAAV01@XZ
_TEXT	SEGMENT
??E?$_Vector_iterator@V?$_Vector_val@PAVCXMasMonsterHerd@@V?$allocator@PAVCXMasMonsterHerd@@@std@@@std@@@std@@QAEAAV01@XZ PROC ; std::_Vector_iterator<std::_Vector_val<CXMasMonsterHerd *,std::allocator<CXMasMonsterHerd *> > >::operator++, COMDAT
; _this$ = ecx

; 331  : 		{	// preincrement

  00000	8b c1		 mov	 eax, ecx

; 332  : 		++*(_Mybase *)this;

  00002	83 00 04	 add	 DWORD PTR [eax], 4

; 333  : 		return (*this);
; 334  : 		}

  00005	c3		 ret	 0
??E?$_Vector_iterator@V?$_Vector_val@PAVCXMasMonsterHerd@@V?$allocator@PAVCXMasMonsterHerd@@@std@@@std@@@std@@QAEAAV01@XZ ENDP ; std::_Vector_iterator<std::_Vector_val<CXMasMonsterHerd *,std::allocator<CXMasMonsterHerd *> > >::operator++
_TEXT	ENDS
PUBLIC	??D?$_Vector_iterator@V?$_Vector_val@UXMASMONSTER_DATA@@V?$allocator@UXMASMONSTER_DATA@@@std@@@std@@@std@@QBEAAUXMASMONSTER_DATA@@XZ ; std::_Vector_iterator<std::_Vector_val<XMASMONSTER_DATA,std::allocator<XMASMONSTER_DATA> > >::operator*
; Function compile flags: /Ogtp
;	COMDAT ??D?$_Vector_iterator@V?$_Vector_val@UXMASMONSTER_DATA@@V?$allocator@UXMASMONSTER_DATA@@@std@@@std@@@std@@QBEAAUXMASMONSTER_DATA@@XZ
_TEXT	SEGMENT
??D?$_Vector_iterator@V?$_Vector_val@UXMASMONSTER_DATA@@V?$allocator@UXMASMONSTER_DATA@@@std@@@std@@@std@@QBEAAUXMASMONSTER_DATA@@XZ PROC ; std::_Vector_iterator<std::_Vector_val<XMASMONSTER_DATA,std::allocator<XMASMONSTER_DATA> > >::operator*, COMDAT
; _this$ = ecx

; 322  : 		return ((reference)**(_Mybase *)this);

  00000	8b 01		 mov	 eax, DWORD PTR [ecx]

; 323  : 		}

  00002	c3		 ret	 0
??D?$_Vector_iterator@V?$_Vector_val@UXMASMONSTER_DATA@@V?$allocator@UXMASMONSTER_DATA@@@std@@@std@@@std@@QBEAAUXMASMONSTER_DATA@@XZ ENDP ; std::_Vector_iterator<std::_Vector_val<XMASMONSTER_DATA,std::allocator<XMASMONSTER_DATA> > >::operator*
_TEXT	ENDS
PUBLIC	??0?$_Vector_iterator@V?$_Vector_val@UXMASMONSTER_EVENT_TIME@@V?$allocator@UXMASMONSTER_EVENT_TIME@@@std@@@std@@@std@@QAE@XZ ; std::_Vector_iterator<std::_Vector_val<XMASMONSTER_EVENT_TIME,std::allocator<XMASMONSTER_EVENT_TIME> > >::_Vector_iterator<std::_Vector_val<XMASMONSTER_EVENT_TIME,std::allocator<XMASMONSTER_EVENT_TIME> > >
; Function compile flags: /Ogtp
;	COMDAT ??0?$_Vector_iterator@V?$_Vector_val@UXMASMONSTER_EVENT_TIME@@V?$allocator@UXMASMONSTER_EVENT_TIME@@@std@@@std@@@std@@QAE@XZ
_TEXT	SEGMENT
??0?$_Vector_iterator@V?$_Vector_val@UXMASMONSTER_EVENT_TIME@@V?$allocator@UXMASMONSTER_EVENT_TIME@@@std@@@std@@@std@@QAE@XZ PROC ; std::_Vector_iterator<std::_Vector_val<XMASMONSTER_EVENT_TIME,std::allocator<XMASMONSTER_EVENT_TIME> > >::_Vector_iterator<std::_Vector_val<XMASMONSTER_EVENT_TIME,std::allocator<XMASMONSTER_EVENT_TIME> > >, COMDAT
; _this$ = ecx

; 298  : 	_Vector_iterator()

  00000	8b c1		 mov	 eax, ecx
  00002	c7 00 00 00 00
	00		 mov	 DWORD PTR [eax], 0

; 299  : 		{	// construct with null vector pointer
; 300  : 		}

  00008	c3		 ret	 0
??0?$_Vector_iterator@V?$_Vector_val@UXMASMONSTER_EVENT_TIME@@V?$allocator@UXMASMONSTER_EVENT_TIME@@@std@@@std@@@std@@QAE@XZ ENDP ; std::_Vector_iterator<std::_Vector_val<XMASMONSTER_EVENT_TIME,std::allocator<XMASMONSTER_EVENT_TIME> > >::_Vector_iterator<std::_Vector_val<XMASMONSTER_EVENT_TIME,std::allocator<XMASMONSTER_EVENT_TIME> > >
_TEXT	ENDS
PUBLIC	??D?$_Vector_iterator@V?$_Vector_val@UXMASMONSTER_EVENT_TIME@@V?$allocator@UXMASMONSTER_EVENT_TIME@@@std@@@std@@@std@@QBEAAUXMASMONSTER_EVENT_TIME@@XZ ; std::_Vector_iterator<std::_Vector_val<XMASMONSTER_EVENT_TIME,std::allocator<XMASMONSTER_EVENT_TIME> > >::operator*
; Function compile flags: /Ogtp
;	COMDAT ??D?$_Vector_iterator@V?$_Vector_val@UXMASMONSTER_EVENT_TIME@@V?$allocator@UXMASMONSTER_EVENT_TIME@@@std@@@std@@@std@@QBEAAUXMASMONSTER_EVENT_TIME@@XZ
_TEXT	SEGMENT
??D?$_Vector_iterator@V?$_Vector_val@UXMASMONSTER_EVENT_TIME@@V?$allocator@UXMASMONSTER_EVENT_TIME@@@std@@@std@@@std@@QBEAAUXMASMONSTER_EVENT_TIME@@XZ PROC ; std::_Vector_iterator<std::_Vector_val<XMASMONSTER_EVENT_TIME,std::allocator<XMASMONSTER_EVENT_TIME> > >::operator*, COMDAT
; _this$ = ecx

; 322  : 		return ((reference)**(_Mybase *)this);

  00000	8b 01		 mov	 eax, DWORD PTR [ecx]

; 323  : 		}

  00002	c3		 ret	 0
??D?$_Vector_iterator@V?$_Vector_val@UXMASMONSTER_EVENT_TIME@@V?$allocator@UXMASMONSTER_EVENT_TIME@@@std@@@std@@@std@@QBEAAUXMASMONSTER_EVENT_TIME@@XZ ENDP ; std::_Vector_iterator<std::_Vector_val<XMASMONSTER_EVENT_TIME,std::allocator<XMASMONSTER_EVENT_TIME> > >::operator*
_TEXT	ENDS
PUBLIC	??0?$_Vector_val@UXMASMONSTER_MAP_INFO@@V?$allocator@UXMASMONSTER_MAP_INFO@@@std@@@std@@QAE@V?$allocator@UXMASMONSTER_MAP_INFO@@@1@@Z ; std::_Vector_val<XMASMONSTER_MAP_INFO,std::allocator<XMASMONSTER_MAP_INFO> >::_Vector_val<XMASMONSTER_MAP_INFO,std::allocator<XMASMONSTER_MAP_INFO> >
; Function compile flags: /Ogtp
;	COMDAT ??0?$_Vector_val@UXMASMONSTER_MAP_INFO@@V?$allocator@UXMASMONSTER_MAP_INFO@@@std@@@std@@QAE@V?$allocator@UXMASMONSTER_MAP_INFO@@@1@@Z
_TEXT	SEGMENT
__Al$ = 8						; size = 1
??0?$_Vector_val@UXMASMONSTER_MAP_INFO@@V?$allocator@UXMASMONSTER_MAP_INFO@@@std@@@std@@QAE@V?$allocator@UXMASMONSTER_MAP_INFO@@@1@@Z PROC ; std::_Vector_val<XMASMONSTER_MAP_INFO,std::allocator<XMASMONSTER_MAP_INFO> >::_Vector_val<XMASMONSTER_MAP_INFO,std::allocator<XMASMONSTER_MAP_INFO> >, COMDAT
; _this$ = ecx

; 426  : 		{	// construct allocator from _Al

  00000	8b c1		 mov	 eax, ecx

; 427  : 		_Myfirst = 0;

  00002	33 c9		 xor	 ecx, ecx
  00004	89 08		 mov	 DWORD PTR [eax], ecx

; 428  : 		_Mylast = 0;

  00006	89 48 04	 mov	 DWORD PTR [eax+4], ecx

; 429  : 		_Myend = 0;

  00009	89 48 08	 mov	 DWORD PTR [eax+8], ecx

; 430  : 		}

  0000c	c2 04 00	 ret	 4
??0?$_Vector_val@UXMASMONSTER_MAP_INFO@@V?$allocator@UXMASMONSTER_MAP_INFO@@@std@@@std@@QAE@V?$allocator@UXMASMONSTER_MAP_INFO@@@1@@Z ENDP ; std::_Vector_val<XMASMONSTER_MAP_INFO,std::allocator<XMASMONSTER_MAP_INFO> >::_Vector_val<XMASMONSTER_MAP_INFO,std::allocator<XMASMONSTER_MAP_INFO> >
_TEXT	ENDS
PUBLIC	??8?$_Vector_const_iterator@V?$_Vector_val@PAVCXMasMonsterHerd@@V?$allocator@PAVCXMasMonsterHerd@@@std@@@std@@@std@@QBE_NABV01@@Z ; std::_Vector_const_iterator<std::_Vector_val<CXMasMonsterHerd *,std::allocator<CXMasMonsterHerd *> > >::operator==
; Function compile flags: /Ogtp
;	COMDAT ??8?$_Vector_const_iterator@V?$_Vector_val@PAVCXMasMonsterHerd@@V?$allocator@PAVCXMasMonsterHerd@@@std@@@std@@@std@@QBE_NABV01@@Z
_TEXT	SEGMENT
__Right$ = 8						; size = 4
??8?$_Vector_const_iterator@V?$_Vector_val@PAVCXMasMonsterHerd@@V?$allocator@PAVCXMasMonsterHerd@@@std@@@std@@@std@@QBE_NABV01@@Z PROC ; std::_Vector_const_iterator<std::_Vector_val<CXMasMonsterHerd *,std::allocator<CXMasMonsterHerd *> > >::operator==, COMDAT
; _this$ = ecx

; 201  : 		{	// test for iterator equality

  00000	55		 push	 ebp
  00001	8b ec		 mov	 ebp, esp

; 202  : 		_Compat(_Right);
; 203  : 		return (this->_Ptr == _Right._Ptr);

  00003	8b 01		 mov	 eax, DWORD PTR [ecx]
  00005	8b 55 08	 mov	 edx, DWORD PTR __Right$[ebp]
  00008	33 c9		 xor	 ecx, ecx
  0000a	3b 02		 cmp	 eax, DWORD PTR [edx]
  0000c	0f 94 c0	 sete	 al

; 204  : 		}

  0000f	5d		 pop	 ebp
  00010	c2 04 00	 ret	 4
??8?$_Vector_const_iterator@V?$_Vector_val@PAVCXMasMonsterHerd@@V?$allocator@PAVCXMasMonsterHerd@@@std@@@std@@@std@@QBE_NABV01@@Z ENDP ; std::_Vector_const_iterator<std::_Vector_val<CXMasMonsterHerd *,std::allocator<CXMasMonsterHerd *> > >::operator==
_TEXT	ENDS
PUBLIC	??E?$_Vector_iterator@V?$_Vector_val@UXMASMONSTER_MAP_INFO@@V?$allocator@UXMASMONSTER_MAP_INFO@@@std@@@std@@@std@@QAEAAV01@XZ ; std::_Vector_iterator<std::_Vector_val<XMASMONSTER_MAP_INFO,std::allocator<XMASMONSTER_MAP_INFO> > >::operator++
; Function compile flags: /Ogtp
;	COMDAT ??E?$_Vector_iterator@V?$_Vector_val@UXMASMONSTER_MAP_INFO@@V?$allocator@UXMASMONSTER_MAP_INFO@@@std@@@std@@@std@@QAEAAV01@XZ
_TEXT	SEGMENT
??E?$_Vector_iterator@V?$_Vector_val@UXMASMONSTER_MAP_INFO@@V?$allocator@UXMASMONSTER_MAP_INFO@@@std@@@std@@@std@@QAEAAV01@XZ PROC ; std::_Vector_iterator<std::_Vector_val<XMASMONSTER_MAP_INFO,std::allocator<XMASMONSTER_MAP_INFO> > >::operator++, COMDAT
; _this$ = ecx

; 331  : 		{	// preincrement

  00000	8b c1		 mov	 eax, ecx

; 332  : 		++*(_Mybase *)this;

  00002	83 00 14	 add	 DWORD PTR [eax], 20	; 00000014H

; 333  : 		return (*this);
; 334  : 		}

  00005	c3		 ret	 0
??E?$_Vector_iterator@V?$_Vector_val@UXMASMONSTER_MAP_INFO@@V?$allocator@UXMASMONSTER_MAP_INFO@@@std@@@std@@@std@@QAEAAV01@XZ ENDP ; std::_Vector_iterator<std::_Vector_val<XMASMONSTER_MAP_INFO,std::allocator<XMASMONSTER_MAP_INFO> > >::operator++
_TEXT	ENDS
PUBLIC	??8?$_Vector_const_iterator@V?$_Vector_val@UXMASMONSTER_MAP_INFO@@V?$allocator@UXMASMONSTER_MAP_INFO@@@std@@@std@@@std@@QBE_NABV01@@Z ; std::_Vector_const_iterator<std::_Vector_val<XMASMONSTER_MAP_INFO,std::allocator<XMASMONSTER_MAP_INFO> > >::operator==
; Function compile flags: /Ogtp
;	COMDAT ??8?$_Vector_const_iterator@V?$_Vector_val@UXMASMONSTER_MAP_INFO@@V?$allocator@UXMASMONSTER_MAP_INFO@@@std@@@std@@@std@@QBE_NABV01@@Z
_TEXT	SEGMENT
__Right$ = 8						; size = 4
??8?$_Vector_const_iterator@V?$_Vector_val@UXMASMONSTER_MAP_INFO@@V?$allocator@UXMASMONSTER_MAP_INFO@@@std@@@std@@@std@@QBE_NABV01@@Z PROC ; std::_Vector_const_iterator<std::_Vector_val<XMASMONSTER_MAP_INFO,std::allocator<XMASMONSTER_MAP_INFO> > >::operator==, COMDAT
; _this$ = ecx

; 201  : 		{	// test for iterator equality

  00000	55		 push	 ebp
  00001	8b ec		 mov	 ebp, esp

; 202  : 		_Compat(_Right);
; 203  : 		return (this->_Ptr == _Right._Ptr);

  00003	8b 01		 mov	 eax, DWORD PTR [ecx]
  00005	8b 55 08	 mov	 edx, DWORD PTR __Right$[ebp]
  00008	33 c9		 xor	 ecx, ecx
  0000a	3b 02		 cmp	 eax, DWORD PTR [edx]
  0000c	0f 94 c0	 sete	 al

; 204  : 		}

  0000f	5d		 pop	 ebp
  00010	c2 04 00	 ret	 4
??8?$_Vector_const_iterator@V?$_Vector_val@UXMASMONSTER_MAP_INFO@@V?$allocator@UXMASMONSTER_MAP_INFO@@@std@@@std@@@std@@QBE_NABV01@@Z ENDP ; std::_Vector_const_iterator<std::_Vector_val<XMASMONSTER_MAP_INFO,std::allocator<XMASMONSTER_MAP_INFO> > >::operator==
_TEXT	ENDS
PUBLIC	??E?$_Vector_iterator@V?$_Vector_val@UXMASMONSTER_DATA@@V?$allocator@UXMASMONSTER_DATA@@@std@@@std@@@std@@QAEAAV01@XZ ; std::_Vector_iterator<std::_Vector_val<XMASMONSTER_DATA,std::allocator<XMASMONSTER_DATA> > >::operator++
; Function compile flags: /Ogtp
;	COMDAT ??E?$_Vector_iterator@V?$_Vector_val@UXMASMONSTER_DATA@@V?$allocator@UXMASMONSTER_DATA@@@std@@@std@@@std@@QAEAAV01@XZ
_TEXT	SEGMENT
??E?$_Vector_iterator@V?$_Vector_val@UXMASMONSTER_DATA@@V?$allocator@UXMASMONSTER_DATA@@@std@@@std@@@std@@QAEAAV01@XZ PROC ; std::_Vector_iterator<std::_Vector_val<XMASMONSTER_DATA,std::allocator<XMASMONSTER_DATA> > >::operator++, COMDAT
; _this$ = ecx

; 331  : 		{	// preincrement

  00000	8b c1		 mov	 eax, ecx

; 332  : 		++*(_Mybase *)this;

  00002	83 00 0c	 add	 DWORD PTR [eax], 12	; 0000000cH

; 333  : 		return (*this);
; 334  : 		}

  00005	c3		 ret	 0
??E?$_Vector_iterator@V?$_Vector_val@UXMASMONSTER_DATA@@V?$allocator@UXMASMONSTER_DATA@@@std@@@std@@@std@@QAEAAV01@XZ ENDP ; std::_Vector_iterator<std::_Vector_val<XMASMONSTER_DATA,std::allocator<XMASMONSTER_DATA> > >::operator++
_TEXT	ENDS
PUBLIC	??8?$_Vector_const_iterator@V?$_Vector_val@UXMASMONSTER_DATA@@V?$allocator@UXMASMONSTER_DATA@@@std@@@std@@@std@@QBE_NABV01@@Z ; std::_Vector_const_iterator<std::_Vector_val<XMASMONSTER_DATA,std::allocator<XMASMONSTER_DATA> > >::operator==
; Function compile flags: /Ogtp
;	COMDAT ??8?$_Vector_const_iterator@V?$_Vector_val@UXMASMONSTER_DATA@@V?$allocator@UXMASMONSTER_DATA@@@std@@@std@@@std@@QBE_NABV01@@Z
_TEXT	SEGMENT
__Right$ = 8						; size = 4
??8?$_Vector_const_iterator@V?$_Vector_val@UXMASMONSTER_DATA@@V?$allocator@UXMASMONSTER_DATA@@@std@@@std@@@std@@QBE_NABV01@@Z PROC ; std::_Vector_const_iterator<std::_Vector_val<XMASMONSTER_DATA,std::allocator<XMASMONSTER_DATA> > >::operator==, COMDAT
; _this$ = ecx

; 201  : 		{	// test for iterator equality

  00000	55		 push	 ebp
  00001	8b ec		 mov	 ebp, esp

; 202  : 		_Compat(_Right);
; 203  : 		return (this->_Ptr == _Right._Ptr);

  00003	8b 01		 mov	 eax, DWORD PTR [ecx]
  00005	8b 55 08	 mov	 edx, DWORD PTR __Right$[ebp]
  00008	33 c9		 xor	 ecx, ecx
  0000a	3b 02		 cmp	 eax, DWORD PTR [edx]
  0000c	0f 94 c0	 sete	 al

; 204  : 		}

  0000f	5d		 pop	 ebp
  00010	c2 04 00	 ret	 4
??8?$_Vector_const_iterator@V?$_Vector_val@UXMASMONSTER_DATA@@V?$allocator@UXMASMONSTER_DATA@@@std@@@std@@@std@@QBE_NABV01@@Z ENDP ; std::_Vector_const_iterator<std::_Vector_val<XMASMONSTER_DATA,std::allocator<XMASMONSTER_DATA> > >::operator==
_TEXT	ENDS
PUBLIC	??E?$_Vector_iterator@V?$_Vector_val@UXMASMONSTER_EVENT_TIME@@V?$allocator@UXMASMONSTER_EVENT_TIME@@@std@@@std@@@std@@QAEAAV01@XZ ; std::_Vector_iterator<std::_Vector_val<XMASMONSTER_EVENT_TIME,std::allocator<XMASMONSTER_EVENT_TIME> > >::operator++
; Function compile flags: /Ogtp
;	COMDAT ??E?$_Vector_iterator@V?$_Vector_val@UXMASMONSTER_EVENT_TIME@@V?$allocator@UXMASMONSTER_EVENT_TIME@@@std@@@std@@@std@@QAEAAV01@XZ
_TEXT	SEGMENT
??E?$_Vector_iterator@V?$_Vector_val@UXMASMONSTER_EVENT_TIME@@V?$allocator@UXMASMONSTER_EVENT_TIME@@@std@@@std@@@std@@QAEAAV01@XZ PROC ; std::_Vector_iterator<std::_Vector_val<XMASMONSTER_EVENT_TIME,std::allocator<XMASMONSTER_EVENT_TIME> > >::operator++, COMDAT
; _this$ = ecx

; 331  : 		{	// preincrement

  00000	8b c1		 mov	 eax, ecx

; 332  : 		++*(_Mybase *)this;

  00002	83 00 08	 add	 DWORD PTR [eax], 8

; 333  : 		return (*this);
; 334  : 		}

  00005	c3		 ret	 0
??E?$_Vector_iterator@V?$_Vector_val@UXMASMONSTER_EVENT_TIME@@V?$allocator@UXMASMONSTER_EVENT_TIME@@@std@@@std@@@std@@QAEAAV01@XZ ENDP ; std::_Vector_iterator<std::_Vector_val<XMASMONSTER_EVENT_TIME,std::allocator<XMASMONSTER_EVENT_TIME> > >::operator++
_TEXT	ENDS
PUBLIC	??8?$_Vector_const_iterator@V?$_Vector_val@UXMASMONSTER_EVENT_TIME@@V?$allocator@UXMASMONSTER_EVENT_TIME@@@std@@@std@@@std@@QBE_NABV01@@Z ; std::_Vector_const_iterator<std::_Vector_val<XMASMONSTER_EVENT_TIME,std::allocator<XMASMONSTER_EVENT_TIME> > >::operator==
; Function compile flags: /Ogtp
;	COMDAT ??8?$_Vector_const_iterator@V?$_Vector_val@UXMASMONSTER_EVENT_TIME@@V?$allocator@UXMASMONSTER_EVENT_TIME@@@std@@@std@@@std@@QBE_NABV01@@Z
_TEXT	SEGMENT
__Right$ = 8						; size = 4
??8?$_Vector_const_iterator@V?$_Vector_val@UXMASMONSTER_EVENT_TIME@@V?$allocator@UXMASMONSTER_EVENT_TIME@@@std@@@std@@@std@@QBE_NABV01@@Z PROC ; std::_Vector_const_iterator<std::_Vector_val<XMASMONSTER_EVENT_TIME,std::allocator<XMASMONSTER_EVENT_TIME> > >::operator==, COMDAT
; _this$ = ecx

; 201  : 		{	// test for iterator equality

  00000	55		 push	 ebp
  00001	8b ec		 mov	 ebp, esp

; 202  : 		_Compat(_Right);
; 203  : 		return (this->_Ptr == _Right._Ptr);

  00003	8b 01		 mov	 eax, DWORD PTR [ecx]
  00005	8b 55 08	 mov	 edx, DWORD PTR __Right$[ebp]
  00008	33 c9		 xor	 ecx, ecx
  0000a	3b 02		 cmp	 eax, DWORD PTR [edx]
  0000c	0f 94 c0	 sete	 al

; 204  : 		}

  0000f	5d		 pop	 ebp
  00010	c2 04 00	 ret	 4
??8?$_Vector_const_iterator@V?$_Vector_val@UXMASMONSTER_EVENT_TIME@@V?$allocator@UXMASMONSTER_EVENT_TIME@@@std@@@std@@@std@@QBE_NABV01@@Z ENDP ; std::_Vector_const_iterator<std::_Vector_val<XMASMONSTER_EVENT_TIME,std::allocator<XMASMONSTER_EVENT_TIME> > >::operator==
_TEXT	ENDS
PUBLIC	?max_size@?$vector@UXMASMONSTER_EVENT_TIME@@V?$allocator@UXMASMONSTER_EVENT_TIME@@@std@@@std@@QBEIXZ ; std::vector<XMASMONSTER_EVENT_TIME,std::allocator<XMASMONSTER_EVENT_TIME> >::max_size
; Function compile flags: /Ogtp
;	COMDAT ?max_size@?$vector@UXMASMONSTER_EVENT_TIME@@V?$allocator@UXMASMONSTER_EVENT_TIME@@@std@@@std@@QBEIXZ
_TEXT	SEGMENT
?max_size@?$vector@UXMASMONSTER_EVENT_TIME@@V?$allocator@UXMASMONSTER_EVENT_TIME@@@std@@@std@@QBEIXZ PROC ; std::vector<XMASMONSTER_EVENT_TIME,std::allocator<XMASMONSTER_EVENT_TIME> >::max_size, COMDAT
; _this$ = ecx

; 884  : 		return (this->_Alval.max_size());

  00000	b8 ff ff ff 1f	 mov	 eax, 536870911		; 1fffffffH

; 885  : 		}

  00005	c3		 ret	 0
?max_size@?$vector@UXMASMONSTER_EVENT_TIME@@V?$allocator@UXMASMONSTER_EVENT_TIME@@@std@@@std@@QBEIXZ ENDP ; std::vector<XMASMONSTER_EVENT_TIME,std::allocator<XMASMONSTER_EVENT_TIME> >::max_size
_TEXT	ENDS
PUBLIC	?_Grow_to@?$vector@UXMASMONSTER_EVENT_TIME@@V?$allocator@UXMASMONSTER_EVENT_TIME@@@std@@@std@@IBEII@Z ; std::vector<XMASMONSTER_EVENT_TIME,std::allocator<XMASMONSTER_EVENT_TIME> >::_Grow_to
; Function compile flags: /Ogtp
;	COMDAT ?_Grow_to@?$vector@UXMASMONSTER_EVENT_TIME@@V?$allocator@UXMASMONSTER_EVENT_TIME@@@std@@@std@@IBEII@Z
_TEXT	SEGMENT
__Count$ = 8						; size = 4
?_Grow_to@?$vector@UXMASMONSTER_EVENT_TIME@@V?$allocator@UXMASMONSTER_EVENT_TIME@@@std@@@std@@IBEII@Z PROC ; std::vector<XMASMONSTER_EVENT_TIME,std::allocator<XMASMONSTER_EVENT_TIME> >::_Grow_to, COMDAT
; _this$ = ecx

; 1274 : 		{	// grow by 50% or at least to _Count

  00000	55		 push	 ebp
  00001	8b ec		 mov	 ebp, esp

; 1275 : 		size_type _Capacity = capacity();

  00003	8b 41 08	 mov	 eax, DWORD PTR [ecx+8]
  00006	2b 01		 sub	 eax, DWORD PTR [ecx]

; 1276 : 
; 1277 : 		_Capacity = max_size() - _Capacity / 2 < _Capacity
; 1278 : 			? 0 : _Capacity + _Capacity / 2;	// try to grow by 50%

  00008	ba ff ff ff 1f	 mov	 edx, 536870911		; 1fffffffH
  0000d	c1 f8 03	 sar	 eax, 3
  00010	8b c8		 mov	 ecx, eax
  00012	d1 e9		 shr	 ecx, 1
  00014	2b d1		 sub	 edx, ecx
  00016	3b d0		 cmp	 edx, eax
  00018	73 04		 jae	 SHORT $LN4@Grow_to
  0001a	33 c0		 xor	 eax, eax
  0001c	eb 02		 jmp	 SHORT $LN5@Grow_to
$LN4@Grow_to:
  0001e	03 c1		 add	 eax, ecx
$LN5@Grow_to:

; 1279 : 		if (_Capacity < _Count)

  00020	8b 4d 08	 mov	 ecx, DWORD PTR __Count$[ebp]
  00023	3b c1		 cmp	 eax, ecx
  00025	73 02		 jae	 SHORT $LN1@Grow_to

; 1280 : 			_Capacity = _Count;
; 1281 : 		return (_Capacity);

  00027	8b c1		 mov	 eax, ecx
$LN1@Grow_to:

; 1282 : 		}

  00029	5d		 pop	 ebp
  0002a	c2 04 00	 ret	 4
?_Grow_to@?$vector@UXMASMONSTER_EVENT_TIME@@V?$allocator@UXMASMONSTER_EVENT_TIME@@@std@@@std@@IBEII@Z ENDP ; std::vector<XMASMONSTER_EVENT_TIME,std::allocator<XMASMONSTER_EVENT_TIME> >::_Grow_to
_TEXT	ENDS
PUBLIC	?max_size@?$vector@UXMASMONSTER_DATA@@V?$allocator@UXMASMONSTER_DATA@@@std@@@std@@QBEIXZ ; std::vector<XMASMONSTER_DATA,std::allocator<XMASMONSTER_DATA> >::max_size
; Function compile flags: /Ogtp
;	COMDAT ?max_size@?$vector@UXMASMONSTER_DATA@@V?$allocator@UXMASMONSTER_DATA@@@std@@@std@@QBEIXZ
_TEXT	SEGMENT
?max_size@?$vector@UXMASMONSTER_DATA@@V?$allocator@UXMASMONSTER_DATA@@@std@@@std@@QBEIXZ PROC ; std::vector<XMASMONSTER_DATA,std::allocator<XMASMONSTER_DATA> >::max_size, COMDAT
; _this$ = ecx

; 884  : 		return (this->_Alval.max_size());

  00000	b8 55 55 55 15	 mov	 eax, 357913941		; 15555555H

; 885  : 		}

  00005	c3		 ret	 0
?max_size@?$vector@UXMASMONSTER_DATA@@V?$allocator@UXMASMONSTER_DATA@@@std@@@std@@QBEIXZ ENDP ; std::vector<XMASMONSTER_DATA,std::allocator<XMASMONSTER_DATA> >::max_size
_TEXT	ENDS
PUBLIC	?_Grow_to@?$vector@UXMASMONSTER_DATA@@V?$allocator@UXMASMONSTER_DATA@@@std@@@std@@IBEII@Z ; std::vector<XMASMONSTER_DATA,std::allocator<XMASMONSTER_DATA> >::_Grow_to
; Function compile flags: /Ogtp
;	COMDAT ?_Grow_to@?$vector@UXMASMONSTER_DATA@@V?$allocator@UXMASMONSTER_DATA@@@std@@@std@@IBEII@Z
_TEXT	SEGMENT
__Count$ = 8						; size = 4
?_Grow_to@?$vector@UXMASMONSTER_DATA@@V?$allocator@UXMASMONSTER_DATA@@@std@@@std@@IBEII@Z PROC ; std::vector<XMASMONSTER_DATA,std::allocator<XMASMONSTER_DATA> >::_Grow_to, COMDAT
; _this$ = ecx

; 1274 : 		{	// grow by 50% or at least to _Count

  00000	55		 push	 ebp
  00001	8b ec		 mov	 ebp, esp

; 1275 : 		size_type _Capacity = capacity();

  00003	8b 51 08	 mov	 edx, DWORD PTR [ecx+8]
  00006	2b 11		 sub	 edx, DWORD PTR [ecx]
  00008	b8 ab aa aa 2a	 mov	 eax, 715827883		; 2aaaaaabH
  0000d	f7 ea		 imul	 edx
  0000f	d1 fa		 sar	 edx, 1
  00011	8b c2		 mov	 eax, edx
  00013	c1 e8 1f	 shr	 eax, 31			; 0000001fH
  00016	03 c2		 add	 eax, edx

; 1276 : 
; 1277 : 		_Capacity = max_size() - _Capacity / 2 < _Capacity
; 1278 : 			? 0 : _Capacity + _Capacity / 2;	// try to grow by 50%

  00018	8b c8		 mov	 ecx, eax
  0001a	d1 e9		 shr	 ecx, 1
  0001c	ba 55 55 55 15	 mov	 edx, 357913941		; 15555555H
  00021	2b d1		 sub	 edx, ecx
  00023	3b d0		 cmp	 edx, eax
  00025	73 04		 jae	 SHORT $LN4@Grow_to@2
  00027	33 c0		 xor	 eax, eax
  00029	eb 02		 jmp	 SHORT $LN5@Grow_to@2
$LN4@Grow_to@2:
  0002b	03 c1		 add	 eax, ecx
$LN5@Grow_to@2:

; 1279 : 		if (_Capacity < _Count)

  0002d	8b 4d 08	 mov	 ecx, DWORD PTR __Count$[ebp]
  00030	3b c1		 cmp	 eax, ecx
  00032	73 02		 jae	 SHORT $LN1@Grow_to@2

; 1280 : 			_Capacity = _Count;
; 1281 : 		return (_Capacity);

  00034	8b c1		 mov	 eax, ecx
$LN1@Grow_to@2:

; 1282 : 		}

  00036	5d		 pop	 ebp
  00037	c2 04 00	 ret	 4
?_Grow_to@?$vector@UXMASMONSTER_DATA@@V?$allocator@UXMASMONSTER_DATA@@@std@@@std@@IBEII@Z ENDP ; std::vector<XMASMONSTER_DATA,std::allocator<XMASMONSTER_DATA> >::_Grow_to
_TEXT	ENDS
PUBLIC	?max_size@?$vector@PAVCXMasMonsterHerd@@V?$allocator@PAVCXMasMonsterHerd@@@std@@@std@@QBEIXZ ; std::vector<CXMasMonsterHerd *,std::allocator<CXMasMonsterHerd *> >::max_size
; Function compile flags: /Ogtp
;	COMDAT ?max_size@?$vector@PAVCXMasMonsterHerd@@V?$allocator@PAVCXMasMonsterHerd@@@std@@@std@@QBEIXZ
_TEXT	SEGMENT
?max_size@?$vector@PAVCXMasMonsterHerd@@V?$allocator@PAVCXMasMonsterHerd@@@std@@@std@@QBEIXZ PROC ; std::vector<CXMasMonsterHerd *,std::allocator<CXMasMonsterHerd *> >::max_size, COMDAT
; _this$ = ecx

; 884  : 		return (this->_Alval.max_size());

  00000	b8 ff ff ff 3f	 mov	 eax, 1073741823		; 3fffffffH

; 885  : 		}

  00005	c3		 ret	 0
?max_size@?$vector@PAVCXMasMonsterHerd@@V?$allocator@PAVCXMasMonsterHerd@@@std@@@std@@QBEIXZ ENDP ; std::vector<CXMasMonsterHerd *,std::allocator<CXMasMonsterHerd *> >::max_size
_TEXT	ENDS
PUBLIC	?_Grow_to@?$vector@PAVCXMasMonsterHerd@@V?$allocator@PAVCXMasMonsterHerd@@@std@@@std@@IBEII@Z ; std::vector<CXMasMonsterHerd *,std::allocator<CXMasMonsterHerd *> >::_Grow_to
; Function compile flags: /Ogtp
;	COMDAT ?_Grow_to@?$vector@PAVCXMasMonsterHerd@@V?$allocator@PAVCXMasMonsterHerd@@@std@@@std@@IBEII@Z
_TEXT	SEGMENT
__Count$ = 8						; size = 4
?_Grow_to@?$vector@PAVCXMasMonsterHerd@@V?$allocator@PAVCXMasMonsterHerd@@@std@@@std@@IBEII@Z PROC ; std::vector<CXMasMonsterHerd *,std::allocator<CXMasMonsterHerd *> >::_Grow_to, COMDAT
; _this$ = ecx

; 1274 : 		{	// grow by 50% or at least to _Count

  00000	55		 push	 ebp
  00001	8b ec		 mov	 ebp, esp

; 1275 : 		size_type _Capacity = capacity();

  00003	8b 41 08	 mov	 eax, DWORD PTR [ecx+8]
  00006	2b 01		 sub	 eax, DWORD PTR [ecx]

; 1276 : 
; 1277 : 		_Capacity = max_size() - _Capacity / 2 < _Capacity
; 1278 : 			? 0 : _Capacity + _Capacity / 2;	// try to grow by 50%

  00008	ba ff ff ff 3f	 mov	 edx, 1073741823		; 3fffffffH
  0000d	c1 f8 02	 sar	 eax, 2
  00010	8b c8		 mov	 ecx, eax
  00012	d1 e9		 shr	 ecx, 1
  00014	2b d1		 sub	 edx, ecx
  00016	3b d0		 cmp	 edx, eax
  00018	73 04		 jae	 SHORT $LN4@Grow_to@3
  0001a	33 c0		 xor	 eax, eax
  0001c	eb 02		 jmp	 SHORT $LN5@Grow_to@3
$LN4@Grow_to@3:
  0001e	03 c1		 add	 eax, ecx
$LN5@Grow_to@3:

; 1279 : 		if (_Capacity < _Count)

  00020	8b 4d 08	 mov	 ecx, DWORD PTR __Count$[ebp]
  00023	3b c1		 cmp	 eax, ecx
  00025	73 02		 jae	 SHORT $LN1@Grow_to@3

; 1280 : 			_Capacity = _Count;
; 1281 : 		return (_Capacity);

  00027	8b c1		 mov	 eax, ecx
$LN1@Grow_to@3:

; 1282 : 		}

  00029	5d		 pop	 ebp
  0002a	c2 04 00	 ret	 4
?_Grow_to@?$vector@PAVCXMasMonsterHerd@@V?$allocator@PAVCXMasMonsterHerd@@@std@@@std@@IBEII@Z ENDP ; std::vector<CXMasMonsterHerd *,std::allocator<CXMasMonsterHerd *> >::_Grow_to
_TEXT	ENDS
PUBLIC	?max_size@?$vector@UXMASMONSTER_MAP_INFO@@V?$allocator@UXMASMONSTER_MAP_INFO@@@std@@@std@@QBEIXZ ; std::vector<XMASMONSTER_MAP_INFO,std::allocator<XMASMONSTER_MAP_INFO> >::max_size
; Function compile flags: /Ogtp
;	COMDAT ?max_size@?$vector@UXMASMONSTER_MAP_INFO@@V?$allocator@UXMASMONSTER_MAP_INFO@@@std@@@std@@QBEIXZ
_TEXT	SEGMENT
?max_size@?$vector@UXMASMONSTER_MAP_INFO@@V?$allocator@UXMASMONSTER_MAP_INFO@@@std@@@std@@QBEIXZ PROC ; std::vector<XMASMONSTER_MAP_INFO,std::allocator<XMASMONSTER_MAP_INFO> >::max_size, COMDAT
; _this$ = ecx

; 884  : 		return (this->_Alval.max_size());

  00000	b8 cc cc cc 0c	 mov	 eax, 214748364		; 0cccccccH

; 885  : 		}

  00005	c3		 ret	 0
?max_size@?$vector@UXMASMONSTER_MAP_INFO@@V?$allocator@UXMASMONSTER_MAP_INFO@@@std@@@std@@QBEIXZ ENDP ; std::vector<XMASMONSTER_MAP_INFO,std::allocator<XMASMONSTER_MAP_INFO> >::max_size
_TEXT	ENDS
PUBLIC	?_Grow_to@?$vector@UXMASMONSTER_MAP_INFO@@V?$allocator@UXMASMONSTER_MAP_INFO@@@std@@@std@@IBEII@Z ; std::vector<XMASMONSTER_MAP_INFO,std::allocator<XMASMONSTER_MAP_INFO> >::_Grow_to
; Function compile flags: /Ogtp
;	COMDAT ?_Grow_to@?$vector@UXMASMONSTER_MAP_INFO@@V?$allocator@UXMASMONSTER_MAP_INFO@@@std@@@std@@IBEII@Z
_TEXT	SEGMENT
__Count$ = 8						; size = 4
?_Grow_to@?$vector@UXMASMONSTER_MAP_INFO@@V?$allocator@UXMASMONSTER_MAP_INFO@@@std@@@std@@IBEII@Z PROC ; std::vector<XMASMONSTER_MAP_INFO,std::allocator<XMASMONSTER_MAP_INFO> >::_Grow_to, COMDAT
; _this$ = ecx

; 1274 : 		{	// grow by 50% or at least to _Count

  00000	55		 push	 ebp
  00001	8b ec		 mov	 ebp, esp

; 1275 : 		size_type _Capacity = capacity();

  00003	8b 51 08	 mov	 edx, DWORD PTR [ecx+8]
  00006	2b 11		 sub	 edx, DWORD PTR [ecx]
  00008	b8 67 66 66 66	 mov	 eax, 1717986919		; 66666667H
  0000d	f7 ea		 imul	 edx
  0000f	c1 fa 03	 sar	 edx, 3
  00012	8b c2		 mov	 eax, edx
  00014	c1 e8 1f	 shr	 eax, 31			; 0000001fH
  00017	03 c2		 add	 eax, edx

; 1276 : 
; 1277 : 		_Capacity = max_size() - _Capacity / 2 < _Capacity
; 1278 : 			? 0 : _Capacity + _Capacity / 2;	// try to grow by 50%

  00019	8b c8		 mov	 ecx, eax
  0001b	d1 e9		 shr	 ecx, 1
  0001d	ba cc cc cc 0c	 mov	 edx, 214748364		; 0cccccccH
  00022	2b d1		 sub	 edx, ecx
  00024	3b d0		 cmp	 edx, eax
  00026	73 04		 jae	 SHORT $LN4@Grow_to@4
  00028	33 c0		 xor	 eax, eax
  0002a	eb 02		 jmp	 SHORT $LN5@Grow_to@4
$LN4@Grow_to@4:
  0002c	03 c1		 add	 eax, ecx
$LN5@Grow_to@4:

; 1279 : 		if (_Capacity < _Count)

  0002e	8b 4d 08	 mov	 ecx, DWORD PTR __Count$[ebp]
  00031	3b c1		 cmp	 eax, ecx
  00033	73 02		 jae	 SHORT $LN1@Grow_to@4

; 1280 : 			_Capacity = _Count;
; 1281 : 		return (_Capacity);

  00035	8b c1		 mov	 eax, ecx
$LN1@Grow_to@4:

; 1282 : 		}

  00037	5d		 pop	 ebp
  00038	c2 04 00	 ret	 4
?_Grow_to@?$vector@UXMASMONSTER_MAP_INFO@@V?$allocator@UXMASMONSTER_MAP_INFO@@@std@@@std@@IBEII@Z ENDP ; std::vector<XMASMONSTER_MAP_INFO,std::allocator<XMASMONSTER_MAP_INFO> >::_Grow_to
_TEXT	ENDS
PUBLIC	??0?$_Vector_const_iterator@V?$_Vector_val@PAVCXMasMonsterHerd@@V?$allocator@PAVCXMasMonsterHerd@@@std@@@std@@@std@@QAE@PAPAVCXMasMonsterHerd@@PBU_Container_base0@1@@Z ; std::_Vector_const_iterator<std::_Vector_val<CXMasMonsterHerd *,std::allocator<CXMasMonsterHerd *> > >::_Vector_const_iterator<std::_Vector_val<CXMasMonsterHerd *,std::allocator<CXMasMonsterHerd *> > >
; Function compile flags: /Ogtp
;	COMDAT ??0?$_Vector_const_iterator@V?$_Vector_val@PAVCXMasMonsterHerd@@V?$allocator@PAVCXMasMonsterHerd@@@std@@@std@@@std@@QAE@PAPAVCXMasMonsterHerd@@PBU_Container_base0@1@@Z
_TEXT	SEGMENT
__Parg$ = 8						; size = 4
__Pvector$ = 12						; size = 4
??0?$_Vector_const_iterator@V?$_Vector_val@PAVCXMasMonsterHerd@@V?$allocator@PAVCXMasMonsterHerd@@@std@@@std@@@std@@QAE@PAPAVCXMasMonsterHerd@@PBU_Container_base0@1@@Z PROC ; std::_Vector_const_iterator<std::_Vector_val<CXMasMonsterHerd *,std::allocator<CXMasMonsterHerd *> > >::_Vector_const_iterator<std::_Vector_val<CXMasMonsterHerd *,std::allocator<CXMasMonsterHerd *> > >, COMDAT
; _this$ = ecx

; 45   : 		{	// construct with pointer _Parg

  00000	55		 push	 ebp
  00001	8b ec		 mov	 ebp, esp
  00003	8b c1		 mov	 eax, ecx
  00005	8b 4d 08	 mov	 ecx, DWORD PTR __Parg$[ebp]
  00008	89 08		 mov	 DWORD PTR [eax], ecx

; 46   : 		this->_Adopt(_Pvector);
; 47   : 		}

  0000a	5d		 pop	 ebp
  0000b	c2 08 00	 ret	 8
??0?$_Vector_const_iterator@V?$_Vector_val@PAVCXMasMonsterHerd@@V?$allocator@PAVCXMasMonsterHerd@@@std@@@std@@@std@@QAE@PAPAVCXMasMonsterHerd@@PBU_Container_base0@1@@Z ENDP ; std::_Vector_const_iterator<std::_Vector_val<CXMasMonsterHerd *,std::allocator<CXMasMonsterHerd *> > >::_Vector_const_iterator<std::_Vector_val<CXMasMonsterHerd *,std::allocator<CXMasMonsterHerd *> > >
_TEXT	ENDS
PUBLIC	??0?$_Vector_const_iterator@V?$_Vector_val@UXMASMONSTER_MAP_INFO@@V?$allocator@UXMASMONSTER_MAP_INFO@@@std@@@std@@@std@@QAE@PAUXMASMONSTER_MAP_INFO@@PBU_Container_base0@1@@Z ; std::_Vector_const_iterator<std::_Vector_val<XMASMONSTER_MAP_INFO,std::allocator<XMASMONSTER_MAP_INFO> > >::_Vector_const_iterator<std::_Vector_val<XMASMONSTER_MAP_INFO,std::allocator<XMASMONSTER_MAP_INFO> > >
; Function compile flags: /Ogtp
;	COMDAT ??0?$_Vector_const_iterator@V?$_Vector_val@UXMASMONSTER_MAP_INFO@@V?$allocator@UXMASMONSTER_MAP_INFO@@@std@@@std@@@std@@QAE@PAUXMASMONSTER_MAP_INFO@@PBU_Container_base0@1@@Z
_TEXT	SEGMENT
__Parg$ = 8						; size = 4
__Pvector$ = 12						; size = 4
??0?$_Vector_const_iterator@V?$_Vector_val@UXMASMONSTER_MAP_INFO@@V?$allocator@UXMASMONSTER_MAP_INFO@@@std@@@std@@@std@@QAE@PAUXMASMONSTER_MAP_INFO@@PBU_Container_base0@1@@Z PROC ; std::_Vector_const_iterator<std::_Vector_val<XMASMONSTER_MAP_INFO,std::allocator<XMASMONSTER_MAP_INFO> > >::_Vector_const_iterator<std::_Vector_val<XMASMONSTER_MAP_INFO,std::allocator<XMASMONSTER_MAP_INFO> > >, COMDAT
; _this$ = ecx

; 45   : 		{	// construct with pointer _Parg

  00000	55		 push	 ebp
  00001	8b ec		 mov	 ebp, esp
  00003	8b c1		 mov	 eax, ecx
  00005	8b 4d 08	 mov	 ecx, DWORD PTR __Parg$[ebp]
  00008	89 08		 mov	 DWORD PTR [eax], ecx

; 46   : 		this->_Adopt(_Pvector);
; 47   : 		}

  0000a	5d		 pop	 ebp
  0000b	c2 08 00	 ret	 8
??0?$_Vector_const_iterator@V?$_Vector_val@UXMASMONSTER_MAP_INFO@@V?$allocator@UXMASMONSTER_MAP_INFO@@@std@@@std@@@std@@QAE@PAUXMASMONSTER_MAP_INFO@@PBU_Container_base0@1@@Z ENDP ; std::_Vector_const_iterator<std::_Vector_val<XMASMONSTER_MAP_INFO,std::allocator<XMASMONSTER_MAP_INFO> > >::_Vector_const_iterator<std::_Vector_val<XMASMONSTER_MAP_INFO,std::allocator<XMASMONSTER_MAP_INFO> > >
_TEXT	ENDS
PUBLIC	??0?$_Vector_const_iterator@V?$_Vector_val@UXMASMONSTER_DATA@@V?$allocator@UXMASMONSTER_DATA@@@std@@@std@@@std@@QAE@PAUXMASMONSTER_DATA@@PBU_Container_base0@1@@Z ; std::_Vector_const_iterator<std::_Vector_val<XMASMONSTER_DATA,std::allocator<XMASMONSTER_DATA> > >::_Vector_const_iterator<std::_Vector_val<XMASMONSTER_DATA,std::allocator<XMASMONSTER_DATA> > >
; Function compile flags: /Ogtp
;	COMDAT ??0?$_Vector_const_iterator@V?$_Vector_val@UXMASMONSTER_DATA@@V?$allocator@UXMASMONSTER_DATA@@@std@@@std@@@std@@QAE@PAUXMASMONSTER_DATA@@PBU_Container_base0@1@@Z
_TEXT	SEGMENT
__Parg$ = 8						; size = 4
__Pvector$ = 12						; size = 4
??0?$_Vector_const_iterator@V?$_Vector_val@UXMASMONSTER_DATA@@V?$allocator@UXMASMONSTER_DATA@@@std@@@std@@@std@@QAE@PAUXMASMONSTER_DATA@@PBU_Container_base0@1@@Z PROC ; std::_Vector_const_iterator<std::_Vector_val<XMASMONSTER_DATA,std::allocator<XMASMONSTER_DATA> > >::_Vector_const_iterator<std::_Vector_val<XMASMONSTER_DATA,std::allocator<XMASMONSTER_DATA> > >, COMDAT
; _this$ = ecx

; 45   : 		{	// construct with pointer _Parg

  00000	55		 push	 ebp
  00001	8b ec		 mov	 ebp, esp
  00003	8b c1		 mov	 eax, ecx
  00005	8b 4d 08	 mov	 ecx, DWORD PTR __Parg$[ebp]
  00008	89 08		 mov	 DWORD PTR [eax], ecx

; 46   : 		this->_Adopt(_Pvector);
; 47   : 		}

  0000a	5d		 pop	 ebp
  0000b	c2 08 00	 ret	 8
??0?$_Vector_const_iterator@V?$_Vector_val@UXMASMONSTER_DATA@@V?$allocator@UXMASMONSTER_DATA@@@std@@@std@@@std@@QAE@PAUXMASMONSTER_DATA@@PBU_Container_base0@1@@Z ENDP ; std::_Vector_const_iterator<std::_Vector_val<XMASMONSTER_DATA,std::allocator<XMASMONSTER_DATA> > >::_Vector_const_iterator<std::_Vector_val<XMASMONSTER_DATA,std::allocator<XMASMONSTER_DATA> > >
_TEXT	ENDS
PUBLIC	??0?$_Vector_const_iterator@V?$_Vector_val@UXMASMONSTER_EVENT_TIME@@V?$allocator@UXMASMONSTER_EVENT_TIME@@@std@@@std@@@std@@QAE@PAUXMASMONSTER_EVENT_TIME@@PBU_Container_base0@1@@Z ; std::_Vector_const_iterator<std::_Vector_val<XMASMONSTER_EVENT_TIME,std::allocator<XMASMONSTER_EVENT_TIME> > >::_Vector_const_iterator<std::_Vector_val<XMASMONSTER_EVENT_TIME,std::allocator<XMASMONSTER_EVENT_TIME> > >
; Function compile flags: /Ogtp
;	COMDAT ??0?$_Vector_const_iterator@V?$_Vector_val@UXMASMONSTER_EVENT_TIME@@V?$allocator@UXMASMONSTER_EVENT_TIME@@@std@@@std@@@std@@QAE@PAUXMASMONSTER_EVENT_TIME@@PBU_Container_base0@1@@Z
_TEXT	SEGMENT
__Parg$ = 8						; size = 4
__Pvector$ = 12						; size = 4
??0?$_Vector_const_iterator@V?$_Vector_val@UXMASMONSTER_EVENT_TIME@@V?$allocator@UXMASMONSTER_EVENT_TIME@@@std@@@std@@@std@@QAE@PAUXMASMONSTER_EVENT_TIME@@PBU_Container_base0@1@@Z PROC ; std::_Vector_const_iterator<std::_Vector_val<XMASMONSTER_EVENT_TIME,std::allocator<XMASMONSTER_EVENT_TIME> > >::_Vector_const_iterator<std::_Vector_val<XMASMONSTER_EVENT_TIME,std::allocator<XMASMONSTER_EVENT_TIME> > >, COMDAT
; _this$ = ecx

; 45   : 		{	// construct with pointer _Parg

  00000	55		 push	 ebp
  00001	8b ec		 mov	 ebp, esp
  00003	8b c1		 mov	 eax, ecx
  00005	8b 4d 08	 mov	 ecx, DWORD PTR __Parg$[ebp]
  00008	89 08		 mov	 DWORD PTR [eax], ecx

; 46   : 		this->_Adopt(_Pvector);
; 47   : 		}

  0000a	5d		 pop	 ebp
  0000b	c2 08 00	 ret	 8
??0?$_Vector_const_iterator@V?$_Vector_val@UXMASMONSTER_EVENT_TIME@@V?$allocator@UXMASMONSTER_EVENT_TIME@@@std@@@std@@@std@@QAE@PAUXMASMONSTER_EVENT_TIME@@PBU_Container_base0@1@@Z ENDP ; std::_Vector_const_iterator<std::_Vector_val<XMASMONSTER_EVENT_TIME,std::allocator<XMASMONSTER_EVENT_TIME> > >::_Vector_const_iterator<std::_Vector_val<XMASMONSTER_EVENT_TIME,std::allocator<XMASMONSTER_EVENT_TIME> > >
_TEXT	ENDS
PUBLIC	??$_Cons_val@V?$allocator@UXMASMONSTER_EVENT_TIME@@@std@@UXMASMONSTER_EVENT_TIME@@AAU3@@std@@YAXAAV?$allocator@UXMASMONSTER_EVENT_TIME@@@0@PAUXMASMONSTER_EVENT_TIME@@AAU2@@Z ; std::_Cons_val<std::allocator<XMASMONSTER_EVENT_TIME>,XMASMONSTER_EVENT_TIME,XMASMONSTER_EVENT_TIME &>
; Function compile flags: /Ogtp
; File d:\program files (x86)\microsoft visual studio 10.0\vc\include\xmemory
;	COMDAT ??$_Cons_val@V?$allocator@UXMASMONSTER_EVENT_TIME@@@std@@UXMASMONSTER_EVENT_TIME@@AAU3@@std@@YAXAAV?$allocator@UXMASMONSTER_EVENT_TIME@@@0@PAUXMASMONSTER_EVENT_TIME@@AAU2@@Z
_TEXT	SEGMENT
__Alval$ = 8						; size = 4
__Pdest$ = 12						; size = 4
__Src$ = 16						; size = 4
??$_Cons_val@V?$allocator@UXMASMONSTER_EVENT_TIME@@@std@@UXMASMONSTER_EVENT_TIME@@AAU3@@std@@YAXAAV?$allocator@UXMASMONSTER_EVENT_TIME@@@0@PAUXMASMONSTER_EVENT_TIME@@AAU2@@Z PROC ; std::_Cons_val<std::allocator<XMASMONSTER_EVENT_TIME>,XMASMONSTER_EVENT_TIME,XMASMONSTER_EVENT_TIME &>, COMDAT

; 279  : 	{	// construct using allocator

  00000	55		 push	 ebp
  00001	8b ec		 mov	 ebp, esp

; 280  : 	_Alval.construct(_Pdest, _STD forward<_Ty2>(_Src));

  00003	8b 45 0c	 mov	 eax, DWORD PTR __Pdest$[ebp]
  00006	85 c0		 test	 eax, eax
  00008	74 0d		 je	 SHORT $LN7@Cons_val
  0000a	8b 4d 10	 mov	 ecx, DWORD PTR __Src$[ebp]
  0000d	8b 11		 mov	 edx, DWORD PTR [ecx]
  0000f	89 10		 mov	 DWORD PTR [eax], edx
  00011	8b 49 04	 mov	 ecx, DWORD PTR [ecx+4]
  00014	89 48 04	 mov	 DWORD PTR [eax+4], ecx
$LN7@Cons_val:

; 281  : 	}

  00017	5d		 pop	 ebp
  00018	c3		 ret	 0
??$_Cons_val@V?$allocator@UXMASMONSTER_EVENT_TIME@@@std@@UXMASMONSTER_EVENT_TIME@@AAU3@@std@@YAXAAV?$allocator@UXMASMONSTER_EVENT_TIME@@@0@PAUXMASMONSTER_EVENT_TIME@@AAU2@@Z ENDP ; std::_Cons_val<std::allocator<XMASMONSTER_EVENT_TIME>,XMASMONSTER_EVENT_TIME,XMASMONSTER_EVENT_TIME &>
_TEXT	ENDS
PUBLIC	??$_Cons_val@V?$allocator@UXMASMONSTER_DATA@@@std@@UXMASMONSTER_DATA@@AAU3@@std@@YAXAAV?$allocator@UXMASMONSTER_DATA@@@0@PAUXMASMONSTER_DATA@@AAU2@@Z ; std::_Cons_val<std::allocator<XMASMONSTER_DATA>,XMASMONSTER_DATA,XMASMONSTER_DATA &>
; Function compile flags: /Ogtp
;	COMDAT ??$_Cons_val@V?$allocator@UXMASMONSTER_DATA@@@std@@UXMASMONSTER_DATA@@AAU3@@std@@YAXAAV?$allocator@UXMASMONSTER_DATA@@@0@PAUXMASMONSTER_DATA@@AAU2@@Z
_TEXT	SEGMENT
__Alval$ = 8						; size = 4
__Pdest$ = 12						; size = 4
__Src$ = 16						; size = 4
??$_Cons_val@V?$allocator@UXMASMONSTER_DATA@@@std@@UXMASMONSTER_DATA@@AAU3@@std@@YAXAAV?$allocator@UXMASMONSTER_DATA@@@0@PAUXMASMONSTER_DATA@@AAU2@@Z PROC ; std::_Cons_val<std::allocator<XMASMONSTER_DATA>,XMASMONSTER_DATA,XMASMONSTER_DATA &>, COMDAT

; 279  : 	{	// construct using allocator

  00000	55		 push	 ebp
  00001	8b ec		 mov	 ebp, esp

; 280  : 	_Alval.construct(_Pdest, _STD forward<_Ty2>(_Src));

  00003	8b 45 0c	 mov	 eax, DWORD PTR __Pdest$[ebp]
  00006	85 c0		 test	 eax, eax
  00008	74 13		 je	 SHORT $LN7@Cons_val@2
  0000a	8b 4d 10	 mov	 ecx, DWORD PTR __Src$[ebp]
  0000d	8b 11		 mov	 edx, DWORD PTR [ecx]
  0000f	89 10		 mov	 DWORD PTR [eax], edx
  00011	8b 51 04	 mov	 edx, DWORD PTR [ecx+4]
  00014	89 50 04	 mov	 DWORD PTR [eax+4], edx
  00017	8b 49 08	 mov	 ecx, DWORD PTR [ecx+8]
  0001a	89 48 08	 mov	 DWORD PTR [eax+8], ecx
$LN7@Cons_val@2:

; 281  : 	}

  0001d	5d		 pop	 ebp
  0001e	c3		 ret	 0
??$_Cons_val@V?$allocator@UXMASMONSTER_DATA@@@std@@UXMASMONSTER_DATA@@AAU3@@std@@YAXAAV?$allocator@UXMASMONSTER_DATA@@@0@PAUXMASMONSTER_DATA@@AAU2@@Z ENDP ; std::_Cons_val<std::allocator<XMASMONSTER_DATA>,XMASMONSTER_DATA,XMASMONSTER_DATA &>
_TEXT	ENDS
PUBLIC	??$_Cons_val@V?$allocator@PAVCXMasMonsterHerd@@@std@@PAVCXMasMonsterHerd@@PAV3@@std@@YAXAAV?$allocator@PAVCXMasMonsterHerd@@@0@PAPAVCXMasMonsterHerd@@$$QAPAV2@@Z ; std::_Cons_val<std::allocator<CXMasMonsterHerd *>,CXMasMonsterHerd *,CXMasMonsterHerd *>
; Function compile flags: /Ogtp
;	COMDAT ??$_Cons_val@V?$allocator@PAVCXMasMonsterHerd@@@std@@PAVCXMasMonsterHerd@@PAV3@@std@@YAXAAV?$allocator@PAVCXMasMonsterHerd@@@0@PAPAVCXMasMonsterHerd@@$$QAPAV2@@Z
_TEXT	SEGMENT
__Alval$ = 8						; size = 4
__Pdest$ = 12						; size = 4
__Src$ = 16						; size = 4
??$_Cons_val@V?$allocator@PAVCXMasMonsterHerd@@@std@@PAVCXMasMonsterHerd@@PAV3@@std@@YAXAAV?$allocator@PAVCXMasMonsterHerd@@@0@PAPAVCXMasMonsterHerd@@$$QAPAV2@@Z PROC ; std::_Cons_val<std::allocator<CXMasMonsterHerd *>,CXMasMonsterHerd *,CXMasMonsterHerd *>, COMDAT

; 279  : 	{	// construct using allocator

  00000	55		 push	 ebp
  00001	8b ec		 mov	 ebp, esp

; 280  : 	_Alval.construct(_Pdest, _STD forward<_Ty2>(_Src));

  00003	8b 45 0c	 mov	 eax, DWORD PTR __Pdest$[ebp]
  00006	85 c0		 test	 eax, eax
  00008	74 07		 je	 SHORT $LN7@Cons_val@3
  0000a	8b 4d 10	 mov	 ecx, DWORD PTR __Src$[ebp]
  0000d	8b 11		 mov	 edx, DWORD PTR [ecx]
  0000f	89 10		 mov	 DWORD PTR [eax], edx
$LN7@Cons_val@3:

; 281  : 	}

  00011	5d		 pop	 ebp
  00012	c3		 ret	 0
??$_Cons_val@V?$allocator@PAVCXMasMonsterHerd@@@std@@PAVCXMasMonsterHerd@@PAV3@@std@@YAXAAV?$allocator@PAVCXMasMonsterHerd@@@0@PAPAVCXMasMonsterHerd@@$$QAPAV2@@Z ENDP ; std::_Cons_val<std::allocator<CXMasMonsterHerd *>,CXMasMonsterHerd *,CXMasMonsterHerd *>
_TEXT	ENDS
PUBLIC	??$_Move@PAPAVCXMasMonsterHerd@@PAPAV1@@std@@YAPAPAVCXMasMonsterHerd@@PAPAV1@00@Z ; std::_Move<CXMasMonsterHerd * *,CXMasMonsterHerd * *>
; Function compile flags: /Ogtp
; File d:\program files (x86)\microsoft visual studio 10.0\vc\include\xutility
;	COMDAT ??$_Move@PAPAVCXMasMonsterHerd@@PAPAV1@@std@@YAPAPAVCXMasMonsterHerd@@PAPAV1@00@Z
_TEXT	SEGMENT
__First$ = 8						; size = 4
__Last$ = 12						; size = 4
__Dest$ = 16						; size = 4
??$_Move@PAPAVCXMasMonsterHerd@@PAPAV1@@std@@YAPAPAVCXMasMonsterHerd@@PAPAV1@00@Z PROC ; std::_Move<CXMasMonsterHerd * *,CXMasMonsterHerd * *>, COMDAT

; 2533 : 	{	// move [_First, _Last) to [_Dest, ...), unchecked

  00000	55		 push	 ebp
  00001	8b ec		 mov	 ebp, esp

; 2534 : 	return (_Move(_First, _Last,
; 2535 : 		_Dest, _Ptr_cat(_First, _Dest)));

  00003	8b 4d 08	 mov	 ecx, DWORD PTR __First$[ebp]
  00006	8b 45 0c	 mov	 eax, DWORD PTR __Last$[ebp]
  00009	56		 push	 esi
  0000a	2b c1		 sub	 eax, ecx
  0000c	57		 push	 edi
  0000d	8b 7d 10	 mov	 edi, DWORD PTR __Dest$[ebp]
  00010	c1 f8 02	 sar	 eax, 2
  00013	8d 34 85 00 00
	00 00		 lea	 esi, DWORD PTR [eax*4]
  0001a	56		 push	 esi
  0001b	51		 push	 ecx
  0001c	57		 push	 edi
  0001d	e8 00 00 00 00	 call	 _memmove
  00022	83 c4 0c	 add	 esp, 12			; 0000000cH
  00025	8d 04 3e	 lea	 eax, DWORD PTR [esi+edi]
  00028	5f		 pop	 edi
  00029	5e		 pop	 esi

; 2536 : 	}

  0002a	5d		 pop	 ebp
  0002b	c3		 ret	 0
??$_Move@PAPAVCXMasMonsterHerd@@PAPAV1@@std@@YAPAPAVCXMasMonsterHerd@@PAPAV1@00@Z ENDP ; std::_Move<CXMasMonsterHerd * *,CXMasMonsterHerd * *>
_TEXT	ENDS
PUBLIC	??$_Cons_val@V?$allocator@UXMASMONSTER_MAP_INFO@@@std@@UXMASMONSTER_MAP_INFO@@AAU3@@std@@YAXAAV?$allocator@UXMASMONSTER_MAP_INFO@@@0@PAUXMASMONSTER_MAP_INFO@@AAU2@@Z ; std::_Cons_val<std::allocator<XMASMONSTER_MAP_INFO>,XMASMONSTER_MAP_INFO,XMASMONSTER_MAP_INFO &>
; Function compile flags: /Ogtp
; File d:\program files (x86)\microsoft visual studio 10.0\vc\include\xmemory
;	COMDAT ??$_Cons_val@V?$allocator@UXMASMONSTER_MAP_INFO@@@std@@UXMASMONSTER_MAP_INFO@@AAU3@@std@@YAXAAV?$allocator@UXMASMONSTER_MAP_INFO@@@0@PAUXMASMONSTER_MAP_INFO@@AAU2@@Z
_TEXT	SEGMENT
__Alval$ = 8						; size = 4
__Pdest$ = 12						; size = 4
__Src$ = 16						; size = 4
??$_Cons_val@V?$allocator@UXMASMONSTER_MAP_INFO@@@std@@UXMASMONSTER_MAP_INFO@@AAU3@@std@@YAXAAV?$allocator@UXMASMONSTER_MAP_INFO@@@0@PAUXMASMONSTER_MAP_INFO@@AAU2@@Z PROC ; std::_Cons_val<std::allocator<XMASMONSTER_MAP_INFO>,XMASMONSTER_MAP_INFO,XMASMONSTER_MAP_INFO &>, COMDAT

; 279  : 	{	// construct using allocator

  00000	55		 push	 ebp
  00001	8b ec		 mov	 ebp, esp

; 280  : 	_Alval.construct(_Pdest, _STD forward<_Ty2>(_Src));

  00003	8b 45 0c	 mov	 eax, DWORD PTR __Pdest$[ebp]
  00006	85 c0		 test	 eax, eax
  00008	74 1f		 je	 SHORT $LN7@Cons_val@4
  0000a	8b 4d 10	 mov	 ecx, DWORD PTR __Src$[ebp]
  0000d	8b 11		 mov	 edx, DWORD PTR [ecx]
  0000f	89 10		 mov	 DWORD PTR [eax], edx
  00011	8b 51 04	 mov	 edx, DWORD PTR [ecx+4]
  00014	89 50 04	 mov	 DWORD PTR [eax+4], edx
  00017	8b 51 08	 mov	 edx, DWORD PTR [ecx+8]
  0001a	89 50 08	 mov	 DWORD PTR [eax+8], edx
  0001d	8b 51 0c	 mov	 edx, DWORD PTR [ecx+12]
  00020	89 50 0c	 mov	 DWORD PTR [eax+12], edx
  00023	8b 49 10	 mov	 ecx, DWORD PTR [ecx+16]
  00026	89 48 10	 mov	 DWORD PTR [eax+16], ecx
$LN7@Cons_val@4:

; 281  : 	}

  00029	5d		 pop	 ebp
  0002a	c3		 ret	 0
??$_Cons_val@V?$allocator@UXMASMONSTER_MAP_INFO@@@std@@UXMASMONSTER_MAP_INFO@@AAU3@@std@@YAXAAV?$allocator@UXMASMONSTER_MAP_INFO@@@0@PAUXMASMONSTER_MAP_INFO@@AAU2@@Z ENDP ; std::_Cons_val<std::allocator<XMASMONSTER_MAP_INFO>,XMASMONSTER_MAP_INFO,XMASMONSTER_MAP_INFO &>
_TEXT	ENDS
PUBLIC	??$_Destroy_range@V?$allocator@PAVCXMasMonsterHerd@@@std@@@std@@YAXPAPAVCXMasMonsterHerd@@0AAV?$allocator@PAVCXMasMonsterHerd@@@0@@Z ; std::_Destroy_range<std::allocator<CXMasMonsterHerd *> >
; Function compile flags: /Ogtp
;	COMDAT ??$_Destroy_range@V?$allocator@PAVCXMasMonsterHerd@@@std@@@std@@YAXPAPAVCXMasMonsterHerd@@0AAV?$allocator@PAVCXMasMonsterHerd@@@0@@Z
_TEXT	SEGMENT
__First$ = 8						; size = 4
__Last$ = 12						; size = 4
__Al$ = 16						; size = 4
??$_Destroy_range@V?$allocator@PAVCXMasMonsterHerd@@@std@@@std@@YAXPAPAVCXMasMonsterHerd@@0AAV?$allocator@PAVCXMasMonsterHerd@@@0@@Z PROC ; std::_Destroy_range<std::allocator<CXMasMonsterHerd *> >, COMDAT

; 88   : 	_Destroy_range(_First, _Last, _Al, _Ptr_cat(_First, _Last));
; 89   : 	}

  00000	c3		 ret	 0
??$_Destroy_range@V?$allocator@PAVCXMasMonsterHerd@@@std@@@std@@YAXPAPAVCXMasMonsterHerd@@0AAV?$allocator@PAVCXMasMonsterHerd@@@0@@Z ENDP ; std::_Destroy_range<std::allocator<CXMasMonsterHerd *> >
_TEXT	ENDS
PUBLIC	__TI2?AVbad_alloc@std@@
PUBLIC	??$_Allocate@UXMASMONSTER_EVENT_TIME@@@std@@YAPAUXMASMONSTER_EVENT_TIME@@IPAU1@@Z ; std::_Allocate<XMASMONSTER_EVENT_TIME>
PUBLIC	__CTA2?AVbad_alloc@std@@
PUBLIC	__CT??_R0?AVbad_alloc@std@@@8??0bad_alloc@std@@QAE@ABV01@@Z12
PUBLIC	??0bad_alloc@std@@QAE@ABV01@@Z			; std::bad_alloc::bad_alloc
PUBLIC	__CT??_R0?AVexception@std@@@8??0exception@std@@QAE@ABV01@@Z12
EXTRN	??2@YAPAXI@Z:PROC				; operator new
EXTRN	__CxxThrowException@8:PROC
EXTRN	??0exception@std@@QAE@ABV01@@Z:PROC		; std::exception::exception
;	COMDAT __CT??_R0?AVexception@std@@@8??0exception@std@@QAE@ABV01@@Z12
; File d:\program files (x86)\microsoft visual studio 10.0\vc\include\exception
xdata$x	SEGMENT
__CT??_R0?AVexception@std@@@8??0exception@std@@QAE@ABV01@@Z12 DD 00H
	DD	FLAT:??_R0?AVexception@std@@@8
	DD	00H
	DD	0ffffffffH
	ORG $+4
	DD	0cH
	DD	FLAT:??0exception@std@@QAE@ABV01@@Z
xdata$x	ENDS
;	COMDAT __CT??_R0?AVbad_alloc@std@@@8??0bad_alloc@std@@QAE@ABV01@@Z12
xdata$x	SEGMENT
__CT??_R0?AVbad_alloc@std@@@8??0bad_alloc@std@@QAE@ABV01@@Z12 DD 00H
	DD	FLAT:??_R0?AVbad_alloc@std@@@8
	DD	00H
	DD	0ffffffffH
	ORG $+4
	DD	0cH
	DD	FLAT:??0bad_alloc@std@@QAE@ABV01@@Z
xdata$x	ENDS
;	COMDAT __CTA2?AVbad_alloc@std@@
xdata$x	SEGMENT
__CTA2?AVbad_alloc@std@@ DD 02H
	DD	FLAT:__CT??_R0?AVbad_alloc@std@@@8??0bad_alloc@std@@QAE@ABV01@@Z12
	DD	FLAT:__CT??_R0?AVexception@std@@@8??0exception@std@@QAE@ABV01@@Z12
xdata$x	ENDS
;	COMDAT __TI2?AVbad_alloc@std@@
xdata$x	SEGMENT
__TI2?AVbad_alloc@std@@ DD 00H
	DD	FLAT:??1bad_alloc@std@@UAE@XZ
	DD	00H
	DD	FLAT:__CTA2?AVbad_alloc@std@@
; Function compile flags: /Ogtp
; File d:\program files (x86)\microsoft visual studio 10.0\vc\include\xmemory
xdata$x	ENDS
;	COMDAT ??$_Allocate@UXMASMONSTER_EVENT_TIME@@@std@@YAPAUXMASMONSTER_EVENT_TIME@@IPAU1@@Z
_TEXT	SEGMENT
$T217663 = -12						; size = 12
$T217668 = 8						; size = 4
__Count$ = 8						; size = 4
___formal$ = 12						; size = 4
??$_Allocate@UXMASMONSTER_EVENT_TIME@@@std@@YAPAUXMASMONSTER_EVENT_TIME@@IPAU1@@Z PROC ; std::_Allocate<XMASMONSTER_EVENT_TIME>, COMDAT

; 30   : 	{	// allocate storage for _Count elements of type _Ty

  00000	55		 push	 ebp
  00001	8b ec		 mov	 ebp, esp

; 31   : 	void *_Ptr = 0;
; 32   : 
; 33   : 	if (_Count <= 0)

  00003	8b 4d 08	 mov	 ecx, DWORD PTR __Count$[ebp]
  00006	83 ec 0c	 sub	 esp, 12			; 0000000cH
  00009	33 c0		 xor	 eax, eax
  0000b	85 c9		 test	 ecx, ecx

; 34   : 		_Count = 0;
; 35   : 	else if (((_SIZT)(-1) / sizeof (_Ty) < _Count)

  0000d	74 44		 je	 SHORT $LN5@Allocate

; 36   : 		|| (_Ptr = ::operator new(_Count * sizeof (_Ty))) == 0)

  0000f	81 f9 ff ff ff
	1f		 cmp	 ecx, 536870911		; 1fffffffH
  00015	77 14		 ja	 SHORT $LN1@Allocate
  00017	8d 04 cd 00 00
	00 00		 lea	 eax, DWORD PTR [ecx*8]
  0001e	50		 push	 eax
  0001f	e8 00 00 00 00	 call	 ??2@YAPAXI@Z		; operator new
  00024	83 c4 04	 add	 esp, 4
  00027	85 c0		 test	 eax, eax

; 38   : 
; 39   : 	return ((_Ty _FARQ *)_Ptr);

  00029	75 28		 jne	 SHORT $LN5@Allocate
$LN1@Allocate:

; 37   : 		_THROW_NCEE(bad_alloc, 0);

  0002b	8d 4d 08	 lea	 ecx, DWORD PTR $T217668[ebp]
  0002e	51		 push	 ecx
  0002f	8d 4d f4	 lea	 ecx, DWORD PTR $T217663[ebp]
  00032	c7 45 08 00 00
	00 00		 mov	 DWORD PTR $T217668[ebp], 0
  00039	e8 00 00 00 00	 call	 ??0exception@std@@QAE@ABQBD@Z ; std::exception::exception
  0003e	68 00 00 00 00	 push	 OFFSET __TI2?AVbad_alloc@std@@
  00043	8d 55 f4	 lea	 edx, DWORD PTR $T217663[ebp]
  00046	52		 push	 edx
  00047	c7 45 f4 00 00
	00 00		 mov	 DWORD PTR $T217663[ebp], OFFSET ??_7bad_alloc@std@@6B@
  0004e	e8 00 00 00 00	 call	 __CxxThrowException@8
$LN10@Allocate:
$LN5@Allocate:

; 40   : 	}

  00053	8b e5		 mov	 esp, ebp
  00055	5d		 pop	 ebp
  00056	c3		 ret	 0
$LN9@Allocate:
??$_Allocate@UXMASMONSTER_EVENT_TIME@@@std@@YAPAUXMASMONSTER_EVENT_TIME@@IPAU1@@Z ENDP ; std::_Allocate<XMASMONSTER_EVENT_TIME>
; Function compile flags: /Ogtp
_TEXT	ENDS
;	COMDAT ??0bad_alloc@std@@QAE@ABV01@@Z
_TEXT	SEGMENT
___that$ = 8						; size = 4
??0bad_alloc@std@@QAE@ABV01@@Z PROC			; std::bad_alloc::bad_alloc, COMDAT
; _this$ = ecx
  00000	55		 push	 ebp
  00001	8b ec		 mov	 ebp, esp
  00003	8b 45 08	 mov	 eax, DWORD PTR ___that$[ebp]
  00006	56		 push	 esi
  00007	50		 push	 eax
  00008	8b f1		 mov	 esi, ecx
  0000a	e8 00 00 00 00	 call	 ??0exception@std@@QAE@ABV01@@Z ; std::exception::exception
  0000f	c7 06 00 00 00
	00		 mov	 DWORD PTR [esi], OFFSET ??_7bad_alloc@std@@6B@
  00015	8b c6		 mov	 eax, esi
  00017	5e		 pop	 esi
  00018	5d		 pop	 ebp
  00019	c2 04 00	 ret	 4
??0bad_alloc@std@@QAE@ABV01@@Z ENDP			; std::bad_alloc::bad_alloc
_TEXT	ENDS
PUBLIC	??$_Allocate@UXMASMONSTER_DATA@@@std@@YAPAUXMASMONSTER_DATA@@IPAU1@@Z ; std::_Allocate<XMASMONSTER_DATA>
; Function compile flags: /Ogtp
;	COMDAT ??$_Allocate@UXMASMONSTER_DATA@@@std@@YAPAUXMASMONSTER_DATA@@IPAU1@@Z
_TEXT	SEGMENT
$T217676 = -12						; size = 12
$T217680 = 8						; size = 4
__Count$ = 8						; size = 4
___formal$ = 12						; size = 4
??$_Allocate@UXMASMONSTER_DATA@@@std@@YAPAUXMASMONSTER_DATA@@IPAU1@@Z PROC ; std::_Allocate<XMASMONSTER_DATA>, COMDAT

; 30   : 	{	// allocate storage for _Count elements of type _Ty

  00000	55		 push	 ebp
  00001	8b ec		 mov	 ebp, esp

; 31   : 	void *_Ptr = 0;
; 32   : 
; 33   : 	if (_Count <= 0)

  00003	8b 4d 08	 mov	 ecx, DWORD PTR __Count$[ebp]
  00006	83 ec 0c	 sub	 esp, 12			; 0000000cH
  00009	33 c0		 xor	 eax, eax
  0000b	85 c9		 test	 ecx, ecx

; 34   : 		_Count = 0;
; 35   : 	else if (((_SIZT)(-1) / sizeof (_Ty) < _Count)

  0000d	74 44		 je	 SHORT $LN5@Allocate@2

; 36   : 		|| (_Ptr = ::operator new(_Count * sizeof (_Ty))) == 0)

  0000f	81 f9 55 55 55
	15		 cmp	 ecx, 357913941		; 15555555H
  00015	77 14		 ja	 SHORT $LN1@Allocate@2
  00017	8d 04 49	 lea	 eax, DWORD PTR [ecx+ecx*2]
  0001a	03 c0		 add	 eax, eax
  0001c	03 c0		 add	 eax, eax
  0001e	50		 push	 eax
  0001f	e8 00 00 00 00	 call	 ??2@YAPAXI@Z		; operator new
  00024	83 c4 04	 add	 esp, 4
  00027	85 c0		 test	 eax, eax

; 38   : 
; 39   : 	return ((_Ty _FARQ *)_Ptr);

  00029	75 28		 jne	 SHORT $LN5@Allocate@2
$LN1@Allocate@2:

; 37   : 		_THROW_NCEE(bad_alloc, 0);

  0002b	8d 4d 08	 lea	 ecx, DWORD PTR $T217680[ebp]
  0002e	51		 push	 ecx
  0002f	8d 4d f4	 lea	 ecx, DWORD PTR $T217676[ebp]
  00032	c7 45 08 00 00
	00 00		 mov	 DWORD PTR $T217680[ebp], 0
  00039	e8 00 00 00 00	 call	 ??0exception@std@@QAE@ABQBD@Z ; std::exception::exception
  0003e	68 00 00 00 00	 push	 OFFSET __TI2?AVbad_alloc@std@@
  00043	8d 55 f4	 lea	 edx, DWORD PTR $T217676[ebp]
  00046	52		 push	 edx
  00047	c7 45 f4 00 00
	00 00		 mov	 DWORD PTR $T217676[ebp], OFFSET ??_7bad_alloc@std@@6B@
  0004e	e8 00 00 00 00	 call	 __CxxThrowException@8
$LN10@Allocate@2:
$LN5@Allocate@2:

; 40   : 	}

  00053	8b e5		 mov	 esp, ebp
  00055	5d		 pop	 ebp
  00056	c3		 ret	 0
$LN9@Allocate@2:
??$_Allocate@UXMASMONSTER_DATA@@@std@@YAPAUXMASMONSTER_DATA@@IPAU1@@Z ENDP ; std::_Allocate<XMASMONSTER_DATA>
_TEXT	ENDS
PUBLIC	??$_Allocate@PAVCXMasMonsterHerd@@@std@@YAPAPAVCXMasMonsterHerd@@IPAPAV1@@Z ; std::_Allocate<CXMasMonsterHerd *>
; Function compile flags: /Ogtp
;	COMDAT ??$_Allocate@PAVCXMasMonsterHerd@@@std@@YAPAPAVCXMasMonsterHerd@@IPAPAV1@@Z
_TEXT	SEGMENT
$T217685 = -12						; size = 12
$T217689 = 8						; size = 4
__Count$ = 8						; size = 4
___formal$ = 12						; size = 4
??$_Allocate@PAVCXMasMonsterHerd@@@std@@YAPAPAVCXMasMonsterHerd@@IPAPAV1@@Z PROC ; std::_Allocate<CXMasMonsterHerd *>, COMDAT

; 30   : 	{	// allocate storage for _Count elements of type _Ty

  00000	55		 push	 ebp
  00001	8b ec		 mov	 ebp, esp

; 31   : 	void *_Ptr = 0;
; 32   : 
; 33   : 	if (_Count <= 0)

  00003	8b 4d 08	 mov	 ecx, DWORD PTR __Count$[ebp]
  00006	83 ec 0c	 sub	 esp, 12			; 0000000cH
  00009	33 c0		 xor	 eax, eax
  0000b	85 c9		 test	 ecx, ecx

; 34   : 		_Count = 0;
; 35   : 	else if (((_SIZT)(-1) / sizeof (_Ty) < _Count)

  0000d	74 44		 je	 SHORT $LN5@Allocate@3

; 36   : 		|| (_Ptr = ::operator new(_Count * sizeof (_Ty))) == 0)

  0000f	81 f9 ff ff ff
	3f		 cmp	 ecx, 1073741823		; 3fffffffH
  00015	77 14		 ja	 SHORT $LN1@Allocate@3
  00017	8d 04 8d 00 00
	00 00		 lea	 eax, DWORD PTR [ecx*4]
  0001e	50		 push	 eax
  0001f	e8 00 00 00 00	 call	 ??2@YAPAXI@Z		; operator new
  00024	83 c4 04	 add	 esp, 4
  00027	85 c0		 test	 eax, eax

; 38   : 
; 39   : 	return ((_Ty _FARQ *)_Ptr);

  00029	75 28		 jne	 SHORT $LN5@Allocate@3
$LN1@Allocate@3:

; 37   : 		_THROW_NCEE(bad_alloc, 0);

  0002b	8d 4d 08	 lea	 ecx, DWORD PTR $T217689[ebp]
  0002e	51		 push	 ecx
  0002f	8d 4d f4	 lea	 ecx, DWORD PTR $T217685[ebp]
  00032	c7 45 08 00 00
	00 00		 mov	 DWORD PTR $T217689[ebp], 0
  00039	e8 00 00 00 00	 call	 ??0exception@std@@QAE@ABQBD@Z ; std::exception::exception
  0003e	68 00 00 00 00	 push	 OFFSET __TI2?AVbad_alloc@std@@
  00043	8d 55 f4	 lea	 edx, DWORD PTR $T217685[ebp]
  00046	52		 push	 edx
  00047	c7 45 f4 00 00
	00 00		 mov	 DWORD PTR $T217685[ebp], OFFSET ??_7bad_alloc@std@@6B@
  0004e	e8 00 00 00 00	 call	 __CxxThrowException@8
$LN10@Allocate@3:
$LN5@Allocate@3:

; 40   : 	}

  00053	8b e5		 mov	 esp, ebp
  00055	5d		 pop	 ebp
  00056	c3		 ret	 0
$LN9@Allocate@3:
??$_Allocate@PAVCXMasMonsterHerd@@@std@@YAPAPAVCXMasMonsterHerd@@IPAPAV1@@Z ENDP ; std::_Allocate<CXMasMonsterHerd *>
_TEXT	ENDS
PUBLIC	??$_Allocate@UXMASMONSTER_MAP_INFO@@@std@@YAPAUXMASMONSTER_MAP_INFO@@IPAU1@@Z ; std::_Allocate<XMASMONSTER_MAP_INFO>
; Function compile flags: /Ogtp
;	COMDAT ??$_Allocate@UXMASMONSTER_MAP_INFO@@@std@@YAPAUXMASMONSTER_MAP_INFO@@IPAU1@@Z
_TEXT	SEGMENT
$T217694 = -12						; size = 12
$T217698 = 8						; size = 4
__Count$ = 8						; size = 4
___formal$ = 12						; size = 4
??$_Allocate@UXMASMONSTER_MAP_INFO@@@std@@YAPAUXMASMONSTER_MAP_INFO@@IPAU1@@Z PROC ; std::_Allocate<XMASMONSTER_MAP_INFO>, COMDAT

; 30   : 	{	// allocate storage for _Count elements of type _Ty

  00000	55		 push	 ebp
  00001	8b ec		 mov	 ebp, esp

; 31   : 	void *_Ptr = 0;
; 32   : 
; 33   : 	if (_Count <= 0)

  00003	8b 4d 08	 mov	 ecx, DWORD PTR __Count$[ebp]
  00006	83 ec 0c	 sub	 esp, 12			; 0000000cH
  00009	33 c0		 xor	 eax, eax
  0000b	85 c9		 test	 ecx, ecx

; 34   : 		_Count = 0;
; 35   : 	else if (((_SIZT)(-1) / sizeof (_Ty) < _Count)

  0000d	74 44		 je	 SHORT $LN5@Allocate@4

; 36   : 		|| (_Ptr = ::operator new(_Count * sizeof (_Ty))) == 0)

  0000f	81 f9 cc cc cc
	0c		 cmp	 ecx, 214748364		; 0cccccccH
  00015	77 14		 ja	 SHORT $LN1@Allocate@4
  00017	8d 04 89	 lea	 eax, DWORD PTR [ecx+ecx*4]
  0001a	03 c0		 add	 eax, eax
  0001c	03 c0		 add	 eax, eax
  0001e	50		 push	 eax
  0001f	e8 00 00 00 00	 call	 ??2@YAPAXI@Z		; operator new
  00024	83 c4 04	 add	 esp, 4
  00027	85 c0		 test	 eax, eax

; 38   : 
; 39   : 	return ((_Ty _FARQ *)_Ptr);

  00029	75 28		 jne	 SHORT $LN5@Allocate@4
$LN1@Allocate@4:

; 37   : 		_THROW_NCEE(bad_alloc, 0);

  0002b	8d 4d 08	 lea	 ecx, DWORD PTR $T217698[ebp]
  0002e	51		 push	 ecx
  0002f	8d 4d f4	 lea	 ecx, DWORD PTR $T217694[ebp]
  00032	c7 45 08 00 00
	00 00		 mov	 DWORD PTR $T217698[ebp], 0
  00039	e8 00 00 00 00	 call	 ??0exception@std@@QAE@ABQBD@Z ; std::exception::exception
  0003e	68 00 00 00 00	 push	 OFFSET __TI2?AVbad_alloc@std@@
  00043	8d 55 f4	 lea	 edx, DWORD PTR $T217694[ebp]
  00046	52		 push	 edx
  00047	c7 45 f4 00 00
	00 00		 mov	 DWORD PTR $T217694[ebp], OFFSET ??_7bad_alloc@std@@6B@
  0004e	e8 00 00 00 00	 call	 __CxxThrowException@8
$LN10@Allocate@4:
$LN5@Allocate@4:

; 40   : 	}

  00053	8b e5		 mov	 esp, ebp
  00055	5d		 pop	 ebp
  00056	c3		 ret	 0
$LN9@Allocate@4:
??$_Allocate@UXMASMONSTER_MAP_INFO@@@std@@YAPAUXMASMONSTER_MAP_INFO@@IPAU1@@Z ENDP ; std::_Allocate<XMASMONSTER_MAP_INFO>
_TEXT	ENDS
PUBLIC	?construct@?$allocator@UXMASMONSTER_EVENT_TIME@@@std@@QAEXPAUXMASMONSTER_EVENT_TIME@@ABU3@@Z ; std::allocator<XMASMONSTER_EVENT_TIME>::construct
; Function compile flags: /Ogtp
;	COMDAT ?construct@?$allocator@UXMASMONSTER_EVENT_TIME@@@std@@QAEXPAUXMASMONSTER_EVENT_TIME@@ABU3@@Z
_TEXT	SEGMENT
__Ptr$ = 8						; size = 4
__Val$ = 12						; size = 4
?construct@?$allocator@UXMASMONSTER_EVENT_TIME@@@std@@QAEXPAUXMASMONSTER_EVENT_TIME@@ABU3@@Z PROC ; std::allocator<XMASMONSTER_EVENT_TIME>::construct, COMDAT
; _this$ = ecx

; 196  : 		{	// construct object at _Ptr with value _Val

  00000	55		 push	 ebp
  00001	8b ec		 mov	 ebp, esp

; 197  : 		_Construct(_Ptr, _Val);

  00003	8b 45 08	 mov	 eax, DWORD PTR __Ptr$[ebp]
  00006	85 c0		 test	 eax, eax
  00008	74 0d		 je	 SHORT $LN5@construct@5
  0000a	8b 4d 0c	 mov	 ecx, DWORD PTR __Val$[ebp]
  0000d	8b 11		 mov	 edx, DWORD PTR [ecx]
  0000f	89 10		 mov	 DWORD PTR [eax], edx
  00011	8b 49 04	 mov	 ecx, DWORD PTR [ecx+4]
  00014	89 48 04	 mov	 DWORD PTR [eax+4], ecx
$LN5@construct@5:

; 198  : 		}

  00017	5d		 pop	 ebp
  00018	c2 08 00	 ret	 8
?construct@?$allocator@UXMASMONSTER_EVENT_TIME@@@std@@QAEXPAUXMASMONSTER_EVENT_TIME@@ABU3@@Z ENDP ; std::allocator<XMASMONSTER_EVENT_TIME>::construct
_TEXT	ENDS
PUBLIC	?construct@?$allocator@UXMASMONSTER_DATA@@@std@@QAEXPAUXMASMONSTER_DATA@@ABU3@@Z ; std::allocator<XMASMONSTER_DATA>::construct
; Function compile flags: /Ogtp
;	COMDAT ?construct@?$allocator@UXMASMONSTER_DATA@@@std@@QAEXPAUXMASMONSTER_DATA@@ABU3@@Z
_TEXT	SEGMENT
__Ptr$ = 8						; size = 4
__Val$ = 12						; size = 4
?construct@?$allocator@UXMASMONSTER_DATA@@@std@@QAEXPAUXMASMONSTER_DATA@@ABU3@@Z PROC ; std::allocator<XMASMONSTER_DATA>::construct, COMDAT
; _this$ = ecx

; 196  : 		{	// construct object at _Ptr with value _Val

  00000	55		 push	 ebp
  00001	8b ec		 mov	 ebp, esp

; 197  : 		_Construct(_Ptr, _Val);

  00003	8b 45 08	 mov	 eax, DWORD PTR __Ptr$[ebp]
  00006	85 c0		 test	 eax, eax
  00008	74 13		 je	 SHORT $LN5@construct@6
  0000a	8b 4d 0c	 mov	 ecx, DWORD PTR __Val$[ebp]
  0000d	8b 11		 mov	 edx, DWORD PTR [ecx]
  0000f	89 10		 mov	 DWORD PTR [eax], edx
  00011	8b 51 04	 mov	 edx, DWORD PTR [ecx+4]
  00014	89 50 04	 mov	 DWORD PTR [eax+4], edx
  00017	8b 49 08	 mov	 ecx, DWORD PTR [ecx+8]
  0001a	89 48 08	 mov	 DWORD PTR [eax+8], ecx
$LN5@construct@6:

; 198  : 		}

  0001d	5d		 pop	 ebp
  0001e	c2 08 00	 ret	 8
?construct@?$allocator@UXMASMONSTER_DATA@@@std@@QAEXPAUXMASMONSTER_DATA@@ABU3@@Z ENDP ; std::allocator<XMASMONSTER_DATA>::construct
_TEXT	ENDS
PUBLIC	?construct@?$allocator@UXMASMONSTER_MAP_INFO@@@std@@QAEXPAUXMASMONSTER_MAP_INFO@@ABU3@@Z ; std::allocator<XMASMONSTER_MAP_INFO>::construct
; Function compile flags: /Ogtp
;	COMDAT ?construct@?$allocator@UXMASMONSTER_MAP_INFO@@@std@@QAEXPAUXMASMONSTER_MAP_INFO@@ABU3@@Z
_TEXT	SEGMENT
__Ptr$ = 8						; size = 4
__Val$ = 12						; size = 4
?construct@?$allocator@UXMASMONSTER_MAP_INFO@@@std@@QAEXPAUXMASMONSTER_MAP_INFO@@ABU3@@Z PROC ; std::allocator<XMASMONSTER_MAP_INFO>::construct, COMDAT
; _this$ = ecx

; 196  : 		{	// construct object at _Ptr with value _Val

  00000	55		 push	 ebp
  00001	8b ec		 mov	 ebp, esp

; 197  : 		_Construct(_Ptr, _Val);

  00003	8b 45 08	 mov	 eax, DWORD PTR __Ptr$[ebp]
  00006	85 c0		 test	 eax, eax
  00008	74 1f		 je	 SHORT $LN5@construct@7
  0000a	8b 4d 0c	 mov	 ecx, DWORD PTR __Val$[ebp]
  0000d	8b 11		 mov	 edx, DWORD PTR [ecx]
  0000f	89 10		 mov	 DWORD PTR [eax], edx
  00011	8b 51 04	 mov	 edx, DWORD PTR [ecx+4]
  00014	89 50 04	 mov	 DWORD PTR [eax+4], edx
  00017	8b 51 08	 mov	 edx, DWORD PTR [ecx+8]
  0001a	89 50 08	 mov	 DWORD PTR [eax+8], edx
  0001d	8b 51 0c	 mov	 edx, DWORD PTR [ecx+12]
  00020	89 50 0c	 mov	 DWORD PTR [eax+12], edx
  00023	8b 49 10	 mov	 ecx, DWORD PTR [ecx+16]
  00026	89 48 10	 mov	 DWORD PTR [eax+16], ecx
$LN5@construct@7:

; 198  : 		}

  00029	5d		 pop	 ebp
  0002a	c2 08 00	 ret	 8
?construct@?$allocator@UXMASMONSTER_MAP_INFO@@@std@@QAEXPAUXMASMONSTER_MAP_INFO@@ABU3@@Z ENDP ; std::allocator<XMASMONSTER_MAP_INFO>::construct
_TEXT	ENDS
PUBLIC	??$_Uninitialized_move@PAPAVCXMasMonsterHerd@@PAPAV1@V?$allocator@PAVCXMasMonsterHerd@@@std@@@std@@YAPAPAVCXMasMonsterHerd@@PAPAV1@00AAV?$allocator@PAVCXMasMonsterHerd@@@0@@Z ; std::_Uninitialized_move<CXMasMonsterHerd * *,CXMasMonsterHerd * *,std::allocator<CXMasMonsterHerd *> >
; Function compile flags: /Ogtp
; File d:\program files (x86)\microsoft visual studio 10.0\vc\include\memory
;	COMDAT ??$_Uninitialized_move@PAPAVCXMasMonsterHerd@@PAPAV1@V?$allocator@PAVCXMasMonsterHerd@@@std@@@std@@YAPAPAVCXMasMonsterHerd@@PAPAV1@00AAV?$allocator@PAVCXMasMonsterHerd@@@0@@Z
_TEXT	SEGMENT
__First$ = 8						; size = 4
__Last$ = 12						; size = 4
__Dest$ = 16						; size = 4
__Al$ = 20						; size = 4
??$_Uninitialized_move@PAPAVCXMasMonsterHerd@@PAPAV1@V?$allocator@PAVCXMasMonsterHerd@@@std@@@std@@YAPAPAVCXMasMonsterHerd@@PAPAV1@00AAV?$allocator@PAVCXMasMonsterHerd@@@0@@Z PROC ; std::_Uninitialized_move<CXMasMonsterHerd * *,CXMasMonsterHerd * *,std::allocator<CXMasMonsterHerd *> >, COMDAT

; 469  : 	{	// move [_First, _Last) to raw _Dest, using _Al

  00000	55		 push	 ebp
  00001	8b ec		 mov	 ebp, esp

; 470  : 	return (_Uninit_move(_First, _Last, _Dest, _Al,
; 471  : 		_Val_type(_First), _Ptr_cat(_First, _Dest)));

  00003	8b 4d 08	 mov	 ecx, DWORD PTR __First$[ebp]
  00006	8b 45 0c	 mov	 eax, DWORD PTR __Last$[ebp]
  00009	2b c1		 sub	 eax, ecx
  0000b	56		 push	 esi
  0000c	c1 f8 02	 sar	 eax, 2
  0000f	8d 34 85 00 00
	00 00		 lea	 esi, DWORD PTR [eax*4]
  00016	8b 45 10	 mov	 eax, DWORD PTR __Dest$[ebp]
  00019	56		 push	 esi
  0001a	51		 push	 ecx
  0001b	50		 push	 eax
  0001c	e8 00 00 00 00	 call	 _memmove
  00021	83 c4 0c	 add	 esp, 12			; 0000000cH
  00024	03 c6		 add	 eax, esi
  00026	5e		 pop	 esi

; 472  : 	}

  00027	5d		 pop	 ebp
  00028	c3		 ret	 0
??$_Uninitialized_move@PAPAVCXMasMonsterHerd@@PAPAV1@V?$allocator@PAVCXMasMonsterHerd@@@std@@@std@@YAPAPAVCXMasMonsterHerd@@PAPAV1@00AAV?$allocator@PAVCXMasMonsterHerd@@@0@@Z ENDP ; std::_Uninitialized_move<CXMasMonsterHerd * *,CXMasMonsterHerd * *,std::allocator<CXMasMonsterHerd *> >
_TEXT	ENDS
PUBLIC	?destroy@?$allocator@UXMASMONSTER_EVENT_TIME@@@std@@QAEXPAUXMASMONSTER_EVENT_TIME@@@Z ; std::allocator<XMASMONSTER_EVENT_TIME>::destroy
; Function compile flags: /Ogtp
; File d:\program files (x86)\microsoft visual studio 10.0\vc\include\xmemory
;	COMDAT ?destroy@?$allocator@UXMASMONSTER_EVENT_TIME@@@std@@QAEXPAUXMASMONSTER_EVENT_TIME@@@Z
_TEXT	SEGMENT
__Ptr$ = 8						; size = 4
?destroy@?$allocator@UXMASMONSTER_EVENT_TIME@@@std@@QAEXPAUXMASMONSTER_EVENT_TIME@@@Z PROC ; std::allocator<XMASMONSTER_EVENT_TIME>::destroy, COMDAT
; _this$ = ecx

; 213  : 		_Destroy(_Ptr);
; 214  : 		}

  00000	c2 04 00	 ret	 4
?destroy@?$allocator@UXMASMONSTER_EVENT_TIME@@@std@@QAEXPAUXMASMONSTER_EVENT_TIME@@@Z ENDP ; std::allocator<XMASMONSTER_EVENT_TIME>::destroy
_TEXT	ENDS
PUBLIC	?destroy@?$allocator@UXMASMONSTER_DATA@@@std@@QAEXPAUXMASMONSTER_DATA@@@Z ; std::allocator<XMASMONSTER_DATA>::destroy
; Function compile flags: /Ogtp
;	COMDAT ?destroy@?$allocator@UXMASMONSTER_DATA@@@std@@QAEXPAUXMASMONSTER_DATA@@@Z
_TEXT	SEGMENT
__Ptr$ = 8						; size = 4
?destroy@?$allocator@UXMASMONSTER_DATA@@@std@@QAEXPAUXMASMONSTER_DATA@@@Z PROC ; std::allocator<XMASMONSTER_DATA>::destroy, COMDAT
; _this$ = ecx

; 213  : 		_Destroy(_Ptr);
; 214  : 		}

  00000	c2 04 00	 ret	 4
?destroy@?$allocator@UXMASMONSTER_DATA@@@std@@QAEXPAUXMASMONSTER_DATA@@@Z ENDP ; std::allocator<XMASMONSTER_DATA>::destroy
_TEXT	ENDS
PUBLIC	?destroy@?$allocator@UXMASMONSTER_MAP_INFO@@@std@@QAEXPAUXMASMONSTER_MAP_INFO@@@Z ; std::allocator<XMASMONSTER_MAP_INFO>::destroy
; Function compile flags: /Ogtp
;	COMDAT ?destroy@?$allocator@UXMASMONSTER_MAP_INFO@@@std@@QAEXPAUXMASMONSTER_MAP_INFO@@@Z
_TEXT	SEGMENT
__Ptr$ = 8						; size = 4
?destroy@?$allocator@UXMASMONSTER_MAP_INFO@@@std@@QAEXPAUXMASMONSTER_MAP_INFO@@@Z PROC ; std::allocator<XMASMONSTER_MAP_INFO>::destroy, COMDAT
; _this$ = ecx

; 213  : 		_Destroy(_Ptr);
; 214  : 		}

  00000	c2 04 00	 ret	 4
?destroy@?$allocator@UXMASMONSTER_MAP_INFO@@@std@@QAEXPAUXMASMONSTER_MAP_INFO@@@Z ENDP ; std::allocator<XMASMONSTER_MAP_INFO>::destroy
_TEXT	ENDS
PUBLIC	?construct@?$allocator@UXMASMONSTER_EVENT_TIME@@@std@@QAEXPAUXMASMONSTER_EVENT_TIME@@$$QAU3@@Z ; std::allocator<XMASMONSTER_EVENT_TIME>::construct
; Function compile flags: /Ogtp
;	COMDAT ?construct@?$allocator@UXMASMONSTER_EVENT_TIME@@@std@@QAEXPAUXMASMONSTER_EVENT_TIME@@$$QAU3@@Z
_TEXT	SEGMENT
__Ptr$ = 8						; size = 4
__Val$ = 12						; size = 4
?construct@?$allocator@UXMASMONSTER_EVENT_TIME@@@std@@QAEXPAUXMASMONSTER_EVENT_TIME@@$$QAU3@@Z PROC ; std::allocator<XMASMONSTER_EVENT_TIME>::construct, COMDAT
; _this$ = ecx

; 201  : 		{	// construct object at _Ptr with value _Val

  00000	55		 push	 ebp
  00001	8b ec		 mov	 ebp, esp

; 202  : 		::new ((void _FARQ *)_Ptr) _Ty(_STD forward<_Ty>(_Val));

  00003	8b 45 08	 mov	 eax, DWORD PTR __Ptr$[ebp]
  00006	85 c0		 test	 eax, eax
  00008	74 0d		 je	 SHORT $LN3@construct@8
  0000a	8b 4d 0c	 mov	 ecx, DWORD PTR __Val$[ebp]
  0000d	8b 11		 mov	 edx, DWORD PTR [ecx]
  0000f	89 10		 mov	 DWORD PTR [eax], edx
  00011	8b 49 04	 mov	 ecx, DWORD PTR [ecx+4]
  00014	89 48 04	 mov	 DWORD PTR [eax+4], ecx
$LN3@construct@8:

; 203  : 		}

  00017	5d		 pop	 ebp
  00018	c2 08 00	 ret	 8
?construct@?$allocator@UXMASMONSTER_EVENT_TIME@@@std@@QAEXPAUXMASMONSTER_EVENT_TIME@@$$QAU3@@Z ENDP ; std::allocator<XMASMONSTER_EVENT_TIME>::construct
_TEXT	ENDS
PUBLIC	?construct@?$allocator@UXMASMONSTER_DATA@@@std@@QAEXPAUXMASMONSTER_DATA@@$$QAU3@@Z ; std::allocator<XMASMONSTER_DATA>::construct
; Function compile flags: /Ogtp
;	COMDAT ?construct@?$allocator@UXMASMONSTER_DATA@@@std@@QAEXPAUXMASMONSTER_DATA@@$$QAU3@@Z
_TEXT	SEGMENT
__Ptr$ = 8						; size = 4
__Val$ = 12						; size = 4
?construct@?$allocator@UXMASMONSTER_DATA@@@std@@QAEXPAUXMASMONSTER_DATA@@$$QAU3@@Z PROC ; std::allocator<XMASMONSTER_DATA>::construct, COMDAT
; _this$ = ecx

; 201  : 		{	// construct object at _Ptr with value _Val

  00000	55		 push	 ebp
  00001	8b ec		 mov	 ebp, esp

; 202  : 		::new ((void _FARQ *)_Ptr) _Ty(_STD forward<_Ty>(_Val));

  00003	8b 45 08	 mov	 eax, DWORD PTR __Ptr$[ebp]
  00006	85 c0		 test	 eax, eax
  00008	74 13		 je	 SHORT $LN3@construct@9
  0000a	8b 4d 0c	 mov	 ecx, DWORD PTR __Val$[ebp]
  0000d	8b 11		 mov	 edx, DWORD PTR [ecx]
  0000f	89 10		 mov	 DWORD PTR [eax], edx
  00011	8b 51 04	 mov	 edx, DWORD PTR [ecx+4]
  00014	89 50 04	 mov	 DWORD PTR [eax+4], edx
  00017	8b 49 08	 mov	 ecx, DWORD PTR [ecx+8]
  0001a	89 48 08	 mov	 DWORD PTR [eax+8], ecx
$LN3@construct@9:

; 203  : 		}

  0001d	5d		 pop	 ebp
  0001e	c2 08 00	 ret	 8
?construct@?$allocator@UXMASMONSTER_DATA@@@std@@QAEXPAUXMASMONSTER_DATA@@$$QAU3@@Z ENDP ; std::allocator<XMASMONSTER_DATA>::construct
_TEXT	ENDS
PUBLIC	?construct@?$allocator@UXMASMONSTER_MAP_INFO@@@std@@QAEXPAUXMASMONSTER_MAP_INFO@@$$QAU3@@Z ; std::allocator<XMASMONSTER_MAP_INFO>::construct
; Function compile flags: /Ogtp
;	COMDAT ?construct@?$allocator@UXMASMONSTER_MAP_INFO@@@std@@QAEXPAUXMASMONSTER_MAP_INFO@@$$QAU3@@Z
_TEXT	SEGMENT
__Ptr$ = 8						; size = 4
__Val$ = 12						; size = 4
?construct@?$allocator@UXMASMONSTER_MAP_INFO@@@std@@QAEXPAUXMASMONSTER_MAP_INFO@@$$QAU3@@Z PROC ; std::allocator<XMASMONSTER_MAP_INFO>::construct, COMDAT
; _this$ = ecx

; 201  : 		{	// construct object at _Ptr with value _Val

  00000	55		 push	 ebp
  00001	8b ec		 mov	 ebp, esp

; 202  : 		::new ((void _FARQ *)_Ptr) _Ty(_STD forward<_Ty>(_Val));

  00003	8b 45 08	 mov	 eax, DWORD PTR __Ptr$[ebp]
  00006	85 c0		 test	 eax, eax
  00008	74 1f		 je	 SHORT $LN3@construct@10
  0000a	8b 4d 0c	 mov	 ecx, DWORD PTR __Val$[ebp]
  0000d	8b 11		 mov	 edx, DWORD PTR [ecx]
  0000f	89 10		 mov	 DWORD PTR [eax], edx
  00011	8b 51 04	 mov	 edx, DWORD PTR [ecx+4]
  00014	89 50 04	 mov	 DWORD PTR [eax+4], edx
  00017	8b 51 08	 mov	 edx, DWORD PTR [ecx+8]
  0001a	89 50 08	 mov	 DWORD PTR [eax+8], edx
  0001d	8b 51 0c	 mov	 edx, DWORD PTR [ecx+12]
  00020	89 50 0c	 mov	 DWORD PTR [eax+12], edx
  00023	8b 49 10	 mov	 ecx, DWORD PTR [ecx+16]
  00026	89 48 10	 mov	 DWORD PTR [eax+16], ecx
$LN3@construct@10:

; 203  : 		}

  00029	5d		 pop	 ebp
  0002a	c2 08 00	 ret	 8
?construct@?$allocator@UXMASMONSTER_MAP_INFO@@@std@@QAEXPAUXMASMONSTER_MAP_INFO@@$$QAU3@@Z ENDP ; std::allocator<XMASMONSTER_MAP_INFO>::construct
_TEXT	ENDS
PUBLIC	??0?$vector@UXMASMONSTER_MAP_INFO@@V?$allocator@UXMASMONSTER_MAP_INFO@@@std@@@std@@QAE@XZ ; std::vector<XMASMONSTER_MAP_INFO,std::allocator<XMASMONSTER_MAP_INFO> >::vector<XMASMONSTER_MAP_INFO,std::allocator<XMASMONSTER_MAP_INFO> >
; Function compile flags: /Ogtp
; File d:\program files (x86)\microsoft visual studio 10.0\vc\include\vector
;	COMDAT ??0?$vector@UXMASMONSTER_MAP_INFO@@V?$allocator@UXMASMONSTER_MAP_INFO@@@std@@@std@@QAE@XZ
_TEXT	SEGMENT
??0?$vector@UXMASMONSTER_MAP_INFO@@V?$allocator@UXMASMONSTER_MAP_INFO@@@std@@@std@@QAE@XZ PROC ; std::vector<XMASMONSTER_MAP_INFO,std::allocator<XMASMONSTER_MAP_INFO> >::vector<XMASMONSTER_MAP_INFO,std::allocator<XMASMONSTER_MAP_INFO> >, COMDAT
; _this$ = ecx

; 507  : 		{	// construct empty vector

  00000	8b c1		 mov	 eax, ecx
  00002	33 c9		 xor	 ecx, ecx
  00004	89 08		 mov	 DWORD PTR [eax], ecx
  00006	89 48 04	 mov	 DWORD PTR [eax+4], ecx
  00009	89 48 08	 mov	 DWORD PTR [eax+8], ecx

; 508  : 		}

  0000c	c3		 ret	 0
??0?$vector@UXMASMONSTER_MAP_INFO@@V?$allocator@UXMASMONSTER_MAP_INFO@@@std@@@std@@QAE@XZ ENDP ; std::vector<XMASMONSTER_MAP_INFO,std::allocator<XMASMONSTER_MAP_INFO> >::vector<XMASMONSTER_MAP_INFO,std::allocator<XMASMONSTER_MAP_INFO> >
_TEXT	ENDS
PUBLIC	??9?$_Vector_const_iterator@V?$_Vector_val@PAVCXMasMonsterHerd@@V?$allocator@PAVCXMasMonsterHerd@@@std@@@std@@@std@@QBE_NABV01@@Z ; std::_Vector_const_iterator<std::_Vector_val<CXMasMonsterHerd *,std::allocator<CXMasMonsterHerd *> > >::operator!=
; Function compile flags: /Ogtp
;	COMDAT ??9?$_Vector_const_iterator@V?$_Vector_val@PAVCXMasMonsterHerd@@V?$allocator@PAVCXMasMonsterHerd@@@std@@@std@@@std@@QBE_NABV01@@Z
_TEXT	SEGMENT
__Right$ = 8						; size = 4
??9?$_Vector_const_iterator@V?$_Vector_val@PAVCXMasMonsterHerd@@V?$allocator@PAVCXMasMonsterHerd@@@std@@@std@@@std@@QBE_NABV01@@Z PROC ; std::_Vector_const_iterator<std::_Vector_val<CXMasMonsterHerd *,std::allocator<CXMasMonsterHerd *> > >::operator!=, COMDAT
; _this$ = ecx

; 207  : 		{	// test for iterator inequality

  00000	55		 push	 ebp
  00001	8b ec		 mov	 ebp, esp

; 208  : 		return (!(*this == _Right));

  00003	8b 01		 mov	 eax, DWORD PTR [ecx]
  00005	8b 55 08	 mov	 edx, DWORD PTR __Right$[ebp]
  00008	33 c9		 xor	 ecx, ecx
  0000a	3b 02		 cmp	 eax, DWORD PTR [edx]
  0000c	0f 95 c0	 setne	 al

; 209  : 		}

  0000f	5d		 pop	 ebp
  00010	c2 04 00	 ret	 4
??9?$_Vector_const_iterator@V?$_Vector_val@PAVCXMasMonsterHerd@@V?$allocator@PAVCXMasMonsterHerd@@@std@@@std@@@std@@QBE_NABV01@@Z ENDP ; std::_Vector_const_iterator<std::_Vector_val<CXMasMonsterHerd *,std::allocator<CXMasMonsterHerd *> > >::operator!=
_TEXT	ENDS
PUBLIC	??E?$_Vector_iterator@V?$_Vector_val@UXMASMONSTER_MAP_INFO@@V?$allocator@UXMASMONSTER_MAP_INFO@@@std@@@std@@@std@@QAE?AV01@H@Z ; std::_Vector_iterator<std::_Vector_val<XMASMONSTER_MAP_INFO,std::allocator<XMASMONSTER_MAP_INFO> > >::operator++
; Function compile flags: /Ogtp
;	COMDAT ??E?$_Vector_iterator@V?$_Vector_val@UXMASMONSTER_MAP_INFO@@V?$allocator@UXMASMONSTER_MAP_INFO@@@std@@@std@@@std@@QAE?AV01@H@Z
_TEXT	SEGMENT
___$ReturnUdt$ = 8					; size = 4
___formal$ = 12						; size = 4
??E?$_Vector_iterator@V?$_Vector_val@UXMASMONSTER_MAP_INFO@@V?$allocator@UXMASMONSTER_MAP_INFO@@@std@@@std@@@std@@QAE?AV01@H@Z PROC ; std::_Vector_iterator<std::_Vector_val<XMASMONSTER_MAP_INFO,std::allocator<XMASMONSTER_MAP_INFO> > >::operator++, COMDAT
; _this$ = ecx

; 337  : 		{	// postincrement

  00000	55		 push	 ebp
  00001	8b ec		 mov	 ebp, esp

; 338  : 		_Myiter _Tmp = *this;

  00003	8b 11		 mov	 edx, DWORD PTR [ecx]
  00005	8b 45 08	 mov	 eax, DWORD PTR ___$ReturnUdt$[ebp]
  00008	89 10		 mov	 DWORD PTR [eax], edx

; 339  : 		++*this;

  0000a	83 c2 14	 add	 edx, 20			; 00000014H
  0000d	89 11		 mov	 DWORD PTR [ecx], edx

; 340  : 		return (_Tmp);
; 341  : 		}

  0000f	5d		 pop	 ebp
  00010	c2 08 00	 ret	 8
??E?$_Vector_iterator@V?$_Vector_val@UXMASMONSTER_MAP_INFO@@V?$allocator@UXMASMONSTER_MAP_INFO@@@std@@@std@@@std@@QAE?AV01@H@Z ENDP ; std::_Vector_iterator<std::_Vector_val<XMASMONSTER_MAP_INFO,std::allocator<XMASMONSTER_MAP_INFO> > >::operator++
_TEXT	ENDS
PUBLIC	??9?$_Vector_const_iterator@V?$_Vector_val@UXMASMONSTER_MAP_INFO@@V?$allocator@UXMASMONSTER_MAP_INFO@@@std@@@std@@@std@@QBE_NABV01@@Z ; std::_Vector_const_iterator<std::_Vector_val<XMASMONSTER_MAP_INFO,std::allocator<XMASMONSTER_MAP_INFO> > >::operator!=
; Function compile flags: /Ogtp
;	COMDAT ??9?$_Vector_const_iterator@V?$_Vector_val@UXMASMONSTER_MAP_INFO@@V?$allocator@UXMASMONSTER_MAP_INFO@@@std@@@std@@@std@@QBE_NABV01@@Z
_TEXT	SEGMENT
__Right$ = 8						; size = 4
??9?$_Vector_const_iterator@V?$_Vector_val@UXMASMONSTER_MAP_INFO@@V?$allocator@UXMASMONSTER_MAP_INFO@@@std@@@std@@@std@@QBE_NABV01@@Z PROC ; std::_Vector_const_iterator<std::_Vector_val<XMASMONSTER_MAP_INFO,std::allocator<XMASMONSTER_MAP_INFO> > >::operator!=, COMDAT
; _this$ = ecx

; 207  : 		{	// test for iterator inequality

  00000	55		 push	 ebp
  00001	8b ec		 mov	 ebp, esp

; 208  : 		return (!(*this == _Right));

  00003	8b 01		 mov	 eax, DWORD PTR [ecx]
  00005	8b 55 08	 mov	 edx, DWORD PTR __Right$[ebp]
  00008	33 c9		 xor	 ecx, ecx
  0000a	3b 02		 cmp	 eax, DWORD PTR [edx]
  0000c	0f 95 c0	 setne	 al

; 209  : 		}

  0000f	5d		 pop	 ebp
  00010	c2 04 00	 ret	 4
??9?$_Vector_const_iterator@V?$_Vector_val@UXMASMONSTER_MAP_INFO@@V?$allocator@UXMASMONSTER_MAP_INFO@@@std@@@std@@@std@@QBE_NABV01@@Z ENDP ; std::_Vector_const_iterator<std::_Vector_val<XMASMONSTER_MAP_INFO,std::allocator<XMASMONSTER_MAP_INFO> > >::operator!=
_TEXT	ENDS
PUBLIC	??E?$_Vector_iterator@V?$_Vector_val@UXMASMONSTER_DATA@@V?$allocator@UXMASMONSTER_DATA@@@std@@@std@@@std@@QAE?AV01@H@Z ; std::_Vector_iterator<std::_Vector_val<XMASMONSTER_DATA,std::allocator<XMASMONSTER_DATA> > >::operator++
; Function compile flags: /Ogtp
;	COMDAT ??E?$_Vector_iterator@V?$_Vector_val@UXMASMONSTER_DATA@@V?$allocator@UXMASMONSTER_DATA@@@std@@@std@@@std@@QAE?AV01@H@Z
_TEXT	SEGMENT
___$ReturnUdt$ = 8					; size = 4
___formal$ = 12						; size = 4
??E?$_Vector_iterator@V?$_Vector_val@UXMASMONSTER_DATA@@V?$allocator@UXMASMONSTER_DATA@@@std@@@std@@@std@@QAE?AV01@H@Z PROC ; std::_Vector_iterator<std::_Vector_val<XMASMONSTER_DATA,std::allocator<XMASMONSTER_DATA> > >::operator++, COMDAT
; _this$ = ecx

; 337  : 		{	// postincrement

  00000	55		 push	 ebp
  00001	8b ec		 mov	 ebp, esp

; 338  : 		_Myiter _Tmp = *this;

  00003	8b 11		 mov	 edx, DWORD PTR [ecx]
  00005	8b 45 08	 mov	 eax, DWORD PTR ___$ReturnUdt$[ebp]
  00008	89 10		 mov	 DWORD PTR [eax], edx

; 339  : 		++*this;

  0000a	83 c2 0c	 add	 edx, 12			; 0000000cH
  0000d	89 11		 mov	 DWORD PTR [ecx], edx

; 340  : 		return (_Tmp);
; 341  : 		}

  0000f	5d		 pop	 ebp
  00010	c2 08 00	 ret	 8
??E?$_Vector_iterator@V?$_Vector_val@UXMASMONSTER_DATA@@V?$allocator@UXMASMONSTER_DATA@@@std@@@std@@@std@@QAE?AV01@H@Z ENDP ; std::_Vector_iterator<std::_Vector_val<XMASMONSTER_DATA,std::allocator<XMASMONSTER_DATA> > >::operator++
_TEXT	ENDS
PUBLIC	??9?$_Vector_const_iterator@V?$_Vector_val@UXMASMONSTER_DATA@@V?$allocator@UXMASMONSTER_DATA@@@std@@@std@@@std@@QBE_NABV01@@Z ; std::_Vector_const_iterator<std::_Vector_val<XMASMONSTER_DATA,std::allocator<XMASMONSTER_DATA> > >::operator!=
; Function compile flags: /Ogtp
;	COMDAT ??9?$_Vector_const_iterator@V?$_Vector_val@UXMASMONSTER_DATA@@V?$allocator@UXMASMONSTER_DATA@@@std@@@std@@@std@@QBE_NABV01@@Z
_TEXT	SEGMENT
__Right$ = 8						; size = 4
??9?$_Vector_const_iterator@V?$_Vector_val@UXMASMONSTER_DATA@@V?$allocator@UXMASMONSTER_DATA@@@std@@@std@@@std@@QBE_NABV01@@Z PROC ; std::_Vector_const_iterator<std::_Vector_val<XMASMONSTER_DATA,std::allocator<XMASMONSTER_DATA> > >::operator!=, COMDAT
; _this$ = ecx

; 207  : 		{	// test for iterator inequality

  00000	55		 push	 ebp
  00001	8b ec		 mov	 ebp, esp

; 208  : 		return (!(*this == _Right));

  00003	8b 01		 mov	 eax, DWORD PTR [ecx]
  00005	8b 55 08	 mov	 edx, DWORD PTR __Right$[ebp]
  00008	33 c9		 xor	 ecx, ecx
  0000a	3b 02		 cmp	 eax, DWORD PTR [edx]
  0000c	0f 95 c0	 setne	 al

; 209  : 		}

  0000f	5d		 pop	 ebp
  00010	c2 04 00	 ret	 4
??9?$_Vector_const_iterator@V?$_Vector_val@UXMASMONSTER_DATA@@V?$allocator@UXMASMONSTER_DATA@@@std@@@std@@@std@@QBE_NABV01@@Z ENDP ; std::_Vector_const_iterator<std::_Vector_val<XMASMONSTER_DATA,std::allocator<XMASMONSTER_DATA> > >::operator!=
_TEXT	ENDS
PUBLIC	??E?$_Vector_iterator@V?$_Vector_val@UXMASMONSTER_EVENT_TIME@@V?$allocator@UXMASMONSTER_EVENT_TIME@@@std@@@std@@@std@@QAE?AV01@H@Z ; std::_Vector_iterator<std::_Vector_val<XMASMONSTER_EVENT_TIME,std::allocator<XMASMONSTER_EVENT_TIME> > >::operator++
; Function compile flags: /Ogtp
;	COMDAT ??E?$_Vector_iterator@V?$_Vector_val@UXMASMONSTER_EVENT_TIME@@V?$allocator@UXMASMONSTER_EVENT_TIME@@@std@@@std@@@std@@QAE?AV01@H@Z
_TEXT	SEGMENT
___$ReturnUdt$ = 8					; size = 4
___formal$ = 12						; size = 4
??E?$_Vector_iterator@V?$_Vector_val@UXMASMONSTER_EVENT_TIME@@V?$allocator@UXMASMONSTER_EVENT_TIME@@@std@@@std@@@std@@QAE?AV01@H@Z PROC ; std::_Vector_iterator<std::_Vector_val<XMASMONSTER_EVENT_TIME,std::allocator<XMASMONSTER_EVENT_TIME> > >::operator++, COMDAT
; _this$ = ecx

; 337  : 		{	// postincrement

  00000	55		 push	 ebp
  00001	8b ec		 mov	 ebp, esp

; 338  : 		_Myiter _Tmp = *this;

  00003	8b 11		 mov	 edx, DWORD PTR [ecx]
  00005	8b 45 08	 mov	 eax, DWORD PTR ___$ReturnUdt$[ebp]
  00008	89 10		 mov	 DWORD PTR [eax], edx

; 339  : 		++*this;

  0000a	83 c2 08	 add	 edx, 8
  0000d	89 11		 mov	 DWORD PTR [ecx], edx

; 340  : 		return (_Tmp);
; 341  : 		}

  0000f	5d		 pop	 ebp
  00010	c2 08 00	 ret	 8
??E?$_Vector_iterator@V?$_Vector_val@UXMASMONSTER_EVENT_TIME@@V?$allocator@UXMASMONSTER_EVENT_TIME@@@std@@@std@@@std@@QAE?AV01@H@Z ENDP ; std::_Vector_iterator<std::_Vector_val<XMASMONSTER_EVENT_TIME,std::allocator<XMASMONSTER_EVENT_TIME> > >::operator++
_TEXT	ENDS
PUBLIC	??9?$_Vector_const_iterator@V?$_Vector_val@UXMASMONSTER_EVENT_TIME@@V?$allocator@UXMASMONSTER_EVENT_TIME@@@std@@@std@@@std@@QBE_NABV01@@Z ; std::_Vector_const_iterator<std::_Vector_val<XMASMONSTER_EVENT_TIME,std::allocator<XMASMONSTER_EVENT_TIME> > >::operator!=
; Function compile flags: /Ogtp
;	COMDAT ??9?$_Vector_const_iterator@V?$_Vector_val@UXMASMONSTER_EVENT_TIME@@V?$allocator@UXMASMONSTER_EVENT_TIME@@@std@@@std@@@std@@QBE_NABV01@@Z
_TEXT	SEGMENT
__Right$ = 8						; size = 4
??9?$_Vector_const_iterator@V?$_Vector_val@UXMASMONSTER_EVENT_TIME@@V?$allocator@UXMASMONSTER_EVENT_TIME@@@std@@@std@@@std@@QBE_NABV01@@Z PROC ; std::_Vector_const_iterator<std::_Vector_val<XMASMONSTER_EVENT_TIME,std::allocator<XMASMONSTER_EVENT_TIME> > >::operator!=, COMDAT
; _this$ = ecx

; 207  : 		{	// test for iterator inequality

  00000	55		 push	 ebp
  00001	8b ec		 mov	 ebp, esp

; 208  : 		return (!(*this == _Right));

  00003	8b 01		 mov	 eax, DWORD PTR [ecx]
  00005	8b 55 08	 mov	 edx, DWORD PTR __Right$[ebp]
  00008	33 c9		 xor	 ecx, ecx
  0000a	3b 02		 cmp	 eax, DWORD PTR [edx]
  0000c	0f 95 c0	 setne	 al

; 209  : 		}

  0000f	5d		 pop	 ebp
  00010	c2 04 00	 ret	 4
??9?$_Vector_const_iterator@V?$_Vector_val@UXMASMONSTER_EVENT_TIME@@V?$allocator@UXMASMONSTER_EVENT_TIME@@@std@@@std@@@std@@QBE_NABV01@@Z ENDP ; std::_Vector_const_iterator<std::_Vector_val<XMASMONSTER_EVENT_TIME,std::allocator<XMASMONSTER_EVENT_TIME> > >::operator!=
_TEXT	ENDS
PUBLIC	?_Destroy@?$vector@PAVCXMasMonsterHerd@@V?$allocator@PAVCXMasMonsterHerd@@@std@@@std@@IAEXPAPAVCXMasMonsterHerd@@0@Z ; std::vector<CXMasMonsterHerd *,std::allocator<CXMasMonsterHerd *> >::_Destroy
; Function compile flags: /Ogtp
;	COMDAT ?_Destroy@?$vector@PAVCXMasMonsterHerd@@V?$allocator@PAVCXMasMonsterHerd@@@std@@@std@@IAEXPAPAVCXMasMonsterHerd@@0@Z
_TEXT	SEGMENT
__First$ = 8						; size = 4
__Last$ = 12						; size = 4
?_Destroy@?$vector@PAVCXMasMonsterHerd@@V?$allocator@PAVCXMasMonsterHerd@@@std@@@std@@IAEXPAPAVCXMasMonsterHerd@@0@Z PROC ; std::vector<CXMasMonsterHerd *,std::allocator<CXMasMonsterHerd *> >::_Destroy, COMDAT
; _this$ = ecx

; 1270 : 		_Destroy_range(_First, _Last, this->_Alval);
; 1271 : 		}

  00000	c2 08 00	 ret	 8
?_Destroy@?$vector@PAVCXMasMonsterHerd@@V?$allocator@PAVCXMasMonsterHerd@@@std@@@std@@IAEXPAPAVCXMasMonsterHerd@@0@Z ENDP ; std::vector<CXMasMonsterHerd *,std::allocator<CXMasMonsterHerd *> >::_Destroy
_TEXT	ENDS
PUBLIC	??0?$_Vector_iterator@V?$_Vector_val@PAVCXMasMonsterHerd@@V?$allocator@PAVCXMasMonsterHerd@@@std@@@std@@@std@@QAE@PAPAVCXMasMonsterHerd@@PBU_Container_base0@1@@Z ; std::_Vector_iterator<std::_Vector_val<CXMasMonsterHerd *,std::allocator<CXMasMonsterHerd *> > >::_Vector_iterator<std::_Vector_val<CXMasMonsterHerd *,std::allocator<CXMasMonsterHerd *> > >
; Function compile flags: /Ogtp
;	COMDAT ??0?$_Vector_iterator@V?$_Vector_val@PAVCXMasMonsterHerd@@V?$allocator@PAVCXMasMonsterHerd@@@std@@@std@@@std@@QAE@PAPAVCXMasMonsterHerd@@PBU_Container_base0@1@@Z
_TEXT	SEGMENT
__Parg$ = 8						; size = 4
__Pvector$ = 12						; size = 4
??0?$_Vector_iterator@V?$_Vector_val@PAVCXMasMonsterHerd@@V?$allocator@PAVCXMasMonsterHerd@@@std@@@std@@@std@@QAE@PAPAVCXMasMonsterHerd@@PBU_Container_base0@1@@Z PROC ; std::_Vector_iterator<std::_Vector_val<CXMasMonsterHerd *,std::allocator<CXMasMonsterHerd *> > >::_Vector_iterator<std::_Vector_val<CXMasMonsterHerd *,std::allocator<CXMasMonsterHerd *> > >, COMDAT
; _this$ = ecx

; 304  : 		{	// construct with pointer _Parg

  00000	55		 push	 ebp
  00001	8b ec		 mov	 ebp, esp
  00003	8b c1		 mov	 eax, ecx
  00005	8b 4d 08	 mov	 ecx, DWORD PTR __Parg$[ebp]
  00008	89 08		 mov	 DWORD PTR [eax], ecx

; 305  : 		}

  0000a	5d		 pop	 ebp
  0000b	c2 08 00	 ret	 8
??0?$_Vector_iterator@V?$_Vector_val@PAVCXMasMonsterHerd@@V?$allocator@PAVCXMasMonsterHerd@@@std@@@std@@@std@@QAE@PAPAVCXMasMonsterHerd@@PBU_Container_base0@1@@Z ENDP ; std::_Vector_iterator<std::_Vector_val<CXMasMonsterHerd *,std::allocator<CXMasMonsterHerd *> > >::_Vector_iterator<std::_Vector_val<CXMasMonsterHerd *,std::allocator<CXMasMonsterHerd *> > >
_TEXT	ENDS
PUBLIC	??0?$_Vector_iterator@V?$_Vector_val@UXMASMONSTER_MAP_INFO@@V?$allocator@UXMASMONSTER_MAP_INFO@@@std@@@std@@@std@@QAE@PAUXMASMONSTER_MAP_INFO@@PBU_Container_base0@1@@Z ; std::_Vector_iterator<std::_Vector_val<XMASMONSTER_MAP_INFO,std::allocator<XMASMONSTER_MAP_INFO> > >::_Vector_iterator<std::_Vector_val<XMASMONSTER_MAP_INFO,std::allocator<XMASMONSTER_MAP_INFO> > >
; Function compile flags: /Ogtp
;	COMDAT ??0?$_Vector_iterator@V?$_Vector_val@UXMASMONSTER_MAP_INFO@@V?$allocator@UXMASMONSTER_MAP_INFO@@@std@@@std@@@std@@QAE@PAUXMASMONSTER_MAP_INFO@@PBU_Container_base0@1@@Z
_TEXT	SEGMENT
__Parg$ = 8						; size = 4
__Pvector$ = 12						; size = 4
??0?$_Vector_iterator@V?$_Vector_val@UXMASMONSTER_MAP_INFO@@V?$allocator@UXMASMONSTER_MAP_INFO@@@std@@@std@@@std@@QAE@PAUXMASMONSTER_MAP_INFO@@PBU_Container_base0@1@@Z PROC ; std::_Vector_iterator<std::_Vector_val<XMASMONSTER_MAP_INFO,std::allocator<XMASMONSTER_MAP_INFO> > >::_Vector_iterator<std::_Vector_val<XMASMONSTER_MAP_INFO,std::allocator<XMASMONSTER_MAP_INFO> > >, COMDAT
; _this$ = ecx

; 304  : 		{	// construct with pointer _Parg

  00000	55		 push	 ebp
  00001	8b ec		 mov	 ebp, esp
  00003	8b c1		 mov	 eax, ecx
  00005	8b 4d 08	 mov	 ecx, DWORD PTR __Parg$[ebp]
  00008	89 08		 mov	 DWORD PTR [eax], ecx

; 305  : 		}

  0000a	5d		 pop	 ebp
  0000b	c2 08 00	 ret	 8
??0?$_Vector_iterator@V?$_Vector_val@UXMASMONSTER_MAP_INFO@@V?$allocator@UXMASMONSTER_MAP_INFO@@@std@@@std@@@std@@QAE@PAUXMASMONSTER_MAP_INFO@@PBU_Container_base0@1@@Z ENDP ; std::_Vector_iterator<std::_Vector_val<XMASMONSTER_MAP_INFO,std::allocator<XMASMONSTER_MAP_INFO> > >::_Vector_iterator<std::_Vector_val<XMASMONSTER_MAP_INFO,std::allocator<XMASMONSTER_MAP_INFO> > >
_TEXT	ENDS
PUBLIC	??0?$_Vector_iterator@V?$_Vector_val@UXMASMONSTER_DATA@@V?$allocator@UXMASMONSTER_DATA@@@std@@@std@@@std@@QAE@PAUXMASMONSTER_DATA@@PBU_Container_base0@1@@Z ; std::_Vector_iterator<std::_Vector_val<XMASMONSTER_DATA,std::allocator<XMASMONSTER_DATA> > >::_Vector_iterator<std::_Vector_val<XMASMONSTER_DATA,std::allocator<XMASMONSTER_DATA> > >
; Function compile flags: /Ogtp
;	COMDAT ??0?$_Vector_iterator@V?$_Vector_val@UXMASMONSTER_DATA@@V?$allocator@UXMASMONSTER_DATA@@@std@@@std@@@std@@QAE@PAUXMASMONSTER_DATA@@PBU_Container_base0@1@@Z
_TEXT	SEGMENT
__Parg$ = 8						; size = 4
__Pvector$ = 12						; size = 4
??0?$_Vector_iterator@V?$_Vector_val@UXMASMONSTER_DATA@@V?$allocator@UXMASMONSTER_DATA@@@std@@@std@@@std@@QAE@PAUXMASMONSTER_DATA@@PBU_Container_base0@1@@Z PROC ; std::_Vector_iterator<std::_Vector_val<XMASMONSTER_DATA,std::allocator<XMASMONSTER_DATA> > >::_Vector_iterator<std::_Vector_val<XMASMONSTER_DATA,std::allocator<XMASMONSTER_DATA> > >, COMDAT
; _this$ = ecx

; 304  : 		{	// construct with pointer _Parg

  00000	55		 push	 ebp
  00001	8b ec		 mov	 ebp, esp
  00003	8b c1		 mov	 eax, ecx
  00005	8b 4d 08	 mov	 ecx, DWORD PTR __Parg$[ebp]
  00008	89 08		 mov	 DWORD PTR [eax], ecx

; 305  : 		}

  0000a	5d		 pop	 ebp
  0000b	c2 08 00	 ret	 8
??0?$_Vector_iterator@V?$_Vector_val@UXMASMONSTER_DATA@@V?$allocator@UXMASMONSTER_DATA@@@std@@@std@@@std@@QAE@PAUXMASMONSTER_DATA@@PBU_Container_base0@1@@Z ENDP ; std::_Vector_iterator<std::_Vector_val<XMASMONSTER_DATA,std::allocator<XMASMONSTER_DATA> > >::_Vector_iterator<std::_Vector_val<XMASMONSTER_DATA,std::allocator<XMASMONSTER_DATA> > >
_TEXT	ENDS
PUBLIC	??0?$_Vector_iterator@V?$_Vector_val@UXMASMONSTER_EVENT_TIME@@V?$allocator@UXMASMONSTER_EVENT_TIME@@@std@@@std@@@std@@QAE@PAUXMASMONSTER_EVENT_TIME@@PBU_Container_base0@1@@Z ; std::_Vector_iterator<std::_Vector_val<XMASMONSTER_EVENT_TIME,std::allocator<XMASMONSTER_EVENT_TIME> > >::_Vector_iterator<std::_Vector_val<XMASMONSTER_EVENT_TIME,std::allocator<XMASMONSTER_EVENT_TIME> > >
; Function compile flags: /Ogtp
;	COMDAT ??0?$_Vector_iterator@V?$_Vector_val@UXMASMONSTER_EVENT_TIME@@V?$allocator@UXMASMONSTER_EVENT_TIME@@@std@@@std@@@std@@QAE@PAUXMASMONSTER_EVENT_TIME@@PBU_Container_base0@1@@Z
_TEXT	SEGMENT
__Parg$ = 8						; size = 4
__Pvector$ = 12						; size = 4
??0?$_Vector_iterator@V?$_Vector_val@UXMASMONSTER_EVENT_TIME@@V?$allocator@UXMASMONSTER_EVENT_TIME@@@std@@@std@@@std@@QAE@PAUXMASMONSTER_EVENT_TIME@@PBU_Container_base0@1@@Z PROC ; std::_Vector_iterator<std::_Vector_val<XMASMONSTER_EVENT_TIME,std::allocator<XMASMONSTER_EVENT_TIME> > >::_Vector_iterator<std::_Vector_val<XMASMONSTER_EVENT_TIME,std::allocator<XMASMONSTER_EVENT_TIME> > >, COMDAT
; _this$ = ecx

; 304  : 		{	// construct with pointer _Parg

  00000	55		 push	 ebp
  00001	8b ec		 mov	 ebp, esp
  00003	8b c1		 mov	 eax, ecx
  00005	8b 4d 08	 mov	 ecx, DWORD PTR __Parg$[ebp]
  00008	89 08		 mov	 DWORD PTR [eax], ecx

; 305  : 		}

  0000a	5d		 pop	 ebp
  0000b	c2 08 00	 ret	 8
??0?$_Vector_iterator@V?$_Vector_val@UXMASMONSTER_EVENT_TIME@@V?$allocator@UXMASMONSTER_EVENT_TIME@@@std@@@std@@@std@@QAE@PAUXMASMONSTER_EVENT_TIME@@PBU_Container_base0@1@@Z ENDP ; std::_Vector_iterator<std::_Vector_val<XMASMONSTER_EVENT_TIME,std::allocator<XMASMONSTER_EVENT_TIME> > >::_Vector_iterator<std::_Vector_val<XMASMONSTER_EVENT_TIME,std::allocator<XMASMONSTER_EVENT_TIME> > >
_TEXT	ENDS
PUBLIC	?allocate@?$allocator@UXMASMONSTER_EVENT_TIME@@@std@@QAEPAUXMASMONSTER_EVENT_TIME@@I@Z ; std::allocator<XMASMONSTER_EVENT_TIME>::allocate
; Function compile flags: /Ogtp
; File d:\program files (x86)\microsoft visual studio 10.0\vc\include\xmemory
;	COMDAT ?allocate@?$allocator@UXMASMONSTER_EVENT_TIME@@@std@@QAEPAUXMASMONSTER_EVENT_TIME@@I@Z
_TEXT	SEGMENT
$T217989 = -12						; size = 12
$T217981 = 8						; size = 4
__Count$ = 8						; size = 4
?allocate@?$allocator@UXMASMONSTER_EVENT_TIME@@@std@@QAEPAUXMASMONSTER_EVENT_TIME@@I@Z PROC ; std::allocator<XMASMONSTER_EVENT_TIME>::allocate, COMDAT
; _this$ = ecx

; 186  : 		{	// allocate array of _Count elements

  00000	55		 push	 ebp
  00001	8b ec		 mov	 ebp, esp

; 187  : 		return (_Allocate(_Count, (pointer)0));

  00003	8b 4d 08	 mov	 ecx, DWORD PTR __Count$[ebp]
  00006	83 ec 0c	 sub	 esp, 12			; 0000000cH
  00009	33 c0		 xor	 eax, eax
  0000b	85 c9		 test	 ecx, ecx
  0000d	74 44		 je	 SHORT $LN1@allocate
  0000f	81 f9 ff ff ff
	1f		 cmp	 ecx, 536870911		; 1fffffffH
  00015	77 14		 ja	 SHORT $LN3@allocate
  00017	8d 04 cd 00 00
	00 00		 lea	 eax, DWORD PTR [ecx*8]
  0001e	50		 push	 eax
  0001f	e8 00 00 00 00	 call	 ??2@YAPAXI@Z		; operator new
  00024	83 c4 04	 add	 esp, 4
  00027	85 c0		 test	 eax, eax
  00029	75 28		 jne	 SHORT $LN1@allocate
$LN3@allocate:
  0002b	8d 4d 08	 lea	 ecx, DWORD PTR $T217981[ebp]
  0002e	51		 push	 ecx
  0002f	8d 4d f4	 lea	 ecx, DWORD PTR $T217989[ebp]
  00032	c7 45 08 00 00
	00 00		 mov	 DWORD PTR $T217981[ebp], 0
  00039	e8 00 00 00 00	 call	 ??0exception@std@@QAE@ABQBD@Z ; std::exception::exception
  0003e	68 00 00 00 00	 push	 OFFSET __TI2?AVbad_alloc@std@@
  00043	8d 55 f4	 lea	 edx, DWORD PTR $T217989[ebp]
  00046	52		 push	 edx
  00047	c7 45 f4 00 00
	00 00		 mov	 DWORD PTR $T217989[ebp], OFFSET ??_7bad_alloc@std@@6B@
  0004e	e8 00 00 00 00	 call	 __CxxThrowException@8
$LN13@allocate:
$LN1@allocate:

; 188  : 		}

  00053	8b e5		 mov	 esp, ebp
  00055	5d		 pop	 ebp
  00056	c2 04 00	 ret	 4
$LN12@allocate:
?allocate@?$allocator@UXMASMONSTER_EVENT_TIME@@@std@@QAEPAUXMASMONSTER_EVENT_TIME@@I@Z ENDP ; std::allocator<XMASMONSTER_EVENT_TIME>::allocate
_TEXT	ENDS
PUBLIC	?allocate@?$allocator@UXMASMONSTER_DATA@@@std@@QAEPAUXMASMONSTER_DATA@@I@Z ; std::allocator<XMASMONSTER_DATA>::allocate
; Function compile flags: /Ogtp
;	COMDAT ?allocate@?$allocator@UXMASMONSTER_DATA@@@std@@QAEPAUXMASMONSTER_DATA@@I@Z
_TEXT	SEGMENT
$T218012 = -12						; size = 12
$T218004 = 8						; size = 4
__Count$ = 8						; size = 4
?allocate@?$allocator@UXMASMONSTER_DATA@@@std@@QAEPAUXMASMONSTER_DATA@@I@Z PROC ; std::allocator<XMASMONSTER_DATA>::allocate, COMDAT
; _this$ = ecx

; 186  : 		{	// allocate array of _Count elements

  00000	55		 push	 ebp
  00001	8b ec		 mov	 ebp, esp

; 187  : 		return (_Allocate(_Count, (pointer)0));

  00003	8b 4d 08	 mov	 ecx, DWORD PTR __Count$[ebp]
  00006	83 ec 0c	 sub	 esp, 12			; 0000000cH
  00009	33 c0		 xor	 eax, eax
  0000b	85 c9		 test	 ecx, ecx
  0000d	74 44		 je	 SHORT $LN1@allocate@2
  0000f	81 f9 55 55 55
	15		 cmp	 ecx, 357913941		; 15555555H
  00015	77 14		 ja	 SHORT $LN3@allocate@2
  00017	8d 04 49	 lea	 eax, DWORD PTR [ecx+ecx*2]
  0001a	03 c0		 add	 eax, eax
  0001c	03 c0		 add	 eax, eax
  0001e	50		 push	 eax
  0001f	e8 00 00 00 00	 call	 ??2@YAPAXI@Z		; operator new
  00024	83 c4 04	 add	 esp, 4
  00027	85 c0		 test	 eax, eax
  00029	75 28		 jne	 SHORT $LN1@allocate@2
$LN3@allocate@2:
  0002b	8d 4d 08	 lea	 ecx, DWORD PTR $T218004[ebp]
  0002e	51		 push	 ecx
  0002f	8d 4d f4	 lea	 ecx, DWORD PTR $T218012[ebp]
  00032	c7 45 08 00 00
	00 00		 mov	 DWORD PTR $T218004[ebp], 0
  00039	e8 00 00 00 00	 call	 ??0exception@std@@QAE@ABQBD@Z ; std::exception::exception
  0003e	68 00 00 00 00	 push	 OFFSET __TI2?AVbad_alloc@std@@
  00043	8d 55 f4	 lea	 edx, DWORD PTR $T218012[ebp]
  00046	52		 push	 edx
  00047	c7 45 f4 00 00
	00 00		 mov	 DWORD PTR $T218012[ebp], OFFSET ??_7bad_alloc@std@@6B@
  0004e	e8 00 00 00 00	 call	 __CxxThrowException@8
$LN13@allocate@2:
$LN1@allocate@2:

; 188  : 		}

  00053	8b e5		 mov	 esp, ebp
  00055	5d		 pop	 ebp
  00056	c2 04 00	 ret	 4
$LN12@allocate@2:
?allocate@?$allocator@UXMASMONSTER_DATA@@@std@@QAEPAUXMASMONSTER_DATA@@I@Z ENDP ; std::allocator<XMASMONSTER_DATA>::allocate
_TEXT	ENDS
PUBLIC	?allocate@?$allocator@PAVCXMasMonsterHerd@@@std@@QAEPAPAVCXMasMonsterHerd@@I@Z ; std::allocator<CXMasMonsterHerd *>::allocate
; Function compile flags: /Ogtp
;	COMDAT ?allocate@?$allocator@PAVCXMasMonsterHerd@@@std@@QAEPAPAVCXMasMonsterHerd@@I@Z
_TEXT	SEGMENT
$T218035 = -12						; size = 12
$T218027 = 8						; size = 4
__Count$ = 8						; size = 4
?allocate@?$allocator@PAVCXMasMonsterHerd@@@std@@QAEPAPAVCXMasMonsterHerd@@I@Z PROC ; std::allocator<CXMasMonsterHerd *>::allocate, COMDAT
; _this$ = ecx

; 186  : 		{	// allocate array of _Count elements

  00000	55		 push	 ebp
  00001	8b ec		 mov	 ebp, esp

; 187  : 		return (_Allocate(_Count, (pointer)0));

  00003	8b 4d 08	 mov	 ecx, DWORD PTR __Count$[ebp]
  00006	83 ec 0c	 sub	 esp, 12			; 0000000cH
  00009	33 c0		 xor	 eax, eax
  0000b	85 c9		 test	 ecx, ecx
  0000d	74 44		 je	 SHORT $LN1@allocate@3
  0000f	81 f9 ff ff ff
	3f		 cmp	 ecx, 1073741823		; 3fffffffH
  00015	77 14		 ja	 SHORT $LN3@allocate@3
  00017	8d 04 8d 00 00
	00 00		 lea	 eax, DWORD PTR [ecx*4]
  0001e	50		 push	 eax
  0001f	e8 00 00 00 00	 call	 ??2@YAPAXI@Z		; operator new
  00024	83 c4 04	 add	 esp, 4
  00027	85 c0		 test	 eax, eax
  00029	75 28		 jne	 SHORT $LN1@allocate@3
$LN3@allocate@3:
  0002b	8d 4d 08	 lea	 ecx, DWORD PTR $T218027[ebp]
  0002e	51		 push	 ecx
  0002f	8d 4d f4	 lea	 ecx, DWORD PTR $T218035[ebp]
  00032	c7 45 08 00 00
	00 00		 mov	 DWORD PTR $T218027[ebp], 0
  00039	e8 00 00 00 00	 call	 ??0exception@std@@QAE@ABQBD@Z ; std::exception::exception
  0003e	68 00 00 00 00	 push	 OFFSET __TI2?AVbad_alloc@std@@
  00043	8d 55 f4	 lea	 edx, DWORD PTR $T218035[ebp]
  00046	52		 push	 edx
  00047	c7 45 f4 00 00
	00 00		 mov	 DWORD PTR $T218035[ebp], OFFSET ??_7bad_alloc@std@@6B@
  0004e	e8 00 00 00 00	 call	 __CxxThrowException@8
$LN13@allocate@3:
$LN1@allocate@3:

; 188  : 		}

  00053	8b e5		 mov	 esp, ebp
  00055	5d		 pop	 ebp
  00056	c2 04 00	 ret	 4
$LN12@allocate@3:
?allocate@?$allocator@PAVCXMasMonsterHerd@@@std@@QAEPAPAVCXMasMonsterHerd@@I@Z ENDP ; std::allocator<CXMasMonsterHerd *>::allocate
_TEXT	ENDS
PUBLIC	?allocate@?$allocator@UXMASMONSTER_MAP_INFO@@@std@@QAEPAUXMASMONSTER_MAP_INFO@@I@Z ; std::allocator<XMASMONSTER_MAP_INFO>::allocate
; Function compile flags: /Ogtp
;	COMDAT ?allocate@?$allocator@UXMASMONSTER_MAP_INFO@@@std@@QAEPAUXMASMONSTER_MAP_INFO@@I@Z
_TEXT	SEGMENT
$T218058 = -12						; size = 12
$T218050 = 8						; size = 4
__Count$ = 8						; size = 4
?allocate@?$allocator@UXMASMONSTER_MAP_INFO@@@std@@QAEPAUXMASMONSTER_MAP_INFO@@I@Z PROC ; std::allocator<XMASMONSTER_MAP_INFO>::allocate, COMDAT
; _this$ = ecx

; 186  : 		{	// allocate array of _Count elements

  00000	55		 push	 ebp
  00001	8b ec		 mov	 ebp, esp

; 187  : 		return (_Allocate(_Count, (pointer)0));

  00003	8b 4d 08	 mov	 ecx, DWORD PTR __Count$[ebp]
  00006	83 ec 0c	 sub	 esp, 12			; 0000000cH
  00009	33 c0		 xor	 eax, eax
  0000b	85 c9		 test	 ecx, ecx
  0000d	74 44		 je	 SHORT $LN1@allocate@4
  0000f	81 f9 cc cc cc
	0c		 cmp	 ecx, 214748364		; 0cccccccH
  00015	77 14		 ja	 SHORT $LN3@allocate@4
  00017	8d 04 89	 lea	 eax, DWORD PTR [ecx+ecx*4]
  0001a	03 c0		 add	 eax, eax
  0001c	03 c0		 add	 eax, eax
  0001e	50		 push	 eax
  0001f	e8 00 00 00 00	 call	 ??2@YAPAXI@Z		; operator new
  00024	83 c4 04	 add	 esp, 4
  00027	85 c0		 test	 eax, eax
  00029	75 28		 jne	 SHORT $LN1@allocate@4
$LN3@allocate@4:
  0002b	8d 4d 08	 lea	 ecx, DWORD PTR $T218050[ebp]
  0002e	51		 push	 ecx
  0002f	8d 4d f4	 lea	 ecx, DWORD PTR $T218058[ebp]
  00032	c7 45 08 00 00
	00 00		 mov	 DWORD PTR $T218050[ebp], 0
  00039	e8 00 00 00 00	 call	 ??0exception@std@@QAE@ABQBD@Z ; std::exception::exception
  0003e	68 00 00 00 00	 push	 OFFSET __TI2?AVbad_alloc@std@@
  00043	8d 55 f4	 lea	 edx, DWORD PTR $T218058[ebp]
  00046	52		 push	 edx
  00047	c7 45 f4 00 00
	00 00		 mov	 DWORD PTR $T218058[ebp], OFFSET ??_7bad_alloc@std@@6B@
  0004e	e8 00 00 00 00	 call	 __CxxThrowException@8
$LN13@allocate@4:
$LN1@allocate@4:

; 188  : 		}

  00053	8b e5		 mov	 esp, ebp
  00055	5d		 pop	 ebp
  00056	c2 04 00	 ret	 4
$LN12@allocate@4:
?allocate@?$allocator@UXMASMONSTER_MAP_INFO@@@std@@QAEPAUXMASMONSTER_MAP_INFO@@I@Z ENDP ; std::allocator<XMASMONSTER_MAP_INFO>::allocate
_TEXT	ENDS
PUBLIC	??$_Cons_val@V?$allocator@UXMASMONSTER_EVENT_TIME@@@std@@UXMASMONSTER_EVENT_TIME@@ABU3@@std@@YAXAAV?$allocator@UXMASMONSTER_EVENT_TIME@@@0@PAUXMASMONSTER_EVENT_TIME@@ABU2@@Z ; std::_Cons_val<std::allocator<XMASMONSTER_EVENT_TIME>,XMASMONSTER_EVENT_TIME,XMASMONSTER_EVENT_TIME const &>
; Function compile flags: /Ogtp
;	COMDAT ??$_Cons_val@V?$allocator@UXMASMONSTER_EVENT_TIME@@@std@@UXMASMONSTER_EVENT_TIME@@ABU3@@std@@YAXAAV?$allocator@UXMASMONSTER_EVENT_TIME@@@0@PAUXMASMONSTER_EVENT_TIME@@ABU2@@Z
_TEXT	SEGMENT
__Alval$ = 8						; size = 4
__Pdest$ = 12						; size = 4
__Src$ = 16						; size = 4
??$_Cons_val@V?$allocator@UXMASMONSTER_EVENT_TIME@@@std@@UXMASMONSTER_EVENT_TIME@@ABU3@@std@@YAXAAV?$allocator@UXMASMONSTER_EVENT_TIME@@@0@PAUXMASMONSTER_EVENT_TIME@@ABU2@@Z PROC ; std::_Cons_val<std::allocator<XMASMONSTER_EVENT_TIME>,XMASMONSTER_EVENT_TIME,XMASMONSTER_EVENT_TIME const &>, COMDAT

; 279  : 	{	// construct using allocator

  00000	55		 push	 ebp
  00001	8b ec		 mov	 ebp, esp

; 280  : 	_Alval.construct(_Pdest, _STD forward<_Ty2>(_Src));

  00003	8b 45 0c	 mov	 eax, DWORD PTR __Pdest$[ebp]
  00006	85 c0		 test	 eax, eax
  00008	74 0d		 je	 SHORT $LN9@Cons_val@5
  0000a	8b 4d 10	 mov	 ecx, DWORD PTR __Src$[ebp]
  0000d	8b 11		 mov	 edx, DWORD PTR [ecx]
  0000f	89 10		 mov	 DWORD PTR [eax], edx
  00011	8b 49 04	 mov	 ecx, DWORD PTR [ecx+4]
  00014	89 48 04	 mov	 DWORD PTR [eax+4], ecx
$LN9@Cons_val@5:

; 281  : 	}

  00017	5d		 pop	 ebp
  00018	c3		 ret	 0
??$_Cons_val@V?$allocator@UXMASMONSTER_EVENT_TIME@@@std@@UXMASMONSTER_EVENT_TIME@@ABU3@@std@@YAXAAV?$allocator@UXMASMONSTER_EVENT_TIME@@@0@PAUXMASMONSTER_EVENT_TIME@@ABU2@@Z ENDP ; std::_Cons_val<std::allocator<XMASMONSTER_EVENT_TIME>,XMASMONSTER_EVENT_TIME,XMASMONSTER_EVENT_TIME const &>
_TEXT	ENDS
