; Listing generated by Microsoft (R) Optimizing Compiler Version 16.00.30319.01 

	TITLE	E:\work\tranet_version\GS\GameServer\XMasAttackEvent.cpp
	.686P
	.XMM
	include listing.inc
	.model	flat

INCLUDELIB LIBCMT
INCLUDELIB OLDNAMES

PUBLIC	?ErrorType@@3FA					; ErrorType
_DATA	SEGMENT
_g_iNpcUpDfLevel_CGATE DD 01H
	DD	02H
	DD	02dc6c0H
	DD	02H
	DD	03H
	DD	02dc6c0H
	DD	03H
	DD	04H
	DD	02dc6c0H
_g_iNpcUpDfLevel_CSTATUE DD 01H
	DD	03H
	DD	02dc6c0H
	DD	02H
	DD	05H
	DD	02dc6c0H
	DD	03H
	DD	07H
	DD	02dc6c0H
_g_iNpcUpMaxHP_CGATE DD 02625a0H
	DD	02H
	DD	0f4240H
	DD	03567e0H
	DD	03H
	DD	0f4240H
	DD	04f5880H
	DD	04H
	DD	0f4240H
_g_iNpcUpMaxHP_CSTATUE DD 02191c0H
	DD	03H
	DD	0f4240H
	DD	033e140H
	DD	05H
	DD	0f4240H
	DD	04c4b40H
	DD	07H
	DD	0f4240H
_g_iNpcUpRgLevel_CSTATUE DD 01H
	DD	03H
	DD	04c4b40H
	DD	02H
	DD	05H
	DD	04c4b40H
	DD	03H
	DD	07H
	DD	04c4b40H
_g_iCsUserReSpawnArea DD 023H
	DD	011H
	DD	090H
	DD	030H
	DD	04aH
	DD	090H
	DD	073H
	DD	09aH
	DD	023H
	DD	011H
	DD	090H
	DD	030H
_g_iNpcDefense_CGATE DD 064H
	DD	0b4H
	DD	012cH
	DD	0208H
_g_iNpcDefense_CSTATUE DD 050H
	DD	0b4H
	DD	0154H
	DD	0226H
_g_iCastleWallStepAxisY DD 071H
	DD	0a0H
	DD	0cbH
?ErrorType@@3FA DW 0168H				; ErrorType
	ORG $+6
_g_XMasMapDestPosition DD 085H
	DD	04fH
	DD	057H
	DD	07eH
	DD	085H
	DD	0b2H
	DD	0b4H
	DD	07eH
	DD	0a4H
	DD	02aH
	DD	0ddH
	DD	055H
	DD	0a4H
	DD	02aH
	DD	0ddH
	DD	055H
	DD	0a0H
	DD	04bH
	DD	0a0H
	DD	04bH
	DD	098H
	DD	075H
	DD	0d1H
	DD	085H
_DATA	ENDS
PUBLIC	??2@YAPAXIPAX@Z					; operator new
; Function compile flags: /Ogtp
; File d:\program files (x86)\microsoft visual studio 10.0\vc\include\new.h
;	COMDAT ??2@YAPAXIPAX@Z
_TEXT	SEGMENT
___formal$ = 8						; size = 4
__Where$ = 12						; size = 4
??2@YAPAXIPAX@Z PROC					; operator new, COMDAT

; 81   :         {return (_Where); }

  00000	55		 push	 ebp
  00001	8b ec		 mov	 ebp, esp
  00003	8b 45 0c	 mov	 eax, DWORD PTR __Where$[ebp]
  00006	5d		 pop	 ebp
  00007	c3		 ret	 0
??2@YAPAXIPAX@Z ENDP					; operator new
_TEXT	ENDS
PUBLIC	??3@YAXPAX0@Z					; operator delete
; Function compile flags: /Ogtp
;	COMDAT ??3@YAXPAX0@Z
_TEXT	SEGMENT
___formal$ = 8						; size = 4
___formal$ = 12						; size = 4
??3@YAXPAX0@Z PROC					; operator delete, COMDAT

; 83   :         {return; }

  00000	c3		 ret	 0
??3@YAXPAX0@Z ENDP					; operator delete
_TEXT	ENDS
PUBLIC	??_H@YGXPAXIHP6EPAX0@Z@Z			; `vector constructor iterator'
; Function compile flags: /Ogtp
;	COMDAT ??_H@YGXPAXIHP6EPAX0@Z@Z
_TEXT	SEGMENT
___t$ = 8						; size = 4
___s$ = 12						; size = 4
___n$ = 16						; size = 4
___f$ = 20						; size = 4
??_H@YGXPAXIHP6EPAX0@Z@Z PROC				; `vector constructor iterator', COMDAT
  00000	55		 push	 ebp
  00001	8b ec		 mov	 ebp, esp
  00003	57		 push	 edi
  00004	8b 7d 10	 mov	 edi, DWORD PTR ___n$[ebp]
  00007	4f		 dec	 edi
  00008	78 14		 js	 SHORT $LN1@vector
  0000a	53		 push	 ebx
  0000b	8b 5d 14	 mov	 ebx, DWORD PTR ___f$[ebp]
  0000e	56		 push	 esi
  0000f	8b 75 08	 mov	 esi, DWORD PTR ___t$[ebp]
$LL2@vector:
  00012	8b ce		 mov	 ecx, esi
  00014	ff d3		 call	 ebx
  00016	03 75 0c	 add	 esi, DWORD PTR ___s$[ebp]
  00019	4f		 dec	 edi
  0001a	79 f6		 jns	 SHORT $LL2@vector
  0001c	5e		 pop	 esi
  0001d	5b		 pop	 ebx
$LN1@vector:
  0001e	5f		 pop	 edi
  0001f	5d		 pop	 ebp
  00020	c2 10 00	 ret	 16			; 00000010H
??_H@YGXPAXIHP6EPAX0@Z@Z ENDP				; `vector constructor iterator'
_TEXT	ENDS
PUBLIC	__$ArrayPad$
EXTRN	_isalnum:PROC
EXTRN	_isalpha:PROC
EXTRN	_atof:PROC
EXTRN	_isdigit:PROC
EXTRN	_getc:PROC
EXTRN	_ungetc:PROC
EXTRN	_isspace:PROC
EXTRN	_fgetc:PROC
EXTRN	___security_cookie:DWORD
EXTRN	__fltused:DWORD
EXTRN	@__security_check_cookie@4:PROC
_BSS	SEGMENT
_CurrentToken DD 01H DUP (?)
_TokenNumber DD	01H DUP (?)
_SMDFile DD	01H DUP (?)
_TokenString DB	064H DUP (?)
; Function compile flags: /Ogtp
; File e:\work\tranet_version\gs\include\readscript.h
_BSS	ENDS
;	COMDAT ?GetToken@@YA?AW4SMDToken@@XZ
_TEXT	SEGMENT
_TempString$ = -104					; size = 100
__$ArrayPad$ = -4					; size = 4
?GetToken@@YA?AW4SMDToken@@XZ PROC			; GetToken, COMDAT

; 24   : {

  00000	55		 push	 ebp
  00001	8b ec		 mov	 ebp, esp
  00003	83 ec 68	 sub	 esp, 104		; 00000068H
  00006	a1 00 00 00 00	 mov	 eax, DWORD PTR ___security_cookie
  0000b	33 c5		 xor	 eax, ebp
  0000d	89 45 fc	 mov	 DWORD PTR __$ArrayPad$[ebp], eax

; 25   : 	char ch;
; 26   : 	char* p;
; 27   : 	char TempString[100];
; 28   : 
; 29   : 	TokenString[0]=0;

  00010	c6 05 00 00 00
	00 00		 mov	 BYTE PTR _TokenString, 0
  00017	53		 push	 ebx
  00018	eb 06 8d 9b 00
	00 00 00	 npad	 8
$LL31@GetToken:

; 30   : 
; 31   : 	do
; 32   : 	{
; 33   : 		if ((ch=fgetc(SMDFile)) == -1)

  00020	a1 00 00 00 00	 mov	 eax, DWORD PTR _SMDFile
  00025	50		 push	 eax
  00026	e8 00 00 00 00	 call	 _fgetc
  0002b	8a d8		 mov	 bl, al
  0002d	83 c4 04	 add	 esp, 4
  00030	80 fb ff	 cmp	 bl, -1
  00033	74 64		 je	 SHORT $LN39@GetToken

; 36   : 		}
; 37   : 		else
; 38   : 		{	
; 39   : 			if (ch=='/')		// this is /

  00035	80 fb 2f	 cmp	 bl, 47			; 0000002fH
  00038	75 31		 jne	 SHORT $LN30@GetToken

; 40   : 			{
; 41   : 				if((ch=fgetc(SMDFile)) == '/')

  0003a	8b 0d 00 00 00
	00		 mov	 ecx, DWORD PTR _SMDFile
  00040	51		 push	 ecx
  00041	e8 00 00 00 00	 call	 _fgetc
  00046	8a d8		 mov	 bl, al
  00048	83 c4 04	 add	 esp, 4
  0004b	80 fb 2f	 cmp	 bl, 47			; 0000002fH
  0004e	75 1b		 jne	 SHORT $LN30@GetToken
$LL24@GetToken:

; 42   : 				{
; 43   : 					while ((ch != '\n') && (ch != -1))	// End of Line (EOL)

  00050	80 fb ff	 cmp	 bl, -1
  00053	74 44		 je	 SHORT $LN39@GetToken

; 44   : 					{
; 45   : 						ch=fgetc(SMDFile);

  00055	8b 15 00 00 00
	00		 mov	 edx, DWORD PTR _SMDFile
  0005b	52		 push	 edx
  0005c	e8 00 00 00 00	 call	 _fgetc
  00061	8a d8		 mov	 bl, al
  00063	83 c4 04	 add	 esp, 4
  00066	80 fb 0a	 cmp	 bl, 10			; 0000000aH
  00069	75 e5		 jne	 SHORT $LL24@GetToken
$LN30@GetToken:

; 46   : 					}
; 47   : 	
; 48   : 					if (ch == -1)
; 49   : 					{
; 50   : 						return END;	// End of FILE
; 51   : 					}
; 52   : 				}
; 53   : 			}
; 54   : 		}
; 55   : 	}
; 56   : 	while (isspace(ch) != 0);

  0006b	0f be c3	 movsx	 eax, bl
  0006e	50		 push	 eax
  0006f	e8 00 00 00 00	 call	 _isspace
  00074	83 c4 04	 add	 esp, 4
  00077	85 c0		 test	 eax, eax
  00079	75 a5		 jne	 SHORT $LL31@GetToken

; 57   : 
; 58   : 	
; 59   : 	switch(ch)

  0007b	0f be c3	 movsx	 eax, bl
  0007e	8d 48 de	 lea	 ecx, DWORD PTR [eax-34]
  00081	56		 push	 esi
  00082	83 f9 5b	 cmp	 ecx, 91			; 0000005bH
  00085	0f 87 2b 01 00
	00		 ja	 $LN6@GetToken
  0008b	0f b6 89 00 00
	00 00		 movzx	 ecx, BYTE PTR $LN46@GetToken[ecx]
  00092	ff 24 8d 00 00
	00 00		 jmp	 DWORD PTR $LN50@GetToken[ecx*4]
$LN39@GetToken:

; 34   : 		{
; 35   : 			return END;	// End of FILE (EOF)

  00099	b8 02 00 00 00	 mov	 eax, 2
  0009e	5b		 pop	 ebx

; 147  : 		}
; 148  : 		break;
; 149  : 
; 150  : 	}
; 151  : 
; 152  : 	return NAME;
; 153  : }

  0009f	8b 4d fc	 mov	 ecx, DWORD PTR __$ArrayPad$[ebp]
  000a2	33 cd		 xor	 ecx, ebp
  000a4	e8 00 00 00 00	 call	 @__security_check_cookie@4
  000a9	8b e5		 mov	 esp, ebp
  000ab	5d		 pop	 ebp
  000ac	c3		 ret	 0
$LN19@GetToken:

; 60   : 	{
; 61   : 
; 62   : 	case 0x23:	// #
; 63   : 		return CurrentToken=COMMAND;

  000ad	b8 23 00 00 00	 mov	 eax, 35			; 00000023H
  000b2	e9 99 01 00 00	 jmp	 $LN48@GetToken
$LN18@GetToken:

; 64   : 		break;
; 65   : 	
; 66   : 	case 0x3B:	// ;
; 67   : 		return CurrentToken=SEMICOLON;

  000b7	b8 3b 00 00 00	 mov	 eax, 59			; 0000003bH
  000bc	e9 8f 01 00 00	 jmp	 $LN48@GetToken
$LN17@GetToken:

; 68   : 		break;
; 69   : 	
; 70   : 	case 0x2C:	// ,
; 71   : 
; 72   : 		return CurrentToken=COMMA;

  000c1	b8 2c 00 00 00	 mov	 eax, 44			; 0000002cH
  000c6	e9 85 01 00 00	 jmp	 $LN48@GetToken
$LN16@GetToken:

; 73   : 		break;
; 74   : 	
; 75   : 	case 0x7B:	// {
; 76   : 		return CurrentToken = LP;

  000cb	b8 7b 00 00 00	 mov	 eax, 123		; 0000007bH
  000d0	e9 7b 01 00 00	 jmp	 $LN48@GetToken
$LN15@GetToken:

; 77   : 		break;
; 78   : 
; 79   : 	case 0x7D:	// }
; 80   : 		return CurrentToken = RP;

  000d5	b8 7d 00 00 00	 mov	 eax, 125		; 0000007dH
  000da	e9 71 01 00 00	 jmp	 $LN48@GetToken
$LN14@GetToken:

; 81   : 		break;
; 82   : 	// Nice Index Table :)	by Deathway
; 83   : 	// Numbers Case
; 84   : 	case 0x2D:	//-
; 85   : 	case 0x2E:	//.
; 86   : 	case '0':	//0
; 87   : 	case '1':	//1
; 88   : 	case '2':	//2
; 89   : 	case '3':	//3
; 90   : 	case '4':	//4		
; 91   : 	case '5':	//5
; 92   : 	case '6':	//6
; 93   : 	case '7':	//7
; 94   : 	case '8':	//8
; 95   : 	case '9':	//9
; 96   : 		ungetc(ch, SMDFile);

  000df	8b 15 00 00 00
	00		 mov	 edx, DWORD PTR _SMDFile
  000e5	52		 push	 edx
  000e6	50		 push	 eax
  000e7	e8 00 00 00 00	 call	 _ungetc

; 97   : 		p = TempString;
; 98   : 		
; 99   : 		while (((ch=getc(SMDFile)) != -1) && ((ch == 0x2E) || (isdigit(ch) != 0) || (ch == 0x2D)))  // 2e '.'  2D '-'

  000ec	a1 00 00 00 00	 mov	 eax, DWORD PTR _SMDFile
  000f1	50		 push	 eax
  000f2	8d 75 98	 lea	 esi, DWORD PTR _TempString$[ebp]
  000f5	e8 00 00 00 00	 call	 _getc
  000fa	8a d8		 mov	 bl, al
  000fc	83 c4 0c	 add	 esp, 12			; 0000000cH
  000ff	80 fb ff	 cmp	 bl, -1
  00102	74 33		 je	 SHORT $LN12@GetToken
$LL13@GetToken:
  00104	80 fb 2e	 cmp	 bl, 46			; 0000002eH
  00107	74 15		 je	 SHORT $LN11@GetToken
  00109	0f be cb	 movsx	 ecx, bl
  0010c	51		 push	 ecx
  0010d	e8 00 00 00 00	 call	 _isdigit
  00112	83 c4 04	 add	 esp, 4
  00115	85 c0		 test	 eax, eax
  00117	75 05		 jne	 SHORT $LN11@GetToken
  00119	80 fb 2d	 cmp	 bl, 45			; 0000002dH
  0011c	75 19		 jne	 SHORT $LN12@GetToken
$LN11@GetToken:
  0011e	8b 15 00 00 00
	00		 mov	 edx, DWORD PTR _SMDFile

; 100  : 		{
; 101  : 			*p = ch;	// Construct a String

  00124	88 1e		 mov	 BYTE PTR [esi], bl
  00126	52		 push	 edx

; 102  : 			p++;

  00127	46		 inc	 esi
  00128	e8 00 00 00 00	 call	 _getc
  0012d	8a d8		 mov	 bl, al
  0012f	83 c4 04	 add	 esp, 4
  00132	80 fb ff	 cmp	 bl, -1
  00135	75 cd		 jne	 SHORT $LL13@GetToken
$LN12@GetToken:

; 103  : 		}		
; 104  : 		*p = 0;
; 105  : 		TokenNumber = atof( TempString);	// Select the first Byte as Main ID

  00137	8d 45 98	 lea	 eax, DWORD PTR _TempString$[ebp]
  0013a	50		 push	 eax
  0013b	c6 06 00	 mov	 BYTE PTR [esi], 0
  0013e	e8 00 00 00 00	 call	 _atof
  00143	d9 1d 00 00 00
	00		 fstp	 DWORD PTR _TokenNumber
  00149	83 c4 04	 add	 esp, 4
  0014c	5e		 pop	 esi

; 106  : 		return CurrentToken  = NUMBER ;

  0014d	c7 05 00 00 00
	00 01 00 00 00	 mov	 DWORD PTR _CurrentToken, 1
  00157	b8 01 00 00 00	 mov	 eax, 1
  0015c	5b		 pop	 ebx

; 147  : 		}
; 148  : 		break;
; 149  : 
; 150  : 	}
; 151  : 
; 152  : 	return NAME;
; 153  : }

  0015d	8b 4d fc	 mov	 ecx, DWORD PTR __$ArrayPad$[ebp]
  00160	33 cd		 xor	 ecx, ebp
  00162	e8 00 00 00 00	 call	 @__security_check_cookie@4
  00167	8b e5		 mov	 esp, ebp
  00169	5d		 pop	 ebp
  0016a	c3		 ret	 0
$LN10@GetToken:

; 107  : 		break;
; 108  : 
; 109  : 	case '\"':	// "	String Case
; 110  : 		p=&TokenString[0];
; 111  : 		
; 112  : 		while (((ch=getc(SMDFile)) != -1 ) && (ch != 0x22))	// nice

  0016b	8b 0d 00 00 00
	00		 mov	 ecx, DWORD PTR _SMDFile
  00171	51		 push	 ecx
  00172	be 00 00 00 00	 mov	 esi, OFFSET _TokenString
  00177	e8 00 00 00 00	 call	 _getc
  0017c	83 c4 04	 add	 esp, 4
  0017f	3c ff		 cmp	 al, -1
  00181	74 1e		 je	 SHORT $LN8@GetToken
$LL9@GetToken:
  00183	3c 22		 cmp	 al, 34			; 00000022H
  00185	0f 84 a1 00 00
	00		 je	 $LN7@GetToken
  0018b	8b 15 00 00 00
	00		 mov	 edx, DWORD PTR _SMDFile

; 113  : 		{
; 114  : 			*p = ch;

  00191	88 06		 mov	 BYTE PTR [esi], al
  00193	52		 push	 edx

; 115  : 			p++;

  00194	46		 inc	 esi
  00195	e8 00 00 00 00	 call	 _getc
  0019a	83 c4 04	 add	 esp, 4
  0019d	3c ff		 cmp	 al, -1
  0019f	75 e2		 jne	 SHORT $LL9@GetToken
$LN8@GetToken:

; 116  : 		}
; 117  : 		if (ch != 0x22 )

  001a1	3c 22		 cmp	 al, 34			; 00000022H
  001a3	0f 84 83 00 00
	00		 je	 $LN7@GetToken

; 118  : 		{
; 119  : 			ungetc(ch, SMDFile);

  001a9	8b 0d 00 00 00
	00		 mov	 ecx, DWORD PTR _SMDFile
  001af	0f be d0	 movsx	 edx, al
  001b2	51		 push	 ecx
  001b3	52		 push	 edx

; 120  : 		}
; 121  : 		*p = 0;
; 122  : 		return CurrentToken = NAME;

  001b4	eb 6e		 jmp	 SHORT $LN49@GetToken
$LN6@GetToken:

; 123  : 		break;
; 124  : 
; 125  : 	default:	// Others
; 126  : 		if (isalpha(ch))

  001b6	50		 push	 eax
  001b7	e8 00 00 00 00	 call	 _isalpha
  001bc	83 c4 04	 add	 esp, 4
  001bf	85 c0		 test	 eax, eax
  001c1	0f 84 84 00 00
	00		 je	 $LN5@GetToken

; 127  : 		{
; 128  : 			p=&TokenString[0];
; 129  : 			*p=ch;
; 130  : 			p++;
; 131  : 
; 132  : 			while ( ((ch=getc(SMDFile)) != -1) && ( (ch == 0x2E) || (ch == 0x5F) || (isalnum(ch) != 0) ) )

  001c7	a1 00 00 00 00	 mov	 eax, DWORD PTR _SMDFile
  001cc	50		 push	 eax
  001cd	88 1d 00 00 00
	00		 mov	 BYTE PTR _TokenString, bl
  001d3	be 01 00 00 00	 mov	 esi, OFFSET _TokenString+1
  001d8	e8 00 00 00 00	 call	 _getc
  001dd	8a d8		 mov	 bl, al
  001df	83 c4 04	 add	 esp, 4
  001e2	80 fb ff	 cmp	 bl, -1
  001e5	74 33		 je	 SHORT $LN3@GetToken
$LL4@GetToken:
  001e7	80 fb 2e	 cmp	 bl, 46			; 0000002eH
  001ea	74 15		 je	 SHORT $LN2@GetToken
  001ec	80 fb 5f	 cmp	 bl, 95			; 0000005fH
  001ef	74 10		 je	 SHORT $LN2@GetToken
  001f1	0f be cb	 movsx	 ecx, bl
  001f4	51		 push	 ecx
  001f5	e8 00 00 00 00	 call	 _isalnum
  001fa	83 c4 04	 add	 esp, 4
  001fd	85 c0		 test	 eax, eax
  001ff	74 19		 je	 SHORT $LN3@GetToken
$LN2@GetToken:
  00201	8b 15 00 00 00
	00		 mov	 edx, DWORD PTR _SMDFile

; 133  : 			{
; 134  : 				*p=ch;

  00207	88 1e		 mov	 BYTE PTR [esi], bl
  00209	52		 push	 edx

; 135  : 				p++;

  0020a	46		 inc	 esi
  0020b	e8 00 00 00 00	 call	 _getc
  00210	8a d8		 mov	 bl, al
  00212	83 c4 04	 add	 esp, 4
  00215	80 fb ff	 cmp	 bl, -1
  00218	75 cd		 jne	 SHORT $LL4@GetToken
$LN3@GetToken:

; 136  : 				
; 137  : 			}
; 138  : 
; 139  : 			ungetc(ch, SMDFile);

  0021a	a1 00 00 00 00	 mov	 eax, DWORD PTR _SMDFile
  0021f	0f be cb	 movsx	 ecx, bl
  00222	50		 push	 eax
  00223	51		 push	 ecx
$LN49@GetToken:
  00224	e8 00 00 00 00	 call	 _ungetc
  00229	83 c4 08	 add	 esp, 8
$LN7@GetToken:

; 140  : 			*p=0;

  0022c	c6 06 00	 mov	 BYTE PTR [esi], 0
  0022f	5e		 pop	 esi

; 141  : 			CurrentToken=NAME;

  00230	c7 05 00 00 00
	00 00 00 00 00	 mov	 DWORD PTR _CurrentToken, 0

; 142  : 			return CurrentToken;

  0023a	33 c0		 xor	 eax, eax
  0023c	5b		 pop	 ebx

; 147  : 		}
; 148  : 		break;
; 149  : 
; 150  : 	}
; 151  : 
; 152  : 	return NAME;
; 153  : }

  0023d	8b 4d fc	 mov	 ecx, DWORD PTR __$ArrayPad$[ebp]
  00240	33 cd		 xor	 ecx, ebp
  00242	e8 00 00 00 00	 call	 @__security_check_cookie@4
  00247	8b e5		 mov	 esp, ebp
  00249	5d		 pop	 ebp
  0024a	c3		 ret	 0
$LN5@GetToken:

; 143  : 		}
; 144  : 		else
; 145  : 		{
; 146  : 			return CurrentToken = SMD_ERROR; // '<'

  0024b	b8 3c 00 00 00	 mov	 eax, 60			; 0000003cH
$LN48@GetToken:

; 147  : 		}
; 148  : 		break;
; 149  : 
; 150  : 	}
; 151  : 
; 152  : 	return NAME;
; 153  : }

  00250	8b 4d fc	 mov	 ecx, DWORD PTR __$ArrayPad$[ebp]
  00253	5e		 pop	 esi
  00254	33 cd		 xor	 ecx, ebp
  00256	a3 00 00 00 00	 mov	 DWORD PTR _CurrentToken, eax
  0025b	5b		 pop	 ebx
  0025c	e8 00 00 00 00	 call	 @__security_check_cookie@4
  00261	8b e5		 mov	 esp, ebp
  00263	5d		 pop	 ebp
  00264	c3		 ret	 0
  00265	8d 49 00	 npad	 3
$LN50@GetToken:
  00268	00 00 00 00	 DD	 $LN10@GetToken
  0026c	00 00 00 00	 DD	 $LN19@GetToken
  00270	00 00 00 00	 DD	 $LN17@GetToken
  00274	00 00 00 00	 DD	 $LN14@GetToken
  00278	00 00 00 00	 DD	 $LN18@GetToken
  0027c	00 00 00 00	 DD	 $LN16@GetToken
  00280	00 00 00 00	 DD	 $LN15@GetToken
  00284	00 00 00 00	 DD	 $LN6@GetToken
$LN46@GetToken:
  00288	00		 DB	 0
  00289	01		 DB	 1
  0028a	07		 DB	 7
  0028b	07		 DB	 7
  0028c	07		 DB	 7
  0028d	07		 DB	 7
  0028e	07		 DB	 7
  0028f	07		 DB	 7
  00290	07		 DB	 7
  00291	07		 DB	 7
  00292	02		 DB	 2
  00293	03		 DB	 3
  00294	03		 DB	 3
  00295	07		 DB	 7
  00296	03		 DB	 3
  00297	03		 DB	 3
  00298	03		 DB	 3
  00299	03		 DB	 3
  0029a	03		 DB	 3
  0029b	03		 DB	 3
  0029c	03		 DB	 3
  0029d	03		 DB	 3
  0029e	03		 DB	 3
  0029f	03		 DB	 3
  002a0	07		 DB	 7
  002a1	04		 DB	 4
  002a2	07		 DB	 7
  002a3	07		 DB	 7
  002a4	07		 DB	 7
  002a5	07		 DB	 7
  002a6	07		 DB	 7
  002a7	07		 DB	 7
  002a8	07		 DB	 7
  002a9	07		 DB	 7
  002aa	07		 DB	 7
  002ab	07		 DB	 7
  002ac	07		 DB	 7
  002ad	07		 DB	 7
  002ae	07		 DB	 7
  002af	07		 DB	 7
  002b0	07		 DB	 7
  002b1	07		 DB	 7
  002b2	07		 DB	 7
  002b3	07		 DB	 7
  002b4	07		 DB	 7
  002b5	07		 DB	 7
  002b6	07		 DB	 7
  002b7	07		 DB	 7
  002b8	07		 DB	 7
  002b9	07		 DB	 7
  002ba	07		 DB	 7
  002bb	07		 DB	 7
  002bc	07		 DB	 7
  002bd	07		 DB	 7
  002be	07		 DB	 7
  002bf	07		 DB	 7
  002c0	07		 DB	 7
  002c1	07		 DB	 7
  002c2	07		 DB	 7
  002c3	07		 DB	 7
  002c4	07		 DB	 7
  002c5	07		 DB	 7
  002c6	07		 DB	 7
  002c7	07		 DB	 7
  002c8	07		 DB	 7
  002c9	07		 DB	 7
  002ca	07		 DB	 7
  002cb	07		 DB	 7
  002cc	07		 DB	 7
  002cd	07		 DB	 7
  002ce	07		 DB	 7
  002cf	07		 DB	 7
  002d0	07		 DB	 7
  002d1	07		 DB	 7
  002d2	07		 DB	 7
  002d3	07		 DB	 7
  002d4	07		 DB	 7
  002d5	07		 DB	 7
  002d6	07		 DB	 7
  002d7	07		 DB	 7
  002d8	07		 DB	 7
  002d9	07		 DB	 7
  002da	07		 DB	 7
  002db	07		 DB	 7
  002dc	07		 DB	 7
  002dd	07		 DB	 7
  002de	07		 DB	 7
  002df	07		 DB	 7
  002e0	07		 DB	 7
  002e1	05		 DB	 5
  002e2	07		 DB	 7
  002e3	06		 DB	 6
?GetToken@@YA?AW4SMDToken@@XZ ENDP			; GetToken
_TEXT	ENDS
PUBLIC	??_7CXMasMonsterHerd@@6B@			; CXMasMonsterHerd::`vftable'
PUBLIC	??0CXMasMonsterHerd@@QAE@XZ			; CXMasMonsterHerd::CXMasMonsterHerd
PUBLIC	??_R4CXMasMonsterHerd@@6B@			; CXMasMonsterHerd::`RTTI Complete Object Locator'
PUBLIC	??_R0?AVCXMasMonsterHerd@@@8			; CXMasMonsterHerd `RTTI Type Descriptor'
PUBLIC	??_R3CXMasMonsterHerd@@8			; CXMasMonsterHerd::`RTTI Class Hierarchy Descriptor'
PUBLIC	??_R2CXMasMonsterHerd@@8			; CXMasMonsterHerd::`RTTI Base Class Array'
PUBLIC	??_R1A@?0A@EA@CXMasMonsterHerd@@8		; CXMasMonsterHerd::`RTTI Base Class Descriptor at (0,-1,0,64)'
PUBLIC	??_R1A@?0A@EA@MonsterHerd@@8			; MonsterHerd::`RTTI Base Class Descriptor at (0,-1,0,64)'
PUBLIC	??_R0?AVMonsterHerd@@@8				; MonsterHerd `RTTI Type Descriptor'
PUBLIC	??_R3MonsterHerd@@8				; MonsterHerd::`RTTI Class Hierarchy Descriptor'
PUBLIC	??_R2MonsterHerd@@8				; MonsterHerd::`RTTI Base Class Array'
PUBLIC	?Start@CXMasMonsterHerd@@UAEHXZ			; CXMasMonsterHerd::Start
PUBLIC	?MonsterHerdItemDrop@CXMasMonsterHerd@@UAEHPAUOBJECTSTRUCT@@@Z ; CXMasMonsterHerd::MonsterHerdItemDrop
EXTRN	??0MonsterHerd@@QAE@XZ:PROC			; MonsterHerd::MonsterHerd
EXTRN	??_7type_info@@6B@:QWORD			; type_info::`vftable'
EXTRN	??_ECXMasMonsterHerd@@UAEPAXI@Z:PROC		; CXMasMonsterHerd::`vector deleting destructor'
EXTRN	?SetTotalInfo@MonsterHerd@@UAEHHHHH@Z:PROC	; MonsterHerd::SetTotalInfo
EXTRN	?AddMonster@MonsterHerd@@UAEHHHH@Z:PROC		; MonsterHerd::AddMonster
EXTRN	?SetRadius@MonsterHerd@@UAEXH@Z:PROC		; MonsterHerd::SetRadius
EXTRN	?SetPosition@MonsterHerd@@UAEXEE@Z:PROC		; MonsterHerd::SetPosition
EXTRN	?Stop@MonsterHerd@@UAEXXZ:PROC			; MonsterHerd::Stop
EXTRN	?CheckInRadius@MonsterHerd@@UAEHH@Z:PROC	; MonsterHerd::CheckInRadius
EXTRN	?GetCurrentLocation@MonsterHerd@@UAEHAAE0@Z:PROC ; MonsterHerd::GetCurrentLocation
EXTRN	?GetRandomLocation@MonsterHerd@@UAEHAAE0@Z:PROC	; MonsterHerd::GetRandomLocation
EXTRN	?CheckLocation@MonsterHerd@@UAEHAAE0@Z:PROC	; MonsterHerd::CheckLocation
EXTRN	?MoveHerd@MonsterHerd@@UAEHEE@Z:PROC		; MonsterHerd::MoveHerd
EXTRN	?GetMonsterData@MonsterHerd@@UAEPAU_MONSTER_HERD_DATA@@H@Z:PROC ; MonsterHerd::GetMonsterData
EXTRN	?BeenAttacked@MonsterHerd@@UAEXPAUOBJECTSTRUCT@@0@Z:PROC ; MonsterHerd::BeenAttacked
EXTRN	?OrderAttack@MonsterHerd@@UAEXPAUOBJECTSTRUCT@@0H@Z:PROC ; MonsterHerd::OrderAttack
EXTRN	?MonsterBaseAct@MonsterHerd@@UAEXPAUOBJECTSTRUCT@@@Z:PROC ; MonsterHerd::MonsterBaseAct
EXTRN	?MonsterMoveAction@MonsterHerd@@UAEXPAUOBJECTSTRUCT@@@Z:PROC ; MonsterHerd::MonsterMoveAction
EXTRN	?MonsterAttackAction@MonsterHerd@@UAEXPAUOBJECTSTRUCT@@0@Z:PROC ; MonsterHerd::MonsterAttackAction
EXTRN	?MonsterDieAction@MonsterHerd@@UAEXPAUOBJECTSTRUCT@@@Z:PROC ; MonsterHerd::MonsterDieAction
EXTRN	?MonsterRegenAction@MonsterHerd@@UAEHPAUOBJECTSTRUCT@@@Z:PROC ; MonsterHerd::MonsterRegenAction
;	COMDAT ??_R2MonsterHerd@@8
; File e:\work\tranet_version\gs\gameserver\xmasattackevent.cpp
rdata$r	SEGMENT
??_R2MonsterHerd@@8 DD FLAT:??_R1A@?0A@EA@MonsterHerd@@8 ; MonsterHerd::`RTTI Base Class Array'
rdata$r	ENDS
;	COMDAT ??_R3MonsterHerd@@8
rdata$r	SEGMENT
??_R3MonsterHerd@@8 DD 00H				; MonsterHerd::`RTTI Class Hierarchy Descriptor'
	DD	00H
	DD	01H
	DD	FLAT:??_R2MonsterHerd@@8
rdata$r	ENDS
;	COMDAT ??_R0?AVMonsterHerd@@@8
_DATA	SEGMENT
??_R0?AVMonsterHerd@@@8 DD FLAT:??_7type_info@@6B@	; MonsterHerd `RTTI Type Descriptor'
	DD	00H
	DB	'.?AVMonsterHerd@@', 00H
_DATA	ENDS
;	COMDAT ??_R1A@?0A@EA@MonsterHerd@@8
rdata$r	SEGMENT
??_R1A@?0A@EA@MonsterHerd@@8 DD FLAT:??_R0?AVMonsterHerd@@@8 ; MonsterHerd::`RTTI Base Class Descriptor at (0,-1,0,64)'
	DD	00H
	DD	00H
	DD	0ffffffffH
	DD	00H
	DD	040H
	DD	FLAT:??_R3MonsterHerd@@8
rdata$r	ENDS
;	COMDAT ??_R1A@?0A@EA@CXMasMonsterHerd@@8
rdata$r	SEGMENT
??_R1A@?0A@EA@CXMasMonsterHerd@@8 DD FLAT:??_R0?AVCXMasMonsterHerd@@@8 ; CXMasMonsterHerd::`RTTI Base Class Descriptor at (0,-1,0,64)'
	DD	01H
	DD	00H
	DD	0ffffffffH
	DD	00H
	DD	040H
	DD	FLAT:??_R3CXMasMonsterHerd@@8
rdata$r	ENDS
;	COMDAT ??_R2CXMasMonsterHerd@@8
rdata$r	SEGMENT
??_R2CXMasMonsterHerd@@8 DD FLAT:??_R1A@?0A@EA@CXMasMonsterHerd@@8 ; CXMasMonsterHerd::`RTTI Base Class Array'
	DD	FLAT:??_R1A@?0A@EA@MonsterHerd@@8
rdata$r	ENDS
;	COMDAT ??_R3CXMasMonsterHerd@@8
rdata$r	SEGMENT
??_R3CXMasMonsterHerd@@8 DD 00H				; CXMasMonsterHerd::`RTTI Class Hierarchy Descriptor'
	DD	00H
	DD	02H
	DD	FLAT:??_R2CXMasMonsterHerd@@8
rdata$r	ENDS
;	COMDAT ??_R0?AVCXMasMonsterHerd@@@8
_DATA	SEGMENT
??_R0?AVCXMasMonsterHerd@@@8 DD FLAT:??_7type_info@@6B@	; CXMasMonsterHerd `RTTI Type Descriptor'
	DD	00H
	DB	'.?AVCXMasMonsterHerd@@', 00H
_DATA	ENDS
;	COMDAT ??_R4CXMasMonsterHerd@@6B@
rdata$r	SEGMENT
??_R4CXMasMonsterHerd@@6B@ DD 00H			; CXMasMonsterHerd::`RTTI Complete Object Locator'
	DD	00H
	DD	00H
	DD	FLAT:??_R0?AVCXMasMonsterHerd@@@8
	DD	FLAT:??_R3CXMasMonsterHerd@@8
rdata$r	ENDS
;	COMDAT ??_7CXMasMonsterHerd@@6B@
CONST	SEGMENT
??_7CXMasMonsterHerd@@6B@ DD FLAT:??_R4CXMasMonsterHerd@@6B@ ; CXMasMonsterHerd::`vftable'
	DD	FLAT:??_ECXMasMonsterHerd@@UAEPAXI@Z
	DD	FLAT:?SetTotalInfo@MonsterHerd@@UAEHHHHH@Z
	DD	FLAT:?AddMonster@MonsterHerd@@UAEHHHH@Z
	DD	FLAT:?SetRadius@MonsterHerd@@UAEXH@Z
	DD	FLAT:?SetPosition@MonsterHerd@@UAEXEE@Z
	DD	FLAT:?Start@CXMasMonsterHerd@@UAEHXZ
	DD	FLAT:?Stop@MonsterHerd@@UAEXXZ
	DD	FLAT:?CheckInRadius@MonsterHerd@@UAEHH@Z
	DD	FLAT:?GetCurrentLocation@MonsterHerd@@UAEHAAE0@Z
	DD	FLAT:?GetRandomLocation@MonsterHerd@@UAEHAAE0@Z
	DD	FLAT:?CheckLocation@MonsterHerd@@UAEHAAE0@Z
	DD	FLAT:?MoveHerd@MonsterHerd@@UAEHEE@Z
	DD	FLAT:?MonsterHerdItemDrop@CXMasMonsterHerd@@UAEHPAUOBJECTSTRUCT@@@Z
	DD	FLAT:?GetMonsterData@MonsterHerd@@UAEPAU_MONSTER_HERD_DATA@@H@Z
	DD	FLAT:?BeenAttacked@MonsterHerd@@UAEXPAUOBJECTSTRUCT@@0@Z
	DD	FLAT:?OrderAttack@MonsterHerd@@UAEXPAUOBJECTSTRUCT@@0H@Z
	DD	FLAT:?MonsterBaseAct@MonsterHerd@@UAEXPAUOBJECTSTRUCT@@@Z
	DD	FLAT:?MonsterMoveAction@MonsterHerd@@UAEXPAUOBJECTSTRUCT@@@Z
	DD	FLAT:?MonsterAttackAction@MonsterHerd@@UAEXPAUOBJECTSTRUCT@@0@Z
	DD	FLAT:?MonsterDieAction@MonsterHerd@@UAEXPAUOBJECTSTRUCT@@@Z
	DD	FLAT:?MonsterRegenAction@MonsterHerd@@UAEHPAUOBJECTSTRUCT@@@Z
; Function compile flags: /Ogtp
CONST	ENDS
;	COMDAT ??0CXMasMonsterHerd@@QAE@XZ
_TEXT	SEGMENT
??0CXMasMonsterHerd@@QAE@XZ PROC			; CXMasMonsterHerd::CXMasMonsterHerd, COMDAT
; _this$ = ecx

; 17   : {

  00000	56		 push	 esi
  00001	8b f1		 mov	 esi, ecx
  00003	e8 00 00 00 00	 call	 ??0MonsterHerd@@QAE@XZ	; MonsterHerd::MonsterHerd
  00008	c7 06 00 00 00
	00		 mov	 DWORD PTR [esi], OFFSET ??_7CXMasMonsterHerd@@6B@

; 18   : 	return;
; 19   : }

  0000e	8b c6		 mov	 eax, esi
  00010	5e		 pop	 esi
  00011	c3		 ret	 0
??0CXMasMonsterHerd@@QAE@XZ ENDP			; CXMasMonsterHerd::CXMasMonsterHerd
_TEXT	ENDS
PUBLIC	??1CXMasMonsterHerd@@UAE@XZ			; CXMasMonsterHerd::~CXMasMonsterHerd
EXTRN	??1MonsterHerd@@UAE@XZ:PROC			; MonsterHerd::~MonsterHerd
; Function compile flags: /Ogtp
;	COMDAT ??1CXMasMonsterHerd@@UAE@XZ
_TEXT	SEGMENT
??1CXMasMonsterHerd@@UAE@XZ PROC			; CXMasMonsterHerd::~CXMasMonsterHerd, COMDAT
; _this$ = ecx

; 22   : {

  00000	c7 01 00 00 00
	00		 mov	 DWORD PTR [ecx], OFFSET ??_7CXMasMonsterHerd@@6B@

; 23   : 	return;
; 24   : }

  00006	e9 00 00 00 00	 jmp	 ??1MonsterHerd@@UAE@XZ	; MonsterHerd::~MonsterHerd
??1CXMasMonsterHerd@@UAE@XZ ENDP			; CXMasMonsterHerd::~CXMasMonsterHerd
_TEXT	ENDS
EXTRN	?Start@MonsterHerd@@UAEHXZ:PROC			; MonsterHerd::Start
; Function compile flags: /Ogtp
;	COMDAT ?Start@CXMasMonsterHerd@@UAEHXZ
_TEXT	SEGMENT
?Start@CXMasMonsterHerd@@UAEHXZ PROC			; CXMasMonsterHerd::Start, COMDAT
; _this$ = ecx

; 28   : 	return this->MonsterHerd::Start();

  00000	e9 00 00 00 00	 jmp	 ?Start@MonsterHerd@@UAEHXZ ; MonsterHerd::Start
?Start@CXMasMonsterHerd@@UAEHXZ ENDP			; CXMasMonsterHerd::Start
_TEXT	ENDS
PUBLIC	??_C@_0DE@HBJLJHOD@?$FLXMasAttackEvent?$FN?5White?5Wizard?5K@ ; `string'
EXTRN	?MoneyItemDrop@MapClass@@QAEHHHH@Z:PROC		; MapClass::MoneyItemDrop
EXTRN	?MapC@@3PAVMapClass@@A:BYTE			; MapC
EXTRN	?g_iXMasAttackEventDropZen@@3HA:DWORD		; g_iXMasAttackEventDropZen
EXTRN	?ItemSerialCreateSend@@YAXHEEEHEEEEEHEE@Z:PROC	; ItemSerialCreateSend
EXTRN	?ItemGetNumberMake@@YAHHH@Z:PROC		; ItemGetNumberMake
EXTRN	?gObjMonsterTopHitDamageUser@@YAHPAUOBJECTSTRUCT@@@Z:PROC ; gObjMonsterTopHitDamageUser
EXTRN	?g_iXMasAttackEventDropRate@@3HA:DWORD		; g_iXMasAttackEventDropRate
EXTRN	?LogAddTD@@3P6AXPADZZA:DWORD			; LogAddTD
EXTRN	?gObjGiveRewardBuff@@YAHPAUOBJECTSTRUCT@@HPAHHEHEHH@Z:PROC ; gObjGiveRewardBuff
EXTRN	_rand:PROC
;	COMDAT ??_C@_0DE@HBJLJHOD@?$FLXMasAttackEvent?$FN?5White?5Wizard?5K@
CONST	SEGMENT
??_C@_0DE@HBJLJHOD@?$FLXMasAttackEvent?$FN?5White?5Wizard?5K@ DB '[XMasAt'
	DB	'tackEvent] White Wizard Killed, MapNumber:%d', 00H ; `string'
; Function compile flags: /Ogtp
CONST	ENDS
;	COMDAT ?MonsterHerdItemDrop@CXMasMonsterHerd@@UAEHPAUOBJECTSTRUCT@@@Z
_TEXT	SEGMENT
_count$213230 = 8					; size = 4
_lpObj$ = 8						; size = 4
?MonsterHerdItemDrop@CXMasMonsterHerd@@UAEHPAUOBJECTSTRUCT@@@Z PROC ; CXMasMonsterHerd::MonsterHerdItemDrop, COMDAT
; _this$ = ecx

; 32   : {

  00000	55		 push	 ebp
  00001	8b ec		 mov	 ebp, esp
  00003	56		 push	 esi

; 33   : 	if ( lpObj->Class != 476 && lpObj->Class != 466 )

  00004	8b 75 08	 mov	 esi, DWORD PTR _lpObj$[ebp]
  00007	0f b7 86 b8 00
	00 00		 movzx	 eax, WORD PTR [esi+184]
  0000e	b9 dc 01 00 00	 mov	 ecx, 476		; 000001dcH
  00013	66 3b c1	 cmp	 ax, cx
  00016	74 11		 je	 SHORT $LN11@MonsterHer
  00018	ba d2 01 00 00	 mov	 edx, 466		; 000001d2H
  0001d	66 3b c2	 cmp	 ax, dx
  00020	74 07		 je	 SHORT $LN11@MonsterHer

; 34   : 	{
; 35   : 		return FALSE;

  00022	33 c0		 xor	 eax, eax
  00024	5e		 pop	 esi

; 93   : 
; 94   : }

  00025	5d		 pop	 ebp
  00026	c2 04 00	 ret	 4
$LN11@MonsterHer:
  00029	57		 push	 edi

; 36   : 	}
; 37   : 
; 38   : 	if ( lpObj->Class == 476 )

  0002a	66 3b c1	 cmp	 ax, cx
  0002d	0f 85 cd 00 00
	00		 jne	 $LN10@MonsterHer

; 39   : 	{
; 40   : 		int count = 0;

  00033	c7 45 08 00 00
	00 00		 mov	 DWORD PTR _count$213230[ebp], 0

; 41   : 
; 42   : 		int irandreward = rand()%3; //loc3

  0003a	e8 00 00 00 00	 call	 _rand
  0003f	99		 cdq
  00040	b9 03 00 00 00	 mov	 ecx, 3
  00045	f7 f9		 idiv	 ecx

; 43   : 
; 44   : 		switch(irandreward)

  00047	83 ea 00	 sub	 edx, 0
  0004a	74 34		 je	 SHORT $LN7@MonsterHer
  0004c	4a		 dec	 edx
  0004d	74 19		 je	 SHORT $LN4@MonsterHer
  0004f	4a		 dec	 edx
  00050	0f 85 89 00 00
	00		 jne	 $LN8@MonsterHer

; 68   : 		case 2:
; 69   : 			gObjGiveRewardBuff(lpObj, 10, &count, AT_XMASS_MANA, 5, 500, 0, 0, 1800);

  00056	68 08 07 00 00	 push	 1800			; 00000708H
  0005b	52		 push	 edx
  0005c	52		 push	 edx
  0005d	68 f4 01 00 00	 push	 500			; 000001f4H
  00062	6a 05		 push	 5
  00064	6a 5d		 push	 93			; 0000005dH

; 70   : 			break;

  00066	eb 68		 jmp	 SHORT $LN15@MonsterHer
$LN4@MonsterHer:

; 63   : 			}
; 64   : 			break;
; 65   : 		case 1:
; 66   : 			gObjGiveRewardBuff(lpObj, 10, &count, AT_XMASS_HEALTH, 4, 500, 0, 0, 1800);

  00068	68 08 07 00 00	 push	 1800			; 00000708H
  0006d	6a 00		 push	 0
  0006f	6a 00		 push	 0
  00071	68 f4 01 00 00	 push	 500			; 000001f4H
  00076	6a 04		 push	 4
  00078	6a 5c		 push	 92			; 0000005cH
  0007a	8d 45 08	 lea	 eax, DWORD PTR _count$213230[ebp]
  0007d	50		 push	 eax

; 67   : 			break;

  0007e	eb 54		 jmp	 SHORT $LN16@MonsterHer
$LN7@MonsterHer:

; 45   : 		{
; 46   : 		case 0:
; 47   : 			{
; 48   : 				int iAttack = 0; //4
; 49   : 				int iDefense = 0; //5
; 50   : 
; 51   : 				if(lpObj->Level <= 180)

  00080	b9 b4 00 00 00	 mov	 ecx, 180		; 000000b4H
  00085	66 39 8e be 00
	00 00		 cmp	 WORD PTR [esi+190], cx
  0008c	7f 2b		 jg	 SHORT $LN6@MonsterHer

; 52   : 				{
; 53   : 					iAttack = lpObj->Level / 3 + 45;

  0008e	0f bf 8e be 00
	00 00		 movsx	 ecx, WORD PTR [esi+190]
  00095	b8 56 55 55 55	 mov	 eax, 1431655766		; 55555556H
  0009a	f7 e9		 imul	 ecx
  0009c	8b c2		 mov	 eax, edx
  0009e	c1 e8 1f	 shr	 eax, 31			; 0000001fH
  000a1	8d 7c 02 2d	 lea	 edi, DWORD PTR [edx+eax+45]

; 54   : 					iDefense = lpObj->Level / 5 + 50;

  000a5	b8 67 66 66 66	 mov	 eax, 1717986919		; 66666667H
  000aa	f7 e9		 imul	 ecx
  000ac	d1 fa		 sar	 edx, 1
  000ae	8b ca		 mov	 ecx, edx
  000b0	c1 e9 1f	 shr	 ecx, 31			; 0000001fH
  000b3	8d 44 0a 32	 lea	 eax, DWORD PTR [edx+ecx+50]

; 55   : 				}
; 56   : 				else

  000b7	eb 0a		 jmp	 SHORT $LN5@MonsterHer
$LN6@MonsterHer:

; 57   : 				{
; 58   : 					iAttack = 105;

  000b9	bf 69 00 00 00	 mov	 edi, 105		; 00000069H

; 59   : 					iDefense = 86;

  000be	b8 56 00 00 00	 mov	 eax, 86			; 00000056H
$LN5@MonsterHer:

; 60   : 				}
; 61   : 
; 62   : 				gObjGiveRewardBuff(lpObj, 10, &count, AT_XMASS_REWARD, 2, iAttack, 3, iDefense, 1800);

  000c3	68 08 07 00 00	 push	 1800			; 00000708H
  000c8	50		 push	 eax
  000c9	6a 03		 push	 3
  000cb	57		 push	 edi
  000cc	6a 02		 push	 2
  000ce	6a 5b		 push	 91			; 0000005bH
$LN15@MonsterHer:
  000d0	8d 55 08	 lea	 edx, DWORD PTR _count$213230[ebp]
  000d3	52		 push	 edx
$LN16@MonsterHer:
  000d4	6a 0a		 push	 10			; 0000000aH
  000d6	56		 push	 esi
  000d7	e8 00 00 00 00	 call	 ?gObjGiveRewardBuff@@YAHPAUOBJECTSTRUCT@@HPAHHEHEHH@Z ; gObjGiveRewardBuff
  000dc	83 c4 24	 add	 esp, 36			; 00000024H
$LN8@MonsterHer:

; 71   : 		};
; 72   : 
; 73   : 		LogAddTD("[XMasAttackEvent] White Wizard Killed, MapNumber:%d", lpObj->MapNumber);

  000df	0f b6 86 49 01
	00 00		 movzx	 eax, BYTE PTR [esi+329]
  000e6	50		 push	 eax
  000e7	68 00 00 00 00	 push	 OFFSET ??_C@_0DE@HBJLJHOD@?$FLXMasAttackEvent?$FN?5White?5Wizard?5K@
  000ec	ff 15 00 00 00
	00		 call	 DWORD PTR ?LogAddTD@@3P6AXPADZZA ; LogAddTD
  000f2	83 c4 08	 add	 esp, 8
  000f5	5f		 pop	 edi

; 74   : 		return TRUE;

  000f6	b8 01 00 00 00	 mov	 eax, 1
  000fb	5e		 pop	 esi

; 93   : 
; 94   : }

  000fc	5d		 pop	 ebp
  000fd	c2 04 00	 ret	 4
$LN10@MonsterHer:

; 75   : 	}
; 76   : 	
; 77   : 	if ( lpObj->Class == 466 )

  00100	b9 d2 01 00 00	 mov	 ecx, 466		; 000001d2H
  00105	66 3b c1	 cmp	 ax, cx
  00108	0f 85 9e 00 00
	00		 jne	 $LN2@MonsterHer

; 78   : 	{
; 79   : 		if ( (rand()%100) < g_iXMasAttackEventDropRate )

  0010e	e8 00 00 00 00	 call	 _rand
  00113	99		 cdq
  00114	b9 64 00 00 00	 mov	 ecx, 100		; 00000064H
  00119	f7 f9		 idiv	 ecx
  0011b	3b 15 00 00 00
	00		 cmp	 edx, DWORD PTR ?g_iXMasAttackEventDropRate@@3HA ; g_iXMasAttackEventDropRate
  00121	7d 4f		 jge	 SHORT $LN1@MonsterHer

; 80   : 		{
; 81   : 			int iIndex = gObjMonsterTopHitDamageUser(lpObj);

  00123	56		 push	 esi
  00124	e8 00 00 00 00	 call	 ?gObjMonsterTopHitDamageUser@@YAHPAUOBJECTSTRUCT@@@Z ; gObjMonsterTopHitDamageUser

; 82   : 			int itemnumber = ItemGetNumberMake(13, 66);

  00129	6a 42		 push	 66			; 00000042H
  0012b	6a 0d		 push	 13			; 0000000dH
  0012d	8b f8		 mov	 edi, eax
  0012f	e8 00 00 00 00	 call	 ?ItemGetNumberMake@@YAHHH@Z ; ItemGetNumberMake

; 83   : 
; 84   : 			ItemSerialCreateSend(lpObj->m_Index, lpObj->MapNumber, (BYTE)lpObj->X, (BYTE)lpObj->Y, itemnumber, 0, 10, 0, 0, 0, iIndex, 0, 0);

  00134	0f b6 96 46 01
	00 00		 movzx	 edx, BYTE PTR [esi+326]
  0013b	0f b6 8e 49 01
	00 00		 movzx	 ecx, BYTE PTR [esi+329]
  00142	6a 00		 push	 0
  00144	6a 00		 push	 0
  00146	57		 push	 edi
  00147	6a 00		 push	 0
  00149	6a 00		 push	 0
  0014b	6a 00		 push	 0
  0014d	6a 0a		 push	 10			; 0000000aH
  0014f	6a 00		 push	 0
  00151	50		 push	 eax
  00152	0f b6 86 44 01
	00 00		 movzx	 eax, BYTE PTR [esi+324]
  00159	52		 push	 edx
  0015a	8b 16		 mov	 edx, DWORD PTR [esi]
  0015c	50		 push	 eax
  0015d	51		 push	 ecx
  0015e	52		 push	 edx
  0015f	e8 00 00 00 00	 call	 ?ItemSerialCreateSend@@YAXHEEEHEEEEEHEE@Z ; ItemSerialCreateSend
  00164	83 c4 40	 add	 esp, 64			; 00000040H
  00167	5f		 pop	 edi

; 85   : 			return TRUE;

  00168	b8 01 00 00 00	 mov	 eax, 1
  0016d	5e		 pop	 esi

; 93   : 
; 94   : }

  0016e	5d		 pop	 ebp
  0016f	c2 04 00	 ret	 4
$LN1@MonsterHer:

; 86   : 		}
; 87   : 
; 88   : 		MapC[lpObj->MapNumber].MoneyItemDrop(g_iXMasAttackEventDropZen, (BYTE)lpObj->X, (BYTE)lpObj->Y);

  00172	0f b6 86 46 01
	00 00		 movzx	 eax, BYTE PTR [esi+326]
  00179	0f b6 8e 44 01
	00 00		 movzx	 ecx, BYTE PTR [esi+324]
  00180	8b 15 00 00 00
	00		 mov	 edx, DWORD PTR ?g_iXMasAttackEventDropZen@@3HA ; g_iXMasAttackEventDropZen
  00186	50		 push	 eax
  00187	51		 push	 ecx
  00188	0f b6 8e 49 01
	00 00		 movzx	 ecx, BYTE PTR [esi+329]
  0018f	69 c9 48 3d 05
	00		 imul	 ecx, 343368		; 00053d48H
  00195	52		 push	 edx
  00196	81 c1 00 00 00
	00		 add	 ecx, OFFSET ?MapC@@3PAVMapClass@@A ; MapC
  0019c	e8 00 00 00 00	 call	 ?MoneyItemDrop@MapClass@@QAEHHHH@Z ; MapClass::MoneyItemDrop
  001a1	5f		 pop	 edi

; 89   : 		return TRUE;

  001a2	b8 01 00 00 00	 mov	 eax, 1
  001a7	5e		 pop	 esi

; 93   : 
; 94   : }

  001a8	5d		 pop	 ebp
  001a9	c2 04 00	 ret	 4
$LN2@MonsterHer:
  001ac	5f		 pop	 edi

; 90   : 	}
; 91   : 
; 92   : 	return FALSE;

  001ad	33 c0		 xor	 eax, eax
  001af	5e		 pop	 esi

; 93   : 
; 94   : }

  001b0	5d		 pop	 ebp
  001b1	c2 04 00	 ret	 4
?MonsterHerdItemDrop@CXMasMonsterHerd@@UAEHPAUOBJECTSTRUCT@@@Z ENDP ; CXMasMonsterHerd::MonsterHerdItemDrop
_TEXT	ENDS
PUBLIC	?ProcState_None@CXMasAttackEvent@@QAEXXZ	; CXMasAttackEvent::ProcState_None
; Function compile flags: /Ogtp
;	COMDAT ?ProcState_None@CXMasAttackEvent@@QAEXXZ
_TEXT	SEGMENT
?ProcState_None@CXMasAttackEvent@@QAEXXZ PROC		; CXMasAttackEvent::ProcState_None, COMDAT
; _this$ = ecx

; 378  : 	return;
; 379  : }

  00000	c3		 ret	 0
?ProcState_None@CXMasAttackEvent@@QAEXXZ ENDP		; CXMasAttackEvent::ProcState_None
_TEXT	ENDS
PUBLIC	__$ArrayPad$
PUBLIC	?SendMessageA@CXMasAttackEvent@@QAEXPADH@Z	; CXMasAttackEvent::SendMessageA
EXTRN	?DataSendAll@@YAXPAEH@Z:PROC			; DataSendAll
EXTRN	?PHeadSetB@@YAXPAEEH@Z:PROC			; PHeadSetB
EXTRN	?AllSendServerMsg@@YAXPAD@Z:PROC		; AllSendServerMsg
EXTRN	__imp__wsprintfA:PROC
; Function compile flags: /Ogtp
;	COMDAT ?SendMessageA@CXMasAttackEvent@@QAEXPADH@Z
_TEXT	SEGMENT
_pMsg$ = -268						; size = 6
_szTemp$ = -260						; size = 256
__$ArrayPad$ = -4					; size = 4
_lpMsg$ = 8						; size = 4
_Effect$ = 12						; size = 4
?SendMessageA@CXMasAttackEvent@@QAEXPADH@Z PROC		; CXMasAttackEvent::SendMessageA, COMDAT
; _this$ = ecx

; 423  : {

  00000	55		 push	 ebp
  00001	8b ec		 mov	 ebp, esp
  00003	81 ec 0c 01 00
	00		 sub	 esp, 268		; 0000010cH
  00009	a1 00 00 00 00	 mov	 eax, DWORD PTR ___security_cookie
  0000e	33 c5		 xor	 eax, ebp
  00010	89 45 fc	 mov	 DWORD PTR __$ArrayPad$[ebp], eax
  00013	8b 45 08	 mov	 eax, DWORD PTR _lpMsg$[ebp]

; 424  : 	char szTemp[256];
; 425  : 
; 426  : 	wsprintf(szTemp, lpMsg);

  00016	50		 push	 eax
  00017	8d 85 fc fe ff
	ff		 lea	 eax, DWORD PTR _szTemp$[ebp]
  0001d	50		 push	 eax
  0001e	ff 15 00 00 00
	00		 call	 DWORD PTR __imp__wsprintfA

; 427  : 	AllSendServerMsg(szTemp);

  00024	8d 8d fc fe ff
	ff		 lea	 ecx, DWORD PTR _szTemp$[ebp]
  0002a	51		 push	 ecx
  0002b	e8 00 00 00 00	 call	 ?AllSendServerMsg@@YAXPAD@Z ; AllSendServerMsg

; 428  : 
; 429  : 	PMSG_ANS_CL_EFFECT pMsg;
; 430  : 
; 431  : 	PHeadSetB((LPBYTE)&pMsg, 0x9E, sizeof(pMsg));

  00030	6a 06		 push	 6
  00032	8d 95 f4 fe ff
	ff		 lea	 edx, DWORD PTR _pMsg$[ebp]
  00038	68 9e 00 00 00	 push	 158			; 0000009eH
  0003d	52		 push	 edx
  0003e	e8 00 00 00 00	 call	 ?PHeadSetB@@YAXPAEEH@Z	; PHeadSetB

; 432  : 	pMsg.wEffectNum = Effect;
; 433  : 
; 434  : 	DataSendAll((LPBYTE)&pMsg, pMsg.h.size);

  00043	0f b6 8d f5 fe
	ff ff		 movzx	 ecx, BYTE PTR _pMsg$[ebp+1]
  0004a	66 8b 45 0c	 mov	 ax, WORD PTR _Effect$[ebp]
  0004e	51		 push	 ecx
  0004f	8d 95 f4 fe ff
	ff		 lea	 edx, DWORD PTR _pMsg$[ebp]
  00055	52		 push	 edx
  00056	66 89 85 f8 fe
	ff ff		 mov	 WORD PTR _pMsg$[ebp+4], ax
  0005d	e8 00 00 00 00	 call	 ?DataSendAll@@YAXPAEH@Z	; DataSendAll

; 435  : }

  00062	8b 4d fc	 mov	 ecx, DWORD PTR __$ArrayPad$[ebp]
  00065	33 cd		 xor	 ecx, ebp
  00067	83 c4 20	 add	 esp, 32			; 00000020H
  0006a	e8 00 00 00 00	 call	 @__security_check_cookie@4
  0006f	8b e5		 mov	 esp, ebp
  00071	5d		 pop	 ebp
  00072	c2 08 00	 ret	 8
?SendMessageA@CXMasAttackEvent@@QAEXPADH@Z ENDP		; CXMasAttackEvent::SendMessageA
_TEXT	ENDS
PUBLIC	?GetX@CXMasMonsterHerd@@QAEEXZ			; CXMasMonsterHerd::GetX
; Function compile flags: /Ogtp
;	COMDAT ?GetX@CXMasMonsterHerd@@QAEEXZ
_TEXT	SEGMENT
?GetX@CXMasMonsterHerd@@QAEEXZ PROC			; CXMasMonsterHerd::GetX, COMDAT
; _this$ = ecx

; 526  : 	return this->m_iCUR_X;

  00000	8a 41 0c	 mov	 al, BYTE PTR [ecx+12]

; 527  : }

  00003	c3		 ret	 0
?GetX@CXMasMonsterHerd@@QAEEXZ ENDP			; CXMasMonsterHerd::GetX
_TEXT	ENDS
PUBLIC	?GetY@CXMasMonsterHerd@@QAEEXZ			; CXMasMonsterHerd::GetY
; Function compile flags: /Ogtp
;	COMDAT ?GetY@CXMasMonsterHerd@@QAEEXZ
_TEXT	SEGMENT
?GetY@CXMasMonsterHerd@@QAEEXZ PROC			; CXMasMonsterHerd::GetY, COMDAT
; _this$ = ecx

; 531  : 	return this->m_iCUR_Y;

  00000	8a 41 10	 mov	 al, BYTE PTR [ecx+16]

; 532  : }

  00003	c3		 ret	 0
?GetY@CXMasMonsterHerd@@QAEEXZ ENDP			; CXMasMonsterHerd::GetY
_TEXT	ENDS
PUBLIC	?GetMapNumber@CXMasMonsterHerd@@QAEHXZ		; CXMasMonsterHerd::GetMapNumber
; Function compile flags: /Ogtp
;	COMDAT ?GetMapNumber@CXMasMonsterHerd@@QAEHXZ
_TEXT	SEGMENT
?GetMapNumber@CXMasMonsterHerd@@QAEHXZ PROC		; CXMasMonsterHerd::GetMapNumber, COMDAT
; _this$ = ecx

; 536  : 	return this->m_iMapNumber;

  00000	8b 41 08	 mov	 eax, DWORD PTR [ecx+8]

; 537  : }

  00003	c3		 ret	 0
?GetMapNumber@CXMasMonsterHerd@@QAEHXZ ENDP		; CXMasMonsterHerd::GetMapNumber
_TEXT	ENDS
PUBLIC	?SetState_None@CXMasAttackEvent@@QAEXXZ		; CXMasAttackEvent::SetState_None
; Function compile flags: /Ogtp
;	COMDAT ?SetState_None@CXMasAttackEvent@@QAEXXZ
_TEXT	SEGMENT
?SetState_None@CXMasAttackEvent@@QAEXXZ PROC		; CXMasAttackEvent::SetState_None, COMDAT
; _this$ = ecx

; 541  : 	this->StopEvent();

  00000	8b 01		 mov	 eax, DWORD PTR [ecx]
  00002	8b 50 0c	 mov	 edx, DWORD PTR [eax+12]
  00005	ff e2		 jmp	 edx
?SetState_None@CXMasAttackEvent@@QAEXXZ ENDP		; CXMasAttackEvent::SetState_None
_TEXT	ENDS
PUBLIC	?SetState_Playing@CXMasAttackEvent@@QAEXXZ	; CXMasAttackEvent::SetState_Playing
EXTRN	?SetMiliSeconds@CEventTimer@@QAEXH@Z:PROC	; CEventTimer::SetMiliSeconds
; Function compile flags: /Ogtp
;	COMDAT ?SetState_Playing@CXMasAttackEvent@@QAEXXZ
_TEXT	SEGMENT
?SetState_Playing@CXMasAttackEvent@@QAEXXZ PROC		; CXMasAttackEvent::SetState_Playing, COMDAT
; _this$ = ecx

; 559  : {

  00000	56		 push	 esi
  00001	8b f1		 mov	 esi, ecx

; 560  : 	this->m_EventTimer.SetMiliSeconds(this->m_iTIME_MIN_PLAY);

  00003	8b 86 84 00 00
	00		 mov	 eax, DWORD PTR [esi+132]
  00009	50		 push	 eax
  0000a	8d 4e 58	 lea	 ecx, DWORD PTR [esi+88]
  0000d	e8 00 00 00 00	 call	 ?SetMiliSeconds@CEventTimer@@QAEXH@Z ; CEventTimer::SetMiliSeconds

; 561  : 	this->StartEvent();

  00012	8b 16		 mov	 edx, DWORD PTR [esi]
  00014	8b 42 08	 mov	 eax, DWORD PTR [edx+8]
  00017	8b ce		 mov	 ecx, esi
  00019	5e		 pop	 esi
  0001a	ff e0		 jmp	 eax
?SetState_Playing@CXMasAttackEvent@@QAEXXZ ENDP		; CXMasAttackEvent::SetState_Playing
_TEXT	ENDS
PUBLIC	?EventLog@CXMasAttackEvent@@QAEXPADHEE@Z	; CXMasAttackEvent::EventLog
; Function compile flags: /Ogtp
;	COMDAT ?EventLog@CXMasAttackEvent@@QAEXPADHEE@Z
_TEXT	SEGMENT
_Msg$ = 8						; size = 4
_MapNumber$ = 12					; size = 4
_cX$ = 16						; size = 1
_cY$ = 20						; size = 1
?EventLog@CXMasAttackEvent@@QAEXPADHEE@Z PROC		; CXMasAttackEvent::EventLog, COMDAT
; _this$ = ecx

; 604  : }

  00000	c2 10 00	 ret	 16			; 00000010H
?EventLog@CXMasAttackEvent@@QAEXPADHEE@Z ENDP		; CXMasAttackEvent::EventLog
_TEXT	ENDS
PUBLIC	?MonsterHerdMoveCheck@CXMasAttackEvent@@QAEHPAVCXMasMonsterHerd@@PAUXMASMONSTER_MAP_INFO@@@Z ; CXMasAttackEvent::MonsterHerdMoveCheck
; Function compile flags: /Ogtp
;	COMDAT ?MonsterHerdMoveCheck@CXMasAttackEvent@@QAEHPAVCXMasMonsterHerd@@PAUXMASMONSTER_MAP_INFO@@@Z
_TEXT	SEGMENT
_iRandY$ = -16						; size = 1
_iRandX$ = -12						; size = 1
_iCount$ = -8						; size = 4
_iCY$ = -2						; size = 1
_iCX$ = -1						; size = 1
_vtHerdInfo$ = 8					; size = 4
_MonsterMapInfo$ = 12					; size = 4
?MonsterHerdMoveCheck@CXMasAttackEvent@@QAEHPAVCXMasMonsterHerd@@PAUXMASMONSTER_MAP_INFO@@@Z PROC ; CXMasAttackEvent::MonsterHerdMoveCheck, COMDAT
; _this$ = ecx

; 657  : {

  00000	55		 push	 ebp
  00001	8b ec		 mov	 ebp, esp
  00003	83 ec 10	 sub	 esp, 16			; 00000010H
  00006	57		 push	 edi
  00007	8b f9		 mov	 edi, ecx

; 658  : 	int iCount = 1000; //2
; 659  : 	BYTE iRandX; //3
; 660  : 	BYTE iRandY; //4
; 661  : 	BYTE iCX; //5
; 662  : 	BYTE iCY; //6
; 663  : 
; 664  : 	if(vtHerdInfo->GetCurrentLocation(iCX, iCY) == FALSE)

  00009	8b 4d 08	 mov	 ecx, DWORD PTR _vtHerdInfo$[ebp]
  0000c	8b 01		 mov	 eax, DWORD PTR [ecx]
  0000e	8b 40 20	 mov	 eax, DWORD PTR [eax+32]
  00011	8d 55 fe	 lea	 edx, DWORD PTR _iCY$[ebp]
  00014	52		 push	 edx
  00015	8d 55 ff	 lea	 edx, DWORD PTR _iCX$[ebp]
  00018	52		 push	 edx
  00019	c7 45 f8 e8 03
	00 00		 mov	 DWORD PTR _iCount$[ebp], 1000 ; 000003e8H
  00020	ff d0		 call	 eax
  00022	85 c0		 test	 eax, eax
  00024	75 07		 jne	 SHORT $LN17@MonsterHer@2
  00026	5f		 pop	 edi

; 688  : }

  00027	8b e5		 mov	 esp, ebp
  00029	5d		 pop	 ebp
  0002a	c2 08 00	 ret	 8
$LN17@MonsterHer@2:
  0002d	53		 push	 ebx
  0002e	56		 push	 esi

; 665  : 	{
; 666  : 		return FALSE;

  0002f	8b 75 0c	 mov	 esi, DWORD PTR _MonsterMapInfo$[ebp]
$LL7@MonsterHer@2:

; 667  : 	}
; 668  : 
; 669  : 	while(iCount-- != 0)

  00032	ff 4d f8	 dec	 DWORD PTR _iCount$[ebp]

; 670  : 	{
; 671  : 		iRandX = (rand() % this->m_iMOVE_RAND_SIZE) * ( (rand() % 3 -1) * -1 ) + iCX;

  00035	e8 00 00 00 00	 call	 _rand
  0003a	99		 cdq
  0003b	f7 7f 74	 idiv	 DWORD PTR [edi+116]
  0003e	8b da		 mov	 ebx, edx
  00040	e8 00 00 00 00	 call	 _rand
  00045	99		 cdq
  00046	b9 03 00 00 00	 mov	 ecx, 3
  0004b	f7 f9		 idiv	 ecx
  0004d	8b c2		 mov	 eax, edx
  0004f	8a 55 ff	 mov	 dl, BYTE PTR _iCX$[ebp]
  00052	fe c8		 dec	 al
  00054	f6 eb		 imul	 bl
  00056	2a d0		 sub	 dl, al
  00058	88 55 f4	 mov	 BYTE PTR _iRandX$[ebp], dl

; 672  : 		iRandY = (rand() % this->m_iMOVE_RAND_SIZE) * ( (rand() % 3 -1) * -1 ) + iCY;

  0005b	e8 00 00 00 00	 call	 _rand
  00060	99		 cdq
  00061	f7 7f 74	 idiv	 DWORD PTR [edi+116]
  00064	8b da		 mov	 ebx, edx
  00066	e8 00 00 00 00	 call	 _rand
  0006b	99		 cdq
  0006c	b9 03 00 00 00	 mov	 ecx, 3
  00071	f7 f9		 idiv	 ecx
  00073	8a 4d fe	 mov	 cl, BYTE PTR _iCY$[ebp]
  00076	8b c2		 mov	 eax, edx
  00078	fe c8		 dec	 al
  0007a	f6 eb		 imul	 bl
  0007c	2a c8		 sub	 cl, al

; 673  : 
; 674  : 		if ( iRandX < MonsterMapInfo->m_iMinX || iRandX > MonsterMapInfo->m_iMaxX )

  0007e	0f b6 45 f4	 movzx	 eax, BYTE PTR _iRandX$[ebp]
  00082	88 4d f0	 mov	 BYTE PTR _iRandY$[ebp], cl
  00085	3b 46 04	 cmp	 eax, DWORD PTR [esi+4]
  00088	7c 2a		 jl	 SHORT $LN2@MonsterHer@2
  0008a	3b 46 0c	 cmp	 eax, DWORD PTR [esi+12]
  0008d	7f 25		 jg	 SHORT $LN2@MonsterHer@2

; 675  : 			continue;
; 676  : 
; 677  : 		if ( iRandY < MonsterMapInfo->m_iMinY || iRandY > MonsterMapInfo->m_iMaxY )

  0008f	0f b6 c1	 movzx	 eax, cl
  00092	3b 46 08	 cmp	 eax, DWORD PTR [esi+8]
  00095	7c 1d		 jl	 SHORT $LN2@MonsterHer@2
  00097	3b 46 10	 cmp	 eax, DWORD PTR [esi+16]
  0009a	7f 18		 jg	 SHORT $LN2@MonsterHer@2

; 678  : 			continue;
; 679  : 
; 680  : 		if ( vtHerdInfo->CheckLocation(iRandX, iRandY) != FALSE )

  0009c	8b 5d 08	 mov	 ebx, DWORD PTR _vtHerdInfo$[ebp]
  0009f	8b 13		 mov	 edx, DWORD PTR [ebx]
  000a1	8b 52 28	 mov	 edx, DWORD PTR [edx+40]
  000a4	8d 45 f0	 lea	 eax, DWORD PTR _iRandY$[ebp]
  000a7	50		 push	 eax
  000a8	8d 4d f4	 lea	 ecx, DWORD PTR _iRandX$[ebp]
  000ab	51		 push	 ecx
  000ac	8b cb		 mov	 ecx, ebx
  000ae	ff d2		 call	 edx
  000b0	85 c0		 test	 eax, eax
  000b2	75 0d		 jne	 SHORT $LN14@MonsterHer@2
$LN2@MonsterHer@2:

; 667  : 	}
; 668  : 
; 669  : 	while(iCount-- != 0)

  000b4	83 7d f8 00	 cmp	 DWORD PTR _iCount$[ebp], 0
  000b8	0f 85 74 ff ff
	ff		 jne	 $LL7@MonsterHer@2
  000be	8b 5d 08	 mov	 ebx, DWORD PTR _vtHerdInfo$[ebp]
$LN14@MonsterHer@2:

; 681  : 		{
; 682  : 			break;
; 683  : 		}
; 684  : 	}
; 685  : 
; 686  : 	vtHerdInfo->MoveHerd(iRandX, iRandY);

  000c1	8b 4d f0	 mov	 ecx, DWORD PTR _iRandY$[ebp]
  000c4	8b 03		 mov	 eax, DWORD PTR [ebx]
  000c6	8b 55 f4	 mov	 edx, DWORD PTR _iRandX$[ebp]
  000c9	8b 40 2c	 mov	 eax, DWORD PTR [eax+44]
  000cc	51		 push	 ecx
  000cd	52		 push	 edx
  000ce	8b cb		 mov	 ecx, ebx
  000d0	ff d0		 call	 eax
  000d2	5e		 pop	 esi
  000d3	5b		 pop	 ebx

; 687  : 	return TRUE;

  000d4	b8 01 00 00 00	 mov	 eax, 1
  000d9	5f		 pop	 edi

; 688  : }

  000da	8b e5		 mov	 esp, ebp
  000dc	5d		 pop	 ebp
  000dd	c2 08 00	 ret	 8
?MonsterHerdMoveCheck@CXMasAttackEvent@@QAEHPAVCXMasMonsterHerd@@PAUXMASMONSTER_MAP_INFO@@@Z ENDP ; CXMasAttackEvent::MonsterHerdMoveCheck
_TEXT	ENDS
PUBLIC	?End_Menual@CXMasAttackEvent@@UAEXXZ		; CXMasAttackEvent::End_Menual
; Function compile flags: /Ogtp
;	COMDAT ?End_Menual@CXMasAttackEvent@@UAEXXZ
_TEXT	SEGMENT
?End_Menual@CXMasAttackEvent@@UAEXXZ PROC		; CXMasAttackEvent::End_Menual, COMDAT
; _this$ = ecx

; 803  : 	this->SetMenualStart(FALSE);

  00000	8b 01		 mov	 eax, DWORD PTR [ecx]
  00002	8b 50 14	 mov	 edx, DWORD PTR [eax+20]
  00005	6a 00		 push	 0
  00007	ff d2		 call	 edx

; 804  : }

  00009	c3		 ret	 0
?End_Menual@CXMasAttackEvent@@UAEXXZ ENDP		; CXMasAttackEvent::End_Menual
_TEXT	ENDS
PUBLIC	?empty@?$vector@UXMASMONSTER_EVENT_TIME@@V?$allocator@UXMASMONSTER_EVENT_TIME@@@std@@@std@@QBE_NXZ ; std::vector<XMASMONSTER_EVENT_TIME,std::allocator<XMASMONSTER_EVENT_TIME> >::empty
; Function compile flags: /Ogtp
; File d:\program files (x86)\microsoft visual studio 10.0\vc\include\vector
;	COMDAT ?empty@?$vector@UXMASMONSTER_EVENT_TIME@@V?$allocator@UXMASMONSTER_EVENT_TIME@@@std@@@std@@QBE_NXZ
_TEXT	SEGMENT
?empty@?$vector@UXMASMONSTER_EVENT_TIME@@V?$allocator@UXMASMONSTER_EVENT_TIME@@@std@@@std@@QBE_NXZ PROC ; std::vector<XMASMONSTER_EVENT_TIME,std::allocator<XMASMONSTER_EVENT_TIME> >::empty, COMDAT
; _this$ = ecx

; 889  : 		return (this->_Myfirst == this->_Mylast);

  00000	8b 01		 mov	 eax, DWORD PTR [ecx]
  00002	33 d2		 xor	 edx, edx
  00004	3b 41 04	 cmp	 eax, DWORD PTR [ecx+4]
  00007	0f 94 c0	 sete	 al

; 890  : 		}

  0000a	c3		 ret	 0
?empty@?$vector@UXMASMONSTER_EVENT_TIME@@V?$allocator@UXMASMONSTER_EVENT_TIME@@@std@@@std@@QBE_NXZ ENDP ; std::vector<XMASMONSTER_EVENT_TIME,std::allocator<XMASMONSTER_EVENT_TIME> >::empty
_TEXT	ENDS
PUBLIC	?empty@?$vector@UXMASMONSTER_DATA@@V?$allocator@UXMASMONSTER_DATA@@@std@@@std@@QBE_NXZ ; std::vector<XMASMONSTER_DATA,std::allocator<XMASMONSTER_DATA> >::empty
; Function compile flags: /Ogtp
;	COMDAT ?empty@?$vector@UXMASMONSTER_DATA@@V?$allocator@UXMASMONSTER_DATA@@@std@@@std@@QBE_NXZ
_TEXT	SEGMENT
?empty@?$vector@UXMASMONSTER_DATA@@V?$allocator@UXMASMONSTER_DATA@@@std@@@std@@QBE_NXZ PROC ; std::vector<XMASMONSTER_DATA,std::allocator<XMASMONSTER_DATA> >::empty, COMDAT
; _this$ = ecx

; 889  : 		return (this->_Myfirst == this->_Mylast);

  00000	8b 01		 mov	 eax, DWORD PTR [ecx]
  00002	33 d2		 xor	 edx, edx
  00004	3b 41 04	 cmp	 eax, DWORD PTR [ecx+4]
  00007	0f 94 c0	 sete	 al

; 890  : 		}

  0000a	c3		 ret	 0
?empty@?$vector@UXMASMONSTER_DATA@@V?$allocator@UXMASMONSTER_DATA@@@std@@@std@@QBE_NXZ ENDP ; std::vector<XMASMONSTER_DATA,std::allocator<XMASMONSTER_DATA> >::empty
_TEXT	ENDS
PUBLIC	?size@?$vector@PAVCXMasMonsterHerd@@V?$allocator@PAVCXMasMonsterHerd@@@std@@@std@@QBEIXZ ; std::vector<CXMasMonsterHerd *,std::allocator<CXMasMonsterHerd *> >::size
; Function compile flags: /Ogtp
;	COMDAT ?size@?$vector@PAVCXMasMonsterHerd@@V?$allocator@PAVCXMasMonsterHerd@@@std@@@std@@QBEIXZ
_TEXT	SEGMENT
?size@?$vector@PAVCXMasMonsterHerd@@V?$allocator@PAVCXMasMonsterHerd@@@std@@@std@@QBEIXZ PROC ; std::vector<CXMasMonsterHerd *,std::allocator<CXMasMonsterHerd *> >::size, COMDAT
; _this$ = ecx

; 879  : 		return (this->_Mylast - this->_Myfirst);

  00000	8b 41 04	 mov	 eax, DWORD PTR [ecx+4]
  00003	2b 01		 sub	 eax, DWORD PTR [ecx]
  00005	c1 f8 02	 sar	 eax, 2

; 880  : 		}

  00008	c3		 ret	 0
?size@?$vector@PAVCXMasMonsterHerd@@V?$allocator@PAVCXMasMonsterHerd@@@std@@@std@@QBEIXZ ENDP ; std::vector<CXMasMonsterHerd *,std::allocator<CXMasMonsterHerd *> >::size
_TEXT	ENDS
PUBLIC	??A?$vector@PAVCXMasMonsterHerd@@V?$allocator@PAVCXMasMonsterHerd@@@std@@@std@@QAEAAPAVCXMasMonsterHerd@@I@Z ; std::vector<CXMasMonsterHerd *,std::allocator<CXMasMonsterHerd *> >::operator[]
; Function compile flags: /Ogtp
;	COMDAT ??A?$vector@PAVCXMasMonsterHerd@@V?$allocator@PAVCXMasMonsterHerd@@@std@@@std@@QAEAAPAVCXMasMonsterHerd@@I@Z
_TEXT	SEGMENT
__Pos$ = 8						; size = 4
??A?$vector@PAVCXMasMonsterHerd@@V?$allocator@PAVCXMasMonsterHerd@@@std@@@std@@QAEAAPAVCXMasMonsterHerd@@I@Z PROC ; std::vector<CXMasMonsterHerd *,std::allocator<CXMasMonsterHerd *> >::operator[], COMDAT
; _this$ = ecx

; 928  : 		{	// subscript mutable sequence

  00000	55		 push	 ebp
  00001	8b ec		 mov	 ebp, esp

; 929  :  #if _ITERATOR_DEBUG_LEVEL == 2
; 930  : 		if (size() <= _Pos)
; 931  : 			{	// report error
; 932  : 			_DEBUG_ERROR("vector subscript out of range");
; 933  : 			_SCL_SECURE_OUT_OF_RANGE;
; 934  : 			}
; 935  : 
; 936  :  #elif _ITERATOR_DEBUG_LEVEL == 1
; 937  : 		_SCL_SECURE_VALIDATE_RANGE(_Pos < size());
; 938  :  #endif /* _ITERATOR_DEBUG_LEVEL */
; 939  : 
; 940  : 		return (*(this->_Myfirst + _Pos));

  00003	8b 01		 mov	 eax, DWORD PTR [ecx]
  00005	8b 4d 08	 mov	 ecx, DWORD PTR __Pos$[ebp]
  00008	8d 04 88	 lea	 eax, DWORD PTR [eax+ecx*4]

; 941  : 		}

  0000b	5d		 pop	 ebp
  0000c	c2 04 00	 ret	 4
??A?$vector@PAVCXMasMonsterHerd@@V?$allocator@PAVCXMasMonsterHerd@@@std@@@std@@QAEAAPAVCXMasMonsterHerd@@I@Z ENDP ; std::vector<CXMasMonsterHerd *,std::allocator<CXMasMonsterHerd *> >::operator[]
_TEXT	ENDS
PUBLIC	?size@?$vector@UXMASMONSTER_MAP_INFO@@V?$allocator@UXMASMONSTER_MAP_INFO@@@std@@@std@@QBEIXZ ; std::vector<XMASMONSTER_MAP_INFO,std::allocator<XMASMONSTER_MAP_INFO> >::size
; Function compile flags: /Ogtp
;	COMDAT ?size@?$vector@UXMASMONSTER_MAP_INFO@@V?$allocator@UXMASMONSTER_MAP_INFO@@@std@@@std@@QBEIXZ
_TEXT	SEGMENT
?size@?$vector@UXMASMONSTER_MAP_INFO@@V?$allocator@UXMASMONSTER_MAP_INFO@@@std@@@std@@QBEIXZ PROC ; std::vector<XMASMONSTER_MAP_INFO,std::allocator<XMASMONSTER_MAP_INFO> >::size, COMDAT
; _this$ = ecx

; 879  : 		return (this->_Mylast - this->_Myfirst);

  00000	8b 51 04	 mov	 edx, DWORD PTR [ecx+4]
  00003	2b 11		 sub	 edx, DWORD PTR [ecx]
  00005	b8 67 66 66 66	 mov	 eax, 1717986919		; 66666667H
  0000a	f7 ea		 imul	 edx
  0000c	c1 fa 03	 sar	 edx, 3
  0000f	8b c2		 mov	 eax, edx
  00011	c1 e8 1f	 shr	 eax, 31			; 0000001fH
  00014	03 c2		 add	 eax, edx

; 880  : 		}

  00016	c3		 ret	 0
?size@?$vector@UXMASMONSTER_MAP_INFO@@V?$allocator@UXMASMONSTER_MAP_INFO@@@std@@@std@@QBEIXZ ENDP ; std::vector<XMASMONSTER_MAP_INFO,std::allocator<XMASMONSTER_MAP_INFO> >::size
_TEXT	ENDS
PUBLIC	??A?$vector@UXMASMONSTER_MAP_INFO@@V?$allocator@UXMASMONSTER_MAP_INFO@@@std@@@std@@QAEAAUXMASMONSTER_MAP_INFO@@I@Z ; std::vector<XMASMONSTER_MAP_INFO,std::allocator<XMASMONSTER_MAP_INFO> >::operator[]
; Function compile flags: /Ogtp
;	COMDAT ??A?$vector@UXMASMONSTER_MAP_INFO@@V?$allocator@UXMASMONSTER_MAP_INFO@@@std@@@std@@QAEAAUXMASMONSTER_MAP_INFO@@I@Z
_TEXT	SEGMENT
__Pos$ = 8						; size = 4
??A?$vector@UXMASMONSTER_MAP_INFO@@V?$allocator@UXMASMONSTER_MAP_INFO@@@std@@@std@@QAEAAUXMASMONSTER_MAP_INFO@@I@Z PROC ; std::vector<XMASMONSTER_MAP_INFO,std::allocator<XMASMONSTER_MAP_INFO> >::operator[], COMDAT
; _this$ = ecx

; 928  : 		{	// subscript mutable sequence

  00000	55		 push	 ebp
  00001	8b ec		 mov	 ebp, esp

; 929  :  #if _ITERATOR_DEBUG_LEVEL == 2
; 930  : 		if (size() <= _Pos)
; 931  : 			{	// report error
; 932  : 			_DEBUG_ERROR("vector subscript out of range");
; 933  : 			_SCL_SECURE_OUT_OF_RANGE;
; 934  : 			}
; 935  : 
; 936  :  #elif _ITERATOR_DEBUG_LEVEL == 1
; 937  : 		_SCL_SECURE_VALIDATE_RANGE(_Pos < size());
; 938  :  #endif /* _ITERATOR_DEBUG_LEVEL */
; 939  : 
; 940  : 		return (*(this->_Myfirst + _Pos));

  00003	8b 45 08	 mov	 eax, DWORD PTR __Pos$[ebp]
  00006	8b 09		 mov	 ecx, DWORD PTR [ecx]
  00008	8d 04 80	 lea	 eax, DWORD PTR [eax+eax*4]
  0000b	8d 04 81	 lea	 eax, DWORD PTR [ecx+eax*4]

; 941  : 		}

  0000e	5d		 pop	 ebp
  0000f	c2 04 00	 ret	 4
??A?$vector@UXMASMONSTER_MAP_INFO@@V?$allocator@UXMASMONSTER_MAP_INFO@@@std@@@std@@QAEAAUXMASMONSTER_MAP_INFO@@I@Z ENDP ; std::vector<XMASMONSTER_MAP_INFO,std::allocator<XMASMONSTER_MAP_INFO> >::operator[]
_TEXT	ENDS
PUBLIC	?_Inside@?$vector@UXMASMONSTER_EVENT_TIME@@V?$allocator@UXMASMONSTER_EVENT_TIME@@@std@@@std@@IBE_NPBUXMASMONSTER_EVENT_TIME@@@Z ; std::vector<XMASMONSTER_EVENT_TIME,std::allocator<XMASMONSTER_EVENT_TIME> >::_Inside
; Function compile flags: /Ogtp
;	COMDAT ?_Inside@?$vector@UXMASMONSTER_EVENT_TIME@@V?$allocator@UXMASMONSTER_EVENT_TIME@@@std@@@std@@IBE_NPBUXMASMONSTER_EVENT_TIME@@@Z
_TEXT	SEGMENT
__Ptr$ = 8						; size = 4
?_Inside@?$vector@UXMASMONSTER_EVENT_TIME@@V?$allocator@UXMASMONSTER_EVENT_TIME@@@std@@@std@@IBE_NPBUXMASMONSTER_EVENT_TIME@@@Z PROC ; std::vector<XMASMONSTER_EVENT_TIME,std::allocator<XMASMONSTER_EVENT_TIME> >::_Inside, COMDAT
; _this$ = ecx

; 1285 : 		{	// test if _Ptr points inside vector

  00000	55		 push	 ebp
  00001	8b ec		 mov	 ebp, esp

; 1286 : 		return (_Ptr < this->_Mylast && this->_Myfirst <= _Ptr);

  00003	8b 45 08	 mov	 eax, DWORD PTR __Ptr$[ebp]
  00006	3b 41 04	 cmp	 eax, DWORD PTR [ecx+4]
  00009	73 0d		 jae	 SHORT $LN3@Inside
  0000b	39 01		 cmp	 DWORD PTR [ecx], eax
  0000d	77 09		 ja	 SHORT $LN3@Inside
  0000f	b8 01 00 00 00	 mov	 eax, 1

; 1287 : 		}

  00014	5d		 pop	 ebp
  00015	c2 04 00	 ret	 4
$LN3@Inside:

; 1286 : 		return (_Ptr < this->_Mylast && this->_Myfirst <= _Ptr);

  00018	33 c0		 xor	 eax, eax

; 1287 : 		}

  0001a	5d		 pop	 ebp
  0001b	c2 04 00	 ret	 4
?_Inside@?$vector@UXMASMONSTER_EVENT_TIME@@V?$allocator@UXMASMONSTER_EVENT_TIME@@@std@@@std@@IBE_NPBUXMASMONSTER_EVENT_TIME@@@Z ENDP ; std::vector<XMASMONSTER_EVENT_TIME,std::allocator<XMASMONSTER_EVENT_TIME> >::_Inside
_TEXT	ENDS
PUBLIC	?_Orphan_range@?$vector@UXMASMONSTER_EVENT_TIME@@V?$allocator@UXMASMONSTER_EVENT_TIME@@@std@@@std@@IBEXPAUXMASMONSTER_EVENT_TIME@@0@Z ; std::vector<XMASMONSTER_EVENT_TIME,std::allocator<XMASMONSTER_EVENT_TIME> >::_Orphan_range
; Function compile flags: /Ogtp
;	COMDAT ?_Orphan_range@?$vector@UXMASMONSTER_EVENT_TIME@@V?$allocator@UXMASMONSTER_EVENT_TIME@@@std@@@std@@IBEXPAUXMASMONSTER_EVENT_TIME@@0@Z
_TEXT	SEGMENT
___formal$ = 8						; size = 4
___formal$ = 12						; size = 4
?_Orphan_range@?$vector@UXMASMONSTER_EVENT_TIME@@V?$allocator@UXMASMONSTER_EVENT_TIME@@@std@@@std@@IBEXPAUXMASMONSTER_EVENT_TIME@@0@Z PROC ; std::vector<XMASMONSTER_EVENT_TIME,std::allocator<XMASMONSTER_EVENT_TIME> >::_Orphan_range, COMDAT
; _this$ = ecx

; 1454 : 		}

  00000	c2 08 00	 ret	 8
?_Orphan_range@?$vector@UXMASMONSTER_EVENT_TIME@@V?$allocator@UXMASMONSTER_EVENT_TIME@@@std@@@std@@IBEXPAUXMASMONSTER_EVENT_TIME@@0@Z ENDP ; std::vector<XMASMONSTER_EVENT_TIME,std::allocator<XMASMONSTER_EVENT_TIME> >::_Orphan_range
_TEXT	ENDS
PUBLIC	?_Inside@?$vector@UXMASMONSTER_DATA@@V?$allocator@UXMASMONSTER_DATA@@@std@@@std@@IBE_NPBUXMASMONSTER_DATA@@@Z ; std::vector<XMASMONSTER_DATA,std::allocator<XMASMONSTER_DATA> >::_Inside
; Function compile flags: /Ogtp
;	COMDAT ?_Inside@?$vector@UXMASMONSTER_DATA@@V?$allocator@UXMASMONSTER_DATA@@@std@@@std@@IBE_NPBUXMASMONSTER_DATA@@@Z
_TEXT	SEGMENT
__Ptr$ = 8						; size = 4
?_Inside@?$vector@UXMASMONSTER_DATA@@V?$allocator@UXMASMONSTER_DATA@@@std@@@std@@IBE_NPBUXMASMONSTER_DATA@@@Z PROC ; std::vector<XMASMONSTER_DATA,std::allocator<XMASMONSTER_DATA> >::_Inside, COMDAT
; _this$ = ecx

; 1285 : 		{	// test if _Ptr points inside vector

  00000	55		 push	 ebp
  00001	8b ec		 mov	 ebp, esp

; 1286 : 		return (_Ptr < this->_Mylast && this->_Myfirst <= _Ptr);

  00003	8b 45 08	 mov	 eax, DWORD PTR __Ptr$[ebp]
  00006	3b 41 04	 cmp	 eax, DWORD PTR [ecx+4]
  00009	73 0d		 jae	 SHORT $LN3@Inside@2
  0000b	39 01		 cmp	 DWORD PTR [ecx], eax
  0000d	77 09		 ja	 SHORT $LN3@Inside@2
  0000f	b8 01 00 00 00	 mov	 eax, 1

; 1287 : 		}

  00014	5d		 pop	 ebp
  00015	c2 04 00	 ret	 4
$LN3@Inside@2:

; 1286 : 		return (_Ptr < this->_Mylast && this->_Myfirst <= _Ptr);

  00018	33 c0		 xor	 eax, eax

; 1287 : 		}

  0001a	5d		 pop	 ebp
  0001b	c2 04 00	 ret	 4
?_Inside@?$vector@UXMASMONSTER_DATA@@V?$allocator@UXMASMONSTER_DATA@@@std@@@std@@IBE_NPBUXMASMONSTER_DATA@@@Z ENDP ; std::vector<XMASMONSTER_DATA,std::allocator<XMASMONSTER_DATA> >::_Inside
_TEXT	ENDS
PUBLIC	?_Orphan_range@?$vector@UXMASMONSTER_DATA@@V?$allocator@UXMASMONSTER_DATA@@@std@@@std@@IBEXPAUXMASMONSTER_DATA@@0@Z ; std::vector<XMASMONSTER_DATA,std::allocator<XMASMONSTER_DATA> >::_Orphan_range
; Function compile flags: /Ogtp
;	COMDAT ?_Orphan_range@?$vector@UXMASMONSTER_DATA@@V?$allocator@UXMASMONSTER_DATA@@@std@@@std@@IBEXPAUXMASMONSTER_DATA@@0@Z
_TEXT	SEGMENT
___formal$ = 8						; size = 4
___formal$ = 12						; size = 4
?_Orphan_range@?$vector@UXMASMONSTER_DATA@@V?$allocator@UXMASMONSTER_DATA@@@std@@@std@@IBEXPAUXMASMONSTER_DATA@@0@Z PROC ; std::vector<XMASMONSTER_DATA,std::allocator<XMASMONSTER_DATA> >::_Orphan_range, COMDAT
; _this$ = ecx

; 1454 : 		}

  00000	c2 08 00	 ret	 8
?_Orphan_range@?$vector@UXMASMONSTER_DATA@@V?$allocator@UXMASMONSTER_DATA@@@std@@@std@@IBEXPAUXMASMONSTER_DATA@@0@Z ENDP ; std::vector<XMASMONSTER_DATA,std::allocator<XMASMONSTER_DATA> >::_Orphan_range
_TEXT	ENDS
PUBLIC	?_Inside@?$vector@PAVCXMasMonsterHerd@@V?$allocator@PAVCXMasMonsterHerd@@@std@@@std@@IBE_NPBQAVCXMasMonsterHerd@@@Z ; std::vector<CXMasMonsterHerd *,std::allocator<CXMasMonsterHerd *> >::_Inside
; Function compile flags: /Ogtp
;	COMDAT ?_Inside@?$vector@PAVCXMasMonsterHerd@@V?$allocator@PAVCXMasMonsterHerd@@@std@@@std@@IBE_NPBQAVCXMasMonsterHerd@@@Z
_TEXT	SEGMENT
__Ptr$ = 8						; size = 4
?_Inside@?$vector@PAVCXMasMonsterHerd@@V?$allocator@PAVCXMasMonsterHerd@@@std@@@std@@IBE_NPBQAVCXMasMonsterHerd@@@Z PROC ; std::vector<CXMasMonsterHerd *,std::allocator<CXMasMonsterHerd *> >::_Inside, COMDAT
; _this$ = ecx

; 1285 : 		{	// test if _Ptr points inside vector

  00000	55		 push	 ebp
  00001	8b ec		 mov	 ebp, esp

; 1286 : 		return (_Ptr < this->_Mylast && this->_Myfirst <= _Ptr);

  00003	8b 45 08	 mov	 eax, DWORD PTR __Ptr$[ebp]
  00006	3b 41 04	 cmp	 eax, DWORD PTR [ecx+4]
  00009	73 0d		 jae	 SHORT $LN3@Inside@3
  0000b	39 01		 cmp	 DWORD PTR [ecx], eax
  0000d	77 09		 ja	 SHORT $LN3@Inside@3
  0000f	b8 01 00 00 00	 mov	 eax, 1

; 1287 : 		}

  00014	5d		 pop	 ebp
  00015	c2 04 00	 ret	 4
$LN3@Inside@3:

; 1286 : 		return (_Ptr < this->_Mylast && this->_Myfirst <= _Ptr);

  00018	33 c0		 xor	 eax, eax

; 1287 : 		}

  0001a	5d		 pop	 ebp
  0001b	c2 04 00	 ret	 4
?_Inside@?$vector@PAVCXMasMonsterHerd@@V?$allocator@PAVCXMasMonsterHerd@@@std@@@std@@IBE_NPBQAVCXMasMonsterHerd@@@Z ENDP ; std::vector<CXMasMonsterHerd *,std::allocator<CXMasMonsterHerd *> >::_Inside
_TEXT	ENDS
PUBLIC	?_Orphan_range@?$vector@PAVCXMasMonsterHerd@@V?$allocator@PAVCXMasMonsterHerd@@@std@@@std@@IBEXPAPAVCXMasMonsterHerd@@0@Z ; std::vector<CXMasMonsterHerd *,std::allocator<CXMasMonsterHerd *> >::_Orphan_range
; Function compile flags: /Ogtp
;	COMDAT ?_Orphan_range@?$vector@PAVCXMasMonsterHerd@@V?$allocator@PAVCXMasMonsterHerd@@@std@@@std@@IBEXPAPAVCXMasMonsterHerd@@0@Z
_TEXT	SEGMENT
___formal$ = 8						; size = 4
___formal$ = 12						; size = 4
?_Orphan_range@?$vector@PAVCXMasMonsterHerd@@V?$allocator@PAVCXMasMonsterHerd@@@std@@@std@@IBEXPAPAVCXMasMonsterHerd@@0@Z PROC ; std::vector<CXMasMonsterHerd *,std::allocator<CXMasMonsterHerd *> >::_Orphan_range, COMDAT
; _this$ = ecx

; 1454 : 		}

  00000	c2 08 00	 ret	 8
?_Orphan_range@?$vector@PAVCXMasMonsterHerd@@V?$allocator@PAVCXMasMonsterHerd@@@std@@@std@@IBEXPAPAVCXMasMonsterHerd@@0@Z ENDP ; std::vector<CXMasMonsterHerd *,std::allocator<CXMasMonsterHerd *> >::_Orphan_range
_TEXT	ENDS
PUBLIC	?_Inside@?$vector@UXMASMONSTER_MAP_INFO@@V?$allocator@UXMASMONSTER_MAP_INFO@@@std@@@std@@IBE_NPBUXMASMONSTER_MAP_INFO@@@Z ; std::vector<XMASMONSTER_MAP_INFO,std::allocator<XMASMONSTER_MAP_INFO> >::_Inside
; Function compile flags: /Ogtp
;	COMDAT ?_Inside@?$vector@UXMASMONSTER_MAP_INFO@@V?$allocator@UXMASMONSTER_MAP_INFO@@@std@@@std@@IBE_NPBUXMASMONSTER_MAP_INFO@@@Z
_TEXT	SEGMENT
__Ptr$ = 8						; size = 4
?_Inside@?$vector@UXMASMONSTER_MAP_INFO@@V?$allocator@UXMASMONSTER_MAP_INFO@@@std@@@std@@IBE_NPBUXMASMONSTER_MAP_INFO@@@Z PROC ; std::vector<XMASMONSTER_MAP_INFO,std::allocator<XMASMONSTER_MAP_INFO> >::_Inside, COMDAT
; _this$ = ecx

; 1285 : 		{	// test if _Ptr points inside vector

  00000	55		 push	 ebp
  00001	8b ec		 mov	 ebp, esp

; 1286 : 		return (_Ptr < this->_Mylast && this->_Myfirst <= _Ptr);

  00003	8b 45 08	 mov	 eax, DWORD PTR __Ptr$[ebp]
  00006	3b 41 04	 cmp	 eax, DWORD PTR [ecx+4]
  00009	73 0d		 jae	 SHORT $LN3@Inside@4
  0000b	39 01		 cmp	 DWORD PTR [ecx], eax
  0000d	77 09		 ja	 SHORT $LN3@Inside@4
  0000f	b8 01 00 00 00	 mov	 eax, 1

; 1287 : 		}

  00014	5d		 pop	 ebp
  00015	c2 04 00	 ret	 4
$LN3@Inside@4:

; 1286 : 		return (_Ptr < this->_Mylast && this->_Myfirst <= _Ptr);

  00018	33 c0		 xor	 eax, eax

; 1287 : 		}

  0001a	5d		 pop	 ebp
  0001b	c2 04 00	 ret	 4
?_Inside@?$vector@UXMASMONSTER_MAP_INFO@@V?$allocator@UXMASMONSTER_MAP_INFO@@@std@@@std@@IBE_NPBUXMASMONSTER_MAP_INFO@@@Z ENDP ; std::vector<XMASMONSTER_MAP_INFO,std::allocator<XMASMONSTER_MAP_INFO> >::_Inside
_TEXT	ENDS
PUBLIC	?_Orphan_range@?$vector@UXMASMONSTER_MAP_INFO@@V?$allocator@UXMASMONSTER_MAP_INFO@@@std@@@std@@IBEXPAUXMASMONSTER_MAP_INFO@@0@Z ; std::vector<XMASMONSTER_MAP_INFO,std::allocator<XMASMONSTER_MAP_INFO> >::_Orphan_range
; Function compile flags: /Ogtp
;	COMDAT ?_Orphan_range@?$vector@UXMASMONSTER_MAP_INFO@@V?$allocator@UXMASMONSTER_MAP_INFO@@@std@@@std@@IBEXPAUXMASMONSTER_MAP_INFO@@0@Z
_TEXT	SEGMENT
___formal$ = 8						; size = 4
___formal$ = 12						; size = 4
?_Orphan_range@?$vector@UXMASMONSTER_MAP_INFO@@V?$allocator@UXMASMONSTER_MAP_INFO@@@std@@@std@@IBEXPAUXMASMONSTER_MAP_INFO@@0@Z PROC ; std::vector<XMASMONSTER_MAP_INFO,std::allocator<XMASMONSTER_MAP_INFO> >::_Orphan_range, COMDAT
; _this$ = ecx

; 1454 : 		}

  00000	c2 08 00	 ret	 8
?_Orphan_range@?$vector@UXMASMONSTER_MAP_INFO@@V?$allocator@UXMASMONSTER_MAP_INFO@@@std@@@std@@IBEXPAUXMASMONSTER_MAP_INFO@@0@Z ENDP ; std::vector<XMASMONSTER_MAP_INFO,std::allocator<XMASMONSTER_MAP_INFO> >::_Orphan_range
_TEXT	ENDS
PUBLIC	??1?$_Vector_val@UXMASMONSTER_MAP_INFO@@V?$allocator@UXMASMONSTER_MAP_INFO@@@std@@@std@@QAE@XZ ; std::_Vector_val<XMASMONSTER_MAP_INFO,std::allocator<XMASMONSTER_MAP_INFO> >::~_Vector_val<XMASMONSTER_MAP_INFO,std::allocator<XMASMONSTER_MAP_INFO> >
; Function compile flags: /Ogtp
;	COMDAT ??1?$_Vector_val@UXMASMONSTER_MAP_INFO@@V?$allocator@UXMASMONSTER_MAP_INFO@@@std@@@std@@QAE@XZ
_TEXT	SEGMENT
??1?$_Vector_val@UXMASMONSTER_MAP_INFO@@V?$allocator@UXMASMONSTER_MAP_INFO@@@std@@@std@@QAE@XZ PROC ; std::_Vector_val<XMASMONSTER_MAP_INFO,std::allocator<XMASMONSTER_MAP_INFO> >::~_Vector_val<XMASMONSTER_MAP_INFO,std::allocator<XMASMONSTER_MAP_INFO> >, COMDAT
; _this$ = ecx

; 434  : 		}

  00000	c3		 ret	 0
??1?$_Vector_val@UXMASMONSTER_MAP_INFO@@V?$allocator@UXMASMONSTER_MAP_INFO@@@std@@@std@@QAE@XZ ENDP ; std::_Vector_val<XMASMONSTER_MAP_INFO,std::allocator<XMASMONSTER_MAP_INFO> >::~_Vector_val<XMASMONSTER_MAP_INFO,std::allocator<XMASMONSTER_MAP_INFO> >
_TEXT	ENDS
PUBLIC	??0?$allocator@UXMASMONSTER_MAP_INFO@@@std@@QAE@XZ ; std::allocator<XMASMONSTER_MAP_INFO>::allocator<XMASMONSTER_MAP_INFO>
; Function compile flags: /Ogtp
; File d:\program files (x86)\microsoft visual studio 10.0\vc\include\xmemory
;	COMDAT ??0?$allocator@UXMASMONSTER_MAP_INFO@@@std@@QAE@XZ
_TEXT	SEGMENT
??0?$allocator@UXMASMONSTER_MAP_INFO@@@std@@QAE@XZ PROC	; std::allocator<XMASMONSTER_MAP_INFO>::allocator<XMASMONSTER_MAP_INFO>, COMDAT
; _this$ = ecx

; 161  : 	_ALLOCATOR() _THROW0()

  00000	8b c1		 mov	 eax, ecx

; 162  : 		{	// construct default allocator (do nothing)
; 163  : 		}

  00002	c3		 ret	 0
??0?$allocator@UXMASMONSTER_MAP_INFO@@@std@@QAE@XZ ENDP	; std::allocator<XMASMONSTER_MAP_INFO>::allocator<XMASMONSTER_MAP_INFO>
_TEXT	ENDS
PUBLIC	??D?$_Vector_const_iterator@V?$_Vector_val@PAVCXMasMonsterHerd@@V?$allocator@PAVCXMasMonsterHerd@@@std@@@std@@@std@@QBEABQAVCXMasMonsterHerd@@XZ ; std::_Vector_const_iterator<std::_Vector_val<CXMasMonsterHerd *,std::allocator<CXMasMonsterHerd *> > >::operator*
; Function compile flags: /Ogtp
; File d:\program files (x86)\microsoft visual studio 10.0\vc\include\vector
;	COMDAT ??D?$_Vector_const_iterator@V?$_Vector_val@PAVCXMasMonsterHerd@@V?$allocator@PAVCXMasMonsterHerd@@@std@@@std@@@std@@QBEABQAVCXMasMonsterHerd@@XZ
_TEXT	SEGMENT
??D?$_Vector_const_iterator@V?$_Vector_val@PAVCXMasMonsterHerd@@V?$allocator@PAVCXMasMonsterHerd@@@std@@@std@@@std@@QBEABQAVCXMasMonsterHerd@@XZ PROC ; std::_Vector_const_iterator<std::_Vector_val<CXMasMonsterHerd *,std::allocator<CXMasMonsterHerd *> > >::operator*, COMDAT
; _this$ = ecx

; 64   :  #if _ITERATOR_DEBUG_LEVEL == 2
; 65   : 		if (this->_Getcont() == 0
; 66   : 			|| this->_Ptr == 0
; 67   : 			|| this->_Ptr < ((_Myvec *)this->_Getcont())->_Myfirst
; 68   : 			|| ((_Myvec *)this->_Getcont())->_Mylast <= this->_Ptr)
; 69   : 			{	// report error
; 70   : 			_DEBUG_ERROR("vector iterator not dereferencable");
; 71   : 			_SCL_SECURE_OUT_OF_RANGE;
; 72   : 			}
; 73   : 
; 74   :  #elif _ITERATOR_DEBUG_LEVEL == 1
; 75   : 		_SCL_SECURE_VALIDATE(this->_Getcont() != 0);
; 76   : 		_SCL_SECURE_VALIDATE_RANGE(
; 77   : 			this->_Ptr != 0
; 78   : 			&& ((_Myvec *)this->_Getcont())->_Myfirst <= this->_Ptr
; 79   : 			&& this->_Ptr < ((_Myvec *)this->_Getcont())->_Mylast);
; 80   :  #endif /* _ITERATOR_DEBUG_LEVEL */
; 81   : 
; 82   : 		__analysis_assume(this->_Ptr != 0);
; 83   : 
; 84   : 		return (*this->_Ptr);

  00000	8b 01		 mov	 eax, DWORD PTR [ecx]

; 85   : 		}

  00002	c3		 ret	 0
??D?$_Vector_const_iterator@V?$_Vector_val@PAVCXMasMonsterHerd@@V?$allocator@PAVCXMasMonsterHerd@@@std@@@std@@@std@@QBEABQAVCXMasMonsterHerd@@XZ ENDP ; std::_Vector_const_iterator<std::_Vector_val<CXMasMonsterHerd *,std::allocator<CXMasMonsterHerd *> > >::operator*
_TEXT	ENDS
PUBLIC	??E?$_Vector_const_iterator@V?$_Vector_val@PAVCXMasMonsterHerd@@V?$allocator@PAVCXMasMonsterHerd@@@std@@@std@@@std@@QAEAAV01@XZ ; std::_Vector_const_iterator<std::_Vector_val<CXMasMonsterHerd *,std::allocator<CXMasMonsterHerd *> > >::operator++
; Function compile flags: /Ogtp
;	COMDAT ??E?$_Vector_const_iterator@V?$_Vector_val@PAVCXMasMonsterHerd@@V?$allocator@PAVCXMasMonsterHerd@@@std@@@std@@@std@@QAEAAV01@XZ
_TEXT	SEGMENT
??E?$_Vector_const_iterator@V?$_Vector_val@PAVCXMasMonsterHerd@@V?$allocator@PAVCXMasMonsterHerd@@@std@@@std@@@std@@QAEAAV01@XZ PROC ; std::_Vector_const_iterator<std::_Vector_val<CXMasMonsterHerd *,std::allocator<CXMasMonsterHerd *> > >::operator++, COMDAT
; _this$ = ecx

; 93   : 		{	// preincrement

  00000	8b c1		 mov	 eax, ecx

; 94   :  #if _ITERATOR_DEBUG_LEVEL == 2
; 95   : 		if (this->_Getcont() == 0
; 96   : 			|| this->_Ptr == 0
; 97   : 			|| ((_Myvec *)this->_Getcont())->_Mylast <= this->_Ptr)
; 98   : 			{	// report error
; 99   : 			_DEBUG_ERROR("vector iterator not incrementable");
; 100  : 			_SCL_SECURE_OUT_OF_RANGE;
; 101  : 			}
; 102  : 
; 103  :  #elif _ITERATOR_DEBUG_LEVEL == 1
; 104  : 		_SCL_SECURE_VALIDATE(this->_Getcont() != 0);
; 105  : 		_SCL_SECURE_VALIDATE_RANGE(
; 106  : 			this->_Ptr != 0
; 107  : 			&& this->_Ptr < ((_Myvec *)this->_Getcont())->_Mylast);
; 108  :  #endif /* _ITERATOR_DEBUG_LEVEL */
; 109  : 
; 110  : 		++this->_Ptr;

  00002	83 00 04	 add	 DWORD PTR [eax], 4

; 111  : 		return (*this);
; 112  : 		}

  00005	c3		 ret	 0
??E?$_Vector_const_iterator@V?$_Vector_val@PAVCXMasMonsterHerd@@V?$allocator@PAVCXMasMonsterHerd@@@std@@@std@@@std@@QAEAAV01@XZ ENDP ; std::_Vector_const_iterator<std::_Vector_val<CXMasMonsterHerd *,std::allocator<CXMasMonsterHerd *> > >::operator++
_TEXT	ENDS
PUBLIC	??D?$_Vector_const_iterator@V?$_Vector_val@UXMASMONSTER_DATA@@V?$allocator@UXMASMONSTER_DATA@@@std@@@std@@@std@@QBEABUXMASMONSTER_DATA@@XZ ; std::_Vector_const_iterator<std::_Vector_val<XMASMONSTER_DATA,std::allocator<XMASMONSTER_DATA> > >::operator*
; Function compile flags: /Ogtp
;	COMDAT ??D?$_Vector_const_iterator@V?$_Vector_val@UXMASMONSTER_DATA@@V?$allocator@UXMASMONSTER_DATA@@@std@@@std@@@std@@QBEABUXMASMONSTER_DATA@@XZ
_TEXT	SEGMENT
??D?$_Vector_const_iterator@V?$_Vector_val@UXMASMONSTER_DATA@@V?$allocator@UXMASMONSTER_DATA@@@std@@@std@@@std@@QBEABUXMASMONSTER_DATA@@XZ PROC ; std::_Vector_const_iterator<std::_Vector_val<XMASMONSTER_DATA,std::allocator<XMASMONSTER_DATA> > >::operator*, COMDAT
; _this$ = ecx

; 64   :  #if _ITERATOR_DEBUG_LEVEL == 2
; 65   : 		if (this->_Getcont() == 0
; 66   : 			|| this->_Ptr == 0
; 67   : 			|| this->_Ptr < ((_Myvec *)this->_Getcont())->_Myfirst
; 68   : 			|| ((_Myvec *)this->_Getcont())->_Mylast <= this->_Ptr)
; 69   : 			{	// report error
; 70   : 			_DEBUG_ERROR("vector iterator not dereferencable");
; 71   : 			_SCL_SECURE_OUT_OF_RANGE;
; 72   : 			}
; 73   : 
; 74   :  #elif _ITERATOR_DEBUG_LEVEL == 1
; 75   : 		_SCL_SECURE_VALIDATE(this->_Getcont() != 0);
; 76   : 		_SCL_SECURE_VALIDATE_RANGE(
; 77   : 			this->_Ptr != 0
; 78   : 			&& ((_Myvec *)this->_Getcont())->_Myfirst <= this->_Ptr
; 79   : 			&& this->_Ptr < ((_Myvec *)this->_Getcont())->_Mylast);
; 80   :  #endif /* _ITERATOR_DEBUG_LEVEL */
; 81   : 
; 82   : 		__analysis_assume(this->_Ptr != 0);
; 83   : 
; 84   : 		return (*this->_Ptr);

  00000	8b 01		 mov	 eax, DWORD PTR [ecx]

; 85   : 		}

  00002	c3		 ret	 0
??D?$_Vector_const_iterator@V?$_Vector_val@UXMASMONSTER_DATA@@V?$allocator@UXMASMONSTER_DATA@@@std@@@std@@@std@@QBEABUXMASMONSTER_DATA@@XZ ENDP ; std::_Vector_const_iterator<std::_Vector_val<XMASMONSTER_DATA,std::allocator<XMASMONSTER_DATA> > >::operator*
_TEXT	ENDS
PUBLIC	??0?$_Vector_const_iterator@V?$_Vector_val@UXMASMONSTER_EVENT_TIME@@V?$allocator@UXMASMONSTER_EVENT_TIME@@@std@@@std@@@std@@QAE@XZ ; std::_Vector_const_iterator<std::_Vector_val<XMASMONSTER_EVENT_TIME,std::allocator<XMASMONSTER_EVENT_TIME> > >::_Vector_const_iterator<std::_Vector_val<XMASMONSTER_EVENT_TIME,std::allocator<XMASMONSTER_EVENT_TIME> > >
; Function compile flags: /Ogtp
;	COMDAT ??0?$_Vector_const_iterator@V?$_Vector_val@UXMASMONSTER_EVENT_TIME@@V?$allocator@UXMASMONSTER_EVENT_TIME@@@std@@@std@@@std@@QAE@XZ
_TEXT	SEGMENT
??0?$_Vector_const_iterator@V?$_Vector_val@UXMASMONSTER_EVENT_TIME@@V?$allocator@UXMASMONSTER_EVENT_TIME@@@std@@@std@@@std@@QAE@XZ PROC ; std::_Vector_const_iterator<std::_Vector_val<XMASMONSTER_EVENT_TIME,std::allocator<XMASMONSTER_EVENT_TIME> > >::_Vector_const_iterator<std::_Vector_val<XMASMONSTER_EVENT_TIME,std::allocator<XMASMONSTER_EVENT_TIME> > >, COMDAT
; _this$ = ecx

; 40   : 		{	// construct with null pointer

  00000	8b c1		 mov	 eax, ecx
  00002	c7 00 00 00 00
	00		 mov	 DWORD PTR [eax], 0

; 41   : 		}

  00008	c3		 ret	 0
??0?$_Vector_const_iterator@V?$_Vector_val@UXMASMONSTER_EVENT_TIME@@V?$allocator@UXMASMONSTER_EVENT_TIME@@@std@@@std@@@std@@QAE@XZ ENDP ; std::_Vector_const_iterator<std::_Vector_val<XMASMONSTER_EVENT_TIME,std::allocator<XMASMONSTER_EVENT_TIME> > >::_Vector_const_iterator<std::_Vector_val<XMASMONSTER_EVENT_TIME,std::allocator<XMASMONSTER_EVENT_TIME> > >
_TEXT	ENDS
PUBLIC	??D?$_Vector_const_iterator@V?$_Vector_val@UXMASMONSTER_EVENT_TIME@@V?$allocator@UXMASMONSTER_EVENT_TIME@@@std@@@std@@@std@@QBEABUXMASMONSTER_EVENT_TIME@@XZ ; std::_Vector_const_iterator<std::_Vector_val<XMASMONSTER_EVENT_TIME,std::allocator<XMASMONSTER_EVENT_TIME> > >::operator*
; Function compile flags: /Ogtp
;	COMDAT ??D?$_Vector_const_iterator@V?$_Vector_val@UXMASMONSTER_EVENT_TIME@@V?$allocator@UXMASMONSTER_EVENT_TIME@@@std@@@std@@@std@@QBEABUXMASMONSTER_EVENT_TIME@@XZ
_TEXT	SEGMENT
??D?$_Vector_const_iterator@V?$_Vector_val@UXMASMONSTER_EVENT_TIME@@V?$allocator@UXMASMONSTER_EVENT_TIME@@@std@@@std@@@std@@QBEABUXMASMONSTER_EVENT_TIME@@XZ PROC ; std::_Vector_const_iterator<std::_Vector_val<XMASMONSTER_EVENT_TIME,std::allocator<XMASMONSTER_EVENT_TIME> > >::operator*, COMDAT
; _this$ = ecx

; 64   :  #if _ITERATOR_DEBUG_LEVEL == 2
; 65   : 		if (this->_Getcont() == 0
; 66   : 			|| this->_Ptr == 0
; 67   : 			|| this->_Ptr < ((_Myvec *)this->_Getcont())->_Myfirst
; 68   : 			|| ((_Myvec *)this->_Getcont())->_Mylast <= this->_Ptr)
; 69   : 			{	// report error
; 70   : 			_DEBUG_ERROR("vector iterator not dereferencable");
; 71   : 			_SCL_SECURE_OUT_OF_RANGE;
; 72   : 			}
; 73   : 
; 74   :  #elif _ITERATOR_DEBUG_LEVEL == 1
; 75   : 		_SCL_SECURE_VALIDATE(this->_Getcont() != 0);
; 76   : 		_SCL_SECURE_VALIDATE_RANGE(
; 77   : 			this->_Ptr != 0
; 78   : 			&& ((_Myvec *)this->_Getcont())->_Myfirst <= this->_Ptr
; 79   : 			&& this->_Ptr < ((_Myvec *)this->_Getcont())->_Mylast);
; 80   :  #endif /* _ITERATOR_DEBUG_LEVEL */
; 81   : 
; 82   : 		__analysis_assume(this->_Ptr != 0);
; 83   : 
; 84   : 		return (*this->_Ptr);

  00000	8b 01		 mov	 eax, DWORD PTR [ecx]

; 85   : 		}

  00002	c3		 ret	 0
??D?$_Vector_const_iterator@V?$_Vector_val@UXMASMONSTER_EVENT_TIME@@V?$allocator@UXMASMONSTER_EVENT_TIME@@@std@@@std@@@std@@QBEABUXMASMONSTER_EVENT_TIME@@XZ ENDP ; std::_Vector_const_iterator<std::_Vector_val<XMASMONSTER_EVENT_TIME,std::allocator<XMASMONSTER_EVENT_TIME> > >::operator*
_TEXT	ENDS
PUBLIC	?capacity@?$vector@UXMASMONSTER_EVENT_TIME@@V?$allocator@UXMASMONSTER_EVENT_TIME@@@std@@@std@@QBEIXZ ; std::vector<XMASMONSTER_EVENT_TIME,std::allocator<XMASMONSTER_EVENT_TIME> >::capacity
; Function compile flags: /Ogtp
;	COMDAT ?capacity@?$vector@UXMASMONSTER_EVENT_TIME@@V?$allocator@UXMASMONSTER_EVENT_TIME@@@std@@@std@@QBEIXZ
_TEXT	SEGMENT
?capacity@?$vector@UXMASMONSTER_EVENT_TIME@@V?$allocator@UXMASMONSTER_EVENT_TIME@@@std@@@std@@QBEIXZ PROC ; std::vector<XMASMONSTER_EVENT_TIME,std::allocator<XMASMONSTER_EVENT_TIME> >::capacity, COMDAT
; _this$ = ecx

; 777  : 		return (this->_Myend - this->_Myfirst);

  00000	8b 41 08	 mov	 eax, DWORD PTR [ecx+8]
  00003	2b 01		 sub	 eax, DWORD PTR [ecx]
  00005	c1 f8 03	 sar	 eax, 3

; 778  : 		}

  00008	c3		 ret	 0
?capacity@?$vector@UXMASMONSTER_EVENT_TIME@@V?$allocator@UXMASMONSTER_EVENT_TIME@@@std@@@std@@QBEIXZ ENDP ; std::vector<XMASMONSTER_EVENT_TIME,std::allocator<XMASMONSTER_EVENT_TIME> >::capacity
_TEXT	ENDS
PUBLIC	?size@?$vector@UXMASMONSTER_EVENT_TIME@@V?$allocator@UXMASMONSTER_EVENT_TIME@@@std@@@std@@QBEIXZ ; std::vector<XMASMONSTER_EVENT_TIME,std::allocator<XMASMONSTER_EVENT_TIME> >::size
; Function compile flags: /Ogtp
;	COMDAT ?size@?$vector@UXMASMONSTER_EVENT_TIME@@V?$allocator@UXMASMONSTER_EVENT_TIME@@@std@@@std@@QBEIXZ
_TEXT	SEGMENT
?size@?$vector@UXMASMONSTER_EVENT_TIME@@V?$allocator@UXMASMONSTER_EVENT_TIME@@@std@@@std@@QBEIXZ PROC ; std::vector<XMASMONSTER_EVENT_TIME,std::allocator<XMASMONSTER_EVENT_TIME> >::size, COMDAT
; _this$ = ecx

; 879  : 		return (this->_Mylast - this->_Myfirst);

  00000	8b 41 04	 mov	 eax, DWORD PTR [ecx+4]
  00003	2b 01		 sub	 eax, DWORD PTR [ecx]
  00005	c1 f8 03	 sar	 eax, 3

; 880  : 		}

  00008	c3		 ret	 0
?size@?$vector@UXMASMONSTER_EVENT_TIME@@V?$allocator@UXMASMONSTER_EVENT_TIME@@@std@@@std@@QBEIXZ ENDP ; std::vector<XMASMONSTER_EVENT_TIME,std::allocator<XMASMONSTER_EVENT_TIME> >::size
_TEXT	ENDS
PUBLIC	??_C@_0BD@OLBABOEK@vector?$DMT?$DO?5too?5long?$AA@ ; `string'
PUBLIC	?_Xlen@?$vector@UXMASMONSTER_EVENT_TIME@@V?$allocator@UXMASMONSTER_EVENT_TIME@@@std@@@std@@IBEXXZ ; std::vector<XMASMONSTER_EVENT_TIME,std::allocator<XMASMONSTER_EVENT_TIME> >::_Xlen
EXTRN	?_Xlength_error@std@@YAXPBD@Z:PROC		; std::_Xlength_error
;	COMDAT ??_C@_0BD@OLBABOEK@vector?$DMT?$DO?5too?5long?$AA@
CONST	SEGMENT
??_C@_0BD@OLBABOEK@vector?$DMT?$DO?5too?5long?$AA@ DB 'vector<T> too long'
	DB	00H						; `string'
; Function compile flags: /Ogtp
CONST	ENDS
;	COMDAT ?_Xlen@?$vector@UXMASMONSTER_EVENT_TIME@@V?$allocator@UXMASMONSTER_EVENT_TIME@@@std@@@std@@IBEXXZ
_TEXT	SEGMENT
?_Xlen@?$vector@UXMASMONSTER_EVENT_TIME@@V?$allocator@UXMASMONSTER_EVENT_TIME@@@std@@@std@@IBEXXZ PROC ; std::vector<XMASMONSTER_EVENT_TIME,std::allocator<XMASMONSTER_EVENT_TIME> >::_Xlen, COMDAT
; _this$ = ecx

; 1427 : 		_Xlength_error("vector<T> too long");

  00000	68 00 00 00 00	 push	 OFFSET ??_C@_0BD@OLBABOEK@vector?$DMT?$DO?5too?5long?$AA@
  00005	e8 00 00 00 00	 call	 ?_Xlength_error@std@@YAXPBD@Z ; std::_Xlength_error
$LN4@Xlen:
$LN3@Xlen:
  0000a	cc		 int	 3
?_Xlen@?$vector@UXMASMONSTER_EVENT_TIME@@V?$allocator@UXMASMONSTER_EVENT_TIME@@@std@@@std@@IBEXXZ ENDP ; std::vector<XMASMONSTER_EVENT_TIME,std::allocator<XMASMONSTER_EVENT_TIME> >::_Xlen
_TEXT	ENDS
PUBLIC	?capacity@?$vector@UXMASMONSTER_DATA@@V?$allocator@UXMASMONSTER_DATA@@@std@@@std@@QBEIXZ ; std::vector<XMASMONSTER_DATA,std::allocator<XMASMONSTER_DATA> >::capacity
; Function compile flags: /Ogtp
;	COMDAT ?capacity@?$vector@UXMASMONSTER_DATA@@V?$allocator@UXMASMONSTER_DATA@@@std@@@std@@QBEIXZ
_TEXT	SEGMENT
?capacity@?$vector@UXMASMONSTER_DATA@@V?$allocator@UXMASMONSTER_DATA@@@std@@@std@@QBEIXZ PROC ; std::vector<XMASMONSTER_DATA,std::allocator<XMASMONSTER_DATA> >::capacity, COMDAT
; _this$ = ecx

; 777  : 		return (this->_Myend - this->_Myfirst);

  00000	8b 51 08	 mov	 edx, DWORD PTR [ecx+8]
  00003	2b 11		 sub	 edx, DWORD PTR [ecx]
  00005	b8 ab aa aa 2a	 mov	 eax, 715827883		; 2aaaaaabH
  0000a	f7 ea		 imul	 edx
  0000c	d1 fa		 sar	 edx, 1
  0000e	8b c2		 mov	 eax, edx
  00010	c1 e8 1f	 shr	 eax, 31			; 0000001fH
  00013	03 c2		 add	 eax, edx

; 778  : 		}

  00015	c3		 ret	 0
?capacity@?$vector@UXMASMONSTER_DATA@@V?$allocator@UXMASMONSTER_DATA@@@std@@@std@@QBEIXZ ENDP ; std::vector<XMASMONSTER_DATA,std::allocator<XMASMONSTER_DATA> >::capacity
_TEXT	ENDS
PUBLIC	?size@?$vector@UXMASMONSTER_DATA@@V?$allocator@UXMASMONSTER_DATA@@@std@@@std@@QBEIXZ ; std::vector<XMASMONSTER_DATA,std::allocator<XMASMONSTER_DATA> >::size
; Function compile flags: /Ogtp
;	COMDAT ?size@?$vector@UXMASMONSTER_DATA@@V?$allocator@UXMASMONSTER_DATA@@@std@@@std@@QBEIXZ
_TEXT	SEGMENT
?size@?$vector@UXMASMONSTER_DATA@@V?$allocator@UXMASMONSTER_DATA@@@std@@@std@@QBEIXZ PROC ; std::vector<XMASMONSTER_DATA,std::allocator<XMASMONSTER_DATA> >::size, COMDAT
; _this$ = ecx

; 879  : 		return (this->_Mylast - this->_Myfirst);

  00000	8b 51 04	 mov	 edx, DWORD PTR [ecx+4]
  00003	2b 11		 sub	 edx, DWORD PTR [ecx]
  00005	b8 ab aa aa 2a	 mov	 eax, 715827883		; 2aaaaaabH
  0000a	f7 ea		 imul	 edx
  0000c	d1 fa		 sar	 edx, 1
  0000e	8b c2		 mov	 eax, edx
  00010	c1 e8 1f	 shr	 eax, 31			; 0000001fH
  00013	03 c2		 add	 eax, edx

; 880  : 		}

  00015	c3		 ret	 0
?size@?$vector@UXMASMONSTER_DATA@@V?$allocator@UXMASMONSTER_DATA@@@std@@@std@@QBEIXZ ENDP ; std::vector<XMASMONSTER_DATA,std::allocator<XMASMONSTER_DATA> >::size
_TEXT	ENDS
PUBLIC	?_Xlen@?$vector@UXMASMONSTER_DATA@@V?$allocator@UXMASMONSTER_DATA@@@std@@@std@@IBEXXZ ; std::vector<XMASMONSTER_DATA,std::allocator<XMASMONSTER_DATA> >::_Xlen
; Function compile flags: /Ogtp
;	COMDAT ?_Xlen@?$vector@UXMASMONSTER_DATA@@V?$allocator@UXMASMONSTER_DATA@@@std@@@std@@IBEXXZ
_TEXT	SEGMENT
?_Xlen@?$vector@UXMASMONSTER_DATA@@V?$allocator@UXMASMONSTER_DATA@@@std@@@std@@IBEXXZ PROC ; std::vector<XMASMONSTER_DATA,std::allocator<XMASMONSTER_DATA> >::_Xlen, COMDAT
; _this$ = ecx

; 1427 : 		_Xlength_error("vector<T> too long");

  00000	68 00 00 00 00	 push	 OFFSET ??_C@_0BD@OLBABOEK@vector?$DMT?$DO?5too?5long?$AA@
  00005	e8 00 00 00 00	 call	 ?_Xlength_error@std@@YAXPBD@Z ; std::_Xlength_error
$LN4@Xlen@2:
$LN3@Xlen@2:
  0000a	cc		 int	 3
?_Xlen@?$vector@UXMASMONSTER_DATA@@V?$allocator@UXMASMONSTER_DATA@@@std@@@std@@IBEXXZ ENDP ; std::vector<XMASMONSTER_DATA,std::allocator<XMASMONSTER_DATA> >::_Xlen
_TEXT	ENDS
PUBLIC	?capacity@?$vector@PAVCXMasMonsterHerd@@V?$allocator@PAVCXMasMonsterHerd@@@std@@@std@@QBEIXZ ; std::vector<CXMasMonsterHerd *,std::allocator<CXMasMonsterHerd *> >::capacity
; Function compile flags: /Ogtp
;	COMDAT ?capacity@?$vector@PAVCXMasMonsterHerd@@V?$allocator@PAVCXMasMonsterHerd@@@std@@@std@@QBEIXZ
_TEXT	SEGMENT
?capacity@?$vector@PAVCXMasMonsterHerd@@V?$allocator@PAVCXMasMonsterHerd@@@std@@@std@@QBEIXZ PROC ; std::vector<CXMasMonsterHerd *,std::allocator<CXMasMonsterHerd *> >::capacity, COMDAT
; _this$ = ecx

; 777  : 		return (this->_Myend - this->_Myfirst);

  00000	8b 41 08	 mov	 eax, DWORD PTR [ecx+8]
  00003	2b 01		 sub	 eax, DWORD PTR [ecx]
  00005	c1 f8 02	 sar	 eax, 2

; 778  : 		}

  00008	c3		 ret	 0
?capacity@?$vector@PAVCXMasMonsterHerd@@V?$allocator@PAVCXMasMonsterHerd@@@std@@@std@@QBEIXZ ENDP ; std::vector<CXMasMonsterHerd *,std::allocator<CXMasMonsterHerd *> >::capacity
_TEXT	ENDS
PUBLIC	?_Xlen@?$vector@PAVCXMasMonsterHerd@@V?$allocator@PAVCXMasMonsterHerd@@@std@@@std@@IBEXXZ ; std::vector<CXMasMonsterHerd *,std::allocator<CXMasMonsterHerd *> >::_Xlen
; Function compile flags: /Ogtp
;	COMDAT ?_Xlen@?$vector@PAVCXMasMonsterHerd@@V?$allocator@PAVCXMasMonsterHerd@@@std@@@std@@IBEXXZ
_TEXT	SEGMENT
?_Xlen@?$vector@PAVCXMasMonsterHerd@@V?$allocator@PAVCXMasMonsterHerd@@@std@@@std@@IBEXXZ PROC ; std::vector<CXMasMonsterHerd *,std::allocator<CXMasMonsterHerd *> >::_Xlen, COMDAT
; _this$ = ecx

; 1427 : 		_Xlength_error("vector<T> too long");

  00000	68 00 00 00 00	 push	 OFFSET ??_C@_0BD@OLBABOEK@vector?$DMT?$DO?5too?5long?$AA@
  00005	e8 00 00 00 00	 call	 ?_Xlength_error@std@@YAXPBD@Z ; std::_Xlength_error
$LN4@Xlen@3:
$LN3@Xlen@3:
  0000a	cc		 int	 3
?_Xlen@?$vector@PAVCXMasMonsterHerd@@V?$allocator@PAVCXMasMonsterHerd@@@std@@@std@@IBEXXZ ENDP ; std::vector<CXMasMonsterHerd *,std::allocator<CXMasMonsterHerd *> >::_Xlen
_TEXT	ENDS
PUBLIC	?capacity@?$vector@UXMASMONSTER_MAP_INFO@@V?$allocator@UXMASMONSTER_MAP_INFO@@@std@@@std@@QBEIXZ ; std::vector<XMASMONSTER_MAP_INFO,std::allocator<XMASMONSTER_MAP_INFO> >::capacity
; Function compile flags: /Ogtp
;	COMDAT ?capacity@?$vector@UXMASMONSTER_MAP_INFO@@V?$allocator@UXMASMONSTER_MAP_INFO@@@std@@@std@@QBEIXZ
_TEXT	SEGMENT
?capacity@?$vector@UXMASMONSTER_MAP_INFO@@V?$allocator@UXMASMONSTER_MAP_INFO@@@std@@@std@@QBEIXZ PROC ; std::vector<XMASMONSTER_MAP_INFO,std::allocator<XMASMONSTER_MAP_INFO> >::capacity, COMDAT
; _this$ = ecx

; 777  : 		return (this->_Myend - this->_Myfirst);

  00000	8b 51 08	 mov	 edx, DWORD PTR [ecx+8]
  00003	2b 11		 sub	 edx, DWORD PTR [ecx]
  00005	b8 67 66 66 66	 mov	 eax, 1717986919		; 66666667H
  0000a	f7 ea		 imul	 edx
  0000c	c1 fa 03	 sar	 edx, 3
  0000f	8b c2		 mov	 eax, edx
  00011	c1 e8 1f	 shr	 eax, 31			; 0000001fH
  00014	03 c2		 add	 eax, edx

; 778  : 		}

  00016	c3		 ret	 0
?capacity@?$vector@UXMASMONSTER_MAP_INFO@@V?$allocator@UXMASMONSTER_MAP_INFO@@@std@@@std@@QBEIXZ ENDP ; std::vector<XMASMONSTER_MAP_INFO,std::allocator<XMASMONSTER_MAP_INFO> >::capacity
_TEXT	ENDS
PUBLIC	?_Xlen@?$vector@UXMASMONSTER_MAP_INFO@@V?$allocator@UXMASMONSTER_MAP_INFO@@@std@@@std@@IBEXXZ ; std::vector<XMASMONSTER_MAP_INFO,std::allocator<XMASMONSTER_MAP_INFO> >::_Xlen
; Function compile flags: /Ogtp
;	COMDAT ?_Xlen@?$vector@UXMASMONSTER_MAP_INFO@@V?$allocator@UXMASMONSTER_MAP_INFO@@@std@@@std@@IBEXXZ
_TEXT	SEGMENT
?_Xlen@?$vector@UXMASMONSTER_MAP_INFO@@V?$allocator@UXMASMONSTER_MAP_INFO@@@std@@@std@@IBEXXZ PROC ; std::vector<XMASMONSTER_MAP_INFO,std::allocator<XMASMONSTER_MAP_INFO> >::_Xlen, COMDAT
; _this$ = ecx

; 1427 : 		_Xlength_error("vector<T> too long");

  00000	68 00 00 00 00	 push	 OFFSET ??_C@_0BD@OLBABOEK@vector?$DMT?$DO?5too?5long?$AA@
  00005	e8 00 00 00 00	 call	 ?_Xlength_error@std@@YAXPBD@Z ; std::_Xlength_error
$LN4@Xlen@4:
$LN3@Xlen@4:
  0000a	cc		 int	 3
?_Xlen@?$vector@UXMASMONSTER_MAP_INFO@@V?$allocator@UXMASMONSTER_MAP_INFO@@@std@@@std@@IBEXXZ ENDP ; std::vector<XMASMONSTER_MAP_INFO,std::allocator<XMASMONSTER_MAP_INFO> >::_Xlen
_TEXT	ENDS
PUBLIC	??0?$allocator@UXMASMONSTER_MAP_INFO@@@std@@QAE@ABV01@@Z ; std::allocator<XMASMONSTER_MAP_INFO>::allocator<XMASMONSTER_MAP_INFO>
; Function compile flags: /Ogtp
; File d:\program files (x86)\microsoft visual studio 10.0\vc\include\xmemory
;	COMDAT ??0?$allocator@UXMASMONSTER_MAP_INFO@@@std@@QAE@ABV01@@Z
_TEXT	SEGMENT
___formal$ = 8						; size = 4
??0?$allocator@UXMASMONSTER_MAP_INFO@@@std@@QAE@ABV01@@Z PROC ; std::allocator<XMASMONSTER_MAP_INFO>::allocator<XMASMONSTER_MAP_INFO>, COMDAT
; _this$ = ecx

; 165  : 	_ALLOCATOR(const _ALLOCATOR<_Ty>&) _THROW0()

  00000	8b c1		 mov	 eax, ecx

; 166  : 		{	// construct by copying (do nothing)
; 167  : 		}

  00002	c2 04 00	 ret	 4
??0?$allocator@UXMASMONSTER_MAP_INFO@@@std@@QAE@ABV01@@Z ENDP ; std::allocator<XMASMONSTER_MAP_INFO>::allocator<XMASMONSTER_MAP_INFO>
_TEXT	ENDS
PUBLIC	?deallocate@?$allocator@UXMASMONSTER_MAP_INFO@@@std@@QAEXPAUXMASMONSTER_MAP_INFO@@I@Z ; std::allocator<XMASMONSTER_MAP_INFO>::deallocate
EXTRN	??3@YAXPAX@Z:PROC				; operator delete
; Function compile flags: /Ogtp
;	COMDAT ?deallocate@?$allocator@UXMASMONSTER_MAP_INFO@@@std@@QAEXPAUXMASMONSTER_MAP_INFO@@I@Z
_TEXT	SEGMENT
__Ptr$ = 8						; size = 4
___formal$ = 12						; size = 4
?deallocate@?$allocator@UXMASMONSTER_MAP_INFO@@@std@@QAEXPAUXMASMONSTER_MAP_INFO@@I@Z PROC ; std::allocator<XMASMONSTER_MAP_INFO>::deallocate, COMDAT
; _this$ = ecx

; 181  : 		{	// deallocate object at _Ptr, ignore size

  00000	55		 push	 ebp
  00001	8b ec		 mov	 ebp, esp

; 182  : 		::operator delete(_Ptr);

  00003	8b 45 08	 mov	 eax, DWORD PTR __Ptr$[ebp]
  00006	50		 push	 eax
  00007	e8 00 00 00 00	 call	 ??3@YAXPAX@Z		; operator delete
  0000c	83 c4 04	 add	 esp, 4

; 183  : 		}

  0000f	5d		 pop	 ebp
  00010	c2 08 00	 ret	 8
?deallocate@?$allocator@UXMASMONSTER_MAP_INFO@@@std@@QAEXPAUXMASMONSTER_MAP_INFO@@I@Z ENDP ; std::allocator<XMASMONSTER_MAP_INFO>::deallocate
_TEXT	ENDS
PUBLIC	?_Compat@?$_Vector_const_iterator@V?$_Vector_val@PAVCXMasMonsterHerd@@V?$allocator@PAVCXMasMonsterHerd@@@std@@@std@@@std@@QBEXABV12@@Z ; std::_Vector_const_iterator<std::_Vector_val<CXMasMonsterHerd *,std::allocator<CXMasMonsterHerd *> > >::_Compat
; Function compile flags: /Ogtp
; File d:\program files (x86)\microsoft visual studio 10.0\vc\include\vector
;	COMDAT ?_Compat@?$_Vector_const_iterator@V?$_Vector_val@PAVCXMasMonsterHerd@@V?$allocator@PAVCXMasMonsterHerd@@@std@@@std@@@std@@QBEXABV12@@Z
_TEXT	SEGMENT
___formal$ = 8						; size = 4
?_Compat@?$_Vector_const_iterator@V?$_Vector_val@PAVCXMasMonsterHerd@@V?$allocator@PAVCXMasMonsterHerd@@@std@@@std@@@std@@QBEXABV12@@Z PROC ; std::_Vector_const_iterator<std::_Vector_val<CXMasMonsterHerd *,std::allocator<CXMasMonsterHerd *> > >::_Compat, COMDAT
; _this$ = ecx

; 253  : 		}

  00000	c2 04 00	 ret	 4
?_Compat@?$_Vector_const_iterator@V?$_Vector_val@PAVCXMasMonsterHerd@@V?$allocator@PAVCXMasMonsterHerd@@@std@@@std@@@std@@QBEXABV12@@Z ENDP ; std::_Vector_const_iterator<std::_Vector_val<CXMasMonsterHerd *,std::allocator<CXMasMonsterHerd *> > >::_Compat
_TEXT	ENDS
PUBLIC	??E?$_Vector_const_iterator@V?$_Vector_val@UXMASMONSTER_MAP_INFO@@V?$allocator@UXMASMONSTER_MAP_INFO@@@std@@@std@@@std@@QAEAAV01@XZ ; std::_Vector_const_iterator<std::_Vector_val<XMASMONSTER_MAP_INFO,std::allocator<XMASMONSTER_MAP_INFO> > >::operator++
; Function compile flags: /Ogtp
;	COMDAT ??E?$_Vector_const_iterator@V?$_Vector_val@UXMASMONSTER_MAP_INFO@@V?$allocator@UXMASMONSTER_MAP_INFO@@@std@@@std@@@std@@QAEAAV01@XZ
_TEXT	SEGMENT
??E?$_Vector_const_iterator@V?$_Vector_val@UXMASMONSTER_MAP_INFO@@V?$allocator@UXMASMONSTER_MAP_INFO@@@std@@@std@@@std@@QAEAAV01@XZ PROC ; std::_Vector_const_iterator<std::_Vector_val<XMASMONSTER_MAP_INFO,std::allocator<XMASMONSTER_MAP_INFO> > >::operator++, COMDAT
; _this$ = ecx

; 93   : 		{	// preincrement

  00000	8b c1		 mov	 eax, ecx

; 94   :  #if _ITERATOR_DEBUG_LEVEL == 2
; 95   : 		if (this->_Getcont() == 0
; 96   : 			|| this->_Ptr == 0
; 97   : 			|| ((_Myvec *)this->_Getcont())->_Mylast <= this->_Ptr)
; 98   : 			{	// report error
; 99   : 			_DEBUG_ERROR("vector iterator not incrementable");
; 100  : 			_SCL_SECURE_OUT_OF_RANGE;
; 101  : 			}
; 102  : 
; 103  :  #elif _ITERATOR_DEBUG_LEVEL == 1
; 104  : 		_SCL_SECURE_VALIDATE(this->_Getcont() != 0);
; 105  : 		_SCL_SECURE_VALIDATE_RANGE(
; 106  : 			this->_Ptr != 0
; 107  : 			&& this->_Ptr < ((_Myvec *)this->_Getcont())->_Mylast);
; 108  :  #endif /* _ITERATOR_DEBUG_LEVEL */
; 109  : 
; 110  : 		++this->_Ptr;

  00002	83 00 14	 add	 DWORD PTR [eax], 20	; 00000014H

; 111  : 		return (*this);
; 112  : 		}

  00005	c3		 ret	 0
??E?$_Vector_const_iterator@V?$_Vector_val@UXMASMONSTER_MAP_INFO@@V?$allocator@UXMASMONSTER_MAP_INFO@@@std@@@std@@@std@@QAEAAV01@XZ ENDP ; std::_Vector_const_iterator<std::_Vector_val<XMASMONSTER_MAP_INFO,std::allocator<XMASMONSTER_MAP_INFO> > >::operator++
_TEXT	ENDS
PUBLIC	?_Compat@?$_Vector_const_iterator@V?$_Vector_val@UXMASMONSTER_MAP_INFO@@V?$allocator@UXMASMONSTER_MAP_INFO@@@std@@@std@@@std@@QBEXABV12@@Z ; std::_Vector_const_iterator<std::_Vector_val<XMASMONSTER_MAP_INFO,std::allocator<XMASMONSTER_MAP_INFO> > >::_Compat
; Function compile flags: /Ogtp
;	COMDAT ?_Compat@?$_Vector_const_iterator@V?$_Vector_val@UXMASMONSTER_MAP_INFO@@V?$allocator@UXMASMONSTER_MAP_INFO@@@std@@@std@@@std@@QBEXABV12@@Z
_TEXT	SEGMENT
___formal$ = 8						; size = 4
?_Compat@?$_Vector_const_iterator@V?$_Vector_val@UXMASMONSTER_MAP_INFO@@V?$allocator@UXMASMONSTER_MAP_INFO@@@std@@@std@@@std@@QBEXABV12@@Z PROC ; std::_Vector_const_iterator<std::_Vector_val<XMASMONSTER_MAP_INFO,std::allocator<XMASMONSTER_MAP_INFO> > >::_Compat, COMDAT
; _this$ = ecx

; 253  : 		}

  00000	c2 04 00	 ret	 4
?_Compat@?$_Vector_const_iterator@V?$_Vector_val@UXMASMONSTER_MAP_INFO@@V?$allocator@UXMASMONSTER_MAP_INFO@@@std@@@std@@@std@@QBEXABV12@@Z ENDP ; std::_Vector_const_iterator<std::_Vector_val<XMASMONSTER_MAP_INFO,std::allocator<XMASMONSTER_MAP_INFO> > >::_Compat
_TEXT	ENDS
PUBLIC	??E?$_Vector_const_iterator@V?$_Vector_val@UXMASMONSTER_DATA@@V?$allocator@UXMASMONSTER_DATA@@@std@@@std@@@std@@QAEAAV01@XZ ; std::_Vector_const_iterator<std::_Vector_val<XMASMONSTER_DATA,std::allocator<XMASMONSTER_DATA> > >::operator++
; Function compile flags: /Ogtp
;	COMDAT ??E?$_Vector_const_iterator@V?$_Vector_val@UXMASMONSTER_DATA@@V?$allocator@UXMASMONSTER_DATA@@@std@@@std@@@std@@QAEAAV01@XZ
_TEXT	SEGMENT
??E?$_Vector_const_iterator@V?$_Vector_val@UXMASMONSTER_DATA@@V?$allocator@UXMASMONSTER_DATA@@@std@@@std@@@std@@QAEAAV01@XZ PROC ; std::_Vector_const_iterator<std::_Vector_val<XMASMONSTER_DATA,std::allocator<XMASMONSTER_DATA> > >::operator++, COMDAT
; _this$ = ecx

; 93   : 		{	// preincrement

  00000	8b c1		 mov	 eax, ecx

; 94   :  #if _ITERATOR_DEBUG_LEVEL == 2
; 95   : 		if (this->_Getcont() == 0
; 96   : 			|| this->_Ptr == 0
; 97   : 			|| ((_Myvec *)this->_Getcont())->_Mylast <= this->_Ptr)
; 98   : 			{	// report error
; 99   : 			_DEBUG_ERROR("vector iterator not incrementable");
; 100  : 			_SCL_SECURE_OUT_OF_RANGE;
; 101  : 			}
; 102  : 
; 103  :  #elif _ITERATOR_DEBUG_LEVEL == 1
; 104  : 		_SCL_SECURE_VALIDATE(this->_Getcont() != 0);
; 105  : 		_SCL_SECURE_VALIDATE_RANGE(
; 106  : 			this->_Ptr != 0
; 107  : 			&& this->_Ptr < ((_Myvec *)this->_Getcont())->_Mylast);
; 108  :  #endif /* _ITERATOR_DEBUG_LEVEL */
; 109  : 
; 110  : 		++this->_Ptr;

  00002	83 00 0c	 add	 DWORD PTR [eax], 12	; 0000000cH

; 111  : 		return (*this);
; 112  : 		}

  00005	c3		 ret	 0
??E?$_Vector_const_iterator@V?$_Vector_val@UXMASMONSTER_DATA@@V?$allocator@UXMASMONSTER_DATA@@@std@@@std@@@std@@QAEAAV01@XZ ENDP ; std::_Vector_const_iterator<std::_Vector_val<XMASMONSTER_DATA,std::allocator<XMASMONSTER_DATA> > >::operator++
_TEXT	ENDS
PUBLIC	?_Compat@?$_Vector_const_iterator@V?$_Vector_val@UXMASMONSTER_DATA@@V?$allocator@UXMASMONSTER_DATA@@@std@@@std@@@std@@QBEXABV12@@Z ; std::_Vector_const_iterator<std::_Vector_val<XMASMONSTER_DATA,std::allocator<XMASMONSTER_DATA> > >::_Compat
; Function compile flags: /Ogtp
;	COMDAT ?_Compat@?$_Vector_const_iterator@V?$_Vector_val@UXMASMONSTER_DATA@@V?$allocator@UXMASMONSTER_DATA@@@std@@@std@@@std@@QBEXABV12@@Z
_TEXT	SEGMENT
___formal$ = 8						; size = 4
?_Compat@?$_Vector_const_iterator@V?$_Vector_val@UXMASMONSTER_DATA@@V?$allocator@UXMASMONSTER_DATA@@@std@@@std@@@std@@QBEXABV12@@Z PROC ; std::_Vector_const_iterator<std::_Vector_val<XMASMONSTER_DATA,std::allocator<XMASMONSTER_DATA> > >::_Compat, COMDAT
; _this$ = ecx

; 253  : 		}

  00000	c2 04 00	 ret	 4
?_Compat@?$_Vector_const_iterator@V?$_Vector_val@UXMASMONSTER_DATA@@V?$allocator@UXMASMONSTER_DATA@@@std@@@std@@@std@@QBEXABV12@@Z ENDP ; std::_Vector_const_iterator<std::_Vector_val<XMASMONSTER_DATA,std::allocator<XMASMONSTER_DATA> > >::_Compat
_TEXT	ENDS
PUBLIC	??E?$_Vector_const_iterator@V?$_Vector_val@UXMASMONSTER_EVENT_TIME@@V?$allocator@UXMASMONSTER_EVENT_TIME@@@std@@@std@@@std@@QAEAAV01@XZ ; std::_Vector_const_iterator<std::_Vector_val<XMASMONSTER_EVENT_TIME,std::allocator<XMASMONSTER_EVENT_TIME> > >::operator++
; Function compile flags: /Ogtp
;	COMDAT ??E?$_Vector_const_iterator@V?$_Vector_val@UXMASMONSTER_EVENT_TIME@@V?$allocator@UXMASMONSTER_EVENT_TIME@@@std@@@std@@@std@@QAEAAV01@XZ
_TEXT	SEGMENT
??E?$_Vector_const_iterator@V?$_Vector_val@UXMASMONSTER_EVENT_TIME@@V?$allocator@UXMASMONSTER_EVENT_TIME@@@std@@@std@@@std@@QAEAAV01@XZ PROC ; std::_Vector_const_iterator<std::_Vector_val<XMASMONSTER_EVENT_TIME,std::allocator<XMASMONSTER_EVENT_TIME> > >::operator++, COMDAT
; _this$ = ecx

; 93   : 		{	// preincrement

  00000	8b c1		 mov	 eax, ecx

; 94   :  #if _ITERATOR_DEBUG_LEVEL == 2
; 95   : 		if (this->_Getcont() == 0
; 96   : 			|| this->_Ptr == 0
; 97   : 			|| ((_Myvec *)this->_Getcont())->_Mylast <= this->_Ptr)
; 98   : 			{	// report error
; 99   : 			_DEBUG_ERROR("vector iterator not incrementable");
; 100  : 			_SCL_SECURE_OUT_OF_RANGE;
; 101  : 			}
; 102  : 
; 103  :  #elif _ITERATOR_DEBUG_LEVEL == 1
; 104  : 		_SCL_SECURE_VALIDATE(this->_Getcont() != 0);
; 105  : 		_SCL_SECURE_VALIDATE_RANGE(
; 106  : 			this->_Ptr != 0
; 107  : 			&& this->_Ptr < ((_Myvec *)this->_Getcont())->_Mylast);
; 108  :  #endif /* _ITERATOR_DEBUG_LEVEL */
; 109  : 
; 110  : 		++this->_Ptr;

  00002	83 00 08	 add	 DWORD PTR [eax], 8

; 111  : 		return (*this);
; 112  : 		}

  00005	c3		 ret	 0
??E?$_Vector_const_iterator@V?$_Vector_val@UXMASMONSTER_EVENT_TIME@@V?$allocator@UXMASMONSTER_EVENT_TIME@@@std@@@std@@@std@@QAEAAV01@XZ ENDP ; std::_Vector_const_iterator<std::_Vector_val<XMASMONSTER_EVENT_TIME,std::allocator<XMASMONSTER_EVENT_TIME> > >::operator++
_TEXT	ENDS
PUBLIC	?_Compat@?$_Vector_const_iterator@V?$_Vector_val@UXMASMONSTER_EVENT_TIME@@V?$allocator@UXMASMONSTER_EVENT_TIME@@@std@@@std@@@std@@QBEXABV12@@Z ; std::_Vector_const_iterator<std::_Vector_val<XMASMONSTER_EVENT_TIME,std::allocator<XMASMONSTER_EVENT_TIME> > >::_Compat
; Function compile flags: /Ogtp
;	COMDAT ?_Compat@?$_Vector_const_iterator@V?$_Vector_val@UXMASMONSTER_EVENT_TIME@@V?$allocator@UXMASMONSTER_EVENT_TIME@@@std@@@std@@@std@@QBEXABV12@@Z
_TEXT	SEGMENT
___formal$ = 8						; size = 4
?_Compat@?$_Vector_const_iterator@V?$_Vector_val@UXMASMONSTER_EVENT_TIME@@V?$allocator@UXMASMONSTER_EVENT_TIME@@@std@@@std@@@std@@QBEXABV12@@Z PROC ; std::_Vector_const_iterator<std::_Vector_val<XMASMONSTER_EVENT_TIME,std::allocator<XMASMONSTER_EVENT_TIME> > >::_Compat, COMDAT
; _this$ = ecx

; 253  : 		}

  00000	c2 04 00	 ret	 4
?_Compat@?$_Vector_const_iterator@V?$_Vector_val@UXMASMONSTER_EVENT_TIME@@V?$allocator@UXMASMONSTER_EVENT_TIME@@@std@@@std@@@std@@QBEXABV12@@Z ENDP ; std::_Vector_const_iterator<std::_Vector_val<XMASMONSTER_EVENT_TIME,std::allocator<XMASMONSTER_EVENT_TIME> > >::_Compat
_TEXT	ENDS
PUBLIC	?deallocate@?$allocator@UXMASMONSTER_EVENT_TIME@@@std@@QAEXPAUXMASMONSTER_EVENT_TIME@@I@Z ; std::allocator<XMASMONSTER_EVENT_TIME>::deallocate
; Function compile flags: /Ogtp
; File d:\program files (x86)\microsoft visual studio 10.0\vc\include\xmemory
;	COMDAT ?deallocate@?$allocator@UXMASMONSTER_EVENT_TIME@@@std@@QAEXPAUXMASMONSTER_EVENT_TIME@@I@Z
_TEXT	SEGMENT
__Ptr$ = 8						; size = 4
___formal$ = 12						; size = 4
?deallocate@?$allocator@UXMASMONSTER_EVENT_TIME@@@std@@QAEXPAUXMASMONSTER_EVENT_TIME@@I@Z PROC ; std::allocator<XMASMONSTER_EVENT_TIME>::deallocate, COMDAT
; _this$ = ecx

; 181  : 		{	// deallocate object at _Ptr, ignore size

  00000	55		 push	 ebp
  00001	8b ec		 mov	 ebp, esp

; 182  : 		::operator delete(_Ptr);

  00003	8b 45 08	 mov	 eax, DWORD PTR __Ptr$[ebp]
  00006	50		 push	 eax
  00007	e8 00 00 00 00	 call	 ??3@YAXPAX@Z		; operator delete
  0000c	83 c4 04	 add	 esp, 4

; 183  : 		}

  0000f	5d		 pop	 ebp
  00010	c2 08 00	 ret	 8
?deallocate@?$allocator@UXMASMONSTER_EVENT_TIME@@@std@@QAEXPAUXMASMONSTER_EVENT_TIME@@I@Z ENDP ; std::allocator<XMASMONSTER_EVENT_TIME>::deallocate
_TEXT	ENDS
PUBLIC	?max_size@?$allocator@UXMASMONSTER_EVENT_TIME@@@std@@QBEIXZ ; std::allocator<XMASMONSTER_EVENT_TIME>::max_size
; Function compile flags: /Ogtp
;	COMDAT ?max_size@?$allocator@UXMASMONSTER_EVENT_TIME@@@std@@QBEIXZ
_TEXT	SEGMENT
?max_size@?$allocator@UXMASMONSTER_EVENT_TIME@@@std@@QBEIXZ PROC ; std::allocator<XMASMONSTER_EVENT_TIME>::max_size, COMDAT
; _this$ = ecx

; 218  : 		_SIZT _Count = (_SIZT)(-1) / sizeof (_Ty);
; 219  : 		return (0 < _Count ? _Count : 1);

  00000	b8 ff ff ff 1f	 mov	 eax, 536870911		; 1fffffffH

; 220  : 		}

  00005	c3		 ret	 0
?max_size@?$allocator@UXMASMONSTER_EVENT_TIME@@@std@@QBEIXZ ENDP ; std::allocator<XMASMONSTER_EVENT_TIME>::max_size
_TEXT	ENDS
PUBLIC	?deallocate@?$allocator@UXMASMONSTER_DATA@@@std@@QAEXPAUXMASMONSTER_DATA@@I@Z ; std::allocator<XMASMONSTER_DATA>::deallocate
; Function compile flags: /Ogtp
;	COMDAT ?deallocate@?$allocator@UXMASMONSTER_DATA@@@std@@QAEXPAUXMASMONSTER_DATA@@I@Z
_TEXT	SEGMENT
__Ptr$ = 8						; size = 4
___formal$ = 12						; size = 4
?deallocate@?$allocator@UXMASMONSTER_DATA@@@std@@QAEXPAUXMASMONSTER_DATA@@I@Z PROC ; std::allocator<XMASMONSTER_DATA>::deallocate, COMDAT
; _this$ = ecx

; 181  : 		{	// deallocate object at _Ptr, ignore size

  00000	55		 push	 ebp
  00001	8b ec		 mov	 ebp, esp

; 182  : 		::operator delete(_Ptr);

  00003	8b 45 08	 mov	 eax, DWORD PTR __Ptr$[ebp]
  00006	50		 push	 eax
  00007	e8 00 00 00 00	 call	 ??3@YAXPAX@Z		; operator delete
  0000c	83 c4 04	 add	 esp, 4

; 183  : 		}

  0000f	5d		 pop	 ebp
  00010	c2 08 00	 ret	 8
?deallocate@?$allocator@UXMASMONSTER_DATA@@@std@@QAEXPAUXMASMONSTER_DATA@@I@Z ENDP ; std::allocator<XMASMONSTER_DATA>::deallocate
_TEXT	ENDS
PUBLIC	?max_size@?$allocator@UXMASMONSTER_DATA@@@std@@QBEIXZ ; std::allocator<XMASMONSTER_DATA>::max_size
; Function compile flags: /Ogtp
;	COMDAT ?max_size@?$allocator@UXMASMONSTER_DATA@@@std@@QBEIXZ
_TEXT	SEGMENT
?max_size@?$allocator@UXMASMONSTER_DATA@@@std@@QBEIXZ PROC ; std::allocator<XMASMONSTER_DATA>::max_size, COMDAT
; _this$ = ecx

; 218  : 		_SIZT _Count = (_SIZT)(-1) / sizeof (_Ty);
; 219  : 		return (0 < _Count ? _Count : 1);

  00000	b8 55 55 55 15	 mov	 eax, 357913941		; 15555555H

; 220  : 		}

  00005	c3		 ret	 0
?max_size@?$allocator@UXMASMONSTER_DATA@@@std@@QBEIXZ ENDP ; std::allocator<XMASMONSTER_DATA>::max_size
_TEXT	ENDS
PUBLIC	?deallocate@?$allocator@PAVCXMasMonsterHerd@@@std@@QAEXPAPAVCXMasMonsterHerd@@I@Z ; std::allocator<CXMasMonsterHerd *>::deallocate
; Function compile flags: /Ogtp
;	COMDAT ?deallocate@?$allocator@PAVCXMasMonsterHerd@@@std@@QAEXPAPAVCXMasMonsterHerd@@I@Z
_TEXT	SEGMENT
__Ptr$ = 8						; size = 4
___formal$ = 12						; size = 4
?deallocate@?$allocator@PAVCXMasMonsterHerd@@@std@@QAEXPAPAVCXMasMonsterHerd@@I@Z PROC ; std::allocator<CXMasMonsterHerd *>::deallocate, COMDAT
; _this$ = ecx

; 181  : 		{	// deallocate object at _Ptr, ignore size

  00000	55		 push	 ebp
  00001	8b ec		 mov	 ebp, esp

; 182  : 		::operator delete(_Ptr);

  00003	8b 45 08	 mov	 eax, DWORD PTR __Ptr$[ebp]
  00006	50		 push	 eax
  00007	e8 00 00 00 00	 call	 ??3@YAXPAX@Z		; operator delete
  0000c	83 c4 04	 add	 esp, 4

; 183  : 		}

  0000f	5d		 pop	 ebp
  00010	c2 08 00	 ret	 8
?deallocate@?$allocator@PAVCXMasMonsterHerd@@@std@@QAEXPAPAVCXMasMonsterHerd@@I@Z ENDP ; std::allocator<CXMasMonsterHerd *>::deallocate
_TEXT	ENDS
PUBLIC	?max_size@?$allocator@PAVCXMasMonsterHerd@@@std@@QBEIXZ ; std::allocator<CXMasMonsterHerd *>::max_size
; Function compile flags: /Ogtp
;	COMDAT ?max_size@?$allocator@PAVCXMasMonsterHerd@@@std@@QBEIXZ
_TEXT	SEGMENT
?max_size@?$allocator@PAVCXMasMonsterHerd@@@std@@QBEIXZ PROC ; std::allocator<CXMasMonsterHerd *>::max_size, COMDAT
; _this$ = ecx

; 218  : 		_SIZT _Count = (_SIZT)(-1) / sizeof (_Ty);
; 219  : 		return (0 < _Count ? _Count : 1);

  00000	b8 ff ff ff 3f	 mov	 eax, 1073741823		; 3fffffffH

; 220  : 		}

  00005	c3		 ret	 0
?max_size@?$allocator@PAVCXMasMonsterHerd@@@std@@QBEIXZ ENDP ; std::allocator<CXMasMonsterHerd *>::max_size
_TEXT	ENDS
PUBLIC	?max_size@?$allocator@UXMASMONSTER_MAP_INFO@@@std@@QBEIXZ ; std::allocator<XMASMONSTER_MAP_INFO>::max_size
; Function compile flags: /Ogtp
;	COMDAT ?max_size@?$allocator@UXMASMONSTER_MAP_INFO@@@std@@QBEIXZ
_TEXT	SEGMENT
?max_size@?$allocator@UXMASMONSTER_MAP_INFO@@@std@@QBEIXZ PROC ; std::allocator<XMASMONSTER_MAP_INFO>::max_size, COMDAT
; _this$ = ecx

; 218  : 		_SIZT _Count = (_SIZT)(-1) / sizeof (_Ty);
; 219  : 		return (0 < _Count ? _Count : 1);

  00000	b8 cc cc cc 0c	 mov	 eax, 214748364		; 0cccccccH

; 220  : 		}

  00005	c3		 ret	 0
?max_size@?$allocator@UXMASMONSTER_MAP_INFO@@@std@@QBEIXZ ENDP ; std::allocator<XMASMONSTER_MAP_INFO>::max_size
_TEXT	ENDS
PUBLIC	??$addressof@$$CBUXMASMONSTER_EVENT_TIME@@@std@@YAPBUXMASMONSTER_EVENT_TIME@@ABU1@@Z ; std::addressof<XMASMONSTER_EVENT_TIME const >
; Function compile flags: /Ogtp
;	COMDAT ??$addressof@$$CBUXMASMONSTER_EVENT_TIME@@@std@@YAPBUXMASMONSTER_EVENT_TIME@@ABU1@@Z
_TEXT	SEGMENT
__Val$ = 8						; size = 4
??$addressof@$$CBUXMASMONSTER_EVENT_TIME@@@std@@YAPBUXMASMONSTER_EVENT_TIME@@ABU1@@Z PROC ; std::addressof<XMASMONSTER_EVENT_TIME const >, COMDAT

; 110  : 	{	// return address of _Val

  00000	55		 push	 ebp
  00001	8b ec		 mov	 ebp, esp

; 111  : 	return ((_Ty *) &(char&)_Val);

  00003	8b 45 08	 mov	 eax, DWORD PTR __Val$[ebp]

; 112  : 	}

  00006	5d		 pop	 ebp
  00007	c3		 ret	 0
??$addressof@$$CBUXMASMONSTER_EVENT_TIME@@@std@@YAPBUXMASMONSTER_EVENT_TIME@@ABU1@@Z ENDP ; std::addressof<XMASMONSTER_EVENT_TIME const >
_TEXT	ENDS
PUBLIC	??$addressof@$$CBUXMASMONSTER_DATA@@@std@@YAPBUXMASMONSTER_DATA@@ABU1@@Z ; std::addressof<XMASMONSTER_DATA const >
; Function compile flags: /Ogtp
;	COMDAT ??$addressof@$$CBUXMASMONSTER_DATA@@@std@@YAPBUXMASMONSTER_DATA@@ABU1@@Z
_TEXT	SEGMENT
__Val$ = 8						; size = 4
??$addressof@$$CBUXMASMONSTER_DATA@@@std@@YAPBUXMASMONSTER_DATA@@ABU1@@Z PROC ; std::addressof<XMASMONSTER_DATA const >, COMDAT

; 110  : 	{	// return address of _Val

  00000	55		 push	 ebp
  00001	8b ec		 mov	 ebp, esp

; 111  : 	return ((_Ty *) &(char&)_Val);

  00003	8b 45 08	 mov	 eax, DWORD PTR __Val$[ebp]

; 112  : 	}

  00006	5d		 pop	 ebp
  00007	c3		 ret	 0
??$addressof@$$CBUXMASMONSTER_DATA@@@std@@YAPBUXMASMONSTER_DATA@@ABU1@@Z ENDP ; std::addressof<XMASMONSTER_DATA const >
_TEXT	ENDS
PUBLIC	??$addressof@PAVCXMasMonsterHerd@@@std@@YAPAPAVCXMasMonsterHerd@@AAPAV1@@Z ; std::addressof<CXMasMonsterHerd *>
; Function compile flags: /Ogtp
;	COMDAT ??$addressof@PAVCXMasMonsterHerd@@@std@@YAPAPAVCXMasMonsterHerd@@AAPAV1@@Z
_TEXT	SEGMENT
__Val$ = 8						; size = 4
??$addressof@PAVCXMasMonsterHerd@@@std@@YAPAPAVCXMasMonsterHerd@@AAPAV1@@Z PROC ; std::addressof<CXMasMonsterHerd *>, COMDAT

; 110  : 	{	// return address of _Val

  00000	55		 push	 ebp
  00001	8b ec		 mov	 ebp, esp

; 111  : 	return ((_Ty *) &(char&)_Val);

  00003	8b 45 08	 mov	 eax, DWORD PTR __Val$[ebp]

; 112  : 	}

  00006	5d		 pop	 ebp
  00007	c3		 ret	 0
??$addressof@PAVCXMasMonsterHerd@@@std@@YAPAPAVCXMasMonsterHerd@@AAPAV1@@Z ENDP ; std::addressof<CXMasMonsterHerd *>
_TEXT	ENDS
PUBLIC	??$forward@PAVCXMasMonsterHerd@@@std@@YA$$QAPAVCXMasMonsterHerd@@AAPAV1@@Z ; std::forward<CXMasMonsterHerd *>
; Function compile flags: /Ogtp
; File d:\program files (x86)\microsoft visual studio 10.0\vc\include\utility
;	COMDAT ??$forward@PAVCXMasMonsterHerd@@@std@@YA$$QAPAVCXMasMonsterHerd@@AAPAV1@@Z
_TEXT	SEGMENT
__Arg$ = 8						; size = 4
??$forward@PAVCXMasMonsterHerd@@@std@@YA$$QAPAVCXMasMonsterHerd@@AAPAV1@@Z PROC ; std::forward<CXMasMonsterHerd *>, COMDAT

; 78   : 	{	// forward _Arg, given explicitly specified type parameter

  00000	55		 push	 ebp
  00001	8b ec		 mov	 ebp, esp

; 79   : 	return ((_Ty&&)_Arg);

  00003	8b 45 08	 mov	 eax, DWORD PTR __Arg$[ebp]

; 80   : 	}

  00006	5d		 pop	 ebp
  00007	c3		 ret	 0
??$forward@PAVCXMasMonsterHerd@@@std@@YA$$QAPAVCXMasMonsterHerd@@AAPAV1@@Z ENDP ; std::forward<CXMasMonsterHerd *>
_TEXT	ENDS
PUBLIC	??$addressof@$$CBUXMASMONSTER_MAP_INFO@@@std@@YAPBUXMASMONSTER_MAP_INFO@@ABU1@@Z ; std::addressof<XMASMONSTER_MAP_INFO const >
; Function compile flags: /Ogtp
; File d:\program files (x86)\microsoft visual studio 10.0\vc\include\xmemory
;	COMDAT ??$addressof@$$CBUXMASMONSTER_MAP_INFO@@@std@@YAPBUXMASMONSTER_MAP_INFO@@ABU1@@Z
_TEXT	SEGMENT
__Val$ = 8						; size = 4
??$addressof@$$CBUXMASMONSTER_MAP_INFO@@@std@@YAPBUXMASMONSTER_MAP_INFO@@ABU1@@Z PROC ; std::addressof<XMASMONSTER_MAP_INFO const >, COMDAT

; 110  : 	{	// return address of _Val

  00000	55		 push	 ebp
  00001	8b ec		 mov	 ebp, esp

; 111  : 	return ((_Ty *) &(char&)_Val);

  00003	8b 45 08	 mov	 eax, DWORD PTR __Val$[ebp]

; 112  : 	}

  00006	5d		 pop	 ebp
  00007	c3		 ret	 0
??$addressof@$$CBUXMASMONSTER_MAP_INFO@@@std@@YAPBUXMASMONSTER_MAP_INFO@@ABU1@@Z ENDP ; std::addressof<XMASMONSTER_MAP_INFO const >
_TEXT	ENDS
PUBLIC	?construct@?$allocator@PAVCXMasMonsterHerd@@@std@@QAEXPAPAVCXMasMonsterHerd@@$$QAPAV3@@Z ; std::allocator<CXMasMonsterHerd *>::construct
; Function compile flags: /Ogtp
;	COMDAT ?construct@?$allocator@PAVCXMasMonsterHerd@@@std@@QAEXPAPAVCXMasMonsterHerd@@$$QAPAV3@@Z
_TEXT	SEGMENT
__Ptr$ = 8						; size = 4
__Val$ = 12						; size = 4
?construct@?$allocator@PAVCXMasMonsterHerd@@@std@@QAEXPAPAVCXMasMonsterHerd@@$$QAPAV3@@Z PROC ; std::allocator<CXMasMonsterHerd *>::construct, COMDAT
; _this$ = ecx

; 201  : 		{	// construct object at _Ptr with value _Val

  00000	55		 push	 ebp
  00001	8b ec		 mov	 ebp, esp

; 202  : 		::new ((void _FARQ *)_Ptr) _Ty(_STD forward<_Ty>(_Val));

  00003	8b 45 08	 mov	 eax, DWORD PTR __Ptr$[ebp]
  00006	85 c0		 test	 eax, eax
  00008	74 07		 je	 SHORT $LN3@construct
  0000a	8b 4d 0c	 mov	 ecx, DWORD PTR __Val$[ebp]
  0000d	8b 11		 mov	 edx, DWORD PTR [ecx]
  0000f	89 10		 mov	 DWORD PTR [eax], edx
$LN3@construct:

; 203  : 		}

  00011	5d		 pop	 ebp
  00012	c2 08 00	 ret	 8
?construct@?$allocator@PAVCXMasMonsterHerd@@@std@@QAEXPAPAVCXMasMonsterHerd@@$$QAPAV3@@Z ENDP ; std::allocator<CXMasMonsterHerd *>::construct
_TEXT	ENDS
PUBLIC	??$forward@AAUXMASMONSTER_EVENT_TIME@@@std@@YAAAUXMASMONSTER_EVENT_TIME@@AAU1@@Z ; std::forward<XMASMONSTER_EVENT_TIME &>
; Function compile flags: /Ogtp
; File d:\program files (x86)\microsoft visual studio 10.0\vc\include\utility
;	COMDAT ??$forward@AAUXMASMONSTER_EVENT_TIME@@@std@@YAAAUXMASMONSTER_EVENT_TIME@@AAU1@@Z
_TEXT	SEGMENT
__Arg$ = 8						; size = 4
??$forward@AAUXMASMONSTER_EVENT_TIME@@@std@@YAAAUXMASMONSTER_EVENT_TIME@@AAU1@@Z PROC ; std::forward<XMASMONSTER_EVENT_TIME &>, COMDAT

; 78   : 	{	// forward _Arg, given explicitly specified type parameter

  00000	55		 push	 ebp
  00001	8b ec		 mov	 ebp, esp

; 79   : 	return ((_Ty&&)_Arg);

  00003	8b 45 08	 mov	 eax, DWORD PTR __Arg$[ebp]

; 80   : 	}

  00006	5d		 pop	 ebp
  00007	c3		 ret	 0
??$forward@AAUXMASMONSTER_EVENT_TIME@@@std@@YAAAUXMASMONSTER_EVENT_TIME@@AAU1@@Z ENDP ; std::forward<XMASMONSTER_EVENT_TIME &>
_TEXT	ENDS
PUBLIC	??$construct@AAUXMASMONSTER_EVENT_TIME@@@?$allocator@UXMASMONSTER_EVENT_TIME@@@std@@QAEXPAUXMASMONSTER_EVENT_TIME@@AAU2@@Z ; std::allocator<XMASMONSTER_EVENT_TIME>::construct<XMASMONSTER_EVENT_TIME &>
; Function compile flags: /Ogtp
; File d:\program files (x86)\microsoft visual studio 10.0\vc\include\xmemory
;	COMDAT ??$construct@AAUXMASMONSTER_EVENT_TIME@@@?$allocator@UXMASMONSTER_EVENT_TIME@@@std@@QAEXPAUXMASMONSTER_EVENT_TIME@@AAU2@@Z
_TEXT	SEGMENT
__Ptr$ = 8						; size = 4
__Val$ = 12						; size = 4
??$construct@AAUXMASMONSTER_EVENT_TIME@@@?$allocator@UXMASMONSTER_EVENT_TIME@@@std@@QAEXPAUXMASMONSTER_EVENT_TIME@@AAU2@@Z PROC ; std::allocator<XMASMONSTER_EVENT_TIME>::construct<XMASMONSTER_EVENT_TIME &>, COMDAT
; _this$ = ecx

; 206  : 		void construct(pointer _Ptr, _Other&& _Val)

  00000	55		 push	 ebp
  00001	8b ec		 mov	 ebp, esp

; 207  : 		{	// construct object at _Ptr with value _Val
; 208  : 		::new ((void _FARQ *)_Ptr) _Ty(_STD forward<_Other>(_Val));

  00003	8b 45 08	 mov	 eax, DWORD PTR __Ptr$[ebp]
  00006	85 c0		 test	 eax, eax
  00008	74 0d		 je	 SHORT $LN3@construct@2
  0000a	8b 4d 0c	 mov	 ecx, DWORD PTR __Val$[ebp]
  0000d	8b 11		 mov	 edx, DWORD PTR [ecx]
  0000f	89 10		 mov	 DWORD PTR [eax], edx
  00011	8b 49 04	 mov	 ecx, DWORD PTR [ecx+4]
  00014	89 48 04	 mov	 DWORD PTR [eax+4], ecx
$LN3@construct@2:

; 209  : 		}

  00017	5d		 pop	 ebp
  00018	c2 08 00	 ret	 8
??$construct@AAUXMASMONSTER_EVENT_TIME@@@?$allocator@UXMASMONSTER_EVENT_TIME@@@std@@QAEXPAUXMASMONSTER_EVENT_TIME@@AAU2@@Z ENDP ; std::allocator<XMASMONSTER_EVENT_TIME>::construct<XMASMONSTER_EVENT_TIME &>
_TEXT	ENDS
PUBLIC	??$forward@ABUXMASMONSTER_EVENT_TIME@@@std@@YAABUXMASMONSTER_EVENT_TIME@@ABU1@@Z ; std::forward<XMASMONSTER_EVENT_TIME const &>
; Function compile flags: /Ogtp
; File d:\program files (x86)\microsoft visual studio 10.0\vc\include\utility
;	COMDAT ??$forward@ABUXMASMONSTER_EVENT_TIME@@@std@@YAABUXMASMONSTER_EVENT_TIME@@ABU1@@Z
_TEXT	SEGMENT
__Arg$ = 8						; size = 4
??$forward@ABUXMASMONSTER_EVENT_TIME@@@std@@YAABUXMASMONSTER_EVENT_TIME@@ABU1@@Z PROC ; std::forward<XMASMONSTER_EVENT_TIME const &>, COMDAT

; 78   : 	{	// forward _Arg, given explicitly specified type parameter

  00000	55		 push	 ebp
  00001	8b ec		 mov	 ebp, esp

; 79   : 	return ((_Ty&&)_Arg);

  00003	8b 45 08	 mov	 eax, DWORD PTR __Arg$[ebp]

; 80   : 	}

  00006	5d		 pop	 ebp
  00007	c3		 ret	 0
??$forward@ABUXMASMONSTER_EVENT_TIME@@@std@@YAABUXMASMONSTER_EVENT_TIME@@ABU1@@Z ENDP ; std::forward<XMASMONSTER_EVENT_TIME const &>
_TEXT	ENDS
PUBLIC	??$forward@AAUXMASMONSTER_DATA@@@std@@YAAAUXMASMONSTER_DATA@@AAU1@@Z ; std::forward<XMASMONSTER_DATA &>
; Function compile flags: /Ogtp
;	COMDAT ??$forward@AAUXMASMONSTER_DATA@@@std@@YAAAUXMASMONSTER_DATA@@AAU1@@Z
_TEXT	SEGMENT
__Arg$ = 8						; size = 4
??$forward@AAUXMASMONSTER_DATA@@@std@@YAAAUXMASMONSTER_DATA@@AAU1@@Z PROC ; std::forward<XMASMONSTER_DATA &>, COMDAT

; 78   : 	{	// forward _Arg, given explicitly specified type parameter

  00000	55		 push	 ebp
  00001	8b ec		 mov	 ebp, esp

; 79   : 	return ((_Ty&&)_Arg);

  00003	8b 45 08	 mov	 eax, DWORD PTR __Arg$[ebp]

; 80   : 	}

  00006	5d		 pop	 ebp
  00007	c3		 ret	 0
??$forward@AAUXMASMONSTER_DATA@@@std@@YAAAUXMASMONSTER_DATA@@AAU1@@Z ENDP ; std::forward<XMASMONSTER_DATA &>
_TEXT	ENDS
PUBLIC	??$construct@AAUXMASMONSTER_DATA@@@?$allocator@UXMASMONSTER_DATA@@@std@@QAEXPAUXMASMONSTER_DATA@@AAU2@@Z ; std::allocator<XMASMONSTER_DATA>::construct<XMASMONSTER_DATA &>
; Function compile flags: /Ogtp
; File d:\program files (x86)\microsoft visual studio 10.0\vc\include\xmemory
;	COMDAT ??$construct@AAUXMASMONSTER_DATA@@@?$allocator@UXMASMONSTER_DATA@@@std@@QAEXPAUXMASMONSTER_DATA@@AAU2@@Z
_TEXT	SEGMENT
__Ptr$ = 8						; size = 4
__Val$ = 12						; size = 4
??$construct@AAUXMASMONSTER_DATA@@@?$allocator@UXMASMONSTER_DATA@@@std@@QAEXPAUXMASMONSTER_DATA@@AAU2@@Z PROC ; std::allocator<XMASMONSTER_DATA>::construct<XMASMONSTER_DATA &>, COMDAT
; _this$ = ecx

; 206  : 		void construct(pointer _Ptr, _Other&& _Val)

  00000	55		 push	 ebp
  00001	8b ec		 mov	 ebp, esp

; 207  : 		{	// construct object at _Ptr with value _Val
; 208  : 		::new ((void _FARQ *)_Ptr) _Ty(_STD forward<_Other>(_Val));

  00003	8b 45 08	 mov	 eax, DWORD PTR __Ptr$[ebp]
  00006	85 c0		 test	 eax, eax
  00008	74 13		 je	 SHORT $LN3@construct@3
  0000a	8b 4d 0c	 mov	 ecx, DWORD PTR __Val$[ebp]
  0000d	8b 11		 mov	 edx, DWORD PTR [ecx]
  0000f	89 10		 mov	 DWORD PTR [eax], edx
  00011	8b 51 04	 mov	 edx, DWORD PTR [ecx+4]
  00014	89 50 04	 mov	 DWORD PTR [eax+4], edx
  00017	8b 49 08	 mov	 ecx, DWORD PTR [ecx+8]
  0001a	89 48 08	 mov	 DWORD PTR [eax+8], ecx
$LN3@construct@3:

; 209  : 		}

  0001d	5d		 pop	 ebp
  0001e	c2 08 00	 ret	 8
??$construct@AAUXMASMONSTER_DATA@@@?$allocator@UXMASMONSTER_DATA@@@std@@QAEXPAUXMASMONSTER_DATA@@AAU2@@Z ENDP ; std::allocator<XMASMONSTER_DATA>::construct<XMASMONSTER_DATA &>
_TEXT	ENDS
PUBLIC	??$forward@ABUXMASMONSTER_DATA@@@std@@YAABUXMASMONSTER_DATA@@ABU1@@Z ; std::forward<XMASMONSTER_DATA const &>
; Function compile flags: /Ogtp
; File d:\program files (x86)\microsoft visual studio 10.0\vc\include\utility
;	COMDAT ??$forward@ABUXMASMONSTER_DATA@@@std@@YAABUXMASMONSTER_DATA@@ABU1@@Z
_TEXT	SEGMENT
__Arg$ = 8						; size = 4
??$forward@ABUXMASMONSTER_DATA@@@std@@YAABUXMASMONSTER_DATA@@ABU1@@Z PROC ; std::forward<XMASMONSTER_DATA const &>, COMDAT

; 78   : 	{	// forward _Arg, given explicitly specified type parameter

  00000	55		 push	 ebp
  00001	8b ec		 mov	 ebp, esp

; 79   : 	return ((_Ty&&)_Arg);

  00003	8b 45 08	 mov	 eax, DWORD PTR __Arg$[ebp]

; 80   : 	}

  00006	5d		 pop	 ebp
  00007	c3		 ret	 0
??$forward@ABUXMASMONSTER_DATA@@@std@@YAABUXMASMONSTER_DATA@@ABU1@@Z ENDP ; std::forward<XMASMONSTER_DATA const &>
_TEXT	ENDS
PUBLIC	??$_Ptr_cat@PAVCXMasMonsterHerd@@PAV1@@std@@YA?AU_Scalar_ptr_iterator_tag@0@PAPAVCXMasMonsterHerd@@0@Z ; std::_Ptr_cat<CXMasMonsterHerd *,CXMasMonsterHerd *>
; Function compile flags: /Ogtp
; File d:\program files (x86)\microsoft visual studio 10.0\vc\include\xutility
;	COMDAT ??$_Ptr_cat@PAVCXMasMonsterHerd@@PAV1@@std@@YA?AU_Scalar_ptr_iterator_tag@0@PAPAVCXMasMonsterHerd@@0@Z
_TEXT	SEGMENT
__Cat$ = -1						; size = 1
___formal$ = 8						; size = 4
___formal$ = 12						; size = 4
??$_Ptr_cat@PAVCXMasMonsterHerd@@PAV1@@std@@YA?AU_Scalar_ptr_iterator_tag@0@PAPAVCXMasMonsterHerd@@0@Z PROC ; std::_Ptr_cat<CXMasMonsterHerd *,CXMasMonsterHerd *>, COMDAT

; 516  : 	{	// return pointer category from pointers

  00000	55		 push	 ebp
  00001	8b ec		 mov	 ebp, esp
  00003	51		 push	 ecx

; 517  : 	typename _Ptr_cat_helper<_Elem1, _Elem2>::_Type _Cat;
; 518  : 	return (_Cat);

  00004	8a 45 ff	 mov	 al, BYTE PTR __Cat$[ebp]

; 519  : 	}

  00007	8b e5		 mov	 esp, ebp
  00009	5d		 pop	 ebp
  0000a	c3		 ret	 0
??$_Ptr_cat@PAVCXMasMonsterHerd@@PAV1@@std@@YA?AU_Scalar_ptr_iterator_tag@0@PAPAVCXMasMonsterHerd@@0@Z ENDP ; std::_Ptr_cat<CXMasMonsterHerd *,CXMasMonsterHerd *>
_TEXT	ENDS
PUBLIC	??$_Move@PAPAVCXMasMonsterHerd@@PAPAV1@@std@@YAPAPAVCXMasMonsterHerd@@PAPAV1@00U_Scalar_ptr_iterator_tag@0@@Z ; std::_Move<CXMasMonsterHerd * *,CXMasMonsterHerd * *>
EXTRN	_memmove:PROC
; Function compile flags: /Ogtp
;	COMDAT ??$_Move@PAPAVCXMasMonsterHerd@@PAPAV1@@std@@YAPAPAVCXMasMonsterHerd@@PAPAV1@00U_Scalar_ptr_iterator_tag@0@@Z
_TEXT	SEGMENT
__First$ = 8						; size = 4
__Last$ = 12						; size = 4
__Dest$ = 16						; size = 4
___formal$ = 20						; size = 1
??$_Move@PAPAVCXMasMonsterHerd@@PAPAV1@@std@@YAPAPAVCXMasMonsterHerd@@PAPAV1@00U_Scalar_ptr_iterator_tag@0@@Z PROC ; std::_Move<CXMasMonsterHerd * *,CXMasMonsterHerd * *>, COMDAT

; 2522 : 	{	// move [_First, _Last) to [_Dest, ...), pointers to scalars

  00000	55		 push	 ebp
  00001	8b ec		 mov	 ebp, esp

; 2523 : 	ptrdiff_t _Count = _Last - _First;

  00003	8b 4d 08	 mov	 ecx, DWORD PTR __First$[ebp]
  00006	8b 45 0c	 mov	 eax, DWORD PTR __Last$[ebp]
  00009	56		 push	 esi
  0000a	2b c1		 sub	 eax, ecx
  0000c	57		 push	 edi

; 2524 : 	_CSTD memmove(&*_Dest, &*_First,
; 2525 : 		_Count * sizeof (*_First));

  0000d	8b 7d 10	 mov	 edi, DWORD PTR __Dest$[ebp]
  00010	c1 f8 02	 sar	 eax, 2
  00013	8d 34 85 00 00
	00 00		 lea	 esi, DWORD PTR [eax*4]
  0001a	56		 push	 esi
  0001b	51		 push	 ecx
  0001c	57		 push	 edi
  0001d	e8 00 00 00 00	 call	 _memmove
  00022	83 c4 0c	 add	 esp, 12			; 0000000cH

; 2526 : 	return (_Dest + _Count);

  00025	8d 04 3e	 lea	 eax, DWORD PTR [esi+edi]
  00028	5f		 pop	 edi
  00029	5e		 pop	 esi

; 2527 : 	}

  0002a	5d		 pop	 ebp
  0002b	c3		 ret	 0
??$_Move@PAPAVCXMasMonsterHerd@@PAPAV1@@std@@YAPAPAVCXMasMonsterHerd@@PAPAV1@00U_Scalar_ptr_iterator_tag@0@@Z ENDP ; std::_Move<CXMasMonsterHerd * *,CXMasMonsterHerd * *>
_TEXT	ENDS
PUBLIC	??$forward@AAUXMASMONSTER_MAP_INFO@@@std@@YAAAUXMASMONSTER_MAP_INFO@@AAU1@@Z ; std::forward<XMASMONSTER_MAP_INFO &>
; Function compile flags: /Ogtp
; File d:\program files (x86)\microsoft visual studio 10.0\vc\include\utility
;	COMDAT ??$forward@AAUXMASMONSTER_MAP_INFO@@@std@@YAAAUXMASMONSTER_MAP_INFO@@AAU1@@Z
_TEXT	SEGMENT
__Arg$ = 8						; size = 4
??$forward@AAUXMASMONSTER_MAP_INFO@@@std@@YAAAUXMASMONSTER_MAP_INFO@@AAU1@@Z PROC ; std::forward<XMASMONSTER_MAP_INFO &>, COMDAT

; 78   : 	{	// forward _Arg, given explicitly specified type parameter

  00000	55		 push	 ebp
  00001	8b ec		 mov	 ebp, esp

; 79   : 	return ((_Ty&&)_Arg);

  00003	8b 45 08	 mov	 eax, DWORD PTR __Arg$[ebp]

; 80   : 	}

  00006	5d		 pop	 ebp
  00007	c3		 ret	 0
??$forward@AAUXMASMONSTER_MAP_INFO@@@std@@YAAAUXMASMONSTER_MAP_INFO@@AAU1@@Z ENDP ; std::forward<XMASMONSTER_MAP_INFO &>
_TEXT	ENDS
PUBLIC	??$construct@AAUXMASMONSTER_MAP_INFO@@@?$allocator@UXMASMONSTER_MAP_INFO@@@std@@QAEXPAUXMASMONSTER_MAP_INFO@@AAU2@@Z ; std::allocator<XMASMONSTER_MAP_INFO>::construct<XMASMONSTER_MAP_INFO &>
; Function compile flags: /Ogtp
; File d:\program files (x86)\microsoft visual studio 10.0\vc\include\xmemory
;	COMDAT ??$construct@AAUXMASMONSTER_MAP_INFO@@@?$allocator@UXMASMONSTER_MAP_INFO@@@std@@QAEXPAUXMASMONSTER_MAP_INFO@@AAU2@@Z
_TEXT	SEGMENT
__Ptr$ = 8						; size = 4
__Val$ = 12						; size = 4
??$construct@AAUXMASMONSTER_MAP_INFO@@@?$allocator@UXMASMONSTER_MAP_INFO@@@std@@QAEXPAUXMASMONSTER_MAP_INFO@@AAU2@@Z PROC ; std::allocator<XMASMONSTER_MAP_INFO>::construct<XMASMONSTER_MAP_INFO &>, COMDAT
; _this$ = ecx

; 206  : 		void construct(pointer _Ptr, _Other&& _Val)

  00000	55		 push	 ebp
  00001	8b ec		 mov	 ebp, esp

; 207  : 		{	// construct object at _Ptr with value _Val
; 208  : 		::new ((void _FARQ *)_Ptr) _Ty(_STD forward<_Other>(_Val));

  00003	8b 45 08	 mov	 eax, DWORD PTR __Ptr$[ebp]
  00006	85 c0		 test	 eax, eax
  00008	74 1f		 je	 SHORT $LN3@construct@4
  0000a	8b 4d 0c	 mov	 ecx, DWORD PTR __Val$[ebp]
  0000d	8b 11		 mov	 edx, DWORD PTR [ecx]
  0000f	89 10		 mov	 DWORD PTR [eax], edx
  00011	8b 51 04	 mov	 edx, DWORD PTR [ecx+4]
  00014	89 50 04	 mov	 DWORD PTR [eax+4], edx
  00017	8b 51 08	 mov	 edx, DWORD PTR [ecx+8]
  0001a	89 50 08	 mov	 DWORD PTR [eax+8], edx
  0001d	8b 51 0c	 mov	 edx, DWORD PTR [ecx+12]
  00020	89 50 0c	 mov	 DWORD PTR [eax+12], edx
  00023	8b 49 10	 mov	 ecx, DWORD PTR [ecx+16]
  00026	89 48 10	 mov	 DWORD PTR [eax+16], ecx
$LN3@construct@4:

; 209  : 		}

  00029	5d		 pop	 ebp
  0002a	c2 08 00	 ret	 8
??$construct@AAUXMASMONSTER_MAP_INFO@@@?$allocator@UXMASMONSTER_MAP_INFO@@@std@@QAEXPAUXMASMONSTER_MAP_INFO@@AAU2@@Z ENDP ; std::allocator<XMASMONSTER_MAP_INFO>::construct<XMASMONSTER_MAP_INFO &>
_TEXT	ENDS
PUBLIC	??$forward@ABUXMASMONSTER_MAP_INFO@@@std@@YAABUXMASMONSTER_MAP_INFO@@ABU1@@Z ; std::forward<XMASMONSTER_MAP_INFO const &>
; Function compile flags: /Ogtp
; File d:\program files (x86)\microsoft visual studio 10.0\vc\include\utility
;	COMDAT ??$forward@ABUXMASMONSTER_MAP_INFO@@@std@@YAABUXMASMONSTER_MAP_INFO@@ABU1@@Z
_TEXT	SEGMENT
__Arg$ = 8						; size = 4
??$forward@ABUXMASMONSTER_MAP_INFO@@@std@@YAABUXMASMONSTER_MAP_INFO@@ABU1@@Z PROC ; std::forward<XMASMONSTER_MAP_INFO const &>, COMDAT

; 78   : 	{	// forward _Arg, given explicitly specified type parameter

  00000	55		 push	 ebp
  00001	8b ec		 mov	 ebp, esp

; 79   : 	return ((_Ty&&)_Arg);

  00003	8b 45 08	 mov	 eax, DWORD PTR __Arg$[ebp]

; 80   : 	}

  00006	5d		 pop	 ebp
  00007	c3		 ret	 0
??$forward@ABUXMASMONSTER_MAP_INFO@@@std@@YAABUXMASMONSTER_MAP_INFO@@ABU1@@Z ENDP ; std::forward<XMASMONSTER_MAP_INFO const &>
_TEXT	ENDS
PUBLIC	??$_Destroy_range@V?$allocator@PAVCXMasMonsterHerd@@@std@@@std@@YAXPAPAVCXMasMonsterHerd@@0AAV?$allocator@PAVCXMasMonsterHerd@@@0@U_Scalar_ptr_iterator_tag@0@@Z ; std::_Destroy_range<std::allocator<CXMasMonsterHerd *> >
; Function compile flags: /Ogtp
; File d:\program files (x86)\microsoft visual studio 10.0\vc\include\xmemory
;	COMDAT ??$_Destroy_range@V?$allocator@PAVCXMasMonsterHerd@@@std@@@std@@YAXPAPAVCXMasMonsterHerd@@0AAV?$allocator@PAVCXMasMonsterHerd@@@0@U_Scalar_ptr_iterator_tag@0@@Z
_TEXT	SEGMENT
__First$ = 8						; size = 4
__Last$ = 12						; size = 4
__Al$ = 16						; size = 4
___formal$ = 20						; size = 1
??$_Destroy_range@V?$allocator@PAVCXMasMonsterHerd@@@std@@@std@@YAXPAPAVCXMasMonsterHerd@@0AAV?$allocator@PAVCXMasMonsterHerd@@@0@U_Scalar_ptr_iterator_tag@0@@Z PROC ; std::_Destroy_range<std::allocator<CXMasMonsterHerd *> >, COMDAT

; 105  : 	}

  00000	c3		 ret	 0
??$_Destroy_range@V?$allocator@PAVCXMasMonsterHerd@@@std@@@std@@YAXPAPAVCXMasMonsterHerd@@0AAV?$allocator@PAVCXMasMonsterHerd@@@0@U_Scalar_ptr_iterator_tag@0@@Z ENDP ; std::_Destroy_range<std::allocator<CXMasMonsterHerd *> >
_TEXT	ENDS
PUBLIC	??$_Ptr_cat@UXMASMONSTER_MAP_INFO@@U1@@std@@YA?AU_Nonscalar_ptr_iterator_tag@0@PAUXMASMONSTER_MAP_INFO@@0@Z ; std::_Ptr_cat<XMASMONSTER_MAP_INFO,XMASMONSTER_MAP_INFO>
; Function compile flags: /Ogtp
; File d:\program files (x86)\microsoft visual studio 10.0\vc\include\xutility
;	COMDAT ??$_Ptr_cat@UXMASMONSTER_MAP_INFO@@U1@@std@@YA?AU_Nonscalar_ptr_iterator_tag@0@PAUXMASMONSTER_MAP_INFO@@0@Z
_TEXT	SEGMENT
__Cat$ = -1						; size = 1
___formal$ = 8						; size = 4
___formal$ = 12						; size = 4
??$_Ptr_cat@UXMASMONSTER_MAP_INFO@@U1@@std@@YA?AU_Nonscalar_ptr_iterator_tag@0@PAUXMASMONSTER_MAP_INFO@@0@Z PROC ; std::_Ptr_cat<XMASMONSTER_MAP_INFO,XMASMONSTER_MAP_INFO>, COMDAT

; 516  : 	{	// return pointer category from pointers

  00000	55		 push	 ebp
  00001	8b ec		 mov	 ebp, esp
  00003	51		 push	 ecx

; 517  : 	typename _Ptr_cat_helper<_Elem1, _Elem2>::_Type _Cat;
; 518  : 	return (_Cat);

  00004	8a 45 ff	 mov	 al, BYTE PTR __Cat$[ebp]

; 519  : 	}

  00007	8b e5		 mov	 esp, ebp
  00009	5d		 pop	 ebp
  0000a	c3		 ret	 0
??$_Ptr_cat@UXMASMONSTER_MAP_INFO@@U1@@std@@YA?AU_Nonscalar_ptr_iterator_tag@0@PAUXMASMONSTER_MAP_INFO@@0@Z ENDP ; std::_Ptr_cat<XMASMONSTER_MAP_INFO,XMASMONSTER_MAP_INFO>
_TEXT	ENDS
PUBLIC	??$_Ptr_cat@UXMASMONSTER_EVENT_TIME@@U1@@std@@YA?AU_Nonscalar_ptr_iterator_tag@0@PAUXMASMONSTER_EVENT_TIME@@0@Z ; std::_Ptr_cat<XMASMONSTER_EVENT_TIME,XMASMONSTER_EVENT_TIME>
; Function compile flags: /Ogtp
;	COMDAT ??$_Ptr_cat@UXMASMONSTER_EVENT_TIME@@U1@@std@@YA?AU_Nonscalar_ptr_iterator_tag@0@PAUXMASMONSTER_EVENT_TIME@@0@Z
_TEXT	SEGMENT
__Cat$ = -1						; size = 1
___formal$ = 8						; size = 4
___formal$ = 12						; size = 4
??$_Ptr_cat@UXMASMONSTER_EVENT_TIME@@U1@@std@@YA?AU_Nonscalar_ptr_iterator_tag@0@PAUXMASMONSTER_EVENT_TIME@@0@Z PROC ; std::_Ptr_cat<XMASMONSTER_EVENT_TIME,XMASMONSTER_EVENT_TIME>, COMDAT

; 516  : 	{	// return pointer category from pointers

  00000	55		 push	 ebp
  00001	8b ec		 mov	 ebp, esp
  00003	51		 push	 ecx

; 517  : 	typename _Ptr_cat_helper<_Elem1, _Elem2>::_Type _Cat;
; 518  : 	return (_Cat);

  00004	8a 45 ff	 mov	 al, BYTE PTR __Cat$[ebp]

; 519  : 	}

  00007	8b e5		 mov	 esp, ebp
  00009	5d		 pop	 ebp
  0000a	c3		 ret	 0
??$_Ptr_cat@UXMASMONSTER_EVENT_TIME@@U1@@std@@YA?AU_Nonscalar_ptr_iterator_tag@0@PAUXMASMONSTER_EVENT_TIME@@0@Z ENDP ; std::_Ptr_cat<XMASMONSTER_EVENT_TIME,XMASMONSTER_EVENT_TIME>
_TEXT	ENDS
PUBLIC	??$_Ptr_cat@UXMASMONSTER_DATA@@U1@@std@@YA?AU_Nonscalar_ptr_iterator_tag@0@PAUXMASMONSTER_DATA@@0@Z ; std::_Ptr_cat<XMASMONSTER_DATA,XMASMONSTER_DATA>
; Function compile flags: /Ogtp
;	COMDAT ??$_Ptr_cat@UXMASMONSTER_DATA@@U1@@std@@YA?AU_Nonscalar_ptr_iterator_tag@0@PAUXMASMONSTER_DATA@@0@Z
_TEXT	SEGMENT
__Cat$ = -1						; size = 1
___formal$ = 8						; size = 4
___formal$ = 12						; size = 4
??$_Ptr_cat@UXMASMONSTER_DATA@@U1@@std@@YA?AU_Nonscalar_ptr_iterator_tag@0@PAUXMASMONSTER_DATA@@0@Z PROC ; std::_Ptr_cat<XMASMONSTER_DATA,XMASMONSTER_DATA>, COMDAT

; 516  : 	{	// return pointer category from pointers

  00000	55		 push	 ebp
  00001	8b ec		 mov	 ebp, esp
  00003	51		 push	 ecx

; 517  : 	typename _Ptr_cat_helper<_Elem1, _Elem2>::_Type _Cat;
; 518  : 	return (_Cat);

  00004	8a 45 ff	 mov	 al, BYTE PTR __Cat$[ebp]

; 519  : 	}

  00007	8b e5		 mov	 esp, ebp
  00009	5d		 pop	 ebp
  0000a	c3		 ret	 0
??$_Ptr_cat@UXMASMONSTER_DATA@@U1@@std@@YA?AU_Nonscalar_ptr_iterator_tag@0@PAUXMASMONSTER_DATA@@0@Z ENDP ; std::_Ptr_cat<XMASMONSTER_DATA,XMASMONSTER_DATA>
_TEXT	ENDS
PUBLIC	??$_Construct@UXMASMONSTER_EVENT_TIME@@ABU1@@std@@YAXPAUXMASMONSTER_EVENT_TIME@@ABU1@@Z ; std::_Construct<XMASMONSTER_EVENT_TIME,XMASMONSTER_EVENT_TIME const &>
; Function compile flags: /Ogtp
; File d:\program files (x86)\microsoft visual studio 10.0\vc\include\xmemory
;	COMDAT ??$_Construct@UXMASMONSTER_EVENT_TIME@@ABU1@@std@@YAXPAUXMASMONSTER_EVENT_TIME@@ABU1@@Z
_TEXT	SEGMENT
__Ptr$ = 8						; size = 4
__Val$ = 12						; size = 4
??$_Construct@UXMASMONSTER_EVENT_TIME@@ABU1@@std@@YAXPAUXMASMONSTER_EVENT_TIME@@ABU1@@Z PROC ; std::_Construct<XMASMONSTER_EVENT_TIME,XMASMONSTER_EVENT_TIME const &>, COMDAT

; 46   : 	{	// construct object at _Ptr with value _Val

  00000	55		 push	 ebp
  00001	8b ec		 mov	 ebp, esp

; 47   : 	void _FARQ *_Vptr = _Ptr;
; 48   : 	::new (_Vptr) _Ty1(_STD forward<_Ty2>(_Val));

  00003	8b 45 08	 mov	 eax, DWORD PTR __Ptr$[ebp]
  00006	85 c0		 test	 eax, eax
  00008	74 0d		 je	 SHORT $LN3@Construct
  0000a	8b 4d 0c	 mov	 ecx, DWORD PTR __Val$[ebp]
  0000d	8b 11		 mov	 edx, DWORD PTR [ecx]
  0000f	89 10		 mov	 DWORD PTR [eax], edx
  00011	8b 49 04	 mov	 ecx, DWORD PTR [ecx+4]
  00014	89 48 04	 mov	 DWORD PTR [eax+4], ecx
$LN3@Construct:

; 49   : 	}

  00017	5d		 pop	 ebp
  00018	c3		 ret	 0
??$_Construct@UXMASMONSTER_EVENT_TIME@@ABU1@@std@@YAXPAUXMASMONSTER_EVENT_TIME@@ABU1@@Z ENDP ; std::_Construct<XMASMONSTER_EVENT_TIME,XMASMONSTER_EVENT_TIME const &>
_TEXT	ENDS
PUBLIC	??$_Construct@UXMASMONSTER_DATA@@ABU1@@std@@YAXPAUXMASMONSTER_DATA@@ABU1@@Z ; std::_Construct<XMASMONSTER_DATA,XMASMONSTER_DATA const &>
; Function compile flags: /Ogtp
;	COMDAT ??$_Construct@UXMASMONSTER_DATA@@ABU1@@std@@YAXPAUXMASMONSTER_DATA@@ABU1@@Z
_TEXT	SEGMENT
__Ptr$ = 8						; size = 4
__Val$ = 12						; size = 4
??$_Construct@UXMASMONSTER_DATA@@ABU1@@std@@YAXPAUXMASMONSTER_DATA@@ABU1@@Z PROC ; std::_Construct<XMASMONSTER_DATA,XMASMONSTER_DATA const &>, COMDAT

; 46   : 	{	// construct object at _Ptr with value _Val

  00000	55		 push	 ebp
  00001	8b ec		 mov	 ebp, esp

; 47   : 	void _FARQ *_Vptr = _Ptr;
; 48   : 	::new (_Vptr) _Ty1(_STD forward<_Ty2>(_Val));

  00003	8b 45 08	 mov	 eax, DWORD PTR __Ptr$[ebp]
  00006	85 c0		 test	 eax, eax
  00008	74 13		 je	 SHORT $LN3@Construct@2
  0000a	8b 4d 0c	 mov	 ecx, DWORD PTR __Val$[ebp]
  0000d	8b 11		 mov	 edx, DWORD PTR [ecx]
  0000f	89 10		 mov	 DWORD PTR [eax], edx
  00011	8b 51 04	 mov	 edx, DWORD PTR [ecx+4]
  00014	89 50 04	 mov	 DWORD PTR [eax+4], edx
  00017	8b 49 08	 mov	 ecx, DWORD PTR [ecx+8]
  0001a	89 48 08	 mov	 DWORD PTR [eax+8], ecx
$LN3@Construct@2:

; 49   : 	}

  0001d	5d		 pop	 ebp
  0001e	c3		 ret	 0
??$_Construct@UXMASMONSTER_DATA@@ABU1@@std@@YAXPAUXMASMONSTER_DATA@@ABU1@@Z ENDP ; std::_Construct<XMASMONSTER_DATA,XMASMONSTER_DATA const &>
_TEXT	ENDS
PUBLIC	??$_Construct@UXMASMONSTER_MAP_INFO@@ABU1@@std@@YAXPAUXMASMONSTER_MAP_INFO@@ABU1@@Z ; std::_Construct<XMASMONSTER_MAP_INFO,XMASMONSTER_MAP_INFO const &>
; Function compile flags: /Ogtp
;	COMDAT ??$_Construct@UXMASMONSTER_MAP_INFO@@ABU1@@std@@YAXPAUXMASMONSTER_MAP_INFO@@ABU1@@Z
_TEXT	SEGMENT
__Ptr$ = 8						; size = 4
__Val$ = 12						; size = 4
??$_Construct@UXMASMONSTER_MAP_INFO@@ABU1@@std@@YAXPAUXMASMONSTER_MAP_INFO@@ABU1@@Z PROC ; std::_Construct<XMASMONSTER_MAP_INFO,XMASMONSTER_MAP_INFO const &>, COMDAT

; 46   : 	{	// construct object at _Ptr with value _Val

  00000	55		 push	 ebp
  00001	8b ec		 mov	 ebp, esp

; 47   : 	void _FARQ *_Vptr = _Ptr;
; 48   : 	::new (_Vptr) _Ty1(_STD forward<_Ty2>(_Val));

  00003	8b 45 08	 mov	 eax, DWORD PTR __Ptr$[ebp]
  00006	85 c0		 test	 eax, eax
  00008	74 1f		 je	 SHORT $LN3@Construct@3
  0000a	8b 4d 0c	 mov	 ecx, DWORD PTR __Val$[ebp]
  0000d	8b 11		 mov	 edx, DWORD PTR [ecx]
  0000f	89 10		 mov	 DWORD PTR [eax], edx
  00011	8b 51 04	 mov	 edx, DWORD PTR [ecx+4]
  00014	89 50 04	 mov	 DWORD PTR [eax+4], edx
  00017	8b 51 08	 mov	 edx, DWORD PTR [ecx+8]
  0001a	89 50 08	 mov	 DWORD PTR [eax+8], edx
  0001d	8b 51 0c	 mov	 edx, DWORD PTR [ecx+12]
  00020	89 50 0c	 mov	 DWORD PTR [eax+12], edx
  00023	8b 49 10	 mov	 ecx, DWORD PTR [ecx+16]
  00026	89 48 10	 mov	 DWORD PTR [eax+16], ecx
$LN3@Construct@3:

; 49   : 	}

  00029	5d		 pop	 ebp
  0002a	c3		 ret	 0
??$_Construct@UXMASMONSTER_MAP_INFO@@ABU1@@std@@YAXPAUXMASMONSTER_MAP_INFO@@ABU1@@Z ENDP ; std::_Construct<XMASMONSTER_MAP_INFO,XMASMONSTER_MAP_INFO const &>
_TEXT	ENDS
PUBLIC	??$_Val_type@PAUXMASMONSTER_EVENT_TIME@@@std@@YAPAUXMASMONSTER_EVENT_TIME@@PAU1@@Z ; std::_Val_type<XMASMONSTER_EVENT_TIME *>
; Function compile flags: /Ogtp
; File d:\program files (x86)\microsoft visual studio 10.0\vc\include\xutility
;	COMDAT ??$_Val_type@PAUXMASMONSTER_EVENT_TIME@@@std@@YAPAUXMASMONSTER_EVENT_TIME@@PAU1@@Z
_TEXT	SEGMENT
___formal$ = 8						; size = 4
??$_Val_type@PAUXMASMONSTER_EVENT_TIME@@@std@@YAPAUXMASMONSTER_EVENT_TIME@@PAU1@@Z PROC ; std::_Val_type<XMASMONSTER_EVENT_TIME *>, COMDAT

; 790  : 	return (0);

  00000	33 c0		 xor	 eax, eax

; 791  : 	}

  00002	c3		 ret	 0
??$_Val_type@PAUXMASMONSTER_EVENT_TIME@@@std@@YAPAUXMASMONSTER_EVENT_TIME@@PAU1@@Z ENDP ; std::_Val_type<XMASMONSTER_EVENT_TIME *>
_TEXT	ENDS
PUBLIC	??$_Val_type@PAUXMASMONSTER_DATA@@@std@@YAPAUXMASMONSTER_DATA@@PAU1@@Z ; std::_Val_type<XMASMONSTER_DATA *>
; Function compile flags: /Ogtp
;	COMDAT ??$_Val_type@PAUXMASMONSTER_DATA@@@std@@YAPAUXMASMONSTER_DATA@@PAU1@@Z
_TEXT	SEGMENT
___formal$ = 8						; size = 4
??$_Val_type@PAUXMASMONSTER_DATA@@@std@@YAPAUXMASMONSTER_DATA@@PAU1@@Z PROC ; std::_Val_type<XMASMONSTER_DATA *>, COMDAT

; 790  : 	return (0);

  00000	33 c0		 xor	 eax, eax

; 791  : 	}

  00002	c3		 ret	 0
??$_Val_type@PAUXMASMONSTER_DATA@@@std@@YAPAUXMASMONSTER_DATA@@PAU1@@Z ENDP ; std::_Val_type<XMASMONSTER_DATA *>
_TEXT	ENDS
PUBLIC	??$_Val_type@PAPAVCXMasMonsterHerd@@@std@@YAPAPAVCXMasMonsterHerd@@PAPAV1@@Z ; std::_Val_type<CXMasMonsterHerd * *>
; Function compile flags: /Ogtp
;	COMDAT ??$_Val_type@PAPAVCXMasMonsterHerd@@@std@@YAPAPAVCXMasMonsterHerd@@PAPAV1@@Z
_TEXT	SEGMENT
___formal$ = 8						; size = 4
??$_Val_type@PAPAVCXMasMonsterHerd@@@std@@YAPAPAVCXMasMonsterHerd@@PAPAV1@@Z PROC ; std::_Val_type<CXMasMonsterHerd * *>, COMDAT

; 790  : 	return (0);

  00000	33 c0		 xor	 eax, eax

; 791  : 	}

  00002	c3		 ret	 0
??$_Val_type@PAPAVCXMasMonsterHerd@@@std@@YAPAPAVCXMasMonsterHerd@@PAPAV1@@Z ENDP ; std::_Val_type<CXMasMonsterHerd * *>
_TEXT	ENDS
PUBLIC	??$_Uninit_move@PAVCXMasMonsterHerd@@PAV1@PAV1@@std@@YAPAPAVCXMasMonsterHerd@@PAPAV1@00AAV?$allocator@PAVCXMasMonsterHerd@@@0@0U_Scalar_ptr_iterator_tag@0@@Z ; std::_Uninit_move<CXMasMonsterHerd *,CXMasMonsterHerd *,CXMasMonsterHerd *>
; Function compile flags: /Ogtp
; File d:\program files (x86)\microsoft visual studio 10.0\vc\include\memory
;	COMDAT ??$_Uninit_move@PAVCXMasMonsterHerd@@PAV1@PAV1@@std@@YAPAPAVCXMasMonsterHerd@@PAPAV1@00AAV?$allocator@PAVCXMasMonsterHerd@@@0@0U_Scalar_ptr_iterator_tag@0@@Z
_TEXT	SEGMENT
__First$ = 8						; size = 4
__Last$ = 12						; size = 4
__Dest$ = 16						; size = 4
___formal$ = 20						; size = 4
___formal$ = 24						; size = 4
___formal$ = 28						; size = 1
??$_Uninit_move@PAVCXMasMonsterHerd@@PAV1@PAV1@@std@@YAPAPAVCXMasMonsterHerd@@PAPAV1@00AAV?$allocator@PAVCXMasMonsterHerd@@@0@0U_Scalar_ptr_iterator_tag@0@@Z PROC ; std::_Uninit_move<CXMasMonsterHerd *,CXMasMonsterHerd *,CXMasMonsterHerd *>, COMDAT

; 456  : 	{	// move [_First, _Last) to raw _Dest, scalar type

  00000	55		 push	 ebp
  00001	8b ec		 mov	 ebp, esp

; 457  : 	_DEBUG_RANGE(_First, _Last);
; 458  : 	_DEBUG_POINTER(_Dest);
; 459  : 	size_t _Count = (size_t)(_Last - _First);

  00003	8b 4d 08	 mov	 ecx, DWORD PTR __First$[ebp]
  00006	8b 45 0c	 mov	 eax, DWORD PTR __Last$[ebp]
  00009	2b c1		 sub	 eax, ecx
  0000b	56		 push	 esi
  0000c	c1 f8 02	 sar	 eax, 2

; 460  : 	return ((_Ty2 *)_CSTD memmove(&*_Dest, &*_First,
; 461  : 		_Count * sizeof (*_First)) + _Count);	// NB: non-overlapping move

  0000f	8d 34 85 00 00
	00 00		 lea	 esi, DWORD PTR [eax*4]
  00016	8b 45 10	 mov	 eax, DWORD PTR __Dest$[ebp]
  00019	56		 push	 esi
  0001a	51		 push	 ecx
  0001b	50		 push	 eax
  0001c	e8 00 00 00 00	 call	 _memmove
  00021	83 c4 0c	 add	 esp, 12			; 0000000cH
  00024	03 c6		 add	 eax, esi
  00026	5e		 pop	 esi

; 462  : 	}

  00027	5d		 pop	 ebp
  00028	c3		 ret	 0
??$_Uninit_move@PAVCXMasMonsterHerd@@PAV1@PAV1@@std@@YAPAPAVCXMasMonsterHerd@@PAPAV1@00AAV?$allocator@PAVCXMasMonsterHerd@@@0@0U_Scalar_ptr_iterator_tag@0@@Z ENDP ; std::_Uninit_move<CXMasMonsterHerd *,CXMasMonsterHerd *,CXMasMonsterHerd *>
_TEXT	ENDS
PUBLIC	??$_Val_type@PAUXMASMONSTER_MAP_INFO@@@std@@YAPAUXMASMONSTER_MAP_INFO@@PAU1@@Z ; std::_Val_type<XMASMONSTER_MAP_INFO *>
; Function compile flags: /Ogtp
; File d:\program files (x86)\microsoft visual studio 10.0\vc\include\xutility
;	COMDAT ??$_Val_type@PAUXMASMONSTER_MAP_INFO@@@std@@YAPAUXMASMONSTER_MAP_INFO@@PAU1@@Z
_TEXT	SEGMENT
___formal$ = 8						; size = 4
??$_Val_type@PAUXMASMONSTER_MAP_INFO@@@std@@YAPAUXMASMONSTER_MAP_INFO@@PAU1@@Z PROC ; std::_Val_type<XMASMONSTER_MAP_INFO *>, COMDAT

; 790  : 	return (0);

  00000	33 c0		 xor	 eax, eax

; 791  : 	}

  00002	c3		 ret	 0
??$_Val_type@PAUXMASMONSTER_MAP_INFO@@@std@@YAPAUXMASMONSTER_MAP_INFO@@PAU1@@Z ENDP ; std::_Val_type<XMASMONSTER_MAP_INFO *>
_TEXT	ENDS
PUBLIC	??$_Destroy@UXMASMONSTER_EVENT_TIME@@@std@@YAXPAUXMASMONSTER_EVENT_TIME@@@Z ; std::_Destroy<XMASMONSTER_EVENT_TIME>
; Function compile flags: /Ogtp
; File d:\program files (x86)\microsoft visual studio 10.0\vc\include\xmemory
;	COMDAT ??$_Destroy@UXMASMONSTER_EVENT_TIME@@@std@@YAXPAUXMASMONSTER_EVENT_TIME@@@Z
_TEXT	SEGMENT
__Ptr$ = 8						; size = 4
??$_Destroy@UXMASMONSTER_EVENT_TIME@@@std@@YAXPAUXMASMONSTER_EVENT_TIME@@@Z PROC ; std::_Destroy<XMASMONSTER_EVENT_TIME>, COMDAT

; 63   : 	_Ptr->~_Ty();
; 64   : 	}

  00000	c3		 ret	 0
??$_Destroy@UXMASMONSTER_EVENT_TIME@@@std@@YAXPAUXMASMONSTER_EVENT_TIME@@@Z ENDP ; std::_Destroy<XMASMONSTER_EVENT_TIME>
_TEXT	ENDS
PUBLIC	??$_Destroy@UXMASMONSTER_DATA@@@std@@YAXPAUXMASMONSTER_DATA@@@Z ; std::_Destroy<XMASMONSTER_DATA>
; Function compile flags: /Ogtp
;	COMDAT ??$_Destroy@UXMASMONSTER_DATA@@@std@@YAXPAUXMASMONSTER_DATA@@@Z
_TEXT	SEGMENT
__Ptr$ = 8						; size = 4
??$_Destroy@UXMASMONSTER_DATA@@@std@@YAXPAUXMASMONSTER_DATA@@@Z PROC ; std::_Destroy<XMASMONSTER_DATA>, COMDAT

; 63   : 	_Ptr->~_Ty();
; 64   : 	}

  00000	c3		 ret	 0
??$_Destroy@UXMASMONSTER_DATA@@@std@@YAXPAUXMASMONSTER_DATA@@@Z ENDP ; std::_Destroy<XMASMONSTER_DATA>
_TEXT	ENDS
PUBLIC	??$_Destroy@UXMASMONSTER_MAP_INFO@@@std@@YAXPAUXMASMONSTER_MAP_INFO@@@Z ; std::_Destroy<XMASMONSTER_MAP_INFO>
; Function compile flags: /Ogtp
;	COMDAT ??$_Destroy@UXMASMONSTER_MAP_INFO@@@std@@YAXPAUXMASMONSTER_MAP_INFO@@@Z
_TEXT	SEGMENT
__Ptr$ = 8						; size = 4
??$_Destroy@UXMASMONSTER_MAP_INFO@@@std@@YAXPAUXMASMONSTER_MAP_INFO@@@Z PROC ; std::_Destroy<XMASMONSTER_MAP_INFO>, COMDAT

; 63   : 	_Ptr->~_Ty();
; 64   : 	}

  00000	c3		 ret	 0
??$_Destroy@UXMASMONSTER_MAP_INFO@@@std@@YAXPAUXMASMONSTER_MAP_INFO@@@Z ENDP ; std::_Destroy<XMASMONSTER_MAP_INFO>
_TEXT	ENDS
PUBLIC	??$forward@UXMASMONSTER_EVENT_TIME@@@std@@YA$$QAUXMASMONSTER_EVENT_TIME@@AAU1@@Z ; std::forward<XMASMONSTER_EVENT_TIME>
; Function compile flags: /Ogtp
; File d:\program files (x86)\microsoft visual studio 10.0\vc\include\utility
;	COMDAT ??$forward@UXMASMONSTER_EVENT_TIME@@@std@@YA$$QAUXMASMONSTER_EVENT_TIME@@AAU1@@Z
_TEXT	SEGMENT
__Arg$ = 8						; size = 4
??$forward@UXMASMONSTER_EVENT_TIME@@@std@@YA$$QAUXMASMONSTER_EVENT_TIME@@AAU1@@Z PROC ; std::forward<XMASMONSTER_EVENT_TIME>, COMDAT

; 78   : 	{	// forward _Arg, given explicitly specified type parameter

  00000	55		 push	 ebp
  00001	8b ec		 mov	 ebp, esp

; 79   : 	return ((_Ty&&)_Arg);

  00003	8b 45 08	 mov	 eax, DWORD PTR __Arg$[ebp]

; 80   : 	}

  00006	5d		 pop	 ebp
  00007	c3		 ret	 0
??$forward@UXMASMONSTER_EVENT_TIME@@@std@@YA$$QAUXMASMONSTER_EVENT_TIME@@AAU1@@Z ENDP ; std::forward<XMASMONSTER_EVENT_TIME>
_TEXT	ENDS
PUBLIC	??$forward@UXMASMONSTER_DATA@@@std@@YA$$QAUXMASMONSTER_DATA@@AAU1@@Z ; std::forward<XMASMONSTER_DATA>
; Function compile flags: /Ogtp
;	COMDAT ??$forward@UXMASMONSTER_DATA@@@std@@YA$$QAUXMASMONSTER_DATA@@AAU1@@Z
_TEXT	SEGMENT
__Arg$ = 8						; size = 4
??$forward@UXMASMONSTER_DATA@@@std@@YA$$QAUXMASMONSTER_DATA@@AAU1@@Z PROC ; std::forward<XMASMONSTER_DATA>, COMDAT

; 78   : 	{	// forward _Arg, given explicitly specified type parameter

  00000	55		 push	 ebp
  00001	8b ec		 mov	 ebp, esp

; 79   : 	return ((_Ty&&)_Arg);

  00003	8b 45 08	 mov	 eax, DWORD PTR __Arg$[ebp]

; 80   : 	}

  00006	5d		 pop	 ebp
  00007	c3		 ret	 0
??$forward@UXMASMONSTER_DATA@@@std@@YA$$QAUXMASMONSTER_DATA@@AAU1@@Z ENDP ; std::forward<XMASMONSTER_DATA>
_TEXT	ENDS
PUBLIC	??$forward@UXMASMONSTER_MAP_INFO@@@std@@YA$$QAUXMASMONSTER_MAP_INFO@@AAU1@@Z ; std::forward<XMASMONSTER_MAP_INFO>
; Function compile flags: /Ogtp
;	COMDAT ??$forward@UXMASMONSTER_MAP_INFO@@@std@@YA$$QAUXMASMONSTER_MAP_INFO@@AAU1@@Z
_TEXT	SEGMENT
__Arg$ = 8						; size = 4
??$forward@UXMASMONSTER_MAP_INFO@@@std@@YA$$QAUXMASMONSTER_MAP_INFO@@AAU1@@Z PROC ; std::forward<XMASMONSTER_MAP_INFO>, COMDAT

; 78   : 	{	// forward _Arg, given explicitly specified type parameter

  00000	55		 push	 ebp
  00001	8b ec		 mov	 ebp, esp

; 79   : 	return ((_Ty&&)_Arg);

  00003	8b 45 08	 mov	 eax, DWORD PTR __Arg$[ebp]

; 80   : 	}

  00006	5d		 pop	 ebp
  00007	c3		 ret	 0
??$forward@UXMASMONSTER_MAP_INFO@@@std@@YA$$QAUXMASMONSTER_MAP_INFO@@AAU1@@Z ENDP ; std::forward<XMASMONSTER_MAP_INFO>
_TEXT	ENDS
PUBLIC	??_7bad_alloc@std@@6B@				; std::bad_alloc::`vftable'
PUBLIC	??0bad_alloc@std@@QAE@PBD@Z			; std::bad_alloc::bad_alloc
PUBLIC	??_R4bad_alloc@std@@6B@				; std::bad_alloc::`RTTI Complete Object Locator'
PUBLIC	??_R0?AVbad_alloc@std@@@8			; std::bad_alloc `RTTI Type Descriptor'
PUBLIC	??_R3bad_alloc@std@@8				; std::bad_alloc::`RTTI Class Hierarchy Descriptor'
PUBLIC	??_R2bad_alloc@std@@8				; std::bad_alloc::`RTTI Base Class Array'
PUBLIC	??_R1A@?0A@EA@bad_alloc@std@@8			; std::bad_alloc::`RTTI Base Class Descriptor at (0,-1,0,64)'
PUBLIC	??_R1A@?0A@EA@exception@std@@8			; std::exception::`RTTI Base Class Descriptor at (0,-1,0,64)'
PUBLIC	??_R0?AVexception@std@@@8			; std::exception `RTTI Type Descriptor'
PUBLIC	??_R3exception@std@@8				; std::exception::`RTTI Class Hierarchy Descriptor'
PUBLIC	??_R2exception@std@@8				; std::exception::`RTTI Base Class Array'
EXTRN	??0exception@std@@QAE@ABQBD@Z:PROC		; std::exception::exception
EXTRN	??_Ebad_alloc@std@@UAEPAXI@Z:PROC		; std::bad_alloc::`vector deleting destructor'
EXTRN	?what@exception@std@@UBEPBDXZ:PROC		; std::exception::what
;	COMDAT ??_R2exception@std@@8
; File d:\program files (x86)\microsoft visual studio 10.0\vc\include\exception
rdata$r	SEGMENT
??_R2exception@std@@8 DD FLAT:??_R1A@?0A@EA@exception@std@@8 ; std::exception::`RTTI Base Class Array'
rdata$r	ENDS
;	COMDAT ??_R3exception@std@@8
rdata$r	SEGMENT
??_R3exception@std@@8 DD 00H				; std::exception::`RTTI Class Hierarchy Descriptor'
	DD	00H
	DD	01H
	DD	FLAT:??_R2exception@std@@8
rdata$r	ENDS
;	COMDAT ??_R0?AVexception@std@@@8
_DATA	SEGMENT
??_R0?AVexception@std@@@8 DD FLAT:??_7type_info@@6B@	; std::exception `RTTI Type Descriptor'
	DD	00H
	DB	'.?AVexception@std@@', 00H
_DATA	ENDS
;	COMDAT ??_R1A@?0A@EA@exception@std@@8
rdata$r	SEGMENT
??_R1A@?0A@EA@exception@std@@8 DD FLAT:??_R0?AVexception@std@@@8 ; std::exception::`RTTI Base Class Descriptor at (0,-1,0,64)'
	DD	00H
	DD	00H
	DD	0ffffffffH
	DD	00H
	DD	040H
	DD	FLAT:??_R3exception@std@@8
rdata$r	ENDS
;	COMDAT ??_R1A@?0A@EA@bad_alloc@std@@8
rdata$r	SEGMENT
??_R1A@?0A@EA@bad_alloc@std@@8 DD FLAT:??_R0?AVbad_alloc@std@@@8 ; std::bad_alloc::`RTTI Base Class Descriptor at (0,-1,0,64)'
	DD	01H
	DD	00H
	DD	0ffffffffH
	DD	00H
	DD	040H
	DD	FLAT:??_R3bad_alloc@std@@8
rdata$r	ENDS
;	COMDAT ??_R2bad_alloc@std@@8
rdata$r	SEGMENT
??_R2bad_alloc@std@@8 DD FLAT:??_R1A@?0A@EA@bad_alloc@std@@8 ; std::bad_alloc::`RTTI Base Class Array'
	DD	FLAT:??_R1A@?0A@EA@exception@std@@8
rdata$r	ENDS
;	COMDAT ??_R3bad_alloc@std@@8
rdata$r	SEGMENT
??_R3bad_alloc@std@@8 DD 00H				; std::bad_alloc::`RTTI Class Hierarchy Descriptor'
	DD	00H
	DD	02H
	DD	FLAT:??_R2bad_alloc@std@@8
rdata$r	ENDS
;	COMDAT ??_R0?AVbad_alloc@std@@@8
_DATA	SEGMENT
??_R0?AVbad_alloc@std@@@8 DD FLAT:??_7type_info@@6B@	; std::bad_alloc `RTTI Type Descriptor'
	DD	00H
	DB	'.?AVbad_alloc@std@@', 00H
_DATA	ENDS
;	COMDAT ??_R4bad_alloc@std@@6B@
rdata$r	SEGMENT
??_R4bad_alloc@std@@6B@ DD 00H				; std::bad_alloc::`RTTI Complete Object Locator'
	DD	00H
	DD	00H
	DD	FLAT:??_R0?AVbad_alloc@std@@@8
	DD	FLAT:??_R3bad_alloc@std@@8
rdata$r	ENDS
;	COMDAT ??_7bad_alloc@std@@6B@
CONST	SEGMENT
??_7bad_alloc@std@@6B@ DD FLAT:??_R4bad_alloc@std@@6B@	; std::bad_alloc::`vftable'
	DD	FLAT:??_Ebad_alloc@std@@UAEPAXI@Z
	DD	FLAT:?what@exception@std@@UBEPBDXZ
; Function compile flags: /Ogtp
CONST	ENDS
;	COMDAT ??0bad_alloc@std@@QAE@PBD@Z
_TEXT	SEGMENT
__Message$ = 8						; size = 4
??0bad_alloc@std@@QAE@PBD@Z PROC			; std::bad_alloc::bad_alloc, COMDAT
; _this$ = ecx

; 345  : 		{	// construct from message string

  00000	55		 push	 ebp
  00001	8b ec		 mov	 ebp, esp
  00003	56		 push	 esi
  00004	8d 45 08	 lea	 eax, DWORD PTR __Message$[ebp]
  00007	50		 push	 eax
  00008	8b f1		 mov	 esi, ecx
  0000a	e8 00 00 00 00	 call	 ??0exception@std@@QAE@ABQBD@Z ; std::exception::exception
  0000f	c7 06 00 00 00
	00		 mov	 DWORD PTR [esi], OFFSET ??_7bad_alloc@std@@6B@

; 346  : 		}

  00015	8b c6		 mov	 eax, esi
  00017	5e		 pop	 esi
  00018	5d		 pop	 ebp
  00019	c2 04 00	 ret	 4
??0bad_alloc@std@@QAE@PBD@Z ENDP			; std::bad_alloc::bad_alloc
_TEXT	ENDS
PUBLIC	??1bad_alloc@std@@UAE@XZ			; std::bad_alloc::~bad_alloc
EXTRN	??1exception@std@@UAE@XZ:PROC			; std::exception::~exception
; Function compile flags: /Ogtp
;	COMDAT ??1bad_alloc@std@@UAE@XZ
_TEXT	SEGMENT
??1bad_alloc@std@@UAE@XZ PROC				; std::bad_alloc::~bad_alloc, COMDAT
; _this$ = ecx

; 354  : 		{	// destroy the object

  00000	c7 01 00 00 00
	00		 mov	 DWORD PTR [ecx], OFFSET ??_7bad_alloc@std@@6B@

; 355  : 		}

  00006	e9 00 00 00 00	 jmp	 ??1exception@std@@UAE@XZ ; std::exception::~exception
??1bad_alloc@std@@UAE@XZ ENDP				; std::bad_alloc::~bad_alloc
; Function compile flags: /Ogtp
_TEXT	ENDS
;	COMDAT ??_Gbad_alloc@std@@UAEPAXI@Z
_TEXT	SEGMENT
___flags$ = 8						; size = 4
??_Gbad_alloc@std@@UAEPAXI@Z PROC			; std::bad_alloc::`scalar deleting destructor', COMDAT
; _this$ = ecx
  00000	55		 push	 ebp
  00001	8b ec		 mov	 ebp, esp
  00003	56		 push	 esi
  00004	8b f1		 mov	 esi, ecx
  00006	c7 06 00 00 00
	00		 mov	 DWORD PTR [esi], OFFSET ??_7bad_alloc@std@@6B@
  0000c	e8 00 00 00 00	 call	 ??1exception@std@@UAE@XZ ; std::exception::~exception
  00011	f6 45 08 01	 test	 BYTE PTR ___flags$[ebp], 1
  00015	74 09		 je	 SHORT $LN6@scalar
  00017	56		 push	 esi
  00018	e8 00 00 00 00	 call	 ??3@YAXPAX@Z		; operator delete
  0001d	83 c4 04	 add	 esp, 4
$LN6@scalar:
  00020	8b c6		 mov	 eax, esi
  00022	5e		 pop	 esi
  00023	5d		 pop	 ebp
  00024	c2 04 00	 ret	 4
??_Gbad_alloc@std@@UAEPAXI@Z ENDP			; std::bad_alloc::`scalar deleting destructor'
_TEXT	ENDS
PUBLIC	?_Orphan_all@_Container_base0@std@@QAEXXZ	; std::_Container_base0::_Orphan_all
; Function compile flags: /Ogtp
; File d:\program files (x86)\microsoft visual studio 10.0\vc\include\xutility
;	COMDAT ?_Orphan_all@_Container_base0@std@@QAEXXZ
_TEXT	SEGMENT
?_Orphan_all@_Container_base0@std@@QAEXXZ PROC		; std::_Container_base0::_Orphan_all, COMDAT
; _this$ = ecx

; 38   : 		}

  00000	c3		 ret	 0
?_Orphan_all@_Container_base0@std@@QAEXXZ ENDP		; std::_Container_base0::_Orphan_all
_TEXT	ENDS
PUBLIC	?_Adopt@_Iterator_base0@std@@QAEXPBX@Z		; std::_Iterator_base0::_Adopt
; Function compile flags: /Ogtp
;	COMDAT ?_Adopt@_Iterator_base0@std@@QAEXPBX@Z
_TEXT	SEGMENT
___formal$ = 8						; size = 4
?_Adopt@_Iterator_base0@std@@QAEXPBX@Z PROC		; std::_Iterator_base0::_Adopt, COMDAT
; _this$ = ecx

; 49   : 		}

  00000	c2 04 00	 ret	 4
?_Adopt@_Iterator_base0@std@@QAEXPBX@Z ENDP		; std::_Iterator_base0::_Adopt
; Function compile flags: /Ogtp
_TEXT	ENDS
;	COMDAT ??_GCXMasMonsterHerd@@UAEPAXI@Z
_TEXT	SEGMENT
___flags$ = 8						; size = 4
??_GCXMasMonsterHerd@@UAEPAXI@Z PROC			; CXMasMonsterHerd::`scalar deleting destructor', COMDAT
; _this$ = ecx
  00000	55		 push	 ebp
  00001	8b ec		 mov	 ebp, esp
  00003	56		 push	 esi
  00004	8b f1		 mov	 esi, ecx
  00006	e8 00 00 00 00	 call	 ??1CXMasMonsterHerd@@UAE@XZ ; CXMasMonsterHerd::~CXMasMonsterHerd
  0000b	f6 45 08 01	 test	 BYTE PTR ___flags$[ebp], 1
  0000f	74 09		 je	 SHORT $LN4@scalar@2
  00011	56		 push	 esi
  00012	e8 00 00 00 00	 call	 ??3@YAXPAX@Z		; operator delete
  00017	83 c4 04	 add	 esp, 4
$LN4@scalar@2:
  0001a	8b c6		 mov	 eax, esi
  0001c	5e		 pop	 esi
  0001d	5d		 pop	 ebp
  0001e	c2 04 00	 ret	 4
??_GCXMasMonsterHerd@@UAEPAXI@Z ENDP			; CXMasMonsterHerd::`scalar deleting destructor'
_TEXT	ENDS
PUBLIC	?Move@CXMasAttackEvent@@QAEXXZ			; CXMasAttackEvent::Move
; Function compile flags: /Ogtp
; File e:\work\tranet_version\gs\gameserver\xmasattackevent.cpp
;	COMDAT ?Move@CXMasAttackEvent@@QAEXXZ
_TEXT	SEGMENT
_MonsterMapInfo$213616 = -32				; size = 20
tv262 = -12						; size = 4
tv304 = -8						; size = 4
_i$213612 = -4						; size = 4
?Move@CXMasAttackEvent@@QAEXXZ PROC			; CXMasAttackEvent::Move, COMDAT
; _this$ = ecx

; 566  : {

  00000	55		 push	 ebp
  00001	8b ec		 mov	 ebp, esp
  00003	83 ec 20	 sub	 esp, 32			; 00000020H
  00006	56		 push	 esi
  00007	8b f1		 mov	 esi, ecx

; 567  : 	if(this->m_bDoEvent == FALSE)

  00009	33 c0		 xor	 eax, eax
  0000b	39 46 04	 cmp	 DWORD PTR [esi+4], eax
  0000e	0f 84 96 00 00
	00		 je	 $LN18@Move

; 568  : 	{
; 569  : 		return;
; 570  : 	}
; 571  : 
; 572  : 	if(this->m_bMonsterToDest != FALSE)

  00014	39 46 70	 cmp	 DWORD PTR [esi+112], eax
  00017	0f 85 8d 00 00
	00		 jne	 $LN18@Move

; 573  : 	{
; 574  : 		return;
; 575  : 	}
; 576  : 
; 577  : 	for(int i = 0; i < this->m_vtXMasMonsterHerd.size(); i++)

  0001d	8b 4e 48	 mov	 ecx, DWORD PTR [esi+72]
  00020	8b 56 4c	 mov	 edx, DWORD PTR [esi+76]
  00023	2b d1		 sub	 edx, ecx
  00025	c1 fa 02	 sar	 edx, 2
  00028	89 45 fc	 mov	 DWORD PTR _i$213612[ebp], eax
  0002b	85 d2		 test	 edx, edx
  0002d	74 7b		 je	 SHORT $LN18@Move
  0002f	53		 push	 ebx
  00030	89 45 f8	 mov	 DWORD PTR tv304[ebp], eax
  00033	57		 push	 edi
$LL20@Move:

; 578  : 	{
; 579  : 		XMASMONSTER_MAP_INFO MonsterMapInfo = this->m_vtXMasMonsterMapInfo[i]; //perfect

  00034	8b 46 5c	 mov	 eax, DWORD PTR [esi+92]
  00037	03 45 f8	 add	 eax, DWORD PTR tv304[ebp]
  0003a	8b 10		 mov	 edx, DWORD PTR [eax]
  0003c	89 55 e0	 mov	 DWORD PTR _MonsterMapInfo$213616[ebp], edx
  0003f	8b 50 04	 mov	 edx, DWORD PTR [eax+4]
  00042	89 55 e4	 mov	 DWORD PTR _MonsterMapInfo$213616[ebp+4], edx
  00045	8b 50 08	 mov	 edx, DWORD PTR [eax+8]
  00048	89 55 e8	 mov	 DWORD PTR _MonsterMapInfo$213616[ebp+8], edx
  0004b	8b 50 0c	 mov	 edx, DWORD PTR [eax+12]
  0004e	8b 40 10	 mov	 eax, DWORD PTR [eax+16]
  00051	89 55 ec	 mov	 DWORD PTR _MonsterMapInfo$213616[ebp+12], edx

; 580  : 		
; 581  : 		CXMasMonsterHerd * vtHerdInfo = this->m_vtXMasMonsterHerd[i]; //perfect

  00054	8b 55 fc	 mov	 edx, DWORD PTR _i$213612[ebp]
  00057	8b 1c 91	 mov	 ebx, DWORD PTR [ecx+edx*4]
  0005a	89 45 f0	 mov	 DWORD PTR _MonsterMapInfo$213616[ebp+16], eax

; 582  : 
; 583  : 		if(this->MonsterHerdMoveCheck(vtHerdInfo, &MonsterMapInfo) == FALSE)

  0005d	8d 45 e0	 lea	 eax, DWORD PTR _MonsterMapInfo$213616[ebp]
  00060	50		 push	 eax
  00061	53		 push	 ebx
  00062	8b ce		 mov	 ecx, esi
  00064	e8 00 00 00 00	 call	 ?MonsterHerdMoveCheck@CXMasAttackEvent@@QAEHPAVCXMasMonsterHerd@@PAUXMASMONSTER_MAP_INFO@@@Z ; CXMasAttackEvent::MonsterHerdMoveCheck
  00069	85 c0		 test	 eax, eax
  0006b	74 3b		 je	 SHORT $LN21@Move

; 584  : 		{
; 585  : 			break;
; 586  : 		}
; 587  : 
; 588  : 		int iDIVIDE = this->m_iRADIUS_MAX - this->m_iRADIUS_MIN;
; 589  : 
; 590  : 		if ( iDIVIDE <= 0 )
; 591  : 			iDIVIDE = 1;
; 592  : 
; 593  : 		int iRADIUS = iDIVIDE + this->m_iRADIUS_MIN;
; 594  : 
; 595  : 		if ( iRADIUS <= 3 )
; 596  : 			iRADIUS = 3;
; 597  : 
; 598  : 		vtHerdInfo->SetRadius((rand() % (this->m_iRADIUS_MAX - this->m_iRADIUS_MIN)) + this->m_iRADIUS_MIN);

  0006d	8b 4e 78	 mov	 ecx, DWORD PTR [esi+120]
  00070	8b 3b		 mov	 edi, DWORD PTR [ebx]
  00072	89 4d f4	 mov	 DWORD PTR tv262[ebp], ecx
  00075	e8 00 00 00 00	 call	 _rand
  0007a	8b 4e 7c	 mov	 ecx, DWORD PTR [esi+124]
  0007d	2b 4d f4	 sub	 ecx, DWORD PTR tv262[ebp]
  00080	99		 cdq
  00081	f7 f9		 idiv	 ecx
  00083	8b cb		 mov	 ecx, ebx
  00085	03 55 f4	 add	 edx, DWORD PTR tv262[ebp]
  00088	52		 push	 edx
  00089	8b 57 0c	 mov	 edx, DWORD PTR [edi+12]
  0008c	ff d2		 call	 edx
  0008e	8b 4e 48	 mov	 ecx, DWORD PTR [esi+72]
  00091	8b 56 4c	 mov	 edx, DWORD PTR [esi+76]
  00094	8b 45 fc	 mov	 eax, DWORD PTR _i$213612[ebp]
  00097	83 45 f8 14	 add	 DWORD PTR tv304[ebp], 20 ; 00000014H
  0009b	2b d1		 sub	 edx, ecx
  0009d	40		 inc	 eax
  0009e	c1 fa 02	 sar	 edx, 2
  000a1	89 45 fc	 mov	 DWORD PTR _i$213612[ebp], eax
  000a4	3b c2		 cmp	 eax, edx
  000a6	72 8c		 jb	 SHORT $LL20@Move
$LN21@Move:
  000a8	5f		 pop	 edi
  000a9	5b		 pop	 ebx
$LN18@Move:
  000aa	5e		 pop	 esi

; 599  : 	}
; 600  : }

  000ab	8b e5		 mov	 esp, ebp
  000ad	5d		 pop	 ebp
  000ae	c3		 ret	 0
?Move@CXMasAttackEvent@@QAEXXZ ENDP			; CXMasAttackEvent::Move
_TEXT	ENDS
PUBLIC	??D?$_Vector_iterator@V?$_Vector_val@PAVCXMasMonsterHerd@@V?$allocator@PAVCXMasMonsterHerd@@@std@@@std@@@std@@QBEAAPAVCXMasMonsterHerd@@XZ ; std::_Vector_iterator<std::_Vector_val<CXMasMonsterHerd *,std::allocator<CXMasMonsterHerd *> > >::operator*
; Function compile flags: /Ogtp
; File d:\program files (x86)\microsoft visual studio 10.0\vc\include\vector
;	COMDAT ??D?$_Vector_iterator@V?$_Vector_val@PAVCXMasMonsterHerd@@V?$allocator@PAVCXMasMonsterHerd@@@std@@@std@@@std@@QBEAAPAVCXMasMonsterHerd@@XZ
_TEXT	SEGMENT
??D?$_Vector_iterator@V?$_Vector_val@PAVCXMasMonsterHerd@@V?$allocator@PAVCXMasMonsterHerd@@@std@@@std@@@std@@QBEAAPAVCXMasMonsterHerd@@XZ PROC ; std::_Vector_iterator<std::_Vector_val<CXMasMonsterHerd *,std::allocator<CXMasMonsterHerd *> > >::operator*, COMDAT
; _this$ = ecx

; 322  : 		return ((reference)**(_Mybase *)this);

  00000	8b 01		 mov	 eax, DWORD PTR [ecx]

; 323  : 		}

  00002	c3		 ret	 0
??D?$_Vector_iterator@V?$_Vector_val@PAVCXMasMonsterHerd@@V?$allocator@PAVCXMasMonsterHerd@@@std@@@std@@@std@@QBEAAPAVCXMasMonsterHerd@@XZ ENDP ; std::_Vector_iterator<std::_Vector_val<CXMasMonsterHerd *,std::allocator<CXMasMonsterHerd *> > >::operator*
_TEXT	ENDS
PUBLIC	??E?$_Vector_iterator@V?$_Vector_val@PAVCXMasMonsterHerd@@V?$allocator@PAVCXMasMonsterHerd@@@std@@@std@@@std@@QAEAAV01@XZ ; std::_Vector_iterator<std::_Vector_val<CXMasMonsterHerd *,std::allocator<CXMasMonsterHerd *> > >::operator++
; Function compile flags: /Ogtp
;	COMDAT ??E?$_Vector_iterator@V?$_Vector_val@PAVCXMasMonsterHerd@@V?$allocator@PAVCXMasMonsterHerd@@@std@@@std@@@std@@QAEAAV01@XZ
_TEXT	SEGMENT
??E?$_Vector_iterator@V?$_Vector_val@PAVCXMasMonsterHerd@@V?$allocator@PAVCXMasMonsterHerd@@@std@@@std@@@std@@QAEAAV01@XZ PROC ; std::_Vector_iterator<std::_Vector_val<CXMasMonsterHerd *,std::allocator<CXMasMonsterHerd *> > >::operator++, COMDAT
; _this$ = ecx

; 331  : 		{	// preincrement

  00000	8b c1		 mov	 eax, ecx

; 332  : 		++*(_Mybase *)this;

  00002	83 00 04	 add	 DWORD PTR [eax], 4

; 333  : 		return (*this);
; 334  : 		}

  00005	c3		 ret	 0
??E?$_Vector_iterator@V?$_Vector_val@PAVCXMasMonsterHerd@@V?$allocator@PAVCXMasMonsterHerd@@@std@@@std@@@std@@QAEAAV01@XZ ENDP ; std::_Vector_iterator<std::_Vector_val<CXMasMonsterHerd *,std::allocator<CXMasMonsterHerd *> > >::operator++
_TEXT	ENDS
PUBLIC	??D?$_Vector_iterator@V?$_Vector_val@UXMASMONSTER_DATA@@V?$allocator@UXMASMONSTER_DATA@@@std@@@std@@@std@@QBEAAUXMASMONSTER_DATA@@XZ ; std::_Vector_iterator<std::_Vector_val<XMASMONSTER_DATA,std::allocator<XMASMONSTER_DATA> > >::operator*
; Function compile flags: /Ogtp
;	COMDAT ??D?$_Vector_iterator@V?$_Vector_val@UXMASMONSTER_DATA@@V?$allocator@UXMASMONSTER_DATA@@@std@@@std@@@std@@QBEAAUXMASMONSTER_DATA@@XZ
_TEXT	SEGMENT
??D?$_Vector_iterator@V?$_Vector_val@UXMASMONSTER_DATA@@V?$allocator@UXMASMONSTER_DATA@@@std@@@std@@@std@@QBEAAUXMASMONSTER_DATA@@XZ PROC ; std::_Vector_iterator<std::_Vector_val<XMASMONSTER_DATA,std::allocator<XMASMONSTER_DATA> > >::operator*, COMDAT
; _this$ = ecx

; 322  : 		return ((reference)**(_Mybase *)this);

  00000	8b 01		 mov	 eax, DWORD PTR [ecx]

; 323  : 		}

  00002	c3		 ret	 0
??D?$_Vector_iterator@V?$_Vector_val@UXMASMONSTER_DATA@@V?$allocator@UXMASMONSTER_DATA@@@std@@@std@@@std@@QBEAAUXMASMONSTER_DATA@@XZ ENDP ; std::_Vector_iterator<std::_Vector_val<XMASMONSTER_DATA,std::allocator<XMASMONSTER_DATA> > >::operator*
_TEXT	ENDS
PUBLIC	??0?$_Vector_iterator@V?$_Vector_val@UXMASMONSTER_EVENT_TIME@@V?$allocator@UXMASMONSTER_EVENT_TIME@@@std@@@std@@@std@@QAE@XZ ; std::_Vector_iterator<std::_Vector_val<XMASMONSTER_EVENT_TIME,std::allocator<XMASMONSTER_EVENT_TIME> > >::_Vector_iterator<std::_Vector_val<XMASMONSTER_EVENT_TIME,std::allocator<XMASMONSTER_EVENT_TIME> > >
; Function compile flags: /Ogtp
;	COMDAT ??0?$_Vector_iterator@V?$_Vector_val@UXMASMONSTER_EVENT_TIME@@V?$allocator@UXMASMONSTER_EVENT_TIME@@@std@@@std@@@std@@QAE@XZ
_TEXT	SEGMENT
??0?$_Vector_iterator@V?$_Vector_val@UXMASMONSTER_EVENT_TIME@@V?$allocator@UXMASMONSTER_EVENT_TIME@@@std@@@std@@@std@@QAE@XZ PROC ; std::_Vector_iterator<std::_Vector_val<XMASMONSTER_EVENT_TIME,std::allocator<XMASMONSTER_EVENT_TIME> > >::_Vector_iterator<std::_Vector_val<XMASMONSTER_EVENT_TIME,std::allocator<XMASMONSTER_EVENT_TIME> > >, COMDAT
; _this$ = ecx

; 298  : 	_Vector_iterator()

  00000	8b c1		 mov	 eax, ecx
  00002	c7 00 00 00 00
	00		 mov	 DWORD PTR [eax], 0

; 299  : 		{	// construct with null vector pointer
; 300  : 		}

  00008	c3		 ret	 0
??0?$_Vector_iterator@V?$_Vector_val@UXMASMONSTER_EVENT_TIME@@V?$allocator@UXMASMONSTER_EVENT_TIME@@@std@@@std@@@std@@QAE@XZ ENDP ; std::_Vector_iterator<std::_Vector_val<XMASMONSTER_EVENT_TIME,std::allocator<XMASMONSTER_EVENT_TIME> > >::_Vector_iterator<std::_Vector_val<XMASMONSTER_EVENT_TIME,std::allocator<XMASMONSTER_EVENT_TIME> > >
_TEXT	ENDS
PUBLIC	??D?$_Vector_iterator@V?$_Vector_val@UXMASMONSTER_EVENT_TIME@@V?$allocator@UXMASMONSTER_EVENT_TIME@@@std@@@std@@@std@@QBEAAUXMASMONSTER_EVENT_TIME@@XZ ; std::_Vector_iterator<std::_Vector_val<XMASMONSTER_EVENT_TIME,std::allocator<XMASMONSTER_EVENT_TIME> > >::operator*
; Function compile flags: /Ogtp
;	COMDAT ??D?$_Vector_iterator@V?$_Vector_val@UXMASMONSTER_EVENT_TIME@@V?$allocator@UXMASMONSTER_EVENT_TIME@@@std@@@std@@@std@@QBEAAUXMASMONSTER_EVENT_TIME@@XZ
_TEXT	SEGMENT
??D?$_Vector_iterator@V?$_Vector_val@UXMASMONSTER_EVENT_TIME@@V?$allocator@UXMASMONSTER_EVENT_TIME@@@std@@@std@@@std@@QBEAAUXMASMONSTER_EVENT_TIME@@XZ PROC ; std::_Vector_iterator<std::_Vector_val<XMASMONSTER_EVENT_TIME,std::allocator<XMASMONSTER_EVENT_TIME> > >::operator*, COMDAT
; _this$ = ecx

; 322  : 		return ((reference)**(_Mybase *)this);

  00000	8b 01		 mov	 eax, DWORD PTR [ecx]

; 323  : 		}

  00002	c3		 ret	 0
??D?$_Vector_iterator@V?$_Vector_val@UXMASMONSTER_EVENT_TIME@@V?$allocator@UXMASMONSTER_EVENT_TIME@@@std@@@std@@@std@@QBEAAUXMASMONSTER_EVENT_TIME@@XZ ENDP ; std::_Vector_iterator<std::_Vector_val<XMASMONSTER_EVENT_TIME,std::allocator<XMASMONSTER_EVENT_TIME> > >::operator*
_TEXT	ENDS
PUBLIC	??0?$_Vector_val@UXMASMONSTER_MAP_INFO@@V?$allocator@UXMASMONSTER_MAP_INFO@@@std@@@std@@QAE@V?$allocator@UXMASMONSTER_MAP_INFO@@@1@@Z ; std::_Vector_val<XMASMONSTER_MAP_INFO,std::allocator<XMASMONSTER_MAP_INFO> >::_Vector_val<XMASMONSTER_MAP_INFO,std::allocator<XMASMONSTER_MAP_INFO> >
; Function compile flags: /Ogtp
;	COMDAT ??0?$_Vector_val@UXMASMONSTER_MAP_INFO@@V?$allocator@UXMASMONSTER_MAP_INFO@@@std@@@std@@QAE@V?$allocator@UXMASMONSTER_MAP_INFO@@@1@@Z
_TEXT	SEGMENT
__Al$ = 8						; size = 1
??0?$_Vector_val@UXMASMONSTER_MAP_INFO@@V?$allocator@UXMASMONSTER_MAP_INFO@@@std@@@std@@QAE@V?$allocator@UXMASMONSTER_MAP_INFO@@@1@@Z PROC ; std::_Vector_val<XMASMONSTER_MAP_INFO,std::allocator<XMASMONSTER_MAP_INFO> >::_Vector_val<XMASMONSTER_MAP_INFO,std::allocator<XMASMONSTER_MAP_INFO> >, COMDAT
; _this$ = ecx

; 426  : 		{	// construct allocator from _Al

  00000	8b c1		 mov	 eax, ecx

; 427  : 		_Myfirst = 0;

  00002	33 c9		 xor	 ecx, ecx
  00004	89 08		 mov	 DWORD PTR [eax], ecx

; 428  : 		_Mylast = 0;

  00006	89 48 04	 mov	 DWORD PTR [eax+4], ecx

; 429  : 		_Myend = 0;

  00009	89 48 08	 mov	 DWORD PTR [eax+8], ecx

; 430  : 		}

  0000c	c2 04 00	 ret	 4
??0?$_Vector_val@UXMASMONSTER_MAP_INFO@@V?$allocator@UXMASMONSTER_MAP_INFO@@@std@@@std@@QAE@V?$allocator@UXMASMONSTER_MAP_INFO@@@1@@Z ENDP ; std::_Vector_val<XMASMONSTER_MAP_INFO,std::allocator<XMASMONSTER_MAP_INFO> >::_Vector_val<XMASMONSTER_MAP_INFO,std::allocator<XMASMONSTER_MAP_INFO> >
_TEXT	ENDS
PUBLIC	??8?$_Vector_const_iterator@V?$_Vector_val@PAVCXMasMonsterHerd@@V?$allocator@PAVCXMasMonsterHerd@@@std@@@std@@@std@@QBE_NABV01@@Z ; std::_Vector_const_iterator<std::_Vector_val<CXMasMonsterHerd *,std::allocator<CXMasMonsterHerd *> > >::operator==
; Function compile flags: /Ogtp
;	COMDAT ??8?$_Vector_const_iterator@V?$_Vector_val@PAVCXMasMonsterHerd@@V?$allocator@PAVCXMasMonsterHerd@@@std@@@std@@@std@@QBE_NABV01@@Z
_TEXT	SEGMENT
__Right$ = 8						; size = 4
??8?$_Vector_const_iterator@V?$_Vector_val@PAVCXMasMonsterHerd@@V?$allocator@PAVCXMasMonsterHerd@@@std@@@std@@@std@@QBE_NABV01@@Z PROC ; std::_Vector_const_iterator<std::_Vector_val<CXMasMonsterHerd *,std::allocator<CXMasMonsterHerd *> > >::operator==, COMDAT
; _this$ = ecx

; 201  : 		{	// test for iterator equality

  00000	55		 push	 ebp
  00001	8b ec		 mov	 ebp, esp

; 202  : 		_Compat(_Right);
; 203  : 		return (this->_Ptr == _Right._Ptr);

  00003	8b 01		 mov	 eax, DWORD PTR [ecx]
  00005	8b 55 08	 mov	 edx, DWORD PTR __Right$[ebp]
  00008	33 c9		 xor	 ecx, ecx
  0000a	3b 02		 cmp	 eax, DWORD PTR [edx]
  0000c	0f 94 c0	 sete	 al

; 204  : 		}

  0000f	5d		 pop	 ebp
  00010	c2 04 00	 ret	 4
??8?$_Vector_const_iterator@V?$_Vector_val@PAVCXMasMonsterHerd@@V?$allocator@PAVCXMasMonsterHerd@@@std@@@std@@@std@@QBE_NABV01@@Z ENDP ; std::_Vector_const_iterator<std::_Vector_val<CXMasMonsterHerd *,std::allocator<CXMasMonsterHerd *> > >::operator==
_TEXT	ENDS
PUBLIC	??E?$_Vector_iterator@V?$_Vector_val@UXMASMONSTER_MAP_INFO@@V?$allocator@UXMASMONSTER_MAP_INFO@@@std@@@std@@@std@@QAEAAV01@XZ ; std::_Vector_iterator<std::_Vector_val<XMASMONSTER_MAP_INFO,std::allocator<XMASMONSTER_MAP_INFO> > >::operator++
; Function compile flags: /Ogtp
;	COMDAT ??E?$_Vector_iterator@V?$_Vector_val@UXMASMONSTER_MAP_INFO@@V?$allocator@UXMASMONSTER_MAP_INFO@@@std@@@std@@@std@@QAEAAV01@XZ
_TEXT	SEGMENT
??E?$_Vector_iterator@V?$_Vector_val@UXMASMONSTER_MAP_INFO@@V?$allocator@UXMASMONSTER_MAP_INFO@@@std@@@std@@@std@@QAEAAV01@XZ PROC ; std::_Vector_iterator<std::_Vector_val<XMASMONSTER_MAP_INFO,std::allocator<XMASMONSTER_MAP_INFO> > >::operator++, COMDAT
; _this$ = ecx

; 331  : 		{	// preincrement

  00000	8b c1		 mov	 eax, ecx

; 332  : 		++*(_Mybase *)this;

  00002	83 00 14	 add	 DWORD PTR [eax], 20	; 00000014H

; 333  : 		return (*this);
; 334  : 		}

  00005	c3		 ret	 0
??E?$_Vector_iterator@V?$_Vector_val@UXMASMONSTER_MAP_INFO@@V?$allocator@UXMASMONSTER_MAP_INFO@@@std@@@std@@@std@@QAEAAV01@XZ ENDP ; std::_Vector_iterator<std::_Vector_val<XMASMONSTER_MAP_INFO,std::allocator<XMASMONSTER_MAP_INFO> > >::operator++
_TEXT	ENDS
PUBLIC	??8?$_Vector_const_iterator@V?$_Vector_val@UXMASMONSTER_MAP_INFO@@V?$allocator@UXMASMONSTER_MAP_INFO@@@std@@@std@@@std@@QBE_NABV01@@Z ; std::_Vector_const_iterator<std::_Vector_val<XMASMONSTER_MAP_INFO,std::allocator<XMASMONSTER_MAP_INFO> > >::operator==
; Function compile flags: /Ogtp
;	COMDAT ??8?$_Vector_const_iterator@V?$_Vector_val@UXMASMONSTER_MAP_INFO@@V?$allocator@UXMASMONSTER_MAP_INFO@@@std@@@std@@@std@@QBE_NABV01@@Z
_TEXT	SEGMENT
__Right$ = 8						; size = 4
??8?$_Vector_const_iterator@V?$_Vector_val@UXMASMONSTER_MAP_INFO@@V?$allocator@UXMASMONSTER_MAP_INFO@@@std@@@std@@@std@@QBE_NABV01@@Z PROC ; std::_Vector_const_iterator<std::_Vector_val<XMASMONSTER_MAP_INFO,std::allocator<XMASMONSTER_MAP_INFO> > >::operator==, COMDAT
; _this$ = ecx

; 201  : 		{	// test for iterator equality

  00000	55		 push	 ebp
  00001	8b ec		 mov	 ebp, esp

; 202  : 		_Compat(_Right);
; 203  : 		return (this->_Ptr == _Right._Ptr);

  00003	8b 01		 mov	 eax, DWORD PTR [ecx]
  00005	8b 55 08	 mov	 edx, DWORD PTR __Right$[ebp]
  00008	33 c9		 xor	 ecx, ecx
  0000a	3b 02		 cmp	 eax, DWORD PTR [edx]
  0000c	0f 94 c0	 sete	 al

; 204  : 		}

  0000f	5d		 pop	 ebp
  00010	c2 04 00	 ret	 4
??8?$_Vector_const_iterator@V?$_Vector_val@UXMASMONSTER_MAP_INFO@@V?$allocator@UXMASMONSTER_MAP_INFO@@@std@@@std@@@std@@QBE_NABV01@@Z ENDP ; std::_Vector_const_iterator<std::_Vector_val<XMASMONSTER_MAP_INFO,std::allocator<XMASMONSTER_MAP_INFO> > >::operator==
_TEXT	ENDS
PUBLIC	??E?$_Vector_iterator@V?$_Vector_val@UXMASMONSTER_DATA@@V?$allocator@UXMASMONSTER_DATA@@@std@@@std@@@std@@QAEAAV01@XZ ; std::_Vector_iterator<std::_Vector_val<XMASMONSTER_DATA,std::allocator<XMASMONSTER_DATA> > >::operator++
; Function compile flags: /Ogtp
;	COMDAT ??E?$_Vector_iterator@V?$_Vector_val@UXMASMONSTER_DATA@@V?$allocator@UXMASMONSTER_DATA@@@std@@@std@@@std@@QAEAAV01@XZ
_TEXT	SEGMENT
??E?$_Vector_iterator@V?$_Vector_val@UXMASMONSTER_DATA@@V?$allocator@UXMASMONSTER_DATA@@@std@@@std@@@std@@QAEAAV01@XZ PROC ; std::_Vector_iterator<std::_Vector_val<XMASMONSTER_DATA,std::allocator<XMASMONSTER_DATA> > >::operator++, COMDAT
; _this$ = ecx

; 331  : 		{	// preincrement

  00000	8b c1		 mov	 eax, ecx

; 332  : 		++*(_Mybase *)this;

  00002	83 00 0c	 add	 DWORD PTR [eax], 12	; 0000000cH

; 333  : 		return (*this);
; 334  : 		}

  00005	c3		 ret	 0
??E?$_Vector_iterator@V?$_Vector_val@UXMASMONSTER_DATA@@V?$allocator@UXMASMONSTER_DATA@@@std@@@std@@@std@@QAEAAV01@XZ ENDP ; std::_Vector_iterator<std::_Vector_val<XMASMONSTER_DATA,std::allocator<XMASMONSTER_DATA> > >::operator++
_TEXT	ENDS
PUBLIC	??8?$_Vector_const_iterator@V?$_Vector_val@UXMASMONSTER_DATA@@V?$allocator@UXMASMONSTER_DATA@@@std@@@std@@@std@@QBE_NABV01@@Z ; std::_Vector_const_iterator<std::_Vector_val<XMASMONSTER_DATA,std::allocator<XMASMONSTER_DATA> > >::operator==
; Function compile flags: /Ogtp
;	COMDAT ??8?$_Vector_const_iterator@V?$_Vector_val@UXMASMONSTER_DATA@@V?$allocator@UXMASMONSTER_DATA@@@std@@@std@@@std@@QBE_NABV01@@Z
_TEXT	SEGMENT
__Right$ = 8						; size = 4
??8?$_Vector_const_iterator@V?$_Vector_val@UXMASMONSTER_DATA@@V?$allocator@UXMASMONSTER_DATA@@@std@@@std@@@std@@QBE_NABV01@@Z PROC ; std::_Vector_const_iterator<std::_Vector_val<XMASMONSTER_DATA,std::allocator<XMASMONSTER_DATA> > >::operator==, COMDAT
; _this$ = ecx

; 201  : 		{	// test for iterator equality

  00000	55		 push	 ebp
  00001	8b ec		 mov	 ebp, esp

; 202  : 		_Compat(_Right);
; 203  : 		return (this->_Ptr == _Right._Ptr);

  00003	8b 01		 mov	 eax, DWORD PTR [ecx]
  00005	8b 55 08	 mov	 edx, DWORD PTR __Right$[ebp]
  00008	33 c9		 xor	 ecx, ecx
  0000a	3b 02		 cmp	 eax, DWORD PTR [edx]
  0000c	0f 94 c0	 sete	 al

; 204  : 		}

  0000f	5d		 pop	 ebp
  00010	c2 04 00	 ret	 4
??8?$_Vector_const_iterator@V?$_Vector_val@UXMASMONSTER_DATA@@V?$allocator@UXMASMONSTER_DATA@@@std@@@std@@@std@@QBE_NABV01@@Z ENDP ; std::_Vector_const_iterator<std::_Vector_val<XMASMONSTER_DATA,std::allocator<XMASMONSTER_DATA> > >::operator==
_TEXT	ENDS
PUBLIC	??E?$_Vector_iterator@V?$_Vector_val@UXMASMONSTER_EVENT_TIME@@V?$allocator@UXMASMONSTER_EVENT_TIME@@@std@@@std@@@std@@QAEAAV01@XZ ; std::_Vector_iterator<std::_Vector_val<XMASMONSTER_EVENT_TIME,std::allocator<XMASMONSTER_EVENT_TIME> > >::operator++
; Function compile flags: /Ogtp
;	COMDAT ??E?$_Vector_iterator@V?$_Vector_val@UXMASMONSTER_EVENT_TIME@@V?$allocator@UXMASMONSTER_EVENT_TIME@@@std@@@std@@@std@@QAEAAV01@XZ
_TEXT	SEGMENT
??E?$_Vector_iterator@V?$_Vector_val@UXMASMONSTER_EVENT_TIME@@V?$allocator@UXMASMONSTER_EVENT_TIME@@@std@@@std@@@std@@QAEAAV01@XZ PROC ; std::_Vector_iterator<std::_Vector_val<XMASMONSTER_EVENT_TIME,std::allocator<XMASMONSTER_EVENT_TIME> > >::operator++, COMDAT
; _this$ = ecx

; 331  : 		{	// preincrement

  00000	8b c1		 mov	 eax, ecx

; 332  : 		++*(_Mybase *)this;

  00002	83 00 08	 add	 DWORD PTR [eax], 8

; 333  : 		return (*this);
; 334  : 		}

  00005	c3		 ret	 0
??E?$_Vector_iterator@V?$_Vector_val@UXMASMONSTER_EVENT_TIME@@V?$allocator@UXMASMONSTER_EVENT_TIME@@@std@@@std@@@std@@QAEAAV01@XZ ENDP ; std::_Vector_iterator<std::_Vector_val<XMASMONSTER_EVENT_TIME,std::allocator<XMASMONSTER_EVENT_TIME> > >::operator++
_TEXT	ENDS
PUBLIC	??8?$_Vector_const_iterator@V?$_Vector_val@UXMASMONSTER_EVENT_TIME@@V?$allocator@UXMASMONSTER_EVENT_TIME@@@std@@@std@@@std@@QBE_NABV01@@Z ; std::_Vector_const_iterator<std::_Vector_val<XMASMONSTER_EVENT_TIME,std::allocator<XMASMONSTER_EVENT_TIME> > >::operator==
; Function compile flags: /Ogtp
;	COMDAT ??8?$_Vector_const_iterator@V?$_Vector_val@UXMASMONSTER_EVENT_TIME@@V?$allocator@UXMASMONSTER_EVENT_TIME@@@std@@@std@@@std@@QBE_NABV01@@Z
_TEXT	SEGMENT
__Right$ = 8						; size = 4
??8?$_Vector_const_iterator@V?$_Vector_val@UXMASMONSTER_EVENT_TIME@@V?$allocator@UXMASMONSTER_EVENT_TIME@@@std@@@std@@@std@@QBE_NABV01@@Z PROC ; std::_Vector_const_iterator<std::_Vector_val<XMASMONSTER_EVENT_TIME,std::allocator<XMASMONSTER_EVENT_TIME> > >::operator==, COMDAT
; _this$ = ecx

; 201  : 		{	// test for iterator equality

  00000	55		 push	 ebp
  00001	8b ec		 mov	 ebp, esp

; 202  : 		_Compat(_Right);
; 203  : 		return (this->_Ptr == _Right._Ptr);

  00003	8b 01		 mov	 eax, DWORD PTR [ecx]
  00005	8b 55 08	 mov	 edx, DWORD PTR __Right$[ebp]
  00008	33 c9		 xor	 ecx, ecx
  0000a	3b 02		 cmp	 eax, DWORD PTR [edx]
  0000c	0f 94 c0	 sete	 al

; 204  : 		}

  0000f	5d		 pop	 ebp
  00010	c2 04 00	 ret	 4
??8?$_Vector_const_iterator@V?$_Vector_val@UXMASMONSTER_EVENT_TIME@@V?$allocator@UXMASMONSTER_EVENT_TIME@@@std@@@std@@@std@@QBE_NABV01@@Z ENDP ; std::_Vector_const_iterator<std::_Vector_val<XMASMONSTER_EVENT_TIME,std::allocator<XMASMONSTER_EVENT_TIME> > >::operator==
_TEXT	ENDS
PUBLIC	?max_size@?$vector@UXMASMONSTER_EVENT_TIME@@V?$allocator@UXMASMONSTER_EVENT_TIME@@@std@@@std@@QBEIXZ ; std::vector<XMASMONSTER_EVENT_TIME,std::allocator<XMASMONSTER_EVENT_TIME> >::max_size
; Function compile flags: /Ogtp
;	COMDAT ?max_size@?$vector@UXMASMONSTER_EVENT_TIME@@V?$allocator@UXMASMONSTER_EVENT_TIME@@@std@@@std@@QBEIXZ
_TEXT	SEGMENT
?max_size@?$vector@UXMASMONSTER_EVENT_TIME@@V?$allocator@UXMASMONSTER_EVENT_TIME@@@std@@@std@@QBEIXZ PROC ; std::vector<XMASMONSTER_EVENT_TIME,std::allocator<XMASMONSTER_EVENT_TIME> >::max_size, COMDAT
; _this$ = ecx

; 884  : 		return (this->_Alval.max_size());

  00000	b8 ff ff ff 1f	 mov	 eax, 536870911		; 1fffffffH

; 885  : 		}

  00005	c3		 ret	 0
?max_size@?$vector@UXMASMONSTER_EVENT_TIME@@V?$allocator@UXMASMONSTER_EVENT_TIME@@@std@@@std@@QBEIXZ ENDP ; std::vector<XMASMONSTER_EVENT_TIME,std::allocator<XMASMONSTER_EVENT_TIME> >::max_size
_TEXT	ENDS
PUBLIC	?_Grow_to@?$vector@UXMASMONSTER_EVENT_TIME@@V?$allocator@UXMASMONSTER_EVENT_TIME@@@std@@@std@@IBEII@Z ; std::vector<XMASMONSTER_EVENT_TIME,std::allocator<XMASMONSTER_EVENT_TIME> >::_Grow_to
; Function compile flags: /Ogtp
;	COMDAT ?_Grow_to@?$vector@UXMASMONSTER_EVENT_TIME@@V?$allocator@UXMASMONSTER_EVENT_TIME@@@std@@@std@@IBEII@Z
_TEXT	SEGMENT
__Count$ = 8						; size = 4
?_Grow_to@?$vector@UXMASMONSTER_EVENT_TIME@@V?$allocator@UXMASMONSTER_EVENT_TIME@@@std@@@std@@IBEII@Z PROC ; std::vector<XMASMONSTER_EVENT_TIME,std::allocator<XMASMONSTER_EVENT_TIME> >::_Grow_to, COMDAT
; _this$ = ecx

; 1274 : 		{	// grow by 50% or at least to _Count

  00000	55		 push	 ebp
  00001	8b ec		 mov	 ebp, esp

; 1275 : 		size_type _Capacity = capacity();

  00003	8b 41 08	 mov	 eax, DWORD PTR [ecx+8]
  00006	2b 01		 sub	 eax, DWORD PTR [ecx]

; 1276 : 
; 1277 : 		_Capacity = max_size() - _Capacity / 2 < _Capacity
; 1278 : 			? 0 : _Capacity + _Capacity / 2;	// try to grow by 50%

  00008	ba ff ff ff 1f	 mov	 edx, 536870911		; 1fffffffH
  0000d	c1 f8 03	 sar	 eax, 3
  00010	8b c8		 mov	 ecx, eax
  00012	d1 e9		 shr	 ecx, 1
  00014	2b d1		 sub	 edx, ecx
  00016	3b d0		 cmp	 edx, eax
  00018	73 04		 jae	 SHORT $LN4@Grow_to
  0001a	33 c0		 xor	 eax, eax
  0001c	eb 02		 jmp	 SHORT $LN5@Grow_to
$LN4@Grow_to:
  0001e	03 c1		 add	 eax, ecx
$LN5@Grow_to:

; 1279 : 		if (_Capacity < _Count)

  00020	8b 4d 08	 mov	 ecx, DWORD PTR __Count$[ebp]
  00023	3b c1		 cmp	 eax, ecx
  00025	73 02		 jae	 SHORT $LN1@Grow_to

; 1280 : 			_Capacity = _Count;
; 1281 : 		return (_Capacity);

  00027	8b c1		 mov	 eax, ecx
$LN1@Grow_to:

; 1282 : 		}

  00029	5d		 pop	 ebp
  0002a	c2 04 00	 ret	 4
?_Grow_to@?$vector@UXMASMONSTER_EVENT_TIME@@V?$allocator@UXMASMONSTER_EVENT_TIME@@@std@@@std@@IBEII@Z ENDP ; std::vector<XMASMONSTER_EVENT_TIME,std::allocator<XMASMONSTER_EVENT_TIME> >::_Grow_to
_TEXT	ENDS
PUBLIC	?max_size@?$vector@UXMASMONSTER_DATA@@V?$allocator@UXMASMONSTER_DATA@@@std@@@std@@QBEIXZ ; std::vector<XMASMONSTER_DATA,std::allocator<XMASMONSTER_DATA> >::max_size
; Function compile flags: /Ogtp
;	COMDAT ?max_size@?$vector@UXMASMONSTER_DATA@@V?$allocator@UXMASMONSTER_DATA@@@std@@@std@@QBEIXZ
_TEXT	SEGMENT
?max_size@?$vector@UXMASMONSTER_DATA@@V?$allocator@UXMASMONSTER_DATA@@@std@@@std@@QBEIXZ PROC ; std::vector<XMASMONSTER_DATA,std::allocator<XMASMONSTER_DATA> >::max_size, COMDAT
; _this$ = ecx

; 884  : 		return (this->_Alval.max_size());

  00000	b8 55 55 55 15	 mov	 eax, 357913941		; 15555555H

; 885  : 		}

  00005	c3		 ret	 0
?max_size@?$vector@UXMASMONSTER_DATA@@V?$allocator@UXMASMONSTER_DATA@@@std@@@std@@QBEIXZ ENDP ; std::vector<XMASMONSTER_DATA,std::allocator<XMASMONSTER_DATA> >::max_size
_TEXT	ENDS
PUBLIC	?_Grow_to@?$vector@UXMASMONSTER_DATA@@V?$allocator@UXMASMONSTER_DATA@@@std@@@std@@IBEII@Z ; std::vector<XMASMONSTER_DATA,std::allocator<XMASMONSTER_DATA> >::_Grow_to
; Function compile flags: /Ogtp
;	COMDAT ?_Grow_to@?$vector@UXMASMONSTER_DATA@@V?$allocator@UXMASMONSTER_DATA@@@std@@@std@@IBEII@Z
_TEXT	SEGMENT
__Count$ = 8						; size = 4
?_Grow_to@?$vector@UXMASMONSTER_DATA@@V?$allocator@UXMASMONSTER_DATA@@@std@@@std@@IBEII@Z PROC ; std::vector<XMASMONSTER_DATA,std::allocator<XMASMONSTER_DATA> >::_Grow_to, COMDAT
; _this$ = ecx

; 1274 : 		{	// grow by 50% or at least to _Count

  00000	55		 push	 ebp
  00001	8b ec		 mov	 ebp, esp

; 1275 : 		size_type _Capacity = capacity();

  00003	8b 51 08	 mov	 edx, DWORD PTR [ecx+8]
  00006	2b 11		 sub	 edx, DWORD PTR [ecx]
  00008	b8 ab aa aa 2a	 mov	 eax, 715827883		; 2aaaaaabH
  0000d	f7 ea		 imul	 edx
  0000f	d1 fa		 sar	 edx, 1
  00011	8b c2		 mov	 eax, edx
  00013	c1 e8 1f	 shr	 eax, 31			; 0000001fH
  00016	03 c2		 add	 eax, edx

; 1276 : 
; 1277 : 		_Capacity = max_size() - _Capacity / 2 < _Capacity
; 1278 : 			? 0 : _Capacity + _Capacity / 2;	// try to grow by 50%

  00018	8b c8		 mov	 ecx, eax
  0001a	d1 e9		 shr	 ecx, 1
  0001c	ba 55 55 55 15	 mov	 edx, 357913941		; 15555555H
  00021	2b d1		 sub	 edx, ecx
  00023	3b d0		 cmp	 edx, eax
  00025	73 04		 jae	 SHORT $LN4@Grow_to@2
  00027	33 c0		 xor	 eax, eax
  00029	eb 02		 jmp	 SHORT $LN5@Grow_to@2
$LN4@Grow_to@2:
  0002b	03 c1		 add	 eax, ecx
$LN5@Grow_to@2:

; 1279 : 		if (_Capacity < _Count)

  0002d	8b 4d 08	 mov	 ecx, DWORD PTR __Count$[ebp]
  00030	3b c1		 cmp	 eax, ecx
  00032	73 02		 jae	 SHORT $LN1@Grow_to@2

; 1280 : 			_Capacity = _Count;
; 1281 : 		return (_Capacity);

  00034	8b c1		 mov	 eax, ecx
$LN1@Grow_to@2:

; 1282 : 		}

  00036	5d		 pop	 ebp
  00037	c2 04 00	 ret	 4
?_Grow_to@?$vector@UXMASMONSTER_DATA@@V?$allocator@UXMASMONSTER_DATA@@@std@@@std@@IBEII@Z ENDP ; std::vector<XMASMONSTER_DATA,std::allocator<XMASMONSTER_DATA> >::_Grow_to
_TEXT	ENDS
PUBLIC	?max_size@?$vector@PAVCXMasMonsterHerd@@V?$allocator@PAVCXMasMonsterHerd@@@std@@@std@@QBEIXZ ; std::vector<CXMasMonsterHerd *,std::allocator<CXMasMonsterHerd *> >::max_size
; Function compile flags: /Ogtp
;	COMDAT ?max_size@?$vector@PAVCXMasMonsterHerd@@V?$allocator@PAVCXMasMonsterHerd@@@std@@@std@@QBEIXZ
_TEXT	SEGMENT
?max_size@?$vector@PAVCXMasMonsterHerd@@V?$allocator@PAVCXMasMonsterHerd@@@std@@@std@@QBEIXZ PROC ; std::vector<CXMasMonsterHerd *,std::allocator<CXMasMonsterHerd *> >::max_size, COMDAT
; _this$ = ecx

; 884  : 		return (this->_Alval.max_size());

  00000	b8 ff ff ff 3f	 mov	 eax, 1073741823		; 3fffffffH

; 885  : 		}

  00005	c3		 ret	 0
?max_size@?$vector@PAVCXMasMonsterHerd@@V?$allocator@PAVCXMasMonsterHerd@@@std@@@std@@QBEIXZ ENDP ; std::vector<CXMasMonsterHerd *,std::allocator<CXMasMonsterHerd *> >::max_size
_TEXT	ENDS
PUBLIC	?_Grow_to@?$vector@PAVCXMasMonsterHerd@@V?$allocator@PAVCXMasMonsterHerd@@@std@@@std@@IBEII@Z ; std::vector<CXMasMonsterHerd *,std::allocator<CXMasMonsterHerd *> >::_Grow_to
; Function compile flags: /Ogtp
;	COMDAT ?_Grow_to@?$vector@PAVCXMasMonsterHerd@@V?$allocator@PAVCXMasMonsterHerd@@@std@@@std@@IBEII@Z
_TEXT	SEGMENT
__Count$ = 8						; size = 4
?_Grow_to@?$vector@PAVCXMasMonsterHerd@@V?$allocator@PAVCXMasMonsterHerd@@@std@@@std@@IBEII@Z PROC ; std::vector<CXMasMonsterHerd *,std::allocator<CXMasMonsterHerd *> >::_Grow_to, COMDAT
; _this$ = ecx

; 1274 : 		{	// grow by 50% or at least to _Count

  00000	55		 push	 ebp
  00001	8b ec		 mov	 ebp, esp

; 1275 : 		size_type _Capacity = capacity();

  00003	8b 41 08	 mov	 eax, DWORD PTR [ecx+8]
  00006	2b 01		 sub	 eax, DWORD PTR [ecx]

; 1276 : 
; 1277 : 		_Capacity = max_size() - _Capacity / 2 < _Capacity
; 1278 : 			? 0 : _Capacity + _Capacity / 2;	// try to grow by 50%

  00008	ba ff ff ff 3f	 mov	 edx, 1073741823		; 3fffffffH
  0000d	c1 f8 02	 sar	 eax, 2
  00010	8b c8		 mov	 ecx, eax
  00012	d1 e9		 shr	 ecx, 1
  00014	2b d1		 sub	 edx, ecx
  00016	3b d0		 cmp	 edx, eax
  00018	73 04		 jae	 SHORT $LN4@Grow_to@3
  0001a	33 c0		 xor	 eax, eax
  0001c	eb 02		 jmp	 SHORT $LN5@Grow_to@3
$LN4@Grow_to@3:
  0001e	03 c1		 add	 eax, ecx
$LN5@Grow_to@3:

; 1279 : 		if (_Capacity < _Count)

  00020	8b 4d 08	 mov	 ecx, DWORD PTR __Count$[ebp]
  00023	3b c1		 cmp	 eax, ecx
  00025	73 02		 jae	 SHORT $LN1@Grow_to@3

; 1280 : 			_Capacity = _Count;
; 1281 : 		return (_Capacity);

  00027	8b c1		 mov	 eax, ecx
$LN1@Grow_to@3:

; 1282 : 		}

  00029	5d		 pop	 ebp
  0002a	c2 04 00	 ret	 4
?_Grow_to@?$vector@PAVCXMasMonsterHerd@@V?$allocator@PAVCXMasMonsterHerd@@@std@@@std@@IBEII@Z ENDP ; std::vector<CXMasMonsterHerd *,std::allocator<CXMasMonsterHerd *> >::_Grow_to
_TEXT	ENDS
PUBLIC	?max_size@?$vector@UXMASMONSTER_MAP_INFO@@V?$allocator@UXMASMONSTER_MAP_INFO@@@std@@@std@@QBEIXZ ; std::vector<XMASMONSTER_MAP_INFO,std::allocator<XMASMONSTER_MAP_INFO> >::max_size
; Function compile flags: /Ogtp
;	COMDAT ?max_size@?$vector@UXMASMONSTER_MAP_INFO@@V?$allocator@UXMASMONSTER_MAP_INFO@@@std@@@std@@QBEIXZ
_TEXT	SEGMENT
?max_size@?$vector@UXMASMONSTER_MAP_INFO@@V?$allocator@UXMASMONSTER_MAP_INFO@@@std@@@std@@QBEIXZ PROC ; std::vector<XMASMONSTER_MAP_INFO,std::allocator<XMASMONSTER_MAP_INFO> >::max_size, COMDAT
; _this$ = ecx

; 884  : 		return (this->_Alval.max_size());

  00000	b8 cc cc cc 0c	 mov	 eax, 214748364		; 0cccccccH

; 885  : 		}

  00005	c3		 ret	 0
?max_size@?$vector@UXMASMONSTER_MAP_INFO@@V?$allocator@UXMASMONSTER_MAP_INFO@@@std@@@std@@QBEIXZ ENDP ; std::vector<XMASMONSTER_MAP_INFO,std::allocator<XMASMONSTER_MAP_INFO> >::max_size
_TEXT	ENDS
PUBLIC	?_Grow_to@?$vector@UXMASMONSTER_MAP_INFO@@V?$allocator@UXMASMONSTER_MAP_INFO@@@std@@@std@@IBEII@Z ; std::vector<XMASMONSTER_MAP_INFO,std::allocator<XMASMONSTER_MAP_INFO> >::_Grow_to
; Function compile flags: /Ogtp
;	COMDAT ?_Grow_to@?$vector@UXMASMONSTER_MAP_INFO@@V?$allocator@UXMASMONSTER_MAP_INFO@@@std@@@std@@IBEII@Z
_TEXT	SEGMENT
__Count$ = 8						; size = 4
?_Grow_to@?$vector@UXMASMONSTER_MAP_INFO@@V?$allocator@UXMASMONSTER_MAP_INFO@@@std@@@std@@IBEII@Z PROC ; std::vector<XMASMONSTER_MAP_INFO,std::allocator<XMASMONSTER_MAP_INFO> >::_Grow_to, COMDAT
; _this$ = ecx

; 1274 : 		{	// grow by 50% or at least to _Count

  00000	55		 push	 ebp
  00001	8b ec		 mov	 ebp, esp

; 1275 : 		size_type _Capacity = capacity();

  00003	8b 51 08	 mov	 edx, DWORD PTR [ecx+8]
  00006	2b 11		 sub	 edx, DWORD PTR [ecx]
  00008	b8 67 66 66 66	 mov	 eax, 1717986919		; 66666667H
  0000d	f7 ea		 imul	 edx
  0000f	c1 fa 03	 sar	 edx, 3
  00012	8b c2		 mov	 eax, edx
  00014	c1 e8 1f	 shr	 eax, 31			; 0000001fH
  00017	03 c2		 add	 eax, edx

; 1276 : 
; 1277 : 		_Capacity = max_size() - _Capacity / 2 < _Capacity
; 1278 : 			? 0 : _Capacity + _Capacity / 2;	// try to grow by 50%

  00019	8b c8		 mov	 ecx, eax
  0001b	d1 e9		 shr	 ecx, 1
  0001d	ba cc cc cc 0c	 mov	 edx, 214748364		; 0cccccccH
  00022	2b d1		 sub	 edx, ecx
  00024	3b d0		 cmp	 edx, eax
  00026	73 04		 jae	 SHORT $LN4@Grow_to@4
  00028	33 c0		 xor	 eax, eax
  0002a	eb 02		 jmp	 SHORT $LN5@Grow_to@4
$LN4@Grow_to@4:
  0002c	03 c1		 add	 eax, ecx
$LN5@Grow_to@4:

; 1279 : 		if (_Capacity < _Count)

  0002e	8b 4d 08	 mov	 ecx, DWORD PTR __Count$[ebp]
  00031	3b c1		 cmp	 eax, ecx
  00033	73 02		 jae	 SHORT $LN1@Grow_to@4

; 1280 : 			_Capacity = _Count;
; 1281 : 		return (_Capacity);

  00035	8b c1		 mov	 eax, ecx
$LN1@Grow_to@4:

; 1282 : 		}

  00037	5d		 pop	 ebp
  00038	c2 04 00	 ret	 4
?_Grow_to@?$vector@UXMASMONSTER_MAP_INFO@@V?$allocator@UXMASMONSTER_MAP_INFO@@@std@@@std@@IBEII@Z ENDP ; std::vector<XMASMONSTER_MAP_INFO,std::allocator<XMASMONSTER_MAP_INFO> >::_Grow_to
_TEXT	ENDS
PUBLIC	??0?$_Vector_const_iterator@V?$_Vector_val@PAVCXMasMonsterHerd@@V?$allocator@PAVCXMasMonsterHerd@@@std@@@std@@@std@@QAE@PAPAVCXMasMonsterHerd@@PBU_Container_base0@1@@Z ; std::_Vector_const_iterator<std::_Vector_val<CXMasMonsterHerd *,std::allocator<CXMasMonsterHerd *> > >::_Vector_const_iterator<std::_Vector_val<CXMasMonsterHerd *,std::allocator<CXMasMonsterHerd *> > >
; Function compile flags: /Ogtp
;	COMDAT ??0?$_Vector_const_iterator@V?$_Vector_val@PAVCXMasMonsterHerd@@V?$allocator@PAVCXMasMonsterHerd@@@std@@@std@@@std@@QAE@PAPAVCXMasMonsterHerd@@PBU_Container_base0@1@@Z
_TEXT	SEGMENT
__Parg$ = 8						; size = 4
__Pvector$ = 12						; size = 4
??0?$_Vector_const_iterator@V?$_Vector_val@PAVCXMasMonsterHerd@@V?$allocator@PAVCXMasMonsterHerd@@@std@@@std@@@std@@QAE@PAPAVCXMasMonsterHerd@@PBU_Container_base0@1@@Z PROC ; std::_Vector_const_iterator<std::_Vector_val<CXMasMonsterHerd *,std::allocator<CXMasMonsterHerd *> > >::_Vector_const_iterator<std::_Vector_val<CXMasMonsterHerd *,std::allocator<CXMasMonsterHerd *> > >, COMDAT
; _this$ = ecx

; 45   : 		{	// construct with pointer _Parg

  00000	55		 push	 ebp
  00001	8b ec		 mov	 ebp, esp
  00003	8b c1		 mov	 eax, ecx
  00005	8b 4d 08	 mov	 ecx, DWORD PTR __Parg$[ebp]
  00008	89 08		 mov	 DWORD PTR [eax], ecx

; 46   : 		this->_Adopt(_Pvector);
; 47   : 		}

  0000a	5d		 pop	 ebp
  0000b	c2 08 00	 ret	 8
??0?$_Vector_const_iterator@V?$_Vector_val@PAVCXMasMonsterHerd@@V?$allocator@PAVCXMasMonsterHerd@@@std@@@std@@@std@@QAE@PAPAVCXMasMonsterHerd@@PBU_Container_base0@1@@Z ENDP ; std::_Vector_const_iterator<std::_Vector_val<CXMasMonsterHerd *,std::allocator<CXMasMonsterHerd *> > >::_Vector_const_iterator<std::_Vector_val<CXMasMonsterHerd *,std::allocator<CXMasMonsterHerd *> > >
_TEXT	ENDS
PUBLIC	??0?$_Vector_const_iterator@V?$_Vector_val@UXMASMONSTER_MAP_INFO@@V?$allocator@UXMASMONSTER_MAP_INFO@@@std@@@std@@@std@@QAE@PAUXMASMONSTER_MAP_INFO@@PBU_Container_base0@1@@Z ; std::_Vector_const_iterator<std::_Vector_val<XMASMONSTER_MAP_INFO,std::allocator<XMASMONSTER_MAP_INFO> > >::_Vector_const_iterator<std::_Vector_val<XMASMONSTER_MAP_INFO,std::allocator<XMASMONSTER_MAP_INFO> > >
; Function compile flags: /Ogtp
;	COMDAT ??0?$_Vector_const_iterator@V?$_Vector_val@UXMASMONSTER_MAP_INFO@@V?$allocator@UXMASMONSTER_MAP_INFO@@@std@@@std@@@std@@QAE@PAUXMASMONSTER_MAP_INFO@@PBU_Container_base0@1@@Z
_TEXT	SEGMENT
__Parg$ = 8						; size = 4
__Pvector$ = 12						; size = 4
??0?$_Vector_const_iterator@V?$_Vector_val@UXMASMONSTER_MAP_INFO@@V?$allocator@UXMASMONSTER_MAP_INFO@@@std@@@std@@@std@@QAE@PAUXMASMONSTER_MAP_INFO@@PBU_Container_base0@1@@Z PROC ; std::_Vector_const_iterator<std::_Vector_val<XMASMONSTER_MAP_INFO,std::allocator<XMASMONSTER_MAP_INFO> > >::_Vector_const_iterator<std::_Vector_val<XMASMONSTER_MAP_INFO,std::allocator<XMASMONSTER_MAP_INFO> > >, COMDAT
; _this$ = ecx

; 45   : 		{	// construct with pointer _Parg

  00000	55		 push	 ebp
  00001	8b ec		 mov	 ebp, esp
  00003	8b c1		 mov	 eax, ecx
  00005	8b 4d 08	 mov	 ecx, DWORD PTR __Parg$[ebp]
  00008	89 08		 mov	 DWORD PTR [eax], ecx

; 46   : 		this->_Adopt(_Pvector);
; 47   : 		}

  0000a	5d		 pop	 ebp
  0000b	c2 08 00	 ret	 8
??0?$_Vector_const_iterator@V?$_Vector_val@UXMASMONSTER_MAP_INFO@@V?$allocator@UXMASMONSTER_MAP_INFO@@@std@@@std@@@std@@QAE@PAUXMASMONSTER_MAP_INFO@@PBU_Container_base0@1@@Z ENDP ; std::_Vector_const_iterator<std::_Vector_val<XMASMONSTER_MAP_INFO,std::allocator<XMASMONSTER_MAP_INFO> > >::_Vector_const_iterator<std::_Vector_val<XMASMONSTER_MAP_INFO,std::allocator<XMASMONSTER_MAP_INFO> > >
_TEXT	ENDS
PUBLIC	??0?$_Vector_const_iterator@V?$_Vector_val@UXMASMONSTER_DATA@@V?$allocator@UXMASMONSTER_DATA@@@std@@@std@@@std@@QAE@PAUXMASMONSTER_DATA@@PBU_Container_base0@1@@Z ; std::_Vector_const_iterator<std::_Vector_val<XMASMONSTER_DATA,std::allocator<XMASMONSTER_DATA> > >::_Vector_const_iterator<std::_Vector_val<XMASMONSTER_DATA,std::allocator<XMASMONSTER_DATA> > >
; Function compile flags: /Ogtp
;	COMDAT ??0?$_Vector_const_iterator@V?$_Vector_val@UXMASMONSTER_DATA@@V?$allocator@UXMASMONSTER_DATA@@@std@@@std@@@std@@QAE@PAUXMASMONSTER_DATA@@PBU_Container_base0@1@@Z
_TEXT	SEGMENT
__Parg$ = 8						; size = 4
__Pvector$ = 12						; size = 4
??0?$_Vector_const_iterator@V?$_Vector_val@UXMASMONSTER_DATA@@V?$allocator@UXMASMONSTER_DATA@@@std@@@std@@@std@@QAE@PAUXMASMONSTER_DATA@@PBU_Container_base0@1@@Z PROC ; std::_Vector_const_iterator<std::_Vector_val<XMASMONSTER_DATA,std::allocator<XMASMONSTER_DATA> > >::_Vector_const_iterator<std::_Vector_val<XMASMONSTER_DATA,std::allocator<XMASMONSTER_DATA> > >, COMDAT
; _this$ = ecx

; 45   : 		{	// construct with pointer _Parg

  00000	55		 push	 ebp
  00001	8b ec		 mov	 ebp, esp
  00003	8b c1		 mov	 eax, ecx
  00005	8b 4d 08	 mov	 ecx, DWORD PTR __Parg$[ebp]
  00008	89 08		 mov	 DWORD PTR [eax], ecx

; 46   : 		this->_Adopt(_Pvector);
; 47   : 		}

  0000a	5d		 pop	 ebp
  0000b	c2 08 00	 ret	 8
??0?$_Vector_const_iterator@V?$_Vector_val@UXMASMONSTER_DATA@@V?$allocator@UXMASMONSTER_DATA@@@std@@@std@@@std@@QAE@PAUXMASMONSTER_DATA@@PBU_Container_base0@1@@Z ENDP ; std::_Vector_const_iterator<std::_Vector_val<XMASMONSTER_DATA,std::allocator<XMASMONSTER_DATA> > >::_Vector_const_iterator<std::_Vector_val<XMASMONSTER_DATA,std::allocator<XMASMONSTER_DATA> > >
_TEXT	ENDS
PUBLIC	??0?$_Vector_const_iterator@V?$_Vector_val@UXMASMONSTER_EVENT_TIME@@V?$allocator@UXMASMONSTER_EVENT_TIME@@@std@@@std@@@std@@QAE@PAUXMASMONSTER_EVENT_TIME@@PBU_Container_base0@1@@Z ; std::_Vector_const_iterator<std::_Vector_val<XMASMONSTER_EVENT_TIME,std::allocator<XMASMONSTER_EVENT_TIME> > >::_Vector_const_iterator<std::_Vector_val<XMASMONSTER_EVENT_TIME,std::allocator<XMASMONSTER_EVENT_TIME> > >
; Function compile flags: /Ogtp
;	COMDAT ??0?$_Vector_const_iterator@V?$_Vector_val@UXMASMONSTER_EVENT_TIME@@V?$allocator@UXMASMONSTER_EVENT_TIME@@@std@@@std@@@std@@QAE@PAUXMASMONSTER_EVENT_TIME@@PBU_Container_base0@1@@Z
_TEXT	SEGMENT
__Parg$ = 8						; size = 4
__Pvector$ = 12						; size = 4
??0?$_Vector_const_iterator@V?$_Vector_val@UXMASMONSTER_EVENT_TIME@@V?$allocator@UXMASMONSTER_EVENT_TIME@@@std@@@std@@@std@@QAE@PAUXMASMONSTER_EVENT_TIME@@PBU_Container_base0@1@@Z PROC ; std::_Vector_const_iterator<std::_Vector_val<XMASMONSTER_EVENT_TIME,std::allocator<XMASMONSTER_EVENT_TIME> > >::_Vector_const_iterator<std::_Vector_val<XMASMONSTER_EVENT_TIME,std::allocator<XMASMONSTER_EVENT_TIME> > >, COMDAT
; _this$ = ecx

; 45   : 		{	// construct with pointer _Parg

  00000	55		 push	 ebp
  00001	8b ec		 mov	 ebp, esp
  00003	8b c1		 mov	 eax, ecx
  00005	8b 4d 08	 mov	 ecx, DWORD PTR __Parg$[ebp]
  00008	89 08		 mov	 DWORD PTR [eax], ecx

; 46   : 		this->_Adopt(_Pvector);
; 47   : 		}

  0000a	5d		 pop	 ebp
  0000b	c2 08 00	 ret	 8
??0?$_Vector_const_iterator@V?$_Vector_val@UXMASMONSTER_EVENT_TIME@@V?$allocator@UXMASMONSTER_EVENT_TIME@@@std@@@std@@@std@@QAE@PAUXMASMONSTER_EVENT_TIME@@PBU_Container_base0@1@@Z ENDP ; std::_Vector_const_iterator<std::_Vector_val<XMASMONSTER_EVENT_TIME,std::allocator<XMASMONSTER_EVENT_TIME> > >::_Vector_const_iterator<std::_Vector_val<XMASMONSTER_EVENT_TIME,std::allocator<XMASMONSTER_EVENT_TIME> > >
_TEXT	ENDS
PUBLIC	??$_Cons_val@V?$allocator@UXMASMONSTER_EVENT_TIME@@@std@@UXMASMONSTER_EVENT_TIME@@AAU3@@std@@YAXAAV?$allocator@UXMASMONSTER_EVENT_TIME@@@0@PAUXMASMONSTER_EVENT_TIME@@AAU2@@Z ; std::_Cons_val<std::allocator<XMASMONSTER_EVENT_TIME>,XMASMONSTER_EVENT_TIME,XMASMONSTER_EVENT_TIME &>
; Function compile flags: /Ogtp
; File d:\program files (x86)\microsoft visual studio 10.0\vc\include\xmemory
;	COMDAT ??$_Cons_val@V?$allocator@UXMASMONSTER_EVENT_TIME@@@std@@UXMASMONSTER_EVENT_TIME@@AAU3@@std@@YAXAAV?$allocator@UXMASMONSTER_EVENT_TIME@@@0@PAUXMASMONSTER_EVENT_TIME@@AAU2@@Z
_TEXT	SEGMENT
__Alval$ = 8						; size = 4
__Pdest$ = 12						; size = 4
__Src$ = 16						; size = 4
??$_Cons_val@V?$allocator@UXMASMONSTER_EVENT_TIME@@@std@@UXMASMONSTER_EVENT_TIME@@AAU3@@std@@YAXAAV?$allocator@UXMASMONSTER_EVENT_TIME@@@0@PAUXMASMONSTER_EVENT_TIME@@AAU2@@Z PROC ; std::_Cons_val<std::allocator<XMASMONSTER_EVENT_TIME>,XMASMONSTER_EVENT_TIME,XMASMONSTER_EVENT_TIME &>, COMDAT

; 279  : 	{	// construct using allocator

  00000	55		 push	 ebp
  00001	8b ec		 mov	 ebp, esp

; 280  : 	_Alval.construct(_Pdest, _STD forward<_Ty2>(_Src));

  00003	8b 45 0c	 mov	 eax, DWORD PTR __Pdest$[ebp]
  00006	85 c0		 test	 eax, eax
  00008	74 0d		 je	 SHORT $LN7@Cons_val
  0000a	8b 4d 10	 mov	 ecx, DWORD PTR __Src$[ebp]
  0000d	8b 11		 mov	 edx, DWORD PTR [ecx]
  0000f	89 10		 mov	 DWORD PTR [eax], edx
  00011	8b 49 04	 mov	 ecx, DWORD PTR [ecx+4]
  00014	89 48 04	 mov	 DWORD PTR [eax+4], ecx
$LN7@Cons_val:

; 281  : 	}

  00017	5d		 pop	 ebp
  00018	c3		 ret	 0
??$_Cons_val@V?$allocator@UXMASMONSTER_EVENT_TIME@@@std@@UXMASMONSTER_EVENT_TIME@@AAU3@@std@@YAXAAV?$allocator@UXMASMONSTER_EVENT_TIME@@@0@PAUXMASMONSTER_EVENT_TIME@@AAU2@@Z ENDP ; std::_Cons_val<std::allocator<XMASMONSTER_EVENT_TIME>,XMASMONSTER_EVENT_TIME,XMASMONSTER_EVENT_TIME &>
_TEXT	ENDS
PUBLIC	??$_Cons_val@V?$allocator@UXMASMONSTER_DATA@@@std@@UXMASMONSTER_DATA@@AAU3@@std@@YAXAAV?$allocator@UXMASMONSTER_DATA@@@0@PAUXMASMONSTER_DATA@@AAU2@@Z ; std::_Cons_val<std::allocator<XMASMONSTER_DATA>,XMASMONSTER_DATA,XMASMONSTER_DATA &>
; Function compile flags: /Ogtp
;	COMDAT ??$_Cons_val@V?$allocator@UXMASMONSTER_DATA@@@std@@UXMASMONSTER_DATA@@AAU3@@std@@YAXAAV?$allocator@UXMASMONSTER_DATA@@@0@PAUXMASMONSTER_DATA@@AAU2@@Z
_TEXT	SEGMENT
__Alval$ = 8						; size = 4
__Pdest$ = 12						; size = 4
__Src$ = 16						; size = 4
??$_Cons_val@V?$allocator@UXMASMONSTER_DATA@@@std@@UXMASMONSTER_DATA@@AAU3@@std@@YAXAAV?$allocator@UXMASMONSTER_DATA@@@0@PAUXMASMONSTER_DATA@@AAU2@@Z PROC ; std::_Cons_val<std::allocator<XMASMONSTER_DATA>,XMASMONSTER_DATA,XMASMONSTER_DATA &>, COMDAT

; 279  : 	{	// construct using allocator

  00000	55		 push	 ebp
  00001	8b ec		 mov	 ebp, esp

; 280  : 	_Alval.construct(_Pdest, _STD forward<_Ty2>(_Src));

  00003	8b 45 0c	 mov	 eax, DWORD PTR __Pdest$[ebp]
  00006	85 c0		 test	 eax, eax
  00008	74 13		 je	 SHORT $LN7@Cons_val@2
  0000a	8b 4d 10	 mov	 ecx, DWORD PTR __Src$[ebp]
  0000d	8b 11		 mov	 edx, DWORD PTR [ecx]
  0000f	89 10		 mov	 DWORD PTR [eax], edx
  00011	8b 51 04	 mov	 edx, DWORD PTR [ecx+4]
  00014	89 50 04	 mov	 DWORD PTR [eax+4], edx
  00017	8b 49 08	 mov	 ecx, DWORD PTR [ecx+8]
  0001a	89 48 08	 mov	 DWORD PTR [eax+8], ecx
$LN7@Cons_val@2:

; 281  : 	}

  0001d	5d		 pop	 ebp
  0001e	c3		 ret	 0
??$_Cons_val@V?$allocator@UXMASMONSTER_DATA@@@std@@UXMASMONSTER_DATA@@AAU3@@std@@YAXAAV?$allocator@UXMASMONSTER_DATA@@@0@PAUXMASMONSTER_DATA@@AAU2@@Z ENDP ; std::_Cons_val<std::allocator<XMASMONSTER_DATA>,XMASMONSTER_DATA,XMASMONSTER_DATA &>
_TEXT	ENDS
PUBLIC	??$_Cons_val@V?$allocator@PAVCXMasMonsterHerd@@@std@@PAVCXMasMonsterHerd@@PAV3@@std@@YAXAAV?$allocator@PAVCXMasMonsterHerd@@@0@PAPAVCXMasMonsterHerd@@$$QAPAV2@@Z ; std::_Cons_val<std::allocator<CXMasMonsterHerd *>,CXMasMonsterHerd *,CXMasMonsterHerd *>
; Function compile flags: /Ogtp
;	COMDAT ??$_Cons_val@V?$allocator@PAVCXMasMonsterHerd@@@std@@PAVCXMasMonsterHerd@@PAV3@@std@@YAXAAV?$allocator@PAVCXMasMonsterHerd@@@0@PAPAVCXMasMonsterHerd@@$$QAPAV2@@Z
_TEXT	SEGMENT
__Alval$ = 8						; size = 4
__Pdest$ = 12						; size = 4
__Src$ = 16						; size = 4
??$_Cons_val@V?$allocator@PAVCXMasMonsterHerd@@@std@@PAVCXMasMonsterHerd@@PAV3@@std@@YAXAAV?$allocator@PAVCXMasMonsterHerd@@@0@PAPAVCXMasMonsterHerd@@$$QAPAV2@@Z PROC ; std::_Cons_val<std::allocator<CXMasMonsterHerd *>,CXMasMonsterHerd *,CXMasMonsterHerd *>, COMDAT

; 279  : 	{	// construct using allocator

  00000	55		 push	 ebp
  00001	8b ec		 mov	 ebp, esp

; 280  : 	_Alval.construct(_Pdest, _STD forward<_Ty2>(_Src));

  00003	8b 45 0c	 mov	 eax, DWORD PTR __Pdest$[ebp]
  00006	85 c0		 test	 eax, eax
  00008	74 07		 je	 SHORT $LN7@Cons_val@3
  0000a	8b 4d 10	 mov	 ecx, DWORD PTR __Src$[ebp]
  0000d	8b 11		 mov	 edx, DWORD PTR [ecx]
  0000f	89 10		 mov	 DWORD PTR [eax], edx
$LN7@Cons_val@3:

; 281  : 	}

  00011	5d		 pop	 ebp
  00012	c3		 ret	 0
??$_Cons_val@V?$allocator@PAVCXMasMonsterHerd@@@std@@PAVCXMasMonsterHerd@@PAV3@@std@@YAXAAV?$allocator@PAVCXMasMonsterHerd@@@0@PAPAVCXMasMonsterHerd@@$$QAPAV2@@Z ENDP ; std::_Cons_val<std::allocator<CXMasMonsterHerd *>,CXMasMonsterHerd *,CXMasMonsterHerd *>
_TEXT	ENDS
PUBLIC	??$_Move@PAPAVCXMasMonsterHerd@@PAPAV1@@std@@YAPAPAVCXMasMonsterHerd@@PAPAV1@00@Z ; std::_Move<CXMasMonsterHerd * *,CXMasMonsterHerd * *>
; Function compile flags: /Ogtp
; File d:\program files (x86)\microsoft visual studio 10.0\vc\include\xutility
;	COMDAT ??$_Move@PAPAVCXMasMonsterHerd@@PAPAV1@@std@@YAPAPAVCXMasMonsterHerd@@PAPAV1@00@Z
_TEXT	SEGMENT
__First$ = 8						; size = 4
__Last$ = 12						; size = 4
__Dest$ = 16						; size = 4
??$_Move@PAPAVCXMasMonsterHerd@@PAPAV1@@std@@YAPAPAVCXMasMonsterHerd@@PAPAV1@00@Z PROC ; std::_Move<CXMasMonsterHerd * *,CXMasMonsterHerd * *>, COMDAT

; 2533 : 	{	// move [_First, _Last) to [_Dest, ...), unchecked

  00000	55		 push	 ebp
  00001	8b ec		 mov	 ebp, esp

; 2534 : 	return (_Move(_First, _Last,
; 2535 : 		_Dest, _Ptr_cat(_First, _Dest)));

  00003	8b 4d 08	 mov	 ecx, DWORD PTR __First$[ebp]
  00006	8b 45 0c	 mov	 eax, DWORD PTR __Last$[ebp]
  00009	56		 push	 esi
  0000a	2b c1		 sub	 eax, ecx
  0000c	57		 push	 edi
  0000d	8b 7d 10	 mov	 edi, DWORD PTR __Dest$[ebp]
  00010	c1 f8 02	 sar	 eax, 2
  00013	8d 34 85 00 00
	00 00		 lea	 esi, DWORD PTR [eax*4]
  0001a	56		 push	 esi
  0001b	51		 push	 ecx
  0001c	57		 push	 edi
  0001d	e8 00 00 00 00	 call	 _memmove
  00022	83 c4 0c	 add	 esp, 12			; 0000000cH
  00025	8d 04 3e	 lea	 eax, DWORD PTR [esi+edi]
  00028	5f		 pop	 edi
  00029	5e		 pop	 esi

; 2536 : 	}

  0002a	5d		 pop	 ebp
  0002b	c3		 ret	 0
??$_Move@PAPAVCXMasMonsterHerd@@PAPAV1@@std@@YAPAPAVCXMasMonsterHerd@@PAPAV1@00@Z ENDP ; std::_Move<CXMasMonsterHerd * *,CXMasMonsterHerd * *>
_TEXT	ENDS
PUBLIC	??$_Cons_val@V?$allocator@UXMASMONSTER_MAP_INFO@@@std@@UXMASMONSTER_MAP_INFO@@AAU3@@std@@YAXAAV?$allocator@UXMASMONSTER_MAP_INFO@@@0@PAUXMASMONSTER_MAP_INFO@@AAU2@@Z ; std::_Cons_val<std::allocator<XMASMONSTER_MAP_INFO>,XMASMONSTER_MAP_INFO,XMASMONSTER_MAP_INFO &>
; Function compile flags: /Ogtp
; File d:\program files (x86)\microsoft visual studio 10.0\vc\include\xmemory
;	COMDAT ??$_Cons_val@V?$allocator@UXMASMONSTER_MAP_INFO@@@std@@UXMASMONSTER_MAP_INFO@@AAU3@@std@@YAXAAV?$allocator@UXMASMONSTER_MAP_INFO@@@0@PAUXMASMONSTER_MAP_INFO@@AAU2@@Z
_TEXT	SEGMENT
__Alval$ = 8						; size = 4
__Pdest$ = 12						; size = 4
__Src$ = 16						; size = 4
??$_Cons_val@V?$allocator@UXMASMONSTER_MAP_INFO@@@std@@UXMASMONSTER_MAP_INFO@@AAU3@@std@@YAXAAV?$allocator@UXMASMONSTER_MAP_INFO@@@0@PAUXMASMONSTER_MAP_INFO@@AAU2@@Z PROC ; std::_Cons_val<std::allocator<XMASMONSTER_MAP_INFO>,XMASMONSTER_MAP_INFO,XMASMONSTER_MAP_INFO &>, COMDAT

; 279  : 	{	// construct using allocator

  00000	55		 push	 ebp
  00001	8b ec		 mov	 ebp, esp

; 280  : 	_Alval.construct(_Pdest, _STD forward<_Ty2>(_Src));

  00003	8b 45 0c	 mov	 eax, DWORD PTR __Pdest$[ebp]
  00006	85 c0		 test	 eax, eax
  00008	74 1f		 je	 SHORT $LN7@Cons_val@4
  0000a	8b 4d 10	 mov	 ecx, DWORD PTR __Src$[ebp]
  0000d	8b 11		 mov	 edx, DWORD PTR [ecx]
  0000f	89 10		 mov	 DWORD PTR [eax], edx
  00011	8b 51 04	 mov	 edx, DWORD PTR [ecx+4]
  00014	89 50 04	 mov	 DWORD PTR [eax+4], edx
  00017	8b 51 08	 mov	 edx, DWORD PTR [ecx+8]
  0001a	89 50 08	 mov	 DWORD PTR [eax+8], edx
  0001d	8b 51 0c	 mov	 edx, DWORD PTR [ecx+12]
  00020	89 50 0c	 mov	 DWORD PTR [eax+12], edx
  00023	8b 49 10	 mov	 ecx, DWORD PTR [ecx+16]
  00026	89 48 10	 mov	 DWORD PTR [eax+16], ecx
$LN7@Cons_val@4:

; 281  : 	}

  00029	5d		 pop	 ebp
  0002a	c3		 ret	 0
??$_Cons_val@V?$allocator@UXMASMONSTER_MAP_INFO@@@std@@UXMASMONSTER_MAP_INFO@@AAU3@@std@@YAXAAV?$allocator@UXMASMONSTER_MAP_INFO@@@0@PAUXMASMONSTER_MAP_INFO@@AAU2@@Z ENDP ; std::_Cons_val<std::allocator<XMASMONSTER_MAP_INFO>,XMASMONSTER_MAP_INFO,XMASMONSTER_MAP_INFO &>
_TEXT	ENDS
PUBLIC	??$_Destroy_range@V?$allocator@PAVCXMasMonsterHerd@@@std@@@std@@YAXPAPAVCXMasMonsterHerd@@0AAV?$allocator@PAVCXMasMonsterHerd@@@0@@Z ; std::_Destroy_range<std::allocator<CXMasMonsterHerd *> >
; Function compile flags: /Ogtp
;	COMDAT ??$_Destroy_range@V?$allocator@PAVCXMasMonsterHerd@@@std@@@std@@YAXPAPAVCXMasMonsterHerd@@0AAV?$allocator@PAVCXMasMonsterHerd@@@0@@Z
_TEXT	SEGMENT
__First$ = 8						; size = 4
__Last$ = 12						; size = 4
__Al$ = 16						; size = 4
??$_Destroy_range@V?$allocator@PAVCXMasMonsterHerd@@@std@@@std@@YAXPAPAVCXMasMonsterHerd@@0AAV?$allocator@PAVCXMasMonsterHerd@@@0@@Z PROC ; std::_Destroy_range<std::allocator<CXMasMonsterHerd *> >, COMDAT

; 88   : 	_Destroy_range(_First, _Last, _Al, _Ptr_cat(_First, _Last));
; 89   : 	}

  00000	c3		 ret	 0
??$_Destroy_range@V?$allocator@PAVCXMasMonsterHerd@@@std@@@std@@YAXPAPAVCXMasMonsterHerd@@0AAV?$allocator@PAVCXMasMonsterHerd@@@0@@Z ENDP ; std::_Destroy_range<std::allocator<CXMasMonsterHerd *> >
_TEXT	ENDS
PUBLIC	__TI2?AVbad_alloc@std@@
PUBLIC	??$_Allocate@UXMASMONSTER_EVENT_TIME@@@std@@YAPAUXMASMONSTER_EVENT_TIME@@IPAU1@@Z ; std::_Allocate<XMASMONSTER_EVENT_TIME>
PUBLIC	__CTA2?AVbad_alloc@std@@
PUBLIC	__CT??_R0?AVbad_alloc@std@@@8??0bad_alloc@std@@QAE@ABV01@@Z12
PUBLIC	??0bad_alloc@std@@QAE@ABV01@@Z			; std::bad_alloc::bad_alloc
PUBLIC	__CT??_R0?AVexception@std@@@8??0exception@std@@QAE@ABV01@@Z12
EXTRN	??2@YAPAXI@Z:PROC				; operator new
EXTRN	__CxxThrowException@8:PROC
EXTRN	??0exception@std@@QAE@ABV01@@Z:PROC		; std::exception::exception
;	COMDAT __CT??_R0?AVexception@std@@@8??0exception@std@@QAE@ABV01@@Z12
; File d:\program files (x86)\microsoft visual studio 10.0\vc\include\exception
xdata$x	SEGMENT
__CT??_R0?AVexception@std@@@8??0exception@std@@QAE@ABV01@@Z12 DD 00H
	DD	FLAT:??_R0?AVexception@std@@@8
	DD	00H
	DD	0ffffffffH
	ORG $+4
	DD	0cH
	DD	FLAT:??0exception@std@@QAE@ABV01@@Z
xdata$x	ENDS
;	COMDAT __CT??_R0?AVbad_alloc@std@@@8??0bad_alloc@std@@QAE@ABV01@@Z12
xdata$x	SEGMENT
__CT??_R0?AVbad_alloc@std@@@8??0bad_alloc@std@@QAE@ABV01@@Z12 DD 00H
	DD	FLAT:??_R0?AVbad_alloc@std@@@8
	DD	00H
	DD	0ffffffffH
	ORG $+4
	DD	0cH
	DD	FLAT:??0bad_alloc@std@@QAE@ABV01@@Z
xdata$x	ENDS
;	COMDAT __CTA2?AVbad_alloc@std@@
xdata$x	SEGMENT
__CTA2?AVbad_alloc@std@@ DD 02H
	DD	FLAT:__CT??_R0?AVbad_alloc@std@@@8??0bad_alloc@std@@QAE@ABV01@@Z12
	DD	FLAT:__CT??_R0?AVexception@std@@@8??0exception@std@@QAE@ABV01@@Z12
xdata$x	ENDS
;	COMDAT __TI2?AVbad_alloc@std@@
xdata$x	SEGMENT
__TI2?AVbad_alloc@std@@ DD 00H
	DD	FLAT:??1bad_alloc@std@@UAE@XZ
	DD	00H
	DD	FLAT:__CTA2?AVbad_alloc@std@@
; Function compile flags: /Ogtp
; File d:\program files (x86)\microsoft visual studio 10.0\vc\include\xmemory
xdata$x	ENDS
;	COMDAT ??$_Allocate@UXMASMONSTER_EVENT_TIME@@@std@@YAPAUXMASMONSTER_EVENT_TIME@@IPAU1@@Z
_TEXT	SEGMENT
$T217663 = -12						; size = 12
$T217668 = 8						; size = 4
__Count$ = 8						; size = 4
___formal$ = 12						; size = 4
??$_Allocate@UXMASMONSTER_EVENT_TIME@@@std@@YAPAUXMASMONSTER_EVENT_TIME@@IPAU1@@Z PROC ; std::_Allocate<XMASMONSTER_EVENT_TIME>, COMDAT

; 30   : 	{	// allocate storage for _Count elements of type _Ty

  00000	55		 push	 ebp
  00001	8b ec		 mov	 ebp, esp

; 31   : 	void *_Ptr = 0;
; 32   : 
; 33   : 	if (_Count <= 0)

  00003	8b 4d 08	 mov	 ecx, DWORD PTR __Count$[ebp]
  00006	83 ec 0c	 sub	 esp, 12			; 0000000cH
  00009	33 c0		 xor	 eax, eax
  0000b	85 c9		 test	 ecx, ecx

; 34   : 		_Count = 0;
; 35   : 	else if (((_SIZT)(-1) / sizeof (_Ty) < _Count)

  0000d	74 44		 je	 SHORT $LN5@Allocate

; 36   : 		|| (_Ptr = ::operator new(_Count * sizeof (_Ty))) == 0)

  0000f	81 f9 ff ff ff
	1f		 cmp	 ecx, 536870911		; 1fffffffH
  00015	77 14		 ja	 SHORT $LN1@Allocate
  00017	8d 04 cd 00 00
	00 00		 lea	 eax, DWORD PTR [ecx*8]
  0001e	50		 push	 eax
  0001f	e8 00 00 00 00	 call	 ??2@YAPAXI@Z		; operator new
  00024	83 c4 04	 add	 esp, 4
  00027	85 c0		 test	 eax, eax

; 38   : 
; 39   : 	return ((_Ty _FARQ *)_Ptr);

  00029	75 28		 jne	 SHORT $LN5@Allocate
$LN1@Allocate:

; 37   : 		_THROW_NCEE(bad_alloc, 0);

  0002b	8d 4d 08	 lea	 ecx, DWORD PTR $T217668[ebp]
  0002e	51		 push	 ecx
  0002f	8d 4d f4	 lea	 ecx, DWORD PTR $T217663[ebp]
  00032	c7 45 08 00 00
	00 00		 mov	 DWORD PTR $T217668[ebp], 0
  00039	e8 00 00 00 00	 call	 ??0exception@std@@QAE@ABQBD@Z ; std::exception::exception
  0003e	68 00 00 00 00	 push	 OFFSET __TI2?AVbad_alloc@std@@
  00043	8d 55 f4	 lea	 edx, DWORD PTR $T217663[ebp]
  00046	52		 push	 edx
  00047	c7 45 f4 00 00
	00 00		 mov	 DWORD PTR $T217663[ebp], OFFSET ??_7bad_alloc@std@@6B@
  0004e	e8 00 00 00 00	 call	 __CxxThrowException@8
$LN10@Allocate:
$LN5@Allocate:

; 40   : 	}

  00053	8b e5		 mov	 esp, ebp
  00055	5d		 pop	 ebp
  00056	c3		 ret	 0
$LN9@Allocate:
??$_Allocate@UXMASMONSTER_EVENT_TIME@@@std@@YAPAUXMASMONSTER_EVENT_TIME@@IPAU1@@Z ENDP ; std::_Allocate<XMASMONSTER_EVENT_TIME>
; Function compile flags: /Ogtp
_TEXT	ENDS
;	COMDAT ??0bad_alloc@std@@QAE@ABV01@@Z
_TEXT	SEGMENT
___that$ = 8						; size = 4
??0bad_alloc@std@@QAE@ABV01@@Z PROC			; std::bad_alloc::bad_alloc, COMDAT
; _this$ = ecx
  00000	55		 push	 ebp
  00001	8b ec		 mov	 ebp, esp
  00003	8b 45 08	 mov	 eax, DWORD PTR ___that$[ebp]
  00006	56		 push	 esi
  00007	50		 push	 eax
  00008	8b f1		 mov	 esi, ecx
  0000a	e8 00 00 00 00	 call	 ??0exception@std@@QAE@ABV01@@Z ; std::exception::exception
  0000f	c7 06 00 00 00
	00		 mov	 DWORD PTR [esi], OFFSET ??_7bad_alloc@std@@6B@
  00015	8b c6		 mov	 eax, esi
  00017	5e		 pop	 esi
  00018	5d		 pop	 ebp
  00019	c2 04 00	 ret	 4
??0bad_alloc@std@@QAE@ABV01@@Z ENDP			; std::bad_alloc::bad_alloc
_TEXT	ENDS
PUBLIC	??$_Allocate@UXMASMONSTER_DATA@@@std@@YAPAUXMASMONSTER_DATA@@IPAU1@@Z ; std::_Allocate<XMASMONSTER_DATA>
; Function compile flags: /Ogtp
;	COMDAT ??$_Allocate@UXMASMONSTER_DATA@@@std@@YAPAUXMASMONSTER_DATA@@IPAU1@@Z
_TEXT	SEGMENT
$T217676 = -12						; size = 12
$T217680 = 8						; size = 4
__Count$ = 8						; size = 4
___formal$ = 12						; size = 4
??$_Allocate@UXMASMONSTER_DATA@@@std@@YAPAUXMASMONSTER_DATA@@IPAU1@@Z PROC ; std::_Allocate<XMASMONSTER_DATA>, COMDAT

; 30   : 	{	// allocate storage for _Count elements of type _Ty

  00000	55		 push	 ebp
  00001	8b ec		 mov	 ebp, esp

; 31   : 	void *_Ptr = 0;
; 32   : 
; 33   : 	if (_Count <= 0)

  00003	8b 4d 08	 mov	 ecx, DWORD PTR __Count$[ebp]
  00006	83 ec 0c	 sub	 esp, 12			; 0000000cH
  00009	33 c0		 xor	 eax, eax
  0000b	85 c9		 test	 ecx, ecx

; 34   : 		_Count = 0;
; 35   : 	else if (((_SIZT)(-1) / sizeof (_Ty) < _Count)

  0000d	74 44		 je	 SHORT $LN5@Allocate@2

; 36   : 		|| (_Ptr = ::operator new(_Count * sizeof (_Ty))) == 0)

  0000f	81 f9 55 55 55
	15		 cmp	 ecx, 357913941		; 15555555H
  00015	77 14		 ja	 SHORT $LN1@Allocate@2
  00017	8d 04 49	 lea	 eax, DWORD PTR [ecx+ecx*2]
  0001a	03 c0		 add	 eax, eax
  0001c	03 c0		 add	 eax, eax
  0001e	50		 push	 eax
  0001f	e8 00 00 00 00	 call	 ??2@YAPAXI@Z		; operator new
  00024	83 c4 04	 add	 esp, 4
  00027	85 c0		 test	 eax, eax

; 38   : 
; 39   : 	return ((_Ty _FARQ *)_Ptr);

  00029	75 28		 jne	 SHORT $LN5@Allocate@2
$LN1@Allocate@2:

; 37   : 		_THROW_NCEE(bad_alloc, 0);

  0002b	8d 4d 08	 lea	 ecx, DWORD PTR $T217680[ebp]
  0002e	51		 push	 ecx
  0002f	8d 4d f4	 lea	 ecx, DWORD PTR $T217676[ebp]
  00032	c7 45 08 00 00
	00 00		 mov	 DWORD PTR $T217680[ebp], 0
  00039	e8 00 00 00 00	 call	 ??0exception@std@@QAE@ABQBD@Z ; std::exception::exception
  0003e	68 00 00 00 00	 push	 OFFSET __TI2?AVbad_alloc@std@@
  00043	8d 55 f4	 lea	 edx, DWORD PTR $T217676[ebp]
  00046	52		 push	 edx
  00047	c7 45 f4 00 00
	00 00		 mov	 DWORD PTR $T217676[ebp], OFFSET ??_7bad_alloc@std@@6B@
  0004e	e8 00 00 00 00	 call	 __CxxThrowException@8
$LN10@Allocate@2:
$LN5@Allocate@2:

; 40   : 	}

  00053	8b e5		 mov	 esp, ebp
  00055	5d		 pop	 ebp
  00056	c3		 ret	 0
$LN9@Allocate@2:
??$_Allocate@UXMASMONSTER_DATA@@@std@@YAPAUXMASMONSTER_DATA@@IPAU1@@Z ENDP ; std::_Allocate<XMASMONSTER_DATA>
_TEXT	ENDS
PUBLIC	??$_Allocate@PAVCXMasMonsterHerd@@@std@@YAPAPAVCXMasMonsterHerd@@IPAPAV1@@Z ; std::_Allocate<CXMasMonsterHerd *>
; Function compile flags: /Ogtp
;	COMDAT ??$_Allocate@PAVCXMasMonsterHerd@@@std@@YAPAPAVCXMasMonsterHerd@@IPAPAV1@@Z
_TEXT	SEGMENT
$T217685 = -12						; size = 12
$T217689 = 8						; size = 4
__Count$ = 8						; size = 4
___formal$ = 12						; size = 4
??$_Allocate@PAVCXMasMonsterHerd@@@std@@YAPAPAVCXMasMonsterHerd@@IPAPAV1@@Z PROC ; std::_Allocate<CXMasMonsterHerd *>, COMDAT

; 30   : 	{	// allocate storage for _Count elements of type _Ty

  00000	55		 push	 ebp
  00001	8b ec		 mov	 ebp, esp

; 31   : 	void *_Ptr = 0;
; 32   : 
; 33   : 	if (_Count <= 0)

  00003	8b 4d 08	 mov	 ecx, DWORD PTR __Count$[ebp]
  00006	83 ec 0c	 sub	 esp, 12			; 0000000cH
  00009	33 c0		 xor	 eax, eax
  0000b	85 c9		 test	 ecx, ecx

; 34   : 		_Count = 0;
; 35   : 	else if (((_SIZT)(-1) / sizeof (_Ty) < _Count)

  0000d	74 44		 je	 SHORT $LN5@Allocate@3

; 36   : 		|| (_Ptr = ::operator new(_Count * sizeof (_Ty))) == 0)

  0000f	81 f9 ff ff ff
	3f		 cmp	 ecx, 1073741823		; 3fffffffH
  00015	77 14		 ja	 SHORT $LN1@Allocate@3
  00017	8d 04 8d 00 00
	00 00		 lea	 eax, DWORD PTR [ecx*4]
  0001e	50		 push	 eax
  0001f	e8 00 00 00 00	 call	 ??2@YAPAXI@Z		; operator new
  00024	83 c4 04	 add	 esp, 4
  00027	85 c0		 test	 eax, eax

; 38   : 
; 39   : 	return ((_Ty _FARQ *)_Ptr);

  00029	75 28		 jne	 SHORT $LN5@Allocate@3
$LN1@Allocate@3:

; 37   : 		_THROW_NCEE(bad_alloc, 0);

  0002b	8d 4d 08	 lea	 ecx, DWORD PTR $T217689[ebp]
  0002e	51		 push	 ecx
  0002f	8d 4d f4	 lea	 ecx, DWORD PTR $T217685[ebp]
  00032	c7 45 08 00 00
	00 00		 mov	 DWORD PTR $T217689[ebp], 0
  00039	e8 00 00 00 00	 call	 ??0exception@std@@QAE@ABQBD@Z ; std::exception::exception
  0003e	68 00 00 00 00	 push	 OFFSET __TI2?AVbad_alloc@std@@
  00043	8d 55 f4	 lea	 edx, DWORD PTR $T217685[ebp]
  00046	52		 push	 edx
  00047	c7 45 f4 00 00
	00 00		 mov	 DWORD PTR $T217685[ebp], OFFSET ??_7bad_alloc@std@@6B@
  0004e	e8 00 00 00 00	 call	 __CxxThrowException@8
$LN10@Allocate@3:
$LN5@Allocate@3:

; 40   : 	}

  00053	8b e5		 mov	 esp, ebp
  00055	5d		 pop	 ebp
  00056	c3		 ret	 0
$LN9@Allocate@3:
??$_Allocate@PAVCXMasMonsterHerd@@@std@@YAPAPAVCXMasMonsterHerd@@IPAPAV1@@Z ENDP ; std::_Allocate<CXMasMonsterHerd *>
_TEXT	ENDS
PUBLIC	??$_Allocate@UXMASMONSTER_MAP_INFO@@@std@@YAPAUXMASMONSTER_MAP_INFO@@IPAU1@@Z ; std::_Allocate<XMASMONSTER_MAP_INFO>
; Function compile flags: /Ogtp
;	COMDAT ??$_Allocate@UXMASMONSTER_MAP_INFO@@@std@@YAPAUXMASMONSTER_MAP_INFO@@IPAU1@@Z
_TEXT	SEGMENT
$T217694 = -12						; size = 12
$T217698 = 8						; size = 4
__Count$ = 8						; size = 4
___formal$ = 12						; size = 4
??$_Allocate@UXMASMONSTER_MAP_INFO@@@std@@YAPAUXMASMONSTER_MAP_INFO@@IPAU1@@Z PROC ; std::_Allocate<XMASMONSTER_MAP_INFO>, COMDAT

; 30   : 	{	// allocate storage for _Count elements of type _Ty

  00000	55		 push	 ebp
  00001	8b ec		 mov	 ebp, esp

; 31   : 	void *_Ptr = 0;
; 32   : 
; 33   : 	if (_Count <= 0)

  00003	8b 4d 08	 mov	 ecx, DWORD PTR __Count$[ebp]
  00006	83 ec 0c	 sub	 esp, 12			; 0000000cH
  00009	33 c0		 xor	 eax, eax
  0000b	85 c9		 test	 ecx, ecx

; 34   : 		_Count = 0;
; 35   : 	else if (((_SIZT)(-1) / sizeof (_Ty) < _Count)

  0000d	74 44		 je	 SHORT $LN5@Allocate@4

; 36   : 		|| (_Ptr = ::operator new(_Count * sizeof (_Ty))) == 0)

  0000f	81 f9 cc cc cc
	0c		 cmp	 ecx, 214748364		; 0cccccccH
  00015	77 14		 ja	 SHORT $LN1@Allocate@4
  00017	8d 04 89	 lea	 eax, DWORD PTR [ecx+ecx*4]
  0001a	03 c0		 add	 eax, eax
  0001c	03 c0		 add	 eax, eax
  0001e	50		 push	 eax
  0001f	e8 00 00 00 00	 call	 ??2@YAPAXI@Z		; operator new
  00024	83 c4 04	 add	 esp, 4
  00027	85 c0		 test	 eax, eax

; 38   : 
; 39   : 	return ((_Ty _FARQ *)_Ptr);

  00029	75 28		 jne	 SHORT $LN5@Allocate@4
$LN1@Allocate@4:

; 37   : 		_THROW_NCEE(bad_alloc, 0);

  0002b	8d 4d 08	 lea	 ecx, DWORD PTR $T217698[ebp]
  0002e	51		 push	 ecx
  0002f	8d 4d f4	 lea	 ecx, DWORD PTR $T217694[ebp]
  00032	c7 45 08 00 00
	00 00		 mov	 DWORD PTR $T217698[ebp], 0
  00039	e8 00 00 00 00	 call	 ??0exception@std@@QAE@ABQBD@Z ; std::exception::exception
  0003e	68 00 00 00 00	 push	 OFFSET __TI2?AVbad_alloc@std@@
  00043	8d 55 f4	 lea	 edx, DWORD PTR $T217694[ebp]
  00046	52		 push	 edx
  00047	c7 45 f4 00 00
	00 00		 mov	 DWORD PTR $T217694[ebp], OFFSET ??_7bad_alloc@std@@6B@
  0004e	e8 00 00 00 00	 call	 __CxxThrowException@8
$LN10@Allocate@4:
$LN5@Allocate@4:

; 40   : 	}

  00053	8b e5		 mov	 esp, ebp
  00055	5d		 pop	 ebp
  00056	c3		 ret	 0
$LN9@Allocate@4:
??$_Allocate@UXMASMONSTER_MAP_INFO@@@std@@YAPAUXMASMONSTER_MAP_INFO@@IPAU1@@Z ENDP ; std::_Allocate<XMASMONSTER_MAP_INFO>
_TEXT	ENDS
PUBLIC	?construct@?$allocator@UXMASMONSTER_EVENT_TIME@@@std@@QAEXPAUXMASMONSTER_EVENT_TIME@@ABU3@@Z ; std::allocator<XMASMONSTER_EVENT_TIME>::construct
; Function compile flags: /Ogtp
;	COMDAT ?construct@?$allocator@UXMASMONSTER_EVENT_TIME@@@std@@QAEXPAUXMASMONSTER_EVENT_TIME@@ABU3@@Z
_TEXT	SEGMENT
__Ptr$ = 8						; size = 4
__Val$ = 12						; size = 4
?construct@?$allocator@UXMASMONSTER_EVENT_TIME@@@std@@QAEXPAUXMASMONSTER_EVENT_TIME@@ABU3@@Z PROC ; std::allocator<XMASMONSTER_EVENT_TIME>::construct, COMDAT
; _this$ = ecx

; 196  : 		{	// construct object at _Ptr with value _Val

  00000	55		 push	 ebp
  00001	8b ec		 mov	 ebp, esp

; 197  : 		_Construct(_Ptr, _Val);

  00003	8b 45 08	 mov	 eax, DWORD PTR __Ptr$[ebp]
  00006	85 c0		 test	 eax, eax
  00008	74 0d		 je	 SHORT $LN5@construct@5
  0000a	8b 4d 0c	 mov	 ecx, DWORD PTR __Val$[ebp]
  0000d	8b 11		 mov	 edx, DWORD PTR [ecx]
  0000f	89 10		 mov	 DWORD PTR [eax], edx
  00011	8b 49 04	 mov	 ecx, DWORD PTR [ecx+4]
  00014	89 48 04	 mov	 DWORD PTR [eax+4], ecx
$LN5@construct@5:

; 198  : 		}

  00017	5d		 pop	 ebp
  00018	c2 08 00	 ret	 8
?construct@?$allocator@UXMASMONSTER_EVENT_TIME@@@std@@QAEXPAUXMASMONSTER_EVENT_TIME@@ABU3@@Z ENDP ; std::allocator<XMASMONSTER_EVENT_TIME>::construct
_TEXT	ENDS
PUBLIC	?construct@?$allocator@UXMASMONSTER_DATA@@@std@@QAEXPAUXMASMONSTER_DATA@@ABU3@@Z ; std::allocator<XMASMONSTER_DATA>::construct
; Function compile flags: /Ogtp
;	COMDAT ?construct@?$allocator@UXMASMONSTER_DATA@@@std@@QAEXPAUXMASMONSTER_DATA@@ABU3@@Z
_TEXT	SEGMENT
__Ptr$ = 8						; size = 4
__Val$ = 12						; size = 4
?construct@?$allocator@UXMASMONSTER_DATA@@@std@@QAEXPAUXMASMONSTER_DATA@@ABU3@@Z PROC ; std::allocator<XMASMONSTER_DATA>::construct, COMDAT
; _this$ = ecx

; 196  : 		{	// construct object at _Ptr with value _Val

  00000	55		 push	 ebp
  00001	8b ec		 mov	 ebp, esp

; 197  : 		_Construct(_Ptr, _Val);

  00003	8b 45 08	 mov	 eax, DWORD PTR __Ptr$[ebp]
  00006	85 c0		 test	 eax, eax
  00008	74 13		 je	 SHORT $LN5@construct@6
  0000a	8b 4d 0c	 mov	 ecx, DWORD PTR __Val$[ebp]
  0000d	8b 11		 mov	 edx, DWORD PTR [ecx]
  0000f	89 10		 mov	 DWORD PTR [eax], edx
  00011	8b 51 04	 mov	 edx, DWORD PTR [ecx+4]
  00014	89 50 04	 mov	 DWORD PTR [eax+4], edx
  00017	8b 49 08	 mov	 ecx, DWORD PTR [ecx+8]
  0001a	89 48 08	 mov	 DWORD PTR [eax+8], ecx
$LN5@construct@6:

; 198  : 		}

  0001d	5d		 pop	 ebp
  0001e	c2 08 00	 ret	 8
?construct@?$allocator@UXMASMONSTER_DATA@@@std@@QAEXPAUXMASMONSTER_DATA@@ABU3@@Z ENDP ; std::allocator<XMASMONSTER_DATA>::construct
_TEXT	ENDS
PUBLIC	?construct@?$allocator@UXMASMONSTER_MAP_INFO@@@std@@QAEXPAUXMASMONSTER_MAP_INFO@@ABU3@@Z ; std::allocator<XMASMONSTER_MAP_INFO>::construct
; Function compile flags: /Ogtp
;	COMDAT ?construct@?$allocator@UXMASMONSTER_MAP_INFO@@@std@@QAEXPAUXMASMONSTER_MAP_INFO@@ABU3@@Z
_TEXT	SEGMENT
__Ptr$ = 8						; size = 4
__Val$ = 12						; size = 4
?construct@?$allocator@UXMASMONSTER_MAP_INFO@@@std@@QAEXPAUXMASMONSTER_MAP_INFO@@ABU3@@Z PROC ; std::allocator<XMASMONSTER_MAP_INFO>::construct, COMDAT
; _this$ = ecx

; 196  : 		{	// construct object at _Ptr with value _Val

  00000	55		 push	 ebp
  00001	8b ec		 mov	 ebp, esp

; 197  : 		_Construct(_Ptr, _Val);

  00003	8b 45 08	 mov	 eax, DWORD PTR __Ptr$[ebp]
  00006	85 c0		 test	 eax, eax
  00008	74 1f		 je	 SHORT $LN5@construct@7
  0000a	8b 4d 0c	 mov	 ecx, DWORD PTR __Val$[ebp]
  0000d	8b 11		 mov	 edx, DWORD PTR [ecx]
  0000f	89 10		 mov	 DWORD PTR [eax], edx
  00011	8b 51 04	 mov	 edx, DWORD PTR [ecx+4]
  00014	89 50 04	 mov	 DWORD PTR [eax+4], edx
  00017	8b 51 08	 mov	 edx, DWORD PTR [ecx+8]
  0001a	89 50 08	 mov	 DWORD PTR [eax+8], edx
  0001d	8b 51 0c	 mov	 edx, DWORD PTR [ecx+12]
  00020	89 50 0c	 mov	 DWORD PTR [eax+12], edx
  00023	8b 49 10	 mov	 ecx, DWORD PTR [ecx+16]
  00026	89 48 10	 mov	 DWORD PTR [eax+16], ecx
$LN5@construct@7:

; 198  : 		}

  00029	5d		 pop	 ebp
  0002a	c2 08 00	 ret	 8
?construct@?$allocator@UXMASMONSTER_MAP_INFO@@@std@@QAEXPAUXMASMONSTER_MAP_INFO@@ABU3@@Z ENDP ; std::allocator<XMASMONSTER_MAP_INFO>::construct
_TEXT	ENDS
PUBLIC	??$_Uninitialized_move@PAPAVCXMasMonsterHerd@@PAPAV1@V?$allocator@PAVCXMasMonsterHerd@@@std@@@std@@YAPAPAVCXMasMonsterHerd@@PAPAV1@00AAV?$allocator@PAVCXMasMonsterHerd@@@0@@Z ; std::_Uninitialized_move<CXMasMonsterHerd * *,CXMasMonsterHerd * *,std::allocator<CXMasMonsterHerd *> >
; Function compile flags: /Ogtp
; File d:\program files (x86)\microsoft visual studio 10.0\vc\include\memory
;	COMDAT ??$_Uninitialized_move@PAPAVCXMasMonsterHerd@@PAPAV1@V?$allocator@PAVCXMasMonsterHerd@@@std@@@std@@YAPAPAVCXMasMonsterHerd@@PAPAV1@00AAV?$allocator@PAVCXMasMonsterHerd@@@0@@Z
_TEXT	SEGMENT
__First$ = 8						; size = 4
__Last$ = 12						; size = 4
__Dest$ = 16						; size = 4
__Al$ = 20						; size = 4
??$_Uninitialized_move@PAPAVCXMasMonsterHerd@@PAPAV1@V?$allocator@PAVCXMasMonsterHerd@@@std@@@std@@YAPAPAVCXMasMonsterHerd@@PAPAV1@00AAV?$allocator@PAVCXMasMonsterHerd@@@0@@Z PROC ; std::_Uninitialized_move<CXMasMonsterHerd * *,CXMasMonsterHerd * *,std::allocator<CXMasMonsterHerd *> >, COMDAT

; 469  : 	{	// move [_First, _Last) to raw _Dest, using _Al

  00000	55		 push	 ebp
  00001	8b ec		 mov	 ebp, esp

; 470  : 	return (_Uninit_move(_First, _Last, _Dest, _Al,
; 471  : 		_Val_type(_First), _Ptr_cat(_First, _Dest)));

  00003	8b 4d 08	 mov	 ecx, DWORD PTR __First$[ebp]
  00006	8b 45 0c	 mov	 eax, DWORD PTR __Last$[ebp]
  00009	2b c1		 sub	 eax, ecx
  0000b	56		 push	 esi
  0000c	c1 f8 02	 sar	 eax, 2
  0000f	8d 34 85 00 00
	00 00		 lea	 esi, DWORD PTR [eax*4]
  00016	8b 45 10	 mov	 eax, DWORD PTR __Dest$[ebp]
  00019	56		 push	 esi
  0001a	51		 push	 ecx
  0001b	50		 push	 eax
  0001c	e8 00 00 00 00	 call	 _memmove
  00021	83 c4 0c	 add	 esp, 12			; 0000000cH
  00024	03 c6		 add	 eax, esi
  00026	5e		 pop	 esi

; 472  : 	}

  00027	5d		 pop	 ebp
  00028	c3		 ret	 0
??$_Uninitialized_move@PAPAVCXMasMonsterHerd@@PAPAV1@V?$allocator@PAVCXMasMonsterHerd@@@std@@@std@@YAPAPAVCXMasMonsterHerd@@PAPAV1@00AAV?$allocator@PAVCXMasMonsterHerd@@@0@@Z ENDP ; std::_Uninitialized_move<CXMasMonsterHerd * *,CXMasMonsterHerd * *,std::allocator<CXMasMonsterHerd *> >
_TEXT	ENDS
PUBLIC	?destroy@?$allocator@UXMASMONSTER_EVENT_TIME@@@std@@QAEXPAUXMASMONSTER_EVENT_TIME@@@Z ; std::allocator<XMASMONSTER_EVENT_TIME>::destroy
; Function compile flags: /Ogtp
; File d:\program files (x86)\microsoft visual studio 10.0\vc\include\xmemory
;	COMDAT ?destroy@?$allocator@UXMASMONSTER_EVENT_TIME@@@std@@QAEXPAUXMASMONSTER_EVENT_TIME@@@Z
_TEXT	SEGMENT
__Ptr$ = 8						; size = 4
?destroy@?$allocator@UXMASMONSTER_EVENT_TIME@@@std@@QAEXPAUXMASMONSTER_EVENT_TIME@@@Z PROC ; std::allocator<XMASMONSTER_EVENT_TIME>::destroy, COMDAT
; _this$ = ecx

; 213  : 		_Destroy(_Ptr);
; 214  : 		}

  00000	c2 04 00	 ret	 4
?destroy@?$allocator@UXMASMONSTER_EVENT_TIME@@@std@@QAEXPAUXMASMONSTER_EVENT_TIME@@@Z ENDP ; std::allocator<XMASMONSTER_EVENT_TIME>::destroy
_TEXT	ENDS
PUBLIC	?destroy@?$allocator@UXMASMONSTER_DATA@@@std@@QAEXPAUXMASMONSTER_DATA@@@Z ; std::allocator<XMASMONSTER_DATA>::destroy
; Function compile flags: /Ogtp
;	COMDAT ?destroy@?$allocator@UXMASMONSTER_DATA@@@std@@QAEXPAUXMASMONSTER_DATA@@@Z
_TEXT	SEGMENT
__Ptr$ = 8						; size = 4
?destroy@?$allocator@UXMASMONSTER_DATA@@@std@@QAEXPAUXMASMONSTER_DATA@@@Z PROC ; std::allocator<XMASMONSTER_DATA>::destroy, COMDAT
; _this$ = ecx

; 213  : 		_Destroy(_Ptr);
; 214  : 		}

  00000	c2 04 00	 ret	 4
?destroy@?$allocator@UXMASMONSTER_DATA@@@std@@QAEXPAUXMASMONSTER_DATA@@@Z ENDP ; std::allocator<XMASMONSTER_DATA>::destroy
_TEXT	ENDS
PUBLIC	?destroy@?$allocator@UXMASMONSTER_MAP_INFO@@@std@@QAEXPAUXMASMONSTER_MAP_INFO@@@Z ; std::allocator<XMASMONSTER_MAP_INFO>::destroy
; Function compile flags: /Ogtp
;	COMDAT ?destroy@?$allocator@UXMASMONSTER_MAP_INFO@@@std@@QAEXPAUXMASMONSTER_MAP_INFO@@@Z
_TEXT	SEGMENT
__Ptr$ = 8						; size = 4
?destroy@?$allocator@UXMASMONSTER_MAP_INFO@@@std@@QAEXPAUXMASMONSTER_MAP_INFO@@@Z PROC ; std::allocator<XMASMONSTER_MAP_INFO>::destroy, COMDAT
; _this$ = ecx

; 213  : 		_Destroy(_Ptr);
; 214  : 		}

  00000	c2 04 00	 ret	 4
?destroy@?$allocator@UXMASMONSTER_MAP_INFO@@@std@@QAEXPAUXMASMONSTER_MAP_INFO@@@Z ENDP ; std::allocator<XMASMONSTER_MAP_INFO>::destroy
_TEXT	ENDS
PUBLIC	?construct@?$allocator@UXMASMONSTER_EVENT_TIME@@@std@@QAEXPAUXMASMONSTER_EVENT_TIME@@$$QAU3@@Z ; std::allocator<XMASMONSTER_EVENT_TIME>::construct
; Function compile flags: /Ogtp
;	COMDAT ?construct@?$allocator@UXMASMONSTER_EVENT_TIME@@@std@@QAEXPAUXMASMONSTER_EVENT_TIME@@$$QAU3@@Z
_TEXT	SEGMENT
__Ptr$ = 8						; size = 4
__Val$ = 12						; size = 4
?construct@?$allocator@UXMASMONSTER_EVENT_TIME@@@std@@QAEXPAUXMASMONSTER_EVENT_TIME@@$$QAU3@@Z PROC ; std::allocator<XMASMONSTER_EVENT_TIME>::construct, COMDAT
; _this$ = ecx

; 201  : 		{	// construct object at _Ptr with value _Val

  00000	55		 push	 ebp
  00001	8b ec		 mov	 ebp, esp

; 202  : 		::new ((void _FARQ *)_Ptr) _Ty(_STD forward<_Ty>(_Val));

  00003	8b 45 08	 mov	 eax, DWORD PTR __Ptr$[ebp]
  00006	85 c0		 test	 eax, eax
  00008	74 0d		 je	 SHORT $LN3@construct@8
  0000a	8b 4d 0c	 mov	 ecx, DWORD PTR __Val$[ebp]
  0000d	8b 11		 mov	 edx, DWORD PTR [ecx]
  0000f	89 10		 mov	 DWORD PTR [eax], edx
  00011	8b 49 04	 mov	 ecx, DWORD PTR [ecx+4]
  00014	89 48 04	 mov	 DWORD PTR [eax+4], ecx
$LN3@construct@8:

; 203  : 		}

  00017	5d		 pop	 ebp
  00018	c2 08 00	 ret	 8
?construct@?$allocator@UXMASMONSTER_EVENT_TIME@@@std@@QAEXPAUXMASMONSTER_EVENT_TIME@@$$QAU3@@Z ENDP ; std::allocator<XMASMONSTER_EVENT_TIME>::construct
_TEXT	ENDS
PUBLIC	?construct@?$allocator@UXMASMONSTER_DATA@@@std@@QAEXPAUXMASMONSTER_DATA@@$$QAU3@@Z ; std::allocator<XMASMONSTER_DATA>::construct
; Function compile flags: /Ogtp
;	COMDAT ?construct@?$allocator@UXMASMONSTER_DATA@@@std@@QAEXPAUXMASMONSTER_DATA@@$$QAU3@@Z
_TEXT	SEGMENT
__Ptr$ = 8						; size = 4
__Val$ = 12						; size = 4
?construct@?$allocator@UXMASMONSTER_DATA@@@std@@QAEXPAUXMASMONSTER_DATA@@$$QAU3@@Z PROC ; std::allocator<XMASMONSTER_DATA>::construct, COMDAT
; _this$ = ecx

; 201  : 		{	// construct object at _Ptr with value _Val

  00000	55		 push	 ebp
  00001	8b ec		 mov	 ebp, esp

; 202  : 		::new ((void _FARQ *)_Ptr) _Ty(_STD forward<_Ty>(_Val));

  00003	8b 45 08	 mov	 eax, DWORD PTR __Ptr$[ebp]
  00006	85 c0		 test	 eax, eax
  00008	74 13		 je	 SHORT $LN3@construct@9
  0000a	8b 4d 0c	 mov	 ecx, DWORD PTR __Val$[ebp]
  0000d	8b 11		 mov	 edx, DWORD PTR [ecx]
  0000f	89 10		 mov	 DWORD PTR [eax], edx
  00011	8b 51 04	 mov	 edx, DWORD PTR [ecx+4]
  00014	89 50 04	 mov	 DWORD PTR [eax+4], edx
  00017	8b 49 08	 mov	 ecx, DWORD PTR [ecx+8]
  0001a	89 48 08	 mov	 DWORD PTR [eax+8], ecx
$LN3@construct@9:

; 203  : 		}

  0001d	5d		 pop	 ebp
  0001e	c2 08 00	 ret	 8
?construct@?$allocator@UXMASMONSTER_DATA@@@std@@QAEXPAUXMASMONSTER_DATA@@$$QAU3@@Z ENDP ; std::allocator<XMASMONSTER_DATA>::construct
_TEXT	ENDS
PUBLIC	?construct@?$allocator@UXMASMONSTER_MAP_INFO@@@std@@QAEXPAUXMASMONSTER_MAP_INFO@@$$QAU3@@Z ; std::allocator<XMASMONSTER_MAP_INFO>::construct
; Function compile flags: /Ogtp
;	COMDAT ?construct@?$allocator@UXMASMONSTER_MAP_INFO@@@std@@QAEXPAUXMASMONSTER_MAP_INFO@@$$QAU3@@Z
_TEXT	SEGMENT
__Ptr$ = 8						; size = 4
__Val$ = 12						; size = 4
?construct@?$allocator@UXMASMONSTER_MAP_INFO@@@std@@QAEXPAUXMASMONSTER_MAP_INFO@@$$QAU3@@Z PROC ; std::allocator<XMASMONSTER_MAP_INFO>::construct, COMDAT
; _this$ = ecx

; 201  : 		{	// construct object at _Ptr with value _Val

  00000	55		 push	 ebp
  00001	8b ec		 mov	 ebp, esp

; 202  : 		::new ((void _FARQ *)_Ptr) _Ty(_STD forward<_Ty>(_Val));

  00003	8b 45 08	 mov	 eax, DWORD PTR __Ptr$[ebp]
  00006	85 c0		 test	 eax, eax
  00008	74 1f		 je	 SHORT $LN3@construct@10
  0000a	8b 4d 0c	 mov	 ecx, DWORD PTR __Val$[ebp]
  0000d	8b 11		 mov	 edx, DWORD PTR [ecx]
  0000f	89 10		 mov	 DWORD PTR [eax], edx
  00011	8b 51 04	 mov	 edx, DWORD PTR [ecx+4]
  00014	89 50 04	 mov	 DWORD PTR [eax+4], edx
  00017	8b 51 08	 mov	 edx, DWORD PTR [ecx+8]
  0001a	89 50 08	 mov	 DWORD PTR [eax+8], edx
  0001d	8b 51 0c	 mov	 edx, DWORD PTR [ecx+12]
  00020	89 50 0c	 mov	 DWORD PTR [eax+12], edx
  00023	8b 49 10	 mov	 ecx, DWORD PTR [ecx+16]
  00026	89 48 10	 mov	 DWORD PTR [eax+16], ecx
$LN3@construct@10:

; 203  : 		}

  00029	5d		 pop	 ebp
  0002a	c2 08 00	 ret	 8
?construct@?$allocator@UXMASMONSTER_MAP_INFO@@@std@@QAEXPAUXMASMONSTER_MAP_INFO@@$$QAU3@@Z ENDP ; std::allocator<XMASMONSTER_MAP_INFO>::construct
_TEXT	ENDS
PUBLIC	??0?$vector@UXMASMONSTER_MAP_INFO@@V?$allocator@UXMASMONSTER_MAP_INFO@@@std@@@std@@QAE@XZ ; std::vector<XMASMONSTER_MAP_INFO,std::allocator<XMASMONSTER_MAP_INFO> >::vector<XMASMONSTER_MAP_INFO,std::allocator<XMASMONSTER_MAP_INFO> >
; Function compile flags: /Ogtp
; File d:\program files (x86)\microsoft visual studio 10.0\vc\include\vector
;	COMDAT ??0?$vector@UXMASMONSTER_MAP_INFO@@V?$allocator@UXMASMONSTER_MAP_INFO@@@std@@@std@@QAE@XZ
_TEXT	SEGMENT
??0?$vector@UXMASMONSTER_MAP_INFO@@V?$allocator@UXMASMONSTER_MAP_INFO@@@std@@@std@@QAE@XZ PROC ; std::vector<XMASMONSTER_MAP_INFO,std::allocator<XMASMONSTER_MAP_INFO> >::vector<XMASMONSTER_MAP_INFO,std::allocator<XMASMONSTER_MAP_INFO> >, COMDAT
; _this$ = ecx

; 507  : 		{	// construct empty vector

  00000	8b c1		 mov	 eax, ecx
  00002	33 c9		 xor	 ecx, ecx
  00004	89 08		 mov	 DWORD PTR [eax], ecx
  00006	89 48 04	 mov	 DWORD PTR [eax+4], ecx
  00009	89 48 08	 mov	 DWORD PTR [eax+8], ecx

; 508  : 		}

  0000c	c3		 ret	 0
??0?$vector@UXMASMONSTER_MAP_INFO@@V?$allocator@UXMASMONSTER_MAP_INFO@@@std@@@std@@QAE@XZ ENDP ; std::vector<XMASMONSTER_MAP_INFO,std::allocator<XMASMONSTER_MAP_INFO> >::vector<XMASMONSTER_MAP_INFO,std::allocator<XMASMONSTER_MAP_INFO> >
_TEXT	ENDS
PUBLIC	??9?$_Vector_const_iterator@V?$_Vector_val@PAVCXMasMonsterHerd@@V?$allocator@PAVCXMasMonsterHerd@@@std@@@std@@@std@@QBE_NABV01@@Z ; std::_Vector_const_iterator<std::_Vector_val<CXMasMonsterHerd *,std::allocator<CXMasMonsterHerd *> > >::operator!=
; Function compile flags: /Ogtp
;	COMDAT ??9?$_Vector_const_iterator@V?$_Vector_val@PAVCXMasMonsterHerd@@V?$allocator@PAVCXMasMonsterHerd@@@std@@@std@@@std@@QBE_NABV01@@Z
_TEXT	SEGMENT
__Right$ = 8						; size = 4
??9?$_Vector_const_iterator@V?$_Vector_val@PAVCXMasMonsterHerd@@V?$allocator@PAVCXMasMonsterHerd@@@std@@@std@@@std@@QBE_NABV01@@Z PROC ; std::_Vector_const_iterator<std::_Vector_val<CXMasMonsterHerd *,std::allocator<CXMasMonsterHerd *> > >::operator!=, COMDAT
; _this$ = ecx

; 207  : 		{	// test for iterator inequality

  00000	55		 push	 ebp
  00001	8b ec		 mov	 ebp, esp

; 208  : 		return (!(*this == _Right));

  00003	8b 01		 mov	 eax, DWORD PTR [ecx]
  00005	8b 55 08	 mov	 edx, DWORD PTR __Right$[ebp]
  00008	33 c9		 xor	 ecx, ecx
  0000a	3b 02		 cmp	 eax, DWORD PTR [edx]
  0000c	0f 95 c0	 setne	 al

; 209  : 		}

  0000f	5d		 pop	 ebp
  00010	c2 04 00	 ret	 4
??9?$_Vector_const_iterator@V?$_Vector_val@PAVCXMasMonsterHerd@@V?$allocator@PAVCXMasMonsterHerd@@@std@@@std@@@std@@QBE_NABV01@@Z ENDP ; std::_Vector_const_iterator<std::_Vector_val<CXMasMonsterHerd *,std::allocator<CXMasMonsterHerd *> > >::operator!=
_TEXT	ENDS
PUBLIC	??E?$_Vector_iterator@V?$_Vector_val@UXMASMONSTER_MAP_INFO@@V?$allocator@UXMASMONSTER_MAP_INFO@@@std@@@std@@@std@@QAE?AV01@H@Z ; std::_Vector_iterator<std::_Vector_val<XMASMONSTER_MAP_INFO,std::allocator<XMASMONSTER_MAP_INFO> > >::operator++
; Function compile flags: /Ogtp
;	COMDAT ??E?$_Vector_iterator@V?$_Vector_val@UXMASMONSTER_MAP_INFO@@V?$allocator@UXMASMONSTER_MAP_INFO@@@std@@@std@@@std@@QAE?AV01@H@Z
_TEXT	SEGMENT
___$ReturnUdt$ = 8					; size = 4
___formal$ = 12						; size = 4
??E?$_Vector_iterator@V?$_Vector_val@UXMASMONSTER_MAP_INFO@@V?$allocator@UXMASMONSTER_MAP_INFO@@@std@@@std@@@std@@QAE?AV01@H@Z PROC ; std::_Vector_iterator<std::_Vector_val<XMASMONSTER_MAP_INFO,std::allocator<XMASMONSTER_MAP_INFO> > >::operator++, COMDAT
; _this$ = ecx

; 337  : 		{	// postincrement

  00000	55		 push	 ebp
  00001	8b ec		 mov	 ebp, esp

; 338  : 		_Myiter _Tmp = *this;

  00003	8b 11		 mov	 edx, DWORD PTR [ecx]
  00005	8b 45 08	 mov	 eax, DWORD PTR ___$ReturnUdt$[ebp]
  00008	89 10		 mov	 DWORD PTR [eax], edx

; 339  : 		++*this;

  0000a	83 c2 14	 add	 edx, 20			; 00000014H
  0000d	89 11		 mov	 DWORD PTR [ecx], edx

; 340  : 		return (_Tmp);
; 341  : 		}

  0000f	5d		 pop	 ebp
  00010	c2 08 00	 ret	 8
??E?$_Vector_iterator@V?$_Vector_val@UXMASMONSTER_MAP_INFO@@V?$allocator@UXMASMONSTER_MAP_INFO@@@std@@@std@@@std@@QAE?AV01@H@Z ENDP ; std::_Vector_iterator<std::_Vector_val<XMASMONSTER_MAP_INFO,std::allocator<XMASMONSTER_MAP_INFO> > >::operator++
_TEXT	ENDS
PUBLIC	??9?$_Vector_const_iterator@V?$_Vector_val@UXMASMONSTER_MAP_INFO@@V?$allocator@UXMASMONSTER_MAP_INFO@@@std@@@std@@@std@@QBE_NABV01@@Z ; std::_Vector_const_iterator<std::_Vector_val<XMASMONSTER_MAP_INFO,std::allocator<XMASMONSTER_MAP_INFO> > >::operator!=
; Function compile flags: /Ogtp
;	COMDAT ??9?$_Vector_const_iterator@V?$_Vector_val@UXMASMONSTER_MAP_INFO@@V?$allocator@UXMASMONSTER_MAP_INFO@@@std@@@std@@@std@@QBE_NABV01@@Z
_TEXT	SEGMENT
__Right$ = 8						; size = 4
??9?$_Vector_const_iterator@V?$_Vector_val@UXMASMONSTER_MAP_INFO@@V?$allocator@UXMASMONSTER_MAP_INFO@@@std@@@std@@@std@@QBE_NABV01@@Z PROC ; std::_Vector_const_iterator<std::_Vector_val<XMASMONSTER_MAP_INFO,std::allocator<XMASMONSTER_MAP_INFO> > >::operator!=, COMDAT
; _this$ = ecx

; 207  : 		{	// test for iterator inequality

  00000	55		 push	 ebp
  00001	8b ec		 mov	 ebp, esp

; 208  : 		return (!(*this == _Right));

  00003	8b 01		 mov	 eax, DWORD PTR [ecx]
  00005	8b 55 08	 mov	 edx, DWORD PTR __Right$[ebp]
  00008	33 c9		 xor	 ecx, ecx
  0000a	3b 02		 cmp	 eax, DWORD PTR [edx]
  0000c	0f 95 c0	 setne	 al

; 209  : 		}

  0000f	5d		 pop	 ebp
  00010	c2 04 00	 ret	 4
??9?$_Vector_const_iterator@V?$_Vector_val@UXMASMONSTER_MAP_INFO@@V?$allocator@UXMASMONSTER_MAP_INFO@@@std@@@std@@@std@@QBE_NABV01@@Z ENDP ; std::_Vector_const_iterator<std::_Vector_val<XMASMONSTER_MAP_INFO,std::allocator<XMASMONSTER_MAP_INFO> > >::operator!=
_TEXT	ENDS
PUBLIC	??E?$_Vector_iterator@V?$_Vector_val@UXMASMONSTER_DATA@@V?$allocator@UXMASMONSTER_DATA@@@std@@@std@@@std@@QAE?AV01@H@Z ; std::_Vector_iterator<std::_Vector_val<XMASMONSTER_DATA,std::allocator<XMASMONSTER_DATA> > >::operator++
; Function compile flags: /Ogtp
;	COMDAT ??E?$_Vector_iterator@V?$_Vector_val@UXMASMONSTER_DATA@@V?$allocator@UXMASMONSTER_DATA@@@std@@@std@@@std@@QAE?AV01@H@Z
_TEXT	SEGMENT
___$ReturnUdt$ = 8					; size = 4
___formal$ = 12						; size = 4
??E?$_Vector_iterator@V?$_Vector_val@UXMASMONSTER_DATA@@V?$allocator@UXMASMONSTER_DATA@@@std@@@std@@@std@@QAE?AV01@H@Z PROC ; std::_Vector_iterator<std::_Vector_val<XMASMONSTER_DATA,std::allocator<XMASMONSTER_DATA> > >::operator++, COMDAT
; _this$ = ecx

; 337  : 		{	// postincrement

  00000	55		 push	 ebp
  00001	8b ec		 mov	 ebp, esp

; 338  : 		_Myiter _Tmp = *this;

  00003	8b 11		 mov	 edx, DWORD PTR [ecx]
  00005	8b 45 08	 mov	 eax, DWORD PTR ___$ReturnUdt$[ebp]
  00008	89 10		 mov	 DWORD PTR [eax], edx

; 339  : 		++*this;

  0000a	83 c2 0c	 add	 edx, 12			; 0000000cH
  0000d	89 11		 mov	 DWORD PTR [ecx], edx

; 340  : 		return (_Tmp);
; 341  : 		}

  0000f	5d		 pop	 ebp
  00010	c2 08 00	 ret	 8
??E?$_Vector_iterator@V?$_Vector_val@UXMASMONSTER_DATA@@V?$allocator@UXMASMONSTER_DATA@@@std@@@std@@@std@@QAE?AV01@H@Z ENDP ; std::_Vector_iterator<std::_Vector_val<XMASMONSTER_DATA,std::allocator<XMASMONSTER_DATA> > >::operator++
_TEXT	ENDS
PUBLIC	??9?$_Vector_const_iterator@V?$_Vector_val@UXMASMONSTER_DATA@@V?$allocator@UXMASMONSTER_DATA@@@std@@@std@@@std@@QBE_NABV01@@Z ; std::_Vector_const_iterator<std::_Vector_val<XMASMONSTER_DATA,std::allocator<XMASMONSTER_DATA> > >::operator!=
; Function compile flags: /Ogtp
;	COMDAT ??9?$_Vector_const_iterator@V?$_Vector_val@UXMASMONSTER_DATA@@V?$allocator@UXMASMONSTER_DATA@@@std@@@std@@@std@@QBE_NABV01@@Z
_TEXT	SEGMENT
__Right$ = 8						; size = 4
??9?$_Vector_const_iterator@V?$_Vector_val@UXMASMONSTER_DATA@@V?$allocator@UXMASMONSTER_DATA@@@std@@@std@@@std@@QBE_NABV01@@Z PROC ; std::_Vector_const_iterator<std::_Vector_val<XMASMONSTER_DATA,std::allocator<XMASMONSTER_DATA> > >::operator!=, COMDAT
; _this$ = ecx

; 207  : 		{	// test for iterator inequality

  00000	55		 push	 ebp
  00001	8b ec		 mov	 ebp, esp

; 208  : 		return (!(*this == _Right));

  00003	8b 01		 mov	 eax, DWORD PTR [ecx]
  00005	8b 55 08	 mov	 edx, DWORD PTR __Right$[ebp]
  00008	33 c9		 xor	 ecx, ecx
  0000a	3b 02		 cmp	 eax, DWORD PTR [edx]
  0000c	0f 95 c0	 setne	 al

; 209  : 		}

  0000f	5d		 pop	 ebp
  00010	c2 04 00	 ret	 4
??9?$_Vector_const_iterator@V?$_Vector_val@UXMASMONSTER_DATA@@V?$allocator@UXMASMONSTER_DATA@@@std@@@std@@@std@@QBE_NABV01@@Z ENDP ; std::_Vector_const_iterator<std::_Vector_val<XMASMONSTER_DATA,std::allocator<XMASMONSTER_DATA> > >::operator!=
_TEXT	ENDS
PUBLIC	??E?$_Vector_iterator@V?$_Vector_val@UXMASMONSTER_EVENT_TIME@@V?$allocator@UXMASMONSTER_EVENT_TIME@@@std@@@std@@@std@@QAE?AV01@H@Z ; std::_Vector_iterator<std::_Vector_val<XMASMONSTER_EVENT_TIME,std::allocator<XMASMONSTER_EVENT_TIME> > >::operator++
; Function compile flags: /Ogtp
;	COMDAT ??E?$_Vector_iterator@V?$_Vector_val@UXMASMONSTER_EVENT_TIME@@V?$allocator@UXMASMONSTER_EVENT_TIME@@@std@@@std@@@std@@QAE?AV01@H@Z
_TEXT	SEGMENT
___$ReturnUdt$ = 8					; size = 4
___formal$ = 12						; size = 4
??E?$_Vector_iterator@V?$_Vector_val@UXMASMONSTER_EVENT_TIME@@V?$allocator@UXMASMONSTER_EVENT_TIME@@@std@@@std@@@std@@QAE?AV01@H@Z PROC ; std::_Vector_iterator<std::_Vector_val<XMASMONSTER_EVENT_TIME,std::allocator<XMASMONSTER_EVENT_TIME> > >::operator++, COMDAT
; _this$ = ecx

; 337  : 		{	// postincrement

  00000	55		 push	 ebp
  00001	8b ec		 mov	 ebp, esp

; 338  : 		_Myiter _Tmp = *this;

  00003	8b 11		 mov	 edx, DWORD PTR [ecx]
  00005	8b 45 08	 mov	 eax, DWORD PTR ___$ReturnUdt$[ebp]
  00008	89 10		 mov	 DWORD PTR [eax], edx

; 339  : 		++*this;

  0000a	83 c2 08	 add	 edx, 8
  0000d	89 11		 mov	 DWORD PTR [ecx], edx

; 340  : 		return (_Tmp);
; 341  : 		}

  0000f	5d		 pop	 ebp
  00010	c2 08 00	 ret	 8
??E?$_Vector_iterator@V?$_Vector_val@UXMASMONSTER_EVENT_TIME@@V?$allocator@UXMASMONSTER_EVENT_TIME@@@std@@@std@@@std@@QAE?AV01@H@Z ENDP ; std::_Vector_iterator<std::_Vector_val<XMASMONSTER_EVENT_TIME,std::allocator<XMASMONSTER_EVENT_TIME> > >::operator++
_TEXT	ENDS
PUBLIC	??9?$_Vector_const_iterator@V?$_Vector_val@UXMASMONSTER_EVENT_TIME@@V?$allocator@UXMASMONSTER_EVENT_TIME@@@std@@@std@@@std@@QBE_NABV01@@Z ; std::_Vector_const_iterator<std::_Vector_val<XMASMONSTER_EVENT_TIME,std::allocator<XMASMONSTER_EVENT_TIME> > >::operator!=
; Function compile flags: /Ogtp
;	COMDAT ??9?$_Vector_const_iterator@V?$_Vector_val@UXMASMONSTER_EVENT_TIME@@V?$allocator@UXMASMONSTER_EVENT_TIME@@@std@@@std@@@std@@QBE_NABV01@@Z
_TEXT	SEGMENT
__Right$ = 8						; size = 4
??9?$_Vector_const_iterator@V?$_Vector_val@UXMASMONSTER_EVENT_TIME@@V?$allocator@UXMASMONSTER_EVENT_TIME@@@std@@@std@@@std@@QBE_NABV01@@Z PROC ; std::_Vector_const_iterator<std::_Vector_val<XMASMONSTER_EVENT_TIME,std::allocator<XMASMONSTER_EVENT_TIME> > >::operator!=, COMDAT
; _this$ = ecx

; 207  : 		{	// test for iterator inequality

  00000	55		 push	 ebp
  00001	8b ec		 mov	 ebp, esp

; 208  : 		return (!(*this == _Right));

  00003	8b 01		 mov	 eax, DWORD PTR [ecx]
  00005	8b 55 08	 mov	 edx, DWORD PTR __Right$[ebp]
  00008	33 c9		 xor	 ecx, ecx
  0000a	3b 02		 cmp	 eax, DWORD PTR [edx]
  0000c	0f 95 c0	 setne	 al

; 209  : 		}

  0000f	5d		 pop	 ebp
  00010	c2 04 00	 ret	 4
??9?$_Vector_const_iterator@V?$_Vector_val@UXMASMONSTER_EVENT_TIME@@V?$allocator@UXMASMONSTER_EVENT_TIME@@@std@@@std@@@std@@QBE_NABV01@@Z ENDP ; std::_Vector_const_iterator<std::_Vector_val<XMASMONSTER_EVENT_TIME,std::allocator<XMASMONSTER_EVENT_TIME> > >::operator!=
_TEXT	ENDS
PUBLIC	?_Destroy@?$vector@PAVCXMasMonsterHerd@@V?$allocator@PAVCXMasMonsterHerd@@@std@@@std@@IAEXPAPAVCXMasMonsterHerd@@0@Z ; std::vector<CXMasMonsterHerd *,std::allocator<CXMasMonsterHerd *> >::_Destroy
; Function compile flags: /Ogtp
;	COMDAT ?_Destroy@?$vector@PAVCXMasMonsterHerd@@V?$allocator@PAVCXMasMonsterHerd@@@std@@@std@@IAEXPAPAVCXMasMonsterHerd@@0@Z
_TEXT	SEGMENT
__First$ = 8						; size = 4
__Last$ = 12						; size = 4
?_Destroy@?$vector@PAVCXMasMonsterHerd@@V?$allocator@PAVCXMasMonsterHerd@@@std@@@std@@IAEXPAPAVCXMasMonsterHerd@@0@Z PROC ; std::vector<CXMasMonsterHerd *,std::allocator<CXMasMonsterHerd *> >::_Destroy, COMDAT
; _this$ = ecx

; 1270 : 		_Destroy_range(_First, _Last, this->_Alval);
; 1271 : 		}

  00000	c2 08 00	 ret	 8
?_Destroy@?$vector@PAVCXMasMonsterHerd@@V?$allocator@PAVCXMasMonsterHerd@@@std@@@std@@IAEXPAPAVCXMasMonsterHerd@@0@Z ENDP ; std::vector<CXMasMonsterHerd *,std::allocator<CXMasMonsterHerd *> >::_Destroy
_TEXT	ENDS
PUBLIC	??0?$_Vector_iterator@V?$_Vector_val@PAVCXMasMonsterHerd@@V?$allocator@PAVCXMasMonsterHerd@@@std@@@std@@@std@@QAE@PAPAVCXMasMonsterHerd@@PBU_Container_base0@1@@Z ; std::_Vector_iterator<std::_Vector_val<CXMasMonsterHerd *,std::allocator<CXMasMonsterHerd *> > >::_Vector_iterator<std::_Vector_val<CXMasMonsterHerd *,std::allocator<CXMasMonsterHerd *> > >
; Function compile flags: /Ogtp
;	COMDAT ??0?$_Vector_iterator@V?$_Vector_val@PAVCXMasMonsterHerd@@V?$allocator@PAVCXMasMonsterHerd@@@std@@@std@@@std@@QAE@PAPAVCXMasMonsterHerd@@PBU_Container_base0@1@@Z
_TEXT	SEGMENT
__Parg$ = 8						; size = 4
__Pvector$ = 12						; size = 4
??0?$_Vector_iterator@V?$_Vector_val@PAVCXMasMonsterHerd@@V?$allocator@PAVCXMasMonsterHerd@@@std@@@std@@@std@@QAE@PAPAVCXMasMonsterHerd@@PBU_Container_base0@1@@Z PROC ; std::_Vector_iterator<std::_Vector_val<CXMasMonsterHerd *,std::allocator<CXMasMonsterHerd *> > >::_Vector_iterator<std::_Vector_val<CXMasMonsterHerd *,std::allocator<CXMasMonsterHerd *> > >, COMDAT
; _this$ = ecx

; 304  : 		{	// construct with pointer _Parg

  00000	55		 push	 ebp
  00001	8b ec		 mov	 ebp, esp
  00003	8b c1		 mov	 eax, ecx
  00005	8b 4d 08	 mov	 ecx, DWORD PTR __Parg$[ebp]
  00008	89 08		 mov	 DWORD PTR [eax], ecx

; 305  : 		}

  0000a	5d		 pop	 ebp
  0000b	c2 08 00	 ret	 8
??0?$_Vector_iterator@V?$_Vector_val@PAVCXMasMonsterHerd@@V?$allocator@PAVCXMasMonsterHerd@@@std@@@std@@@std@@QAE@PAPAVCXMasMonsterHerd@@PBU_Container_base0@1@@Z ENDP ; std::_Vector_iterator<std::_Vector_val<CXMasMonsterHerd *,std::allocator<CXMasMonsterHerd *> > >::_Vector_iterator<std::_Vector_val<CXMasMonsterHerd *,std::allocator<CXMasMonsterHerd *> > >
_TEXT	ENDS
PUBLIC	??0?$_Vector_iterator@V?$_Vector_val@UXMASMONSTER_MAP_INFO@@V?$allocator@UXMASMONSTER_MAP_INFO@@@std@@@std@@@std@@QAE@PAUXMASMONSTER_MAP_INFO@@PBU_Container_base0@1@@Z ; std::_Vector_iterator<std::_Vector_val<XMASMONSTER_MAP_INFO,std::allocator<XMASMONSTER_MAP_INFO> > >::_Vector_iterator<std::_Vector_val<XMASMONSTER_MAP_INFO,std::allocator<XMASMONSTER_MAP_INFO> > >
; Function compile flags: /Ogtp
;	COMDAT ??0?$_Vector_iterator@V?$_Vector_val@UXMASMONSTER_MAP_INFO@@V?$allocator@UXMASMONSTER_MAP_INFO@@@std@@@std@@@std@@QAE@PAUXMASMONSTER_MAP_INFO@@PBU_Container_base0@1@@Z
_TEXT	SEGMENT
__Parg$ = 8						; size = 4
__Pvector$ = 12						; size = 4
??0?$_Vector_iterator@V?$_Vector_val@UXMASMONSTER_MAP_INFO@@V?$allocator@UXMASMONSTER_MAP_INFO@@@std@@@std@@@std@@QAE@PAUXMASMONSTER_MAP_INFO@@PBU_Container_base0@1@@Z PROC ; std::_Vector_iterator<std::_Vector_val<XMASMONSTER_MAP_INFO,std::allocator<XMASMONSTER_MAP_INFO> > >::_Vector_iterator<std::_Vector_val<XMASMONSTER_MAP_INFO,std::allocator<XMASMONSTER_MAP_INFO> > >, COMDAT
; _this$ = ecx

; 304  : 		{	// construct with pointer _Parg

  00000	55		 push	 ebp
  00001	8b ec		 mov	 ebp, esp
  00003	8b c1		 mov	 eax, ecx
  00005	8b 4d 08	 mov	 ecx, DWORD PTR __Parg$[ebp]
  00008	89 08		 mov	 DWORD PTR [eax], ecx

; 305  : 		}

  0000a	5d		 pop	 ebp
  0000b	c2 08 00	 ret	 8
??0?$_Vector_iterator@V?$_Vector_val@UXMASMONSTER_MAP_INFO@@V?$allocator@UXMASMONSTER_MAP_INFO@@@std@@@std@@@std@@QAE@PAUXMASMONSTER_MAP_INFO@@PBU_Container_base0@1@@Z ENDP ; std::_Vector_iterator<std::_Vector_val<XMASMONSTER_MAP_INFO,std::allocator<XMASMONSTER_MAP_INFO> > >::_Vector_iterator<std::_Vector_val<XMASMONSTER_MAP_INFO,std::allocator<XMASMONSTER_MAP_INFO> > >
_TEXT	ENDS
PUBLIC	??0?$_Vector_iterator@V?$_Vector_val@UXMASMONSTER_DATA@@V?$allocator@UXMASMONSTER_DATA@@@std@@@std@@@std@@QAE@PAUXMASMONSTER_DATA@@PBU_Container_base0@1@@Z ; std::_Vector_iterator<std::_Vector_val<XMASMONSTER_DATA,std::allocator<XMASMONSTER_DATA> > >::_Vector_iterator<std::_Vector_val<XMASMONSTER_DATA,std::allocator<XMASMONSTER_DATA> > >
; Function compile flags: /Ogtp
;	COMDAT ??0?$_Vector_iterator@V?$_Vector_val@UXMASMONSTER_DATA@@V?$allocator@UXMASMONSTER_DATA@@@std@@@std@@@std@@QAE@PAUXMASMONSTER_DATA@@PBU_Container_base0@1@@Z
_TEXT	SEGMENT
__Parg$ = 8						; size = 4
__Pvector$ = 12						; size = 4
??0?$_Vector_iterator@V?$_Vector_val@UXMASMONSTER_DATA@@V?$allocator@UXMASMONSTER_DATA@@@std@@@std@@@std@@QAE@PAUXMASMONSTER_DATA@@PBU_Container_base0@1@@Z PROC ; std::_Vector_iterator<std::_Vector_val<XMASMONSTER_DATA,std::allocator<XMASMONSTER_DATA> > >::_Vector_iterator<std::_Vector_val<XMASMONSTER_DATA,std::allocator<XMASMONSTER_DATA> > >, COMDAT
; _this$ = ecx

; 304  : 		{	// construct with pointer _Parg

  00000	55		 push	 ebp
  00001	8b ec		 mov	 ebp, esp
  00003	8b c1		 mov	 eax, ecx
  00005	8b 4d 08	 mov	 ecx, DWORD PTR __Parg$[ebp]
  00008	89 08		 mov	 DWORD PTR [eax], ecx

; 305  : 		}

  0000a	5d		 pop	 ebp
  0000b	c2 08 00	 ret	 8
??0?$_Vector_iterator@V?$_Vector_val@UXMASMONSTER_DATA@@V?$allocator@UXMASMONSTER_DATA@@@std@@@std@@@std@@QAE@PAUXMASMONSTER_DATA@@PBU_Container_base0@1@@Z ENDP ; std::_Vector_iterator<std::_Vector_val<XMASMONSTER_DATA,std::allocator<XMASMONSTER_DATA> > >::_Vector_iterator<std::_Vector_val<XMASMONSTER_DATA,std::allocator<XMASMONSTER_DATA> > >
_TEXT	ENDS
PUBLIC	??0?$_Vector_iterator@V?$_Vector_val@UXMASMONSTER_EVENT_TIME@@V?$allocator@UXMASMONSTER_EVENT_TIME@@@std@@@std@@@std@@QAE@PAUXMASMONSTER_EVENT_TIME@@PBU_Container_base0@1@@Z ; std::_Vector_iterator<std::_Vector_val<XMASMONSTER_EVENT_TIME,std::allocator<XMASMONSTER_EVENT_TIME> > >::_Vector_iterator<std::_Vector_val<XMASMONSTER_EVENT_TIME,std::allocator<XMASMONSTER_EVENT_TIME> > >
; Function compile flags: /Ogtp
;	COMDAT ??0?$_Vector_iterator@V?$_Vector_val@UXMASMONSTER_EVENT_TIME@@V?$allocator@UXMASMONSTER_EVENT_TIME@@@std@@@std@@@std@@QAE@PAUXMASMONSTER_EVENT_TIME@@PBU_Container_base0@1@@Z
_TEXT	SEGMENT
__Parg$ = 8						; size = 4
__Pvector$ = 12						; size = 4
??0?$_Vector_iterator@V?$_Vector_val@UXMASMONSTER_EVENT_TIME@@V?$allocator@UXMASMONSTER_EVENT_TIME@@@std@@@std@@@std@@QAE@PAUXMASMONSTER_EVENT_TIME@@PBU_Container_base0@1@@Z PROC ; std::_Vector_iterator<std::_Vector_val<XMASMONSTER_EVENT_TIME,std::allocator<XMASMONSTER_EVENT_TIME> > >::_Vector_iterator<std::_Vector_val<XMASMONSTER_EVENT_TIME,std::allocator<XMASMONSTER_EVENT_TIME> > >, COMDAT
; _this$ = ecx

; 304  : 		{	// construct with pointer _Parg

  00000	55		 push	 ebp
  00001	8b ec		 mov	 ebp, esp
  00003	8b c1		 mov	 eax, ecx
  00005	8b 4d 08	 mov	 ecx, DWORD PTR __Parg$[ebp]
  00008	89 08		 mov	 DWORD PTR [eax], ecx

; 305  : 		}

  0000a	5d		 pop	 ebp
  0000b	c2 08 00	 ret	 8
??0?$_Vector_iterator@V?$_Vector_val@UXMASMONSTER_EVENT_TIME@@V?$allocator@UXMASMONSTER_EVENT_TIME@@@std@@@std@@@std@@QAE@PAUXMASMONSTER_EVENT_TIME@@PBU_Container_base0@1@@Z ENDP ; std::_Vector_iterator<std::_Vector_val<XMASMONSTER_EVENT_TIME,std::allocator<XMASMONSTER_EVENT_TIME> > >::_Vector_iterator<std::_Vector_val<XMASMONSTER_EVENT_TIME,std::allocator<XMASMONSTER_EVENT_TIME> > >
_TEXT	ENDS
PUBLIC	?allocate@?$allocator@UXMASMONSTER_EVENT_TIME@@@std@@QAEPAUXMASMONSTER_EVENT_TIME@@I@Z ; std::allocator<XMASMONSTER_EVENT_TIME>::allocate
; Function compile flags: /Ogtp
; File d:\program files (x86)\microsoft visual studio 10.0\vc\include\xmemory
;	COMDAT ?allocate@?$allocator@UXMASMONSTER_EVENT_TIME@@@std@@QAEPAUXMASMONSTER_EVENT_TIME@@I@Z
_TEXT	SEGMENT
$T217989 = -12						; size = 12
$T217981 = 8						; size = 4
__Count$ = 8						; size = 4
?allocate@?$allocator@UXMASMONSTER_EVENT_TIME@@@std@@QAEPAUXMASMONSTER_EVENT_TIME@@I@Z PROC ; std::allocator<XMASMONSTER_EVENT_TIME>::allocate, COMDAT
; _this$ = ecx

; 186  : 		{	// allocate array of _Count elements

  00000	55		 push	 ebp
  00001	8b ec		 mov	 ebp, esp

; 187  : 		return (_Allocate(_Count, (pointer)0));

  00003	8b 4d 08	 mov	 ecx, DWORD PTR __Count$[ebp]
  00006	83 ec 0c	 sub	 esp, 12			; 0000000cH
  00009	33 c0		 xor	 eax, eax
  0000b	85 c9		 test	 ecx, ecx
  0000d	74 44		 je	 SHORT $LN1@allocate
  0000f	81 f9 ff ff ff
	1f		 cmp	 ecx, 536870911		; 1fffffffH
  00015	77 14		 ja	 SHORT $LN3@allocate
  00017	8d 04 cd 00 00
	00 00		 lea	 eax, DWORD PTR [ecx*8]
  0001e	50		 push	 eax
  0001f	e8 00 00 00 00	 call	 ??2@YAPAXI@Z		; operator new
  00024	83 c4 04	 add	 esp, 4
  00027	85 c0		 test	 eax, eax
  00029	75 28		 jne	 SHORT $LN1@allocate
$LN3@allocate:
  0002b	8d 4d 08	 lea	 ecx, DWORD PTR $T217981[ebp]
  0002e	51		 push	 ecx
  0002f	8d 4d f4	 lea	 ecx, DWORD PTR $T217989[ebp]
  00032	c7 45 08 00 00
	00 00		 mov	 DWORD PTR $T217981[ebp], 0
  00039	e8 00 00 00 00	 call	 ??0exception@std@@QAE@ABQBD@Z ; std::exception::exception
  0003e	68 00 00 00 00	 push	 OFFSET __TI2?AVbad_alloc@std@@
  00043	8d 55 f4	 lea	 edx, DWORD PTR $T217989[ebp]
  00046	52		 push	 edx
  00047	c7 45 f4 00 00
	00 00		 mov	 DWORD PTR $T217989[ebp], OFFSET ??_7bad_alloc@std@@6B@
  0004e	e8 00 00 00 00	 call	 __CxxThrowException@8
$LN13@allocate:
$LN1@allocate:

; 188  : 		}

  00053	8b e5		 mov	 esp, ebp
  00055	5d		 pop	 ebp
  00056	c2 04 00	 ret	 4
$LN12@allocate:
?allocate@?$allocator@UXMASMONSTER_EVENT_TIME@@@std@@QAEPAUXMASMONSTER_EVENT_TIME@@I@Z ENDP ; std::allocator<XMASMONSTER_EVENT_TIME>::allocate
_TEXT	ENDS
PUBLIC	?allocate@?$allocator@UXMASMONSTER_DATA@@@std@@QAEPAUXMASMONSTER_DATA@@I@Z ; std::allocator<XMASMONSTER_DATA>::allocate
; Function compile flags: /Ogtp
;	COMDAT ?allocate@?$allocator@UXMASMONSTER_DATA@@@std@@QAEPAUXMASMONSTER_DATA@@I@Z
_TEXT	SEGMENT
$T218012 = -12						; size = 12
$T218004 = 8						; size = 4
__Count$ = 8						; size = 4
?allocate@?$allocator@UXMASMONSTER_DATA@@@std@@QAEPAUXMASMONSTER_DATA@@I@Z PROC ; std::allocator<XMASMONSTER_DATA>::allocate, COMDAT
; _this$ = ecx

; 186  : 		{	// allocate array of _Count elements

  00000	55		 push	 ebp
  00001	8b ec		 mov	 ebp, esp

; 187  : 		return (_Allocate(_Count, (pointer)0));

  00003	8b 4d 08	 mov	 ecx, DWORD PTR __Count$[ebp]
  00006	83 ec 0c	 sub	 esp, 12			; 0000000cH
  00009	33 c0		 xor	 eax, eax
  0000b	85 c9		 test	 ecx, ecx
  0000d	74 44		 je	 SHORT $LN1@allocate@2
  0000f	81 f9 55 55 55
	15		 cmp	 ecx, 357913941		; 15555555H
  00015	77 14		 ja	 SHORT $LN3@allocate@2
  00017	8d 04 49	 lea	 eax, DWORD PTR [ecx+ecx*2]
  0001a	03 c0		 add	 eax, eax
  0001c	03 c0		 add	 eax, eax
  0001e	50		 push	 eax
  0001f	e8 00 00 00 00	 call	 ??2@YAPAXI@Z		; operator new
  00024	83 c4 04	 add	 esp, 4
  00027	85 c0		 test	 eax, eax
  00029	75 28		 jne	 SHORT $LN1@allocate@2
$LN3@allocate@2:
  0002b	8d 4d 08	 lea	 ecx, DWORD PTR $T218004[ebp]
  0002e	51		 push	 ecx
  0002f	8d 4d f4	 lea	 ecx, DWORD PTR $T218012[ebp]
  00032	c7 45 08 00 00
	00 00		 mov	 DWORD PTR $T218004[ebp], 0
  00039	e8 00 00 00 00	 call	 ??0exception@std@@QAE@ABQBD@Z ; std::exception::exception
  0003e	68 00 00 00 00	 push	 OFFSET __TI2?AVbad_alloc@std@@
  00043	8d 55 f4	 lea	 edx, DWORD PTR $T218012[ebp]
  00046	52		 push	 edx
  00047	c7 45 f4 00 00
	00 00		 mov	 DWORD PTR $T218012[ebp], OFFSET ??_7bad_alloc@std@@6B@
  0004e	e8 00 00 00 00	 call	 __CxxThrowException@8
$LN13@allocate@2:
$LN1@allocate@2:

; 188  : 		}

  00053	8b e5		 mov	 esp, ebp
  00055	5d		 pop	 ebp
  00056	c2 04 00	 ret	 4
$LN12@allocate@2:
?allocate@?$allocator@UXMASMONSTER_DATA@@@std@@QAEPAUXMASMONSTER_DATA@@I@Z ENDP ; std::allocator<XMASMONSTER_DATA>::allocate
_TEXT	ENDS
PUBLIC	?allocate@?$allocator@PAVCXMasMonsterHerd@@@std@@QAEPAPAVCXMasMonsterHerd@@I@Z ; std::allocator<CXMasMonsterHerd *>::allocate
; Function compile flags: /Ogtp
;	COMDAT ?allocate@?$allocator@PAVCXMasMonsterHerd@@@std@@QAEPAPAVCXMasMonsterHerd@@I@Z
_TEXT	SEGMENT
$T218035 = -12						; size = 12
$T218027 = 8						; size = 4
__Count$ = 8						; size = 4
?allocate@?$allocator@PAVCXMasMonsterHerd@@@std@@QAEPAPAVCXMasMonsterHerd@@I@Z PROC ; std::allocator<CXMasMonsterHerd *>::allocate, COMDAT
; _this$ = ecx

; 186  : 		{	// allocate array of _Count elements

  00000	55		 push	 ebp
  00001	8b ec		 mov	 ebp, esp

; 187  : 		return (_Allocate(_Count, (pointer)0));

  00003	8b 4d 08	 mov	 ecx, DWORD PTR __Count$[ebp]
  00006	83 ec 0c	 sub	 esp, 12			; 0000000cH
  00009	33 c0		 xor	 eax, eax
  0000b	85 c9		 test	 ecx, ecx
  0000d	74 44		 je	 SHORT $LN1@allocate@3
  0000f	81 f9 ff ff ff
	3f		 cmp	 ecx, 1073741823		; 3fffffffH
  00015	77 14		 ja	 SHORT $LN3@allocate@3
  00017	8d 04 8d 00 00
	00 00		 lea	 eax, DWORD PTR [ecx*4]
  0001e	50		 push	 eax
  0001f	e8 00 00 00 00	 call	 ??2@YAPAXI@Z		; operator new
  00024	83 c4 04	 add	 esp, 4
  00027	85 c0		 test	 eax, eax
  00029	75 28		 jne	 SHORT $LN1@allocate@3
$LN3@allocate@3:
  0002b	8d 4d 08	 lea	 ecx, DWORD PTR $T218027[ebp]
  0002e	51		 push	 ecx
  0002f	8d 4d f4	 lea	 ecx, DWORD PTR $T218035[ebp]
  00032	c7 45 08 00 00
	00 00		 mov	 DWORD PTR $T218027[ebp], 0
  00039	e8 00 00 00 00	 call	 ??0exception@std@@QAE@ABQBD@Z ; std::exception::exception
  0003e	68 00 00 00 00	 push	 OFFSET __TI2?AVbad_alloc@std@@
  00043	8d 55 f4	 lea	 edx, DWORD PTR $T218035[ebp]
  00046	52		 push	 edx
  00047	c7 45 f4 00 00
	00 00		 mov	 DWORD PTR $T218035[ebp], OFFSET ??_7bad_alloc@std@@6B@
  0004e	e8 00 00 00 00	 call	 __CxxThrowException@8
$LN13@allocate@3:
$LN1@allocate@3:

; 188  : 		}

  00053	8b e5		 mov	 esp, ebp
  00055	5d		 pop	 ebp
  00056	c2 04 00	 ret	 4
$LN12@allocate@3:
?allocate@?$allocator@PAVCXMasMonsterHerd@@@std@@QAEPAPAVCXMasMonsterHerd@@I@Z ENDP ; std::allocator<CXMasMonsterHerd *>::allocate
_TEXT	ENDS
PUBLIC	?allocate@?$allocator@UXMASMONSTER_MAP_INFO@@@std@@QAEPAUXMASMONSTER_MAP_INFO@@I@Z ; std::allocator<XMASMONSTER_MAP_INFO>::allocate
; Function compile flags: /Ogtp
;	COMDAT ?allocate@?$allocator@UXMASMONSTER_MAP_INFO@@@std@@QAEPAUXMASMONSTER_MAP_INFO@@I@Z
_TEXT	SEGMENT
$T218058 = -12						; size = 12
$T218050 = 8						; size = 4
__Count$ = 8						; size = 4
?allocate@?$allocator@UXMASMONSTER_MAP_INFO@@@std@@QAEPAUXMASMONSTER_MAP_INFO@@I@Z PROC ; std::allocator<XMASMONSTER_MAP_INFO>::allocate, COMDAT
; _this$ = ecx

; 186  : 		{	// allocate array of _Count elements

  00000	55		 push	 ebp
  00001	8b ec		 mov	 ebp, esp

; 187  : 		return (_Allocate(_Count, (pointer)0));

  00003	8b 4d 08	 mov	 ecx, DWORD PTR __Count$[ebp]
  00006	83 ec 0c	 sub	 esp, 12			; 0000000cH
  00009	33 c0		 xor	 eax, eax
  0000b	85 c9		 test	 ecx, ecx
  0000d	74 44		 je	 SHORT $LN1@allocate@4
  0000f	81 f9 cc cc cc
	0c		 cmp	 ecx, 214748364		; 0cccccccH
  00015	77 14		 ja	 SHORT $LN3@allocate@4
  00017	8d 04 89	 lea	 eax, DWORD PTR [ecx+ecx*4]
  0001a	03 c0		 add	 eax, eax
  0001c	03 c0		 add	 eax, eax
  0001e	50		 push	 eax
  0001f	e8 00 00 00 00	 call	 ??2@YAPAXI@Z		; operator new
  00024	83 c4 04	 add	 esp, 4
  00027	85 c0		 test	 eax, eax
  00029	75 28		 jne	 SHORT $LN1@allocate@4
$LN3@allocate@4:
  0002b	8d 4d 08	 lea	 ecx, DWORD PTR $T218050[ebp]
  0002e	51		 push	 ecx
  0002f	8d 4d f4	 lea	 ecx, DWORD PTR $T218058[ebp]
  00032	c7 45 08 00 00
	00 00		 mov	 DWORD PTR $T218050[ebp], 0
  00039	e8 00 00 00 00	 call	 ??0exception@std@@QAE@ABQBD@Z ; std::exception::exception
  0003e	68 00 00 00 00	 push	 OFFSET __TI2?AVbad_alloc@std@@
  00043	8d 55 f4	 lea	 edx, DWORD PTR $T218058[ebp]
  00046	52		 push	 edx
  00047	c7 45 f4 00 00
	00 00		 mov	 DWORD PTR $T218058[ebp], OFFSET ??_7bad_alloc@std@@6B@
  0004e	e8 00 00 00 00	 call	 __CxxThrowException@8
$LN13@allocate@4:
$LN1@allocate@4:

; 188  : 		}

  00053	8b e5		 mov	 esp, ebp
  00055	5d		 pop	 ebp
  00056	c2 04 00	 ret	 4
$LN12@allocate@4:
?allocate@?$allocator@UXMASMONSTER_MAP_INFO@@@std@@QAEPAUXMASMONSTER_MAP_INFO@@I@Z ENDP ; std::allocator<XMASMONSTER_MAP_INFO>::allocate
_TEXT	ENDS
PUBLIC	??$_Cons_val@V?$allocator@UXMASMONSTER_EVENT_TIME@@@std@@UXMASMONSTER_EVENT_TIME@@ABU3@@std@@YAXAAV?$allocator@UXMASMONSTER_EVENT_TIME@@@0@PAUXMASMONSTER_EVENT_TIME@@ABU2@@Z ; std::_Cons_val<std::allocator<XMASMONSTER_EVENT_TIME>,XMASMONSTER_EVENT_TIME,XMASMONSTER_EVENT_TIME const &>
; Function compile flags: /Ogtp
;	COMDAT ??$_Cons_val@V?$allocator@UXMASMONSTER_EVENT_TIME@@@std@@UXMASMONSTER_EVENT_TIME@@ABU3@@std@@YAXAAV?$allocator@UXMASMONSTER_EVENT_TIME@@@0@PAUXMASMONSTER_EVENT_TIME@@ABU2@@Z
_TEXT	SEGMENT
__Alval$ = 8						; size = 4
__Pdest$ = 12						; size = 4
__Src$ = 16						; size = 4
??$_Cons_val@V?$allocator@UXMASMONSTER_EVENT_TIME@@@std@@UXMASMONSTER_EVENT_TIME@@ABU3@@std@@YAXAAV?$allocator@UXMASMONSTER_EVENT_TIME@@@0@PAUXMASMONSTER_EVENT_TIME@@ABU2@@Z PROC ; std::_Cons_val<std::allocator<XMASMONSTER_EVENT_TIME>,XMASMONSTER_EVENT_TIME,XMASMONSTER_EVENT_TIME const &>, COMDAT

; 279  : 	{	// construct using allocator

  00000	55		 push	 ebp
  00001	8b ec		 mov	 ebp, esp

; 280  : 	_Alval.construct(_Pdest, _STD forward<_Ty2>(_Src));

  00003	8b 45 0c	 mov	 eax, DWORD PTR __Pdest$[ebp]
  00006	85 c0		 test	 eax, eax
  00008	74 0d		 je	 SHORT $LN9@Cons_val@5
  0000a	8b 4d 10	 mov	 ecx, DWORD PTR __Src$[ebp]
  0000d	8b 11		 mov	 edx, DWORD PTR [ecx]
  0000f	89 10		 mov	 DWORD PTR [eax], edx
  00011	8b 49 04	 mov	 ecx, DWORD PTR [ecx+4]
  00014	89 48 04	 mov	 DWORD PTR [eax+4], ecx
$LN9@Cons_val@5:

; 281  : 	}

  00017	5d		 pop	 ebp
  00018	c3		 ret	 0
??$_Cons_val@V?$allocator@UXMASMONSTER_EVENT_TIME@@@std@@UXMASMONSTER_EVENT_TIME@@ABU3@@std@@YAXAAV?$allocator@UXMASMONSTER_EVENT_TIME@@@0@PAUXMASMONSTER_EVENT_TIME@@ABU2@@Z ENDP ; std::_Cons_val<std::allocator<XMASMONSTER_EVENT_TIME>,XMASMONSTER_EVENT_TIME,XMASMONSTER_EVENT_TIME const &>
_TEXT	ENDS
PUBLIC	??$_Cons_val@V?$allocator@UXMASMONSTER_DATA@@@std@@UXMASMONSTER_DATA@@ABU3@@std@@YAXAAV?$allocator@UXMASMONSTER_DATA@@@0@PAUXMASMONSTER_DATA@@ABU2@@Z ; std::_Cons_val<std::allocator<XMASMONSTER_DATA>,XMASMONSTER_DATA,XMASMONSTER_DATA const &>
; Function compile flags: /Ogtp
;	COMDAT ??$_Cons_val@V?$allocator@UXMASMONSTER_DATA@@@std@@UXMASMONSTER_DATA@@ABU3@@std@@YAXAAV?$allocator@UXMASMONSTER_DATA@@@0@PAUXMASMONSTER_DATA@@ABU2@@Z
_TEXT	SEGMENT
__Alval$ = 8						; size = 4
__Pdest$ = 12						; size = 4
__Src$ = 16						; size = 4
??$_Cons_val@V?$allocator@UXMASMONSTER_DATA@@@std@@UXMASMONSTER_DATA@@ABU3@@std@@YAXAAV?$allocator@UXMASMONSTER_DATA@@@0@PAUXMASMONSTER_DATA@@ABU2@@Z PROC ; std::_Cons_val<std::allocator<XMASMONSTER_DATA>,XMASMONSTER_DATA,XMASMONSTER_DATA const &>, COMDAT

; 279  : 	{	// construct using allocator

  00000	55		 push	 ebp
  00001	8b ec		 mov	 ebp, esp

; 280  : 	_Alval.construct(_Pdest, _STD forward<_Ty2>(_Src));

  00003	8b 45 0c	 mov	 eax, DWORD PTR __Pdest$[ebp]
  00006	85 c0		 test	 eax, eax
  00008	74 13		 je	 SHORT $LN9@Cons_val@6
  0000a	8b 4d 10	 mov	 ecx, DWORD PTR __Src$[ebp]
  0000d	8b 11		 mov	 edx, DWORD PTR [ecx]
  0000f	89 10		 mov	 DWORD PTR [eax], edx
  00011	8b 51 04	 mov	 edx, DWORD PTR [ecx+4]
  00014	89 50 04	 mov	 DWORD PTR [eax+4], edx
  00017	8b 49 08	 mov	 ecx, DWORD PTR [ecx+8]
  0001a	89 48 08	 mov	 DWORD PTR [eax+8], ecx
$LN9@Cons_val@6:

; 281  : 	}

  0001d	5d		 pop	 ebp
  0001e	c3		 ret	 0
??$_Cons_val@V?$allocator@UXMASMONSTER_DATA@@@std@@UXMASMONSTER_DATA@@ABU3@@std@@YAXAAV?$allocator@UXMASMONSTER_DATA@@@0@PAUXMASMONSTER_DATA@@ABU2@@Z ENDP ; std::_Cons_val<std::allocator<XMASMONSTER_DATA>,XMASMONSTER_DATA,XMASMONSTER_DATA const &>
_TEXT	ENDS
PUBLIC	??$_Cons_val@V?$allocator@UXMASMONSTER_MAP_INFO@@@std@@UXMASMONSTER_MAP_INFO@@ABU3@@std@@YAXAAV?$allocator@UXMASMONSTER_MAP_INFO@@@0@PAUXMASMONSTER_MAP_INFO@@ABU2@@Z ; std::_Cons_val<std::allocator<XMASMONSTER_MAP_INFO>,XMASMONSTER_MAP_INFO,XMASMONSTER_MAP_INFO const &>
; Function compile flags: /Ogtp
;	COMDAT ??$_Cons_val@V?$allocator@UXMASMONSTER_MAP_INFO@@@std@@UXMASMONSTER_MAP_INFO@@ABU3@@std@@YAXAAV?$allocator@UXMASMONSTER_MAP_INFO@@@0@PAUXMASMONSTER_MAP_INFO@@ABU2@@Z
_TEXT	SEGMENT
__Alval$ = 8						; size = 4
__Pdest$ = 12						; size = 4
__Src$ = 16						; size = 4
??$_Cons_val@V?$allocator@UXMASMONSTER_MAP_INFO@@@std@@UXMASMONSTER_MAP_INFO@@ABU3@@std@@YAXAAV?$allocator@UXMASMONSTER_MAP_INFO@@@0@PAUXMASMONSTER_MAP_INFO@@ABU2@@Z PROC ; std::_Cons_val<std::allocator<XMASMONSTER_MAP_INFO>,XMASMONSTER_MAP_INFO,XMASMONSTER_MAP_INFO const &>, COMDAT

; 279  : 	{	// construct using allocator

  00000	55		 push	 ebp
  00001	8b ec		 mov	 ebp, esp

; 280  : 	_Alval.construct(_Pdest, _STD forward<_Ty2>(_Src));

  00003	8b 45 0c	 mov	 eax, DWORD PTR __Pdest$[ebp]
  00006	85 c0		 test	 eax, eax
  00008	74 1f		 je	 SHORT $LN9@Cons_val@7
  0000a	8b 4d 10	 mov	 ecx, DWORD PTR __Src$[ebp]
  0000d	8b 11		 mov	 edx, DWORD PTR [ecx]
  0000f	89 10		 mov	 DWORD PTR [eax], edx
  00011	8b 51 04	 mov	 edx, DWORD PTR [ecx+4]
  00014	89 50 04	 mov	 DWORD PTR [eax+4], edx
  00017	8b 51 08	 mov	 edx, DWORD PTR [ecx+8]
  0001a	89 50 08	 mov	 DWORD PTR [eax+8], edx
  0001d	8b 51 0c	 mov	 edx, DWORD PTR [ecx+12]
  00020	89 50 0c	 mov	 DWORD PTR [eax+12], edx
  00023	8b 49 10	 mov	 ecx, DWORD PTR [ecx+16]
  00026	89 48 10	 mov	 DWORD PTR [eax+16], ecx
$LN9@Cons_val@7:

; 281  : 	}

  00029	5d		 pop	 ebp
  0002a	c3		 ret	 0
??$_Cons_val@V?$allocator@UXMASMONSTER_MAP_INFO@@@std@@UXMASMONSTER_MAP_INFO@@ABU3@@std@@YAXAAV?$allocator@UXMASMONSTER_MAP_INFO@@@0@PAUXMASMONSTER_MAP_INFO@@ABU2@@Z ENDP ; std::_Cons_val<std::allocator<XMASMONSTER_MAP_INFO>,XMASMONSTER_MAP_INFO,XMASMONSTER_MAP_INFO const &>
_TEXT	ENDS
PUBLIC	??$_Umove@PAPAVCXMasMonsterHerd@@@?$vector@PAVCXMasMonsterHerd@@V?$allocator@PAVCXMasMonsterHerd@@@std@@@std@@IAEPAPAVCXMasMonsterHerd@@PAPAV2@00@Z ; std::vector<CXMasMonsterHerd *,std::allocator<CXMasMonsterHerd *> >::_Umove<CXMasMonsterHerd * *>
; Function compile flags: /Ogtp
; File d:\program files (x86)\microsoft visual studio 10.0\vc\include\vector
;	COMDAT ??$_Umove@PAPAVCXMasMonsterHerd@@@?$vector@PAVCXMasMonsterHerd@@V?$allocator@PAVCXMasMonsterHerd@@@std@@@std@@IAEPAPAVCXMasMonsterHerd@@PAPAV2@00@Z
_TEXT	SEGMENT
__First$ = 8						; size = 4
__Last$ = 12						; size = 4
__Ptr$ = 16						; size = 4
??$_Umove@PAPAVCXMasMonsterHerd@@@?$vector@PAVCXMasMonsterHerd@@V?$allocator@PAVCXMasMonsterHerd@@@std@@@std@@IAEPAPAVCXMasMonsterHerd@@PAPAV2@00@Z PROC ; std::vector<CXMasMonsterHerd *,std::allocator<CXMasMonsterHerd *> >::_Umove<CXMasMonsterHerd * *>, COMDAT
; _this$ = ecx

; 1322 : 		pointer _Umove(_Iter _First, _Iter _Last, pointer _Ptr)

  00000	55		 push	 ebp
  00001	8b ec		 mov	 ebp, esp

; 1323 : 		{	// move initializing [_First, _Last), using allocator
; 1324 : 		return (_Uninitialized_move(_First, _Last,
; 1325 : 			_Ptr, this->_Alval));

  00003	8b 4d 08	 mov	 ecx, DWORD PTR __First$[ebp]
  00006	8b 45 0c	 mov	 eax, DWORD PTR __Last$[ebp]
  00009	2b c1		 sub	 eax, ecx
  0000b	56		 push	 esi
  0000c	c1 f8 02	 sar	 eax, 2
  0000f	8d 34 85 00 00
	00 00		 lea	 esi, DWORD PTR [eax*4]
  00016	8b 45 10	 mov	 eax, DWORD PTR __Ptr$[ebp]
  00019	56		 push	 esi
  0001a	51		 push	 ecx
  0001b	50		 push	 eax
  0001c	e8 00 00 00 00	 call	 _memmove
  00021	83 c4 0c	 add	 esp, 12			; 0000000cH
  00024	03 c6		 add	 eax, esi
  00026	5e		 pop	 esi

; 1326 : 		}

  00027	5d		 pop	 ebp
  00028	c2 0c 00	 ret	 12			; 0000000cH
??$_Umove@PAPAVCXMasMonsterHerd@@@?$vector@PAVCXMasMonsterHerd@@V?$allocator@PAVCXMasMonsterHerd@@@std@@@std@@IAEPAPAVCXMasMonsterHerd@@PAPAV2@00@Z ENDP ; std::vector<CXMasMonsterHerd *,std::allocator<CXMasMonsterHerd *> >::_Umove<CXMasMonsterHerd * *>
_TEXT	ENDS
PUBLIC	??$_Dest_val@V?$allocator@UXMASMONSTER_MAP_INFO@@@std@@UXMASMONSTER_MAP_INFO@@@std@@YAXAAV?$allocator@UXMASMONSTER_MAP_INFO@@@0@PAUXMASMONSTER_MAP_INFO@@@Z ; std::_Dest_val<std::allocator<XMASMONSTER_MAP_INFO>,XMASMONSTER_MAP_INFO>
; Function compile flags: /Ogtp
; File d:\program files (x86)\microsoft visual studio 10.0\vc\include\xmemory
;	COMDAT ??$_Dest_val@V?$allocator@UXMASMONSTER_MAP_INFO@@@std@@UXMASMONSTER_MAP_INFO@@@std@@YAXAAV?$allocator@UXMASMONSTER_MAP_INFO@@@0@PAUXMASMONSTER_MAP_INFO@@@Z
_TEXT	SEGMENT
__Alval$ = 8						; size = 4
__Pdest$ = 12						; size = 4
??$_Dest_val@V?$allocator@UXMASMONSTER_MAP_INFO@@@std@@UXMASMONSTER_MAP_INFO@@@std@@YAXAAV?$allocator@UXMASMONSTER_MAP_INFO@@@0@PAUXMASMONSTER_MAP_INFO@@@Z PROC ; std::_Dest_val<std::allocator<XMASMONSTER_MAP_INFO>,XMASMONSTER_MAP_INFO>, COMDAT

; 287  : 	_Alval.destroy(_Pdest);
; 288  : 	}

  00000	c3		 ret	 0
??$_Dest_val@V?$allocator@UXMASMONSTER_MAP_INFO@@@std@@UXMASMONSTER_MAP_INFO@@@std@@YAXAAV?$allocator@UXMASMONSTER_MAP_INFO@@@0@PAUXMASMONSTER_MAP_INFO@@@Z ENDP ; std::_Dest_val<std::allocator<XMASMONSTER_MAP_INFO>,XMASMONSTER_MAP_INFO>
_TEXT	ENDS
PUBLIC	??$_Dest_val@V?$allocator@UXMASMONSTER_EVENT_TIME@@@std@@UXMASMONSTER_EVENT_TIME@@@std@@YAXAAV?$allocator@UXMASMONSTER_EVENT_TIME@@@0@PAUXMASMONSTER_EVENT_TIME@@@Z ; std::_Dest_val<std::allocator<XMASMONSTER_EVENT_TIME>,XMASMONSTER_EVENT_TIME>
; Function compile flags: /Ogtp
;	COMDAT ??$_Dest_val@V?$allocator@UXMASMONSTER_EVENT_TIME@@@std@@UXMASMONSTER_EVENT_TIME@@@std@@YAXAAV?$allocator@UXMASMONSTER_EVENT_TIME@@@0@PAUXMASMONSTER_EVENT_TIME@@@Z
_TEXT	SEGMENT
__Alval$ = 8						; size = 4
__Pdest$ = 12						; size = 4
??$_Dest_val@V?$allocator@UXMASMONSTER_EVENT_TIME@@@std@@UXMASMONSTER_EVENT_TIME@@@std@@YAXAAV?$allocator@UXMASMONSTER_EVENT_TIME@@@0@PAUXMASMONSTER_EVENT_TIME@@@Z PROC ; std::_Dest_val<std::allocator<XMASMONSTER_EVENT_TIME>,XMASMONSTER_EVENT_TIME>, COMDAT

; 287  : 	_Alval.destroy(_Pdest);
; 288  : 	}

  00000	c3		 ret	 0
??$_Dest_val@V?$allocator@UXMASMONSTER_EVENT_TIME@@@std@@UXMASMONSTER_EVENT_TIME@@@std@@YAXAAV?$allocator@UXMASMONSTER_EVENT_TIME@@@0@PAUXMASMONSTER_EVENT_TIME@@@Z ENDP ; std::_Dest_val<std::allocator<XMASMONSTER_EVENT_TIME>,XMASMONSTER_EVENT_TIME>
_TEXT	ENDS
PUBLIC	??$_Dest_val@V?$allocator@UXMASMONSTER_DATA@@@std@@UXMASMONSTER_DATA@@@std@@YAXAAV?$allocator@UXMASMONSTER_DATA@@@0@PAUXMASMONSTER_DATA@@@Z ; std::_Dest_val<std::allocator<XMASMONSTER_DATA>,XMASMONSTER_DATA>
; Function compile flags: /Ogtp
;	COMDAT ??$_Dest_val@V?$allocator@UXMASMONSTER_DATA@@@std@@UXMASMONSTER_DATA@@@std@@YAXAAV?$allocator@UXMASMONSTER_DATA@@@0@PAUXMASMONSTER_DATA@@@Z
_TEXT	SEGMENT
__Alval$ = 8						; size = 4
__Pdest$ = 12						; size = 4
??$_Dest_val@V?$allocator@UXMASMONSTER_DATA@@@std@@UXMASMONSTER_DATA@@@std@@YAXAAV?$allocator@UXMASMONSTER_DATA@@@0@PAUXMASMONSTER_DATA@@@Z PROC ; std::_Dest_val<std::allocator<XMASMONSTER_DATA>,XMASMONSTER_DATA>, COMDAT

; 287  : 	_Alval.destroy(_Pdest);
; 288  : 	}

  00000	c3		 ret	 0
??$_Dest_val@V?$allocator@UXMASMONSTER_DATA@@@std@@UXMASMONSTER_DATA@@@std@@YAXAAV?$allocator@UXMASMONSTER_DATA@@@0@PAUXMASMONSTER_DATA@@@Z ENDP ; std::_Dest_val<std::allocator<XMASMONSTER_DATA>,XMASMONSTER_DATA>
_TEXT	ENDS
PUBLIC	??$_Cons_val@V?$allocator@UXMASMONSTER_EVENT_TIME@@@std@@UXMASMONSTER_EVENT_TIME@@U3@@std@@YAXAAV?$allocator@UXMASMONSTER_EVENT_TIME@@@0@PAUXMASMONSTER_EVENT_TIME@@$$QAU2@@Z ; std::_Cons_val<std::allocator<XMASMONSTER_EVENT_TIME>,XMASMONSTER_EVENT_TIME,XMASMONSTER_EVENT_TIME>
; Function compile flags: /Ogtp
;	COMDAT ??$_Cons_val@V?$allocator@UXMASMONSTER_EVENT_TIME@@@std@@UXMASMONSTER_EVENT_TIME@@U3@@std@@YAXAAV?$allocator@UXMASMONSTER_EVENT_TIME@@@0@PAUXMASMONSTER_EVENT_TIME@@$$QAU2@@Z
_TEXT	SEGMENT
__Alval$ = 8						; size = 4
__Pdest$ = 12						; size = 4
__Src$ = 16						; size = 4
??$_Cons_val@V?$allocator@UXMASMONSTER_EVENT_TIME@@@std@@UXMASMONSTER_EVENT_TIME@@U3@@std@@YAXAAV?$allocator@UXMASMONSTER_EVENT_TIME@@@0@PAUXMASMONSTER_EVENT_TIME@@$$QAU2@@Z PROC ; std::_Cons_val<std::allocator<XMASMONSTER_EVENT_TIME>,XMASMONSTER_EVENT_TIME,XMASMONSTER_EVENT_TIME>, COMDAT

; 279  : 	{	// construct using allocator

  00000	55		 push	 ebp
  00001	8b ec		 mov	 ebp, esp

; 280  : 	_Alval.construct(_Pdest, _STD forward<_Ty2>(_Src));

  00003	8b 45 0c	 mov	 eax, DWORD PTR __Pdest$[ebp]
  00006	85 c0		 test	 eax, eax
  00008	74 0d		 je	 SHORT $LN7@Cons_val@8
  0000a	8b 4d 10	 mov	 ecx, DWORD PTR __Src$[ebp]
  0000d	8b 11		 mov	 edx, DWORD PTR [ecx]
  0000f	89 10		 mov	 DWORD PTR [eax], edx
  00011	8b 49 04	 mov	 ecx, DWORD PTR [ecx+4]
  00014	89 48 04	 mov	 DWORD PTR [eax+4], ecx
$LN7@Cons_val@8:

; 281  : 	}

  00017	5d		 pop	 ebp
  00018	c3		 ret	 0
??$_Cons_val@V?$allocator@UXMASMONSTER_EVENT_TIME@@@std@@UXMASMONSTER_EVENT_TIME@@U3@@std@@YAXAAV?$allocator@UXMASMONSTER_EVENT_TIME@@@0@PAUXMASMONSTER_EVENT_TIME@@$$QAU2@@Z ENDP ; std::_Cons_val<std::allocator<XMASMONSTER_EVENT_TIME>,XMASMONSTER_EVENT_TIME,XMASMONSTER_EVENT_TIME>
_TEXT	ENDS
PUBLIC	??$_Cons_val@V?$allocator@UXMASMONSTER_DATA@@@std@@UXMASMONSTER_DATA@@U3@@std@@YAXAAV?$allocator@UXMASMONSTER_DATA@@@0@PAUXMASMONSTER_DATA@@$$QAU2@@Z ; std::_Cons_val<std::allocator<XMASMONSTER_DATA>,XMASMONSTER_DATA,XMASMONSTER_DATA>
; Function compile flags: /Ogtp
;	COMDAT ??$_Cons_val@V?$allocator@UXMASMONSTER_DATA@@@std@@UXMASMONSTER_DATA@@U3@@std@@YAXAAV?$allocator@UXMASMONSTER_DATA@@@0@PAUXMASMONSTER_DATA@@$$QAU2@@Z
_TEXT	SEGMENT
__Alval$ = 8						; size = 4
__Pdest$ = 12						; size = 4
__Src$ = 16						; size = 4
??$_Cons_val@V?$allocator@UXMASMONSTER_DATA@@@std@@UXMASMONSTER_DATA@@U3@@std@@YAXAAV?$allocator@UXMASMONSTER_DATA@@@0@PAUXMASMONSTER_DATA@@$$QAU2@@Z PROC ; std::_Cons_val<std::allocator<XMASMONSTER_DATA>,XMASMONSTER_DATA,XMASMONSTER_DATA>, COMDAT

; 279  : 	{	// construct using allocator

  00000	55		 push	 ebp
  00001	8b ec		 mov	 ebp, esp

; 280  : 	_Alval.construct(_Pdest, _STD forward<_Ty2>(_Src));

  00003	8b 45 0c	 mov	 eax, DWORD PTR __Pdest$[ebp]
  00006	85 c0		 test	 eax, eax
  00008	74 13		 je	 SHORT $LN7@Cons_val@9
  0000a	8b 4d 10	 mov	 ecx, DWORD PTR __Src$[ebp]
  0000d	8b 11		 mov	 edx, DWORD PTR [ecx]
  0000f	89 10		 mov	 DWORD PTR [eax], edx
  00011	8b 51 04	 mov	 edx, DWORD PTR [ecx+4]
  00014	89 50 04	 mov	 DWORD PTR [eax+4], edx
  00017	8b 49 08	 mov	 ecx, DWORD PTR [ecx+8]
  0001a	89 48 08	 mov	 DWORD PTR [eax+8], ecx
$LN7@Cons_val@9:

; 281  : 	}

  0001d	5d		 pop	 ebp
  0001e	c3		 ret	 0
??$_Cons_val@V?$allocator@UXMASMONSTER_DATA@@@std@@UXMASMONSTER_DATA@@U3@@std@@YAXAAV?$allocator@UXMASMONSTER_DATA@@@0@PAUXMASMONSTER_DATA@@$$QAU2@@Z ENDP ; std::_Cons_val<std::allocator<XMASMONSTER_DATA>,XMASMONSTER_DATA,XMASMONSTER_DATA>
_TEXT	ENDS
PUBLIC	??$_Cons_val@V?$allocator@UXMASMONSTER_MAP_INFO@@@std@@UXMASMONSTER_MAP_INFO@@U3@@std@@YAXAAV?$allocator@UXMASMONSTER_MAP_INFO@@@0@PAUXMASMONSTER_MAP_INFO@@$$QAU2@@Z ; std::_Cons_val<std::allocator<XMASMONSTER_MAP_INFO>,XMASMONSTER_MAP_INFO,XMASMONSTER_MAP_INFO>
; Function compile flags: /Ogtp
;	COMDAT ??$_Cons_val@V?$allocator@UXMASMONSTER_MAP_INFO@@@std@@UXMASMONSTER_MAP_INFO@@U3@@std@@YAXAAV?$allocator@UXMASMONSTER_MAP_INFO@@@0@PAUXMASMONSTER_MAP_INFO@@$$QAU2@@Z
_TEXT	SEGMENT
__Alval$ = 8						; size = 4
__Pdest$ = 12						; size = 4
__Src$ = 16						; size = 4
??$_Cons_val@V?$allocator@UXMASMONSTER_MAP_INFO@@@std@@UXMASMONSTER_MAP_INFO@@U3@@std@@YAXAAV?$allocator@UXMASMONSTER_MAP_INFO@@@0@PAUXMASMONSTER_MAP_INFO@@$$QAU2@@Z PROC ; std::_Cons_val<std::allocator<XMASMONSTER_MAP_INFO>,XMASMONSTER_MAP_INFO,XMASMONSTER_MAP_INFO>, COMDAT

; 279  : 	{	// construct using allocator

  00000	55		 push	 ebp
  00001	8b ec		 mov	 ebp, esp

; 280  : 	_Alval.construct(_Pdest, _STD forward<_Ty2>(_Src));

  00003	8b 45 0c	 mov	 eax, DWORD PTR __Pdest$[ebp]
  00006	85 c0		 test	 eax, eax
  00008	74 1f		 je	 SHORT $LN7@Cons_val@10
  0000a	8b 4d 10	 mov	 ecx, DWORD PTR __Src$[ebp]
  0000d	8b 11		 mov	 edx, DWORD PTR [ecx]
  0000f	89 10		 mov	 DWORD PTR [eax], edx
  00011	8b 51 04	 mov	 edx, DWORD PTR [ecx+4]
  00014	89 50 04	 mov	 DWORD PTR [eax+4], edx
  00017	8b 51 08	 mov	 edx, DWORD PTR [ecx+8]
  0001a	89 50 08	 mov	 DWORD PTR [eax+8], edx
  0001d	8b 51 0c	 mov	 edx, DWORD PTR [ecx+12]
  00020	89 50 0c	 mov	 DWORD PTR [eax+12], edx
  00023	8b 49 10	 mov	 ecx, DWORD PTR [ecx+16]
  00026	89 48 10	 mov	 DWORD PTR [eax+16], ecx
$LN7@Cons_val@10:

; 281  : 	}

  00029	5d		 pop	 ebp
  0002a	c3		 ret	 0
??$_Cons_val@V?$allocator@UXMASMONSTER_MAP_INFO@@@std@@UXMASMONSTER_MAP_INFO@@U3@@std@@YAXAAV?$allocator@UXMASMONSTER_MAP_INFO@@@0@PAUXMASMONSTER_MAP_INFO@@$$QAU2@@Z ENDP ; std::_Cons_val<std::allocator<XMASMONSTER_MAP_INFO>,XMASMONSTER_MAP_INFO,XMASMONSTER_MAP_INFO>
_TEXT	ENDS
PUBLIC	?begin@?$vector@UXMASMONSTER_EVENT_TIME@@V?$allocator@UXMASMONSTER_EVENT_TIME@@@std@@@std@@QAE?AV?$_Vector_iterator@V?$_Vector_val@UXMASMONSTER_EVENT_TIME@@V?$allocator@UXMASMONSTER_EVENT_TIME@@@std@@@std@@@2@XZ ; std::vector<XMASMONSTER_EVENT_TIME,std::allocator<XMASMONSTER_EVENT_TIME> >::begin
; Function compile flags: /Ogtp
; File d:\program files (x86)\microsoft visual studio 10.0\vc\include\vector
;	COMDAT ?begin@?$vector@UXMASMONSTER_EVENT_TIME@@V?$allocator@UXMASMONSTER_EVENT_TIME@@@std@@@std@@QAE?AV?$_Vector_iterator@V?$_Vector_val@UXMASMONSTER_EVENT_TIME@@V?$allocator@UXMASMONSTER_EVENT_TIME@@@std@@@std@@@2@XZ
_TEXT	SEGMENT
___$ReturnUdt$ = 8					; size = 4
?begin@?$vector@UXMASMONSTER_EVENT_TIME@@V?$allocator@UXMASMONSTER_EVENT_TIME@@@std@@@std@@QAE?AV?$_Vector_iterator@V?$_Vector_val@UXMASMONSTER_EVENT_TIME@@V?$allocator@UXMASMONSTER_EVENT_TIME@@@std@@@std@@@2@XZ PROC ; std::vector<XMASMONSTER_EVENT_TIME,std::allocator<XMASMONSTER_EVENT_TIME> >::begin, COMDAT
; _this$ = ecx

; 781  : 		{	// return iterator for beginning of mutable sequence

  00000	55		 push	 ebp
  00001	8b ec		 mov	 ebp, esp

; 782  : 		return (iterator(this->_Myfirst, this));

  00003	8b 09		 mov	 ecx, DWORD PTR [ecx]
  00005	8b 45 08	 mov	 eax, DWORD PTR ___$ReturnUdt$[ebp]
  00008	89 08		 mov	 DWORD PTR [eax], ecx

; 783  : 		}

  0000a	5d		 pop	 ebp
  0000b	c2 04 00	 ret	 4
?begin@?$vector@UXMASMONSTER_EVENT_TIME@@V?$allocator@UXMASMONSTER_EVENT_TIME@@@std@@@std@@QAE?AV?$_Vector_iterator@V?$_Vector_val@UXMASMONSTER_EVENT_TIME@@V?$allocator@UXMASMONSTER_EVENT_TIME@@@std@@@std@@@2@XZ ENDP ; std::vector<XMASMONSTER_EVENT_TIME,std::allocator<XMASMONSTER_EVENT_TIME> >::begin
_TEXT	ENDS
PUBLIC	?end@?$vector@UXMASMONSTER_EVENT_TIME@@V?$allocator@UXMASMONSTER_EVENT_TIME@@@std@@@std@@QAE?AV?$_Vector_iterator@V?$_Vector_val@UXMASMONSTER_EVENT_TIME@@V?$allocator@UXMASMONSTER_EVENT_TIME@@@std@@@std@@@2@XZ ; std::vector<XMASMONSTER_EVENT_TIME,std::allocator<XMASMONSTER_EVENT_TIME> >::end
; Function compile flags: /Ogtp
;	COMDAT ?end@?$vector@UXMASMONSTER_EVENT_TIME@@V?$allocator@UXMASMONSTER_EVENT_TIME@@@std@@@std@@QAE?AV?$_Vector_iterator@V?$_Vector_val@UXMASMONSTER_EVENT_TIME@@V?$allocator@UXMASMONSTER_EVENT_TIME@@@std@@@std@@@2@XZ
_TEXT	SEGMENT
___$ReturnUdt$ = 8					; size = 4
?end@?$vector@UXMASMONSTER_EVENT_TIME@@V?$allocator@UXMASMONSTER_EVENT_TIME@@@std@@@std@@QAE?AV?$_Vector_iterator@V?$_Vector_val@UXMASMONSTER_EVENT_TIME@@V?$allocator@UXMASMONSTER_EVENT_TIME@@@std@@@std@@@2@XZ PROC ; std::vector<XMASMONSTER_EVENT_TIME,std::allocator<XMASMONSTER_EVENT_TIME> >::end, COMDAT
; _this$ = ecx

; 791  : 		{	// return iterator for end of mutable sequence

  00000	55		 push	 ebp
  00001	8b ec		 mov	 ebp, esp

; 792  : 		return (iterator(this->_Mylast, this));

  00003	8b 49 04	 mov	 ecx, DWORD PTR [ecx+4]
  00006	8b 45 08	 mov	 eax, DWORD PTR ___$ReturnUdt$[ebp]
  00009	89 08		 mov	 DWORD PTR [eax], ecx

; 793  : 		}

  0000b	5d		 pop	 ebp
  0000c	c2 04 00	 ret	 4
?end@?$vector@UXMASMONSTER_EVENT_TIME@@V?$allocator@UXMASMONSTER_EVENT_TIME@@@std@@@std@@QAE?AV?$_Vector_iterator@V?$_Vector_val@UXMASMONSTER_EVENT_TIME@@V?$allocator@UXMASMONSTER_EVENT_TIME@@@std@@@std@@@2@XZ ENDP ; std::vector<XMASMONSTER_EVENT_TIME,std::allocator<XMASMONSTER_EVENT_TIME> >::end
_TEXT	ENDS
PUBLIC	?begin@?$vector@UXMASMONSTER_DATA@@V?$allocator@UXMASMONSTER_DATA@@@std@@@std@@QAE?AV?$_Vector_iterator@V?$_Vector_val@UXMASMONSTER_DATA@@V?$allocator@UXMASMONSTER_DATA@@@std@@@std@@@2@XZ ; std::vector<XMASMONSTER_DATA,std::allocator<XMASMONSTER_DATA> >::begin
; Function compile flags: /Ogtp
;	COMDAT ?begin@?$vector@UXMASMONSTER_DATA@@V?$allocator@UXMASMONSTER_DATA@@@std@@@std@@QAE?AV?$_Vector_iterator@V?$_Vector_val@UXMASMONSTER_DATA@@V?$allocator@UXMASMONSTER_DATA@@@std@@@std@@@2@XZ
_TEXT	SEGMENT
___$ReturnUdt$ = 8					; size = 4
?begin@?$vector@UXMASMONSTER_DATA@@V?$allocator@UXMASMONSTER_DATA@@@std@@@std@@QAE?AV?$_Vector_iterator@V?$_Vector_val@UXMASMONSTER_DATA@@V?$allocator@UXMASMONSTER_DATA@@@std@@@std@@@2@XZ PROC ; std::vector<XMASMONSTER_DATA,std::allocator<XMASMONSTER_DATA> >::begin, COMDAT
; _this$ = ecx

; 781  : 		{	// return iterator for beginning of mutable sequence

  00000	55		 push	 ebp
  00001	8b ec		 mov	 ebp, esp

; 782  : 		return (iterator(this->_Myfirst, this));

  00003	8b 09		 mov	 ecx, DWORD PTR [ecx]
  00005	8b 45 08	 mov	 eax, DWORD PTR ___$ReturnUdt$[ebp]
  00008	89 08		 mov	 DWORD PTR [eax], ecx

; 783  : 		}

  0000a	5d		 pop	 ebp
  0000b	c2 04 00	 ret	 4
?begin@?$vector@UXMASMONSTER_DATA@@V?$allocator@UXMASMONSTER_DATA@@@std@@@std@@QAE?AV?$_Vector_iterator@V?$_Vector_val@UXMASMONSTER_DATA@@V?$allocator@UXMASMONSTER_DATA@@@std@@@std@@@2@XZ ENDP ; std::vector<XMASMONSTER_DATA,std::allocator<XMASMONSTER_DATA> >::begin
_TEXT	ENDS
PUBLIC	?end@?$vector@UXMASMONSTER_DATA@@V?$allocator@UXMASMONSTER_DATA@@@std@@@std@@QAE?AV?$_Vector_iterator@V?$_Vector_val@UXMASMONSTER_DATA@@V?$allocator@UXMASMONSTER_DATA@@@std@@@std@@@2@XZ ; std::vector<XMASMONSTER_DATA,std::allocator<XMASMONSTER_DATA> >::end
; Function compile flags: /Ogtp
;	COMDAT ?end@?$vector@UXMASMONSTER_DATA@@V?$allocator@UXMASMONSTER_DATA@@@std@@@std@@QAE?AV?$_Vector_iterator@V?$_Vector_val@UXMASMONSTER_DATA@@V?$allocator@UXMASMONSTER_DATA@@@std@@@std@@@2@XZ
_TEXT	SEGMENT
___$ReturnUdt$ = 8					; size = 4
?end@?$vector@UXMASMONSTER_DATA@@V?$allocator@UXMASMONSTER_DATA@@@std@@@std@@QAE?AV?$_Vector_iterator@V?$_Vector_val@UXMASMONSTER_DATA@@V?$allocator@UXMASMONSTER_DATA@@@std@@@std@@@2@XZ PROC ; std::vector<XMASMONSTER_DATA,std::allocator<XMASMONSTER_DATA> >::end, COMDAT
; _this$ = ecx

; 791  : 		{	// return iterator for end of mutable sequence

  00000	55		 push	 ebp
  00001	8b ec		 mov	 ebp, esp

; 792  : 		return (iterator(this->_Mylast, this));

  00003	8b 49 04	 mov	 ecx, DWORD PTR [ecx+4]
  00006	8b 45 08	 mov	 eax, DWORD PTR ___$ReturnUdt$[ebp]
  00009	89 08		 mov	 DWORD PTR [eax], ecx

; 793  : 		}

  0000b	5d		 pop	 ebp
  0000c	c2 04 00	 ret	 4
?end@?$vector@UXMASMONSTER_DATA@@V?$allocator@UXMASMONSTER_DATA@@@std@@@std@@QAE?AV?$_Vector_iterator@V?$_Vector_val@UXMASMONSTER_DATA@@V?$allocator@UXMASMONSTER_DATA@@@std@@@std@@@2@XZ ENDP ; std::vector<XMASMONSTER_DATA,std::allocator<XMASMONSTER_DATA> >::end
_TEXT	ENDS
PUBLIC	?begin@?$vector@PAVCXMasMonsterHerd@@V?$allocator@PAVCXMasMonsterHerd@@@std@@@std@@QAE?AV?$_Vector_iterator@V?$_Vector_val@PAVCXMasMonsterHerd@@V?$allocator@PAVCXMasMonsterHerd@@@std@@@std@@@2@XZ ; std::vector<CXMasMonsterHerd *,std::allocator<CXMasMonsterHerd *> >::begin
; Function compile flags: /Ogtp
;	COMDAT ?begin@?$vector@PAVCXMasMonsterHerd@@V?$allocator@PAVCXMasMonsterHerd@@@std@@@std@@QAE?AV?$_Vector_iterator@V?$_Vector_val@PAVCXMasMonsterHerd@@V?$allocator@PAVCXMasMonsterHerd@@@std@@@std@@@2@XZ
_TEXT	SEGMENT
___$ReturnUdt$ = 8					; size = 4
?begin@?$vector@PAVCXMasMonsterHerd@@V?$allocator@PAVCXMasMonsterHerd@@@std@@@std@@QAE?AV?$_Vector_iterator@V?$_Vector_val@PAVCXMasMonsterHerd@@V?$allocator@PAVCXMasMonsterHerd@@@std@@@std@@@2@XZ PROC ; std::vector<CXMasMonsterHerd *,std::allocator<CXMasMonsterHerd *> >::begin, COMDAT
; _this$ = ecx

; 781  : 		{	// return iterator for beginning of mutable sequence

  00000	55		 push	 ebp
  00001	8b ec		 mov	 ebp, esp

; 782  : 		return (iterator(this->_Myfirst, this));

  00003	8b 09		 mov	 ecx, DWORD PTR [ecx]
  00005	8b 45 08	 mov	 eax, DWORD PTR ___$ReturnUdt$[ebp]
  00008	89 08		 mov	 DWORD PTR [eax], ecx

; 783  : 		}

  0000a	5d		 pop	 ebp
  0000b	c2 04 00	 ret	 4
?begin@?$vector@PAVCXMasMonsterHerd@@V?$allocator@PAVCXMasMonsterHerd@@@std@@@std@@QAE?AV?$_Vector_iterator@V?$_Vector_val@PAVCXMasMonsterHerd@@V?$allocator@PAVCXMasMonsterHerd@@@std@@@std@@@2@XZ ENDP ; std::vector<CXMasMonsterHerd *,std::allocator<CXMasMonsterHerd *> >::begin
_TEXT	ENDS
PUBLIC	?end@?$vector@PAVCXMasMonsterHerd@@V?$allocator@PAVCXMasMonsterHerd@@@std@@@std@@QAE?AV?$_Vector_iterator@V?$_Vector_val@PAVCXMasMonsterHerd@@V?$allocator@PAVCXMasMonsterHerd@@@std@@@std@@@2@XZ ; std::vector<CXMasMonsterHerd *,std::allocator<CXMasMonsterHerd *> >::end
; Function compile flags: /Ogtp
;	COMDAT ?end@?$vector@PAVCXMasMonsterHerd@@V?$allocator@PAVCXMasMonsterHerd@@@std@@@std@@QAE?AV?$_Vector_iterator@V?$_Vector_val@PAVCXMasMonsterHerd@@V?$allocator@PAVCXMasMonsterHerd@@@std@@@std@@@2@XZ
_TEXT	SEGMENT
___$ReturnUdt$ = 8					; size = 4
?end@?$vector@PAVCXMasMonsterHerd@@V?$allocator@PAVCXMasMonsterHerd@@@std@@@std@@QAE?AV?$_Vector_iterator@V?$_Vector_val@PAVCXMasMonsterHerd@@V?$allocator@PAVCXMasMonsterHerd@@@std@@@std@@@2@XZ PROC ; std::vector<CXMasMonsterHerd *,std::allocator<CXMasMonsterHerd *> >::end, COMDAT
; _this$ = ecx

; 791  : 		{	// return iterator for end of mutable sequence

  00000	55		 push	 ebp
  00001	8b ec		 mov	 ebp, esp

; 792  : 		return (iterator(this->_Mylast, this));

  00003	8b 49 04	 mov	 ecx, DWORD PTR [ecx+4]
  00006	8b 45 08	 mov	 eax, DWORD PTR ___$ReturnUdt$[ebp]
  00009	89 08		 mov	 DWORD PTR [eax], ecx

; 793  : 		}

  0000b	5d		 pop	 ebp
  0000c	c2 04 00	 ret	 4
?end@?$vector@PAVCXMasMonsterHerd@@V?$allocator@PAVCXMasMonsterHerd@@@std@@@std@@QAE?AV?$_Vector_iterator@V?$_Vector_val@PAVCXMasMonsterHerd@@V?$allocator@PAVCXMasMonsterHerd@@@std@@@std@@@2@XZ ENDP ; std::vector<CXMasMonsterHerd *,std::allocator<CXMasMonsterHerd *> >::end
_TEXT	ENDS
PUBLIC	?begin@?$vector@UXMASMONSTER_MAP_INFO@@V?$allocator@UXMASMONSTER_MAP_INFO@@@std@@@std@@QAE?AV?$_Vector_iterator@V?$_Vector_val@UXMASMONSTER_MAP_INFO@@V?$allocator@UXMASMONSTER_MAP_INFO@@@std@@@std@@@2@XZ ; std::vector<XMASMONSTER_MAP_INFO,std::allocator<XMASMONSTER_MAP_INFO> >::begin
; Function compile flags: /Ogtp
;	COMDAT ?begin@?$vector@UXMASMONSTER_MAP_INFO@@V?$allocator@UXMASMONSTER_MAP_INFO@@@std@@@std@@QAE?AV?$_Vector_iterator@V?$_Vector_val@UXMASMONSTER_MAP_INFO@@V?$allocator@UXMASMONSTER_MAP_INFO@@@std@@@std@@@2@XZ
_TEXT	SEGMENT
___$ReturnUdt$ = 8					; size = 4
?begin@?$vector@UXMASMONSTER_MAP_INFO@@V?$allocator@UXMASMONSTER_MAP_INFO@@@std@@@std@@QAE?AV?$_Vector_iterator@V?$_Vector_val@UXMASMONSTER_MAP_INFO@@V?$allocator@UXMASMONSTER_MAP_INFO@@@std@@@std@@@2@XZ PROC ; std::vector<XMASMONSTER_MAP_INFO,std::allocator<XMASMONSTER_MAP_INFO> >::begin, COMDAT
; _this$ = ecx

; 781  : 		{	// return iterator for beginning of mutable sequence

  00000	55		 push	 ebp
  00001	8b ec		 mov	 ebp, esp

; 782  : 		return (iterator(this->_Myfirst, this));

  00003	8b 09		 mov	 ecx, DWORD PTR [ecx]
  00005	8b 45 08	 mov	 eax, DWORD PTR ___$ReturnUdt$[ebp]
  00008	89 08		 mov	 DWORD PTR [eax], ecx

; 783  : 		}

  0000a	5d		 pop	 ebp
  0000b	c2 04 00	 ret	 4
?begin@?$vector@UXMASMONSTER_MAP_INFO@@V?$allocator@UXMASMONSTER_MAP_INFO@@@std@@@std@@QAE?AV?$_Vector_iterator@V?$_Vector_val@UXMASMONSTER_MAP_INFO@@V?$allocator@UXMASMONSTER_MAP_INFO@@@std@@@std@@@2@XZ ENDP ; std::vector<XMASMONSTER_MAP_INFO,std::allocator<XMASMONSTER_MAP_INFO> >::begin
_TEXT	ENDS
PUBLIC	?end@?$vector@UXMASMONSTER_MAP_INFO@@V?$allocator@UXMASMONSTER_MAP_INFO@@@std@@@std@@QAE?AV?$_Vector_iterator@V?$_Vector_val@UXMASMONSTER_MAP_INFO@@V?$allocator@UXMASMONSTER_MAP_INFO@@@std@@@std@@@2@XZ ; std::vector<XMASMONSTER_MAP_INFO,std::allocator<XMASMONSTER_MAP_INFO> >::end
; Function compile flags: /Ogtp
;	COMDAT ?end@?$vector@UXMASMONSTER_MAP_INFO@@V?$allocator@UXMASMONSTER_MAP_INFO@@@std@@@std@@QAE?AV?$_Vector_iterator@V?$_Vector_val@UXMASMONSTER_MAP_INFO@@V?$allocator@UXMASMONSTER_MAP_INFO@@@std@@@std@@@2@XZ
_TEXT	SEGMENT
___$ReturnUdt$ = 8					; size = 4
?end@?$vector@UXMASMONSTER_MAP_INFO@@V?$allocator@UXMASMONSTER_MAP_INFO@@@std@@@std@@QAE?AV?$_Vector_iterator@V?$_Vector_val@UXMASMONSTER_MAP_INFO@@V?$allocator@UXMASMONSTER_MAP_INFO@@@std@@@std@@@2@XZ PROC ; std::vector<XMASMONSTER_MAP_INFO,std::allocator<XMASMONSTER_MAP_INFO> >::end, COMDAT
; _this$ = ecx

; 791  : 		{	// return iterator for end of mutable sequence

  00000	55		 push	 ebp
  00001	8b ec		 mov	 ebp, esp

; 792  : 		return (iterator(this->_Mylast, this));

  00003	8b 49 04	 mov	 ecx, DWORD PTR [ecx+4]
  00006	8b 45 08	 mov	 eax, DWORD PTR ___$ReturnUdt$[ebp]
  00009	89 08		 mov	 DWORD PTR [eax], ecx

; 793  : 		}

  0000b	5d		 pop	 ebp
  0000c	c2 04 00	 ret	 4
?end@?$vector@UXMASMONSTER_MAP_INFO@@V?$allocator@UXMASMONSTER_MAP_INFO@@@std@@@std@@QAE?AV?$_Vector_iterator@V?$_Vector_val@UXMASMONSTER_MAP_INFO@@V?$allocator@UXMASMONSTER_MAP_INFO@@@std@@@std@@@2@XZ ENDP ; std::vector<XMASMONSTER_MAP_INFO,std::allocator<XMASMONSTER_MAP_INFO> >::end
_TEXT	ENDS
PUBLIC	?_Make_iter@?$vector@PAVCXMasMonsterHerd@@V?$allocator@PAVCXMasMonsterHerd@@@std@@@std@@QBE?AV?$_Vector_iterator@V?$_Vector_val@PAVCXMasMonsterHerd@@V?$allocator@PAVCXMasMonsterHerd@@@std@@@std@@@2@V?$_Vector_const_iterator@V?$_Vector_val@PAVCXMasMonsterHerd@@V?$allocator@PAVCXMasMonsterHerd@@@std@@@std@@@2@@Z ; std::vector<CXMasMonsterHerd *,std::allocator<CXMasMonsterHerd *> >::_Make_iter
; Function compile flags: /Ogtp
;	COMDAT ?_Make_iter@?$vector@PAVCXMasMonsterHerd@@V?$allocator@PAVCXMasMonsterHerd@@@std@@@std@@QBE?AV?$_Vector_iterator@V?$_Vector_val@PAVCXMasMonsterHerd@@V?$allocator@PAVCXMasMonsterHerd@@@std@@@std@@@2@V?$_Vector_const_iterator@V?$_Vector_val@PAVCXMasMonsterHerd@@V?$allocator@PAVCXMasMonsterHerd@@@std@@@std@@@2@@Z
_TEXT	SEGMENT
___$ReturnUdt$ = 8					; size = 4
__Where$ = 12						; size = 4
?_Make_iter@?$vector@PAVCXMasMonsterHerd@@V?$allocator@PAVCXMasMonsterHerd@@@std@@@std@@QBE?AV?$_Vector_iterator@V?$_Vector_val@PAVCXMasMonsterHerd@@V?$allocator@PAVCXMasMonsterHerd@@@std@@@std@@@2@V?$_Vector_const_iterator@V?$_Vector_val@PAVCXMasMonsterHerd@@V?$allocator@PAVCXMasMonsterHerd@@@std@@@std@@@2@@Z PROC ; std::vector<CXMasMonsterHerd *,std::allocator<CXMasMonsterHerd *> >::_Make_iter, COMDAT
; _this$ = ecx

; 801  : 		{	// make iterator from const_iterator

  00000	55		 push	 ebp
  00001	8b ec		 mov	 ebp, esp

; 802  : 		return (iterator(_Where._Ptr, this));

  00003	8b 45 08	 mov	 eax, DWORD PTR ___$ReturnUdt$[ebp]
  00006	8b 4d 0c	 mov	 ecx, DWORD PTR __Where$[ebp]
  00009	89 08		 mov	 DWORD PTR [eax], ecx

; 803  : 		}

  0000b	5d		 pop	 ebp
  0000c	c2 08 00	 ret	 8
?_Make_iter@?$vector@PAVCXMasMonsterHerd@@V?$allocator@PAVCXMasMonsterHerd@@@std@@@std@@QBE?AV?$_Vector_iterator@V?$_Vector_val@PAVCXMasMonsterHerd@@V?$allocator@PAVCXMasMonsterHerd@@@std@@@std@@@2@V?$_Vector_const_iterator@V?$_Vector_val@PAVCXMasMonsterHerd@@V?$allocator@PAVCXMasMonsterHerd@@@std@@@std@@@2@@Z ENDP ; std::vector<CXMasMonsterHerd *,std::allocator<CXMasMonsterHerd *> >::_Make_iter
_TEXT	ENDS
PUBLIC	?reserve@?$vector@PAVCXMasMonsterHerd@@V?$allocator@PAVCXMasMonsterHerd@@@std@@@std@@QAEXI@Z ; std::vector<CXMasMonsterHerd *,std::allocator<CXMasMonsterHerd *> >::reserve
; Function compile flags: /Ogtp
;	COMDAT ?reserve@?$vector@PAVCXMasMonsterHerd@@V?$allocator@PAVCXMasMonsterHerd@@@std@@@std@@QAEXI@Z
_TEXT	SEGMENT
__Count$ = 8						; size = 4
?reserve@?$vector@PAVCXMasMonsterHerd@@V?$allocator@PAVCXMasMonsterHerd@@@std@@@std@@QAEXI@Z PROC ; std::vector<CXMasMonsterHerd *,std::allocator<CXMasMonsterHerd *> >::reserve, COMDAT
; _this$ = ecx

; 746  : 		{	// determine new minimum length of allocated storage

  00000	55		 push	 ebp
  00001	8b ec		 mov	 ebp, esp

; 747  : 		if (max_size() < _Count)

  00003	8b 45 08	 mov	 eax, DWORD PTR __Count$[ebp]
  00006	56		 push	 esi
  00007	8b f1		 mov	 esi, ecx
  00009	3d ff ff ff 3f	 cmp	 eax, 1073741823		; 3fffffffH
  0000e	76 0a		 jbe	 SHORT $LN5@reserve

; 748  : 			_Xlen();	// result too long

  00010	68 00 00 00 00	 push	 OFFSET ??_C@_0BD@OLBABOEK@vector?$DMT?$DO?5too?5long?$AA@
  00015	e8 00 00 00 00	 call	 ?_Xlength_error@std@@YAXPBD@Z ; std::_Xlength_error
$LN43@reserve:
$LN5@reserve:

; 749  : 		else if (capacity() < _Count)

  0001a	8b 4e 08	 mov	 ecx, DWORD PTR [esi+8]
  0001d	2b 0e		 sub	 ecx, DWORD PTR [esi]
  0001f	c1 f9 02	 sar	 ecx, 2
  00022	3b c8		 cmp	 ecx, eax
  00024	73 50		 jae	 SHORT $LN3@reserve

; 750  : 			{	// not enough room, reallocate
; 751  : 			pointer _Ptr = this->_Alval.allocate(_Count);

  00026	53		 push	 ebx
  00027	57		 push	 edi
  00028	50		 push	 eax
  00029	8d 4e 0c	 lea	 ecx, DWORD PTR [esi+12]
  0002c	e8 00 00 00 00	 call	 ?allocate@?$allocator@PAVCXMasMonsterHerd@@@std@@QAEPAPAVCXMasMonsterHerd@@I@Z ; std::allocator<CXMasMonsterHerd *>::allocate

; 752  : 
; 753  : 			_TRY_BEGIN
; 754  : 			_Umove(this->_Myfirst, this->_Mylast, _Ptr);

  00031	8b 56 04	 mov	 edx, DWORD PTR [esi+4]
  00034	8b d8		 mov	 ebx, eax
  00036	8b 06		 mov	 eax, DWORD PTR [esi]
  00038	2b d0		 sub	 edx, eax
  0003a	c1 fa 02	 sar	 edx, 2
  0003d	03 d2		 add	 edx, edx
  0003f	03 d2		 add	 edx, edx
  00041	52		 push	 edx
  00042	50		 push	 eax
  00043	53		 push	 ebx
  00044	e8 00 00 00 00	 call	 _memmove

; 755  : 			_CATCH_ALL
; 756  : 			this->_Alval.deallocate(_Ptr, _Count);
; 757  : 			_RERAISE;
; 758  : 			_CATCH_END
; 759  : 
; 760  : 			size_type _Size = size();

  00049	8b 06		 mov	 eax, DWORD PTR [esi]
  0004b	8b 7e 04	 mov	 edi, DWORD PTR [esi+4]
  0004e	2b f8		 sub	 edi, eax
  00050	83 c4 0c	 add	 esp, 12			; 0000000cH
  00053	c1 ff 02	 sar	 edi, 2

; 761  : 			if (this->_Myfirst != 0)

  00056	85 c0		 test	 eax, eax
  00058	74 09		 je	 SHORT $LN37@reserve

; 762  : 				{	// destroy and deallocate old array
; 763  : 				_Destroy(this->_Myfirst, this->_Mylast);
; 764  : 				this->_Alval.deallocate(this->_Myfirst,
; 765  : 					this->_Myend - this->_Myfirst);

  0005a	50		 push	 eax
  0005b	e8 00 00 00 00	 call	 ??3@YAXPAX@Z		; operator delete
  00060	83 c4 04	 add	 esp, 4
$LN37@reserve:

; 766  : 				}
; 767  : 
; 768  : 			this->_Orphan_all();
; 769  : 			this->_Myend = _Ptr + _Count;

  00063	8b 45 08	 mov	 eax, DWORD PTR __Count$[ebp]

; 770  : 			this->_Mylast = _Ptr + _Size;

  00066	8d 14 bb	 lea	 edx, DWORD PTR [ebx+edi*4]
  00069	8d 0c 83	 lea	 ecx, DWORD PTR [ebx+eax*4]
  0006c	5f		 pop	 edi

; 771  : 			this->_Myfirst = _Ptr;

  0006d	89 1e		 mov	 DWORD PTR [esi], ebx
  0006f	89 4e 08	 mov	 DWORD PTR [esi+8], ecx
  00072	89 56 04	 mov	 DWORD PTR [esi+4], edx
  00075	5b		 pop	 ebx
$LN3@reserve:
  00076	5e		 pop	 esi

; 772  : 			}
; 773  : 		}

  00077	5d		 pop	 ebp
  00078	c2 04 00	 ret	 4
$LN42@reserve:
?reserve@?$vector@PAVCXMasMonsterHerd@@V?$allocator@PAVCXMasMonsterHerd@@@std@@@std@@QAEXI@Z ENDP ; std::vector<CXMasMonsterHerd *,std::allocator<CXMasMonsterHerd *> >::reserve
_TEXT	ENDS
PUBLIC	??$_Destroy_range@V?$allocator@UXMASMONSTER_MAP_INFO@@@std@@@std@@YAXPAUXMASMONSTER_MAP_INFO@@0AAV?$allocator@UXMASMONSTER_MAP_INFO@@@0@U_Nonscalar_ptr_iterator_tag@0@@Z ; std::_Destroy_range<std::allocator<XMASMONSTER_MAP_INFO> >
; Function compile flags: /Ogtp
; File d:\program files (x86)\microsoft visual studio 10.0\vc\include\xmemory
;	COMDAT ??$_Destroy_range@V?$allocator@UXMASMONSTER_MAP_INFO@@@std@@@std@@YAXPAUXMASMONSTER_MAP_INFO@@0AAV?$allocator@UXMASMONSTER_MAP_INFO@@@0@U_Nonscalar_ptr_iterator_tag@0@@Z
_TEXT	SEGMENT
__First$ = 8						; size = 4
__Last$ = 12						; size = 4
__Al$ = 16						; size = 4
___formal$ = 20						; size = 1
??$_Destroy_range@V?$allocator@UXMASMONSTER_MAP_INFO@@@std@@@std@@YAXPAUXMASMONSTER_MAP_INFO@@0AAV?$allocator@UXMASMONSTER_MAP_INFO@@@0@U_Nonscalar_ptr_iterator_tag@0@@Z PROC ; std::_Destroy_range<std::allocator<XMASMONSTER_MAP_INFO> >, COMDAT

; 96   : 	for (; _First != _Last; ++_First)
; 97   : 		_Dest_val(_Al, _First);
; 98   : 	}

  00000	c3		 ret	 0
??$_Destroy_range@V?$allocator@UXMASMONSTER_MAP_INFO@@@std@@@std@@YAXPAUXMASMONSTER_MAP_INFO@@0AAV?$allocator@UXMASMONSTER_MAP_INFO@@@0@U_Nonscalar_ptr_iterator_tag@0@@Z ENDP ; std::_Destroy_range<std::allocator<XMASMONSTER_MAP_INFO> >
_TEXT	ENDS
PUBLIC	??$_Destroy_range@V?$allocator@UXMASMONSTER_EVENT_TIME@@@std@@@std@@YAXPAUXMASMONSTER_EVENT_TIME@@0AAV?$allocator@UXMASMONSTER_EVENT_TIME@@@0@U_Nonscalar_ptr_iterator_tag@0@@Z ; std::_Destroy_range<std::allocator<XMASMONSTER_EVENT_TIME> >
; Function compile flags: /Ogtp
;	COMDAT ??$_Destroy_range@V?$allocator@UXMASMONSTER_EVENT_TIME@@@std@@@std@@YAXPAUXMASMONSTER_EVENT_TIME@@0AAV?$allocator@UXMASMONSTER_EVENT_TIME@@@0@U_Nonscalar_ptr_iterator_tag@0@@Z
_TEXT	SEGMENT
__First$ = 8						; size = 4
__Last$ = 12						; size = 4
__Al$ = 16						; size = 4
___formal$ = 20						; size = 1
??$_Destroy_range@V?$allocator@UXMASMONSTER_EVENT_TIME@@@std@@@std@@YAXPAUXMASMONSTER_EVENT_TIME@@0AAV?$allocator@UXMASMONSTER_EVENT_TIME@@@0@U_Nonscalar_ptr_iterator_tag@0@@Z PROC ; std::_Destroy_range<std::allocator<XMASMONSTER_EVENT_TIME> >, COMDAT

; 96   : 	for (; _First != _Last; ++_First)
; 97   : 		_Dest_val(_Al, _First);
; 98   : 	}

  00000	c3		 ret	 0
??$_Destroy_range@V?$allocator@UXMASMONSTER_EVENT_TIME@@@std@@@std@@YAXPAUXMASMONSTER_EVENT_TIME@@0AAV?$allocator@UXMASMONSTER_EVENT_TIME@@@0@U_Nonscalar_ptr_iterator_tag@0@@Z ENDP ; std::_Destroy_range<std::allocator<XMASMONSTER_EVENT_TIME> >
_TEXT	ENDS
PUBLIC	??$_Destroy_range@V?$allocator@UXMASMONSTER_DATA@@@std@@@std@@YAXPAUXMASMONSTER_DATA@@0AAV?$allocator@UXMASMONSTER_DATA@@@0@U_Nonscalar_ptr_iterator_tag@0@@Z ; std::_Destroy_range<std::allocator<XMASMONSTER_DATA> >
; Function compile flags: /Ogtp
;	COMDAT ??$_Destroy_range@V?$allocator@UXMASMONSTER_DATA@@@std@@@std@@YAXPAUXMASMONSTER_DATA@@0AAV?$allocator@UXMASMONSTER_DATA@@@0@U_Nonscalar_ptr_iterator_tag@0@@Z
_TEXT	SEGMENT
__First$ = 8						; size = 4
__Last$ = 12						; size = 4
__Al$ = 16						; size = 4
___formal$ = 20						; size = 1
??$_Destroy_range@V?$allocator@UXMASMONSTER_DATA@@@std@@@std@@YAXPAUXMASMONSTER_DATA@@0AAV?$allocator@UXMASMONSTER_DATA@@@0@U_Nonscalar_ptr_iterator_tag@0@@Z PROC ; std::_Destroy_range<std::allocator<XMASMONSTER_DATA> >, COMDAT

; 96   : 	for (; _First != _Last; ++_First)
; 97   : 		_Dest_val(_Al, _First);
; 98   : 	}

  00000	c3		 ret	 0
??$_Destroy_range@V?$allocator@UXMASMONSTER_DATA@@@std@@@std@@YAXPAUXMASMONSTER_DATA@@0AAV?$allocator@UXMASMONSTER_DATA@@@0@U_Nonscalar_ptr_iterator_tag@0@@Z ENDP ; std::_Destroy_range<std::allocator<XMASMONSTER_DATA> >
_TEXT	ENDS
PUBLIC	??$_Uninit_move@PAUXMASMONSTER_EVENT_TIME@@PAU1@V?$allocator@UXMASMONSTER_EVENT_TIME@@@std@@U1@@std@@YAPAUXMASMONSTER_EVENT_TIME@@PAU1@00AAV?$allocator@UXMASMONSTER_EVENT_TIME@@@0@0U_Nonscalar_ptr_iterator_tag@0@@Z ; std::_Uninit_move<XMASMONSTER_EVENT_TIME *,XMASMONSTER_EVENT_TIME *,std::allocator<XMASMONSTER_EVENT_TIME>,XMASMONSTER_EVENT_TIME>
; Function compile flags: /Ogtp
; File d:\program files (x86)\microsoft visual studio 10.0\vc\include\memory
;	COMDAT ??$_Uninit_move@PAUXMASMONSTER_EVENT_TIME@@PAU1@V?$allocator@UXMASMONSTER_EVENT_TIME@@@std@@U1@@std@@YAPAUXMASMONSTER_EVENT_TIME@@PAU1@00AAV?$allocator@UXMASMONSTER_EVENT_TIME@@@0@0U_Nonscalar_ptr_iterator_tag@0@@Z
_TEXT	SEGMENT
__First$ = 8						; size = 4
__Last$ = 12						; size = 4
__Dest$ = 16						; size = 4
__Al$ = 20						; size = 4
___formal$ = 24						; size = 4
___formal$ = 28						; size = 1
??$_Uninit_move@PAUXMASMONSTER_EVENT_TIME@@PAU1@V?$allocator@UXMASMONSTER_EVENT_TIME@@@std@@U1@@std@@YAPAUXMASMONSTER_EVENT_TIME@@PAU1@00AAV?$allocator@UXMASMONSTER_EVENT_TIME@@@0@0U_Nonscalar_ptr_iterator_tag@0@@Z PROC ; std::_Uninit_move<XMASMONSTER_EVENT_TIME *,XMASMONSTER_EVENT_TIME *,std::allocator<XMASMONSTER_EVENT_TIME>,XMASMONSTER_EVENT_TIME>, COMDAT

; 424  : 	{	// move [_First, _Last) to raw _Dest, using _Al, arbitrary type

  00000	55		 push	 ebp
  00001	8b ec		 mov	 ebp, esp
  00003	53		 push	 ebx

; 425  : 	_DEBUG_RANGE(_First, _Last);
; 426  : 	_DEBUG_POINTER(_Dest);
; 427  : 	_FwdIt _Next = _Dest;
; 428  : 
; 429  : 	_TRY_BEGIN
; 430  : 	for (; _First != _Last; ++_Dest, ++_First)

  00004	8b 5d 0c	 mov	 ebx, DWORD PTR __Last$[ebp]
  00007	56		 push	 esi
  00008	8b 75 08	 mov	 esi, DWORD PTR __First$[ebp]
  0000b	3b f3		 cmp	 esi, ebx
  0000d	74 23		 je	 SHORT $LN17@Uninit_mov
  0000f	57		 push	 edi
  00010	8b 7d 10	 mov	 edi, DWORD PTR __Dest$[ebp]
$LL6@Uninit_mov:

; 431  : 		_Cons_val(_Al, _Dest, (_Valty &&)*_First);

  00013	8b 45 14	 mov	 eax, DWORD PTR __Al$[ebp]
  00016	56		 push	 esi
  00017	57		 push	 edi
  00018	50		 push	 eax
  00019	e8 00 00 00 00	 call	 ??$_Cons_val@V?$allocator@UXMASMONSTER_EVENT_TIME@@@std@@UXMASMONSTER_EVENT_TIME@@U3@@std@@YAXAAV?$allocator@UXMASMONSTER_EVENT_TIME@@@0@PAUXMASMONSTER_EVENT_TIME@@$$QAU2@@Z ; std::_Cons_val<std::allocator<XMASMONSTER_EVENT_TIME>,XMASMONSTER_EVENT_TIME,XMASMONSTER_EVENT_TIME>
  0001e	83 c6 08	 add	 esi, 8
  00021	83 c4 0c	 add	 esp, 12			; 0000000cH
  00024	83 c7 08	 add	 edi, 8
  00027	3b f3		 cmp	 esi, ebx
  00029	75 e8		 jne	 SHORT $LL6@Uninit_mov

; 432  : 	_CATCH_ALL
; 433  : 	for (; _Next != _Dest; ++_Next)
; 434  : 		_Dest_val(_Al, _Next);
; 435  : 	_RERAISE;
; 436  : 	_CATCH_END
; 437  : 	return (_Dest);

  0002b	8b c7		 mov	 eax, edi
  0002d	5f		 pop	 edi
  0002e	5e		 pop	 esi
  0002f	5b		 pop	 ebx

; 438  : 	}

  00030	5d		 pop	 ebp
  00031	c3		 ret	 0
$LN17@Uninit_mov:

; 432  : 	_CATCH_ALL
; 433  : 	for (; _Next != _Dest; ++_Next)
; 434  : 		_Dest_val(_Al, _Next);
; 435  : 	_RERAISE;
; 436  : 	_CATCH_END
; 437  : 	return (_Dest);

  00032	8b 45 10	 mov	 eax, DWORD PTR __Dest$[ebp]
  00035	5e		 pop	 esi
  00036	5b		 pop	 ebx

; 438  : 	}

  00037	5d		 pop	 ebp
  00038	c3		 ret	 0
??$_Uninit_move@PAUXMASMONSTER_EVENT_TIME@@PAU1@V?$allocator@UXMASMONSTER_EVENT_TIME@@@std@@U1@@std@@YAPAUXMASMONSTER_EVENT_TIME@@PAU1@00AAV?$allocator@UXMASMONSTER_EVENT_TIME@@@0@0U_Nonscalar_ptr_iterator_tag@0@@Z ENDP ; std::_Uninit_move<XMASMONSTER_EVENT_TIME *,XMASMONSTER_EVENT_TIME *,std::allocator<XMASMONSTER_EVENT_TIME>,XMASMONSTER_EVENT_TIME>
_TEXT	ENDS
PUBLIC	??$_Uninit_move@PAUXMASMONSTER_DATA@@PAU1@V?$allocator@UXMASMONSTER_DATA@@@std@@U1@@std@@YAPAUXMASMONSTER_DATA@@PAU1@00AAV?$allocator@UXMASMONSTER_DATA@@@0@0U_Nonscalar_ptr_iterator_tag@0@@Z ; std::_Uninit_move<XMASMONSTER_DATA *,XMASMONSTER_DATA *,std::allocator<XMASMONSTER_DATA>,XMASMONSTER_DATA>
; Function compile flags: /Ogtp
;	COMDAT ??$_Uninit_move@PAUXMASMONSTER_DATA@@PAU1@V?$allocator@UXMASMONSTER_DATA@@@std@@U1@@std@@YAPAUXMASMONSTER_DATA@@PAU1@00AAV?$allocator@UXMASMONSTER_DATA@@@0@0U_Nonscalar_ptr_iterator_tag@0@@Z
_TEXT	SEGMENT
__First$ = 8						; size = 4
__Last$ = 12						; size = 4
__Dest$ = 16						; size = 4
__Al$ = 20						; size = 4
___formal$ = 24						; size = 4
___formal$ = 28						; size = 1
??$_Uninit_move@PAUXMASMONSTER_DATA@@PAU1@V?$allocator@UXMASMONSTER_DATA@@@std@@U1@@std@@YAPAUXMASMONSTER_DATA@@PAU1@00AAV?$allocator@UXMASMONSTER_DATA@@@0@0U_Nonscalar_ptr_iterator_tag@0@@Z PROC ; std::_Uninit_move<XMASMONSTER_DATA *,XMASMONSTER_DATA *,std::allocator<XMASMONSTER_DATA>,XMASMONSTER_DATA>, COMDAT

; 424  : 	{	// move [_First, _Last) to raw _Dest, using _Al, arbitrary type

  00000	55		 push	 ebp
  00001	8b ec		 mov	 ebp, esp
  00003	53		 push	 ebx

; 425  : 	_DEBUG_RANGE(_First, _Last);
; 426  : 	_DEBUG_POINTER(_Dest);
; 427  : 	_FwdIt _Next = _Dest;
; 428  : 
; 429  : 	_TRY_BEGIN
; 430  : 	for (; _First != _Last; ++_Dest, ++_First)

  00004	8b 5d 0c	 mov	 ebx, DWORD PTR __Last$[ebp]
  00007	56		 push	 esi
  00008	8b 75 08	 mov	 esi, DWORD PTR __First$[ebp]
  0000b	3b f3		 cmp	 esi, ebx
  0000d	74 23		 je	 SHORT $LN17@Uninit_mov@2
  0000f	57		 push	 edi
  00010	8b 7d 10	 mov	 edi, DWORD PTR __Dest$[ebp]
$LL6@Uninit_mov@2:

; 431  : 		_Cons_val(_Al, _Dest, (_Valty &&)*_First);

  00013	8b 45 14	 mov	 eax, DWORD PTR __Al$[ebp]
  00016	56		 push	 esi
  00017	57		 push	 edi
  00018	50		 push	 eax
  00019	e8 00 00 00 00	 call	 ??$_Cons_val@V?$allocator@UXMASMONSTER_DATA@@@std@@UXMASMONSTER_DATA@@U3@@std@@YAXAAV?$allocator@UXMASMONSTER_DATA@@@0@PAUXMASMONSTER_DATA@@$$QAU2@@Z ; std::_Cons_val<std::allocator<XMASMONSTER_DATA>,XMASMONSTER_DATA,XMASMONSTER_DATA>
  0001e	83 c6 0c	 add	 esi, 12			; 0000000cH
  00021	83 c4 0c	 add	 esp, 12			; 0000000cH
  00024	83 c7 0c	 add	 edi, 12			; 0000000cH
  00027	3b f3		 cmp	 esi, ebx
  00029	75 e8		 jne	 SHORT $LL6@Uninit_mov@2

; 432  : 	_CATCH_ALL
; 433  : 	for (; _Next != _Dest; ++_Next)
; 434  : 		_Dest_val(_Al, _Next);
; 435  : 	_RERAISE;
; 436  : 	_CATCH_END
; 437  : 	return (_Dest);

  0002b	8b c7		 mov	 eax, edi
  0002d	5f		 pop	 edi
  0002e	5e		 pop	 esi
  0002f	5b		 pop	 ebx

; 438  : 	}

  00030	5d		 pop	 ebp
  00031	c3		 ret	 0
$LN17@Uninit_mov@2:

; 432  : 	_CATCH_ALL
; 433  : 	for (; _Next != _Dest; ++_Next)
; 434  : 		_Dest_val(_Al, _Next);
; 435  : 	_RERAISE;
; 436  : 	_CATCH_END
; 437  : 	return (_Dest);

  00032	8b 45 10	 mov	 eax, DWORD PTR __Dest$[ebp]
  00035	5e		 pop	 esi
  00036	5b		 pop	 ebx

; 438  : 	}

  00037	5d		 pop	 ebp
  00038	c3		 ret	 0
??$_Uninit_move@PAUXMASMONSTER_DATA@@PAU1@V?$allocator@UXMASMONSTER_DATA@@@std@@U1@@std@@YAPAUXMASMONSTER_DATA@@PAU1@00AAV?$allocator@UXMASMONSTER_DATA@@@0@0U_Nonscalar_ptr_iterator_tag@0@@Z ENDP ; std::_Uninit_move<XMASMONSTER_DATA *,XMASMONSTER_DATA *,std::allocator<XMASMONSTER_DATA>,XMASMONSTER_DATA>
_TEXT	ENDS
PUBLIC	??$_Uninit_move@PAUXMASMONSTER_MAP_INFO@@PAU1@V?$allocator@UXMASMONSTER_MAP_INFO@@@std@@U1@@std@@YAPAUXMASMONSTER_MAP_INFO@@PAU1@00AAV?$allocator@UXMASMONSTER_MAP_INFO@@@0@0U_Nonscalar_ptr_iterator_tag@0@@Z ; std::_Uninit_move<XMASMONSTER_MAP_INFO *,XMASMONSTER_MAP_INFO *,std::allocator<XMASMONSTER_MAP_INFO>,XMASMONSTER_MAP_INFO>
; Function compile flags: /Ogtp
;	COMDAT ??$_Uninit_move@PAUXMASMONSTER_MAP_INFO@@PAU1@V?$allocator@UXMASMONSTER_MAP_INFO@@@std@@U1@@std@@YAPAUXMASMONSTER_MAP_INFO@@PAU1@00AAV?$allocator@UXMASMONSTER_MAP_INFO@@@0@0U_Nonscalar_ptr_iterator_tag@0@@Z
_TEXT	SEGMENT
__First$ = 8						; size = 4
__Last$ = 12						; size = 4
__Dest$ = 16						; size = 4
__Al$ = 20						; size = 4
___formal$ = 24						; size = 4
___formal$ = 28						; size = 1
??$_Uninit_move@PAUXMASMONSTER_MAP_INFO@@PAU1@V?$allocator@UXMASMONSTER_MAP_INFO@@@std@@U1@@std@@YAPAUXMASMONSTER_MAP_INFO@@PAU1@00AAV?$allocator@UXMASMONSTER_MAP_INFO@@@0@0U_Nonscalar_ptr_iterator_tag@0@@Z PROC ; std::_Uninit_move<XMASMONSTER_MAP_INFO *,XMASMONSTER_MAP_INFO *,std::allocator<XMASMONSTER_MAP_INFO>,XMASMONSTER_MAP_INFO>, COMDAT

; 424  : 	{	// move [_First, _Last) to raw _Dest, using _Al, arbitrary type

  00000	55		 push	 ebp
  00001	8b ec		 mov	 ebp, esp
  00003	53		 push	 ebx

; 425  : 	_DEBUG_RANGE(_First, _Last);
; 426  : 	_DEBUG_POINTER(_Dest);
; 427  : 	_FwdIt _Next = _Dest;
; 428  : 
; 429  : 	_TRY_BEGIN
; 430  : 	for (; _First != _Last; ++_Dest, ++_First)

  00004	8b 5d 0c	 mov	 ebx, DWORD PTR __Last$[ebp]
  00007	56		 push	 esi
  00008	8b 75 08	 mov	 esi, DWORD PTR __First$[ebp]
  0000b	3b f3		 cmp	 esi, ebx
  0000d	74 23		 je	 SHORT $LN17@Uninit_mov@3
  0000f	57		 push	 edi
  00010	8b 7d 10	 mov	 edi, DWORD PTR __Dest$[ebp]
$LL6@Uninit_mov@3:

; 431  : 		_Cons_val(_Al, _Dest, (_Valty &&)*_First);

  00013	8b 45 14	 mov	 eax, DWORD PTR __Al$[ebp]
  00016	56		 push	 esi
  00017	57		 push	 edi
  00018	50		 push	 eax
  00019	e8 00 00 00 00	 call	 ??$_Cons_val@V?$allocator@UXMASMONSTER_MAP_INFO@@@std@@UXMASMONSTER_MAP_INFO@@U3@@std@@YAXAAV?$allocator@UXMASMONSTER_MAP_INFO@@@0@PAUXMASMONSTER_MAP_INFO@@$$QAU2@@Z ; std::_Cons_val<std::allocator<XMASMONSTER_MAP_INFO>,XMASMONSTER_MAP_INFO,XMASMONSTER_MAP_INFO>
  0001e	83 c6 14	 add	 esi, 20			; 00000014H
  00021	83 c4 0c	 add	 esp, 12			; 0000000cH
  00024	83 c7 14	 add	 edi, 20			; 00000014H
  00027	3b f3		 cmp	 esi, ebx
  00029	75 e8		 jne	 SHORT $LL6@Uninit_mov@3

; 432  : 	_CATCH_ALL
; 433  : 	for (; _Next != _Dest; ++_Next)
; 434  : 		_Dest_val(_Al, _Next);
; 435  : 	_RERAISE;
; 436  : 	_CATCH_END
; 437  : 	return (_Dest);

  0002b	8b c7		 mov	 eax, edi
  0002d	5f		 pop	 edi
  0002e	5e		 pop	 esi
  0002f	5b		 pop	 ebx

; 438  : 	}

  00030	5d		 pop	 ebp
  00031	c3		 ret	 0
$LN17@Uninit_mov@3:

; 432  : 	_CATCH_ALL
; 433  : 	for (; _Next != _Dest; ++_Next)
; 434  : 		_Dest_val(_Al, _Next);
; 435  : 	_RERAISE;
; 436  : 	_CATCH_END
; 437  : 	return (_Dest);

  00032	8b 45 10	 mov	 eax, DWORD PTR __Dest$[ebp]
  00035	5e		 pop	 esi
  00036	5b		 pop	 ebx

; 438  : 	}

  00037	5d		 pop	 ebp
  00038	c3		 ret	 0
??$_Uninit_move@PAUXMASMONSTER_MAP_INFO@@PAU1@V?$allocator@UXMASMONSTER_MAP_INFO@@@std@@U1@@std@@YAPAUXMASMONSTER_MAP_INFO@@PAU1@00AAV?$allocator@UXMASMONSTER_MAP_INFO@@@0@0U_Nonscalar_ptr_iterator_tag@0@@Z ENDP ; std::_Uninit_move<XMASMONSTER_MAP_INFO *,XMASMONSTER_MAP_INFO *,std::allocator<XMASMONSTER_MAP_INFO>,XMASMONSTER_MAP_INFO>
_TEXT	ENDS
PUBLIC	?StopEvent@CXMasAttackEvent@@UAEXXZ		; CXMasAttackEvent::StopEvent
; Function compile flags: /Ogtp
; File e:\work\tranet_version\gs\gameserver\xmasattackevent.cpp
;	COMDAT ?StopEvent@CXMasAttackEvent@@UAEXXZ
_TEXT	SEGMENT
?StopEvent@CXMasAttackEvent@@UAEXXZ PROC		; CXMasAttackEvent::StopEvent, COMDAT
; _this$ = ecx

; 318  : {

  00000	56		 push	 esi
  00001	57		 push	 edi
  00002	8b f9		 mov	 edi, ecx

; 319  : 	std::vector<CXMasMonsterHerd*>::iterator it = this->m_vtXMasMonsterHerd.begin();

  00004	8b 77 48	 mov	 esi, DWORD PTR [edi+72]

; 320  : 
; 321  : 	for (; it != this->m_vtXMasMonsterHerd.end(); ++it)

  00007	3b 77 4c	 cmp	 esi, DWORD PTR [edi+76]
  0000a	74 15		 je	 SHORT $LN41@StopEvent
  0000c	8d 64 24 00	 npad	 4
$LL16@StopEvent:

; 322  : 	{
; 323  : 		CXMasMonsterHerd * vtHerdInfo = *it; //perfect

  00010	8b 0e		 mov	 ecx, DWORD PTR [esi]

; 324  : 
; 325  : 		vtHerdInfo->Stop();

  00012	8b 01		 mov	 eax, DWORD PTR [ecx]
  00014	8b 50 18	 mov	 edx, DWORD PTR [eax+24]
  00017	ff d2		 call	 edx
  00019	83 c6 04	 add	 esi, 4
  0001c	3b 77 4c	 cmp	 esi, DWORD PTR [edi+76]
  0001f	75 ef		 jne	 SHORT $LL16@StopEvent
$LN41@StopEvent:

; 326  : 	}
; 327  : 
; 328  : 	this->m_bMonsterToDest = FALSE;

  00021	c7 47 70 00 00
	00 00		 mov	 DWORD PTR [edi+112], 0
  00028	5f		 pop	 edi
  00029	5e		 pop	 esi

; 329  : }

  0002a	c3		 ret	 0
?StopEvent@CXMasAttackEvent@@UAEXXZ ENDP		; CXMasAttackEvent::StopEvent
_TEXT	ENDS
PUBLIC	?AddMonsterToHerd@CXMasAttackEvent@@QAEXPAVCXMasMonsterHerd@@@Z ; CXMasAttackEvent::AddMonsterToHerd
EXTRN	__imp__LeaveCriticalSection@4:PROC
EXTRN	__imp__EnterCriticalSection@4:PROC
; Function compile flags: /Ogtp
;	COMDAT ?AddMonsterToHerd@CXMasAttackEvent@@QAEXPAVCXMasMonsterHerd@@@Z
_TEXT	SEGMENT
tv256 = -8						; size = 4
_this$ = -4						; size = 4
_vtHerdInfo$ = 8					; size = 4
?AddMonsterToHerd@CXMasAttackEvent@@QAEXPAVCXMasMonsterHerd@@@Z PROC ; CXMasAttackEvent::AddMonsterToHerd, COMDAT
; _this$ = ecx

; 620  : {

  00000	55		 push	 ebp
  00001	8b ec		 mov	 ebp, esp
  00003	83 ec 08	 sub	 esp, 8
  00006	53		 push	 ebx
  00007	56		 push	 esi
  00008	57		 push	 edi
  00009	8b f9		 mov	 edi, ecx

; 621  : 		EnterCriticalSection(&this->m_critMonsterAddData);

  0000b	8d 5f 10	 lea	 ebx, DWORD PTR [edi+16]
  0000e	53		 push	 ebx
  0000f	89 7d fc	 mov	 DWORD PTR _this$[ebp], edi
  00012	89 5d f8	 mov	 DWORD PTR tv256[ebp], ebx
  00015	ff 15 00 00 00
	00		 call	 DWORD PTR __imp__EnterCriticalSection@4

; 622  : 
; 623  : 		for ( std::vector<XMASMONSTER_DATA>::iterator it = this->m_vtMonsterAddData.begin() ; it != this->m_vtMonsterAddData.end() ; it++)

  0001b	8b 77 38	 mov	 esi, DWORD PTR [edi+56]
  0001e	3b 77 3c	 cmp	 esi, DWORD PTR [edi+60]
  00021	74 3d		 je	 SHORT $LN4@AddMonster
  00023	8b 5d 08	 mov	 ebx, DWORD PTR _vtHerdInfo$[ebp]
  00026	eb 08 8d a4 24
	00 00 00 00 90	 npad	 10
$LL21@AddMonster:

; 624  : 		{
; 625  : 			XMASMONSTER_DATA * pXMD = &(*it);
; 626  : 			int iCount = 100;

  00030	bf 64 00 00 00	 mov	 edi, 100		; 00000064H
$LL3@AddMonster:

; 629  : 			{
; 630  : 				if ( vtHerdInfo->AddMonster(pXMD->m_iType, pXMD->m_bDoRegen, pXMD->m_bDoAttackFirst) != FALSE )

  00035	8b 4e 08	 mov	 ecx, DWORD PTR [esi+8]
  00038	8b 56 04	 mov	 edx, DWORD PTR [esi+4]
  0003b	8b 03		 mov	 eax, DWORD PTR [ebx]
  0003d	51		 push	 ecx
  0003e	8b 0e		 mov	 ecx, DWORD PTR [esi]
  00040	52		 push	 edx
  00041	8b 50 08	 mov	 edx, DWORD PTR [eax+8]
  00044	51		 push	 ecx
  00045	8b cb		 mov	 ecx, ebx
  00047	4f		 dec	 edi
  00048	ff d2		 call	 edx
  0004a	85 c0		 test	 eax, eax
  0004c	75 04		 jne	 SHORT $LN5@AddMonster

; 627  : 
; 628  : 			while ( iCount-- != 0 )

  0004e	85 ff		 test	 edi, edi
  00050	75 e3		 jne	 SHORT $LL3@AddMonster
$LN5@AddMonster:

; 622  : 
; 623  : 		for ( std::vector<XMASMONSTER_DATA>::iterator it = this->m_vtMonsterAddData.begin() ; it != this->m_vtMonsterAddData.end() ; it++)

  00052	8b 45 fc	 mov	 eax, DWORD PTR _this$[ebp]
  00055	83 c6 0c	 add	 esi, 12			; 0000000cH
  00058	3b 70 3c	 cmp	 esi, DWORD PTR [eax+60]
  0005b	75 d3		 jne	 SHORT $LL21@AddMonster
  0005d	8b 5d f8	 mov	 ebx, DWORD PTR tv256[ebp]
$LN4@AddMonster:

; 631  : 				{
; 632  : 					break;
; 633  : 				}
; 634  : 			}
; 635  : 		}
; 636  : 
; 637  : 		LeaveCriticalSection(&this->m_critMonsterAddData);

  00060	53		 push	 ebx
  00061	ff 15 00 00 00
	00		 call	 DWORD PTR __imp__LeaveCriticalSection@4
  00067	5f		 pop	 edi
  00068	5e		 pop	 esi
  00069	5b		 pop	 ebx

; 638  : }

  0006a	8b e5		 mov	 esp, ebp
  0006c	5d		 pop	 ebp
  0006d	c2 04 00	 ret	 4
?AddMonsterToHerd@CXMasAttackEvent@@QAEXPAVCXMasMonsterHerd@@@Z ENDP ; CXMasAttackEvent::AddMonsterToHerd
_TEXT	ENDS
PUBLIC	??_C@_0EL@EFNIAOHC@?$FLXMasAttackEvent?$FN?5Sync?5Start?5Tim@ ; `string'
PUBLIC	?SetState@CXMasAttackEvent@@QAEXH@Z		; CXMasAttackEvent::SetState
PUBLIC	??_C@_0CI@LHGLLEGN@?$FLXMasAttackEvent?$FN?5No?5Schedule?5Ti@ ; `string'
PUBLIC	_this$GSCopy$
PUBLIC	__$ArrayPad$
PUBLIC	?CheckSync@CXMasAttackEvent@@QAEXXZ		; CXMasAttackEvent::CheckSync
EXTRN	?GetMinutes@CEventTimer@@QAEHXZ:PROC		; CEventTimer::GetMinutes
EXTRN	?SetSeconds@CEventTimer@@QAEXH@Z:PROC		; CEventTimer::SetSeconds
EXTRN	__imp__GetLocalTime@4:PROC
EXTRN	?LogAddC@@3P6AXEPADZZA:DWORD			; LogAddC
;	COMDAT ??_C@_0EL@EFNIAOHC@?$FLXMasAttackEvent?$FN?5Sync?5Start?5Tim@
; File d:\program files (x86)\microsoft visual studio 10.0\vc\include\vector
CONST	SEGMENT
??_C@_0EL@EFNIAOHC@?$FLXMasAttackEvent?$FN?5Sync?5Start?5Tim@ DB '[XMasAt'
	DB	'tackEvent] Sync Start Time. [%d] min remain (START HOUR:%d, M'
	DB	'IN:%d)', 00H				; `string'
CONST	ENDS
;	COMDAT ??_C@_0CI@LHGLLEGN@?$FLXMasAttackEvent?$FN?5No?5Schedule?5Ti@
CONST	SEGMENT
??_C@_0CI@LHGLLEGN@?$FLXMasAttackEvent?$FN?5No?5Schedule?5Ti@ DB '[XMasAt'
	DB	'tackEvent] No Schedule Time Data', 00H	; `string'
; Function compile flags: /Ogtp
; File e:\work\tranet_version\gs\gameserver\xmasattackevent.cpp
CONST	ENDS
;	COMDAT ?CheckSync@CXMasAttackEvent@@QAEXXZ
_TEXT	SEGMENT
_this$GSCopy$ = -32					; size = 4
tv510 = -28						; size = 4
tv503 = -28						; size = 4
_bTIME_CHANGED$ = -24					; size = 4
_sysTime$ = -20						; size = 16
__$ArrayPad$ = -4					; size = 4
?CheckSync@CXMasAttackEvent@@QAEXXZ PROC		; CXMasAttackEvent::CheckSync, COMDAT
; _this$ = ecx

; 713  : {

  00000	55		 push	 ebp
  00001	8b ec		 mov	 ebp, esp
  00003	83 ec 20	 sub	 esp, 32			; 00000020H
  00006	a1 00 00 00 00	 mov	 eax, DWORD PTR ___security_cookie
  0000b	33 c5		 xor	 eax, ebp
  0000d	89 45 fc	 mov	 DWORD PTR __$ArrayPad$[ebp], eax
  00010	53		 push	 ebx
  00011	8b d9		 mov	 ebx, ecx

; 714  : 	if ( this->m_vtEventTime.empty() != 0 )

  00013	8b 43 28	 mov	 eax, DWORD PTR [ebx+40]

; 749  : 
; 750  : 		for ( ; it != this->m_vtEventTime.end() ; it++ )

  00016	89 5d e0	 mov	 DWORD PTR _this$GSCopy$[ebp], ebx
  00019	3b 43 2c	 cmp	 eax, DWORD PTR [ebx+44]
  0001c	75 28		 jne	 SHORT $LN16@CheckSync

; 715  : 	{
; 716  : 		LogAddC(2, "[XMasAttackEvent] No Schedule Time Data");

  0001e	68 00 00 00 00	 push	 OFFSET ??_C@_0CI@LHGLLEGN@?$FLXMasAttackEvent?$FN?5No?5Schedule?5Ti@
  00023	6a 02		 push	 2
  00025	ff 15 00 00 00
	00		 call	 DWORD PTR ?LogAddC@@3P6AXEPADZZA ; LogAddC
  0002b	83 c4 08	 add	 esp, 8

; 717  : 		this->SetState(ATTACKEVENT_STATE_NONE);

  0002e	6a 00		 push	 0
  00030	8b cb		 mov	 ecx, ebx
  00032	e8 00 00 00 00	 call	 ?SetState@CXMasAttackEvent@@QAEXH@Z ; CXMasAttackEvent::SetState
  00037	5b		 pop	 ebx

; 787  : }

  00038	8b 4d fc	 mov	 ecx, DWORD PTR __$ArrayPad$[ebp]
  0003b	33 cd		 xor	 ecx, ebp
  0003d	e8 00 00 00 00	 call	 @__security_check_cookie@4
  00042	8b e5		 mov	 esp, ebp
  00044	5d		 pop	 ebp
  00045	c3		 ret	 0
$LN16@CheckSync:
  00046	56		 push	 esi
  00047	57		 push	 edi

; 718  : 		return;
; 719  : 	}
; 720  : 
; 721  : 	BOOL bTIME_CHANGED = FALSE;
; 722  : 	int iMIN_HOUR = 24;
; 723  : 	int iMIN_MINUTE = 60;
; 724  : 	
; 725  : 	SYSTEMTIME sysTime;
; 726  : 	GetLocalTime(&sysTime);

  00048	8d 4d ec	 lea	 ecx, DWORD PTR _sysTime$[ebp]
  0004b	be 18 00 00 00	 mov	 esi, 24			; 00000018H
  00050	51		 push	 ecx
  00051	c7 45 e8 00 00
	00 00		 mov	 DWORD PTR _bTIME_CHANGED$[ebp], 0
  00058	8d 7e 24	 lea	 edi, DWORD PTR [esi+36]
  0005b	ff 15 00 00 00
	00		 call	 DWORD PTR __imp__GetLocalTime@4

; 727  : 	std::vector<XMASMONSTER_EVENT_TIME>::iterator it;
; 728  : 	for ( it = this->m_vtEventTime.begin(); it != this->m_vtEventTime.end() ; it++ )

  00061	8b 43 28	 mov	 eax, DWORD PTR [ebx+40]
  00064	3b 43 2c	 cmp	 eax, DWORD PTR [ebx+44]
  00067	74 53		 je	 SHORT $LN102@CheckSync

; 739  : 			}
; 740  : 		}
; 741  : 	}
; 742  : 
; 743  : 	if ( bTIME_CHANGED == FALSE )

  00069	0f b7 4d f4	 movzx	 ecx, WORD PTR _sysTime$[ebp+8]
  0006d	8b d1		 mov	 edx, ecx
  0006f	c1 e2 04	 shl	 edx, 4
  00072	2b d1		 sub	 edx, ecx
  00074	0f b7 4d f6	 movzx	 ecx, WORD PTR _sysTime$[ebp+10]
  00078	8d 14 91	 lea	 edx, DWORD PTR [ecx+edx*4]

; 780  : 			return;
; 781  : 	}
; 782  : 
; 783  : 	LogAddTD("[XMasAttackEvent] Sync Start Time. [%d] min remain (START HOUR:%d, MIN:%d)",
; 784  : 		this->m_EventTimer.GetMinutes(), iMIN_HOUR, iMIN_MINUTE);

  0007b	89 55 e4	 mov	 DWORD PTR tv503[ebp], edx
  0007e	8b ff		 npad	 2
$LL37@CheckSync:

; 729  : 	{
; 730  : 		XMASMONSTER_EVENT_TIME & pRET = *it;
; 731  : 
; 732  : 		if ( (sysTime.wHour * 60 + sysTime.wMinute) < (pRET.m_iHour * 60 + pRET.m_iMinute ))

  00080	8b 08		 mov	 ecx, DWORD PTR [eax]
  00082	8b d1		 mov	 edx, ecx
  00084	c1 e2 04	 shl	 edx, 4
  00087	2b d1		 sub	 edx, ecx
  00089	8b 48 04	 mov	 ecx, DWORD PTR [eax+4]
  0008c	8d 0c 91	 lea	 ecx, DWORD PTR [ecx+edx*4]
  0008f	39 4d e4	 cmp	 DWORD PTR tv503[ebp], ecx
  00092	7d 1a		 jge	 SHORT $LN14@CheckSync

; 733  : 		{
; 734  : 			if ( (iMIN_HOUR * 60 + iMIN_MINUTE) > (pRET.m_iHour * 60 + pRET.m_iMinute) )

  00094	8b d6		 mov	 edx, esi
  00096	c1 e2 04	 shl	 edx, 4
  00099	2b d6		 sub	 edx, esi
  0009b	8d 14 97	 lea	 edx, DWORD PTR [edi+edx*4]
  0009e	3b d1		 cmp	 edx, ecx
  000a0	7e 0c		 jle	 SHORT $LN14@CheckSync

; 737  : 				iMIN_HOUR = pRET.m_iHour;

  000a2	8b 30		 mov	 esi, DWORD PTR [eax]

; 738  : 				iMIN_MINUTE = pRET.m_iMinute;

  000a4	8b 78 04	 mov	 edi, DWORD PTR [eax+4]
  000a7	c7 45 e8 01 00
	00 00		 mov	 DWORD PTR _bTIME_CHANGED$[ebp], 1
$LN14@CheckSync:

; 727  : 	std::vector<XMASMONSTER_EVENT_TIME>::iterator it;
; 728  : 	for ( it = this->m_vtEventTime.begin(); it != this->m_vtEventTime.end() ; it++ )

  000ae	83 c0 08	 add	 eax, 8
  000b1	3b 43 2c	 cmp	 eax, DWORD PTR [ebx+44]
  000b4	75 ca		 jne	 SHORT $LL37@CheckSync

; 739  : 			}
; 740  : 		}
; 741  : 	}
; 742  : 
; 743  : 	if ( bTIME_CHANGED == FALSE )

  000b6	83 7d e8 00	 cmp	 DWORD PTR _bTIME_CHANGED$[ebp], 0
  000ba	75 4a		 jne	 SHORT $LN104@CheckSync
$LN102@CheckSync:

; 744  : 	{
; 745  : 		iMIN_HOUR = 24;
; 746  : 		iMIN_MINUTE = 60;
; 747  : 
; 748  : 		it = this->m_vtEventTime.begin();

  000bc	8b 4b 28	 mov	 ecx, DWORD PTR [ebx+40]
  000bf	be 18 00 00 00	 mov	 esi, 24			; 00000018H
  000c4	8d 7e 24	 lea	 edi, DWORD PTR [esi+36]

; 749  : 
; 750  : 		for ( ; it != this->m_vtEventTime.end() ; it++ )

  000c7	3b 4b 2c	 cmp	 ecx, DWORD PTR [ebx+44]
  000ca	74 3a		 je	 SHORT $LN104@CheckSync

; 735  : 			{
; 736  : 				bTIME_CHANGED = TRUE;

  000cc	8b 43 2c	 mov	 eax, DWORD PTR [ebx+44]
  000cf	89 45 e4	 mov	 DWORD PTR tv510[ebp], eax

; 749  : 
; 750  : 		for ( ; it != this->m_vtEventTime.end() ; it++ )

$LL72@CheckSync:

; 751  : 		{
; 752  : 			XMASMONSTER_EVENT_TIME & pRET = *it;
; 753  : 
; 754  : 			if ( (iMIN_HOUR * 60 + iMIN_MINUTE) > (pRET.m_iHour * 60 + pRET.m_iMinute) )

  000d2	8b 01		 mov	 eax, DWORD PTR [ecx]
  000d4	8b 51 04	 mov	 edx, DWORD PTR [ecx+4]
  000d7	8b d8		 mov	 ebx, eax
  000d9	c1 e3 04	 shl	 ebx, 4
  000dc	2b d8		 sub	 ebx, eax
  000de	8d 14 9a	 lea	 edx, DWORD PTR [edx+ebx*4]
  000e1	8b de		 mov	 ebx, esi
  000e3	c1 e3 04	 shl	 ebx, 4
  000e6	2b de		 sub	 ebx, esi
  000e8	8d 1c 9f	 lea	 ebx, DWORD PTR [edi+ebx*4]
  000eb	3b da		 cmp	 ebx, edx
  000ed	7e 0c		 jle	 SHORT $LN8@CheckSync

; 755  : 			{
; 756  : 				bTIME_CHANGED = 2;
; 757  : 				iMIN_HOUR = pRET.m_iHour;
; 758  : 				iMIN_MINUTE = pRET.m_iMinute;

  000ef	8b 79 04	 mov	 edi, DWORD PTR [ecx+4]
  000f2	c7 45 e8 02 00
	00 00		 mov	 DWORD PTR _bTIME_CHANGED$[ebp], 2
  000f9	8b f0		 mov	 esi, eax
$LN8@CheckSync:

; 749  : 
; 750  : 		for ( ; it != this->m_vtEventTime.end() ; it++ )

  000fb	83 c1 08	 add	 ecx, 8
  000fe	3b 4d e4	 cmp	 ecx, DWORD PTR tv510[ebp]
  00101	75 cf		 jne	 SHORT $LL72@CheckSync
  00103	8b 5d e0	 mov	 ebx, DWORD PTR _this$GSCopy$[ebp]
$LN104@CheckSync:

; 759  : 			}
; 760  : 		}
; 761  : 	}
; 762  : 
; 763  : 	switch ( bTIME_CHANGED )

  00106	8b 45 e8	 mov	 eax, DWORD PTR _bTIME_CHANGED$[ebp]
  00109	48		 dec	 eax
  0010a	74 3a		 je	 SHORT $LN3@CheckSync
  0010c	48		 dec	 eax
  0010d	74 2a		 je	 SHORT $LN2@CheckSync

; 777  : 		default:
; 778  : 			LogAddC(2, "[XMasAttackEvent] No Schedule Time Data");

  0010f	68 00 00 00 00	 push	 OFFSET ??_C@_0CI@LHGLLEGN@?$FLXMasAttackEvent?$FN?5No?5Schedule?5Ti@
  00114	6a 02		 push	 2
  00116	ff 15 00 00 00
	00		 call	 DWORD PTR ?LogAddC@@3P6AXEPADZZA ; LogAddC
  0011c	83 c4 08	 add	 esp, 8

; 779  : 			this->SetState(ATTACKEVENT_STATE_NONE);

  0011f	6a 00		 push	 0
  00121	8b cb		 mov	 ecx, ebx
  00123	e8 00 00 00 00	 call	 ?SetState@CXMasAttackEvent@@QAEXH@Z ; CXMasAttackEvent::SetState
  00128	5f		 pop	 edi
  00129	5e		 pop	 esi
  0012a	5b		 pop	 ebx

; 787  : }

  0012b	8b 4d fc	 mov	 ecx, DWORD PTR __$ArrayPad$[ebp]
  0012e	33 cd		 xor	 ecx, ebp
  00130	e8 00 00 00 00	 call	 @__security_check_cookie@4
  00135	8b e5		 mov	 esp, ebp
  00137	5d		 pop	 ebp
  00138	c3		 ret	 0
$LN2@CheckSync:

; 769  : 			}
; 770  : 			break;
; 771  : 		case 2:
; 772  : 			{
; 773  : 				int m_iTIME_MSEC_REMAIN = (((iMIN_HOUR + 24) * 60 * 60 + iMIN_MINUTE * 60) - (sysTime.wHour * 60 * 60 + sysTime.wMinute * 60 + sysTime.wSecond));
; 774  : 				this->m_EventTimer.SetSeconds(m_iTIME_MSEC_REMAIN);

  00139	0f b7 55 f4	 movzx	 edx, WORD PTR _sysTime$[ebp+8]
  0013d	8b c6		 mov	 eax, esi
  0013f	2b c2		 sub	 eax, edx
  00141	83 c0 18	 add	 eax, 24			; 00000018H

; 775  : 			}
; 776  : 			break;

  00144	eb 08		 jmp	 SHORT $LN107@CheckSync
$LN3@CheckSync:

; 768  : 				this->m_EventTimer.SetSeconds(m_iTIME_MSEC_REMAIN);

  00146	0f b7 55 f4	 movzx	 edx, WORD PTR _sysTime$[ebp+8]
  0014a	8b c6		 mov	 eax, esi
  0014c	2b c2		 sub	 eax, edx
$LN107@CheckSync:

; 764  : 	{
; 765  : 		case 1:
; 766  : 			{
; 767  : 				int m_iTIME_MSEC_REMAIN = ((iMIN_HOUR * 60 * 60 + iMIN_MINUTE * 60) - (sysTime.wHour * 60 * 60 + sysTime.wMinute * 60 + sysTime.wSecond));

  0014e	8b d0		 mov	 edx, eax
  00150	c1 e2 04	 shl	 edx, 4
  00153	2b d0		 sub	 edx, eax
  00155	03 d2		 add	 edx, edx
  00157	8d 04 12	 lea	 eax, DWORD PTR [edx+edx]

; 768  : 				this->m_EventTimer.SetSeconds(m_iTIME_MSEC_REMAIN);

  0015a	0f b7 55 f6	 movzx	 edx, WORD PTR _sysTime$[ebp+10]
  0015e	2b c2		 sub	 eax, edx
  00160	03 c7		 add	 eax, edi
  00162	8b d0		 mov	 edx, eax
  00164	c1 e2 04	 shl	 edx, 4
  00167	2b d0		 sub	 edx, eax
  00169	0f b7 45 f8	 movzx	 eax, WORD PTR _sysTime$[ebp+12]
  0016d	03 d2		 add	 edx, edx
  0016f	03 d2		 add	 edx, edx
  00171	2b d0		 sub	 edx, eax
  00173	52		 push	 edx
  00174	8d 4b 58	 lea	 ecx, DWORD PTR [ebx+88]
  00177	e8 00 00 00 00	 call	 ?SetSeconds@CEventTimer@@QAEXH@Z ; CEventTimer::SetSeconds

; 780  : 			return;
; 781  : 	}
; 782  : 
; 783  : 	LogAddTD("[XMasAttackEvent] Sync Start Time. [%d] min remain (START HOUR:%d, MIN:%d)",
; 784  : 		this->m_EventTimer.GetMinutes(), iMIN_HOUR, iMIN_MINUTE);

  0017c	57		 push	 edi
  0017d	56		 push	 esi
  0017e	8d 4b 58	 lea	 ecx, DWORD PTR [ebx+88]
  00181	e8 00 00 00 00	 call	 ?GetMinutes@CEventTimer@@QAEHXZ ; CEventTimer::GetMinutes
  00186	50		 push	 eax
  00187	68 00 00 00 00	 push	 OFFSET ??_C@_0EL@EFNIAOHC@?$FLXMasAttackEvent?$FN?5Sync?5Start?5Tim@
  0018c	ff 15 00 00 00
	00		 call	 DWORD PTR ?LogAddTD@@3P6AXPADZZA ; LogAddTD

; 785  : 
; 786  : 	this->m_iTIME_NOTIFY_COUNT = this->m_iTIME_MIN_OPEN;

  00192	8b 8b 80 00 00
	00		 mov	 ecx, DWORD PTR [ebx+128]
  00198	83 c4 10	 add	 esp, 16			; 00000010H
  0019b	89 8b 8c 00 00
	00		 mov	 DWORD PTR [ebx+140], ecx

; 787  : }

  001a1	8b 4d fc	 mov	 ecx, DWORD PTR __$ArrayPad$[ebp]
  001a4	5f		 pop	 edi
  001a5	5e		 pop	 esi
  001a6	33 cd		 xor	 ecx, ebp
  001a8	5b		 pop	 ebx
  001a9	e8 00 00 00 00	 call	 @__security_check_cookie@4
  001ae	8b e5		 mov	 esp, ebp
  001b0	5d		 pop	 ebp
  001b1	c3		 ret	 0
?CheckSync@CXMasAttackEvent@@QAEXXZ ENDP		; CXMasAttackEvent::CheckSync
_TEXT	ENDS
PUBLIC	?erase@?$vector@PAVCXMasMonsterHerd@@V?$allocator@PAVCXMasMonsterHerd@@@std@@@std@@QAE?AV?$_Vector_iterator@V?$_Vector_val@PAVCXMasMonsterHerd@@V?$allocator@PAVCXMasMonsterHerd@@@std@@@std@@@2@V?$_Vector_const_iterator@V?$_Vector_val@PAVCXMasMonsterHerd@@V?$allocator@PAVCXMasMonsterHerd@@@std@@@std@@@2@@Z ; std::vector<CXMasMonsterHerd *,std::allocator<CXMasMonsterHerd *> >::erase
; Function compile flags: /Ogtp
; File d:\program files (x86)\microsoft visual studio 10.0\vc\include\vector
;	COMDAT ?erase@?$vector@PAVCXMasMonsterHerd@@V?$allocator@PAVCXMasMonsterHerd@@@std@@@std@@QAE?AV?$_Vector_iterator@V?$_Vector_val@PAVCXMasMonsterHerd@@V?$allocator@PAVCXMasMonsterHerd@@@std@@@std@@@2@V?$_Vector_const_iterator@V?$_Vector_val@PAVCXMasMonsterHerd@@V?$allocator@PAVCXMasMonsterHerd@@@std@@@std@@@2@@Z
_TEXT	SEGMENT
___$ReturnUdt$ = 8					; size = 4
__Where$ = 12						; size = 4
?erase@?$vector@PAVCXMasMonsterHerd@@V?$allocator@PAVCXMasMonsterHerd@@@std@@@std@@QAE?AV?$_Vector_iterator@V?$_Vector_val@PAVCXMasMonsterHerd@@V?$allocator@PAVCXMasMonsterHerd@@@std@@@std@@@2@V?$_Vector_const_iterator@V?$_Vector_val@PAVCXMasMonsterHerd@@V?$allocator@PAVCXMasMonsterHerd@@@std@@@std@@@2@@Z PROC ; std::vector<CXMasMonsterHerd *,std::allocator<CXMasMonsterHerd *> >::erase, COMDAT
; _this$ = ecx

; 1179 : 		{	// erase element at where

  00000	55		 push	 ebp
  00001	8b ec		 mov	 ebp, esp
  00003	56		 push	 esi
  00004	8b f1		 mov	 esi, ecx

; 1180 : 		_Move(_VIPTR(_Where) + 1, this->_Mylast,
; 1181 : 			_VIPTR(_Where));

  00006	8b 4d 0c	 mov	 ecx, DWORD PTR __Where$[ebp]
  00009	8b 56 04	 mov	 edx, DWORD PTR [esi+4]
  0000c	8d 41 04	 lea	 eax, DWORD PTR [ecx+4]
  0000f	2b d0		 sub	 edx, eax
  00011	c1 fa 02	 sar	 edx, 2
  00014	03 d2		 add	 edx, edx
  00016	03 d2		 add	 edx, edx
  00018	52		 push	 edx
  00019	50		 push	 eax
  0001a	51		 push	 ecx
  0001b	e8 00 00 00 00	 call	 _memmove

; 1182 : 		_Destroy(this->_Mylast - 1, this->_Mylast);
; 1183 : 		--this->_Mylast;
; 1184 : 		return (_Make_iter(_Where));

  00020	8b 45 08	 mov	 eax, DWORD PTR ___$ReturnUdt$[ebp]
  00023	8b 4d 0c	 mov	 ecx, DWORD PTR __Where$[ebp]
  00026	83 c4 0c	 add	 esp, 12			; 0000000cH
  00029	83 46 04 fc	 add	 DWORD PTR [esi+4], -4	; fffffffcH
  0002d	89 08		 mov	 DWORD PTR [eax], ecx
  0002f	5e		 pop	 esi

; 1185 : 		}

  00030	5d		 pop	 ebp
  00031	c2 08 00	 ret	 8
?erase@?$vector@PAVCXMasMonsterHerd@@V?$allocator@PAVCXMasMonsterHerd@@@std@@@std@@QAE?AV?$_Vector_iterator@V?$_Vector_val@PAVCXMasMonsterHerd@@V?$allocator@PAVCXMasMonsterHerd@@@std@@@std@@@2@V?$_Vector_const_iterator@V?$_Vector_val@PAVCXMasMonsterHerd@@V?$allocator@PAVCXMasMonsterHerd@@@std@@@std@@@2@@Z ENDP ; std::vector<CXMasMonsterHerd *,std::allocator<CXMasMonsterHerd *> >::erase
_TEXT	ENDS
PUBLIC	?_Reserve@?$vector@PAVCXMasMonsterHerd@@V?$allocator@PAVCXMasMonsterHerd@@@std@@@std@@IAEXI@Z ; std::vector<CXMasMonsterHerd *,std::allocator<CXMasMonsterHerd *> >::_Reserve
; Function compile flags: /Ogtp
;	COMDAT ?_Reserve@?$vector@PAVCXMasMonsterHerd@@V?$allocator@PAVCXMasMonsterHerd@@@std@@@std@@IAEXI@Z
_TEXT	SEGMENT
__Count$ = 8						; size = 4
?_Reserve@?$vector@PAVCXMasMonsterHerd@@V?$allocator@PAVCXMasMonsterHerd@@@std@@@std@@IAEXI@Z PROC ; std::vector<CXMasMonsterHerd *,std::allocator<CXMasMonsterHerd *> >::_Reserve, COMDAT
; _this$ = ecx

; 1290 : 		{	// ensure room for _Count new elements, grow exponentially

  00000	55		 push	 ebp
  00001	8b ec		 mov	 ebp, esp

; 1291 : 		size_type _Size = size();

  00003	8b 41 04	 mov	 eax, DWORD PTR [ecx+4]

; 1292 : 		if (max_size() - _Count < _Size)

  00006	8b 55 08	 mov	 edx, DWORD PTR __Count$[ebp]
  00009	56		 push	 esi
  0000a	8b 31		 mov	 esi, DWORD PTR [ecx]
  0000c	57		 push	 edi
  0000d	2b c6		 sub	 eax, esi
  0000f	bf ff ff ff 3f	 mov	 edi, 1073741823		; 3fffffffH
  00014	c1 f8 02	 sar	 eax, 2
  00017	2b fa		 sub	 edi, edx
  00019	3b f8		 cmp	 edi, eax
  0001b	73 0a		 jae	 SHORT $LN4@Reserve

; 1293 : 			_Xlen();

  0001d	68 00 00 00 00	 push	 OFFSET ??_C@_0BD@OLBABOEK@vector?$DMT?$DO?5too?5long?$AA@
  00022	e8 00 00 00 00	 call	 ?_Xlength_error@std@@YAXPBD@Z ; std::_Xlength_error
$LN34@Reserve:
$LN4@Reserve:

; 1294 : 		else if ((_Size += _Count) <= capacity())

  00027	03 c2		 add	 eax, edx
  00029	8b 51 08	 mov	 edx, DWORD PTR [ecx+8]
  0002c	2b d6		 sub	 edx, esi
  0002e	c1 fa 02	 sar	 edx, 2
  00031	3b c2		 cmp	 eax, edx
  00033	76 21		 jbe	 SHORT $LN1@Reserve

; 1295 : 			;
; 1296 : 		else
; 1297 : 			reserve(_Grow_to(_Size));

  00035	8b f2		 mov	 esi, edx
  00037	d1 ee		 shr	 esi, 1
  00039	bf ff ff ff 3f	 mov	 edi, 1073741823		; 3fffffffH
  0003e	2b fe		 sub	 edi, esi
  00040	3b fa		 cmp	 edi, edx
  00042	73 04		 jae	 SHORT $LN23@Reserve
  00044	33 d2		 xor	 edx, edx
  00046	eb 02		 jmp	 SHORT $LN24@Reserve
$LN23@Reserve:
  00048	03 d6		 add	 edx, esi
$LN24@Reserve:
  0004a	3b d0		 cmp	 edx, eax
  0004c	73 02		 jae	 SHORT $LN20@Reserve
  0004e	8b d0		 mov	 edx, eax
$LN20@Reserve:
  00050	52		 push	 edx
  00051	e8 00 00 00 00	 call	 ?reserve@?$vector@PAVCXMasMonsterHerd@@V?$allocator@PAVCXMasMonsterHerd@@@std@@@std@@QAEXI@Z ; std::vector<CXMasMonsterHerd *,std::allocator<CXMasMonsterHerd *> >::reserve
$LN1@Reserve:
  00056	5f		 pop	 edi
  00057	5e		 pop	 esi

; 1298 : 		}

  00058	5d		 pop	 ebp
  00059	c2 04 00	 ret	 4
$LN33@Reserve:
?_Reserve@?$vector@PAVCXMasMonsterHerd@@V?$allocator@PAVCXMasMonsterHerd@@@std@@@std@@IAEXI@Z ENDP ; std::vector<CXMasMonsterHerd *,std::allocator<CXMasMonsterHerd *> >::_Reserve
_TEXT	ENDS
PUBLIC	??$_Destroy_range@V?$allocator@UXMASMONSTER_MAP_INFO@@@std@@@std@@YAXPAUXMASMONSTER_MAP_INFO@@0AAV?$allocator@UXMASMONSTER_MAP_INFO@@@0@@Z ; std::_Destroy_range<std::allocator<XMASMONSTER_MAP_INFO> >
; Function compile flags: /Ogtp
; File d:\program files (x86)\microsoft visual studio 10.0\vc\include\xmemory
;	COMDAT ??$_Destroy_range@V?$allocator@UXMASMONSTER_MAP_INFO@@@std@@@std@@YAXPAUXMASMONSTER_MAP_INFO@@0AAV?$allocator@UXMASMONSTER_MAP_INFO@@@0@@Z
_TEXT	SEGMENT
__First$ = 8						; size = 4
__Last$ = 12						; size = 4
__Al$ = 16						; size = 4
??$_Destroy_range@V?$allocator@UXMASMONSTER_MAP_INFO@@@std@@@std@@YAXPAUXMASMONSTER_MAP_INFO@@0AAV?$allocator@UXMASMONSTER_MAP_INFO@@@0@@Z PROC ; std::_Destroy_range<std::allocator<XMASMONSTER_MAP_INFO> >, COMDAT

; 88   : 	_Destroy_range(_First, _Last, _Al, _Ptr_cat(_First, _Last));
; 89   : 	}

  00000	c3		 ret	 0
??$_Destroy_range@V?$allocator@UXMASMONSTER_MAP_INFO@@@std@@@std@@YAXPAUXMASMONSTER_MAP_INFO@@0AAV?$allocator@UXMASMONSTER_MAP_INFO@@@0@@Z ENDP ; std::_Destroy_range<std::allocator<XMASMONSTER_MAP_INFO> >
_TEXT	ENDS
PUBLIC	??$_Destroy_range@V?$allocator@UXMASMONSTER_EVENT_TIME@@@std@@@std@@YAXPAUXMASMONSTER_EVENT_TIME@@0AAV?$allocator@UXMASMONSTER_EVENT_TIME@@@0@@Z ; std::_Destroy_range<std::allocator<XMASMONSTER_EVENT_TIME> >
; Function compile flags: /Ogtp
;	COMDAT ??$_Destroy_range@V?$allocator@UXMASMONSTER_EVENT_TIME@@@std@@@std@@YAXPAUXMASMONSTER_EVENT_TIME@@0AAV?$allocator@UXMASMONSTER_EVENT_TIME@@@0@@Z
_TEXT	SEGMENT
__First$ = 8						; size = 4
__Last$ = 12						; size = 4
__Al$ = 16						; size = 4
??$_Destroy_range@V?$allocator@UXMASMONSTER_EVENT_TIME@@@std@@@std@@YAXPAUXMASMONSTER_EVENT_TIME@@0AAV?$allocator@UXMASMONSTER_EVENT_TIME@@@0@@Z PROC ; std::_Destroy_range<std::allocator<XMASMONSTER_EVENT_TIME> >, COMDAT

; 88   : 	_Destroy_range(_First, _Last, _Al, _Ptr_cat(_First, _Last));
; 89   : 	}

  00000	c3		 ret	 0
??$_Destroy_range@V?$allocator@UXMASMONSTER_EVENT_TIME@@@std@@@std@@YAXPAUXMASMONSTER_EVENT_TIME@@0AAV?$allocator@UXMASMONSTER_EVENT_TIME@@@0@@Z ENDP ; std::_Destroy_range<std::allocator<XMASMONSTER_EVENT_TIME> >
_TEXT	ENDS
PUBLIC	??$_Destroy_range@V?$allocator@UXMASMONSTER_DATA@@@std@@@std@@YAXPAUXMASMONSTER_DATA@@0AAV?$allocator@UXMASMONSTER_DATA@@@0@@Z ; std::_Destroy_range<std::allocator<XMASMONSTER_DATA> >
; Function compile flags: /Ogtp
;	COMDAT ??$_Destroy_range@V?$allocator@UXMASMONSTER_DATA@@@std@@@std@@YAXPAUXMASMONSTER_DATA@@0AAV?$allocator@UXMASMONSTER_DATA@@@0@@Z
_TEXT	SEGMENT
__First$ = 8						; size = 4
__Last$ = 12						; size = 4
__Al$ = 16						; size = 4
??$_Destroy_range@V?$allocator@UXMASMONSTER_DATA@@@std@@@std@@YAXPAUXMASMONSTER_DATA@@0AAV?$allocator@UXMASMONSTER_DATA@@@0@@Z PROC ; std::_Destroy_range<std::allocator<XMASMONSTER_DATA> >, COMDAT

; 88   : 	_Destroy_range(_First, _Last, _Al, _Ptr_cat(_First, _Last));
; 89   : 	}

  00000	c3		 ret	 0
??$_Destroy_range@V?$allocator@UXMASMONSTER_DATA@@@std@@@std@@YAXPAUXMASMONSTER_DATA@@0AAV?$allocator@UXMASMONSTER_DATA@@@0@@Z ENDP ; std::_Destroy_range<std::allocator<XMASMONSTER_DATA> >
_TEXT	ENDS
PUBLIC	??$_Uninitialized_move@PAUXMASMONSTER_EVENT_TIME@@PAU1@V?$allocator@UXMASMONSTER_EVENT_TIME@@@std@@@std@@YAPAUXMASMONSTER_EVENT_TIME@@PAU1@00AAV?$allocator@UXMASMONSTER_EVENT_TIME@@@0@@Z ; std::_Uninitialized_move<XMASMONSTER_EVENT_TIME *,XMASMONSTER_EVENT_TIME *,std::allocator<XMASMONSTER_EVENT_TIME> >
; Function compile flags: /Ogtp
; File d:\program files (x86)\microsoft visual studio 10.0\vc\include\memory
;	COMDAT ??$_Uninitialized_move@PAUXMASMONSTER_EVENT_TIME@@PAU1@V?$allocator@UXMASMONSTER_EVENT_TIME@@@std@@@std@@YAPAUXMASMONSTER_EVENT_TIME@@PAU1@00AAV?$allocator@UXMASMONSTER_EVENT_TIME@@@0@@Z
_TEXT	SEGMENT
__Cat$219171 = -4					; size = 1
__First$ = 8						; size = 4
__Last$ = 12						; size = 4
__Dest$ = 16						; size = 4
__Al$ = 20						; size = 4
??$_Uninitialized_move@PAUXMASMONSTER_EVENT_TIME@@PAU1@V?$allocator@UXMASMONSTER_EVENT_TIME@@@std@@@std@@YAPAUXMASMONSTER_EVENT_TIME@@PAU1@00AAV?$allocator@UXMASMONSTER_EVENT_TIME@@@0@@Z PROC ; std::_Uninitialized_move<XMASMONSTER_EVENT_TIME *,XMASMONSTER_EVENT_TIME *,std::allocator<XMASMONSTER_EVENT_TIME> >, COMDAT

; 469  : 	{	// move [_First, _Last) to raw _Dest, using _Al

  00000	55		 push	 ebp
  00001	8b ec		 mov	 ebp, esp
  00003	51		 push	 ecx

; 470  : 	return (_Uninit_move(_First, _Last, _Dest, _Al,
; 471  : 		_Val_type(_First), _Ptr_cat(_First, _Dest)));

  00004	8b 45 fc	 mov	 eax, DWORD PTR __Cat$219171[ebp]
  00007	8b 4d 14	 mov	 ecx, DWORD PTR __Al$[ebp]
  0000a	8b 55 10	 mov	 edx, DWORD PTR __Dest$[ebp]
  0000d	50		 push	 eax
  0000e	8b 45 0c	 mov	 eax, DWORD PTR __Last$[ebp]
  00011	6a 00		 push	 0
  00013	51		 push	 ecx
  00014	8b 4d 08	 mov	 ecx, DWORD PTR __First$[ebp]
  00017	52		 push	 edx
  00018	50		 push	 eax
  00019	51		 push	 ecx
  0001a	e8 00 00 00 00	 call	 ??$_Uninit_move@PAUXMASMONSTER_EVENT_TIME@@PAU1@V?$allocator@UXMASMONSTER_EVENT_TIME@@@std@@U1@@std@@YAPAUXMASMONSTER_EVENT_TIME@@PAU1@00AAV?$allocator@UXMASMONSTER_EVENT_TIME@@@0@0U_Nonscalar_ptr_iterator_tag@0@@Z ; std::_Uninit_move<XMASMONSTER_EVENT_TIME *,XMASMONSTER_EVENT_TIME *,std::allocator<XMASMONSTER_EVENT_TIME>,XMASMONSTER_EVENT_TIME>
  0001f	83 c4 18	 add	 esp, 24			; 00000018H

; 472  : 	}

  00022	8b e5		 mov	 esp, ebp
  00024	5d		 pop	 ebp
  00025	c3		 ret	 0
??$_Uninitialized_move@PAUXMASMONSTER_EVENT_TIME@@PAU1@V?$allocator@UXMASMONSTER_EVENT_TIME@@@std@@@std@@YAPAUXMASMONSTER_EVENT_TIME@@PAU1@00AAV?$allocator@UXMASMONSTER_EVENT_TIME@@@0@@Z ENDP ; std::_Uninitialized_move<XMASMONSTER_EVENT_TIME *,XMASMONSTER_EVENT_TIME *,std::allocator<XMASMONSTER_EVENT_TIME> >
_TEXT	ENDS
PUBLIC	??$_Uninitialized_move@PAUXMASMONSTER_DATA@@PAU1@V?$allocator@UXMASMONSTER_DATA@@@std@@@std@@YAPAUXMASMONSTER_DATA@@PAU1@00AAV?$allocator@UXMASMONSTER_DATA@@@0@@Z ; std::_Uninitialized_move<XMASMONSTER_DATA *,XMASMONSTER_DATA *,std::allocator<XMASMONSTER_DATA> >
; Function compile flags: /Ogtp
;	COMDAT ??$_Uninitialized_move@PAUXMASMONSTER_DATA@@PAU1@V?$allocator@UXMASMONSTER_DATA@@@std@@@std@@YAPAUXMASMONSTER_DATA@@PAU1@00AAV?$allocator@UXMASMONSTER_DATA@@@0@@Z
_TEXT	SEGMENT
__Cat$219181 = -4					; size = 1
__First$ = 8						; size = 4
__Last$ = 12						; size = 4
__Dest$ = 16						; size = 4
__Al$ = 20						; size = 4
??$_Uninitialized_move@PAUXMASMONSTER_DATA@@PAU1@V?$allocator@UXMASMONSTER_DATA@@@std@@@std@@YAPAUXMASMONSTER_DATA@@PAU1@00AAV?$allocator@UXMASMONSTER_DATA@@@0@@Z PROC ; std::_Uninitialized_move<XMASMONSTER_DATA *,XMASMONSTER_DATA *,std::allocator<XMASMONSTER_DATA> >, COMDAT

; 469  : 	{	// move [_First, _Last) to raw _Dest, using _Al

  00000	55		 push	 ebp
  00001	8b ec		 mov	 ebp, esp
  00003	51		 push	 ecx

; 470  : 	return (_Uninit_move(_First, _Last, _Dest, _Al,
; 471  : 		_Val_type(_First), _Ptr_cat(_First, _Dest)));

  00004	8b 45 fc	 mov	 eax, DWORD PTR __Cat$219181[ebp]
  00007	8b 4d 14	 mov	 ecx, DWORD PTR __Al$[ebp]
  0000a	8b 55 10	 mov	 edx, DWORD PTR __Dest$[ebp]
  0000d	50		 push	 eax
  0000e	8b 45 0c	 mov	 eax, DWORD PTR __Last$[ebp]
  00011	6a 00		 push	 0
  00013	51		 push	 ecx
  00014	8b 4d 08	 mov	 ecx, DWORD PTR __First$[ebp]
  00017	52		 push	 edx
  00018	50		 push	 eax
  00019	51		 push	 ecx
  0001a	e8 00 00 00 00	 call	 ??$_Uninit_move@PAUXMASMONSTER_DATA@@PAU1@V?$allocator@UXMASMONSTER_DATA@@@std@@U1@@std@@YAPAUXMASMONSTER_DATA@@PAU1@00AAV?$allocator@UXMASMONSTER_DATA@@@0@0U_Nonscalar_ptr_iterator_tag@0@@Z ; std::_Uninit_move<XMASMONSTER_DATA *,XMASMONSTER_DATA *,std::allocator<XMASMONSTER_DATA>,XMASMONSTER_DATA>
  0001f	83 c4 18	 add	 esp, 24			; 00000018H

; 472  : 	}

  00022	8b e5		 mov	 esp, ebp
  00024	5d		 pop	 ebp
  00025	c3		 ret	 0
??$_Uninitialized_move@PAUXMASMONSTER_DATA@@PAU1@V?$allocator@UXMASMONSTER_DATA@@@std@@@std@@YAPAUXMASMONSTER_DATA@@PAU1@00AAV?$allocator@UXMASMONSTER_DATA@@@0@@Z ENDP ; std::_Uninitialized_move<XMASMONSTER_DATA *,XMASMONSTER_DATA *,std::allocator<XMASMONSTER_DATA> >
_TEXT	ENDS
PUBLIC	??$_Uninitialized_move@PAUXMASMONSTER_MAP_INFO@@PAU1@V?$allocator@UXMASMONSTER_MAP_INFO@@@std@@@std@@YAPAUXMASMONSTER_MAP_INFO@@PAU1@00AAV?$allocator@UXMASMONSTER_MAP_INFO@@@0@@Z ; std::_Uninitialized_move<XMASMONSTER_MAP_INFO *,XMASMONSTER_MAP_INFO *,std::allocator<XMASMONSTER_MAP_INFO> >
; Function compile flags: /Ogtp
;	COMDAT ??$_Uninitialized_move@PAUXMASMONSTER_MAP_INFO@@PAU1@V?$allocator@UXMASMONSTER_MAP_INFO@@@std@@@std@@YAPAUXMASMONSTER_MAP_INFO@@PAU1@00AAV?$allocator@UXMASMONSTER_MAP_INFO@@@0@@Z
_TEXT	SEGMENT
__Cat$219191 = -4					; size = 1
__First$ = 8						; size = 4
__Last$ = 12						; size = 4
__Dest$ = 16						; size = 4
__Al$ = 20						; size = 4
??$_Uninitialized_move@PAUXMASMONSTER_MAP_INFO@@PAU1@V?$allocator@UXMASMONSTER_MAP_INFO@@@std@@@std@@YAPAUXMASMONSTER_MAP_INFO@@PAU1@00AAV?$allocator@UXMASMONSTER_MAP_INFO@@@0@@Z PROC ; std::_Uninitialized_move<XMASMONSTER_MAP_INFO *,XMASMONSTER_MAP_INFO *,std::allocator<XMASMONSTER_MAP_INFO> >, COMDAT

; 469  : 	{	// move [_First, _Last) to raw _Dest, using _Al

  00000	55		 push	 ebp
  00001	8b ec		 mov	 ebp, esp
  00003	51		 push	 ecx

; 470  : 	return (_Uninit_move(_First, _Last, _Dest, _Al,
; 471  : 		_Val_type(_First), _Ptr_cat(_First, _Dest)));

  00004	8b 45 fc	 mov	 eax, DWORD PTR __Cat$219191[ebp]
  00007	8b 4d 14	 mov	 ecx, DWORD PTR __Al$[ebp]
  0000a	8b 55 10	 mov	 edx, DWORD PTR __Dest$[ebp]
  0000d	50		 push	 eax
  0000e	8b 45 0c	 mov	 eax, DWORD PTR __Last$[ebp]
  00011	6a 00		 push	 0
  00013	51		 push	 ecx
  00014	8b 4d 08	 mov	 ecx, DWORD PTR __First$[ebp]
  00017	52		 push	 edx
  00018	50		 push	 eax
  00019	51		 push	 ecx
  0001a	e8 00 00 00 00	 call	 ??$_Uninit_move@PAUXMASMONSTER_MAP_INFO@@PAU1@V?$allocator@UXMASMONSTER_MAP_INFO@@@std@@U1@@std@@YAPAUXMASMONSTER_MAP_INFO@@PAU1@00AAV?$allocator@UXMASMONSTER_MAP_INFO@@@0@0U_Nonscalar_ptr_iterator_tag@0@@Z ; std::_Uninit_move<XMASMONSTER_MAP_INFO *,XMASMONSTER_MAP_INFO *,std::allocator<XMASMONSTER_MAP_INFO>,XMASMONSTER_MAP_INFO>
  0001f	83 c4 18	 add	 esp, 24			; 00000018H

; 472  : 	}

  00022	8b e5		 mov	 esp, ebp
  00024	5d		 pop	 ebp
  00025	c3		 ret	 0
??$_Uninitialized_move@PAUXMASMONSTER_MAP_INFO@@PAU1@V?$allocator@UXMASMONSTER_MAP_INFO@@@std@@@std@@YAPAUXMASMONSTER_MAP_INFO@@PAU1@00AAV?$allocator@UXMASMONSTER_MAP_INFO@@@0@@Z ENDP ; std::_Uninitialized_move<XMASMONSTER_MAP_INFO *,XMASMONSTER_MAP_INFO *,std::allocator<XMASMONSTER_MAP_INFO> >
_TEXT	ENDS
PUBLIC	?SetState_Closed@CXMasAttackEvent@@QAEXXZ	; CXMasAttackEvent::SetState_Closed
; Function compile flags: /Ogtp
; File e:\work\tranet_version\gs\gameserver\xmasattackevent.cpp
;	COMDAT ?SetState_Closed@CXMasAttackEvent@@QAEXXZ
_TEXT	SEGMENT
?SetState_Closed@CXMasAttackEvent@@QAEXXZ PROC		; CXMasAttackEvent::SetState_Closed, COMDAT
; _this$ = ecx

; 545  : {

  00000	56		 push	 esi
  00001	8b f1		 mov	 esi, ecx

; 546  : 	this->StopEvent();

  00003	8b 06		 mov	 eax, DWORD PTR [esi]
  00005	8b 50 0c	 mov	 edx, DWORD PTR [eax+12]
  00008	ff d2		 call	 edx

; 547  : 
; 548  : 	if ( this->m_bDoEvent )

  0000a	83 7e 04 00	 cmp	 DWORD PTR [esi+4], 0

; 549  : 	{
; 550  : 		this->CheckSync();

  0000e	8b ce		 mov	 ecx, esi
  00010	74 06		 je	 SHORT $LN2@SetState_C
  00012	5e		 pop	 esi
  00013	e9 00 00 00 00	 jmp	 ?CheckSync@CXMasAttackEvent@@QAEXXZ ; CXMasAttackEvent::CheckSync
$LN2@SetState_C:

; 551  : 	}
; 552  : 	else
; 553  : 	{
; 554  : 		this->SetState(ATTACKEVENT_STATE_NONE);

  00018	6a 00		 push	 0
  0001a	e8 00 00 00 00	 call	 ?SetState@CXMasAttackEvent@@QAEXH@Z ; CXMasAttackEvent::SetState
  0001f	5e		 pop	 esi

; 555  : 	}
; 556  : }

  00020	c3		 ret	 0
?SetState_Closed@CXMasAttackEvent@@QAEXXZ ENDP		; CXMasAttackEvent::SetState_Closed
_TEXT	ENDS
PUBLIC	?ClearMonsterHerd@CXMasAttackEvent@@QAEXXZ	; CXMasAttackEvent::ClearMonsterHerd
; Function compile flags: /Ogtp
;	COMDAT ?ClearMonsterHerd@CXMasAttackEvent@@QAEXXZ
_TEXT	SEGMENT
tv288 = -4						; size = 4
?ClearMonsterHerd@CXMasAttackEvent@@QAEXXZ PROC		; CXMasAttackEvent::ClearMonsterHerd, COMDAT
; _this$ = ecx

; 641  : {

  00000	55		 push	 ebp
  00001	8b ec		 mov	 ebp, esp
  00003	51		 push	 ecx
  00004	53		 push	 ebx
  00005	56		 push	 esi
  00006	8b f1		 mov	 esi, ecx
  00008	57		 push	 edi

; 642  : 	EnterCriticalSection(&this->m_critMonsterAddData);

  00009	8d 5e 10	 lea	 ebx, DWORD PTR [esi+16]
  0000c	53		 push	 ebx
  0000d	89 5d fc	 mov	 DWORD PTR tv288[ebp], ebx
  00010	ff 15 00 00 00
	00		 call	 DWORD PTR __imp__EnterCriticalSection@4

; 643  : 
; 644  : 	std::vector<CXMasMonsterHerd*>::iterator it = this->m_vtXMasMonsterHerd.begin();

  00016	8b 7e 48	 mov	 edi, DWORD PTR [esi+72]

; 645  : 
; 646  : 	while (it != this->m_vtXMasMonsterHerd.end())

  00019	3b 7e 4c	 cmp	 edi, DWORD PTR [esi+76]
  0001c	74 38		 je	 SHORT $LN1@ClearMonst
  0001e	8b ff		 npad	 2
$LL2@ClearMonst:

; 647  : 	{
; 648  : 		CXMasMonsterHerd * pXMH = *it;
; 649  : 		this->m_vtXMasMonsterHerd.erase(it);

  00020	8b 4e 4c	 mov	 ecx, DWORD PTR [esi+76]
  00023	8b 1f		 mov	 ebx, DWORD PTR [edi]
  00025	8d 47 04	 lea	 eax, DWORD PTR [edi+4]
  00028	2b c8		 sub	 ecx, eax
  0002a	c1 f9 02	 sar	 ecx, 2
  0002d	03 c9		 add	 ecx, ecx
  0002f	03 c9		 add	 ecx, ecx
  00031	51		 push	 ecx
  00032	50		 push	 eax
  00033	57		 push	 edi
  00034	e8 00 00 00 00	 call	 _memmove
  00039	83 46 4c fc	 add	 DWORD PTR [esi+76], -4	; fffffffcH
  0003d	83 c4 0c	 add	 esp, 12			; 0000000cH

; 650  : 		delete pXMH;

  00040	85 db		 test	 ebx, ebx
  00042	74 0a		 je	 SHORT $LN5@ClearMonst
  00044	8b 13		 mov	 edx, DWORD PTR [ebx]
  00046	8b 02		 mov	 eax, DWORD PTR [edx]
  00048	6a 01		 push	 1
  0004a	8b cb		 mov	 ecx, ebx
  0004c	ff d0		 call	 eax
$LN5@ClearMonst:

; 645  : 
; 646  : 	while (it != this->m_vtXMasMonsterHerd.end())

  0004e	3b 7e 4c	 cmp	 edi, DWORD PTR [esi+76]
  00051	75 cd		 jne	 SHORT $LL2@ClearMonst
  00053	8b 5d fc	 mov	 ebx, DWORD PTR tv288[ebp]
$LN1@ClearMonst:

; 651  : 	}
; 652  : 
; 653  : 	LeaveCriticalSection(&this->m_critMonsterAddData);

  00056	53		 push	 ebx
  00057	ff 15 00 00 00
	00		 call	 DWORD PTR __imp__LeaveCriticalSection@4
  0005d	5f		 pop	 edi
  0005e	5e		 pop	 esi
  0005f	5b		 pop	 ebx

; 654  : }

  00060	8b e5		 mov	 esp, ebp
  00062	5d		 pop	 ebp
  00063	c3		 ret	 0
?ClearMonsterHerd@CXMasAttackEvent@@QAEXXZ ENDP		; CXMasAttackEvent::ClearMonsterHerd
_TEXT	ENDS
PUBLIC	?push_back@?$vector@PAVCXMasMonsterHerd@@V?$allocator@PAVCXMasMonsterHerd@@@std@@@std@@QAEX$$QAPAVCXMasMonsterHerd@@@Z ; std::vector<CXMasMonsterHerd *,std::allocator<CXMasMonsterHerd *> >::push_back
; Function compile flags: /Ogtp
; File d:\program files (x86)\microsoft visual studio 10.0\vc\include\vector
;	COMDAT ?push_back@?$vector@PAVCXMasMonsterHerd@@V?$allocator@PAVCXMasMonsterHerd@@@std@@@std@@QAEX$$QAPAVCXMasMonsterHerd@@@Z
_TEXT	SEGMENT
__Val$ = 8						; size = 4
?push_back@?$vector@PAVCXMasMonsterHerd@@V?$allocator@PAVCXMasMonsterHerd@@@std@@@std@@QAEX$$QAPAVCXMasMonsterHerd@@@Z PROC ; std::vector<CXMasMonsterHerd *,std::allocator<CXMasMonsterHerd *> >::push_back, COMDAT
; _this$ = ecx

; 631  : 		{	// insert element at end

  00000	55		 push	 ebp
  00001	8b ec		 mov	 ebp, esp
  00003	56		 push	 esi
  00004	8b f1		 mov	 esi, ecx

; 632  : 		if (_Inside(_STD addressof(_Val)))

  00006	8b 46 04	 mov	 eax, DWORD PTR [esi+4]
  00009	57		 push	 edi
  0000a	8b 7d 08	 mov	 edi, DWORD PTR __Val$[ebp]
  0000d	3b f8		 cmp	 edi, eax
  0000f	73 39		 jae	 SHORT $LN4@push_back
  00011	8b 0e		 mov	 ecx, DWORD PTR [esi]
  00013	3b cf		 cmp	 ecx, edi
  00015	77 33		 ja	 SHORT $LN4@push_back

; 633  : 			{	// push back an element
; 634  : 			size_type _Idx = _STD addressof(_Val) - this->_Myfirst;

  00017	2b f9		 sub	 edi, ecx
  00019	c1 ff 02	 sar	 edi, 2

; 635  : 			if (this->_Mylast == this->_Myend)

  0001c	3b 46 08	 cmp	 eax, DWORD PTR [esi+8]
  0001f	75 09		 jne	 SHORT $LN3@push_back

; 636  : 				_Reserve(1);

  00021	6a 01		 push	 1
  00023	8b ce		 mov	 ecx, esi
  00025	e8 00 00 00 00	 call	 ?_Reserve@?$vector@PAVCXMasMonsterHerd@@V?$allocator@PAVCXMasMonsterHerd@@@std@@@std@@IAEXI@Z ; std::vector<CXMasMonsterHerd *,std::allocator<CXMasMonsterHerd *> >::_Reserve
$LN3@push_back:

; 637  : 			_Orphan_range(this->_Mylast, this->_Mylast);
; 638  : 			_Cons_val(this->_Alval,
; 639  : 				this->_Mylast,
; 640  : 				_STD forward<_Ty>(this->_Myfirst[_Idx]));

  0002a	8b 06		 mov	 eax, DWORD PTR [esi]
  0002c	8b 56 04	 mov	 edx, DWORD PTR [esi+4]
  0002f	8d 0c b8	 lea	 ecx, DWORD PTR [eax+edi*4]
  00032	51		 push	 ecx
  00033	52		 push	 edx
  00034	8d 46 0c	 lea	 eax, DWORD PTR [esi+12]
  00037	50		 push	 eax

; 647  : 			_Orphan_range(this->_Mylast, this->_Mylast);
; 648  : 			_Cons_val(this->_Alval,
; 649  : 				this->_Mylast,
; 650  : 				_STD forward<_Ty>(_Val));

  00038	e8 00 00 00 00	 call	 ??$_Cons_val@V?$allocator@PAVCXMasMonsterHerd@@@std@@PAVCXMasMonsterHerd@@PAV3@@std@@YAXAAV?$allocator@PAVCXMasMonsterHerd@@@0@PAPAVCXMasMonsterHerd@@$$QAPAV2@@Z ; std::_Cons_val<std::allocator<CXMasMonsterHerd *>,CXMasMonsterHerd *,CXMasMonsterHerd *>
  0003d	83 c4 0c	 add	 esp, 12			; 0000000cH

; 651  : 			++this->_Mylast;

  00040	83 46 04 04	 add	 DWORD PTR [esi+4], 4
  00044	5f		 pop	 edi
  00045	5e		 pop	 esi

; 652  : 			}
; 653  : 		}

  00046	5d		 pop	 ebp
  00047	c2 04 00	 ret	 4
$LN4@push_back:

; 641  : 			++this->_Mylast;
; 642  : 			}
; 643  : 		else
; 644  : 			{	// push back a non-element
; 645  : 			if (this->_Mylast == this->_Myend)

  0004a	3b 46 08	 cmp	 eax, DWORD PTR [esi+8]
  0004d	75 09		 jne	 SHORT $LN1@push_back

; 646  : 				_Reserve(1);

  0004f	6a 01		 push	 1
  00051	8b ce		 mov	 ecx, esi
  00053	e8 00 00 00 00	 call	 ?_Reserve@?$vector@PAVCXMasMonsterHerd@@V?$allocator@PAVCXMasMonsterHerd@@@std@@@std@@IAEXI@Z ; std::vector<CXMasMonsterHerd *,std::allocator<CXMasMonsterHerd *> >::_Reserve
$LN1@push_back:

; 647  : 			_Orphan_range(this->_Mylast, this->_Mylast);
; 648  : 			_Cons_val(this->_Alval,
; 649  : 				this->_Mylast,
; 650  : 				_STD forward<_Ty>(_Val));

  00058	8b 4e 04	 mov	 ecx, DWORD PTR [esi+4]
  0005b	57		 push	 edi
  0005c	51		 push	 ecx
  0005d	8d 56 0c	 lea	 edx, DWORD PTR [esi+12]
  00060	52		 push	 edx
  00061	e8 00 00 00 00	 call	 ??$_Cons_val@V?$allocator@PAVCXMasMonsterHerd@@@std@@PAVCXMasMonsterHerd@@PAV3@@std@@YAXAAV?$allocator@PAVCXMasMonsterHerd@@@0@PAPAVCXMasMonsterHerd@@$$QAPAV2@@Z ; std::_Cons_val<std::allocator<CXMasMonsterHerd *>,CXMasMonsterHerd *,CXMasMonsterHerd *>
  00066	83 c4 0c	 add	 esp, 12			; 0000000cH

; 651  : 			++this->_Mylast;

  00069	83 46 04 04	 add	 DWORD PTR [esi+4], 4
  0006d	5f		 pop	 edi
  0006e	5e		 pop	 esi

; 652  : 			}
; 653  : 		}

  0006f	5d		 pop	 ebp
  00070	c2 04 00	 ret	 4
?push_back@?$vector@PAVCXMasMonsterHerd@@V?$allocator@PAVCXMasMonsterHerd@@@std@@@std@@QAEX$$QAPAVCXMasMonsterHerd@@@Z ENDP ; std::vector<CXMasMonsterHerd *,std::allocator<CXMasMonsterHerd *> >::push_back
_TEXT	ENDS
PUBLIC	?_Destroy@?$vector@UXMASMONSTER_MAP_INFO@@V?$allocator@UXMASMONSTER_MAP_INFO@@@std@@@std@@IAEXPAUXMASMONSTER_MAP_INFO@@0@Z ; std::vector<XMASMONSTER_MAP_INFO,std::allocator<XMASMONSTER_MAP_INFO> >::_Destroy
; Function compile flags: /Ogtp
;	COMDAT ?_Destroy@?$vector@UXMASMONSTER_MAP_INFO@@V?$allocator@UXMASMONSTER_MAP_INFO@@@std@@@std@@IAEXPAUXMASMONSTER_MAP_INFO@@0@Z
_TEXT	SEGMENT
__First$ = 8						; size = 4
__Last$ = 12						; size = 4
?_Destroy@?$vector@UXMASMONSTER_MAP_INFO@@V?$allocator@UXMASMONSTER_MAP_INFO@@@std@@@std@@IAEXPAUXMASMONSTER_MAP_INFO@@0@Z PROC ; std::vector<XMASMONSTER_MAP_INFO,std::allocator<XMASMONSTER_MAP_INFO> >::_Destroy, COMDAT
; _this$ = ecx

; 1270 : 		_Destroy_range(_First, _Last, this->_Alval);
; 1271 : 		}

  00000	c2 08 00	 ret	 8
?_Destroy@?$vector@UXMASMONSTER_MAP_INFO@@V?$allocator@UXMASMONSTER_MAP_INFO@@@std@@@std@@IAEXPAUXMASMONSTER_MAP_INFO@@0@Z ENDP ; std::vector<XMASMONSTER_MAP_INFO,std::allocator<XMASMONSTER_MAP_INFO> >::_Destroy
_TEXT	ENDS
PUBLIC	?_Destroy@?$vector@UXMASMONSTER_EVENT_TIME@@V?$allocator@UXMASMONSTER_EVENT_TIME@@@std@@@std@@IAEXPAUXMASMONSTER_EVENT_TIME@@0@Z ; std::vector<XMASMONSTER_EVENT_TIME,std::allocator<XMASMONSTER_EVENT_TIME> >::_Destroy
; Function compile flags: /Ogtp
;	COMDAT ?_Destroy@?$vector@UXMASMONSTER_EVENT_TIME@@V?$allocator@UXMASMONSTER_EVENT_TIME@@@std@@@std@@IAEXPAUXMASMONSTER_EVENT_TIME@@0@Z
_TEXT	SEGMENT
__First$ = 8						; size = 4
__Last$ = 12						; size = 4
?_Destroy@?$vector@UXMASMONSTER_EVENT_TIME@@V?$allocator@UXMASMONSTER_EVENT_TIME@@@std@@@std@@IAEXPAUXMASMONSTER_EVENT_TIME@@0@Z PROC ; std::vector<XMASMONSTER_EVENT_TIME,std::allocator<XMASMONSTER_EVENT_TIME> >::_Destroy, COMDAT
; _this$ = ecx

; 1270 : 		_Destroy_range(_First, _Last, this->_Alval);
; 1271 : 		}

  00000	c2 08 00	 ret	 8
?_Destroy@?$vector@UXMASMONSTER_EVENT_TIME@@V?$allocator@UXMASMONSTER_EVENT_TIME@@@std@@@std@@IAEXPAUXMASMONSTER_EVENT_TIME@@0@Z ENDP ; std::vector<XMASMONSTER_EVENT_TIME,std::allocator<XMASMONSTER_EVENT_TIME> >::_Destroy
_TEXT	ENDS
PUBLIC	?_Destroy@?$vector@UXMASMONSTER_DATA@@V?$allocator@UXMASMONSTER_DATA@@@std@@@std@@IAEXPAUXMASMONSTER_DATA@@0@Z ; std::vector<XMASMONSTER_DATA,std::allocator<XMASMONSTER_DATA> >::_Destroy
; Function compile flags: /Ogtp
;	COMDAT ?_Destroy@?$vector@UXMASMONSTER_DATA@@V?$allocator@UXMASMONSTER_DATA@@@std@@@std@@IAEXPAUXMASMONSTER_DATA@@0@Z
_TEXT	SEGMENT
__First$ = 8						; size = 4
__Last$ = 12						; size = 4
?_Destroy@?$vector@UXMASMONSTER_DATA@@V?$allocator@UXMASMONSTER_DATA@@@std@@@std@@IAEXPAUXMASMONSTER_DATA@@0@Z PROC ; std::vector<XMASMONSTER_DATA,std::allocator<XMASMONSTER_DATA> >::_Destroy, COMDAT
; _this$ = ecx

; 1270 : 		_Destroy_range(_First, _Last, this->_Alval);
; 1271 : 		}

  00000	c2 08 00	 ret	 8
?_Destroy@?$vector@UXMASMONSTER_DATA@@V?$allocator@UXMASMONSTER_DATA@@@std@@@std@@IAEXPAUXMASMONSTER_DATA@@0@Z ENDP ; std::vector<XMASMONSTER_DATA,std::allocator<XMASMONSTER_DATA> >::_Destroy
_TEXT	ENDS
PUBLIC	??$_Umove@PAUXMASMONSTER_EVENT_TIME@@@?$vector@UXMASMONSTER_EVENT_TIME@@V?$allocator@UXMASMONSTER_EVENT_TIME@@@std@@@std@@IAEPAUXMASMONSTER_EVENT_TIME@@PAU2@00@Z ; std::vector<XMASMONSTER_EVENT_TIME,std::allocator<XMASMONSTER_EVENT_TIME> >::_Umove<XMASMONSTER_EVENT_TIME *>
; Function compile flags: /Ogtp
;	COMDAT ??$_Umove@PAUXMASMONSTER_EVENT_TIME@@@?$vector@UXMASMONSTER_EVENT_TIME@@V?$allocator@UXMASMONSTER_EVENT_TIME@@@std@@@std@@IAEPAUXMASMONSTER_EVENT_TIME@@PAU2@00@Z
_TEXT	SEGMENT
__First$ = 8						; size = 4
__Last$ = 12						; size = 4
__Cat$219407 = 16					; size = 1
__Ptr$ = 16						; size = 4
??$_Umove@PAUXMASMONSTER_EVENT_TIME@@@?$vector@UXMASMONSTER_EVENT_TIME@@V?$allocator@UXMASMONSTER_EVENT_TIME@@@std@@@std@@IAEPAUXMASMONSTER_EVENT_TIME@@PAU2@00@Z PROC ; std::vector<XMASMONSTER_EVENT_TIME,std::allocator<XMASMONSTER_EVENT_TIME> >::_Umove<XMASMONSTER_EVENT_TIME *>, COMDAT
; _this$ = ecx

; 1322 : 		pointer _Umove(_Iter _First, _Iter _Last, pointer _Ptr)

  00000	55		 push	 ebp
  00001	8b ec		 mov	 ebp, esp

; 1323 : 		{	// move initializing [_First, _Last), using allocator
; 1324 : 		return (_Uninitialized_move(_First, _Last,
; 1325 : 			_Ptr, this->_Alval));

  00003	8b 45 10	 mov	 eax, DWORD PTR __Cat$219407[ebp]
  00006	8b 55 0c	 mov	 edx, DWORD PTR __Last$[ebp]
  00009	50		 push	 eax
  0000a	8b 45 08	 mov	 eax, DWORD PTR __First$[ebp]
  0000d	6a 00		 push	 0
  0000f	83 c1 0c	 add	 ecx, 12			; 0000000cH
  00012	51		 push	 ecx
  00013	8b 4d 10	 mov	 ecx, DWORD PTR __Ptr$[ebp]
  00016	51		 push	 ecx
  00017	52		 push	 edx
  00018	50		 push	 eax
  00019	e8 00 00 00 00	 call	 ??$_Uninit_move@PAUXMASMONSTER_EVENT_TIME@@PAU1@V?$allocator@UXMASMONSTER_EVENT_TIME@@@std@@U1@@std@@YAPAUXMASMONSTER_EVENT_TIME@@PAU1@00AAV?$allocator@UXMASMONSTER_EVENT_TIME@@@0@0U_Nonscalar_ptr_iterator_tag@0@@Z ; std::_Uninit_move<XMASMONSTER_EVENT_TIME *,XMASMONSTER_EVENT_TIME *,std::allocator<XMASMONSTER_EVENT_TIME>,XMASMONSTER_EVENT_TIME>
  0001e	83 c4 18	 add	 esp, 24			; 00000018H

; 1326 : 		}

  00021	5d		 pop	 ebp
  00022	c2 0c 00	 ret	 12			; 0000000cH
??$_Umove@PAUXMASMONSTER_EVENT_TIME@@@?$vector@UXMASMONSTER_EVENT_TIME@@V?$allocator@UXMASMONSTER_EVENT_TIME@@@std@@@std@@IAEPAUXMASMONSTER_EVENT_TIME@@PAU2@00@Z ENDP ; std::vector<XMASMONSTER_EVENT_TIME,std::allocator<XMASMONSTER_EVENT_TIME> >::_Umove<XMASMONSTER_EVENT_TIME *>
_TEXT	ENDS
PUBLIC	??$_Umove@PAUXMASMONSTER_DATA@@@?$vector@UXMASMONSTER_DATA@@V?$allocator@UXMASMONSTER_DATA@@@std@@@std@@IAEPAUXMASMONSTER_DATA@@PAU2@00@Z ; std::vector<XMASMONSTER_DATA,std::allocator<XMASMONSTER_DATA> >::_Umove<XMASMONSTER_DATA *>
; Function compile flags: /Ogtp
;	COMDAT ??$_Umove@PAUXMASMONSTER_DATA@@@?$vector@UXMASMONSTER_DATA@@V?$allocator@UXMASMONSTER_DATA@@@std@@@std@@IAEPAUXMASMONSTER_DATA@@PAU2@00@Z
_TEXT	SEGMENT
__First$ = 8						; size = 4
__Last$ = 12						; size = 4
__Cat$219426 = 16					; size = 1
__Ptr$ = 16						; size = 4
??$_Umove@PAUXMASMONSTER_DATA@@@?$vector@UXMASMONSTER_DATA@@V?$allocator@UXMASMONSTER_DATA@@@std@@@std@@IAEPAUXMASMONSTER_DATA@@PAU2@00@Z PROC ; std::vector<XMASMONSTER_DATA,std::allocator<XMASMONSTER_DATA> >::_Umove<XMASMONSTER_DATA *>, COMDAT
; _this$ = ecx

; 1322 : 		pointer _Umove(_Iter _First, _Iter _Last, pointer _Ptr)

  00000	55		 push	 ebp
  00001	8b ec		 mov	 ebp, esp

; 1323 : 		{	// move initializing [_First, _Last), using allocator
; 1324 : 		return (_Uninitialized_move(_First, _Last,
; 1325 : 			_Ptr, this->_Alval));

  00003	8b 45 10	 mov	 eax, DWORD PTR __Cat$219426[ebp]
  00006	8b 55 0c	 mov	 edx, DWORD PTR __Last$[ebp]
  00009	50		 push	 eax
  0000a	8b 45 08	 mov	 eax, DWORD PTR __First$[ebp]
  0000d	6a 00		 push	 0
  0000f	83 c1 0c	 add	 ecx, 12			; 0000000cH
  00012	51		 push	 ecx
  00013	8b 4d 10	 mov	 ecx, DWORD PTR __Ptr$[ebp]
  00016	51		 push	 ecx
  00017	52		 push	 edx
  00018	50		 push	 eax
  00019	e8 00 00 00 00	 call	 ??$_Uninit_move@PAUXMASMONSTER_DATA@@PAU1@V?$allocator@UXMASMONSTER_DATA@@@std@@U1@@std@@YAPAUXMASMONSTER_DATA@@PAU1@00AAV?$allocator@UXMASMONSTER_DATA@@@0@0U_Nonscalar_ptr_iterator_tag@0@@Z ; std::_Uninit_move<XMASMONSTER_DATA *,XMASMONSTER_DATA *,std::allocator<XMASMONSTER_DATA>,XMASMONSTER_DATA>
  0001e	83 c4 18	 add	 esp, 24			; 00000018H

; 1326 : 		}

  00021	5d		 pop	 ebp
  00022	c2 0c 00	 ret	 12			; 0000000cH
??$_Umove@PAUXMASMONSTER_DATA@@@?$vector@UXMASMONSTER_DATA@@V?$allocator@UXMASMONSTER_DATA@@@std@@@std@@IAEPAUXMASMONSTER_DATA@@PAU2@00@Z ENDP ; std::vector<XMASMONSTER_DATA,std::allocator<XMASMONSTER_DATA> >::_Umove<XMASMONSTER_DATA *>
_TEXT	ENDS
PUBLIC	??$_Umove@PAUXMASMONSTER_MAP_INFO@@@?$vector@UXMASMONSTER_MAP_INFO@@V?$allocator@UXMASMONSTER_MAP_INFO@@@std@@@std@@IAEPAUXMASMONSTER_MAP_INFO@@PAU2@00@Z ; std::vector<XMASMONSTER_MAP_INFO,std::allocator<XMASMONSTER_MAP_INFO> >::_Umove<XMASMONSTER_MAP_INFO *>
; Function compile flags: /Ogtp
;	COMDAT ??$_Umove@PAUXMASMONSTER_MAP_INFO@@@?$vector@UXMASMONSTER_MAP_INFO@@V?$allocator@UXMASMONSTER_MAP_INFO@@@std@@@std@@IAEPAUXMASMONSTER_MAP_INFO@@PAU2@00@Z
_TEXT	SEGMENT
__First$ = 8						; size = 4
__Last$ = 12						; size = 4
__Cat$219446 = 16					; size = 1
__Ptr$ = 16						; size = 4
??$_Umove@PAUXMASMONSTER_MAP_INFO@@@?$vector@UXMASMONSTER_MAP_INFO@@V?$allocator@UXMASMONSTER_MAP_INFO@@@std@@@std@@IAEPAUXMASMONSTER_MAP_INFO@@PAU2@00@Z PROC ; std::vector<XMASMONSTER_MAP_INFO,std::allocator<XMASMONSTER_MAP_INFO> >::_Umove<XMASMONSTER_MAP_INFO *>, COMDAT
; _this$ = ecx

; 1322 : 		pointer _Umove(_Iter _First, _Iter _Last, pointer _Ptr)

  00000	55		 push	 ebp
  00001	8b ec		 mov	 ebp, esp

; 1323 : 		{	// move initializing [_First, _Last), using allocator
; 1324 : 		return (_Uninitialized_move(_First, _Last,
; 1325 : 			_Ptr, this->_Alval));

  00003	8b 45 10	 mov	 eax, DWORD PTR __Cat$219446[ebp]
  00006	8b 55 0c	 mov	 edx, DWORD PTR __Last$[ebp]
  00009	50		 push	 eax
  0000a	8b 45 08	 mov	 eax, DWORD PTR __First$[ebp]
  0000d	6a 00		 push	 0
  0000f	83 c1 0c	 add	 ecx, 12			; 0000000cH
  00012	51		 push	 ecx
  00013	8b 4d 10	 mov	 ecx, DWORD PTR __Ptr$[ebp]
  00016	51		 push	 ecx
  00017	52		 push	 edx
  00018	50		 push	 eax
  00019	e8 00 00 00 00	 call	 ??$_Uninit_move@PAUXMASMONSTER_MAP_INFO@@PAU1@V?$allocator@UXMASMONSTER_MAP_INFO@@@std@@U1@@std@@YAPAUXMASMONSTER_MAP_INFO@@PAU1@00AAV?$allocator@UXMASMONSTER_MAP_INFO@@@0@0U_Nonscalar_ptr_iterator_tag@0@@Z ; std::_Uninit_move<XMASMONSTER_MAP_INFO *,XMASMONSTER_MAP_INFO *,std::allocator<XMASMONSTER_MAP_INFO>,XMASMONSTER_MAP_INFO>
  0001e	83 c4 18	 add	 esp, 24			; 00000018H

; 1326 : 		}

  00021	5d		 pop	 ebp
  00022	c2 0c 00	 ret	 12			; 0000000cH
??$_Umove@PAUXMASMONSTER_MAP_INFO@@@?$vector@UXMASMONSTER_MAP_INFO@@V?$allocator@UXMASMONSTER_MAP_INFO@@@std@@@std@@IAEPAUXMASMONSTER_MAP_INFO@@PAU2@00@Z ENDP ; std::vector<XMASMONSTER_MAP_INFO,std::allocator<XMASMONSTER_MAP_INFO> >::_Umove<XMASMONSTER_MAP_INFO *>
_TEXT	ENDS
PUBLIC	??_C@_0FK@CCACGPIP@?$CIm_nEventState?5?$DO?$DN?5ATTACKEVENT_ST@ ; `string'
PUBLIC	??_C@_0P@ENJPCMFP@?$CFs?7?$CFs?7?$CFs?7?$CFs?7?$CFd?$AA@ ; `string'
PUBLIC	??_C@_0EK@EFLFLJND@?$CInSate?5?$DO?$DN?5ATTACKEVENT_STATE_NONE@ ; `string'
PUBLIC	??_C@_00CNPNBAHC@?$AA@				; `string'
PUBLIC	??_C@_04HIBGFPH@NULL?$AA@			; `string'
PUBLIC	??_C@_0BE@PJEFBOCC@XMasAttackEvent?4cpp?$AA@	; `string'
;	COMDAT ??_C@_0FK@CCACGPIP@?$CIm_nEventState?5?$DO?$DN?5ATTACKEVENT_ST@
; File e:\work\tranet_version\gs\gameserver\xmasattackevent.cpp
CONST	SEGMENT
??_C@_0FK@CCACGPIP@?$CIm_nEventState?5?$DO?$DN?5ATTACKEVENT_ST@ DB '(m_nE'
	DB	'ventState >= ATTACKEVENT_STATE_NONE) || (m_nEventState <= ATT'
	DB	'ACKEVENT_STATE_PLAYING)', 00H		; `string'
CONST	ENDS
;	COMDAT ??_C@_0P@ENJPCMFP@?$CFs?7?$CFs?7?$CFs?7?$CFs?7?$CFd?$AA@
CONST	SEGMENT
??_C@_0P@ENJPCMFP@?$CFs?7?$CFs?7?$CFs?7?$CFs?7?$CFd?$AA@ DB '%s', 09H, '%'
	DB	's', 09H, '%s', 09H, '%s', 09H, '%d', 00H	; `string'
CONST	ENDS
;	COMDAT ??_C@_0EK@EFLFLJND@?$CInSate?5?$DO?$DN?5ATTACKEVENT_STATE_NONE@
CONST	SEGMENT
??_C@_0EK@EFLFLJND@?$CInSate?5?$DO?$DN?5ATTACKEVENT_STATE_NONE@ DB '(nSat'
	DB	'e >= ATTACKEVENT_STATE_NONE) || (nSate <= ATTACKEVENT_STATE_P'
	DB	'LAYING)', 00H				; `string'
CONST	ENDS
;	COMDAT ??_C@_00CNPNBAHC@?$AA@
CONST	SEGMENT
??_C@_00CNPNBAHC@?$AA@ DB 00H				; `string'
CONST	ENDS
;	COMDAT ??_C@_04HIBGFPH@NULL?$AA@
CONST	SEGMENT
??_C@_04HIBGFPH@NULL?$AA@ DB 'NULL', 00H		; `string'
CONST	ENDS
;	COMDAT ??_C@_0BE@PJEFBOCC@XMasAttackEvent?4cpp?$AA@
CONST	SEGMENT
??_C@_0BE@PJEFBOCC@XMasAttackEvent?4cpp?$AA@ DB 'XMasAttackEvent.cpp', 00H ; `string'
; Function compile flags: /Ogtp
CONST	ENDS
;	COMDAT ?SetState@CXMasAttackEvent@@QAEXH@Z
_TEXT	SEGMENT
_nSate$ = 8						; size = 4
?SetState@CXMasAttackEvent@@QAEXH@Z PROC		; CXMasAttackEvent::SetState, COMDAT
; _this$ = ecx

; 347  : {

  00000	55		 push	 ebp
  00001	8b ec		 mov	 ebp, esp

; 348  : 	if ( !(nSate >= ATTACKEVENT_STATE_NONE || nSate <= ATTACKEVENT_STATE_PLAYING) )

  00003	8b 45 08	 mov	 eax, DWORD PTR _nSate$[ebp]
  00006	85 c0		 test	 eax, eax
  00008	79 34		 jns	 SHORT $LN7@SetState
  0000a	83 f8 02	 cmp	 eax, 2
  0000d	7e 2f		 jle	 SHORT $LN7@SetState

; 349  : 	{
; 350  : 		LogAddTD("%s	%s	%s	%s	%d","(nSate >= ATTACKEVENT_STATE_NONE) || (nSate <= ATTACKEVENT_STATE_PLAYING)", "", "NULL", __FILE__, ErrorType+1);

  0000f	0f bf 05 00 00
	00 00		 movsx	 eax, WORD PTR ?ErrorType@@3FA ; ErrorType
  00016	40		 inc	 eax
  00017	50		 push	 eax
  00018	68 00 00 00 00	 push	 OFFSET ??_C@_0BE@PJEFBOCC@XMasAttackEvent?4cpp?$AA@
  0001d	68 00 00 00 00	 push	 OFFSET ??_C@_04HIBGFPH@NULL?$AA@
  00022	68 00 00 00 00	 push	 OFFSET ??_C@_00CNPNBAHC@?$AA@
  00027	68 00 00 00 00	 push	 OFFSET ??_C@_0EK@EFLFLJND@?$CInSate?5?$DO?$DN?5ATTACKEVENT_STATE_NONE@
  0002c	68 00 00 00 00	 push	 OFFSET ??_C@_0P@ENJPCMFP@?$CFs?7?$CFs?7?$CFs?7?$CFs?7?$CFd?$AA@
  00031	ff 15 00 00 00
	00		 call	 DWORD PTR ?LogAddTD@@3P6AXPADZZA ; LogAddTD
  00037	83 c4 18	 add	 esp, 24			; 00000018H

; 372  : 			break;
; 373  : 	}
; 374  : }

  0003a	5d		 pop	 ebp
  0003b	c2 04 00	 ret	 4
$LN7@SetState:

; 351  : 		return;
; 352  : 	}
; 353  : 
; 354  : 	if ( !(this->m_nEvent_State >= ATTACKEVENT_STATE_NONE || this->m_nEvent_State <= ATTACKEVENT_STATE_PLAYING) )

  0003e	8b 51 6c	 mov	 edx, DWORD PTR [ecx+108]
  00041	85 d2		 test	 edx, edx
  00043	79 36		 jns	 SHORT $LN6@SetState
  00045	83 fa 02	 cmp	 edx, 2
  00048	7e 31		 jle	 SHORT $LN6@SetState

; 355  : 	{
; 356  : 		LogAddTD("%s	%s	%s	%s	%d","(m_nEventState >= ATTACKEVENT_STATE_NONE) || (m_nEventState <= ATTACKEVENT_STATE_PLAYING)", "", "NULL", __FILE__, ErrorType+2);

  0004a	0f bf 0d 00 00
	00 00		 movsx	 ecx, WORD PTR ?ErrorType@@3FA ; ErrorType
  00051	83 c1 02	 add	 ecx, 2
  00054	51		 push	 ecx
  00055	68 00 00 00 00	 push	 OFFSET ??_C@_0BE@PJEFBOCC@XMasAttackEvent?4cpp?$AA@
  0005a	68 00 00 00 00	 push	 OFFSET ??_C@_04HIBGFPH@NULL?$AA@
  0005f	68 00 00 00 00	 push	 OFFSET ??_C@_00CNPNBAHC@?$AA@
  00064	68 00 00 00 00	 push	 OFFSET ??_C@_0FK@CCACGPIP@?$CIm_nEventState?5?$DO?$DN?5ATTACKEVENT_ST@
  00069	68 00 00 00 00	 push	 OFFSET ??_C@_0P@ENJPCMFP@?$CFs?7?$CFs?7?$CFs?7?$CFs?7?$CFd?$AA@
  0006e	ff 15 00 00 00
	00		 call	 DWORD PTR ?LogAddTD@@3P6AXPADZZA ; LogAddTD
  00074	83 c4 18	 add	 esp, 24			; 00000018H

; 372  : 			break;
; 373  : 	}
; 374  : }

  00077	5d		 pop	 ebp
  00078	c2 04 00	 ret	 4
$LN6@SetState:

; 357  : 		return;
; 358  : 	}
; 359  : 
; 360  : 	this->m_nEvent_State = nSate;

  0007b	89 41 6c	 mov	 DWORD PTR [ecx+108], eax

; 361  : 
; 362  : 	switch ( this->m_nEvent_State )

  0007e	83 e8 00	 sub	 eax, 0
  00081	74 18		 je	 SHORT $LN3@SetState
  00083	48		 dec	 eax
  00084	74 0c		 je	 SHORT $LN2@SetState
  00086	48		 dec	 eax
  00087	75 17		 jne	 SHORT $LN4@SetState

; 369  : 			break;
; 370  : 		case ATTACKEVENT_STATE_PLAYING:
; 371  : 			this->SetState_Playing();

  00089	e8 00 00 00 00	 call	 ?SetState_Playing@CXMasAttackEvent@@QAEXXZ ; CXMasAttackEvent::SetState_Playing

; 372  : 			break;
; 373  : 	}
; 374  : }

  0008e	5d		 pop	 ebp
  0008f	c2 04 00	 ret	 4
$LN2@SetState:

; 366  : 			break;
; 367  : 		case ATTACKEVENT_STATE_CLOSED:
; 368  : 			this->SetState_Closed();

  00092	e8 00 00 00 00	 call	 ?SetState_Closed@CXMasAttackEvent@@QAEXXZ ; CXMasAttackEvent::SetState_Closed

; 372  : 			break;
; 373  : 	}
; 374  : }

  00097	5d		 pop	 ebp
  00098	c2 04 00	 ret	 4
$LN3@SetState:

; 363  : 	{
; 364  : 		case ATTACKEVENT_STATE_NONE:
; 365  : 			this->SetState_None();

  0009b	e8 00 00 00 00	 call	 ?SetState_None@CXMasAttackEvent@@QAEXXZ ; CXMasAttackEvent::SetState_None
$LN4@SetState:

; 372  : 			break;
; 373  : 	}
; 374  : }

  000a0	5d		 pop	 ebp
  000a1	c2 04 00	 ret	 4
?SetState@CXMasAttackEvent@@QAEXH@Z ENDP		; CXMasAttackEvent::SetState
_TEXT	ENDS
PUBLIC	??_C@_0CC@DNJMFKJI@?$FLXMasAttackEvent?$FN?5?9?5Event?5Starte@ ; `string'
PUBLIC	??_C@_0DC@FLOKLKPF@?$FLXMasAttackEvent?$FN?5?9?5Before?5?$CFd?5mi@ ; `string'
PUBLIC	??_C@_0L@MJHOMCIJ@m_bDoEvent?$AA@		; `string'
PUBLIC	??_C@_0CB@GNAONFCI@SetState?$CIATTACKEVENT_STATE_NONE?$CJ@ ; `string'
PUBLIC	?ProcState_Closed@CXMasAttackEvent@@QAEXXZ	; CXMasAttackEvent::ProcState_Closed
EXTRN	?Get@CMsg@@QAEPADH@Z:PROC			; CMsg::Get
EXTRN	?lMsg@@3VCMsg@@A:BYTE				; lMsg
EXTRN	?GetMiliSeconds@CEventTimer@@QAEHXZ:PROC	; CEventTimer::GetMiliSeconds
;	COMDAT ??_C@_0CC@DNJMFKJI@?$FLXMasAttackEvent?$FN?5?9?5Event?5Starte@
CONST	SEGMENT
??_C@_0CC@DNJMFKJI@?$FLXMasAttackEvent?$FN?5?9?5Event?5Starte@ DB '[XMasA'
	DB	'ttackEvent] - Event Started', 00H		; `string'
CONST	ENDS
;	COMDAT ??_C@_0DC@FLOKLKPF@?$FLXMasAttackEvent?$FN?5?9?5Before?5?$CFd?5mi@
CONST	SEGMENT
??_C@_0DC@FLOKLKPF@?$FLXMasAttackEvent?$FN?5?9?5Before?5?$CFd?5mi@ DB '[X'
	DB	'MasAttackEvent] - Before %d minutes - Advertise', 00H ; `string'
CONST	ENDS
;	COMDAT ??_C@_0L@MJHOMCIJ@m_bDoEvent?$AA@
CONST	SEGMENT
??_C@_0L@MJHOMCIJ@m_bDoEvent?$AA@ DB 'm_bDoEvent', 00H	; `string'
CONST	ENDS
;	COMDAT ??_C@_0CB@GNAONFCI@SetState?$CIATTACKEVENT_STATE_NONE?$CJ@
CONST	SEGMENT
??_C@_0CB@GNAONFCI@SetState?$CIATTACKEVENT_STATE_NONE?$CJ@ DB 'SetState(A'
	DB	'TTACKEVENT_STATE_NONE)', 00H		; `string'
; Function compile flags: /Ogtp
CONST	ENDS
;	COMDAT ?ProcState_Closed@CXMasAttackEvent@@QAEXXZ
_TEXT	SEGMENT
?ProcState_Closed@CXMasAttackEvent@@QAEXXZ PROC		; CXMasAttackEvent::ProcState_Closed, COMDAT
; _this$ = ecx

; 382  : {

  00000	56		 push	 esi
  00001	8b f1		 mov	 esi, ecx

; 383  : 	if(this->m_bDoEvent == FALSE)

  00003	83 7e 04 00	 cmp	 DWORD PTR [esi+4], 0
  00007	75 34		 jne	 SHORT $LN7@ProcState_

; 384  : 	{
; 385  : 		this->SetState(ATTACKEVENT_STATE_NONE);

  00009	6a 00		 push	 0
  0000b	e8 00 00 00 00	 call	 ?SetState@CXMasAttackEvent@@QAEXH@Z ; CXMasAttackEvent::SetState

; 386  : 		LogAddTD("%s	%s	%s	%s	%d","m_bDoEvent","","SetState(ATTACKEVENT_STATE_NONE)",__FILE__, ErrorType+1);

  00010	0f bf 05 00 00
	00 00		 movsx	 eax, WORD PTR ?ErrorType@@3FA ; ErrorType
  00017	40		 inc	 eax
  00018	50		 push	 eax
  00019	68 00 00 00 00	 push	 OFFSET ??_C@_0BE@PJEFBOCC@XMasAttackEvent?4cpp?$AA@
  0001e	68 00 00 00 00	 push	 OFFSET ??_C@_0CB@GNAONFCI@SetState?$CIATTACKEVENT_STATE_NONE?$CJ@
  00023	68 00 00 00 00	 push	 OFFSET ??_C@_00CNPNBAHC@?$AA@
  00028	68 00 00 00 00	 push	 OFFSET ??_C@_0L@MJHOMCIJ@m_bDoEvent?$AA@
  0002d	68 00 00 00 00	 push	 OFFSET ??_C@_0P@ENJPCMFP@?$CFs?7?$CFs?7?$CFs?7?$CFs?7?$CFd?$AA@
  00032	ff 15 00 00 00
	00		 call	 DWORD PTR ?LogAddTD@@3P6AXPADZZA ; LogAddTD
  00038	83 c4 18	 add	 esp, 24			; 00000018H
  0003b	5e		 pop	 esi

; 419  : 	}
; 420  : }

  0003c	c3		 ret	 0
$LN7@ProcState_:
  0003d	57		 push	 edi

; 387  : 		return;
; 388  : 	}
; 389  : 
; 390  : 	int iTICK_MSEC = this->m_EventTimer.GetMiliSeconds();

  0003e	8d 4e 58	 lea	 ecx, DWORD PTR [esi+88]
  00041	e8 00 00 00 00	 call	 ?GetMiliSeconds@CEventTimer@@QAEHXZ ; CEventTimer::GetMiliSeconds
  00046	8b f8		 mov	 edi, eax

; 391  : 
; 392  : 	if ( iTICK_MSEC >= 1000 )

  00048	81 ff e8 03 00
	00		 cmp	 edi, 1000		; 000003e8H
  0004e	7c 4a		 jl	 SHORT $LN4@ProcState_

; 393  : 	{
; 394  : 		if(iTICK_MSEC/60000 != this->m_iTIME_NOTIFY_COUNT)

  00050	b8 73 b2 e7 45	 mov	 eax, 1172812403		; 45e7b273H
  00055	f7 ef		 imul	 edi
  00057	c1 fa 0e	 sar	 edx, 14			; 0000000eH
  0005a	8b c2		 mov	 eax, edx
  0005c	c1 e8 1f	 shr	 eax, 31			; 0000001fH
  0005f	03 c2		 add	 eax, edx
  00061	3b 86 8c 00 00
	00		 cmp	 eax, DWORD PTR [esi+140]
  00067	74 31		 je	 SHORT $LN4@ProcState_

; 395  : 		{
; 396  : 			this->m_iTIME_NOTIFY_COUNT = iTICK_MSEC/60000;
; 397  : 
; 398  : 			if(this->m_iTIME_NOTIFY_COUNT + 1 == m_iTIME_MIN_OPEN/60000)

  00069	8d 48 01	 lea	 ecx, DWORD PTR [eax+1]
  0006c	89 86 8c 00 00
	00		 mov	 DWORD PTR [esi+140], eax
  00072	b8 73 b2 e7 45	 mov	 eax, 1172812403		; 45e7b273H
  00077	f7 ae 80 00 00
	00		 imul	 DWORD PTR [esi+128]
  0007d	c1 fa 0e	 sar	 edx, 14			; 0000000eH
  00080	8b c2		 mov	 eax, edx
  00082	c1 e8 1f	 shr	 eax, 31			; 0000001fH
  00085	03 c2		 add	 eax, edx
  00087	3b c8		 cmp	 ecx, eax
  00089	75 0f		 jne	 SHORT $LN4@ProcState_

; 399  : 			{
; 400  : 				LogAddTD("[XMasAttackEvent] - Before %d minutes - Advertise",this->m_iTIME_NOTIFY_COUNT+1);

  0008b	51		 push	 ecx
  0008c	68 00 00 00 00	 push	 OFFSET ??_C@_0DC@FLOKLKPF@?$FLXMasAttackEvent?$FN?5?9?5Before?5?$CFd?5mi@
  00091	ff 15 00 00 00
	00		 call	 DWORD PTR ?LogAddTD@@3P6AXPADZZA ; LogAddTD
  00097	83 c4 08	 add	 esp, 8
$LN4@ProcState_:

; 401  : 			}
; 402  : 		}
; 403  : 	}
; 404  : 
; 405  : 	if ( iTICK_MSEC == 0 )

  0009a	85 ff		 test	 edi, edi
  0009c	5f		 pop	 edi
  0009d	75 3a		 jne	 SHORT $LN3@ProcState_

; 406  : 	{
; 407  : 		this->SendMessage(lMsg.Get(2583), 1);

  0009f	6a 01		 push	 1
  000a1	68 17 0a 00 00	 push	 2583			; 00000a17H
  000a6	b9 00 00 00 00	 mov	 ecx, OFFSET ?lMsg@@3VCMsg@@A ; lMsg
  000ab	e8 00 00 00 00	 call	 ?Get@CMsg@@QAEPADH@Z	; CMsg::Get
  000b0	50		 push	 eax
  000b1	8b ce		 mov	 ecx, esi
  000b3	e8 00 00 00 00	 call	 ?SendMessageA@CXMasAttackEvent@@QAEXPADH@Z ; CXMasAttackEvent::SendMessageA

; 408  : 
; 409  : 		if ( this->m_bDoEvent != FALSE )

  000b8	83 7e 04 00	 cmp	 DWORD PTR [esi+4], 0

; 410  : 		{
; 411  : 			this->SetState(ATTACKEVENT_STATE_PLAYING);

  000bc	8b ce		 mov	 ecx, esi
  000be	74 04		 je	 SHORT $LN2@ProcState_
  000c0	6a 02		 push	 2

; 412  : 		}
; 413  : 		else

  000c2	eb 02		 jmp	 SHORT $LN10@ProcState_
$LN2@ProcState_:

; 414  : 		{
; 415  : 			this->SetState(ATTACKEVENT_STATE_NONE);

  000c4	6a 00		 push	 0
$LN10@ProcState_:
  000c6	e8 00 00 00 00	 call	 ?SetState@CXMasAttackEvent@@QAEXH@Z ; CXMasAttackEvent::SetState

; 416  : 		}
; 417  : 
; 418  : 		LogAddTD("[XMasAttackEvent] - Event Started");

  000cb	68 00 00 00 00	 push	 OFFSET ??_C@_0CC@DNJMFKJI@?$FLXMasAttackEvent?$FN?5?9?5Event?5Starte@
  000d0	ff 15 00 00 00
	00		 call	 DWORD PTR ?LogAddTD@@3P6AXPADZZA ; LogAddTD
  000d6	83 c4 04	 add	 esp, 4
$LN3@ProcState_:
  000d9	5e		 pop	 esi

; 419  : 	}
; 420  : }

  000da	c3		 ret	 0
?ProcState_Closed@CXMasAttackEvent@@QAEXXZ ENDP		; CXMasAttackEvent::ProcState_Closed
_TEXT	ENDS
PUBLIC	??_C@_0CA@GNBALKOM@?$FLXMasAttackEvent?$FN?5?9?5Event?5Ended?$AA@ ; `string'
PUBLIC	??_C@_0DP@COOJAPLA@?$FLXMasAttackEvent?$FN?5?9?5Monster?5Herd@ ; `string'
PUBLIC	??_C@_0CC@NCANOPGD@?$FLXMasAttackEvent?$FN?5?9?5NotifySec?3?5?$CF@ ; `string'
PUBLIC	??_C@_0EL@CAFMAFGG@?$FLXMasAttackEvent?$FN?5?9?5per?530?8S?5Inf@ ; `string'
PUBLIC	?ProcState_Playing@CXMasAttackEvent@@QAEXXZ	; CXMasAttackEvent::ProcState_Playing
EXTRN	?gObj@@3PAUOBJECTSTRUCT@@A:DWORD		; gObj
;	COMDAT ??_C@_0CA@GNBALKOM@?$FLXMasAttackEvent?$FN?5?9?5Event?5Ended?$AA@
; File d:\program files (x86)\microsoft visual studio 10.0\vc\include\vector
CONST	SEGMENT
??_C@_0CA@GNBALKOM@?$FLXMasAttackEvent?$FN?5?9?5Event?5Ended?$AA@ DB '[XM'
	DB	'asAttackEvent] - Event Ended', 00H		; `string'
CONST	ENDS
;	COMDAT ??_C@_0DP@COOJAPLA@?$FLXMasAttackEvent?$FN?5?9?5Monster?5Herd@
CONST	SEGMENT
??_C@_0DP@COOJAPLA@?$FLXMasAttackEvent?$FN?5?9?5Monster?5Herd@ DB '[XMasA'
	DB	'ttackEvent] - Monster Herd Move MapNumber:%d, X:%d, Y:%d', 00H ; `string'
CONST	ENDS
;	COMDAT ??_C@_0CC@NCANOPGD@?$FLXMasAttackEvent?$FN?5?9?5NotifySec?3?5?$CF@
CONST	SEGMENT
??_C@_0CC@NCANOPGD@?$FLXMasAttackEvent?$FN?5?9?5NotifySec?3?5?$CF@ DB '[X'
	DB	'MasAttackEvent] - NotifySec: %d', 00H	; `string'
CONST	ENDS
;	COMDAT ??_C@_0EL@CAFMAFGG@?$FLXMasAttackEvent?$FN?5?9?5per?530?8S?5Inf@
CONST	SEGMENT
??_C@_0EL@CAFMAFGG@?$FLXMasAttackEvent?$FN?5?9?5per?530?8S?5Inf@ DB '[XMa'
	DB	'sAttackEvent] - per 30''S Inform MapNumber:%d, X:%d, Y:%d, Bo'
	DB	'ss Live:%d', 00H				; `string'
CONST	ENDS
;	COMDAT ?s_iTIME_REMAIN@?7??ProcState_Playing@CXMasAttackEvent@@QAEXXZ@4HA
_DATA	SEGMENT
?s_iTIME_REMAIN@?7??ProcState_Playing@CXMasAttackEvent@@QAEXXZ@4HA DD 0ffffffffH ; `CXMasAttackEvent::ProcState_Playing'::`8'::s_iTIME_REMAIN
; Function compile flags: /Ogtp
; File e:\work\tranet_version\gs\gameserver\xmasattackevent.cpp
_DATA	ENDS
;	COMDAT ?ProcState_Playing@CXMasAttackEvent@@QAEXXZ
_TEXT	SEGMENT
_iRandX$213579 = -16					; size = 1
_iTICK_MSEC$ = -12					; size = 4
_iRandY$213580 = -8					; size = 1
_bLive$213561 = -8					; size = 4
_i$213573 = -4						; size = 4
_i$213556 = -4						; size = 4
?ProcState_Playing@CXMasAttackEvent@@QAEXXZ PROC	; CXMasAttackEvent::ProcState_Playing, COMDAT
; _this$ = ecx

; 439  : {

  00000	55		 push	 ebp
  00001	8b ec		 mov	 ebp, esp
  00003	83 ec 10	 sub	 esp, 16			; 00000010H
  00006	53		 push	 ebx
  00007	56		 push	 esi
  00008	8b f1		 mov	 esi, ecx
  0000a	57		 push	 edi

; 440  : 	int iTICK_MSEC = this->m_EventTimer.GetMiliSeconds();

  0000b	8d 4e 58	 lea	 ecx, DWORD PTR [esi+88]
  0000e	e8 00 00 00 00	 call	 ?GetMiliSeconds@CEventTimer@@QAEHXZ ; CEventTimer::GetMiliSeconds
  00013	8b d8		 mov	 ebx, eax

; 441  : 
; 442  : 	int loc3 = iTICK_MSEC / 1000;

  00015	b8 d3 4d 62 10	 mov	 eax, 274877907		; 10624dd3H
  0001a	f7 eb		 imul	 ebx
  0001c	c1 fa 06	 sar	 edx, 6
  0001f	8b fa		 mov	 edi, edx
  00021	c1 ef 1f	 shr	 edi, 31			; 0000001fH
  00024	03 fa		 add	 edi, edx
  00026	89 5d f4	 mov	 DWORD PTR _iTICK_MSEC$[ebp], ebx

; 443  : 
; 444  : 	if ( iTICK_MSEC >= 1000 )

  00029	81 fb e8 03 00
	00		 cmp	 ebx, 1000		; 000003e8H
  0002f	7c 18		 jl	 SHORT $LN19@ProcState_@2

; 445  : 	{
; 446  : 		if ( (rand()%20) == 0 )

  00031	e8 00 00 00 00	 call	 _rand
  00036	99		 cdq
  00037	b9 14 00 00 00	 mov	 ecx, 20			; 00000014H
  0003c	f7 f9		 idiv	 ecx
  0003e	85 d2		 test	 edx, edx
  00040	75 07		 jne	 SHORT $LN19@ProcState_@2

; 447  : 		{
; 448  : 			this->Move();

  00042	8b ce		 mov	 ecx, esi
  00044	e8 00 00 00 00	 call	 ?Move@CXMasAttackEvent@@QAEXXZ ; CXMasAttackEvent::Move
$LN19@ProcState_@2:

; 449  : 		}
; 450  : 	}
; 451  : 
; 452  : 	static int s_iTIME_REMAIN = -1;
; 453  : 
; 454  : 	if ( (loc3 / 30 ) != s_iTIME_REMAIN && (loc3 % 30) == 0  )

  00049	b8 89 88 88 88	 mov	 eax, -2004318071	; 88888889H
  0004e	f7 ef		 imul	 edi
  00050	03 d7		 add	 edx, edi
  00052	c1 fa 04	 sar	 edx, 4
  00055	8b c2		 mov	 eax, edx
  00057	c1 e8 1f	 shr	 eax, 31			; 0000001fH
  0005a	03 c2		 add	 eax, edx
  0005c	3b 05 00 00 00
	00		 cmp	 eax, DWORD PTR ?s_iTIME_REMAIN@?7??ProcState_Playing@CXMasAttackEvent@@QAEXXZ@4HA
  00062	0f 84 e4 00 00
	00		 je	 $LN38@ProcState_@2
  00068	8b d0		 mov	 edx, eax
  0006a	c1 e2 04	 shl	 edx, 4
  0006d	2b d0		 sub	 edx, eax
  0006f	03 d2		 add	 edx, edx
  00071	2b fa		 sub	 edi, edx
  00073	0f 85 d3 00 00
	00		 jne	 $LN38@ProcState_@2

; 455  : 	{
; 456  : 		s_iTIME_REMAIN = loc3 / 30;
; 457  : 
; 458  : 		for ( int i=0;i<this->m_vtXMasMonsterHerd.size();i++) //loc4

  00079	8b 4e 4c	 mov	 ecx, DWORD PTR [esi+76]
  0007c	2b 4e 48	 sub	 ecx, DWORD PTR [esi+72]
  0007f	a3 00 00 00 00	 mov	 DWORD PTR ?s_iTIME_REMAIN@?7??ProcState_Playing@CXMasAttackEvent@@QAEXXZ@4HA, eax
  00084	33 c0		 xor	 eax, eax
  00086	c1 f9 02	 sar	 ecx, 2
  00089	89 45 fc	 mov	 DWORD PTR _i$213556[ebp], eax
  0008c	85 c9		 test	 ecx, ecx
  0008e	0f 84 a3 00 00
	00		 je	 $LN15@ProcState_@2
$LL41@ProcState_@2:

; 459  : 		{
; 460  : 			CXMasMonsterHerd * vtHerdInfo = this->m_vtXMasMonsterHerd[i]; //perfect loc5

  00094	8b 56 48	 mov	 edx, DWORD PTR [esi+72]
  00097	8b 0c 82	 mov	 ecx, DWORD PTR [edx+eax*4]
  0009a	8b 15 00 00 00
	00		 mov	 edx, DWORD PTR ?gObj@@3PAUOBJECTSTRUCT@@A ; gObj

; 461  : 
; 462  : 			BOOL bLive = FALSE; //lo6

  000a0	33 ff		 xor	 edi, edi
  000a2	89 7d f8	 mov	 DWORD PTR _bLive$213561[ebp], edi
  000a5	81 c2 e8 10 00
	00		 add	 edx, 4328		; 000010e8H
  000ab	eb 03 8d 49 00	 npad	 5
$LL14@ProcState_@2:

; 465  : 			{
; 466  : 				if ( gObj[n].Class == 476 )

  000b0	b8 dc 01 00 00	 mov	 eax, 476		; 000001dcH
  000b5	66 39 82 d0 ef
	ff ff		 cmp	 WORD PTR [edx-4144], ax
  000bc	75 1e		 jne	 SHORT $LN13@ProcState_@2

; 467  : 				{
; 468  : 					if ( gObj[n].m_bIsInMonsterHerd )

  000be	83 3a 00	 cmp	 DWORD PTR [edx], 0
  000c1	74 19		 je	 SHORT $LN13@ProcState_@2

; 469  : 					{
; 470  : 						if ( gObj[n].Live && gObj[n].MapNumber == vtHerdInfo->GetMapNumber() )

  000c3	80 ba 82 ef ff
	ff 00		 cmp	 BYTE PTR [edx-4222], 0
  000ca	74 10		 je	 SHORT $LN13@ProcState_@2
  000cc	e8 00 00 00 00	 call	 ?GetMapNumber@CXMasMonsterHerd@@QAEHXZ ; CXMasMonsterHerd::GetMapNumber
  000d1	0f b6 9a 61 f0
	ff ff		 movzx	 ebx, BYTE PTR [edx-3999]
  000d8	3b d8		 cmp	 ebx, eax
  000da	74 14		 je	 SHORT $LN34@ProcState_@2
$LN13@ProcState_@2:

; 463  : 
; 464  : 			for ( int n=0;n<OBJ_STARTUSERINDZT;n++) //loc7

  000dc	47		 inc	 edi
  000dd	81 c2 50 2b 00
	00		 add	 edx, 11088		; 00002b50H
  000e3	81 ff b0 36 00
	00		 cmp	 edi, 14000		; 000036b0H
  000e9	7c c5		 jl	 SHORT $LL14@ProcState_@2

; 469  : 					{
; 470  : 						if ( gObj[n].Live && gObj[n].MapNumber == vtHerdInfo->GetMapNumber() )

  000eb	8b 45 f8	 mov	 eax, DWORD PTR _bLive$213561[ebp]
  000ee	eb 05		 jmp	 SHORT $LN12@ProcState_@2
$LN34@ProcState_@2:

; 471  : 						{
; 472  : 							bLive = TRUE;

  000f0	b8 01 00 00 00	 mov	 eax, 1
$LN12@ProcState_@2:

; 473  : 							break;
; 474  : 						}
; 475  : 					}
; 476  : 				}
; 477  : 			}
; 478  : 			LogAddTD("[XMasAttackEvent] - per 30'S Inform MapNumber:%d, X:%d, Y:%d, Boss Live:%d", vtHerdInfo->GetMapNumber(), vtHerdInfo->GetX(), vtHerdInfo->GetY(), bLive);

  000f5	50		 push	 eax
  000f6	e8 00 00 00 00	 call	 ?GetY@CXMasMonsterHerd@@QAEEXZ ; CXMasMonsterHerd::GetY
  000fb	0f b6 d0	 movzx	 edx, al
  000fe	52		 push	 edx
  000ff	e8 00 00 00 00	 call	 ?GetX@CXMasMonsterHerd@@QAEEXZ ; CXMasMonsterHerd::GetX
  00104	0f b6 c0	 movzx	 eax, al
  00107	50		 push	 eax
  00108	e8 00 00 00 00	 call	 ?GetMapNumber@CXMasMonsterHerd@@QAEHXZ ; CXMasMonsterHerd::GetMapNumber
  0010d	50		 push	 eax
  0010e	68 00 00 00 00	 push	 OFFSET ??_C@_0EL@CAFMAFGG@?$FLXMasAttackEvent?$FN?5?9?5per?530?8S?5Inf@
  00113	ff 15 00 00 00
	00		 call	 DWORD PTR ?LogAddTD@@3P6AXPADZZA ; LogAddTD
  00119	8b 4e 4c	 mov	 ecx, DWORD PTR [esi+76]
  0011c	2b 4e 48	 sub	 ecx, DWORD PTR [esi+72]
  0011f	8b 45 fc	 mov	 eax, DWORD PTR _i$213556[ebp]
  00122	40		 inc	 eax
  00123	c1 f9 02	 sar	 ecx, 2
  00126	83 c4 14	 add	 esp, 20			; 00000014H
  00129	89 45 fc	 mov	 DWORD PTR _i$213556[ebp], eax
  0012c	3b c1		 cmp	 eax, ecx
  0012e	0f 82 60 ff ff
	ff		 jb	 $LL41@ProcState_@2

; 455  : 	{
; 456  : 		s_iTIME_REMAIN = loc3 / 30;
; 457  : 
; 458  : 		for ( int i=0;i<this->m_vtXMasMonsterHerd.size();i++) //loc4

  00134	8b 5d f4	 mov	 ebx, DWORD PTR _iTICK_MSEC$[ebp]
$LN15@ProcState_@2:

; 479  : 			this->EventLog("[%s] X:%d, Y:%d",vtHerdInfo->GetMapNumber(), vtHerdInfo->GetX(), vtHerdInfo->GetY());
; 480  : 		}
; 481  : 		LogAddTD("[XMasAttackEvent] - NotifySec: %d", s_iTIME_REMAIN);

  00137	8b 15 00 00 00
	00		 mov	 edx, DWORD PTR ?s_iTIME_REMAIN@?7??ProcState_Playing@CXMasAttackEvent@@QAEXXZ@4HA
  0013d	52		 push	 edx
  0013e	68 00 00 00 00	 push	 OFFSET ??_C@_0CC@NCANOPGD@?$FLXMasAttackEvent?$FN?5?9?5NotifySec?3?5?$CF@
  00143	ff 15 00 00 00
	00		 call	 DWORD PTR ?LogAddTD@@3P6AXPADZZA ; LogAddTD
  00149	83 c4 08	 add	 esp, 8
$LN38@ProcState_@2:

; 482  : 	}
; 483  : 
; 484  : 	if (this->m_bMonsterToDest == FALSE && iTICK_MSEC <= this->m_iTIME_MONSTER_TO_DEST)

  0014c	83 7e 70 00	 cmp	 DWORD PTR [esi+112], 0
  00150	0f 85 bd 00 00
	00		 jne	 $LN40@ProcState_@2
  00156	3b 9e 88 00 00
	00		 cmp	 ebx, DWORD PTR [esi+136]
  0015c	0f 8f b1 00 00
	00		 jg	 $LN40@ProcState_@2

; 485  : 	{		
; 486  : 		for ( int i=0;i<this->m_vtXMasMonsterHerd.size();i++) //loc8

  00162	8b 46 4c	 mov	 eax, DWORD PTR [esi+76]
  00165	2b 46 48	 sub	 eax, DWORD PTR [esi+72]
  00168	c7 45 fc 00 00
	00 00		 mov	 DWORD PTR _i$213573[ebp], 0
  0016f	c1 f8 02	 sar	 eax, 2
  00172	85 c0		 test	 eax, eax
  00174	0f 84 8f 00 00
	00		 je	 $LN5@ProcState_@2
  0017a	8d 9b 00 00 00
	00		 npad	 6
$LL39@ProcState_@2:
  00180	8b 5d fc	 mov	 ebx, DWORD PTR _i$213573[ebp]

; 487  : 		{
; 488  : 			CXMasMonsterHerd * vtHerdInfo = this->m_vtXMasMonsterHerd[i]; //perfect loc9

  00183	8b 4e 48	 mov	 ecx, DWORD PTR [esi+72]
  00186	03 db		 add	 ebx, ebx
  00188	03 db		 add	 ebx, ebx
  0018a	8b 3c 0b	 mov	 edi, DWORD PTR [ebx+ecx]

; 489  : 
; 490  : 			BYTE ucRAND; //loc11
; 491  : 			BYTE iRandX; //loc12
; 492  : 			BYTE iRandY; //loc13			
; 493  : 
; 494  : 			ucRAND = rand()%4;

  0018d	e8 00 00 00 00	 call	 _rand
  00192	25 03 00 00 80	 and	 eax, -2147483645	; 80000003H
  00197	79 05		 jns	 SHORT $LN42@ProcState_@2
  00199	48		 dec	 eax
  0019a	83 c8 fc	 or	 eax, -4			; fffffffcH
  0019d	40		 inc	 eax
$LN42@ProcState_@2:

; 495  : 			iRandX = g_XMasMapDestPosition[i][ucRAND*2];

  0019e	0f b6 c0	 movzx	 eax, al
  001a1	03 c3		 add	 eax, ebx
  001a3	03 c0		 add	 eax, eax
  001a5	03 c0		 add	 eax, eax

; 496  : 			iRandY = g_XMasMapDestPosition[i][ucRAND*2+1];

  001a7	8a 94 00 04 00
	00 00		 mov	 dl, BYTE PTR _g_XMasMapDestPosition[eax+eax+4]
  001ae	8a 9c 00 00 00
	00 00		 mov	 bl, BYTE PTR _g_XMasMapDestPosition[eax+eax]
  001b5	03 c0		 add	 eax, eax

; 497  : 
; 498  : 			if ( vtHerdInfo->MoveHerd(iRandX, iRandY) != FALSE )

  001b7	8b 07		 mov	 eax, DWORD PTR [edi]
  001b9	8b 40 2c	 mov	 eax, DWORD PTR [eax+44]
  001bc	88 55 f8	 mov	 BYTE PTR _iRandY$213580[ebp], dl
  001bf	8b 4d f8	 mov	 ecx, DWORD PTR _iRandY$213580[ebp]
  001c2	88 5d f0	 mov	 BYTE PTR _iRandX$213579[ebp], bl
  001c5	8b 55 f0	 mov	 edx, DWORD PTR _iRandX$213579[ebp]
  001c8	51		 push	 ecx
  001c9	52		 push	 edx
  001ca	8b cf		 mov	 ecx, edi
  001cc	ff d0		 call	 eax
  001ce	85 c0		 test	 eax, eax
  001d0	74 1f		 je	 SHORT $LN6@ProcState_@2

; 499  : 			{
; 500  : 				LogAddTD("[XMasAttackEvent] - Monster Herd Move MapNumber:%d, X:%d, Y:%d",
; 501  : 					vtHerdInfo->GetMapNumber(), iRandX, iRandY);

  001d2	0f b6 4d f8	 movzx	 ecx, BYTE PTR _iRandY$213580[ebp]
  001d6	51		 push	 ecx
  001d7	0f b6 d3	 movzx	 edx, bl
  001da	52		 push	 edx
  001db	8b cf		 mov	 ecx, edi
  001dd	e8 00 00 00 00	 call	 ?GetMapNumber@CXMasMonsterHerd@@QAEHXZ ; CXMasMonsterHerd::GetMapNumber
  001e2	50		 push	 eax
  001e3	68 00 00 00 00	 push	 OFFSET ??_C@_0DP@COOJAPLA@?$FLXMasAttackEvent?$FN?5?9?5Monster?5Herd@
  001e8	ff 15 00 00 00
	00		 call	 DWORD PTR ?LogAddTD@@3P6AXPADZZA ; LogAddTD
  001ee	83 c4 10	 add	 esp, 16			; 00000010H
$LN6@ProcState_@2:

; 485  : 	{		
; 486  : 		for ( int i=0;i<this->m_vtXMasMonsterHerd.size();i++) //loc8

  001f1	8b 4e 4c	 mov	 ecx, DWORD PTR [esi+76]
  001f4	2b 4e 48	 sub	 ecx, DWORD PTR [esi+72]
  001f7	8b 45 fc	 mov	 eax, DWORD PTR _i$213573[ebp]
  001fa	40		 inc	 eax
  001fb	c1 f9 02	 sar	 ecx, 2
  001fe	89 45 fc	 mov	 DWORD PTR _i$213573[ebp], eax
  00201	3b c1		 cmp	 eax, ecx
  00203	0f 82 77 ff ff
	ff		 jb	 $LL39@ProcState_@2
$LN5@ProcState_@2:

; 502  : 				this->EventLog("[%s] X:%d, Y:%d",vtHerdInfo->GetMapNumber(), iRandX, iRandY);
; 503  : 			}
; 504  : 		}
; 505  : 
; 506  : 		this->m_bMonsterToDest = TRUE;

  00209	8b 5d f4	 mov	 ebx, DWORD PTR _iTICK_MSEC$[ebp]
  0020c	c7 46 70 01 00
	00 00		 mov	 DWORD PTR [esi+112], 1
$LN40@ProcState_@2:

; 507  : 	}
; 508  : 
; 509  : 	if ( iTICK_MSEC == 0 )

  00213	85 db		 test	 ebx, ebx
  00215	75 20		 jne	 SHORT $LN3@ProcState_@2

; 510  : 	{
; 511  : 		if ( this->m_bDoEvent != FALSE )
; 512  : 		{
; 513  : 			this->SetState(ATTACKEVENT_STATE_CLOSED);

  00217	8b ce		 mov	 ecx, esi
  00219	39 5e 04	 cmp	 DWORD PTR [esi+4], ebx
  0021c	74 04		 je	 SHORT $LN2@ProcState_@2
  0021e	6a 01		 push	 1

; 514  : 		}
; 515  : 		else

  00220	eb 02		 jmp	 SHORT $LN43@ProcState_@2
$LN2@ProcState_@2:

; 516  : 		{
; 517  : 			this->SetState(ATTACKEVENT_STATE_NONE);

  00222	6a 00		 push	 0
$LN43@ProcState_@2:
  00224	e8 00 00 00 00	 call	 ?SetState@CXMasAttackEvent@@QAEXH@Z ; CXMasAttackEvent::SetState

; 518  : 		}
; 519  : 
; 520  : 		LogAddTD("[XMasAttackEvent] - Event Ended");

  00229	68 00 00 00 00	 push	 OFFSET ??_C@_0CA@GNBALKOM@?$FLXMasAttackEvent?$FN?5?9?5Event?5Ended?$AA@
  0022e	ff 15 00 00 00
	00		 call	 DWORD PTR ?LogAddTD@@3P6AXPADZZA ; LogAddTD
  00234	83 c4 04	 add	 esp, 4
$LN3@ProcState_@2:
  00237	5f		 pop	 edi
  00238	5e		 pop	 esi
  00239	5b		 pop	 ebx

; 521  : 	}
; 522  : }

  0023a	8b e5		 mov	 esp, ebp
  0023c	5d		 pop	 ebp
  0023d	c3		 ret	 0
?ProcState_Playing@CXMasAttackEvent@@QAEXXZ ENDP	; CXMasAttackEvent::ProcState_Playing
_TEXT	ENDS
PUBLIC	?CreateMonsterHerd@CXMasAttackEvent@@QAEXXZ	; CXMasAttackEvent::CreateMonsterHerd
EXTRN	___CxxFrameHandler3:PROC
;	COMDAT xdata$x
; File d:\program files (x86)\microsoft visual studio 10.0\vc\include\utility
xdata$x	SEGMENT
__unwindtable$?CreateMonsterHerd@CXMasAttackEvent@@QAEXXZ DD 0ffffffffH
	DD	FLAT:__unwindfunclet$?CreateMonsterHerd@CXMasAttackEvent@@QAEXXZ$0
__ehfuncinfo$?CreateMonsterHerd@CXMasAttackEvent@@QAEXXZ DD 019930522H
	DD	01H
	DD	FLAT:__unwindtable$?CreateMonsterHerd@CXMasAttackEvent@@QAEXXZ
	DD	2 DUP(00H)
	DD	2 DUP(00H)
	DD	00H
	DD	01H
; Function compile flags: /Ogtp
; File e:\work\tranet_version\gs\gameserver\xmasattackevent.cpp
xdata$x	ENDS
;	COMDAT ?CreateMonsterHerd@CXMasAttackEvent@@QAEXXZ
_TEXT	SEGMENT
tv512 = -28						; size = 4
_this$ = -24						; size = 4
_it$213763 = -20					; size = 4
$T219490 = -16						; size = 4
_vtHerdInfo$213786 = -16				; size = 4
__$EHRec$ = -12						; size = 12
?CreateMonsterHerd@CXMasAttackEvent@@QAEXXZ PROC	; CXMasAttackEvent::CreateMonsterHerd, COMDAT
; _this$ = ecx

; 607  : {

  00000	55		 push	 ebp
  00001	8b ec		 mov	 ebp, esp
  00003	6a ff		 push	 -1
  00005	68 00 00 00 00	 push	 __ehhandler$?CreateMonsterHerd@CXMasAttackEvent@@QAEXXZ
  0000a	64 a1 00 00 00
	00		 mov	 eax, DWORD PTR fs:0
  00010	50		 push	 eax
  00011	83 ec 10	 sub	 esp, 16			; 00000010H
  00014	53		 push	 ebx
  00015	56		 push	 esi
  00016	57		 push	 edi
  00017	a1 00 00 00 00	 mov	 eax, DWORD PTR ___security_cookie
  0001c	33 c5		 xor	 eax, ebp
  0001e	50		 push	 eax
  0001f	8d 45 f4	 lea	 eax, DWORD PTR __$EHRec$[ebp]
  00022	64 a3 00 00 00
	00		 mov	 DWORD PTR fs:0, eax
  00028	8b d9		 mov	 ebx, ecx
  0002a	89 5d e8	 mov	 DWORD PTR _this$[ebp], ebx

; 608  : 	EnterCriticalSection(&this->m_critMonsterAddData);

  0002d	8d 73 10	 lea	 esi, DWORD PTR [ebx+16]
  00030	56		 push	 esi
  00031	89 75 e4	 mov	 DWORD PTR tv512[ebp], esi
  00034	ff 15 00 00 00
	00		 call	 DWORD PTR __imp__EnterCriticalSection@4

; 609  : 
; 610  : 	for ( std::vector<XMASMONSTER_MAP_INFO>::iterator it = this->m_vtXMasMonsterMapInfo.begin(); it != this->m_vtXMasMonsterMapInfo.end() ; it++ )

  0003a	8b 43 5c	 mov	 eax, DWORD PTR [ebx+92]
  0003d	89 45 ec	 mov	 DWORD PTR _it$213763[ebp], eax
  00040	3b 43 60	 cmp	 eax, DWORD PTR [ebx+96]
  00043	0f 84 08 01 00
	00		 je	 $LN1@CreateMons
  00049	8d 73 48	 lea	 esi, DWORD PTR [ebx+72]
  0004c	8d 64 24 00	 npad	 4
$LL21@CreateMons:

; 611  : 	{
; 612  : 		CXMasMonsterHerd & vtHerdInfo = *(new CXMasMonsterHerd);

  00050	6a 48		 push	 72			; 00000048H
  00052	e8 00 00 00 00	 call	 ??2@YAPAXI@Z		; operator new
  00057	83 c4 04	 add	 esp, 4
  0005a	89 45 f0	 mov	 DWORD PTR $T219490[ebp], eax
  0005d	c7 45 fc 00 00
	00 00		 mov	 DWORD PTR __$EHRec$[ebp+8], 0
  00064	85 c0		 test	 eax, eax
  00066	74 09		 je	 SHORT $LN6@CreateMons
  00068	8b c8		 mov	 ecx, eax
  0006a	e8 00 00 00 00	 call	 ??0CXMasMonsterHerd@@QAE@XZ ; CXMasMonsterHerd::CXMasMonsterHerd
  0006f	eb 02		 jmp	 SHORT $LN7@CreateMons
$LN6@CreateMons:
  00071	33 c0		 xor	 eax, eax
$LN7@CreateMons:
  00073	89 45 f0	 mov	 DWORD PTR _vtHerdInfo$213786[ebp], eax

; 613  : 		this->m_vtXMasMonsterHerd.push_back(&vtHerdInfo);

  00076	8b 46 04	 mov	 eax, DWORD PTR [esi+4]
  00079	8d 4d f0	 lea	 ecx, DWORD PTR _vtHerdInfo$213786[ebp]
  0007c	c7 45 fc ff ff
	ff ff		 mov	 DWORD PTR __$EHRec$[ebp+8], -1
  00083	3b c8		 cmp	 ecx, eax
  00085	73 5b		 jae	 SHORT $LN40@CreateMons
  00087	8b 16		 mov	 edx, DWORD PTR [esi]
  00089	3b d1		 cmp	 edx, ecx
  0008b	77 55		 ja	 SHORT $LN40@CreateMons
  0008d	8b f9		 mov	 edi, ecx
  0008f	8b 4e 08	 mov	 ecx, DWORD PTR [esi+8]
  00092	2b fa		 sub	 edi, edx
  00094	c1 ff 02	 sar	 edi, 2
  00097	3b c1		 cmp	 eax, ecx
  00099	75 40		 jne	 SHORT $LN51@CreateMons
  0009b	2b c2		 sub	 eax, edx
  0009d	c1 f8 02	 sar	 eax, 2
  000a0	3d fe ff ff 3f	 cmp	 eax, 1073741822		; 3ffffffeH
  000a5	0f 87 bf 00 00
	00		 ja	 $LN126@CreateMons
  000ab	2b ca		 sub	 ecx, edx
  000ad	40		 inc	 eax
  000ae	c1 f9 02	 sar	 ecx, 2
  000b1	3b c1		 cmp	 eax, ecx
  000b3	76 26		 jbe	 SHORT $LN51@CreateMons
  000b5	8b d1		 mov	 edx, ecx
  000b7	d1 ea		 shr	 edx, 1
  000b9	bb ff ff ff 3f	 mov	 ebx, 1073741823		; 3fffffffH
  000be	2b da		 sub	 ebx, edx
  000c0	3b d9		 cmp	 ebx, ecx
  000c2	73 04		 jae	 SHORT $LN73@CreateMons
  000c4	33 c9		 xor	 ecx, ecx
  000c6	eb 02		 jmp	 SHORT $LN74@CreateMons
$LN73@CreateMons:
  000c8	03 ca		 add	 ecx, edx
$LN74@CreateMons:
  000ca	3b c8		 cmp	 ecx, eax
  000cc	73 02		 jae	 SHORT $LN70@CreateMons
  000ce	8b c8		 mov	 ecx, eax
$LN70@CreateMons:
  000d0	51		 push	 ecx
  000d1	8b ce		 mov	 ecx, esi
  000d3	e8 00 00 00 00	 call	 ?reserve@?$vector@PAVCXMasMonsterHerd@@V?$allocator@PAVCXMasMonsterHerd@@@std@@@std@@QAEXI@Z ; std::vector<CXMasMonsterHerd *,std::allocator<CXMasMonsterHerd *> >::reserve
  000d8	8b 5d e8	 mov	 ebx, DWORD PTR _this$[ebp]
$LN51@CreateMons:
  000db	8b 16		 mov	 edx, DWORD PTR [esi]
  000dd	8d 04 ba	 lea	 eax, DWORD PTR [edx+edi*4]
  000e0	eb 45		 jmp	 SHORT $LN132@CreateMons
$LN40@CreateMons:
  000e2	8b 4e 08	 mov	 ecx, DWORD PTR [esi+8]
  000e5	3b c1		 cmp	 eax, ecx
  000e7	75 3b		 jne	 SHORT $LN88@CreateMons
  000e9	8b 16		 mov	 edx, DWORD PTR [esi]
  000eb	2b c2		 sub	 eax, edx
  000ed	c1 f8 02	 sar	 eax, 2
  000f0	3d fe ff ff 3f	 cmp	 eax, 1073741822		; 3ffffffeH
  000f5	77 73		 ja	 SHORT $LN126@CreateMons
  000f7	2b ca		 sub	 ecx, edx
  000f9	40		 inc	 eax
  000fa	c1 f9 02	 sar	 ecx, 2
  000fd	3b c1		 cmp	 eax, ecx
  000ff	76 23		 jbe	 SHORT $LN88@CreateMons
  00101	8b d1		 mov	 edx, ecx
  00103	d1 ea		 shr	 edx, 1
  00105	bf ff ff ff 3f	 mov	 edi, 1073741823		; 3fffffffH
  0010a	2b fa		 sub	 edi, edx
  0010c	3b f9		 cmp	 edi, ecx
  0010e	73 04		 jae	 SHORT $LN110@CreateMons
  00110	33 c9		 xor	 ecx, ecx
  00112	eb 02		 jmp	 SHORT $LN111@CreateMons
$LN110@CreateMons:
  00114	03 ca		 add	 ecx, edx
$LN111@CreateMons:
  00116	3b c8		 cmp	 ecx, eax
  00118	73 02		 jae	 SHORT $LN107@CreateMons
  0011a	8b c8		 mov	 ecx, eax
$LN107@CreateMons:
  0011c	51		 push	 ecx
  0011d	8b ce		 mov	 ecx, esi
  0011f	e8 00 00 00 00	 call	 ?reserve@?$vector@PAVCXMasMonsterHerd@@V?$allocator@PAVCXMasMonsterHerd@@@std@@@std@@QAEXI@Z ; std::vector<CXMasMonsterHerd *,std::allocator<CXMasMonsterHerd *> >::reserve
$LN88@CreateMons:
  00124	8d 45 f0	 lea	 eax, DWORD PTR _vtHerdInfo$213786[ebp]
$LN132@CreateMons:
  00127	8b 4e 04	 mov	 ecx, DWORD PTR [esi+4]
  0012a	50		 push	 eax
  0012b	51		 push	 ecx
  0012c	8d 56 0c	 lea	 edx, DWORD PTR [esi+12]
  0012f	52		 push	 edx
  00130	e8 00 00 00 00	 call	 ??$_Cons_val@V?$allocator@PAVCXMasMonsterHerd@@@std@@PAVCXMasMonsterHerd@@PAV3@@std@@YAXAAV?$allocator@PAVCXMasMonsterHerd@@@0@PAPAVCXMasMonsterHerd@@$$QAPAV2@@Z ; std::_Cons_val<std::allocator<CXMasMonsterHerd *>,CXMasMonsterHerd *,CXMasMonsterHerd *>
  00135	8b 45 ec	 mov	 eax, DWORD PTR _it$213763[ebp]
  00138	83 46 04 04	 add	 DWORD PTR [esi+4], 4
  0013c	83 c0 14	 add	 eax, 20			; 00000014H
  0013f	83 c4 0c	 add	 esp, 12			; 0000000cH
  00142	89 45 ec	 mov	 DWORD PTR _it$213763[ebp], eax
  00145	3b 43 60	 cmp	 eax, DWORD PTR [ebx+96]
  00148	0f 85 02 ff ff
	ff		 jne	 $LL21@CreateMons
  0014e	8b 75 e4	 mov	 esi, DWORD PTR tv512[ebp]
$LN1@CreateMons:

; 614  : 	}
; 615  : 
; 616  : 	LeaveCriticalSection(&this->m_critMonsterAddData);		

  00151	56		 push	 esi
  00152	ff 15 00 00 00
	00		 call	 DWORD PTR __imp__LeaveCriticalSection@4

; 617  : }

  00158	8b 4d f4	 mov	 ecx, DWORD PTR __$EHRec$[ebp]
  0015b	64 89 0d 00 00
	00 00		 mov	 DWORD PTR fs:0, ecx
  00162	59		 pop	 ecx
  00163	5f		 pop	 edi
  00164	5e		 pop	 esi
  00165	5b		 pop	 ebx
  00166	8b e5		 mov	 esp, ebp
  00168	5d		 pop	 ebp
  00169	c3		 ret	 0
$LN126@CreateMons:

; 613  : 		this->m_vtXMasMonsterHerd.push_back(&vtHerdInfo);

  0016a	68 00 00 00 00	 push	 OFFSET ??_C@_0BD@OLBABOEK@vector?$DMT?$DO?5too?5long?$AA@
  0016f	e8 00 00 00 00	 call	 ?_Xlength_error@std@@YAXPBD@Z ; std::_Xlength_error
$LN133@CreateMons:
$LN131@CreateMons:
  00174	cc		 int	 3
_TEXT	ENDS
;	COMDAT text$x
text$x	SEGMENT
__unwindfunclet$?CreateMonsterHerd@CXMasAttackEvent@@QAEXXZ$0:
  00000	8b 45 f0	 mov	 eax, DWORD PTR $T219490[ebp]
  00003	50		 push	 eax
  00004	e8 00 00 00 00	 call	 ??3@YAXPAX@Z		; operator delete
  00009	59		 pop	 ecx
  0000a	c3		 ret	 0
__ehhandler$?CreateMonsterHerd@CXMasAttackEvent@@QAEXXZ:
  0000b	8b 54 24 08	 mov	 edx, DWORD PTR [esp+8]
  0000f	8d 42 0c	 lea	 eax, DWORD PTR [edx+12]
  00012	8b 4a e0	 mov	 ecx, DWORD PTR [edx-32]
  00015	33 c8		 xor	 ecx, eax
  00017	e8 00 00 00 00	 call	 @__security_check_cookie@4
  0001c	b8 00 00 00 00	 mov	 eax, OFFSET __ehfuncinfo$?CreateMonsterHerd@CXMasAttackEvent@@QAEXXZ
  00021	e9 00 00 00 00	 jmp	 ___CxxFrameHandler3
text$x	ENDS
?CreateMonsterHerd@CXMasAttackEvent@@QAEXXZ ENDP	; CXMasAttackEvent::CreateMonsterHerd
PUBLIC	?Run@CXMasAttackEvent@@QAEXXZ			; CXMasAttackEvent::Run
; Function compile flags: /Ogtp
;	COMDAT ?Run@CXMasAttackEvent@@QAEXXZ
_TEXT	SEGMENT
?Run@CXMasAttackEvent@@QAEXXZ PROC			; CXMasAttackEvent::Run, COMDAT
; _this$ = ecx

; 693  : 	if ( this->m_bMenualStart )

  00000	83 79 0c 00	 cmp	 DWORD PTR [ecx+12], 0
  00004	75 1e		 jne	 SHORT $LN3@Run

; 694  : 		return;
; 695  : 
; 696  : 	if ( this->m_bDoEvent == FALSE)

  00006	83 79 04 00	 cmp	 DWORD PTR [ecx+4], 0
  0000a	74 18		 je	 SHORT $LN3@Run

; 697  : 		return;
; 698  : 
; 699  : 	switch ( this->m_nEvent_State )

  0000c	8b 41 6c	 mov	 eax, DWORD PTR [ecx+108]
  0000f	83 e8 00	 sub	 eax, 0
  00012	74 10		 je	 SHORT $LN3@Run
  00014	48		 dec	 eax
  00015	74 08		 je	 SHORT $LN2@Run
  00017	48		 dec	 eax
  00018	75 0a		 jne	 SHORT $LN3@Run

; 706  : 			break;
; 707  : 		case 2:
; 708  : 			this->ProcState_Playing();

  0001a	e9 00 00 00 00	 jmp	 ?ProcState_Playing@CXMasAttackEvent@@QAEXXZ ; CXMasAttackEvent::ProcState_Playing
$LN2@Run:

; 700  : 	{
; 701  : 		case 0:
; 702  : 			this->ProcState_None();
; 703  : 			break;
; 704  : 		case 1:
; 705  : 			this->ProcState_Closed();

  0001f	e9 00 00 00 00	 jmp	 ?ProcState_Closed@CXMasAttackEvent@@QAEXXZ ; CXMasAttackEvent::ProcState_Closed
$LN3@Run:

; 709  : 	}
; 710  : }	

  00024	c3		 ret	 0
?Run@CXMasAttackEvent@@QAEXXZ ENDP			; CXMasAttackEvent::Run
_TEXT	ENDS
PUBLIC	??_C@_0DA@JGNGNKPL@?$KB?$NL?$KB?$NM?$FLEvent?5Management?$FN?5?$FLStart?$FN?5X@ ; `string'
PUBLIC	?Start_Menual@CXMasAttackEvent@@UAEXXZ		; CXMasAttackEvent::Start_Menual
;	COMDAT ??_C@_0DA@JGNGNKPL@?$KB?$NL?$KB?$NM?$FLEvent?5Management?$FN?5?$FLStart?$FN?5X@
CONST	SEGMENT
??_C@_0DA@JGNGNKPL@?$KB?$NL?$KB?$NM?$FLEvent?5Management?$FN?5?$FLStart?$FN?5X@ DB 0a1H
	DB	0dbH, 0a1H, 0dcH, '[Event Management] [Start] XMasAttackEvent!'
	DB	00H						; `string'
; Function compile flags: /Ogtp
CONST	ENDS
;	COMDAT ?Start_Menual@CXMasAttackEvent@@UAEXXZ
_TEXT	SEGMENT
?Start_Menual@CXMasAttackEvent@@UAEXXZ PROC		; CXMasAttackEvent::Start_Menual, COMDAT
; _this$ = ecx

; 790  : {

  00000	56		 push	 esi
  00001	8b f1		 mov	 esi, ecx

; 791  : 	this->SetMenualStart(TRUE);

  00003	8b 06		 mov	 eax, DWORD PTR [esi]
  00005	8b 50 14	 mov	 edx, DWORD PTR [eax+20]
  00008	6a 01		 push	 1
  0000a	ff d2		 call	 edx

; 792  : 	this->StopEvent();

  0000c	8b 06		 mov	 eax, DWORD PTR [esi]
  0000e	8b 50 0c	 mov	 edx, DWORD PTR [eax+12]
  00011	8b ce		 mov	 ecx, esi
  00013	ff d2		 call	 edx

; 793  : 
; 794  : 	LogAddTD("[Event Management] [Start] XMasAttackEvent!");

  00015	68 00 00 00 00	 push	 OFFSET ??_C@_0DA@JGNGNKPL@?$KB?$NL?$KB?$NM?$FLEvent?5Management?$FN?5?$FLStart?$FN?5X@
  0001a	ff 15 00 00 00
	00		 call	 DWORD PTR ?LogAddTD@@3P6AXPADZZA ; LogAddTD
  00020	83 c4 04	 add	 esp, 4

; 795  : 	this->m_iTIME_MIN_PLAY = 30;
; 796  : 
; 797  : 	//this->SendMessage(lMsg.Get(2583), 1);
; 798  : 	this->SetState(ATTACKEVENT_STATE_PLAYING);

  00023	6a 02		 push	 2
  00025	8b ce		 mov	 ecx, esi
  00027	c7 86 84 00 00
	00 1e 00 00 00	 mov	 DWORD PTR [esi+132], 30	; 0000001eH
  00031	e8 00 00 00 00	 call	 ?SetState@CXMasAttackEvent@@QAEXH@Z ; CXMasAttackEvent::SetState
  00036	5e		 pop	 esi

; 799  : }

  00037	c3		 ret	 0
?Start_Menual@CXMasAttackEvent@@UAEXXZ ENDP		; CXMasAttackEvent::Start_Menual
_TEXT	ENDS
PUBLIC	?_Tidy@?$vector@UXMASMONSTER_MAP_INFO@@V?$allocator@UXMASMONSTER_MAP_INFO@@@std@@@std@@IAEXXZ ; std::vector<XMASMONSTER_MAP_INFO,std::allocator<XMASMONSTER_MAP_INFO> >::_Tidy
; Function compile flags: /Ogtp
; File d:\program files (x86)\microsoft visual studio 10.0\vc\include\vector
;	COMDAT ?_Tidy@?$vector@UXMASMONSTER_MAP_INFO@@V?$allocator@UXMASMONSTER_MAP_INFO@@@std@@@std@@IAEXXZ
_TEXT	SEGMENT
?_Tidy@?$vector@UXMASMONSTER_MAP_INFO@@V?$allocator@UXMASMONSTER_MAP_INFO@@@std@@@std@@IAEXXZ PROC ; std::vector<XMASMONSTER_MAP_INFO,std::allocator<XMASMONSTER_MAP_INFO> >::_Tidy, COMDAT
; _this$ = ecx

; 1301 : 		{	// free all storage

  00000	56		 push	 esi
  00001	8b f1		 mov	 esi, ecx

; 1302 : 		if (this->_Myfirst != 0)

  00003	8b 06		 mov	 eax, DWORD PTR [esi]
  00005	85 c0		 test	 eax, eax
  00007	74 09		 je	 SHORT $LN6@Tidy

; 1303 : 			{	// something to free, destroy and deallocate it
; 1304 : 			this->_Orphan_all();
; 1305 : 			_Destroy(this->_Myfirst, this->_Mylast);
; 1306 : 			this->_Alval.deallocate(this->_Myfirst,
; 1307 : 				this->_Myend - this->_Myfirst);

  00009	50		 push	 eax
  0000a	e8 00 00 00 00	 call	 ??3@YAXPAX@Z		; operator delete
  0000f	83 c4 04	 add	 esp, 4
$LN6@Tidy:

; 1308 : 			}
; 1309 : 		this->_Myfirst = 0;

  00012	c7 06 00 00 00
	00		 mov	 DWORD PTR [esi], 0

; 1310 : 		this->_Mylast = 0;

  00018	c7 46 04 00 00
	00 00		 mov	 DWORD PTR [esi+4], 0

; 1311 : 		this->_Myend = 0;

  0001f	c7 46 08 00 00
	00 00		 mov	 DWORD PTR [esi+8], 0
  00026	5e		 pop	 esi

; 1312 : 		}

  00027	c3		 ret	 0
?_Tidy@?$vector@UXMASMONSTER_MAP_INFO@@V?$allocator@UXMASMONSTER_MAP_INFO@@@std@@@std@@IAEXXZ ENDP ; std::vector<XMASMONSTER_MAP_INFO,std::allocator<XMASMONSTER_MAP_INFO> >::_Tidy
_TEXT	ENDS
PUBLIC	?reserve@?$vector@UXMASMONSTER_EVENT_TIME@@V?$allocator@UXMASMONSTER_EVENT_TIME@@@std@@@std@@QAEXI@Z ; std::vector<XMASMONSTER_EVENT_TIME,std::allocator<XMASMONSTER_EVENT_TIME> >::reserve
;	COMDAT xdata$x
; File d:\program files (x86)\microsoft visual studio 10.0\vc\include\xutility
xdata$x	SEGMENT
__catchsym$?reserve@?$vector@UXMASMONSTER_EVENT_TIME@@V?$allocator@UXMASMONSTER_EVENT_TIME@@@std@@@std@@QAEXI@Z$2 DD 040H
	DD	00H
	DD	00H
	DD	FLAT:__catch$?reserve@?$vector@UXMASMONSTER_EVENT_TIME@@V?$allocator@UXMASMONSTER_EVENT_TIME@@@std@@@std@@QAEXI@Z$0
__unwindtable$?reserve@?$vector@UXMASMONSTER_EVENT_TIME@@V?$allocator@UXMASMONSTER_EVENT_TIME@@@std@@@std@@QAEXI@Z DD 0ffffffffH
	DD	00H
	DD	0ffffffffH
	DD	00H
__tryblocktable$?reserve@?$vector@UXMASMONSTER_EVENT_TIME@@V?$allocator@UXMASMONSTER_EVENT_TIME@@@std@@@std@@QAEXI@Z DD 00H
	DD	00H
	DD	01H
	DD	01H
	DD	FLAT:__catchsym$?reserve@?$vector@UXMASMONSTER_EVENT_TIME@@V?$allocator@UXMASMONSTER_EVENT_TIME@@@std@@@std@@QAEXI@Z$2
__ehfuncinfo$?reserve@?$vector@UXMASMONSTER_EVENT_TIME@@V?$allocator@UXMASMONSTER_EVENT_TIME@@@std@@@std@@QAEXI@Z DD 019930522H
	DD	02H
	DD	FLAT:__unwindtable$?reserve@?$vector@UXMASMONSTER_EVENT_TIME@@V?$allocator@UXMASMONSTER_EVENT_TIME@@@std@@@std@@QAEXI@Z
	DD	01H
	DD	FLAT:__tryblocktable$?reserve@?$vector@UXMASMONSTER_EVENT_TIME@@V?$allocator@UXMASMONSTER_EVENT_TIME@@@std@@@std@@QAEXI@Z
	DD	2 DUP(00H)
	DD	00H
	DD	01H
; Function compile flags: /Ogtp
; File d:\program files (x86)\microsoft visual studio 10.0\vc\include\vector
xdata$x	ENDS
;	COMDAT ?reserve@?$vector@UXMASMONSTER_EVENT_TIME@@V?$allocator@UXMASMONSTER_EVENT_TIME@@@std@@@std@@QAEXI@Z
_TEXT	SEGMENT
__Ptr$214594 = -20					; size = 4
__$EHRec$ = -16						; size = 16
__Cat$219980 = 8					; size = 1
__Count$ = 8						; size = 4
?reserve@?$vector@UXMASMONSTER_EVENT_TIME@@V?$allocator@UXMASMONSTER_EVENT_TIME@@@std@@@std@@QAEXI@Z PROC ; std::vector<XMASMONSTER_EVENT_TIME,std::allocator<XMASMONSTER_EVENT_TIME> >::reserve, COMDAT
; _this$ = ecx

; 746  : 		{	// determine new minimum length of allocated storage

  00000	55		 push	 ebp
  00001	8b ec		 mov	 ebp, esp
  00003	6a ff		 push	 -1
  00005	68 00 00 00 00	 push	 __ehhandler$?reserve@?$vector@UXMASMONSTER_EVENT_TIME@@V?$allocator@UXMASMONSTER_EVENT_TIME@@@std@@@std@@QAEXI@Z
  0000a	64 a1 00 00 00
	00		 mov	 eax, DWORD PTR fs:0
  00010	50		 push	 eax
  00011	83 ec 08	 sub	 esp, 8
  00014	53		 push	 ebx
  00015	56		 push	 esi
  00016	57		 push	 edi
  00017	a1 00 00 00 00	 mov	 eax, DWORD PTR ___security_cookie
  0001c	33 c5		 xor	 eax, ebp
  0001e	50		 push	 eax
  0001f	8d 45 f4	 lea	 eax, DWORD PTR __$EHRec$[ebp+4]
  00022	64 a3 00 00 00
	00		 mov	 DWORD PTR fs:0, eax
  00028	89 65 f0	 mov	 DWORD PTR __$EHRec$[ebp], esp
  0002b	8b f1		 mov	 esi, ecx

; 747  : 		if (max_size() < _Count)

  0002d	8b 45 08	 mov	 eax, DWORD PTR __Count$[ebp]
  00030	3d ff ff ff 1f	 cmp	 eax, 536870911		; 1fffffffH
  00035	76 0a		 jbe	 SHORT $LN5@reserve@2

; 748  : 			_Xlen();	// result too long

  00037	68 00 00 00 00	 push	 OFFSET ??_C@_0BD@OLBABOEK@vector?$DMT?$DO?5too?5long?$AA@
  0003c	e8 00 00 00 00	 call	 ?_Xlength_error@std@@YAXPBD@Z ; std::_Xlength_error
$LN42@reserve@2:
$LN5@reserve@2:

; 749  : 		else if (capacity() < _Count)

  00041	8b 4e 08	 mov	 ecx, DWORD PTR [esi+8]
  00044	2b 0e		 sub	 ecx, DWORD PTR [esi]
  00046	c1 f9 03	 sar	 ecx, 3
  00049	3b c8		 cmp	 ecx, eax
  0004b	73 56		 jae	 SHORT $LN3@reserve@2

; 750  : 			{	// not enough room, reallocate
; 751  : 			pointer _Ptr = this->_Alval.allocate(_Count);

  0004d	8d 7e 0c	 lea	 edi, DWORD PTR [esi+12]
  00050	50		 push	 eax
  00051	8b cf		 mov	 ecx, edi
  00053	e8 00 00 00 00	 call	 ?allocate@?$allocator@UXMASMONSTER_EVENT_TIME@@@std@@QAEPAUXMASMONSTER_EVENT_TIME@@I@Z ; std::allocator<XMASMONSTER_EVENT_TIME>::allocate

; 752  : 
; 753  : 			_TRY_BEGIN
; 754  : 			_Umove(this->_Myfirst, this->_Mylast, _Ptr);

  00058	8b 55 08	 mov	 edx, DWORD PTR __Cat$219980[ebp]
  0005b	8b 0e		 mov	 ecx, DWORD PTR [esi]
  0005d	52		 push	 edx
  0005e	6a 00		 push	 0
  00060	8b d8		 mov	 ebx, eax
  00062	8b 46 04	 mov	 eax, DWORD PTR [esi+4]
  00065	57		 push	 edi
  00066	53		 push	 ebx
  00067	50		 push	 eax
  00068	51		 push	 ecx
  00069	89 5d ec	 mov	 DWORD PTR __Ptr$214594[ebp], ebx
  0006c	c7 45 fc 00 00
	00 00		 mov	 DWORD PTR __$EHRec$[ebp+12], 0
  00073	e8 00 00 00 00	 call	 ??$_Uninit_move@PAUXMASMONSTER_EVENT_TIME@@PAU1@V?$allocator@UXMASMONSTER_EVENT_TIME@@@std@@U1@@std@@YAPAUXMASMONSTER_EVENT_TIME@@PAU1@00AAV?$allocator@UXMASMONSTER_EVENT_TIME@@@0@0U_Nonscalar_ptr_iterator_tag@0@@Z ; std::_Uninit_move<XMASMONSTER_EVENT_TIME *,XMASMONSTER_EVENT_TIME *,std::allocator<XMASMONSTER_EVENT_TIME>,XMASMONSTER_EVENT_TIME>

; 758  : 			_CATCH_END
; 759  : 
; 760  : 			size_type _Size = size();

  00078	8b 06		 mov	 eax, DWORD PTR [esi]
  0007a	8b 7e 04	 mov	 edi, DWORD PTR [esi+4]
  0007d	2b f8		 sub	 edi, eax
  0007f	83 c4 18	 add	 esp, 24			; 00000018H
  00082	c1 ff 03	 sar	 edi, 3

; 761  : 			if (this->_Myfirst != 0)

  00085	85 c0		 test	 eax, eax
  00087	74 09		 je	 SHORT $LN35@reserve@2

; 762  : 				{	// destroy and deallocate old array
; 763  : 				_Destroy(this->_Myfirst, this->_Mylast);
; 764  : 				this->_Alval.deallocate(this->_Myfirst,
; 765  : 					this->_Myend - this->_Myfirst);

  00089	50		 push	 eax
  0008a	e8 00 00 00 00	 call	 ??3@YAXPAX@Z		; operator delete
  0008f	83 c4 04	 add	 esp, 4
$LN35@reserve@2:

; 766  : 				}
; 767  : 
; 768  : 			this->_Orphan_all();
; 769  : 			this->_Myend = _Ptr + _Count;

  00092	8b 45 08	 mov	 eax, DWORD PTR __Count$[ebp]
  00095	8d 0c c3	 lea	 ecx, DWORD PTR [ebx+eax*8]

; 770  : 			this->_Mylast = _Ptr + _Size;

  00098	8d 14 fb	 lea	 edx, DWORD PTR [ebx+edi*8]
  0009b	89 4e 08	 mov	 DWORD PTR [esi+8], ecx
  0009e	89 56 04	 mov	 DWORD PTR [esi+4], edx

; 771  : 			this->_Myfirst = _Ptr;

  000a1	89 1e		 mov	 DWORD PTR [esi], ebx
$LN3@reserve@2:

; 772  : 			}
; 773  : 		}

  000a3	8b 4d f4	 mov	 ecx, DWORD PTR __$EHRec$[ebp+4]
  000a6	64 89 0d 00 00
	00 00		 mov	 DWORD PTR fs:0, ecx
  000ad	59		 pop	 ecx
  000ae	5f		 pop	 edi
  000af	5e		 pop	 esi
  000b0	5b		 pop	 ebx
  000b1	8b e5		 mov	 esp, ebp
  000b3	5d		 pop	 ebp
  000b4	c2 04 00	 ret	 4
__catch$?reserve@?$vector@UXMASMONSTER_EVENT_TIME@@V?$allocator@UXMASMONSTER_EVENT_TIME@@@std@@@std@@QAEXI@Z$0:

; 755  : 			_CATCH_ALL
; 756  : 			this->_Alval.deallocate(_Ptr, _Count);

  000b7	8b 45 ec	 mov	 eax, DWORD PTR __Ptr$214594[ebp]
  000ba	50		 push	 eax
  000bb	e8 00 00 00 00	 call	 ??3@YAXPAX@Z		; operator delete
  000c0	83 c4 04	 add	 esp, 4

; 757  : 			_RERAISE;

  000c3	6a 00		 push	 0
  000c5	6a 00		 push	 0
  000c7	e8 00 00 00 00	 call	 __CxxThrowException@8
$LN43@reserve@2:
$LN41@reserve@2:
  000cc	cc		 int	 3
_TEXT	ENDS
;	COMDAT text$x
text$x	SEGMENT
__ehhandler$?reserve@?$vector@UXMASMONSTER_EVENT_TIME@@V?$allocator@UXMASMONSTER_EVENT_TIME@@@std@@@std@@QAEXI@Z:
  00000	8b 54 24 08	 mov	 edx, DWORD PTR [esp+8]
  00004	8d 42 0c	 lea	 eax, DWORD PTR [edx+12]
  00007	8b 4a e8	 mov	 ecx, DWORD PTR [edx-24]
  0000a	33 c8		 xor	 ecx, eax
  0000c	e8 00 00 00 00	 call	 @__security_check_cookie@4
  00011	b8 00 00 00 00	 mov	 eax, OFFSET __ehfuncinfo$?reserve@?$vector@UXMASMONSTER_EVENT_TIME@@V?$allocator@UXMASMONSTER_EVENT_TIME@@@std@@@std@@QAEXI@Z
  00016	e9 00 00 00 00	 jmp	 ___CxxFrameHandler3
text$x	ENDS
?reserve@?$vector@UXMASMONSTER_EVENT_TIME@@V?$allocator@UXMASMONSTER_EVENT_TIME@@@std@@@std@@QAEXI@Z ENDP ; std::vector<XMASMONSTER_EVENT_TIME,std::allocator<XMASMONSTER_EVENT_TIME> >::reserve
PUBLIC	?reserve@?$vector@UXMASMONSTER_DATA@@V?$allocator@UXMASMONSTER_DATA@@@std@@@std@@QAEXI@Z ; std::vector<XMASMONSTER_DATA,std::allocator<XMASMONSTER_DATA> >::reserve
;	COMDAT xdata$x
; File d:\program files (x86)\microsoft visual studio 10.0\vc\include\xutility
xdata$x	SEGMENT
__catchsym$?reserve@?$vector@UXMASMONSTER_DATA@@V?$allocator@UXMASMONSTER_DATA@@@std@@@std@@QAEXI@Z$2 DD 040H
	DD	00H
	DD	00H
	DD	FLAT:__catch$?reserve@?$vector@UXMASMONSTER_DATA@@V?$allocator@UXMASMONSTER_DATA@@@std@@@std@@QAEXI@Z$0
__unwindtable$?reserve@?$vector@UXMASMONSTER_DATA@@V?$allocator@UXMASMONSTER_DATA@@@std@@@std@@QAEXI@Z DD 0ffffffffH
	DD	00H
	DD	0ffffffffH
	DD	00H
__tryblocktable$?reserve@?$vector@UXMASMONSTER_DATA@@V?$allocator@UXMASMONSTER_DATA@@@std@@@std@@QAEXI@Z DD 00H
	DD	00H
	DD	01H
	DD	01H
	DD	FLAT:__catchsym$?reserve@?$vector@UXMASMONSTER_DATA@@V?$allocator@UXMASMONSTER_DATA@@@std@@@std@@QAEXI@Z$2
__ehfuncinfo$?reserve@?$vector@UXMASMONSTER_DATA@@V?$allocator@UXMASMONSTER_DATA@@@std@@@std@@QAEXI@Z DD 019930522H
	DD	02H
	DD	FLAT:__unwindtable$?reserve@?$vector@UXMASMONSTER_DATA@@V?$allocator@UXMASMONSTER_DATA@@@std@@@std@@QAEXI@Z
	DD	01H
	DD	FLAT:__tryblocktable$?reserve@?$vector@UXMASMONSTER_DATA@@V?$allocator@UXMASMONSTER_DATA@@@std@@@std@@QAEXI@Z
	DD	2 DUP(00H)
	DD	00H
	DD	01H
; Function compile flags: /Ogtp
; File d:\program files (x86)\microsoft visual studio 10.0\vc\include\vector
xdata$x	ENDS
;	COMDAT ?reserve@?$vector@UXMASMONSTER_DATA@@V?$allocator@UXMASMONSTER_DATA@@@std@@@std@@QAEXI@Z
_TEXT	SEGMENT
__Ptr$214621 = -20					; size = 4
__$EHRec$ = -16						; size = 16
__Cat$220065 = 8					; size = 1
__Count$ = 8						; size = 4
?reserve@?$vector@UXMASMONSTER_DATA@@V?$allocator@UXMASMONSTER_DATA@@@std@@@std@@QAEXI@Z PROC ; std::vector<XMASMONSTER_DATA,std::allocator<XMASMONSTER_DATA> >::reserve, COMDAT
; _this$ = ecx

; 746  : 		{	// determine new minimum length of allocated storage

  00000	55		 push	 ebp
  00001	8b ec		 mov	 ebp, esp
  00003	6a ff		 push	 -1
  00005	68 00 00 00 00	 push	 __ehhandler$?reserve@?$vector@UXMASMONSTER_DATA@@V?$allocator@UXMASMONSTER_DATA@@@std@@@std@@QAEXI@Z
  0000a	64 a1 00 00 00
	00		 mov	 eax, DWORD PTR fs:0
  00010	50		 push	 eax
  00011	83 ec 08	 sub	 esp, 8
  00014	53		 push	 ebx
  00015	56		 push	 esi
  00016	57		 push	 edi
  00017	a1 00 00 00 00	 mov	 eax, DWORD PTR ___security_cookie
  0001c	33 c5		 xor	 eax, ebp
  0001e	50		 push	 eax
  0001f	8d 45 f4	 lea	 eax, DWORD PTR __$EHRec$[ebp+4]
  00022	64 a3 00 00 00
	00		 mov	 DWORD PTR fs:0, eax
  00028	89 65 f0	 mov	 DWORD PTR __$EHRec$[ebp], esp
  0002b	8b f1		 mov	 esi, ecx

; 747  : 		if (max_size() < _Count)

  0002d	8b 5d 08	 mov	 ebx, DWORD PTR __Count$[ebp]
  00030	81 fb 55 55 55
	15		 cmp	 ebx, 357913941		; 15555555H
  00036	76 0a		 jbe	 SHORT $LN5@reserve@3

; 748  : 			_Xlen();	// result too long

  00038	68 00 00 00 00	 push	 OFFSET ??_C@_0BD@OLBABOEK@vector?$DMT?$DO?5too?5long?$AA@
  0003d	e8 00 00 00 00	 call	 ?_Xlength_error@std@@YAXPBD@Z ; std::_Xlength_error
$LN42@reserve@3:
$LN5@reserve@3:

; 749  : 		else if (capacity() < _Count)

  00042	8b 4e 08	 mov	 ecx, DWORD PTR [esi+8]
  00045	2b 0e		 sub	 ecx, DWORD PTR [esi]
  00047	b8 ab aa aa 2a	 mov	 eax, 715827883		; 2aaaaaabH
  0004c	f7 e9		 imul	 ecx
  0004e	d1 fa		 sar	 edx, 1
  00050	8b c2		 mov	 eax, edx
  00052	c1 e8 1f	 shr	 eax, 31			; 0000001fH
  00055	03 c2		 add	 eax, edx
  00057	3b c3		 cmp	 eax, ebx
  00059	73 6a		 jae	 SHORT $LN3@reserve@3

; 750  : 			{	// not enough room, reallocate
; 751  : 			pointer _Ptr = this->_Alval.allocate(_Count);

  0005b	8d 7e 0c	 lea	 edi, DWORD PTR [esi+12]
  0005e	53		 push	 ebx
  0005f	8b cf		 mov	 ecx, edi
  00061	e8 00 00 00 00	 call	 ?allocate@?$allocator@UXMASMONSTER_DATA@@@std@@QAEPAUXMASMONSTER_DATA@@I@Z ; std::allocator<XMASMONSTER_DATA>::allocate

; 752  : 
; 753  : 			_TRY_BEGIN
; 754  : 			_Umove(this->_Myfirst, this->_Mylast, _Ptr);

  00066	8b 5d 08	 mov	 ebx, DWORD PTR __Cat$220065[ebp]
  00069	8b 4e 04	 mov	 ecx, DWORD PTR [esi+4]
  0006c	8b 16		 mov	 edx, DWORD PTR [esi]
  0006e	53		 push	 ebx
  0006f	6a 00		 push	 0
  00071	57		 push	 edi
  00072	50		 push	 eax
  00073	51		 push	 ecx
  00074	52		 push	 edx
  00075	89 45 ec	 mov	 DWORD PTR __Ptr$214621[ebp], eax
  00078	c7 45 fc 00 00
	00 00		 mov	 DWORD PTR __$EHRec$[ebp+12], 0
  0007f	e8 00 00 00 00	 call	 ??$_Uninit_move@PAUXMASMONSTER_DATA@@PAU1@V?$allocator@UXMASMONSTER_DATA@@@std@@U1@@std@@YAPAUXMASMONSTER_DATA@@PAU1@00AAV?$allocator@UXMASMONSTER_DATA@@@0@0U_Nonscalar_ptr_iterator_tag@0@@Z ; std::_Uninit_move<XMASMONSTER_DATA *,XMASMONSTER_DATA *,std::allocator<XMASMONSTER_DATA>,XMASMONSTER_DATA>

; 758  : 			_CATCH_END
; 759  : 
; 760  : 			size_type _Size = size();

  00084	8b 1e		 mov	 ebx, DWORD PTR [esi]
  00086	8b 4e 04	 mov	 ecx, DWORD PTR [esi+4]
  00089	2b cb		 sub	 ecx, ebx
  0008b	b8 ab aa aa 2a	 mov	 eax, 715827883		; 2aaaaaabH
  00090	f7 e9		 imul	 ecx
  00092	d1 fa		 sar	 edx, 1
  00094	8b fa		 mov	 edi, edx
  00096	c1 ef 1f	 shr	 edi, 31			; 0000001fH
  00099	83 c4 18	 add	 esp, 24			; 00000018H
  0009c	03 fa		 add	 edi, edx

; 761  : 			if (this->_Myfirst != 0)

  0009e	85 db		 test	 ebx, ebx
  000a0	74 09		 je	 SHORT $LN35@reserve@3

; 762  : 				{	// destroy and deallocate old array
; 763  : 				_Destroy(this->_Myfirst, this->_Mylast);
; 764  : 				this->_Alval.deallocate(this->_Myfirst,
; 765  : 					this->_Myend - this->_Myfirst);

  000a2	53		 push	 ebx
  000a3	e8 00 00 00 00	 call	 ??3@YAXPAX@Z		; operator delete
  000a8	83 c4 04	 add	 esp, 4
$LN35@reserve@3:

; 766  : 				}
; 767  : 
; 768  : 			this->_Orphan_all();
; 769  : 			this->_Myend = _Ptr + _Count;

  000ab	8b 45 08	 mov	 eax, DWORD PTR __Count$[ebp]
  000ae	8d 0c 40	 lea	 ecx, DWORD PTR [eax+eax*2]
  000b1	8b 45 ec	 mov	 eax, DWORD PTR __Ptr$214621[ebp]
  000b4	8d 14 88	 lea	 edx, DWORD PTR [eax+ecx*4]

; 770  : 			this->_Mylast = _Ptr + _Size;

  000b7	8d 0c 7f	 lea	 ecx, DWORD PTR [edi+edi*2]
  000ba	89 56 08	 mov	 DWORD PTR [esi+8], edx
  000bd	8d 14 88	 lea	 edx, DWORD PTR [eax+ecx*4]
  000c0	89 56 04	 mov	 DWORD PTR [esi+4], edx

; 771  : 			this->_Myfirst = _Ptr;

  000c3	89 06		 mov	 DWORD PTR [esi], eax
$LN3@reserve@3:

; 772  : 			}
; 773  : 		}

  000c5	8b 4d f4	 mov	 ecx, DWORD PTR __$EHRec$[ebp+4]
  000c8	64 89 0d 00 00
	00 00		 mov	 DWORD PTR fs:0, ecx
  000cf	59		 pop	 ecx
  000d0	5f		 pop	 edi
  000d1	5e		 pop	 esi
  000d2	5b		 pop	 ebx
  000d3	8b e5		 mov	 esp, ebp
  000d5	5d		 pop	 ebp
  000d6	c2 04 00	 ret	 4
__catch$?reserve@?$vector@UXMASMONSTER_DATA@@V?$allocator@UXMASMONSTER_DATA@@@std@@@std@@QAEXI@Z$0:

; 755  : 			_CATCH_ALL
; 756  : 			this->_Alval.deallocate(_Ptr, _Count);

  000d9	8b 45 ec	 mov	 eax, DWORD PTR __Ptr$214621[ebp]
  000dc	50		 push	 eax
  000dd	e8 00 00 00 00	 call	 ??3@YAXPAX@Z		; operator delete
  000e2	83 c4 04	 add	 esp, 4

; 757  : 			_RERAISE;

  000e5	6a 00		 push	 0
  000e7	6a 00		 push	 0
  000e9	e8 00 00 00 00	 call	 __CxxThrowException@8
$LN43@reserve@3:
$LN41@reserve@3:
  000ee	cc		 int	 3
_TEXT	ENDS
;	COMDAT text$x
text$x	SEGMENT
__ehhandler$?reserve@?$vector@UXMASMONSTER_DATA@@V?$allocator@UXMASMONSTER_DATA@@@std@@@std@@QAEXI@Z:
  00000	8b 54 24 08	 mov	 edx, DWORD PTR [esp+8]
  00004	8d 42 0c	 lea	 eax, DWORD PTR [edx+12]
  00007	8b 4a e8	 mov	 ecx, DWORD PTR [edx-24]
  0000a	33 c8		 xor	 ecx, eax
  0000c	e8 00 00 00 00	 call	 @__security_check_cookie@4
  00011	b8 00 00 00 00	 mov	 eax, OFFSET __ehfuncinfo$?reserve@?$vector@UXMASMONSTER_DATA@@V?$allocator@UXMASMONSTER_DATA@@@std@@@std@@QAEXI@Z
  00016	e9 00 00 00 00	 jmp	 ___CxxFrameHandler3
text$x	ENDS
?reserve@?$vector@UXMASMONSTER_DATA@@V?$allocator@UXMASMONSTER_DATA@@@std@@@std@@QAEXI@Z ENDP ; std::vector<XMASMONSTER_DATA,std::allocator<XMASMONSTER_DATA> >::reserve
PUBLIC	?reserve@?$vector@UXMASMONSTER_MAP_INFO@@V?$allocator@UXMASMONSTER_MAP_INFO@@@std@@@std@@QAEXI@Z ; std::vector<XMASMONSTER_MAP_INFO,std::allocator<XMASMONSTER_MAP_INFO> >::reserve
;	COMDAT xdata$x
; File d:\program files (x86)\microsoft visual studio 10.0\vc\include\xutility
xdata$x	SEGMENT
__catchsym$?reserve@?$vector@UXMASMONSTER_MAP_INFO@@V?$allocator@UXMASMONSTER_MAP_INFO@@@std@@@std@@QAEXI@Z$2 DD 040H
	DD	00H
	DD	00H
	DD	FLAT:__catch$?reserve@?$vector@UXMASMONSTER_MAP_INFO@@V?$allocator@UXMASMONSTER_MAP_INFO@@@std@@@std@@QAEXI@Z$0
__unwindtable$?reserve@?$vector@UXMASMONSTER_MAP_INFO@@V?$allocator@UXMASMONSTER_MAP_INFO@@@std@@@std@@QAEXI@Z DD 0ffffffffH
	DD	00H
	DD	0ffffffffH
	DD	00H
__tryblocktable$?reserve@?$vector@UXMASMONSTER_MAP_INFO@@V?$allocator@UXMASMONSTER_MAP_INFO@@@std@@@std@@QAEXI@Z DD 00H
	DD	00H
	DD	01H
	DD	01H
	DD	FLAT:__catchsym$?reserve@?$vector@UXMASMONSTER_MAP_INFO@@V?$allocator@UXMASMONSTER_MAP_INFO@@@std@@@std@@QAEXI@Z$2
__ehfuncinfo$?reserve@?$vector@UXMASMONSTER_MAP_INFO@@V?$allocator@UXMASMONSTER_MAP_INFO@@@std@@@std@@QAEXI@Z DD 019930522H
	DD	02H
	DD	FLAT:__unwindtable$?reserve@?$vector@UXMASMONSTER_MAP_INFO@@V?$allocator@UXMASMONSTER_MAP_INFO@@@std@@@std@@QAEXI@Z
	DD	01H
	DD	FLAT:__tryblocktable$?reserve@?$vector@UXMASMONSTER_MAP_INFO@@V?$allocator@UXMASMONSTER_MAP_INFO@@@std@@@std@@QAEXI@Z
	DD	2 DUP(00H)
	DD	00H
	DD	01H
; Function compile flags: /Ogtp
; File d:\program files (x86)\microsoft visual studio 10.0\vc\include\vector
xdata$x	ENDS
;	COMDAT ?reserve@?$vector@UXMASMONSTER_MAP_INFO@@V?$allocator@UXMASMONSTER_MAP_INFO@@@std@@@std@@QAEXI@Z
_TEXT	SEGMENT
__Ptr$214671 = -20					; size = 4
__$EHRec$ = -16						; size = 16
__Cat$220151 = 8					; size = 1
__Count$ = 8						; size = 4
?reserve@?$vector@UXMASMONSTER_MAP_INFO@@V?$allocator@UXMASMONSTER_MAP_INFO@@@std@@@std@@QAEXI@Z PROC ; std::vector<XMASMONSTER_MAP_INFO,std::allocator<XMASMONSTER_MAP_INFO> >::reserve, COMDAT
; _this$ = ecx

; 746  : 		{	// determine new minimum length of allocated storage

  00000	55		 push	 ebp
  00001	8b ec		 mov	 ebp, esp
  00003	6a ff		 push	 -1
  00005	68 00 00 00 00	 push	 __ehhandler$?reserve@?$vector@UXMASMONSTER_MAP_INFO@@V?$allocator@UXMASMONSTER_MAP_INFO@@@std@@@std@@QAEXI@Z
  0000a	64 a1 00 00 00
	00		 mov	 eax, DWORD PTR fs:0
  00010	50		 push	 eax
  00011	83 ec 08	 sub	 esp, 8
  00014	53		 push	 ebx
  00015	56		 push	 esi
  00016	57		 push	 edi
  00017	a1 00 00 00 00	 mov	 eax, DWORD PTR ___security_cookie
  0001c	33 c5		 xor	 eax, ebp
  0001e	50		 push	 eax
  0001f	8d 45 f4	 lea	 eax, DWORD PTR __$EHRec$[ebp+4]
  00022	64 a3 00 00 00
	00		 mov	 DWORD PTR fs:0, eax
  00028	89 65 f0	 mov	 DWORD PTR __$EHRec$[ebp], esp
  0002b	8b f1		 mov	 esi, ecx

; 747  : 		if (max_size() < _Count)

  0002d	8b 5d 08	 mov	 ebx, DWORD PTR __Count$[ebp]
  00030	81 fb cc cc cc
	0c		 cmp	 ebx, 214748364		; 0cccccccH
  00036	76 0a		 jbe	 SHORT $LN5@reserve@4

; 748  : 			_Xlen();	// result too long

  00038	68 00 00 00 00	 push	 OFFSET ??_C@_0BD@OLBABOEK@vector?$DMT?$DO?5too?5long?$AA@
  0003d	e8 00 00 00 00	 call	 ?_Xlength_error@std@@YAXPBD@Z ; std::_Xlength_error
$LN42@reserve@4:
$LN5@reserve@4:

; 749  : 		else if (capacity() < _Count)

  00042	8b 4e 08	 mov	 ecx, DWORD PTR [esi+8]
  00045	2b 0e		 sub	 ecx, DWORD PTR [esi]
  00047	b8 67 66 66 66	 mov	 eax, 1717986919		; 66666667H
  0004c	f7 e9		 imul	 ecx
  0004e	c1 fa 03	 sar	 edx, 3
  00051	8b c2		 mov	 eax, edx
  00053	c1 e8 1f	 shr	 eax, 31			; 0000001fH
  00056	03 c2		 add	 eax, edx
  00058	3b c3		 cmp	 eax, ebx
  0005a	73 6b		 jae	 SHORT $LN3@reserve@4

; 750  : 			{	// not enough room, reallocate
; 751  : 			pointer _Ptr = this->_Alval.allocate(_Count);

  0005c	8d 7e 0c	 lea	 edi, DWORD PTR [esi+12]
  0005f	53		 push	 ebx
  00060	8b cf		 mov	 ecx, edi
  00062	e8 00 00 00 00	 call	 ?allocate@?$allocator@UXMASMONSTER_MAP_INFO@@@std@@QAEPAUXMASMONSTER_MAP_INFO@@I@Z ; std::allocator<XMASMONSTER_MAP_INFO>::allocate

; 752  : 
; 753  : 			_TRY_BEGIN
; 754  : 			_Umove(this->_Myfirst, this->_Mylast, _Ptr);

  00067	8b 5d 08	 mov	 ebx, DWORD PTR __Cat$220151[ebp]
  0006a	8b 4e 04	 mov	 ecx, DWORD PTR [esi+4]
  0006d	8b 16		 mov	 edx, DWORD PTR [esi]
  0006f	53		 push	 ebx
  00070	6a 00		 push	 0
  00072	57		 push	 edi
  00073	50		 push	 eax
  00074	51		 push	 ecx
  00075	52		 push	 edx
  00076	89 45 ec	 mov	 DWORD PTR __Ptr$214671[ebp], eax
  00079	c7 45 fc 00 00
	00 00		 mov	 DWORD PTR __$EHRec$[ebp+12], 0
  00080	e8 00 00 00 00	 call	 ??$_Uninit_move@PAUXMASMONSTER_MAP_INFO@@PAU1@V?$allocator@UXMASMONSTER_MAP_INFO@@@std@@U1@@std@@YAPAUXMASMONSTER_MAP_INFO@@PAU1@00AAV?$allocator@UXMASMONSTER_MAP_INFO@@@0@0U_Nonscalar_ptr_iterator_tag@0@@Z ; std::_Uninit_move<XMASMONSTER_MAP_INFO *,XMASMONSTER_MAP_INFO *,std::allocator<XMASMONSTER_MAP_INFO>,XMASMONSTER_MAP_INFO>

; 758  : 			_CATCH_END
; 759  : 
; 760  : 			size_type _Size = size();

  00085	8b 1e		 mov	 ebx, DWORD PTR [esi]
  00087	8b 4e 04	 mov	 ecx, DWORD PTR [esi+4]
  0008a	2b cb		 sub	 ecx, ebx
  0008c	b8 67 66 66 66	 mov	 eax, 1717986919		; 66666667H
  00091	f7 e9		 imul	 ecx
  00093	c1 fa 03	 sar	 edx, 3
  00096	8b fa		 mov	 edi, edx
  00098	c1 ef 1f	 shr	 edi, 31			; 0000001fH
  0009b	83 c4 18	 add	 esp, 24			; 00000018H
  0009e	03 fa		 add	 edi, edx

; 761  : 			if (this->_Myfirst != 0)

  000a0	85 db		 test	 ebx, ebx
  000a2	74 09		 je	 SHORT $LN35@reserve@4

; 762  : 				{	// destroy and deallocate old array
; 763  : 				_Destroy(this->_Myfirst, this->_Mylast);
; 764  : 				this->_Alval.deallocate(this->_Myfirst,
; 765  : 					this->_Myend - this->_Myfirst);

  000a4	53		 push	 ebx
  000a5	e8 00 00 00 00	 call	 ??3@YAXPAX@Z		; operator delete
  000aa	83 c4 04	 add	 esp, 4
$LN35@reserve@4:

; 766  : 				}
; 767  : 
; 768  : 			this->_Orphan_all();
; 769  : 			this->_Myend = _Ptr + _Count;

  000ad	8b 45 08	 mov	 eax, DWORD PTR __Count$[ebp]
  000b0	8d 0c 80	 lea	 ecx, DWORD PTR [eax+eax*4]
  000b3	8b 45 ec	 mov	 eax, DWORD PTR __Ptr$214671[ebp]
  000b6	8d 14 88	 lea	 edx, DWORD PTR [eax+ecx*4]

; 770  : 			this->_Mylast = _Ptr + _Size;

  000b9	8d 0c bf	 lea	 ecx, DWORD PTR [edi+edi*4]
  000bc	89 56 08	 mov	 DWORD PTR [esi+8], edx
  000bf	8d 14 88	 lea	 edx, DWORD PTR [eax+ecx*4]
  000c2	89 56 04	 mov	 DWORD PTR [esi+4], edx

; 771  : 			this->_Myfirst = _Ptr;

  000c5	89 06		 mov	 DWORD PTR [esi], eax
$LN3@reserve@4:

; 772  : 			}
; 773  : 		}

  000c7	8b 4d f4	 mov	 ecx, DWORD PTR __$EHRec$[ebp+4]
  000ca	64 89 0d 00 00
	00 00		 mov	 DWORD PTR fs:0, ecx
  000d1	59		 pop	 ecx
  000d2	5f		 pop	 edi
  000d3	5e		 pop	 esi
  000d4	5b		 pop	 ebx
  000d5	8b e5		 mov	 esp, ebp
  000d7	5d		 pop	 ebp
  000d8	c2 04 00	 ret	 4
__catch$?reserve@?$vector@UXMASMONSTER_MAP_INFO@@V?$allocator@UXMASMONSTER_MAP_INFO@@@std@@@std@@QAEXI@Z$0:

; 755  : 			_CATCH_ALL
; 756  : 			this->_Alval.deallocate(_Ptr, _Count);

  000db	8b 45 ec	 mov	 eax, DWORD PTR __Ptr$214671[ebp]
  000de	50		 push	 eax
  000df	e8 00 00 00 00	 call	 ??3@YAXPAX@Z		; operator delete
  000e4	83 c4 04	 add	 esp, 4

; 757  : 			_RERAISE;

  000e7	6a 00		 push	 0
  000e9	6a 00		 push	 0
  000eb	e8 00 00 00 00	 call	 __CxxThrowException@8
$LN43@reserve@4:
$LN41@reserve@4:
  000f0	cc		 int	 3
_TEXT	ENDS
;	COMDAT text$x
text$x	SEGMENT
__ehhandler$?reserve@?$vector@UXMASMONSTER_MAP_INFO@@V?$allocator@UXMASMONSTER_MAP_INFO@@@std@@@std@@QAEXI@Z:
  00000	8b 54 24 08	 mov	 edx, DWORD PTR [esp+8]
  00004	8d 42 0c	 lea	 eax, DWORD PTR [edx+12]
  00007	8b 4a e8	 mov	 ecx, DWORD PTR [edx-24]
  0000a	33 c8		 xor	 ecx, eax
  0000c	e8 00 00 00 00	 call	 @__security_check_cookie@4
  00011	b8 00 00 00 00	 mov	 eax, OFFSET __ehfuncinfo$?reserve@?$vector@UXMASMONSTER_MAP_INFO@@V?$allocator@UXMASMONSTER_MAP_INFO@@@std@@@std@@QAEXI@Z
  00016	e9 00 00 00 00	 jmp	 ___CxxFrameHandler3
text$x	ENDS
?reserve@?$vector@UXMASMONSTER_MAP_INFO@@V?$allocator@UXMASMONSTER_MAP_INFO@@@std@@@std@@QAEXI@Z ENDP ; std::vector<XMASMONSTER_MAP_INFO,std::allocator<XMASMONSTER_MAP_INFO> >::reserve
PUBLIC	??_C@_0EE@INOOIIFJ@?$FLXMasAttackEvent?$FN?5?9?5Monster?5Star@ ; `string'
PUBLIC	??_C@_0DC@KONBBJGO@?$FLXMasAttackEvent?$FN?5?9?5Error?5?3?5No?5M@ ; `string'
PUBLIC	?StartEvent@CXMasAttackEvent@@UAEXXZ		; CXMasAttackEvent::StartEvent
;	COMDAT ??_C@_0EE@INOOIIFJ@?$FLXMasAttackEvent?$FN?5?9?5Monster?5Star@
CONST	SEGMENT
??_C@_0EE@INOOIIFJ@?$FLXMasAttackEvent?$FN?5?9?5Monster?5Star@ DB '[XMasA'
	DB	'ttackEvent] - Monster Start Position MapNumber:%d, X:%d, Y:%d'
	DB	00H						; `string'
CONST	ENDS
;	COMDAT ??_C@_0DC@KONBBJGO@?$FLXMasAttackEvent?$FN?5?9?5Error?5?3?5No?5M@
CONST	SEGMENT
??_C@_0DC@KONBBJGO@?$FLXMasAttackEvent?$FN?5?9?5Error?5?3?5No?5M@ DB '[XM'
	DB	'asAttackEvent] - Error : No Monster Data Exist', 00H ; `string'
; Function compile flags: /Ogtp
; File e:\work\tranet_version\gs\gameserver\xmasattackevent.cpp
CONST	ENDS
;	COMDAT ?StartEvent@CXMasAttackEvent@@UAEXXZ
_TEXT	SEGMENT
_MonsterMapInfo$213325 = -48				; size = 20
tv329 = -28						; size = 4
tv326 = -24						; size = 4
_vtHerdInfo$213326 = -20				; size = 4
tv335 = -16						; size = 4
_i$213321 = -12						; size = 4
_this$ = -8						; size = 4
_iCount$213327 = -4					; size = 4
?StartEvent@CXMasAttackEvent@@UAEXXZ PROC		; CXMasAttackEvent::StartEvent, COMDAT
; _this$ = ecx

; 257  : {

  00000	55		 push	 ebp
  00001	8b ec		 mov	 ebp, esp
  00003	83 ec 30	 sub	 esp, 48			; 00000030H
  00006	53		 push	 ebx
  00007	56		 push	 esi
  00008	8b f1		 mov	 esi, ecx

; 258  : 	if ( this->m_bDoEvent == FALSE )

  0000a	33 db		 xor	 ebx, ebx
  0000c	89 75 f8	 mov	 DWORD PTR _this$[ebp], esi
  0000f	39 5e 04	 cmp	 DWORD PTR [esi+4], ebx
  00012	0f 84 74 01 00
	00		 je	 $LN7@StartEvent

; 259  : 	{
; 260  : 		return;
; 261  : 	}
; 262  : 
; 263  : 	if ( this->m_bHasData == FALSE )

  00018	39 5e 08	 cmp	 DWORD PTR [esi+8], ebx
  0001b	0f 84 6b 01 00
	00		 je	 $LN7@StartEvent

; 264  : 	{
; 265  : 		return;
; 266  : 	}
; 267  : 
; 268  : 	if( this->m_vtMonsterAddData.empty() != FALSE )

  00021	8b 46 38	 mov	 eax, DWORD PTR [esi+56]
  00024	3b 46 3c	 cmp	 eax, DWORD PTR [esi+60]
  00027	0f 84 5f 01 00
	00		 je	 $LN7@StartEvent

; 269  : 	{
; 270  : 		return;
; 271  : 	}
; 272  : 
; 273  : 	this->SendMessage(lMsg.Get(2583), 1);

  0002d	6a 01		 push	 1
  0002f	68 17 0a 00 00	 push	 2583			; 00000a17H
  00034	b9 00 00 00 00	 mov	 ecx, OFFSET ?lMsg@@3VCMsg@@A ; lMsg
  00039	e8 00 00 00 00	 call	 ?Get@CMsg@@QAEPADH@Z	; CMsg::Get
  0003e	50		 push	 eax
  0003f	8b ce		 mov	 ecx, esi
  00041	e8 00 00 00 00	 call	 ?SendMessageA@CXMasAttackEvent@@QAEXPADH@Z ; CXMasAttackEvent::SendMessageA

; 274  : 
; 275  : 	this->ClearMonsterHerd();

  00046	8b ce		 mov	 ecx, esi
  00048	e8 00 00 00 00	 call	 ?ClearMonsterHerd@CXMasAttackEvent@@QAEXXZ ; CXMasAttackEvent::ClearMonsterHerd

; 276  : 	this->CreateMonsterHerd();

  0004d	8b ce		 mov	 ecx, esi
  0004f	e8 00 00 00 00	 call	 ?CreateMonsterHerd@CXMasAttackEvent@@QAEXXZ ; CXMasAttackEvent::CreateMonsterHerd

; 277  : 
; 278  : 	for (int i = 0; i < this->m_vtXMasMonsterMapInfo.size(); i++)

  00054	8b 4e 5c	 mov	 ecx, DWORD PTR [esi+92]
  00057	8b 56 60	 mov	 edx, DWORD PTR [esi+96]
  0005a	2b d1		 sub	 edx, ecx
  0005c	b8 67 66 66 66	 mov	 eax, 1717986919		; 66666667H
  00061	f7 ea		 imul	 edx
  00063	c1 fa 03	 sar	 edx, 3
  00066	8b c2		 mov	 eax, edx
  00068	c1 e8 1f	 shr	 eax, 31			; 0000001fH
  0006b	03 c2		 add	 eax, edx
  0006d	89 5d f4	 mov	 DWORD PTR _i$213321[ebp], ebx
  00070	0f 84 16 01 00
	00		 je	 $LN7@StartEvent
  00076	57		 push	 edi

; 269  : 	{
; 270  : 		return;
; 271  : 	}
; 272  : 
; 273  : 	this->SendMessage(lMsg.Get(2583), 1);

  00077	eb 0a		 jmp	 SHORT $LN9@StartEvent
  00079	8d a4 24 00 00
	00 00		 npad	 7
$LL31@StartEvent:
  00080	8b 75 f8	 mov	 esi, DWORD PTR _this$[ebp]
$LN9@StartEvent:

; 279  : 	{
; 280  : 		XMASMONSTER_MAP_INFO MonsterMapInfo = this->m_vtXMasMonsterMapInfo[i]; //perfect

  00083	8b 54 0b 08	 mov	 edx, DWORD PTR [ebx+ecx+8]
  00087	8b 7c 0b 04	 mov	 edi, DWORD PTR [ebx+ecx+4]
  0008b	8b 04 0b	 mov	 eax, DWORD PTR [ebx+ecx]
  0008e	89 55 d8	 mov	 DWORD PTR _MonsterMapInfo$213325[ebp+8], edx
  00091	8b 54 0b 0c	 mov	 edx, DWORD PTR [ebx+ecx+12]
  00095	8b 4c 0b 10	 mov	 ecx, DWORD PTR [ebx+ecx+16]
  00099	89 4d e0	 mov	 DWORD PTR _MonsterMapInfo$213325[ebp+16], ecx

; 281  : 		
; 282  : 		CXMasMonsterHerd * vtHerdInfo = this->m_vtXMasMonsterHerd[i]; //perfect

  0009c	8b 4e 48	 mov	 ecx, DWORD PTR [esi+72]
  0009f	8b 75 f4	 mov	 esi, DWORD PTR _i$213321[ebp]
  000a2	8b 0c b1	 mov	 ecx, DWORD PTR [ecx+esi*4]
  000a5	89 4d ec	 mov	 DWORD PTR _vtHerdInfo$213326[ebp], ecx

; 283  : 
; 284  : 		int iCount = 1000;

  000a8	8b 4d e0	 mov	 ecx, DWORD PTR _MonsterMapInfo$213325[ebp+16]
  000ab	8b f2		 mov	 esi, edx
  000ad	2b f7		 sub	 esi, edi

; 285  : 		int iRandX = 0;
; 286  : 		int iRandY = 0;
; 287  : 
; 288  : 		while ( iCount-- != 0 )

  000af	0f b6 d0	 movzx	 edx, al
  000b2	2b cf		 sub	 ecx, edi
  000b4	89 7d d4	 mov	 DWORD PTR _MonsterMapInfo$213325[ebp+4], edi
  000b7	c7 45 fc e8 03
	00 00		 mov	 DWORD PTR _iCount$213327[ebp], 1000 ; 000003e8H
  000be	89 75 e8	 mov	 DWORD PTR tv326[ebp], esi
  000c1	89 4d e4	 mov	 DWORD PTR tv329[ebp], ecx
  000c4	89 55 f0	 mov	 DWORD PTR tv335[ebp], edx
  000c7	eb 0d		 jmp	 SHORT $LN6@StartEvent
  000c9	8d a4 24 00 00
	00 00		 npad	 7
$LL32@StartEvent:
  000d0	8b 75 e8	 mov	 esi, DWORD PTR tv326[ebp]
  000d3	8b 7d d4	 mov	 edi, DWORD PTR _MonsterMapInfo$213325[ebp+4]
$LN6@StartEvent:
  000d6	ff 4d fc	 dec	 DWORD PTR _iCount$213327[ebp]

; 289  : 		{
; 290  : 			iRandX = rand() % (MonsterMapInfo.m_iMaxX - MonsterMapInfo.m_iMinX) + MonsterMapInfo.m_iMinX; //perfect

  000d9	e8 00 00 00 00	 call	 _rand
  000de	99		 cdq
  000df	f7 fe		 idiv	 esi
  000e1	8d 34 17	 lea	 esi, DWORD PTR [edi+edx]

; 291  : 			iRandY = rand() % (MonsterMapInfo.m_iMaxY - MonsterMapInfo.m_iMinX) + MonsterMapInfo.m_iMinY; //perfect + wz bug

  000e4	e8 00 00 00 00	 call	 _rand
  000e9	99		 cdq
  000ea	f7 7d e4	 idiv	 DWORD PTR tv329[ebp]

; 292  : 
; 293  : 			if ( vtHerdInfo->SetTotalInfo(MonsterMapInfo.m_btMapNumber, 3, iRandX, iRandY ) == TRUE )

  000ed	8b 4d ec	 mov	 ecx, DWORD PTR _vtHerdInfo$213326[ebp]
  000f0	8b 01		 mov	 eax, DWORD PTR [ecx]
  000f2	8b 40 04	 mov	 eax, DWORD PTR [eax+4]
  000f5	8b fa		 mov	 edi, edx
  000f7	03 7d d8	 add	 edi, DWORD PTR _MonsterMapInfo$213325[ebp+8]
  000fa	8b 55 f0	 mov	 edx, DWORD PTR tv335[ebp]
  000fd	57		 push	 edi
  000fe	56		 push	 esi
  000ff	6a 03		 push	 3
  00101	52		 push	 edx
  00102	ff d0		 call	 eax
  00104	83 f8 01	 cmp	 eax, 1
  00107	74 08		 je	 SHORT $LN5@StartEvent

; 285  : 		int iRandX = 0;
; 286  : 		int iRandY = 0;
; 287  : 
; 288  : 		while ( iCount-- != 0 )

  00109	83 7d fc 00	 cmp	 DWORD PTR _iCount$213327[ebp], 0
  0010d	75 c1		 jne	 SHORT $LL32@StartEvent

; 292  : 
; 293  : 			if ( vtHerdInfo->SetTotalInfo(MonsterMapInfo.m_btMapNumber, 3, iRandX, iRandY ) == TRUE )

  0010f	eb 06		 jmp	 SHORT $LN30@StartEvent
$LN5@StartEvent:

; 294  : 			{
; 295  : 				break;
; 296  : 			}
; 297  : 		}
; 298  : 
; 299  : 		if ( iCount == 0 )

  00111	83 7d fc 00	 cmp	 DWORD PTR _iCount$213327[ebp], 0
  00115	74 32		 je	 SHORT $LN2@StartEvent
$LN30@StartEvent:

; 300  : 		{
; 301  : 
; 302  : 		}
; 303  : 		else
; 304  : 		{
; 305  : 			if ( this->m_vtMonsterAddData.empty() != FALSE )

  00117	8b 45 f8	 mov	 eax, DWORD PTR _this$[ebp]
  0011a	8b 48 38	 mov	 ecx, DWORD PTR [eax+56]
  0011d	3b 48 3c	 cmp	 ecx, DWORD PTR [eax+60]
  00120	75 13		 jne	 SHORT $LN1@StartEvent

; 306  : 			{
; 307  : 				LogAddTD("[XMasAttackEvent] - Error : No Monster Data Exist");

  00122	68 00 00 00 00	 push	 OFFSET ??_C@_0DC@KONBBJGO@?$FLXMasAttackEvent?$FN?5?9?5Error?5?3?5No?5M@
  00127	ff 15 00 00 00
	00		 call	 DWORD PTR ?LogAddTD@@3P6AXPADZZA ; LogAddTD

; 308  : 				continue;

  0012d	8b 75 f8	 mov	 esi, DWORD PTR _this$[ebp]
  00130	83 c4 04	 add	 esp, 4
  00133	eb 2b		 jmp	 SHORT $LN8@StartEvent
$LN1@StartEvent:

; 309  : 			}
; 310  : 			LogAddTD("[XMasAttackEvent] - Monster Start Position MapNumber:%d, X:%d, Y:%d", MonsterMapInfo.m_btMapNumber, iRandX, iRandY);

  00135	8b 55 f0	 mov	 edx, DWORD PTR tv335[ebp]
  00138	57		 push	 edi
  00139	56		 push	 esi
  0013a	52		 push	 edx
  0013b	68 00 00 00 00	 push	 OFFSET ??_C@_0EE@INOOIIFJ@?$FLXMasAttackEvent?$FN?5?9?5Monster?5Star@
  00140	ff 15 00 00 00
	00		 call	 DWORD PTR ?LogAddTD@@3P6AXPADZZA ; LogAddTD
  00146	83 c4 10	 add	 esp, 16			; 00000010H
$LN2@StartEvent:

; 311  : 		}
; 312  : 		this->AddMonsterToHerd(vtHerdInfo);

  00149	8b 7d ec	 mov	 edi, DWORD PTR _vtHerdInfo$213326[ebp]
  0014c	8b 75 f8	 mov	 esi, DWORD PTR _this$[ebp]
  0014f	57		 push	 edi
  00150	8b ce		 mov	 ecx, esi
  00152	e8 00 00 00 00	 call	 ?AddMonsterToHerd@CXMasAttackEvent@@QAEXPAVCXMasMonsterHerd@@@Z ; CXMasAttackEvent::AddMonsterToHerd

; 313  : 		vtHerdInfo->Start();

  00157	8b 07		 mov	 eax, DWORD PTR [edi]
  00159	8b 50 14	 mov	 edx, DWORD PTR [eax+20]
  0015c	8b cf		 mov	 ecx, edi
  0015e	ff d2		 call	 edx
$LN8@StartEvent:

; 277  : 
; 278  : 	for (int i = 0; i < this->m_vtXMasMonsterMapInfo.size(); i++)

  00160	8b 4e 5c	 mov	 ecx, DWORD PTR [esi+92]
  00163	8b 56 60	 mov	 edx, DWORD PTR [esi+96]
  00166	8b 7d f4	 mov	 edi, DWORD PTR _i$213321[ebp]
  00169	2b d1		 sub	 edx, ecx
  0016b	b8 67 66 66 66	 mov	 eax, 1717986919		; 66666667H
  00170	f7 ea		 imul	 edx
  00172	c1 fa 03	 sar	 edx, 3
  00175	8b c2		 mov	 eax, edx
  00177	c1 e8 1f	 shr	 eax, 31			; 0000001fH
  0017a	47		 inc	 edi
  0017b	03 c2		 add	 eax, edx
  0017d	83 c3 14	 add	 ebx, 20			; 00000014H
  00180	89 7d f4	 mov	 DWORD PTR _i$213321[ebp], edi
  00183	3b f8		 cmp	 edi, eax
  00185	0f 82 f5 fe ff
	ff		 jb	 $LL31@StartEvent
  0018b	5f		 pop	 edi
$LN7@StartEvent:
  0018c	5e		 pop	 esi
  0018d	5b		 pop	 ebx

; 314  : 	}
; 315  : }

  0018e	8b e5		 mov	 esp, ebp
  00190	5d		 pop	 ebp
  00191	c3		 ret	 0
?StartEvent@CXMasAttackEvent@@UAEXXZ ENDP		; CXMasAttackEvent::StartEvent
_TEXT	ENDS
PUBLIC	?EnableEvent@CXMasAttackEvent@@QAEXH@Z		; CXMasAttackEvent::EnableEvent
; Function compile flags: /Ogtp
;	COMDAT ?EnableEvent@CXMasAttackEvent@@QAEXH@Z
_TEXT	SEGMENT
_bDoEvent$ = 8						; size = 4
?EnableEvent@CXMasAttackEvent@@QAEXH@Z PROC		; CXMasAttackEvent::EnableEvent, COMDAT
; _this$ = ecx

; 332  : {

  00000	55		 push	 ebp
  00001	8b ec		 mov	 ebp, esp

; 333  : 	this->m_bDoEvent = bDoEvent;

  00003	8b 45 08	 mov	 eax, DWORD PTR _bDoEvent$[ebp]
  00006	89 41 04	 mov	 DWORD PTR [ecx+4], eax

; 334  : 
; 335  : 	if ( this->m_bDoEvent )

  00009	85 c0		 test	 eax, eax
  0000b	74 0b		 je	 SHORT $LN2@EnableEven

; 336  : 	{
; 337  : 		this->SetState(ATTACKEVENT_STATE_CLOSED);

  0000d	6a 01		 push	 1

; 338  : 	}
; 339  : 	else
; 340  : 	{
; 341  : 		this->SetState(ATTACKEVENT_STATE_NONE);

  0000f	e8 00 00 00 00	 call	 ?SetState@CXMasAttackEvent@@QAEXH@Z ; CXMasAttackEvent::SetState

; 342  : 	}
; 343  : }

  00014	5d		 pop	 ebp
  00015	c2 04 00	 ret	 4
$LN2@EnableEven:

; 338  : 	}
; 339  : 	else
; 340  : 	{
; 341  : 		this->SetState(ATTACKEVENT_STATE_NONE);

  00018	6a 00		 push	 0
  0001a	e8 00 00 00 00	 call	 ?SetState@CXMasAttackEvent@@QAEXH@Z ; CXMasAttackEvent::SetState

; 342  : 	}
; 343  : }

  0001f	5d		 pop	 ebp
  00020	c2 04 00	 ret	 4
?EnableEvent@CXMasAttackEvent@@QAEXH@Z ENDP		; CXMasAttackEvent::EnableEvent
_TEXT	ENDS
PUBLIC	??1?$vector@UXMASMONSTER_MAP_INFO@@V?$allocator@UXMASMONSTER_MAP_INFO@@@std@@@std@@QAE@XZ ; std::vector<XMASMONSTER_MAP_INFO,std::allocator<XMASMONSTER_MAP_INFO> >::~vector<XMASMONSTER_MAP_INFO,std::allocator<XMASMONSTER_MAP_INFO> >
; Function compile flags: /Ogtp
; File d:\program files (x86)\microsoft visual studio 10.0\vc\include\vector
;	COMDAT ??1?$vector@UXMASMONSTER_MAP_INFO@@V?$allocator@UXMASMONSTER_MAP_INFO@@@std@@@std@@QAE@XZ
_TEXT	SEGMENT
??1?$vector@UXMASMONSTER_MAP_INFO@@V?$allocator@UXMASMONSTER_MAP_INFO@@@std@@@std@@QAE@XZ PROC ; std::vector<XMASMONSTER_MAP_INFO,std::allocator<XMASMONSTER_MAP_INFO> >::~vector<XMASMONSTER_MAP_INFO,std::allocator<XMASMONSTER_MAP_INFO> >, COMDAT
; _this$ = ecx

; 704  : 		{	// destroy the object

  00000	56		 push	 esi
  00001	8b f1		 mov	 esi, ecx

; 705  : 		_Tidy();

  00003	8b 06		 mov	 eax, DWORD PTR [esi]
  00005	85 c0		 test	 eax, eax
  00007	74 09		 je	 SHORT $LN8@vector@2
  00009	50		 push	 eax
  0000a	e8 00 00 00 00	 call	 ??3@YAXPAX@Z		; operator delete
  0000f	83 c4 04	 add	 esp, 4
$LN8@vector@2:
  00012	c7 06 00 00 00
	00		 mov	 DWORD PTR [esi], 0
  00018	c7 46 04 00 00
	00 00		 mov	 DWORD PTR [esi+4], 0
  0001f	c7 46 08 00 00
	00 00		 mov	 DWORD PTR [esi+8], 0
  00026	5e		 pop	 esi

; 706  : 		}

  00027	c3		 ret	 0
??1?$vector@UXMASMONSTER_MAP_INFO@@V?$allocator@UXMASMONSTER_MAP_INFO@@@std@@@std@@QAE@XZ ENDP ; std::vector<XMASMONSTER_MAP_INFO,std::allocator<XMASMONSTER_MAP_INFO> >::~vector<XMASMONSTER_MAP_INFO,std::allocator<XMASMONSTER_MAP_INFO> >
_TEXT	ENDS
PUBLIC	?_Reserve@?$vector@UXMASMONSTER_EVENT_TIME@@V?$allocator@UXMASMONSTER_EVENT_TIME@@@std@@@std@@IAEXI@Z ; std::vector<XMASMONSTER_EVENT_TIME,std::allocator<XMASMONSTER_EVENT_TIME> >::_Reserve
; Function compile flags: /Ogtp
;	COMDAT ?_Reserve@?$vector@UXMASMONSTER_EVENT_TIME@@V?$allocator@UXMASMONSTER_EVENT_TIME@@@std@@@std@@IAEXI@Z
_TEXT	SEGMENT
__Count$ = 8						; size = 4
?_Reserve@?$vector@UXMASMONSTER_EVENT_TIME@@V?$allocator@UXMASMONSTER_EVENT_TIME@@@std@@@std@@IAEXI@Z PROC ; std::vector<XMASMONSTER_EVENT_TIME,std::allocator<XMASMONSTER_EVENT_TIME> >::_Reserve, COMDAT
; _this$ = ecx

; 1290 : 		{	// ensure room for _Count new elements, grow exponentially

  00000	55		 push	 ebp
  00001	8b ec		 mov	 ebp, esp

; 1291 : 		size_type _Size = size();

  00003	8b 41 04	 mov	 eax, DWORD PTR [ecx+4]

; 1292 : 		if (max_size() - _Count < _Size)

  00006	8b 55 08	 mov	 edx, DWORD PTR __Count$[ebp]
  00009	56		 push	 esi
  0000a	8b 31		 mov	 esi, DWORD PTR [ecx]
  0000c	57		 push	 edi
  0000d	2b c6		 sub	 eax, esi
  0000f	bf ff ff ff 1f	 mov	 edi, 536870911		; 1fffffffH
  00014	c1 f8 03	 sar	 eax, 3
  00017	2b fa		 sub	 edi, edx
  00019	3b f8		 cmp	 edi, eax
  0001b	73 0a		 jae	 SHORT $LN4@Reserve@2

; 1293 : 			_Xlen();

  0001d	68 00 00 00 00	 push	 OFFSET ??_C@_0BD@OLBABOEK@vector?$DMT?$DO?5too?5long?$AA@
  00022	e8 00 00 00 00	 call	 ?_Xlength_error@std@@YAXPBD@Z ; std::_Xlength_error
$LN34@Reserve@2:
$LN4@Reserve@2:

; 1294 : 		else if ((_Size += _Count) <= capacity())

  00027	03 c2		 add	 eax, edx
  00029	8b 51 08	 mov	 edx, DWORD PTR [ecx+8]
  0002c	2b d6		 sub	 edx, esi
  0002e	c1 fa 03	 sar	 edx, 3
  00031	3b c2		 cmp	 eax, edx
  00033	76 21		 jbe	 SHORT $LN1@Reserve@2

; 1295 : 			;
; 1296 : 		else
; 1297 : 			reserve(_Grow_to(_Size));

  00035	8b f2		 mov	 esi, edx
  00037	d1 ee		 shr	 esi, 1
  00039	bf ff ff ff 1f	 mov	 edi, 536870911		; 1fffffffH
  0003e	2b fe		 sub	 edi, esi
  00040	3b fa		 cmp	 edi, edx
  00042	73 04		 jae	 SHORT $LN23@Reserve@2
  00044	33 d2		 xor	 edx, edx
  00046	eb 02		 jmp	 SHORT $LN24@Reserve@2
$LN23@Reserve@2:
  00048	03 d6		 add	 edx, esi
$LN24@Reserve@2:
  0004a	3b d0		 cmp	 edx, eax
  0004c	73 02		 jae	 SHORT $LN20@Reserve@2
  0004e	8b d0		 mov	 edx, eax
$LN20@Reserve@2:
  00050	52		 push	 edx
  00051	e8 00 00 00 00	 call	 ?reserve@?$vector@UXMASMONSTER_EVENT_TIME@@V?$allocator@UXMASMONSTER_EVENT_TIME@@@std@@@std@@QAEXI@Z ; std::vector<XMASMONSTER_EVENT_TIME,std::allocator<XMASMONSTER_EVENT_TIME> >::reserve
$LN1@Reserve@2:
  00056	5f		 pop	 edi
  00057	5e		 pop	 esi

; 1298 : 		}

  00058	5d		 pop	 ebp
  00059	c2 04 00	 ret	 4
$LN33@Reserve@2:
?_Reserve@?$vector@UXMASMONSTER_EVENT_TIME@@V?$allocator@UXMASMONSTER_EVENT_TIME@@@std@@@std@@IAEXI@Z ENDP ; std::vector<XMASMONSTER_EVENT_TIME,std::allocator<XMASMONSTER_EVENT_TIME> >::_Reserve
_TEXT	ENDS
PUBLIC	?_Reserve@?$vector@UXMASMONSTER_DATA@@V?$allocator@UXMASMONSTER_DATA@@@std@@@std@@IAEXI@Z ; std::vector<XMASMONSTER_DATA,std::allocator<XMASMONSTER_DATA> >::_Reserve
; Function compile flags: /Ogtp
;	COMDAT ?_Reserve@?$vector@UXMASMONSTER_DATA@@V?$allocator@UXMASMONSTER_DATA@@@std@@@std@@IAEXI@Z
_TEXT	SEGMENT
__Count$ = 8						; size = 4
?_Reserve@?$vector@UXMASMONSTER_DATA@@V?$allocator@UXMASMONSTER_DATA@@@std@@@std@@IAEXI@Z PROC ; std::vector<XMASMONSTER_DATA,std::allocator<XMASMONSTER_DATA> >::_Reserve, COMDAT
; _this$ = ecx

; 1290 : 		{	// ensure room for _Count new elements, grow exponentially

  00000	55		 push	 ebp
  00001	8b ec		 mov	 ebp, esp

; 1291 : 		size_type _Size = size();

  00003	8b 51 04	 mov	 edx, DWORD PTR [ecx+4]
  00006	56		 push	 esi
  00007	57		 push	 edi
  00008	8b 39		 mov	 edi, DWORD PTR [ecx]
  0000a	2b d7		 sub	 edx, edi
  0000c	b8 ab aa aa 2a	 mov	 eax, 715827883		; 2aaaaaabH
  00011	f7 ea		 imul	 edx

; 1292 : 		if (max_size() - _Count < _Size)

  00013	8b 45 08	 mov	 eax, DWORD PTR __Count$[ebp]
  00016	d1 fa		 sar	 edx, 1
  00018	8b f2		 mov	 esi, edx
  0001a	c1 ee 1f	 shr	 esi, 31			; 0000001fH
  0001d	03 f2		 add	 esi, edx
  0001f	ba 55 55 55 15	 mov	 edx, 357913941		; 15555555H
  00024	2b d0		 sub	 edx, eax
  00026	3b d6		 cmp	 edx, esi
  00028	73 0a		 jae	 SHORT $LN4@Reserve@3

; 1293 : 			_Xlen();

  0002a	68 00 00 00 00	 push	 OFFSET ??_C@_0BD@OLBABOEK@vector?$DMT?$DO?5too?5long?$AA@
  0002f	e8 00 00 00 00	 call	 ?_Xlength_error@std@@YAXPBD@Z ; std::_Xlength_error
$LN34@Reserve@3:
$LN4@Reserve@3:

; 1294 : 		else if ((_Size += _Count) <= capacity())

  00034	8b 51 08	 mov	 edx, DWORD PTR [ecx+8]
  00037	03 f0		 add	 esi, eax
  00039	2b d7		 sub	 edx, edi
  0003b	b8 ab aa aa 2a	 mov	 eax, 715827883		; 2aaaaaabH
  00040	f7 ea		 imul	 edx
  00042	d1 fa		 sar	 edx, 1
  00044	8b c2		 mov	 eax, edx
  00046	c1 e8 1f	 shr	 eax, 31			; 0000001fH
  00049	03 c2		 add	 eax, edx
  0004b	3b f0		 cmp	 esi, eax
  0004d	76 21		 jbe	 SHORT $LN1@Reserve@3

; 1295 : 			;
; 1296 : 		else
; 1297 : 			reserve(_Grow_to(_Size));

  0004f	8b d0		 mov	 edx, eax
  00051	d1 ea		 shr	 edx, 1
  00053	bf 55 55 55 15	 mov	 edi, 357913941		; 15555555H
  00058	2b fa		 sub	 edi, edx
  0005a	3b f8		 cmp	 edi, eax
  0005c	73 04		 jae	 SHORT $LN23@Reserve@3
  0005e	33 c0		 xor	 eax, eax
  00060	eb 02		 jmp	 SHORT $LN24@Reserve@3
$LN23@Reserve@3:
  00062	03 c2		 add	 eax, edx
$LN24@Reserve@3:
  00064	3b c6		 cmp	 eax, esi
  00066	73 02		 jae	 SHORT $LN20@Reserve@3
  00068	8b c6		 mov	 eax, esi
$LN20@Reserve@3:
  0006a	50		 push	 eax
  0006b	e8 00 00 00 00	 call	 ?reserve@?$vector@UXMASMONSTER_DATA@@V?$allocator@UXMASMONSTER_DATA@@@std@@@std@@QAEXI@Z ; std::vector<XMASMONSTER_DATA,std::allocator<XMASMONSTER_DATA> >::reserve
$LN1@Reserve@3:
  00070	5f		 pop	 edi
  00071	5e		 pop	 esi

; 1298 : 		}

  00072	5d		 pop	 ebp
  00073	c2 04 00	 ret	 4
$LN33@Reserve@3:
?_Reserve@?$vector@UXMASMONSTER_DATA@@V?$allocator@UXMASMONSTER_DATA@@@std@@@std@@IAEXI@Z ENDP ; std::vector<XMASMONSTER_DATA,std::allocator<XMASMONSTER_DATA> >::_Reserve
_TEXT	ENDS
PUBLIC	?_Reserve@?$vector@UXMASMONSTER_MAP_INFO@@V?$allocator@UXMASMONSTER_MAP_INFO@@@std@@@std@@IAEXI@Z ; std::vector<XMASMONSTER_MAP_INFO,std::allocator<XMASMONSTER_MAP_INFO> >::_Reserve
; Function compile flags: /Ogtp
;	COMDAT ?_Reserve@?$vector@UXMASMONSTER_MAP_INFO@@V?$allocator@UXMASMONSTER_MAP_INFO@@@std@@@std@@IAEXI@Z
_TEXT	SEGMENT
__Count$ = 8						; size = 4
?_Reserve@?$vector@UXMASMONSTER_MAP_INFO@@V?$allocator@UXMASMONSTER_MAP_INFO@@@std@@@std@@IAEXI@Z PROC ; std::vector<XMASMONSTER_MAP_INFO,std::allocator<XMASMONSTER_MAP_INFO> >::_Reserve, COMDAT
; _this$ = ecx

; 1290 : 		{	// ensure room for _Count new elements, grow exponentially

  00000	55		 push	 ebp
  00001	8b ec		 mov	 ebp, esp

; 1291 : 		size_type _Size = size();

  00003	8b 51 04	 mov	 edx, DWORD PTR [ecx+4]
  00006	56		 push	 esi
  00007	57		 push	 edi
  00008	8b 39		 mov	 edi, DWORD PTR [ecx]
  0000a	2b d7		 sub	 edx, edi
  0000c	b8 67 66 66 66	 mov	 eax, 1717986919		; 66666667H
  00011	f7 ea		 imul	 edx

; 1292 : 		if (max_size() - _Count < _Size)

  00013	8b 45 08	 mov	 eax, DWORD PTR __Count$[ebp]
  00016	c1 fa 03	 sar	 edx, 3
  00019	8b f2		 mov	 esi, edx
  0001b	c1 ee 1f	 shr	 esi, 31			; 0000001fH
  0001e	03 f2		 add	 esi, edx
  00020	ba cc cc cc 0c	 mov	 edx, 214748364		; 0cccccccH
  00025	2b d0		 sub	 edx, eax
  00027	3b d6		 cmp	 edx, esi
  00029	73 0a		 jae	 SHORT $LN4@Reserve@4

; 1293 : 			_Xlen();

  0002b	68 00 00 00 00	 push	 OFFSET ??_C@_0BD@OLBABOEK@vector?$DMT?$DO?5too?5long?$AA@
  00030	e8 00 00 00 00	 call	 ?_Xlength_error@std@@YAXPBD@Z ; std::_Xlength_error
$LN34@Reserve@4:
$LN4@Reserve@4:

; 1294 : 		else if ((_Size += _Count) <= capacity())

  00035	8b 51 08	 mov	 edx, DWORD PTR [ecx+8]
  00038	03 f0		 add	 esi, eax
  0003a	2b d7		 sub	 edx, edi
  0003c	b8 67 66 66 66	 mov	 eax, 1717986919		; 66666667H
  00041	f7 ea		 imul	 edx
  00043	c1 fa 03	 sar	 edx, 3
  00046	8b c2		 mov	 eax, edx
  00048	c1 e8 1f	 shr	 eax, 31			; 0000001fH
  0004b	03 c2		 add	 eax, edx
  0004d	3b f0		 cmp	 esi, eax
  0004f	76 21		 jbe	 SHORT $LN1@Reserve@4

; 1295 : 			;
; 1296 : 		else
; 1297 : 			reserve(_Grow_to(_Size));

  00051	8b d0		 mov	 edx, eax
  00053	d1 ea		 shr	 edx, 1
  00055	bf cc cc cc 0c	 mov	 edi, 214748364		; 0cccccccH
  0005a	2b fa		 sub	 edi, edx
  0005c	3b f8		 cmp	 edi, eax
  0005e	73 04		 jae	 SHORT $LN23@Reserve@4
  00060	33 c0		 xor	 eax, eax
  00062	eb 02		 jmp	 SHORT $LN24@Reserve@4
$LN23@Reserve@4:
  00064	03 c2		 add	 eax, edx
$LN24@Reserve@4:
  00066	3b c6		 cmp	 eax, esi
  00068	73 02		 jae	 SHORT $LN20@Reserve@4
  0006a	8b c6		 mov	 eax, esi
$LN20@Reserve@4:
  0006c	50		 push	 eax
  0006d	e8 00 00 00 00	 call	 ?reserve@?$vector@UXMASMONSTER_MAP_INFO@@V?$allocator@UXMASMONSTER_MAP_INFO@@@std@@@std@@QAEXI@Z ; std::vector<XMASMONSTER_MAP_INFO,std::allocator<XMASMONSTER_MAP_INFO> >::reserve
$LN1@Reserve@4:
  00072	5f		 pop	 edi
  00073	5e		 pop	 esi

; 1298 : 		}

  00074	5d		 pop	 ebp
  00075	c2 04 00	 ret	 4
$LN33@Reserve@4:
?_Reserve@?$vector@UXMASMONSTER_MAP_INFO@@V?$allocator@UXMASMONSTER_MAP_INFO@@@std@@@std@@IAEXI@Z ENDP ; std::vector<XMASMONSTER_MAP_INFO,std::allocator<XMASMONSTER_MAP_INFO> >::_Reserve
_TEXT	ENDS
PUBLIC	??_7CXMasAttackEvent@@6B@			; CXMasAttackEvent::`vftable'
PUBLIC	??0CXMasAttackEvent@@QAE@XZ			; CXMasAttackEvent::CXMasAttackEvent
PUBLIC	??_R4CXMasAttackEvent@@6B@			; CXMasAttackEvent::`RTTI Complete Object Locator'
PUBLIC	??_R0?AVCXMasAttackEvent@@@8			; CXMasAttackEvent `RTTI Type Descriptor'
PUBLIC	??_R3CXMasAttackEvent@@8			; CXMasAttackEvent::`RTTI Class Hierarchy Descriptor'
PUBLIC	??_R2CXMasAttackEvent@@8			; CXMasAttackEvent::`RTTI Base Class Array'
PUBLIC	??_R1A@?0A@EA@CXMasAttackEvent@@8		; CXMasAttackEvent::`RTTI Base Class Descriptor at (0,-1,0,64)'
PUBLIC	??_R1A@?0A@EA@CXMasAttackEventData@@8		; CXMasAttackEventData::`RTTI Base Class Descriptor at (0,-1,0,64)'
PUBLIC	??_R0?AVCXMasAttackEventData@@@8		; CXMasAttackEventData `RTTI Type Descriptor'
PUBLIC	??_R3CXMasAttackEventData@@8			; CXMasAttackEventData::`RTTI Class Hierarchy Descriptor'
PUBLIC	??_R2CXMasAttackEventData@@8			; CXMasAttackEventData::`RTTI Base Class Array'
PUBLIC	?Load@CXMasAttackEvent@@UAEHPAD@Z		; CXMasAttackEvent::Load
EXTRN	??0CXMasAttackEventData@@QAE@XZ:PROC		; CXMasAttackEventData::CXMasAttackEventData
EXTRN	??_ECXMasAttackEvent@@UAEPAXI@Z:PROC		; CXMasAttackEvent::`vector deleting destructor'
EXTRN	?SetMenualStart@CXMasAttackEvent@@UAEXH@Z:PROC	; CXMasAttackEvent::SetMenualStart
;	COMDAT ??_R2CXMasAttackEventData@@8
; File d:\program files (x86)\microsoft visual studio 10.0\vc\include\xmemory
rdata$r	SEGMENT
??_R2CXMasAttackEventData@@8 DD FLAT:??_R1A@?0A@EA@CXMasAttackEventData@@8 ; CXMasAttackEventData::`RTTI Base Class Array'
rdata$r	ENDS
;	COMDAT ??_R3CXMasAttackEventData@@8
rdata$r	SEGMENT
??_R3CXMasAttackEventData@@8 DD 00H			; CXMasAttackEventData::`RTTI Class Hierarchy Descriptor'
	DD	00H
	DD	01H
	DD	FLAT:??_R2CXMasAttackEventData@@8
rdata$r	ENDS
;	COMDAT ??_R0?AVCXMasAttackEventData@@@8
_DATA	SEGMENT
??_R0?AVCXMasAttackEventData@@@8 DD FLAT:??_7type_info@@6B@ ; CXMasAttackEventData `RTTI Type Descriptor'
	DD	00H
	DB	'.?AVCXMasAttackEventData@@', 00H
_DATA	ENDS
;	COMDAT ??_R1A@?0A@EA@CXMasAttackEventData@@8
rdata$r	SEGMENT
??_R1A@?0A@EA@CXMasAttackEventData@@8 DD FLAT:??_R0?AVCXMasAttackEventData@@@8 ; CXMasAttackEventData::`RTTI Base Class Descriptor at (0,-1,0,64)'
	DD	00H
	DD	00H
	DD	0ffffffffH
	DD	00H
	DD	040H
	DD	FLAT:??_R3CXMasAttackEventData@@8
rdata$r	ENDS
;	COMDAT ??_R1A@?0A@EA@CXMasAttackEvent@@8
rdata$r	SEGMENT
??_R1A@?0A@EA@CXMasAttackEvent@@8 DD FLAT:??_R0?AVCXMasAttackEvent@@@8 ; CXMasAttackEvent::`RTTI Base Class Descriptor at (0,-1,0,64)'
	DD	01H
	DD	00H
	DD	0ffffffffH
	DD	00H
	DD	040H
	DD	FLAT:??_R3CXMasAttackEvent@@8
rdata$r	ENDS
;	COMDAT ??_R2CXMasAttackEvent@@8
rdata$r	SEGMENT
??_R2CXMasAttackEvent@@8 DD FLAT:??_R1A@?0A@EA@CXMasAttackEvent@@8 ; CXMasAttackEvent::`RTTI Base Class Array'
	DD	FLAT:??_R1A@?0A@EA@CXMasAttackEventData@@8
rdata$r	ENDS
;	COMDAT ??_R3CXMasAttackEvent@@8
rdata$r	SEGMENT
??_R3CXMasAttackEvent@@8 DD 00H				; CXMasAttackEvent::`RTTI Class Hierarchy Descriptor'
	DD	00H
	DD	02H
	DD	FLAT:??_R2CXMasAttackEvent@@8
rdata$r	ENDS
;	COMDAT ??_R0?AVCXMasAttackEvent@@@8
_DATA	SEGMENT
??_R0?AVCXMasAttackEvent@@@8 DD FLAT:??_7type_info@@6B@	; CXMasAttackEvent `RTTI Type Descriptor'
	DD	00H
	DB	'.?AVCXMasAttackEvent@@', 00H
_DATA	ENDS
;	COMDAT ??_R4CXMasAttackEvent@@6B@
rdata$r	SEGMENT
??_R4CXMasAttackEvent@@6B@ DD 00H			; CXMasAttackEvent::`RTTI Complete Object Locator'
	DD	00H
	DD	00H
	DD	FLAT:??_R0?AVCXMasAttackEvent@@@8
	DD	FLAT:??_R3CXMasAttackEvent@@8
rdata$r	ENDS
;	COMDAT ??_7CXMasAttackEvent@@6B@
CONST	SEGMENT
??_7CXMasAttackEvent@@6B@ DD FLAT:??_R4CXMasAttackEvent@@6B@ ; CXMasAttackEvent::`vftable'
	DD	FLAT:??_ECXMasAttackEvent@@UAEPAXI@Z
	DD	FLAT:?Load@CXMasAttackEvent@@UAEHPAD@Z
	DD	FLAT:?StartEvent@CXMasAttackEvent@@UAEXXZ
	DD	FLAT:?StopEvent@CXMasAttackEvent@@UAEXXZ
	DD	FLAT:?End_Menual@CXMasAttackEvent@@UAEXXZ
	DD	FLAT:?SetMenualStart@CXMasAttackEvent@@UAEXH@Z
	DD	FLAT:?Start_Menual@CXMasAttackEvent@@UAEXXZ
; Function compile flags: /Ogtp
; File e:\work\tranet_version\gs\gameserver\xmasattackevent.cpp
CONST	ENDS
;	COMDAT ??0CXMasAttackEvent@@QAE@XZ
_TEXT	SEGMENT
??0CXMasAttackEvent@@QAE@XZ PROC			; CXMasAttackEvent::CXMasAttackEvent, COMDAT
; _this$ = ecx

; 107  : {

  00000	56		 push	 esi
  00001	8b f1		 mov	 esi, ecx
  00003	e8 00 00 00 00	 call	 ??0CXMasAttackEventData@@QAE@XZ ; CXMasAttackEventData::CXMasAttackEventData
  00008	33 c0		 xor	 eax, eax
  0000a	c7 06 00 00 00
	00		 mov	 DWORD PTR [esi], OFFSET ??_7CXMasAttackEvent@@6B@
  00010	89 46 5c	 mov	 DWORD PTR [esi+92], eax
  00013	89 46 60	 mov	 DWORD PTR [esi+96], eax
  00016	89 46 64	 mov	 DWORD PTR [esi+100], eax
  00019	89 46 6c	 mov	 DWORD PTR [esi+108], eax
  0001c	89 86 80 00 00
	00		 mov	 DWORD PTR [esi+128], eax
  00022	89 86 84 00 00
	00		 mov	 DWORD PTR [esi+132], eax
  00028	89 86 88 00 00
	00		 mov	 DWORD PTR [esi+136], eax
  0002e	89 86 8c 00 00
	00		 mov	 DWORD PTR [esi+140], eax
  00034	89 86 90 00 00
	00		 mov	 DWORD PTR [esi+144], eax
  0003a	c7 46 74 0f 00
	00 00		 mov	 DWORD PTR [esi+116], 15	; 0000000fH
  00041	c7 46 78 03 00
	00 00		 mov	 DWORD PTR [esi+120], 3
  00048	c7 46 7c 06 00
	00 00		 mov	 DWORD PTR [esi+124], 6

; 108  : }

  0004f	8b c6		 mov	 eax, esi
  00051	5e		 pop	 esi
  00052	c3		 ret	 0
??0CXMasAttackEvent@@QAE@XZ ENDP			; CXMasAttackEvent::CXMasAttackEvent
_TEXT	ENDS
PUBLIC	??1CXMasAttackEvent@@UAE@XZ			; CXMasAttackEvent::~CXMasAttackEvent
EXTRN	??1CXMasAttackEventData@@UAE@XZ:PROC		; CXMasAttackEventData::~CXMasAttackEventData
;	COMDAT xdata$x
; File d:\program files (x86)\microsoft visual studio 10.0\vc\include\vector
xdata$x	SEGMENT
__unwindtable$??1CXMasAttackEvent@@UAE@XZ DD 0ffffffffH
	DD	FLAT:__unwindfunclet$??1CXMasAttackEvent@@UAE@XZ$0
	DD	00H
	DD	FLAT:__unwindfunclet$??1CXMasAttackEvent@@UAE@XZ$1
__ehfuncinfo$??1CXMasAttackEvent@@UAE@XZ DD 019930522H
	DD	02H
	DD	FLAT:__unwindtable$??1CXMasAttackEvent@@UAE@XZ
	DD	2 DUP(00H)
	DD	2 DUP(00H)
	DD	00H
	DD	01H
; Function compile flags: /Ogtp
; File e:\work\tranet_version\gs\gameserver\xmasattackevent.cpp
xdata$x	ENDS
;	COMDAT ??1CXMasAttackEvent@@UAE@XZ
_TEXT	SEGMENT
_this$ = -16						; size = 4
__$EHRec$ = -12						; size = 12
??1CXMasAttackEvent@@UAE@XZ PROC			; CXMasAttackEvent::~CXMasAttackEvent, COMDAT
; _this$ = ecx

; 112  : {

  00000	55		 push	 ebp
  00001	8b ec		 mov	 ebp, esp
  00003	6a ff		 push	 -1
  00005	68 00 00 00 00	 push	 __ehhandler$??1CXMasAttackEvent@@UAE@XZ
  0000a	64 a1 00 00 00
	00		 mov	 eax, DWORD PTR fs:0
  00010	50		 push	 eax
  00011	51		 push	 ecx
  00012	56		 push	 esi
  00013	a1 00 00 00 00	 mov	 eax, DWORD PTR ___security_cookie
  00018	33 c5		 xor	 eax, ebp
  0001a	50		 push	 eax
  0001b	8d 45 f4	 lea	 eax, DWORD PTR __$EHRec$[ebp]
  0001e	64 a3 00 00 00
	00		 mov	 DWORD PTR fs:0, eax
  00024	8b f1		 mov	 esi, ecx
  00026	89 75 f0	 mov	 DWORD PTR _this$[ebp], esi
  00029	c7 06 00 00 00
	00		 mov	 DWORD PTR [esi], OFFSET ??_7CXMasAttackEvent@@6B@
  0002f	c7 45 fc 01 00
	00 00		 mov	 DWORD PTR __$EHRec$[ebp+8], 1

; 113  : 	this->ClearMonsterHerd();

  00036	e8 00 00 00 00	 call	 ?ClearMonsterHerd@CXMasAttackEvent@@QAEXXZ ; CXMasAttackEvent::ClearMonsterHerd

; 114  : }

  0003b	8b 46 5c	 mov	 eax, DWORD PTR [esi+92]
  0003e	85 c0		 test	 eax, eax
  00040	74 09		 je	 SHORT $LN12@CXMasAttac
  00042	50		 push	 eax
  00043	e8 00 00 00 00	 call	 ??3@YAXPAX@Z		; operator delete
  00048	83 c4 04	 add	 esp, 4
$LN12@CXMasAttac:
  0004b	8b ce		 mov	 ecx, esi
  0004d	c7 46 5c 00 00
	00 00		 mov	 DWORD PTR [esi+92], 0
  00054	c7 46 60 00 00
	00 00		 mov	 DWORD PTR [esi+96], 0
  0005b	c7 46 64 00 00
	00 00		 mov	 DWORD PTR [esi+100], 0
  00062	c7 45 fc ff ff
	ff ff		 mov	 DWORD PTR __$EHRec$[ebp+8], -1
  00069	e8 00 00 00 00	 call	 ??1CXMasAttackEventData@@UAE@XZ ; CXMasAttackEventData::~CXMasAttackEventData
  0006e	8b 4d f4	 mov	 ecx, DWORD PTR __$EHRec$[ebp]
  00071	64 89 0d 00 00
	00 00		 mov	 DWORD PTR fs:0, ecx
  00078	59		 pop	 ecx
  00079	5e		 pop	 esi
  0007a	8b e5		 mov	 esp, ebp
  0007c	5d		 pop	 ebp
  0007d	c3		 ret	 0
_TEXT	ENDS
;	COMDAT text$x
text$x	SEGMENT
__unwindfunclet$??1CXMasAttackEvent@@UAE@XZ$0:
  00000	8b 4d f0	 mov	 ecx, DWORD PTR _this$[ebp]
  00003	e9 00 00 00 00	 jmp	 ??1CXMasAttackEventData@@UAE@XZ ; CXMasAttackEventData::~CXMasAttackEventData
__unwindfunclet$??1CXMasAttackEvent@@UAE@XZ$1:
  00008	8b 4d f0	 mov	 ecx, DWORD PTR _this$[ebp]
  0000b	83 c1 5c	 add	 ecx, 92			; 0000005cH
  0000e	e9 00 00 00 00	 jmp	 ??1?$vector@UXMASMONSTER_MAP_INFO@@V?$allocator@UXMASMONSTER_MAP_INFO@@@std@@@std@@QAE@XZ ; std::vector<XMASMONSTER_MAP_INFO,std::allocator<XMASMONSTER_MAP_INFO> >::~vector<XMASMONSTER_MAP_INFO,std::allocator<XMASMONSTER_MAP_INFO> >
__ehhandler$??1CXMasAttackEvent@@UAE@XZ:
  00013	8b 54 24 08	 mov	 edx, DWORD PTR [esp+8]
  00017	8d 42 0c	 lea	 eax, DWORD PTR [edx+12]
  0001a	8b 4a f4	 mov	 ecx, DWORD PTR [edx-12]
  0001d	33 c8		 xor	 ecx, eax
  0001f	e8 00 00 00 00	 call	 @__security_check_cookie@4
  00024	b8 00 00 00 00	 mov	 eax, OFFSET __ehfuncinfo$??1CXMasAttackEvent@@UAE@XZ
  00029	e9 00 00 00 00	 jmp	 ___CxxFrameHandler3
text$x	ENDS
??1CXMasAttackEvent@@UAE@XZ ENDP			; CXMasAttackEvent::~CXMasAttackEvent
PUBLIC	?push_back@?$vector@UXMASMONSTER_EVENT_TIME@@V?$allocator@UXMASMONSTER_EVENT_TIME@@@std@@@std@@QAEXABUXMASMONSTER_EVENT_TIME@@@Z ; std::vector<XMASMONSTER_EVENT_TIME,std::allocator<XMASMONSTER_EVENT_TIME> >::push_back
; Function compile flags: /Ogtp
; File d:\program files (x86)\microsoft visual studio 10.0\vc\include\vector
;	COMDAT ?push_back@?$vector@UXMASMONSTER_EVENT_TIME@@V?$allocator@UXMASMONSTER_EVENT_TIME@@@std@@@std@@QAEXABUXMASMONSTER_EVENT_TIME@@@Z
_TEXT	SEGMENT
__Val$ = 8						; size = 4
?push_back@?$vector@UXMASMONSTER_EVENT_TIME@@V?$allocator@UXMASMONSTER_EVENT_TIME@@@std@@@std@@QAEXABUXMASMONSTER_EVENT_TIME@@@Z PROC ; std::vector<XMASMONSTER_EVENT_TIME,std::allocator<XMASMONSTER_EVENT_TIME> >::push_back, COMDAT
; _this$ = ecx

; 976  : 		{	// insert element at end

  00000	55		 push	 ebp
  00001	8b ec		 mov	 ebp, esp
  00003	56		 push	 esi
  00004	8b f1		 mov	 esi, ecx

; 977  : 		if (_Inside(_STD addressof(_Val)))

  00006	8b 46 04	 mov	 eax, DWORD PTR [esi+4]
  00009	57		 push	 edi
  0000a	8b 7d 08	 mov	 edi, DWORD PTR __Val$[ebp]
  0000d	3b f8		 cmp	 edi, eax
  0000f	73 39		 jae	 SHORT $LN4@push_back@2
  00011	8b 0e		 mov	 ecx, DWORD PTR [esi]
  00013	3b cf		 cmp	 ecx, edi
  00015	77 33		 ja	 SHORT $LN4@push_back@2

; 978  : 			{	// push back an element
; 979  : 			size_type _Idx = _STD addressof(_Val) - this->_Myfirst;

  00017	2b f9		 sub	 edi, ecx
  00019	c1 ff 03	 sar	 edi, 3

; 980  : 			if (this->_Mylast == this->_Myend)

  0001c	3b 46 08	 cmp	 eax, DWORD PTR [esi+8]
  0001f	75 09		 jne	 SHORT $LN3@push_back@2

; 981  : 				_Reserve(1);

  00021	6a 01		 push	 1
  00023	8b ce		 mov	 ecx, esi
  00025	e8 00 00 00 00	 call	 ?_Reserve@?$vector@UXMASMONSTER_EVENT_TIME@@V?$allocator@UXMASMONSTER_EVENT_TIME@@@std@@@std@@IAEXI@Z ; std::vector<XMASMONSTER_EVENT_TIME,std::allocator<XMASMONSTER_EVENT_TIME> >::_Reserve
$LN3@push_back@2:

; 982  : 			_Orphan_range(this->_Mylast, this->_Mylast);
; 983  : 			_Cons_val(this->_Alval,
; 984  : 				this->_Mylast,
; 985  : 				this->_Myfirst[_Idx]);

  0002a	8b 06		 mov	 eax, DWORD PTR [esi]
  0002c	8b 56 04	 mov	 edx, DWORD PTR [esi+4]
  0002f	8d 0c f8	 lea	 ecx, DWORD PTR [eax+edi*8]
  00032	51		 push	 ecx
  00033	52		 push	 edx
  00034	8d 46 0c	 lea	 eax, DWORD PTR [esi+12]
  00037	50		 push	 eax
  00038	e8 00 00 00 00	 call	 ??$_Cons_val@V?$allocator@UXMASMONSTER_EVENT_TIME@@@std@@UXMASMONSTER_EVENT_TIME@@AAU3@@std@@YAXAAV?$allocator@UXMASMONSTER_EVENT_TIME@@@0@PAUXMASMONSTER_EVENT_TIME@@AAU2@@Z ; std::_Cons_val<std::allocator<XMASMONSTER_EVENT_TIME>,XMASMONSTER_EVENT_TIME,XMASMONSTER_EVENT_TIME &>

; 992  : 			_Orphan_range(this->_Mylast, this->_Mylast);
; 993  : 			_Cons_val(this->_Alval,
; 994  : 				this->_Mylast,
; 995  : 				_Val);

  0003d	83 c4 0c	 add	 esp, 12			; 0000000cH

; 996  : 			++this->_Mylast;

  00040	83 46 04 08	 add	 DWORD PTR [esi+4], 8
  00044	5f		 pop	 edi
  00045	5e		 pop	 esi

; 997  : 			}
; 998  : 		}

  00046	5d		 pop	 ebp
  00047	c2 04 00	 ret	 4
$LN4@push_back@2:

; 986  : 			++this->_Mylast;
; 987  : 			}
; 988  : 		else
; 989  : 			{	// push back a non-element
; 990  : 			if (this->_Mylast == this->_Myend)

  0004a	3b 46 08	 cmp	 eax, DWORD PTR [esi+8]
  0004d	75 09		 jne	 SHORT $LN1@push_back@2

; 991  : 				_Reserve(1);

  0004f	6a 01		 push	 1
  00051	8b ce		 mov	 ecx, esi
  00053	e8 00 00 00 00	 call	 ?_Reserve@?$vector@UXMASMONSTER_EVENT_TIME@@V?$allocator@UXMASMONSTER_EVENT_TIME@@@std@@@std@@IAEXI@Z ; std::vector<XMASMONSTER_EVENT_TIME,std::allocator<XMASMONSTER_EVENT_TIME> >::_Reserve
$LN1@push_back@2:

; 992  : 			_Orphan_range(this->_Mylast, this->_Mylast);
; 993  : 			_Cons_val(this->_Alval,
; 994  : 				this->_Mylast,
; 995  : 				_Val);

  00058	8b 4e 04	 mov	 ecx, DWORD PTR [esi+4]
  0005b	57		 push	 edi
  0005c	51		 push	 ecx
  0005d	8d 56 0c	 lea	 edx, DWORD PTR [esi+12]
  00060	52		 push	 edx
  00061	e8 00 00 00 00	 call	 ??$_Cons_val@V?$allocator@UXMASMONSTER_EVENT_TIME@@@std@@UXMASMONSTER_EVENT_TIME@@ABU3@@std@@YAXAAV?$allocator@UXMASMONSTER_EVENT_TIME@@@0@PAUXMASMONSTER_EVENT_TIME@@ABU2@@Z ; std::_Cons_val<std::allocator<XMASMONSTER_EVENT_TIME>,XMASMONSTER_EVENT_TIME,XMASMONSTER_EVENT_TIME const &>
  00066	83 c4 0c	 add	 esp, 12			; 0000000cH

; 996  : 			++this->_Mylast;

  00069	83 46 04 08	 add	 DWORD PTR [esi+4], 8
  0006d	5f		 pop	 edi
  0006e	5e		 pop	 esi

; 997  : 			}
; 998  : 		}

  0006f	5d		 pop	 ebp
  00070	c2 04 00	 ret	 4
?push_back@?$vector@UXMASMONSTER_EVENT_TIME@@V?$allocator@UXMASMONSTER_EVENT_TIME@@@std@@@std@@QAEXABUXMASMONSTER_EVENT_TIME@@@Z ENDP ; std::vector<XMASMONSTER_EVENT_TIME,std::allocator<XMASMONSTER_EVENT_TIME> >::push_back
_TEXT	ENDS
PUBLIC	?push_back@?$vector@UXMASMONSTER_DATA@@V?$allocator@UXMASMONSTER_DATA@@@std@@@std@@QAEXABUXMASMONSTER_DATA@@@Z ; std::vector<XMASMONSTER_DATA,std::allocator<XMASMONSTER_DATA> >::push_back
; Function compile flags: /Ogtp
;	COMDAT ?push_back@?$vector@UXMASMONSTER_DATA@@V?$allocator@UXMASMONSTER_DATA@@@std@@@std@@QAEXABUXMASMONSTER_DATA@@@Z
_TEXT	SEGMENT
__Val$ = 8						; size = 4
?push_back@?$vector@UXMASMONSTER_DATA@@V?$allocator@UXMASMONSTER_DATA@@@std@@@std@@QAEXABUXMASMONSTER_DATA@@@Z PROC ; std::vector<XMASMONSTER_DATA,std::allocator<XMASMONSTER_DATA> >::push_back, COMDAT
; _this$ = ecx

; 976  : 		{	// insert element at end

  00000	55		 push	 ebp
  00001	8b ec		 mov	 ebp, esp
  00003	56		 push	 esi
  00004	8b f1		 mov	 esi, ecx

; 977  : 		if (_Inside(_STD addressof(_Val)))

  00006	8b 4e 04	 mov	 ecx, DWORD PTR [esi+4]
  00009	57		 push	 edi
  0000a	8b 7d 08	 mov	 edi, DWORD PTR __Val$[ebp]
  0000d	3b f9		 cmp	 edi, ecx
  0000f	73 49		 jae	 SHORT $LN4@push_back@3
  00011	8b 06		 mov	 eax, DWORD PTR [esi]
  00013	3b c7		 cmp	 eax, edi
  00015	77 43		 ja	 SHORT $LN4@push_back@3

; 978  : 			{	// push back an element
; 979  : 			size_type _Idx = _STD addressof(_Val) - this->_Myfirst;

  00017	2b f8		 sub	 edi, eax
  00019	b8 ab aa aa 2a	 mov	 eax, 715827883		; 2aaaaaabH
  0001e	f7 ef		 imul	 edi
  00020	d1 fa		 sar	 edx, 1
  00022	8b fa		 mov	 edi, edx
  00024	c1 ef 1f	 shr	 edi, 31			; 0000001fH
  00027	03 fa		 add	 edi, edx

; 980  : 			if (this->_Mylast == this->_Myend)

  00029	3b 4e 08	 cmp	 ecx, DWORD PTR [esi+8]
  0002c	75 09		 jne	 SHORT $LN3@push_back@3

; 981  : 				_Reserve(1);

  0002e	6a 01		 push	 1
  00030	8b ce		 mov	 ecx, esi
  00032	e8 00 00 00 00	 call	 ?_Reserve@?$vector@UXMASMONSTER_DATA@@V?$allocator@UXMASMONSTER_DATA@@@std@@@std@@IAEXI@Z ; std::vector<XMASMONSTER_DATA,std::allocator<XMASMONSTER_DATA> >::_Reserve
$LN3@push_back@3:

; 982  : 			_Orphan_range(this->_Mylast, this->_Mylast);
; 983  : 			_Cons_val(this->_Alval,
; 984  : 				this->_Mylast,
; 985  : 				this->_Myfirst[_Idx]);

  00037	8b 0e		 mov	 ecx, DWORD PTR [esi]
  00039	8d 04 7f	 lea	 eax, DWORD PTR [edi+edi*2]
  0003c	8d 14 81	 lea	 edx, DWORD PTR [ecx+eax*4]
  0003f	8b 46 04	 mov	 eax, DWORD PTR [esi+4]
  00042	52		 push	 edx
  00043	50		 push	 eax
  00044	8d 4e 0c	 lea	 ecx, DWORD PTR [esi+12]
  00047	51		 push	 ecx
  00048	e8 00 00 00 00	 call	 ??$_Cons_val@V?$allocator@UXMASMONSTER_DATA@@@std@@UXMASMONSTER_DATA@@AAU3@@std@@YAXAAV?$allocator@UXMASMONSTER_DATA@@@0@PAUXMASMONSTER_DATA@@AAU2@@Z ; std::_Cons_val<std::allocator<XMASMONSTER_DATA>,XMASMONSTER_DATA,XMASMONSTER_DATA &>

; 992  : 			_Orphan_range(this->_Mylast, this->_Mylast);
; 993  : 			_Cons_val(this->_Alval,
; 994  : 				this->_Mylast,
; 995  : 				_Val);

  0004d	83 c4 0c	 add	 esp, 12			; 0000000cH

; 996  : 			++this->_Mylast;

  00050	83 46 04 0c	 add	 DWORD PTR [esi+4], 12	; 0000000cH
  00054	5f		 pop	 edi
  00055	5e		 pop	 esi

; 997  : 			}
; 998  : 		}

  00056	5d		 pop	 ebp
  00057	c2 04 00	 ret	 4
$LN4@push_back@3:

; 986  : 			++this->_Mylast;
; 987  : 			}
; 988  : 		else
; 989  : 			{	// push back a non-element
; 990  : 			if (this->_Mylast == this->_Myend)

  0005a	3b 4e 08	 cmp	 ecx, DWORD PTR [esi+8]
  0005d	75 09		 jne	 SHORT $LN1@push_back@3

; 991  : 				_Reserve(1);

  0005f	6a 01		 push	 1
  00061	8b ce		 mov	 ecx, esi
  00063	e8 00 00 00 00	 call	 ?_Reserve@?$vector@UXMASMONSTER_DATA@@V?$allocator@UXMASMONSTER_DATA@@@std@@@std@@IAEXI@Z ; std::vector<XMASMONSTER_DATA,std::allocator<XMASMONSTER_DATA> >::_Reserve
$LN1@push_back@3:

; 992  : 			_Orphan_range(this->_Mylast, this->_Mylast);
; 993  : 			_Cons_val(this->_Alval,
; 994  : 				this->_Mylast,
; 995  : 				_Val);

  00068	8b 56 04	 mov	 edx, DWORD PTR [esi+4]
  0006b	57		 push	 edi
  0006c	52		 push	 edx
  0006d	8d 46 0c	 lea	 eax, DWORD PTR [esi+12]
  00070	50		 push	 eax
  00071	e8 00 00 00 00	 call	 ??$_Cons_val@V?$allocator@UXMASMONSTER_DATA@@@std@@UXMASMONSTER_DATA@@ABU3@@std@@YAXAAV?$allocator@UXMASMONSTER_DATA@@@0@PAUXMASMONSTER_DATA@@ABU2@@Z ; std::_Cons_val<std::allocator<XMASMONSTER_DATA>,XMASMONSTER_DATA,XMASMONSTER_DATA const &>
  00076	83 c4 0c	 add	 esp, 12			; 0000000cH

; 996  : 			++this->_Mylast;

  00079	83 46 04 0c	 add	 DWORD PTR [esi+4], 12	; 0000000cH
  0007d	5f		 pop	 edi
  0007e	5e		 pop	 esi

; 997  : 			}
; 998  : 		}

  0007f	5d		 pop	 ebp
  00080	c2 04 00	 ret	 4
?push_back@?$vector@UXMASMONSTER_DATA@@V?$allocator@UXMASMONSTER_DATA@@@std@@@std@@QAEXABUXMASMONSTER_DATA@@@Z ENDP ; std::vector<XMASMONSTER_DATA,std::allocator<XMASMONSTER_DATA> >::push_back
_TEXT	ENDS
PUBLIC	?push_back@?$vector@UXMASMONSTER_MAP_INFO@@V?$allocator@UXMASMONSTER_MAP_INFO@@@std@@@std@@QAEXABUXMASMONSTER_MAP_INFO@@@Z ; std::vector<XMASMONSTER_MAP_INFO,std::allocator<XMASMONSTER_MAP_INFO> >::push_back
; Function compile flags: /Ogtp
;	COMDAT ?push_back@?$vector@UXMASMONSTER_MAP_INFO@@V?$allocator@UXMASMONSTER_MAP_INFO@@@std@@@std@@QAEXABUXMASMONSTER_MAP_INFO@@@Z
_TEXT	SEGMENT
__Val$ = 8						; size = 4
?push_back@?$vector@UXMASMONSTER_MAP_INFO@@V?$allocator@UXMASMONSTER_MAP_INFO@@@std@@@std@@QAEXABUXMASMONSTER_MAP_INFO@@@Z PROC ; std::vector<XMASMONSTER_MAP_INFO,std::allocator<XMASMONSTER_MAP_INFO> >::push_back, COMDAT
; _this$ = ecx

; 976  : 		{	// insert element at end

  00000	55		 push	 ebp
  00001	8b ec		 mov	 ebp, esp
  00003	56		 push	 esi
  00004	8b f1		 mov	 esi, ecx

; 977  : 		if (_Inside(_STD addressof(_Val)))

  00006	8b 4e 04	 mov	 ecx, DWORD PTR [esi+4]
  00009	57		 push	 edi
  0000a	8b 7d 08	 mov	 edi, DWORD PTR __Val$[ebp]
  0000d	3b f9		 cmp	 edi, ecx
  0000f	73 4a		 jae	 SHORT $LN4@push_back@4
  00011	8b 06		 mov	 eax, DWORD PTR [esi]
  00013	3b c7		 cmp	 eax, edi
  00015	77 44		 ja	 SHORT $LN4@push_back@4

; 978  : 			{	// push back an element
; 979  : 			size_type _Idx = _STD addressof(_Val) - this->_Myfirst;

  00017	2b f8		 sub	 edi, eax
  00019	b8 67 66 66 66	 mov	 eax, 1717986919		; 66666667H
  0001e	f7 ef		 imul	 edi
  00020	c1 fa 03	 sar	 edx, 3
  00023	8b fa		 mov	 edi, edx
  00025	c1 ef 1f	 shr	 edi, 31			; 0000001fH
  00028	03 fa		 add	 edi, edx

; 980  : 			if (this->_Mylast == this->_Myend)

  0002a	3b 4e 08	 cmp	 ecx, DWORD PTR [esi+8]
  0002d	75 09		 jne	 SHORT $LN3@push_back@4

; 981  : 				_Reserve(1);

  0002f	6a 01		 push	 1
  00031	8b ce		 mov	 ecx, esi
  00033	e8 00 00 00 00	 call	 ?_Reserve@?$vector@UXMASMONSTER_MAP_INFO@@V?$allocator@UXMASMONSTER_MAP_INFO@@@std@@@std@@IAEXI@Z ; std::vector<XMASMONSTER_MAP_INFO,std::allocator<XMASMONSTER_MAP_INFO> >::_Reserve
$LN3@push_back@4:

; 982  : 			_Orphan_range(this->_Mylast, this->_Mylast);
; 983  : 			_Cons_val(this->_Alval,
; 984  : 				this->_Mylast,
; 985  : 				this->_Myfirst[_Idx]);

  00038	8b 0e		 mov	 ecx, DWORD PTR [esi]
  0003a	8d 04 bf	 lea	 eax, DWORD PTR [edi+edi*4]
  0003d	8d 14 81	 lea	 edx, DWORD PTR [ecx+eax*4]
  00040	8b 46 04	 mov	 eax, DWORD PTR [esi+4]
  00043	52		 push	 edx
  00044	50		 push	 eax
  00045	8d 4e 0c	 lea	 ecx, DWORD PTR [esi+12]
  00048	51		 push	 ecx
  00049	e8 00 00 00 00	 call	 ??$_Cons_val@V?$allocator@UXMASMONSTER_MAP_INFO@@@std@@UXMASMONSTER_MAP_INFO@@AAU3@@std@@YAXAAV?$allocator@UXMASMONSTER_MAP_INFO@@@0@PAUXMASMONSTER_MAP_INFO@@AAU2@@Z ; std::_Cons_val<std::allocator<XMASMONSTER_MAP_INFO>,XMASMONSTER_MAP_INFO,XMASMONSTER_MAP_INFO &>

; 992  : 			_Orphan_range(this->_Mylast, this->_Mylast);
; 993  : 			_Cons_val(this->_Alval,
; 994  : 				this->_Mylast,
; 995  : 				_Val);

  0004e	83 c4 0c	 add	 esp, 12			; 0000000cH

; 996  : 			++this->_Mylast;

  00051	83 46 04 14	 add	 DWORD PTR [esi+4], 20	; 00000014H
  00055	5f		 pop	 edi
  00056	5e		 pop	 esi

; 997  : 			}
; 998  : 		}

  00057	5d		 pop	 ebp
  00058	c2 04 00	 ret	 4
$LN4@push_back@4:

; 986  : 			++this->_Mylast;
; 987  : 			}
; 988  : 		else
; 989  : 			{	// push back a non-element
; 990  : 			if (this->_Mylast == this->_Myend)

  0005b	3b 4e 08	 cmp	 ecx, DWORD PTR [esi+8]
  0005e	75 09		 jne	 SHORT $LN1@push_back@4

; 991  : 				_Reserve(1);

  00060	6a 01		 push	 1
  00062	8b ce		 mov	 ecx, esi
  00064	e8 00 00 00 00	 call	 ?_Reserve@?$vector@UXMASMONSTER_MAP_INFO@@V?$allocator@UXMASMONSTER_MAP_INFO@@@std@@@std@@IAEXI@Z ; std::vector<XMASMONSTER_MAP_INFO,std::allocator<XMASMONSTER_MAP_INFO> >::_Reserve
$LN1@push_back@4:

; 992  : 			_Orphan_range(this->_Mylast, this->_Mylast);
; 993  : 			_Cons_val(this->_Alval,
; 994  : 				this->_Mylast,
; 995  : 				_Val);

  00069	8b 56 04	 mov	 edx, DWORD PTR [esi+4]
  0006c	57		 push	 edi
  0006d	52		 push	 edx
  0006e	8d 46 0c	 lea	 eax, DWORD PTR [esi+12]
  00071	50		 push	 eax
  00072	e8 00 00 00 00	 call	 ??$_Cons_val@V?$allocator@UXMASMONSTER_MAP_INFO@@@std@@UXMASMONSTER_MAP_INFO@@ABU3@@std@@YAXAAV?$allocator@UXMASMONSTER_MAP_INFO@@@0@PAUXMASMONSTER_MAP_INFO@@ABU2@@Z ; std::_Cons_val<std::allocator<XMASMONSTER_MAP_INFO>,XMASMONSTER_MAP_INFO,XMASMONSTER_MAP_INFO const &>
  00077	83 c4 0c	 add	 esp, 12			; 0000000cH

; 996  : 			++this->_Mylast;

  0007a	83 46 04 14	 add	 DWORD PTR [esi+4], 20	; 00000014H
  0007e	5f		 pop	 edi
  0007f	5e		 pop	 esi

; 997  : 			}
; 998  : 		}

  00080	5d		 pop	 ebp
  00081	c2 04 00	 ret	 4
?push_back@?$vector@UXMASMONSTER_MAP_INFO@@V?$allocator@UXMASMONSTER_MAP_INFO@@@std@@@std@@QAEXABUXMASMONSTER_MAP_INFO@@@Z ENDP ; std::vector<XMASMONSTER_MAP_INFO,std::allocator<XMASMONSTER_MAP_INFO> >::push_back
; Function compile flags: /Ogtp
_TEXT	ENDS
;	COMDAT ??_GCXMasAttackEvent@@UAEPAXI@Z
_TEXT	SEGMENT
___flags$ = 8						; size = 4
??_GCXMasAttackEvent@@UAEPAXI@Z PROC			; CXMasAttackEvent::`scalar deleting destructor', COMDAT
; _this$ = ecx
  00000	55		 push	 ebp
  00001	8b ec		 mov	 ebp, esp
  00003	56		 push	 esi
  00004	8b f1		 mov	 esi, ecx
  00006	e8 00 00 00 00	 call	 ??1CXMasAttackEvent@@UAE@XZ ; CXMasAttackEvent::~CXMasAttackEvent
  0000b	f6 45 08 01	 test	 BYTE PTR ___flags$[ebp], 1
  0000f	74 09		 je	 SHORT $LN4@scalar@3
  00011	56		 push	 esi
  00012	e8 00 00 00 00	 call	 ??3@YAXPAX@Z		; operator delete
  00017	83 c4 04	 add	 esp, 4
$LN4@scalar@3:
  0001a	8b c6		 mov	 eax, esi
  0001c	5e		 pop	 esi
  0001d	5d		 pop	 ebp
  0001e	c2 04 00	 ret	 4
??_GCXMasAttackEvent@@UAEPAXI@Z ENDP			; CXMasAttackEvent::`scalar deleting destructor'
_TEXT	ENDS
PUBLIC	??_C@_0CC@PEGBMCF@?$FLXMasAttackEvent?$FN?5?9?5?$CFs?5file?5load@ ; `string'
PUBLIC	__real@00000000
PUBLIC	??_C@_03JBJLGPFL@end?$AA@			; `string'
PUBLIC	??_C@_0CL@CKPDAKHI@?$FLXMasAttackEvent?$FN?5Info?5file?5Load@ ; `string'
PUBLIC	_lpszFileName$GSCopy$
PUBLIC	??_C@_01KDCPPGHE@r?$AA@				; `string'
PUBLIC	__$ArrayPad$
EXTRN	?LogAdd@@3P6AXPADZZA:DWORD			; LogAdd
EXTRN	_fclose:PROC
EXTRN	?Clear@CXMasAttackEventData@@QAEXXZ:PROC	; CXMasAttackEventData::Clear
EXTRN	?MsgBox@@YAXPADZZ:PROC				; MsgBox
EXTRN	_fopen:PROC
EXTRN	__ftol2_sse:PROC
;	COMDAT ??_C@_0CC@PEGBMCF@?$FLXMasAttackEvent?$FN?5?9?5?$CFs?5file?5load@
; File e:\work\tranet_version\gs\gameserver\xmasattackevent.cpp
CONST	SEGMENT
??_C@_0CC@PEGBMCF@?$FLXMasAttackEvent?$FN?5?9?5?$CFs?5file?5load@ DB '[XM'
	DB	'asAttackEvent] - %s file load!', 00H	; `string'
CONST	ENDS
;	COMDAT __real@00000000
CONST	SEGMENT
__real@00000000 DD 000000000r			; 0
CONST	ENDS
;	COMDAT ??_C@_03JBJLGPFL@end?$AA@
CONST	SEGMENT
??_C@_03JBJLGPFL@end?$AA@ DB 'end', 00H			; `string'
CONST	ENDS
;	COMDAT ??_C@_0CL@CKPDAKHI@?$FLXMasAttackEvent?$FN?5Info?5file?5Load@
CONST	SEGMENT
??_C@_0CL@CKPDAKHI@?$FLXMasAttackEvent?$FN?5Info?5file?5Load@ DB '[XMasAt'
	DB	'tackEvent] Info file Load Fail [%s]', 00H	; `string'
CONST	ENDS
;	COMDAT ??_C@_01KDCPPGHE@r?$AA@
CONST	SEGMENT
??_C@_01KDCPPGHE@r?$AA@ DB 'r', 00H			; `string'
; Function compile flags: /Ogtp
CONST	ENDS
;	COMDAT ?Load@CXMasAttackEvent@@UAEHPAD@Z
_TEXT	SEGMENT
_pXET$213302 = -56					; size = 8
_lpszFileName$GSCopy$ = -48				; size = 4
tv253 = -44						; size = 4
tv251 = -44						; size = 4
tv248 = -38						; size = 2
_pXMP$213308 = -36					; size = 20
_pXMD$213295 = -16					; size = 12
__$ArrayPad$ = -4					; size = 4
_lpszFileName$ = 8					; size = 4
?Load@CXMasAttackEvent@@UAEHPAD@Z PROC			; CXMasAttackEvent::Load, COMDAT
; _this$ = ecx

; 117  : {

  00000	55		 push	 ebp
  00001	8b ec		 mov	 ebp, esp
  00003	83 ec 38	 sub	 esp, 56			; 00000038H
  00006	a1 00 00 00 00	 mov	 eax, DWORD PTR ___security_cookie
  0000b	33 c5		 xor	 eax, ebp
  0000d	89 45 fc	 mov	 DWORD PTR __$ArrayPad$[ebp], eax
  00010	56		 push	 esi
  00011	8b 75 08	 mov	 esi, DWORD PTR _lpszFileName$[ebp]
  00014	57		 push	 edi

; 118  : 	SMDFile = fopen(lpszFileName, "r");

  00015	68 00 00 00 00	 push	 OFFSET ??_C@_01KDCPPGHE@r?$AA@
  0001a	56		 push	 esi
  0001b	8b f9		 mov	 edi, ecx

; 224  : 				{
; 225  : 					break;
; 226  : 				}
; 227  : 
; 228  : 				XMASMONSTER_MAP_INFO pXMP;
; 229  : 
; 230  : 				pXMP.m_btMapNumber = (BYTE)TokenNumber;

  0001d	89 75 d0	 mov	 DWORD PTR _lpszFileName$GSCopy$[ebp], esi
  00020	e8 00 00 00 00	 call	 _fopen
  00025	83 c4 08	 add	 esp, 8
  00028	a3 00 00 00 00	 mov	 DWORD PTR _SMDFile, eax
  0002d	85 c0		 test	 eax, eax
  0002f	75 22		 jne	 SHORT $LN20@Load

; 119  : 
; 120  : 	if ( SMDFile == NULL )
; 121  : 	{
; 122  : 		MsgBox("[XMasAttackEvent] Info file Load Fail [%s]", lpszFileName);

  00031	56		 push	 esi
  00032	68 00 00 00 00	 push	 OFFSET ??_C@_0CL@CKPDAKHI@?$FLXMasAttackEvent?$FN?5Info?5file?5Load@
  00037	e8 00 00 00 00	 call	 ?MsgBox@@YAXPADZZ	; MsgBox
  0003c	83 c4 08	 add	 esp, 8
  0003f	5f		 pop	 edi

; 123  : 		return FALSE;

  00040	33 c0		 xor	 eax, eax
  00042	5e		 pop	 esi

; 251  : 	this->m_bHasData = TRUE;
; 252  : 
; 253  : 	return TRUE;
; 254  : }

  00043	8b 4d fc	 mov	 ecx, DWORD PTR __$ArrayPad$[ebp]
  00046	33 cd		 xor	 ecx, ebp
  00048	e8 00 00 00 00	 call	 @__security_check_cookie@4
  0004d	8b e5		 mov	 esp, ebp
  0004f	5d		 pop	 ebp
  00050	c2 04 00	 ret	 4
$LN20@Load:

; 124  : 	}
; 125  : 
; 126  : 	this->Clear();

  00053	8b cf		 mov	 ecx, edi
  00055	e8 00 00 00 00	 call	 ?Clear@CXMasAttackEventData@@QAEXXZ ; CXMasAttackEventData::Clear

; 127  : 
; 128  : 	int Token;
; 129  : 	int type = -1;
; 130  : 
; 131  : 	while ( true )
; 132  : 	{
; 133  : 		Token = GetToken();

  0005a	e8 00 00 00 00	 call	 ?GetToken@@YA?AW4SMDToken@@XZ ; GetToken

; 134  : 
; 135  : 		if ( Token == 2 )

  0005f	83 f8 02	 cmp	 eax, 2
  00062	0f 84 38 03 00
	00		 je	 $LN36@Load
  00068	53		 push	 ebx
  00069	8d a4 24 00 00
	00 00		 npad	 7
$LL19@Load:

; 136  : 		{
; 137  : 			break;
; 138  : 		}
; 139  : 
; 140  : 		type = (int)TokenNumber;

  00070	d9 05 00 00 00
	00		 fld	 DWORD PTR _TokenNumber
  00076	e8 00 00 00 00	 call	 __ftol2_sse
  0007b	8b d8		 mov	 ebx, eax
  0007d	8d 49 00	 npad	 3
$LL16@Load:

; 141  : 
; 142  : 		while ( true )
; 143  : 		{
; 144  : 			if ( type == 0 )

  00080	85 db		 test	 ebx, ebx
  00082	0f 85 90 00 00
	00		 jne	 $LN14@Load

; 145  : 			{
; 146  : 				Token = GetToken();

  00088	e8 00 00 00 00	 call	 ?GetToken@@YA?AW4SMDToken@@XZ ; GetToken

; 147  : 
; 148  : 				if ( strcmp("end", TokenString) == 0 )

  0008d	b9 00 00 00 00	 mov	 ecx, OFFSET _TokenString
  00092	b8 00 00 00 00	 mov	 eax, OFFSET ??_C@_03JBJLGPFL@end?$AA@
$LL37@Load:
  00097	8a 10		 mov	 dl, BYTE PTR [eax]
  00099	3a 11		 cmp	 dl, BYTE PTR [ecx]
  0009b	75 1a		 jne	 SHORT $LN38@Load
  0009d	84 d2		 test	 dl, dl
  0009f	74 12		 je	 SHORT $LN39@Load
  000a1	8a 50 01	 mov	 dl, BYTE PTR [eax+1]
  000a4	3a 51 01	 cmp	 dl, BYTE PTR [ecx+1]
  000a7	75 0e		 jne	 SHORT $LN38@Load
  000a9	83 c0 02	 add	 eax, 2
  000ac	83 c1 02	 add	 ecx, 2
  000af	84 d2		 test	 dl, dl
  000b1	75 e4		 jne	 SHORT $LL37@Load
$LN39@Load:
  000b3	33 c0		 xor	 eax, eax
  000b5	eb 05		 jmp	 SHORT $LN40@Load
$LN38@Load:
  000b7	1b c0		 sbb	 eax, eax
  000b9	83 d8 ff	 sbb	 eax, -1
$LN40@Load:
  000bc	85 c0		 test	 eax, eax
  000be	0f 84 ca 02 00
	00		 je	 $LN57@Load

; 149  : 				{
; 150  : 					break;
; 151  : 				}
; 152  : 
; 153  : 				this->m_iTIME_MIN_OPEN = (int)TokenNumber * 60000; //80

  000c4	d9 05 00 00 00
	00		 fld	 DWORD PTR _TokenNumber
  000ca	e8 00 00 00 00	 call	 __ftol2_sse
  000cf	69 c0 60 ea 00
	00		 imul	 eax, 60000		; 0000ea60H
  000d5	89 87 80 00 00
	00		 mov	 DWORD PTR [edi+128], eax

; 154  : 
; 155  : 				Token = GetToken();

  000db	e8 00 00 00 00	 call	 ?GetToken@@YA?AW4SMDToken@@XZ ; GetToken

; 156  : 				this->m_iTIME_MIN_PLAY = (int)TokenNumber * 60000; //84

  000e0	d9 05 00 00 00
	00		 fld	 DWORD PTR _TokenNumber
  000e6	e8 00 00 00 00	 call	 __ftol2_sse
  000eb	69 c0 60 ea 00
	00		 imul	 eax, 60000		; 0000ea60H
  000f1	89 87 84 00 00
	00		 mov	 DWORD PTR [edi+132], eax

; 157  : 
; 158  : 				Token = GetToken();

  000f7	e8 00 00 00 00	 call	 ?GetToken@@YA?AW4SMDToken@@XZ ; GetToken

; 159  : 				this->m_iTIME_MONSTER_TO_DEST = (int)TokenNumber * 60000; //88

  000fc	d9 05 00 00 00
	00		 fld	 DWORD PTR _TokenNumber
  00102	e8 00 00 00 00	 call	 __ftol2_sse
  00107	69 c0 60 ea 00
	00		 imul	 eax, 60000		; 0000ea60H
  0010d	89 87 88 00 00
	00		 mov	 DWORD PTR [edi+136], eax
  00113	e9 68 ff ff ff	 jmp	 $LL16@Load
$LN14@Load:

; 160  : 			}
; 161  : 			else if ( type == 1 )

  00118	83 fb 01	 cmp	 ebx, 1
  0011b	75 79		 jne	 SHORT $LN11@Load

; 162  : 			{
; 163  : 				Token = GetToken();

  0011d	e8 00 00 00 00	 call	 ?GetToken@@YA?AW4SMDToken@@XZ ; GetToken

; 164  : 
; 165  : 				if ( strcmp("end", TokenString) == 0 )

  00122	b9 00 00 00 00	 mov	 ecx, OFFSET _TokenString
  00127	b8 00 00 00 00	 mov	 eax, OFFSET ??_C@_03JBJLGPFL@end?$AA@
  0012c	8d 64 24 00	 npad	 4
$LL41@Load:
  00130	8a 10		 mov	 dl, BYTE PTR [eax]
  00132	3a 11		 cmp	 dl, BYTE PTR [ecx]
  00134	75 1a		 jne	 SHORT $LN42@Load
  00136	84 d2		 test	 dl, dl
  00138	74 12		 je	 SHORT $LN43@Load
  0013a	8a 50 01	 mov	 dl, BYTE PTR [eax+1]
  0013d	3a 51 01	 cmp	 dl, BYTE PTR [ecx+1]
  00140	75 0e		 jne	 SHORT $LN42@Load
  00142	83 c0 02	 add	 eax, 2
  00145	83 c1 02	 add	 ecx, 2
  00148	84 d2		 test	 dl, dl
  0014a	75 e4		 jne	 SHORT $LL41@Load
$LN43@Load:
  0014c	33 c0		 xor	 eax, eax
  0014e	eb 05		 jmp	 SHORT $LN44@Load
$LN42@Load:
  00150	1b c0		 sbb	 eax, eax
  00152	83 d8 ff	 sbb	 eax, -1
$LN44@Load:
  00155	85 c0		 test	 eax, eax
  00157	0f 84 31 02 00
	00		 je	 $LN57@Load

; 166  : 				{
; 167  : 					break;
; 168  : 				}
; 169  : 
; 170  : 				this->m_iMOVE_RAND_SIZE = (int)TokenNumber;

  0015d	d9 05 00 00 00
	00		 fld	 DWORD PTR _TokenNumber
  00163	e8 00 00 00 00	 call	 __ftol2_sse
  00168	89 47 74	 mov	 DWORD PTR [edi+116], eax

; 171  : 
; 172  : 				Token = GetToken();

  0016b	e8 00 00 00 00	 call	 ?GetToken@@YA?AW4SMDToken@@XZ ; GetToken

; 173  : 				this->m_iRADIUS_MIN = (int)TokenNumber;

  00170	d9 05 00 00 00
	00		 fld	 DWORD PTR _TokenNumber
  00176	e8 00 00 00 00	 call	 __ftol2_sse
  0017b	89 47 78	 mov	 DWORD PTR [edi+120], eax

; 174  : 
; 175  : 				Token = GetToken();

  0017e	e8 00 00 00 00	 call	 ?GetToken@@YA?AW4SMDToken@@XZ ; GetToken

; 176  : 				this->m_iRADIUS_MAX = (int)TokenNumber;

  00183	d9 05 00 00 00
	00		 fld	 DWORD PTR _TokenNumber
  00189	e8 00 00 00 00	 call	 __ftol2_sse
  0018e	89 47 7c	 mov	 DWORD PTR [edi+124], eax
  00191	e9 ea fe ff ff	 jmp	 $LL16@Load
$LN11@Load:

; 177  : 			}
; 178  : 			else if ( type == 2 )

  00196	83 fb 02	 cmp	 ebx, 2
  00199	0f 85 b2 00 00
	00		 jne	 $LN8@Load

; 179  : 			{
; 180  : 				Token = GetToken();

  0019f	e8 00 00 00 00	 call	 ?GetToken@@YA?AW4SMDToken@@XZ ; GetToken

; 181  : 
; 182  : 				if ( strcmp("end", TokenString) == 0 )

  001a4	b9 00 00 00 00	 mov	 ecx, OFFSET _TokenString
  001a9	b8 00 00 00 00	 mov	 eax, OFFSET ??_C@_03JBJLGPFL@end?$AA@
  001ae	8b ff		 npad	 2
$LL45@Load:
  001b0	8a 10		 mov	 dl, BYTE PTR [eax]
  001b2	3a 11		 cmp	 dl, BYTE PTR [ecx]
  001b4	75 1a		 jne	 SHORT $LN46@Load
  001b6	84 d2		 test	 dl, dl
  001b8	74 12		 je	 SHORT $LN47@Load
  001ba	8a 50 01	 mov	 dl, BYTE PTR [eax+1]
  001bd	3a 51 01	 cmp	 dl, BYTE PTR [ecx+1]
  001c0	75 0e		 jne	 SHORT $LN46@Load
  001c2	83 c0 02	 add	 eax, 2
  001c5	83 c1 02	 add	 ecx, 2
  001c8	84 d2		 test	 dl, dl
  001ca	75 e4		 jne	 SHORT $LL45@Load
$LN47@Load:
  001cc	33 c0		 xor	 eax, eax
  001ce	eb 05		 jmp	 SHORT $LN48@Load
$LN46@Load:
  001d0	1b c0		 sbb	 eax, eax
  001d2	83 d8 ff	 sbb	 eax, -1
$LN48@Load:
  001d5	85 c0		 test	 eax, eax
  001d7	0f 84 b1 01 00
	00		 je	 $LN57@Load

; 183  : 				{
; 184  : 					break;
; 185  : 				}
; 186  : 
; 187  : 				XMASMONSTER_DATA pXMD;
; 188  : 
; 189  : 				pXMD.m_iType = (int)TokenNumber;

  001dd	d9 05 00 00 00
	00		 fld	 DWORD PTR _TokenNumber
  001e3	e8 00 00 00 00	 call	 __ftol2_sse
  001e8	89 45 f0	 mov	 DWORD PTR _pXMD$213295[ebp], eax

; 190  : 
; 191  : 				Token = GetToken();

  001eb	e8 00 00 00 00	 call	 ?GetToken@@YA?AW4SMDToken@@XZ ; GetToken

; 192  : 				pXMD.m_bDoRegen = (bool)TokenNumber;

  001f0	d9 05 00 00 00
	00		 fld	 DWORD PTR _TokenNumber
  001f6	d9 ee		 fldz
  001f8	da e9		 fucompp
  001fa	df e0		 fnstsw	 ax
  001fc	f6 c4 44	 test	 ah, 68			; 00000044H
  001ff	7b 04		 jnp	 SHORT $LN23@Load
  00201	b0 01		 mov	 al, 1
  00203	eb 02		 jmp	 SHORT $LN24@Load
$LN23@Load:
  00205	32 c0		 xor	 al, al
$LN24@Load:
  00207	0f b6 c0	 movzx	 eax, al
  0020a	89 45 f4	 mov	 DWORD PTR _pXMD$213295[ebp+4], eax

; 193  : 
; 194  : 				Token= GetToken();

  0020d	e8 00 00 00 00	 call	 ?GetToken@@YA?AW4SMDToken@@XZ ; GetToken

; 195  : 				pXMD.m_bDoAttackFirst = (bool)TokenNumber;

  00212	d9 05 00 00 00
	00		 fld	 DWORD PTR _TokenNumber
  00218	d9 ee		 fldz
  0021a	da e9		 fucompp
  0021c	df e0		 fnstsw	 ax
  0021e	f6 c4 44	 test	 ah, 68			; 00000044H
  00221	7b 04		 jnp	 SHORT $LN25@Load
  00223	b0 01		 mov	 al, 1
  00225	eb 02		 jmp	 SHORT $LN26@Load
$LN25@Load:
  00227	32 c0		 xor	 al, al
$LN26@Load:
  00229	0f b6 c8	 movzx	 ecx, al

; 196  : 
; 197  : 				EnterCriticalSection(&this->m_critMonsterAddData);

  0022c	8d 77 10	 lea	 esi, DWORD PTR [edi+16]
  0022f	56		 push	 esi
  00230	89 4d f8	 mov	 DWORD PTR _pXMD$213295[ebp+8], ecx
  00233	ff 15 00 00 00
	00		 call	 DWORD PTR __imp__EnterCriticalSection@4

; 198  : 				this->m_vtMonsterAddData.push_back(pXMD);

  00239	8d 55 f0	 lea	 edx, DWORD PTR _pXMD$213295[ebp]
  0023c	52		 push	 edx
  0023d	8d 4f 38	 lea	 ecx, DWORD PTR [edi+56]
  00240	e8 00 00 00 00	 call	 ?push_back@?$vector@UXMASMONSTER_DATA@@V?$allocator@UXMASMONSTER_DATA@@@std@@@std@@QAEXABUXMASMONSTER_DATA@@@Z ; std::vector<XMASMONSTER_DATA,std::allocator<XMASMONSTER_DATA> >::push_back

; 199  : 				LeaveCriticalSection(&this->m_critMonsterAddData);

  00245	56		 push	 esi
  00246	ff 15 00 00 00
	00		 call	 DWORD PTR __imp__LeaveCriticalSection@4
  0024c	e9 2f fe ff ff	 jmp	 $LL16@Load
$LN8@Load:

; 200  : 			}
; 201  : 			else if ( type == 3 )

  00251	83 fb 03	 cmp	 ebx, 3
  00254	75 6e		 jne	 SHORT $LN5@Load

; 202  : 			{
; 203  : 				Token = GetToken();

  00256	e8 00 00 00 00	 call	 ?GetToken@@YA?AW4SMDToken@@XZ ; GetToken

; 204  : 
; 205  : 				if ( strcmp("end", TokenString) == 0 )

  0025b	b9 00 00 00 00	 mov	 ecx, OFFSET _TokenString
  00260	b8 00 00 00 00	 mov	 eax, OFFSET ??_C@_03JBJLGPFL@end?$AA@
$LL49@Load:
  00265	8a 10		 mov	 dl, BYTE PTR [eax]
  00267	3a 11		 cmp	 dl, BYTE PTR [ecx]
  00269	75 1a		 jne	 SHORT $LN50@Load
  0026b	84 d2		 test	 dl, dl
  0026d	74 12		 je	 SHORT $LN51@Load
  0026f	8a 50 01	 mov	 dl, BYTE PTR [eax+1]
  00272	3a 51 01	 cmp	 dl, BYTE PTR [ecx+1]
  00275	75 0e		 jne	 SHORT $LN50@Load
  00277	83 c0 02	 add	 eax, 2
  0027a	83 c1 02	 add	 ecx, 2
  0027d	84 d2		 test	 dl, dl
  0027f	75 e4		 jne	 SHORT $LL49@Load
$LN51@Load:
  00281	33 c0		 xor	 eax, eax
  00283	eb 05		 jmp	 SHORT $LN52@Load
$LN50@Load:
  00285	1b c0		 sbb	 eax, eax
  00287	83 d8 ff	 sbb	 eax, -1
$LN52@Load:
  0028a	85 c0		 test	 eax, eax
  0028c	0f 84 fc 00 00
	00		 je	 $LN57@Load

; 206  : 				{
; 207  : 					break;
; 208  : 				}
; 209  : 
; 210  : 				XMASMONSTER_EVENT_TIME pXET;
; 211  : 
; 212  : 				pXET.m_iHour = (int)TokenNumber;

  00292	d9 05 00 00 00
	00		 fld	 DWORD PTR _TokenNumber
  00298	e8 00 00 00 00	 call	 __ftol2_sse
  0029d	89 45 c8	 mov	 DWORD PTR _pXET$213302[ebp], eax

; 213  : 
; 214  : 				Token = GetToken();

  002a0	e8 00 00 00 00	 call	 ?GetToken@@YA?AW4SMDToken@@XZ ; GetToken

; 215  : 				pXET.m_iMinute = (int)TokenNumber;

  002a5	d9 05 00 00 00
	00		 fld	 DWORD PTR _TokenNumber
  002ab	e8 00 00 00 00	 call	 __ftol2_sse
  002b0	89 45 cc	 mov	 DWORD PTR _pXET$213302[ebp+4], eax

; 216  : 
; 217  : 				this->m_vtEventTime.push_back(pXET);

  002b3	8d 45 c8	 lea	 eax, DWORD PTR _pXET$213302[ebp]
  002b6	50		 push	 eax
  002b7	8d 4f 28	 lea	 ecx, DWORD PTR [edi+40]
  002ba	e8 00 00 00 00	 call	 ?push_back@?$vector@UXMASMONSTER_EVENT_TIME@@V?$allocator@UXMASMONSTER_EVENT_TIME@@@std@@@std@@QAEXABUXMASMONSTER_EVENT_TIME@@@Z ; std::vector<XMASMONSTER_EVENT_TIME,std::allocator<XMASMONSTER_EVENT_TIME> >::push_back
  002bf	e9 bc fd ff ff	 jmp	 $LL16@Load
$LN5@Load:

; 218  : 			}
; 219  : 			else if ( type == 4 )

  002c4	83 fb 04	 cmp	 ebx, 4
  002c7	0f 85 b3 fd ff
	ff		 jne	 $LL16@Load

; 220  : 			{
; 221  : 				Token = GetToken();

  002cd	e8 00 00 00 00	 call	 ?GetToken@@YA?AW4SMDToken@@XZ ; GetToken

; 222  : 
; 223  : 				if ( strcmp("end", TokenString) == 0 )

  002d2	b9 00 00 00 00	 mov	 ecx, OFFSET _TokenString
  002d7	b8 00 00 00 00	 mov	 eax, OFFSET ??_C@_03JBJLGPFL@end?$AA@
  002dc	8d 64 24 00	 npad	 4
$LL53@Load:
  002e0	8a 10		 mov	 dl, BYTE PTR [eax]
  002e2	3a 11		 cmp	 dl, BYTE PTR [ecx]
  002e4	75 1a		 jne	 SHORT $LN54@Load
  002e6	84 d2		 test	 dl, dl
  002e8	74 12		 je	 SHORT $LN55@Load
  002ea	8a 50 01	 mov	 dl, BYTE PTR [eax+1]
  002ed	3a 51 01	 cmp	 dl, BYTE PTR [ecx+1]
  002f0	75 0e		 jne	 SHORT $LN54@Load
  002f2	83 c0 02	 add	 eax, 2
  002f5	83 c1 02	 add	 ecx, 2
  002f8	84 d2		 test	 dl, dl
  002fa	75 e4		 jne	 SHORT $LL53@Load
$LN55@Load:
  002fc	33 c0		 xor	 eax, eax
  002fe	eb 05		 jmp	 SHORT $LN56@Load
$LN54@Load:
  00300	1b c0		 sbb	 eax, eax
  00302	83 d8 ff	 sbb	 eax, -1
$LN56@Load:
  00305	85 c0		 test	 eax, eax
  00307	0f 84 81 00 00
	00		 je	 $LN57@Load

; 224  : 				{
; 225  : 					break;
; 226  : 				}
; 227  : 
; 228  : 				XMASMONSTER_MAP_INFO pXMP;
; 229  : 
; 230  : 				pXMP.m_btMapNumber = (BYTE)TokenNumber;

  0030d	d9 05 00 00 00
	00		 fld	 DWORD PTR _TokenNumber
  00313	d9 7d da	 fnstcw	 WORD PTR tv248[ebp]
  00316	0f b7 45 da	 movzx	 eax, WORD PTR tv248[ebp]
  0031a	0d 00 0c 00 00	 or	 eax, 3072		; 00000c00H
  0031f	89 45 d4	 mov	 DWORD PTR tv251[ebp], eax
  00322	d9 6d d4	 fldcw	 WORD PTR tv251[ebp]
  00325	db 5d d4	 fistp	 DWORD PTR tv253[ebp]
  00328	8a 4d d4	 mov	 cl, BYTE PTR tv253[ebp]
  0032b	88 4d dc	 mov	 BYTE PTR _pXMP$213308[ebp], cl
  0032e	d9 6d da	 fldcw	 WORD PTR tv248[ebp]

; 231  : 
; 232  : 				Token = GetToken();

  00331	e8 00 00 00 00	 call	 ?GetToken@@YA?AW4SMDToken@@XZ ; GetToken

; 233  : 				pXMP.m_iMinX = (int)TokenNumber;

  00336	d9 05 00 00 00
	00		 fld	 DWORD PTR _TokenNumber
  0033c	e8 00 00 00 00	 call	 __ftol2_sse
  00341	89 45 e0	 mov	 DWORD PTR _pXMP$213308[ebp+4], eax

; 234  : 
; 235  : 				Token = GetToken();

  00344	e8 00 00 00 00	 call	 ?GetToken@@YA?AW4SMDToken@@XZ ; GetToken

; 236  : 				pXMP.m_iMinY = (int)TokenNumber;

  00349	d9 05 00 00 00
	00		 fld	 DWORD PTR _TokenNumber
  0034f	e8 00 00 00 00	 call	 __ftol2_sse
  00354	89 45 e4	 mov	 DWORD PTR _pXMP$213308[ebp+8], eax

; 237  : 
; 238  : 				Token = GetToken();

  00357	e8 00 00 00 00	 call	 ?GetToken@@YA?AW4SMDToken@@XZ ; GetToken

; 239  : 				pXMP.m_iMaxX = (int)TokenNumber;

  0035c	d9 05 00 00 00
	00		 fld	 DWORD PTR _TokenNumber
  00362	e8 00 00 00 00	 call	 __ftol2_sse
  00367	89 45 e8	 mov	 DWORD PTR _pXMP$213308[ebp+12], eax

; 240  : 
; 241  : 				Token = GetToken();

  0036a	e8 00 00 00 00	 call	 ?GetToken@@YA?AW4SMDToken@@XZ ; GetToken

; 242  : 				pXMP.m_iMaxY = (int)TokenNumber;

  0036f	d9 05 00 00 00
	00		 fld	 DWORD PTR _TokenNumber
  00375	e8 00 00 00 00	 call	 __ftol2_sse

; 243  : 
; 244  : 				this->m_vtXMasMonsterMapInfo.push_back(pXMP);

  0037a	8d 55 dc	 lea	 edx, DWORD PTR _pXMP$213308[ebp]
  0037d	52		 push	 edx
  0037e	8d 4f 5c	 lea	 ecx, DWORD PTR [edi+92]
  00381	89 45 ec	 mov	 DWORD PTR _pXMP$213308[ebp+16], eax
  00384	e8 00 00 00 00	 call	 ?push_back@?$vector@UXMASMONSTER_MAP_INFO@@V?$allocator@UXMASMONSTER_MAP_INFO@@@std@@@std@@QAEXABUXMASMONSTER_MAP_INFO@@@Z ; std::vector<XMASMONSTER_MAP_INFO,std::allocator<XMASMONSTER_MAP_INFO> >::push_back

; 245  : 			}
; 246  : 		}

  00389	e9 f2 fc ff ff	 jmp	 $LL16@Load
$LN57@Load:

; 127  : 
; 128  : 	int Token;
; 129  : 	int type = -1;
; 130  : 
; 131  : 	while ( true )
; 132  : 	{
; 133  : 		Token = GetToken();

  0038e	e8 00 00 00 00	 call	 ?GetToken@@YA?AW4SMDToken@@XZ ; GetToken

; 134  : 
; 135  : 		if ( Token == 2 )

  00393	83 f8 02	 cmp	 eax, 2
  00396	0f 85 d4 fc ff
	ff		 jne	 $LL19@Load
  0039c	8b 75 d0	 mov	 esi, DWORD PTR _lpszFileName$GSCopy$[ebp]
  0039f	5b		 pop	 ebx
$LN36@Load:

; 247  : 	}
; 248  : 
; 249  : 	fclose(SMDFile);

  003a0	a1 00 00 00 00	 mov	 eax, DWORD PTR _SMDFile
  003a5	50		 push	 eax
  003a6	e8 00 00 00 00	 call	 _fclose

; 250  : 	LogAdd("[XMasAttackEvent] - %s file load!", lpszFileName);

  003ab	56		 push	 esi
  003ac	68 00 00 00 00	 push	 OFFSET ??_C@_0CC@PEGBMCF@?$FLXMasAttackEvent?$FN?5?9?5?$CFs?5file?5load@
  003b1	ff 15 00 00 00
	00		 call	 DWORD PTR ?LogAdd@@3P6AXPADZZA ; LogAdd

; 251  : 	this->m_bHasData = TRUE;
; 252  : 
; 253  : 	return TRUE;
; 254  : }

  003b7	8b 4d fc	 mov	 ecx, DWORD PTR __$ArrayPad$[ebp]
  003ba	83 c4 0c	 add	 esp, 12			; 0000000cH
  003bd	b8 01 00 00 00	 mov	 eax, 1
  003c2	89 47 08	 mov	 DWORD PTR [edi+8], eax
  003c5	5f		 pop	 edi
  003c6	33 cd		 xor	 ecx, ebp
  003c8	5e		 pop	 esi
  003c9	e8 00 00 00 00	 call	 @__security_check_cookie@4
  003ce	8b e5		 mov	 esp, ebp
  003d0	5d		 pop	 ebp
  003d1	c2 04 00	 ret	 4
?Load@CXMasAttackEvent@@UAEHPAD@Z ENDP			; CXMasAttackEvent::Load
_TEXT	ENDS
END
