; Listing generated by Microsoft (R) Optimizing Compiler Version 16.00.30319.01 

	TITLE	E:\work\tranet_version\GS\GameServer\ZtLicenseConfig.cpp
	.686P
	.XMM
	include listing.inc
	.model	flat

INCLUDELIB LIBCMT
INCLUDELIB OLDNAMES

PUBLIC	??_H@YGXPAXIHP6EPAX0@Z@Z			; `vector constructor iterator'
; Function compile flags: /Ogtp
;	COMDAT ??_H@YGXPAXIHP6EPAX0@Z@Z
_TEXT	SEGMENT
___t$ = 8						; size = 4
___s$ = 12						; size = 4
___n$ = 16						; size = 4
___f$ = 20						; size = 4
??_H@YGXPAXIHP6EPAX0@Z@Z PROC				; `vector constructor iterator', COMDAT
  00000	55		 push	 ebp
  00001	8b ec		 mov	 ebp, esp
  00003	57		 push	 edi
  00004	8b 7d 10	 mov	 edi, DWORD PTR ___n$[ebp]
  00007	4f		 dec	 edi
  00008	78 14		 js	 SHORT $LN1@vector
  0000a	53		 push	 ebx
  0000b	8b 5d 14	 mov	 ebx, DWORD PTR ___f$[ebp]
  0000e	56		 push	 esi
  0000f	8b 75 08	 mov	 esi, DWORD PTR ___t$[ebp]
$LL2@vector:
  00012	8b ce		 mov	 ecx, esi
  00014	ff d3		 call	 ebx
  00016	03 75 0c	 add	 esi, DWORD PTR ___s$[ebp]
  00019	4f		 dec	 edi
  0001a	79 f6		 jns	 SHORT $LL2@vector
  0001c	5e		 pop	 esi
  0001d	5b		 pop	 ebx
$LN1@vector:
  0001e	5f		 pop	 edi
  0001f	5d		 pop	 ebp
  00020	c2 10 00	 ret	 16			; 00000010H
??_H@YGXPAXIHP6EPAX0@Z@Z ENDP				; `vector constructor iterator'
_TEXT	ENDS
PUBLIC	??0CZtLicenseConfig@@QAE@XZ			; CZtLicenseConfig::CZtLicenseConfig
; Function compile flags: /Ogtp
; File e:\work\tranet_version\gs\gameserver\ztlicenseconfig.cpp
;	COMDAT ??0CZtLicenseConfig@@QAE@XZ
_TEXT	SEGMENT
??0CZtLicenseConfig@@QAE@XZ PROC			; CZtLicenseConfig::CZtLicenseConfig, COMDAT
; _this$ = ecx

; 8    : {

  00000	8b c1		 mov	 eax, ecx

; 9    : }

  00002	c3		 ret	 0
??0CZtLicenseConfig@@QAE@XZ ENDP			; CZtLicenseConfig::CZtLicenseConfig
_TEXT	ENDS
PUBLIC	??1CZtLicenseConfig@@QAE@XZ			; CZtLicenseConfig::~CZtLicenseConfig
; Function compile flags: /Ogtp
;	COMDAT ??1CZtLicenseConfig@@QAE@XZ
_TEXT	SEGMENT
??1CZtLicenseConfig@@QAE@XZ PROC			; CZtLicenseConfig::~CZtLicenseConfig, COMDAT
; _this$ = ecx

; 13   : }

  00000	c3		 ret	 0
??1CZtLicenseConfig@@QAE@XZ ENDP			; CZtLicenseConfig::~CZtLicenseConfig
_TEXT	ENDS
PUBLIC	?Load@CZtLicenseConfig@@QAEXXZ			; CZtLicenseConfig::Load
; Function compile flags: /Ogtp
;	COMDAT ?Load@CZtLicenseConfig@@QAEXXZ
_TEXT	SEGMENT
?Load@CZtLicenseConfig@@QAEXXZ PROC			; CZtLicenseConfig::Load, COMDAT
; _this$ = ecx

; 17   : 
; 18   : }

  00000	c3		 ret	 0
?Load@CZtLicenseConfig@@QAEXXZ ENDP			; CZtLicenseConfig::Load
_TEXT	ENDS
PUBLIC	?ReadMedoniAndrei@CZtLicenseConfig@@QAEXPAD@Z	; CZtLicenseConfig::ReadMedoniAndrei
; Function compile flags: /Ogtp
;	COMDAT ?ReadMedoniAndrei@CZtLicenseConfig@@QAEXPAD@Z
_TEXT	SEGMENT
_filename$ = 8						; size = 4
?ReadMedoniAndrei@CZtLicenseConfig@@QAEXPAD@Z PROC	; CZtLicenseConfig::ReadMedoniAndrei, COMDAT
; _this$ = ecx

; 22   : 
; 23   : }

  00000	c2 04 00	 ret	 4
?ReadMedoniAndrei@CZtLicenseConfig@@QAEXPAD@Z ENDP	; CZtLicenseConfig::ReadMedoniAndrei
_TEXT	ENDS
EXTRN	_atexit:PROC
; Function compile flags: /Ogtp
;	COMDAT ??__Eg_ZtLicenseConfig@@YAXXZ
text$yc	SEGMENT
??__Eg_ZtLicenseConfig@@YAXXZ PROC			; `dynamic initializer for 'g_ZtLicenseConfig'', COMDAT

; 5    : CZtLicenseConfig g_ZtLicenseConfig;

  00000	68 00 00 00 00	 push	 OFFSET ??__Fg_ZtLicenseConfig@@YAXXZ ; `dynamic atexit destructor for 'g_ZtLicenseConfig''
  00005	e8 00 00 00 00	 call	 _atexit
  0000a	59		 pop	 ecx
  0000b	c3		 ret	 0
??__Eg_ZtLicenseConfig@@YAXXZ ENDP			; `dynamic initializer for 'g_ZtLicenseConfig''
; Function compile flags: /Ogtp
text$yc	ENDS
;	COMDAT ??__Fg_ZtLicenseConfig@@YAXXZ
text$yd	SEGMENT
??__Fg_ZtLicenseConfig@@YAXXZ PROC			; `dynamic atexit destructor for 'g_ZtLicenseConfig'', COMDAT
  00000	c3		 ret	 0
??__Fg_ZtLicenseConfig@@YAXXZ ENDP			; `dynamic atexit destructor for 'g_ZtLicenseConfig''
text$yd	ENDS
PUBLIC	?g_ZtLicenseConfig@@3VCZtLicenseConfig@@A	; g_ZtLicenseConfig
_BSS	SEGMENT
?g_ZtLicenseConfig@@3VCZtLicenseConfig@@A DB 0cH DUP (?) ; g_ZtLicenseConfig
_BSS	ENDS
CRT$XCU	SEGMENT
_g_ZtLicenseConfig$initializer$ DD FLAT:??__Eg_ZtLicenseConfig@@YAXXZ
CRT$XCU	ENDS
END
