; Listing generated by Microsoft (R) Optimizing Compiler Version 16.00.30319.01 

	TITLE	E:\work\tranet_version\GS\GameServer\ZtLicense.cpp
	.686P
	.XMM
	include listing.inc
	.model	flat

INCLUDELIB LIBCMT
INCLUDELIB OLDNAMES

_DATA	SEGMENT
_g_iNpcUpDfLevel_CGATE DD 01H
	DD	02H
	DD	02dc6c0H
	DD	02H
	DD	03H
	DD	02dc6c0H
	DD	03H
	DD	04H
	DD	02dc6c0H
_g_iNpcUpDfLevel_CSTATUE DD 01H
	DD	03H
	DD	02dc6c0H
	DD	02H
	DD	05H
	DD	02dc6c0H
	DD	03H
	DD	07H
	DD	02dc6c0H
_g_iNpcUpMaxHP_CGATE DD 02625a0H
	DD	02H
	DD	0f4240H
	DD	03567e0H
	DD	03H
	DD	0f4240H
	DD	04f5880H
	DD	04H
	DD	0f4240H
_g_iNpcUpMaxHP_CSTATUE DD 02191c0H
	DD	03H
	DD	0f4240H
	DD	033e140H
	DD	05H
	DD	0f4240H
	DD	04c4b40H
	DD	07H
	DD	0f4240H
_g_iNpcUpRgLevel_CSTATUE DD 01H
	DD	03H
	DD	04c4b40H
	DD	02H
	DD	05H
	DD	04c4b40H
	DD	03H
	DD	07H
	DD	04c4b40H
_g_iCsUserReSpawnArea DD 023H
	DD	011H
	DD	090H
	DD	030H
	DD	04aH
	DD	090H
	DD	073H
	DD	09aH
	DD	023H
	DD	011H
	DD	090H
	DD	030H
_g_iNpcDefense_CGATE DD 064H
	DD	0b4H
	DD	012cH
	DD	0208H
_g_iNpcDefense_CSTATUE DD 050H
	DD	0b4H
	DD	0154H
	DD	0226H
_g_iCastleWallStepAxisY DD 071H
	DD	0a0H
	DD	0cbH
_DATA	ENDS
PUBLIC	?set@PBMSG_HEAD2@@QAEXPAEEEE@Z			; PBMSG_HEAD2::set
; Function compile flags: /Ogtp
; File e:\work\tranet_version\gs\include\prodef.h
;	COMDAT ?set@PBMSG_HEAD2@@QAEXPAEEEE@Z
_TEXT	SEGMENT
_lpBuf$ = 8						; size = 4
_head$ = 12						; size = 1
_sub$ = 16						; size = 1
_size$ = 20						; size = 1
?set@PBMSG_HEAD2@@QAEXPAEEEE@Z PROC			; PBMSG_HEAD2::set, COMDAT
; _this$ = ecx

; 104  : 	{

  00000	55		 push	 ebp
  00001	8b ec		 mov	 ebp, esp

; 105  : 		lpBuf[0] = 0xC1;

  00003	8b 45 08	 mov	 eax, DWORD PTR _lpBuf$[ebp]

; 106  : 		lpBuf[1] = size;

  00006	8a 4d 14	 mov	 cl, BYTE PTR _size$[ebp]

; 107  : 		lpBuf[2] = head;

  00009	8a 55 0c	 mov	 dl, BYTE PTR _head$[ebp]
  0000c	88 48 01	 mov	 BYTE PTR [eax+1], cl

; 108  : 		lpBuf[3] = sub;

  0000f	8a 4d 10	 mov	 cl, BYTE PTR _sub$[ebp]
  00012	c6 00 c1	 mov	 BYTE PTR [eax], 193	; 000000c1H
  00015	88 50 02	 mov	 BYTE PTR [eax+2], dl
  00018	88 48 03	 mov	 BYTE PTR [eax+3], cl

; 109  : 	};

  0001b	5d		 pop	 ebp
  0001c	c2 10 00	 ret	 16			; 00000010H
?set@PBMSG_HEAD2@@QAEXPAEEEE@Z ENDP			; PBMSG_HEAD2::set
_TEXT	ENDS
PUBLIC	??_H@YGXPAXIHP6EPAX0@Z@Z			; `vector constructor iterator'
; Function compile flags: /Ogtp
;	COMDAT ??_H@YGXPAXIHP6EPAX0@Z@Z
_TEXT	SEGMENT
___t$ = 8						; size = 4
___s$ = 12						; size = 4
___n$ = 16						; size = 4
___f$ = 20						; size = 4
??_H@YGXPAXIHP6EPAX0@Z@Z PROC				; `vector constructor iterator', COMDAT
  00000	55		 push	 ebp
  00001	8b ec		 mov	 ebp, esp
  00003	57		 push	 edi
  00004	8b 7d 10	 mov	 edi, DWORD PTR ___n$[ebp]
  00007	4f		 dec	 edi
  00008	78 14		 js	 SHORT $LN1@vector
  0000a	53		 push	 ebx
  0000b	8b 5d 14	 mov	 ebx, DWORD PTR ___f$[ebp]
  0000e	56		 push	 esi
  0000f	8b 75 08	 mov	 esi, DWORD PTR ___t$[ebp]
$LL2@vector:
  00012	8b ce		 mov	 ecx, esi
  00014	ff d3		 call	 ebx
  00016	03 75 0c	 add	 esi, DWORD PTR ___s$[ebp]
  00019	4f		 dec	 edi
  0001a	79 f6		 jns	 SHORT $LL2@vector
  0001c	5e		 pop	 esi
  0001d	5b		 pop	 ebx
$LN1@vector:
  0001e	5f		 pop	 edi
  0001f	5d		 pop	 ebp
  00020	c2 10 00	 ret	 16			; 00000010H
??_H@YGXPAXIHP6EPAX0@Z@Z ENDP				; `vector constructor iterator'
_TEXT	ENDS
PUBLIC	??0LICENSE_DATA@@QAE@XZ				; LICENSE_DATA::LICENSE_DATA
; Function compile flags: /Ogtp
; File e:\work\tranet_version\gs\gameserver\ztlicense.h
;	COMDAT ??0LICENSE_DATA@@QAE@XZ
_TEXT	SEGMENT
??0LICENSE_DATA@@QAE@XZ PROC				; LICENSE_DATA::LICENSE_DATA, COMDAT
; _this$ = ecx

; 189  : 	LICENSE_DATA()

  00000	8b c1		 mov	 eax, ecx

; 190  : 	{
; 191  : 		ZeroMemory(this->Login, sizeof(this->Login));

  00002	33 c9		 xor	 ecx, ecx
  00004	89 08		 mov	 DWORD PTR [eax], ecx
  00006	89 48 04	 mov	 DWORD PTR [eax+4], ecx
  00009	89 48 08	 mov	 DWORD PTR [eax+8], ecx
  0000c	89 48 0c	 mov	 DWORD PTR [eax+12], ecx
  0000f	89 48 10	 mov	 DWORD PTR [eax+16], ecx
  00012	89 48 14	 mov	 DWORD PTR [eax+20], ecx
  00015	88 48 18	 mov	 BYTE PTR [eax+24], cl

; 192  : 		ZeroMemory(this->Password, sizeof(this->Password));

  00018	89 48 19	 mov	 DWORD PTR [eax+25], ecx
  0001b	89 48 1d	 mov	 DWORD PTR [eax+29], ecx
  0001e	66 89 48 21	 mov	 WORD PTR [eax+33], cx

; 193  : 		ZeroMemory(this->mac, sizeof(this->mac));

  00022	89 48 28	 mov	 DWORD PTR [eax+40], ecx
  00025	89 48 2c	 mov	 DWORD PTR [eax+44], ecx
  00028	89 48 30	 mov	 DWORD PTR [eax+48], ecx
  0002b	89 48 34	 mov	 DWORD PTR [eax+52], ecx
  0002e	66 89 48 38	 mov	 WORD PTR [eax+56], cx

; 194  : 		ZeroMemory(this->ip, sizeof(this->ip));

  00032	89 48 3a	 mov	 DWORD PTR [eax+58], ecx
  00035	89 48 3e	 mov	 DWORD PTR [eax+62], ecx
  00038	89 48 42	 mov	 DWORD PTR [eax+66], ecx
  0003b	89 48 46	 mov	 DWORD PTR [eax+70], ecx

; 195  : 		this->hwid					= 0;

  0003e	89 48 24	 mov	 DWORD PTR [eax+36], ecx

; 196  : 		this->Credit				= 0;

  00041	89 48 4c	 mov	 DWORD PTR [eax+76], ecx

; 197  : 		this->Baned					= false;

  00044	89 48 50	 mov	 DWORD PTR [eax+80], ecx

; 198  : 		this->Rage					= false;
; 199  : 		this->WinQuest				= false;
; 200  : 		this->BloodHound			= false;
; 201  : 		this->MonsterQuest			= false;

  00047	89 48 54	 mov	 DWORD PTR [eax+84], ecx

; 202  : 		this->TvTEvent				= false;
; 203  : 		this->GrandHero				= false;
; 204  : 		this->PartySystem			= false;
; 205  : 		this->Brotherhood			= false;

  0004a	89 48 58	 mov	 DWORD PTR [eax+88], ecx

; 206  : 		this->PartySearch			= false;
; 207  : 		this->ChatLog				= false;
; 208  : 		this->GM_Manager			= false;
; 209  : 		this->PerosnalStoreZt		= false;

  0004d	66 89 48 5c	 mov	 WORD PTR [eax+92], cx

; 210  : 		this->PandoraEvent			= false;
; 211  : 		this->AntiCheatPlus			= false;

  00051	88 48 5e	 mov	 BYTE PTR [eax+94], cl

; 212  : 		this->ComboCustom			= false;

  00054	89 48 60	 mov	 DWORD PTR [eax+96], ecx

; 213  : 		this->NpcBuffer				= false;
; 214  : 		this->BMQuest				= false;
; 215  : 		this->LoraBattle			= false;
; 216  : 		this->Smithy				= false;

  00057	89 48 64	 mov	 DWORD PTR [eax+100], ecx

; 217  : 		this->Monster				= false;
; 218  : 		this->ItemSmokeEffect		= false;
; 219  : 		this->GrandDinamicExp       = false;
; 220  : 		this->PartySave				= false;

  0005a	89 48 68	 mov	 DWORD PTR [eax+104], ecx

; 221  : 		this->DisableMasterTree		= false;
; 222  : 		this->OfflineMode			= false;
; 223  : 		this->Marriage				= false;
; 224  : 		this->MonsterAttackLife		= false;

  0005d	89 48 6c	 mov	 DWORD PTR [eax+108], ecx

; 225  : 		this->bRankItem				= false;
; 226  : 		this->RestoreOffMode		= false;
; 227  : 		this->MapQuest				= false;
; 228  : 		this->bTeamVsTeam2			= false;

  00060	89 48 70	 mov	 DWORD PTR [eax+112], ecx

; 229  : 		this->bAchievements			= false;
; 230  : 		this->PremiumZt				= false;
; 231  : 		this->AccSecurity			= false;
; 232  : 		this->CraftQuestSystem		= false;

  00063	89 48 74	 mov	 DWORD PTR [eax+116], ecx

; 233  : 		this->PickUpItemInfo		= false;
; 234  : 		this->ReferralSystem		= false;
; 235  : 		// --
; 236  : 		this->FixVieweMonster		= false;
; 237  : 		this->CustomMapTeleport		= false;

  00066	66 89 48 78	 mov	 WORD PTR [eax+120], cx

; 238  : 		this->CustomCameraMove		= false;
; 239  : 		this->CustomMiniMapZt		= false;

  0006a	88 48 7a	 mov	 BYTE PTR [eax+122], cl

; 240  : 	}

  0006d	c3		 ret	 0
??0LICENSE_DATA@@QAE@XZ ENDP				; LICENSE_DATA::LICENSE_DATA
_TEXT	ENDS
PUBLIC	??0CUSTOM_CONFIG@@QAE@XZ			; CUSTOM_CONFIG::CUSTOM_CONFIG
; Function compile flags: /Ogtp
;	COMDAT ??0CUSTOM_CONFIG@@QAE@XZ
_TEXT	SEGMENT
??0CUSTOM_CONFIG@@QAE@XZ PROC				; CUSTOM_CONFIG::CUSTOM_CONFIG, COMDAT
; _this$ = ecx

; 250  : 	CUSTOM_CONFIG()

  00000	8b c1		 mov	 eax, ecx

; 251  : 	{
; 252  : 		this->MaxPartyUser = 5;
; 253  : 		this->PersonalEnable = false;

  00002	32 c9		 xor	 cl, cl
  00004	c7 00 05 00 00
	00		 mov	 DWORD PTR [eax], 5

; 254  : 		this->PersonalBonus = false;
; 255  : 		this->Gens = false;
; 256  : 		this->PersonalCredit = false;

  0000a	88 48 04	 mov	 BYTE PTR [eax+4], cl

; 257  : 	}

  0000d	c3		 ret	 0
??0CUSTOM_CONFIG@@QAE@XZ ENDP				; CUSTOM_CONFIG::CUSTOM_CONFIG
_TEXT	ENDS
PUBLIC	??1CZtLicense@@QAE@XZ				; CZtLicense::~CZtLicense
; Function compile flags: /Ogtp
; File e:\work\tranet_version\gs\gameserver\ztlicense.cpp
;	COMDAT ??1CZtLicense@@QAE@XZ
_TEXT	SEGMENT
??1CZtLicense@@QAE@XZ PROC				; CZtLicense::~CZtLicense, COMDAT
; _this$ = ecx

; 24   : }

  00000	c3		 ret	 0
??1CZtLicense@@QAE@XZ ENDP				; CZtLicense::~CZtLicense
_TEXT	ENDS
PUBLIC	?Init@CZtLicense@@QAEXXZ			; CZtLicense::Init
EXTRN	_memset:PROC
; Function compile flags: /Ogtp
;	COMDAT ?Init@CZtLicense@@QAEXXZ
_TEXT	SEGMENT
?Init@CZtLicense@@QAEXXZ PROC				; CZtLicense::Init, COMDAT
; _this$ = ecx

; 27   : {

  00000	53		 push	 ebx
  00001	56		 push	 esi
  00002	8b f1		 mov	 esi, ecx

; 28   : 	VMBEGIN
; 29   : 	this->m_Enable = true;
; 30   : 	this->ActiveUser = -1;
; 31   : 	this->Exit = false;

  00004	33 db		 xor	 ebx, ebx

; 32   : 	this->ExitTime = 0;
; 33   : 	this->NewVersion = false;
; 34   : 	this->DrawVersion = false;
; 35   : 	this->m_WaitLicense = false;
; 36   : 	ZeroMemory(this->VersionNum,sizeof(this->VersionNum));

  00006	6a 32		 push	 50			; 00000032H
  00008	8d 46 12	 lea	 eax, DWORD PTR [esi+18]
  0000b	53		 push	 ebx
  0000c	50		 push	 eax
  0000d	c7 46 04 ff ff
	ff ff		 mov	 DWORD PTR [esi+4], -1
  00014	88 5e 08	 mov	 BYTE PTR [esi+8], bl
  00017	89 5e 0c	 mov	 DWORD PTR [esi+12], ebx
  0001a	66 89 5e 10	 mov	 WORD PTR [esi+16], bx
  0001e	66 c7 06 00 01	 mov	 WORD PTR [esi], 256	; 00000100H
  00023	e8 00 00 00 00	 call	 _memset

; 37   : 	ZeroMemory(this->VersionDate,sizeof(this->VersionDate));

  00028	6a 32		 push	 50			; 00000032H
  0002a	8d 4e 44	 lea	 ecx, DWORD PTR [esi+68]
  0002d	53		 push	 ebx
  0002e	51		 push	 ecx
  0002f	e8 00 00 00 00	 call	 _memset
  00034	83 c4 18	 add	 esp, 24			; 00000018H

; 38   : 	this->TextXoR[0] = 0x03;
; 39   : 	this->TextXoR[1] = 0x05;
; 40   : 	this->TextXoR[2] = 0x08;
; 41   : 	#if(CUSTOM_VALUE_MENU)
; 42   : 	this->m_MultiWarehouseType = 0;

  00037	89 9e d8 61 00
	00		 mov	 DWORD PTR [esi+25048], ebx

; 43   : 	#endif
; 44   : 	VMEND
; 45   : 	this->m_SetCustom = 0;

  0003d	89 9e dc 61 00
	00		 mov	 DWORD PTR [esi+25052], ebx
  00043	66 c7 46 76 03
	05		 mov	 WORD PTR [esi+118], 1283 ; 00000503H
  00049	c6 46 78 08	 mov	 BYTE PTR [esi+120], 8
  0004d	5e		 pop	 esi
  0004e	5b		 pop	 ebx

; 46   : }

  0004f	c3		 ret	 0
?Init@CZtLicense@@QAEXXZ ENDP				; CZtLicense::Init
_TEXT	ENDS
PUBLIC	??_C@_0M@NCCPJIG@SaksonPavel?$AA@		; `string'
PUBLIC	??_C@_0BC@GFGBAENL@A4?989?9F2?95D?90D?915?$AA@	; `string'
PUBLIC	??_C@_05GGLNDIKE@MU_GE?$AA@			; `string'
PUBLIC	??_C@_08NNIJEPM@AsteraMU?$AA@			; `string'
PUBLIC	??_C@_0BC@JIEJCOCC@BA?9AE?951?932?980?91F?$AA@	; `string'
PUBLIC	??_C@_07LNMBDGHP@FlameMu?$AA@			; `string'
PUBLIC	??_C@_0BC@GAPDFBPJ@00?950?956?9A2?915?926?$AA@	; `string'
PUBLIC	??_C@_07DFOIFCFH@NoriaMU?$AA@			; `string'
PUBLIC	??_C@_0BC@DCJEECGM@00?916?93C?967?93E?905?$AA@	; `string'
PUBLIC	??_C@_0L@NFKFDAJJ@Jeancarlos?$AA@		; `string'
PUBLIC	??_C@_08FGNNLNME@MuInsane?$AA@			; `string'
PUBLIC	??_C@_0BC@IELACNEE@F7?92D?98E?9C4?94B?9F4?$AA@	; `string'
PUBLIC	??_C@_0L@EHBHGJLF@InfinityMU?$AA@		; `string'
PUBLIC	??_C@_0BC@DPDABOOF@00?90C?929?9FF?9E9?92E?$AA@	; `string'
PUBLIC	??_C@_0L@JCADJBBO@Thinnakorn?$AA@		; `string'
PUBLIC	??_C@_0BC@GICJPDOM@00?915?95D?909?9A4?90F?$AA@	; `string'
PUBLIC	??_C@_06KHKEJHKK@Berlin?$AA@			; `string'
PUBLIC	??_C@_0BC@BBHPJGIB@F7?910?916?9F6?956?99F?$AA@	; `string'
PUBLIC	??_C@_07HCCMMGG@MuPrime?$AA@			; `string'
PUBLIC	??_C@_0BC@NLMEJJCF@00?950?956?922?901?901?$AA@	; `string'
PUBLIC	??_C@_06KGEOPGEL@jammal?$AA@			; `string'
PUBLIC	??_C@_06MLKEBGBC@Atomic?$AA@			; `string'
PUBLIC	??_C@_0BC@LCOECIMM@02?900?900?932?98C?9B8?$AA@	; `string'
PUBLIC	??_C@_06NMFJNBC@Jancis?$AA@			; `string'
PUBLIC	??_C@_0BC@GHENKIJN@00?915?913?92D?9A2?952?$AA@	; `string'
PUBLIC	??_C@_06OHBJBNDA@Chebuk?$AA@			; `string'
PUBLIC	??_C@_0BC@GFOEBPGL@24?94B?9FE?97B?909?9F9?$AA@	; `string'
PUBLIC	??_C@_08MMBGDFBG@MUCustom?$AA@			; `string'
PUBLIC	??_C@_0BC@ICIAIPAL@00?915?95D?9AC?928?910?$AA@	; `string'
PUBLIC	??_C@_05JNFLGIEA@FoxMU?$AA@			; `string'
PUBLIC	??_C@_05COAHBPIE@MUDev?$AA@			; `string'
PUBLIC	??_C@_07DDNDCNCE@FinalMU?$AA@			; `string'
PUBLIC	??_C@_0BC@MJGDIIP@00?915?95D?905?984?9FA?$AA@	; `string'
PUBLIC	??_C@_07IBLKGLGK@NSGames?$AA@			; `string'
PUBLIC	??_C@_0BC@MFOBODIL@02?90E?95D?900?93E?958?$AA@	; `string'
PUBLIC	??_C@_07EDGICHLJ@WarBorn?$AA@			; `string'
PUBLIC	??_C@_0BC@FFBKPL@00?915?95D?905?962?989?$AA@	; `string'
PUBLIC	??_C@_09JABDAIBF@eternalmu?$AA@			; `string'
PUBLIC	??_C@_0BC@HFJPNNME@02?90E?95D?900?93E?94F?$AA@	; `string'
PUBLIC	??_C@_06IAEIGBCI@mu4you?$AA@			; `string'
PUBLIC	??_C@_0BC@JBPNBCHA@02?911?95D?900?96B?9C4?$AA@	; `string'
PUBLIC	??_C@_05GBKOADG@MegaM?$AA@			; `string'
PUBLIC	??_C@_0M@JAOCFDKO@UpdateDebug?$AA@		; `string'
PUBLIC	??_C@_0N@HBPLJJOE@ProtectDebug?$AA@		; `string'
PUBLIC	??_C@_07JLEKCBMA@HomeLan?$AA@			; `string'
PUBLIC	??_C@_0BC@PDOAKHIO@02?912?95D?900?945?9DF?$AA@	; `string'
PUBLIC	??_C@_08GLLNHAIO@muheroia?$AA@			; `string'
PUBLIC	??_C@_0BC@PNPLLFGH@A4?9BF?901?923?98E?9D3?$AA@	; `string'
PUBLIC	??_C@_05KLCPPPH@ArcMu?$AA@			; `string'
PUBLIC	??_C@_07POKHNJJH@MuRelic?$AA@			; `string'
PUBLIC	??_C@_07CGJKJLEH@GloryMU?$AA@			; `string'
PUBLIC	??_C@_0BC@NDFIENCO@A6?9A1?904?98F?97C?9F2?$AA@	; `string'
PUBLIC	??_C@_0BC@KDCDCIGI@97?967?923?965?95A?90A?$AA@	; `string'
PUBLIC	??_C@_06FFKGKCBJ@DrXAOS?$AA@			; `string'
PUBLIC	??_C@_0BC@GMOMIGMA@02?905?95D?9CD?904?973?$AA@	; `string'
PUBLIC	??_C@_06CELJADEO@RevoMU?$AA@			; `string'
PUBLIC	??_C@_0BC@IGAMMAKI@00?901?95D?9D7?904?9C1?$AA@	; `string'
PUBLIC	??_C@_08MLNFFKLL@TGBA_LLC?$AA@			; `string'
PUBLIC	??_C@_0BC@MMDNDOFE@00?915?95D?91E?917?905?$AA@	; `string'
PUBLIC	??_C@_0P@NNDEBNIG@RafaelLorenzet?$AA@		; `string'
PUBLIC	??_C@_0BC@NGKMICPN@02?912?95D?900?945?990?$AA@	; `string'
PUBLIC	??_C@_08ECPAOEKJ@Escalate?$AA@			; `string'
PUBLIC	??_C@_0BC@CFLFIKCB@74?9D4?935?9FE?9B7?924?$AA@	; `string'
PUBLIC	??_C@_07NCLLHBFE@Almdar2?$AA@			; `string'
PUBLIC	??_C@_0BC@DHOALJDL@02?927?9D6?900?902?90D?$AA@	; `string'
PUBLIC	??_C@_07IMCFKMAL@AlterMU?$AA@			; `string'
PUBLIC	??_C@_0BC@NILJJNGM@00?950?956?904?983?904?$AA@	; `string'
PUBLIC	??_C@_0M@DGODHKFP@MatiasLeiva?$AA@		; `string'
PUBLIC	??_C@_06KGEGJNGH@masonX?$AA@			; `string'
PUBLIC	??_C@_0BC@IGHPDPED@00?915?95D?900?9F1?99E?$AA@	; `string'
PUBLIC	??_C@_06HNLNINMN@EpicMU?$AA@			; `string'
PUBLIC	??_C@_0BC@CJOLMMDO@00?90C?929?9A1?90B?93E?$AA@	; `string'
PUBLIC	??_C@_0L@BEJPBOMJ@thinnakorn?$AA@		; `string'
PUBLIC	??_C@_06HOCDPIKG@Almdar?$AA@			; `string'
PUBLIC	??_C@_08EJJHPIDO@Sentinel?$AA@			; `string'
PUBLIC	??_C@_0BC@FNJBNPPL@02?900?900?938?940?923?$AA@	; `string'
PUBLIC	??_C@_05PBPDPMJH@Stone?$AA@			; `string'
PUBLIC	??_C@_07OOBBHDME@MU2Play?$AA@			; `string'
PUBLIC	??_C@_0O@IFBPLBBM@bassreflexive?$AA@		; `string'
PUBLIC	??_C@_07BHGJDKOF@Eduardo?$AA@			; `string'
PUBLIC	??_C@_0BC@LMHCKMCN@A9?940?937?9E5?91B?98D?$AA@	; `string'
PUBLIC	??_C@_0N@KGBKHIAJ@MedoniAndrei?$AA@		; `string'
PUBLIC	??_C@_06GLNALPLK@Artem2?$AA@			; `string'
PUBLIC	??_C@_0BC@PLNCIHJC@D5?9C5?9AC?9A8?9EF?9C1?$AA@	; `string'
PUBLIC	??_C@_05HDDJBPNA@Artem?$AA@			; `string'
PUBLIC	??_C@_0BC@PIGEOJDP@0C?98B?9FD?9E3?998?905?$AA@	; `string'
PUBLIC	??_C@_04INGAGJAF@DICE?$AA@			; `string'
PUBLIC	??_C@_0N@DLCGCAMJ@MMProduction?$AA@		; `string'
PUBLIC	??_C@_06IDJMJNGD@Matias?$AA@			; `string'
PUBLIC	??_C@_0N@BNPEMOPD@SILVER_Local?$AA@		; `string'
PUBLIC	??_C@_0N@HJACENNP@maksim844495?$AA@		; `string'
PUBLIC	??_C@_07CPNOKJCH@Emanuel?$AA@			; `string'
PUBLIC	??_C@_0BB@LLHDAOFG@ConflictNoCustom?$AA@	; `string'
PUBLIC	??_C@_08OBJGEGGG@NoCustom?$AA@			; `string'
PUBLIC	??_C@_0L@GGEJJKBH@Selfmylife?$AA@		; `string'
PUBLIC	??_C@_0L@KLOBFJGO@ulasevich2?$AA@		; `string'
PUBLIC	??_C@_06FEDJGBKC@Pavel2?$AA@			; `string'
PUBLIC	??_C@_06PGBDFIHL@Gredy2?$AA@			; `string'
PUBLIC	??_C@_0L@GICEBPFC@GredyLocal?$AA@		; `string'
PUBLIC	??_C@_05GCKJHBFF@Gredy?$AA@			; `string'
PUBLIC	??_C@_08HKCMCAEE@testuser?$AA@			; `string'
PUBLIC	??_C@_06JGINLIFN@snaker?$AA@			; `string'
PUBLIC	??_C@_06PADEEIIM@Local3?$AA@			; `string'
PUBLIC	??_C@_06PBFOFDJF@lexbzk?$AA@			; `string'
PUBLIC	??_C@_0N@BCOPIGFB@PrideMuLocal?$AA@		; `string'
PUBLIC	??_C@_0P@KIIPBKHG@DavitRazmadze3?$AA@		; `string'
PUBLIC	??_C@_0P@LBJECLDH@DavitRazmadze2?$AA@		; `string'
PUBLIC	??_C@_06OJCPHJMN@Local2?$AA@			; `string'
PUBLIC	??_C@_0BC@LEDNONFN@00?925?922?9C2?9E0?9AF?$AA@	; `string'
PUBLIC	??_C@_09PILDGGKP@ulasevich?$AA@			; `string'
PUBLIC	??_C@_07GAMONHNE@Vadim_2?$AA@			; `string'
PUBLIC	??_C@_08FBDBDCDG@zerocool?$AA@			; `string'
PUBLIC	??_C@_07GKBNPIPP@Gints_2?$AA@			; `string'
PUBLIC	??_C@_09NJLHKBKI@Semushkin?$AA@			; `string'
PUBLIC	??_C@_0L@FHOCBAOK@Cherkashin?$AA@		; `string'
PUBLIC	??_C@_07NBLHAJFM@PrideMu?$AA@			; `string'
PUBLIC	??_C@_05CPOBNKHG@Pavel?$AA@			; `string'
PUBLIC	??_C@_06KMNNACKD@Encode?$AA@			; `string'
PUBLIC	??_C@_07NIDCDHPH@Daboy_2?$AA@			; `string'
PUBLIC	??_C@_07PDBPGEDE@Daboy_1?$AA@			; `string'
PUBLIC	??_C@_05FBEJNIK@spoke?$AA@			; `string'
PUBLIC	??_C@_06BBKAJNHI@lemiks?$AA@			; `string'
PUBLIC	??_C@_0BC@NHPIBCIJ@84?960?909?9A6?910?919?$AA@	; `string'
PUBLIC	??_C@_0O@FHBFECLL@DavitRazmadze?$AA@		; `string'
PUBLIC	??_C@_05BDKJGOFK@Vadim?$AA@			; `string'
PUBLIC	??_C@_0BC@CHNPGBIK@00?90C?929?958?901?90E?$AA@	; `string'
PUBLIC	??_C@_07HBKMBCMF@SILVER2?$AA@			; `string'
PUBLIC	??_C@_0BC@EMFFMCGP@00?90C?929?910?9D9?981?$AA@	; `string'
PUBLIC	??_C@_07FKIBEBAG@SILVER1?$AA@			; `string'
PUBLIC	??_C@_0N@OCAFKJBG@MarksSevcuks?$AA@		; `string'
PUBLIC	??_C@_07GAFEABAB@SaneaMD?$AA@			; `string'
PUBLIC	??_C@_05EEFBBLDN@Gints?$AA@			; `string'
PUBLIC	??_C@_07INILDEMJ@ztgames?$AA@			; `string'
PUBLIC	??_C@_06EGEBLFBO@drynea?$AA@			; `string'
PUBLIC	?AddList@CZtLicense@@QAEXXZ			; CZtLicense::AddList
;	COMDAT ??_C@_0M@NCCPJIG@SaksonPavel?$AA@
CONST	SEGMENT
??_C@_0M@NCCPJIG@SaksonPavel?$AA@ DB 'SaksonPavel', 00H	; `string'
CONST	ENDS
;	COMDAT ??_C@_0BC@GFGBAENL@A4?989?9F2?95D?90D?915?$AA@
CONST	SEGMENT
??_C@_0BC@GFGBAENL@A4?989?9F2?95D?90D?915?$AA@ DB 'A4-89-F2-5D-0D-15', 00H ; `string'
CONST	ENDS
;	COMDAT ??_C@_05GGLNDIKE@MU_GE?$AA@
CONST	SEGMENT
??_C@_05GGLNDIKE@MU_GE?$AA@ DB 'MU_GE', 00H		; `string'
CONST	ENDS
;	COMDAT ??_C@_08NNIJEPM@AsteraMU?$AA@
CONST	SEGMENT
??_C@_08NNIJEPM@AsteraMU?$AA@ DB 'AsteraMU', 00H	; `string'
CONST	ENDS
;	COMDAT ??_C@_0BC@JIEJCOCC@BA?9AE?951?932?980?91F?$AA@
CONST	SEGMENT
??_C@_0BC@JIEJCOCC@BA?9AE?951?932?980?91F?$AA@ DB 'BA-AE-51-32-80-1F', 00H ; `string'
CONST	ENDS
;	COMDAT ??_C@_07LNMBDGHP@FlameMu?$AA@
CONST	SEGMENT
??_C@_07LNMBDGHP@FlameMu?$AA@ DB 'FlameMu', 00H		; `string'
CONST	ENDS
;	COMDAT ??_C@_0BC@GAPDFBPJ@00?950?956?9A2?915?926?$AA@
CONST	SEGMENT
??_C@_0BC@GAPDFBPJ@00?950?956?9A2?915?926?$AA@ DB '00-50-56-A2-15-26', 00H ; `string'
CONST	ENDS
;	COMDAT ??_C@_07DFOIFCFH@NoriaMU?$AA@
CONST	SEGMENT
??_C@_07DFOIFCFH@NoriaMU?$AA@ DB 'NoriaMU', 00H		; `string'
CONST	ENDS
;	COMDAT ??_C@_0BC@DCJEECGM@00?916?93C?967?93E?905?$AA@
CONST	SEGMENT
??_C@_0BC@DCJEECGM@00?916?93C?967?93E?905?$AA@ DB '00-16-3C-67-3E-05', 00H ; `string'
CONST	ENDS
;	COMDAT ??_C@_0L@NFKFDAJJ@Jeancarlos?$AA@
CONST	SEGMENT
??_C@_0L@NFKFDAJJ@Jeancarlos?$AA@ DB 'Jeancarlos', 00H	; `string'
CONST	ENDS
;	COMDAT ??_C@_08FGNNLNME@MuInsane?$AA@
CONST	SEGMENT
??_C@_08FGNNLNME@MuInsane?$AA@ DB 'MuInsane', 00H	; `string'
CONST	ENDS
;	COMDAT ??_C@_0BC@IELACNEE@F7?92D?98E?9C4?94B?9F4?$AA@
CONST	SEGMENT
??_C@_0BC@IELACNEE@F7?92D?98E?9C4?94B?9F4?$AA@ DB 'F7-2D-8E-C4-4B-F4', 00H ; `string'
CONST	ENDS
;	COMDAT ??_C@_0L@EHBHGJLF@InfinityMU?$AA@
CONST	SEGMENT
??_C@_0L@EHBHGJLF@InfinityMU?$AA@ DB 'InfinityMU', 00H	; `string'
CONST	ENDS
;	COMDAT ??_C@_0BC@DPDABOOF@00?90C?929?9FF?9E9?92E?$AA@
CONST	SEGMENT
??_C@_0BC@DPDABOOF@00?90C?929?9FF?9E9?92E?$AA@ DB '00-0C-29-FF-E9-2E', 00H ; `string'
CONST	ENDS
;	COMDAT ??_C@_0L@JCADJBBO@Thinnakorn?$AA@
CONST	SEGMENT
??_C@_0L@JCADJBBO@Thinnakorn?$AA@ DB 'Thinnakorn', 00H	; `string'
CONST	ENDS
;	COMDAT ??_C@_0BC@GICJPDOM@00?915?95D?909?9A4?90F?$AA@
CONST	SEGMENT
??_C@_0BC@GICJPDOM@00?915?95D?909?9A4?90F?$AA@ DB '00-15-5D-09-A4-0F', 00H ; `string'
CONST	ENDS
;	COMDAT ??_C@_06KHKEJHKK@Berlin?$AA@
CONST	SEGMENT
??_C@_06KHKEJHKK@Berlin?$AA@ DB 'Berlin', 00H		; `string'
CONST	ENDS
;	COMDAT ??_C@_0BC@BBHPJGIB@F7?910?916?9F6?956?99F?$AA@
CONST	SEGMENT
??_C@_0BC@BBHPJGIB@F7?910?916?9F6?956?99F?$AA@ DB 'F7-10-16-F6-56-9F', 00H ; `string'
CONST	ENDS
;	COMDAT ??_C@_07HCCMMGG@MuPrime?$AA@
CONST	SEGMENT
??_C@_07HCCMMGG@MuPrime?$AA@ DB 'MuPrime', 00H		; `string'
CONST	ENDS
;	COMDAT ??_C@_0BC@NLMEJJCF@00?950?956?922?901?901?$AA@
CONST	SEGMENT
??_C@_0BC@NLMEJJCF@00?950?956?922?901?901?$AA@ DB '00-50-56-22-01-01', 00H ; `string'
CONST	ENDS
;	COMDAT ??_C@_06KGEOPGEL@jammal?$AA@
CONST	SEGMENT
??_C@_06KGEOPGEL@jammal?$AA@ DB 'jammal', 00H		; `string'
CONST	ENDS
;	COMDAT ??_C@_06MLKEBGBC@Atomic?$AA@
CONST	SEGMENT
??_C@_06MLKEBGBC@Atomic?$AA@ DB 'Atomic', 00H		; `string'
CONST	ENDS
;	COMDAT ??_C@_0BC@LCOECIMM@02?900?900?932?98C?9B8?$AA@
CONST	SEGMENT
??_C@_0BC@LCOECIMM@02?900?900?932?98C?9B8?$AA@ DB '02-00-00-32-8C-B8', 00H ; `string'
CONST	ENDS
;	COMDAT ??_C@_06NMFJNBC@Jancis?$AA@
CONST	SEGMENT
??_C@_06NMFJNBC@Jancis?$AA@ DB 'Jancis', 00H		; `string'
CONST	ENDS
;	COMDAT ??_C@_0BC@GHENKIJN@00?915?913?92D?9A2?952?$AA@
CONST	SEGMENT
??_C@_0BC@GHENKIJN@00?915?913?92D?9A2?952?$AA@ DB '00-15-13-2D-A2-52', 00H ; `string'
CONST	ENDS
;	COMDAT ??_C@_06OHBJBNDA@Chebuk?$AA@
CONST	SEGMENT
??_C@_06OHBJBNDA@Chebuk?$AA@ DB 'Chebuk', 00H		; `string'
CONST	ENDS
;	COMDAT ??_C@_0BC@GFOEBPGL@24?94B?9FE?97B?909?9F9?$AA@
CONST	SEGMENT
??_C@_0BC@GFOEBPGL@24?94B?9FE?97B?909?9F9?$AA@ DB '24-4B-FE-7B-09-F9', 00H ; `string'
CONST	ENDS
;	COMDAT ??_C@_08MMBGDFBG@MUCustom?$AA@
CONST	SEGMENT
??_C@_08MMBGDFBG@MUCustom?$AA@ DB 'MUCustom', 00H	; `string'
CONST	ENDS
;	COMDAT ??_C@_0BC@ICIAIPAL@00?915?95D?9AC?928?910?$AA@
CONST	SEGMENT
??_C@_0BC@ICIAIPAL@00?915?95D?9AC?928?910?$AA@ DB '00-15-5D-AC-28-10', 00H ; `string'
CONST	ENDS
;	COMDAT ??_C@_05JNFLGIEA@FoxMU?$AA@
CONST	SEGMENT
??_C@_05JNFLGIEA@FoxMU?$AA@ DB 'FoxMU', 00H		; `string'
CONST	ENDS
;	COMDAT ??_C@_05COAHBPIE@MUDev?$AA@
CONST	SEGMENT
??_C@_05COAHBPIE@MUDev?$AA@ DB 'MUDev', 00H		; `string'
CONST	ENDS
;	COMDAT ??_C@_07DDNDCNCE@FinalMU?$AA@
CONST	SEGMENT
??_C@_07DDNDCNCE@FinalMU?$AA@ DB 'FinalMU', 00H		; `string'
CONST	ENDS
;	COMDAT ??_C@_0BC@MJGDIIP@00?915?95D?905?984?9FA?$AA@
CONST	SEGMENT
??_C@_0BC@MJGDIIP@00?915?95D?905?984?9FA?$AA@ DB '00-15-5D-05-84-FA', 00H ; `string'
CONST	ENDS
;	COMDAT ??_C@_07IBLKGLGK@NSGames?$AA@
CONST	SEGMENT
??_C@_07IBLKGLGK@NSGames?$AA@ DB 'NSGames', 00H		; `string'
CONST	ENDS
;	COMDAT ??_C@_0BC@MFOBODIL@02?90E?95D?900?93E?958?$AA@
CONST	SEGMENT
??_C@_0BC@MFOBODIL@02?90E?95D?900?93E?958?$AA@ DB '02-0E-5D-00-3E-58', 00H ; `string'
CONST	ENDS
;	COMDAT ??_C@_07EDGICHLJ@WarBorn?$AA@
CONST	SEGMENT
??_C@_07EDGICHLJ@WarBorn?$AA@ DB 'WarBorn', 00H		; `string'
CONST	ENDS
;	COMDAT ??_C@_0BC@FFBKPL@00?915?95D?905?962?989?$AA@
CONST	SEGMENT
??_C@_0BC@FFBKPL@00?915?95D?905?962?989?$AA@ DB '00-15-5D-05-62-89', 00H ; `string'
CONST	ENDS
;	COMDAT ??_C@_09JABDAIBF@eternalmu?$AA@
CONST	SEGMENT
??_C@_09JABDAIBF@eternalmu?$AA@ DB 'eternalmu', 00H	; `string'
CONST	ENDS
;	COMDAT ??_C@_0BC@HFJPNNME@02?90E?95D?900?93E?94F?$AA@
CONST	SEGMENT
??_C@_0BC@HFJPNNME@02?90E?95D?900?93E?94F?$AA@ DB '02-0E-5D-00-3E-4F', 00H ; `string'
CONST	ENDS
;	COMDAT ??_C@_06IAEIGBCI@mu4you?$AA@
CONST	SEGMENT
??_C@_06IAEIGBCI@mu4you?$AA@ DB 'mu4you', 00H		; `string'
CONST	ENDS
;	COMDAT ??_C@_0BC@JBPNBCHA@02?911?95D?900?96B?9C4?$AA@
CONST	SEGMENT
??_C@_0BC@JBPNBCHA@02?911?95D?900?96B?9C4?$AA@ DB '02-11-5D-00-6B-C4', 00H ; `string'
CONST	ENDS
;	COMDAT ??_C@_05GBKOADG@MegaM?$AA@
CONST	SEGMENT
??_C@_05GBKOADG@MegaM?$AA@ DB 'MegaM', 00H		; `string'
CONST	ENDS
;	COMDAT ??_C@_0M@JAOCFDKO@UpdateDebug?$AA@
CONST	SEGMENT
??_C@_0M@JAOCFDKO@UpdateDebug?$AA@ DB 'UpdateDebug', 00H ; `string'
CONST	ENDS
;	COMDAT ??_C@_0N@HBPLJJOE@ProtectDebug?$AA@
CONST	SEGMENT
??_C@_0N@HBPLJJOE@ProtectDebug?$AA@ DB 'ProtectDebug', 00H ; `string'
CONST	ENDS
;	COMDAT ??_C@_07JLEKCBMA@HomeLan?$AA@
CONST	SEGMENT
??_C@_07JLEKCBMA@HomeLan?$AA@ DB 'HomeLan', 00H		; `string'
CONST	ENDS
;	COMDAT ??_C@_0BC@PDOAKHIO@02?912?95D?900?945?9DF?$AA@
CONST	SEGMENT
??_C@_0BC@PDOAKHIO@02?912?95D?900?945?9DF?$AA@ DB '02-12-5D-00-45-DF', 00H ; `string'
CONST	ENDS
;	COMDAT ??_C@_08GLLNHAIO@muheroia?$AA@
CONST	SEGMENT
??_C@_08GLLNHAIO@muheroia?$AA@ DB 'muheroia', 00H	; `string'
CONST	ENDS
;	COMDAT ??_C@_0BC@PNPLLFGH@A4?9BF?901?923?98E?9D3?$AA@
CONST	SEGMENT
??_C@_0BC@PNPLLFGH@A4?9BF?901?923?98E?9D3?$AA@ DB 'A4-BF-01-23-8E-D3', 00H ; `string'
CONST	ENDS
;	COMDAT ??_C@_05KLCPPPH@ArcMu?$AA@
CONST	SEGMENT
??_C@_05KLCPPPH@ArcMu?$AA@ DB 'ArcMu', 00H		; `string'
CONST	ENDS
;	COMDAT ??_C@_07POKHNJJH@MuRelic?$AA@
CONST	SEGMENT
??_C@_07POKHNJJH@MuRelic?$AA@ DB 'MuRelic', 00H		; `string'
CONST	ENDS
;	COMDAT ??_C@_07CGJKJLEH@GloryMU?$AA@
CONST	SEGMENT
??_C@_07CGJKJLEH@GloryMU?$AA@ DB 'GloryMU', 00H		; `string'
CONST	ENDS
;	COMDAT ??_C@_0BC@NDFIENCO@A6?9A1?904?98F?97C?9F2?$AA@
CONST	SEGMENT
??_C@_0BC@NDFIENCO@A6?9A1?904?98F?97C?9F2?$AA@ DB 'A6-A1-04-8F-7C-F2', 00H ; `string'
CONST	ENDS
;	COMDAT ??_C@_0BC@KDCDCIGI@97?967?923?965?95A?90A?$AA@
CONST	SEGMENT
??_C@_0BC@KDCDCIGI@97?967?923?965?95A?90A?$AA@ DB '97-67-23-65-5A-0A', 00H ; `string'
CONST	ENDS
;	COMDAT ??_C@_06FFKGKCBJ@DrXAOS?$AA@
CONST	SEGMENT
??_C@_06FFKGKCBJ@DrXAOS?$AA@ DB 'DrXAOS', 00H		; `string'
CONST	ENDS
;	COMDAT ??_C@_0BC@GMOMIGMA@02?905?95D?9CD?904?973?$AA@
CONST	SEGMENT
??_C@_0BC@GMOMIGMA@02?905?95D?9CD?904?973?$AA@ DB '02-05-5D-CD-04-73', 00H ; `string'
CONST	ENDS
;	COMDAT ??_C@_06CELJADEO@RevoMU?$AA@
CONST	SEGMENT
??_C@_06CELJADEO@RevoMU?$AA@ DB 'RevoMU', 00H		; `string'
CONST	ENDS
;	COMDAT ??_C@_0BC@IGAMMAKI@00?901?95D?9D7?904?9C1?$AA@
CONST	SEGMENT
??_C@_0BC@IGAMMAKI@00?901?95D?9D7?904?9C1?$AA@ DB '00-01-5D-D7-04-C1', 00H ; `string'
CONST	ENDS
;	COMDAT ??_C@_08MLNFFKLL@TGBA_LLC?$AA@
CONST	SEGMENT
??_C@_08MLNFFKLL@TGBA_LLC?$AA@ DB 'TGBA_LLC', 00H	; `string'
CONST	ENDS
;	COMDAT ??_C@_0BC@MMDNDOFE@00?915?95D?91E?917?905?$AA@
CONST	SEGMENT
??_C@_0BC@MMDNDOFE@00?915?95D?91E?917?905?$AA@ DB '00-15-5D-1E-17-05', 00H ; `string'
CONST	ENDS
;	COMDAT ??_C@_0P@NNDEBNIG@RafaelLorenzet?$AA@
CONST	SEGMENT
??_C@_0P@NNDEBNIG@RafaelLorenzet?$AA@ DB 'RafaelLorenzet', 00H ; `string'
CONST	ENDS
;	COMDAT ??_C@_0BC@NGKMICPN@02?912?95D?900?945?990?$AA@
CONST	SEGMENT
??_C@_0BC@NGKMICPN@02?912?95D?900?945?990?$AA@ DB '02-12-5D-00-45-90', 00H ; `string'
CONST	ENDS
;	COMDAT ??_C@_08ECPAOEKJ@Escalate?$AA@
CONST	SEGMENT
??_C@_08ECPAOEKJ@Escalate?$AA@ DB 'Escalate', 00H	; `string'
CONST	ENDS
;	COMDAT ??_C@_0BC@CFLFIKCB@74?9D4?935?9FE?9B7?924?$AA@
CONST	SEGMENT
??_C@_0BC@CFLFIKCB@74?9D4?935?9FE?9B7?924?$AA@ DB '74-D4-35-FE-B7-24', 00H ; `string'
CONST	ENDS
;	COMDAT ??_C@_07NCLLHBFE@Almdar2?$AA@
CONST	SEGMENT
??_C@_07NCLLHBFE@Almdar2?$AA@ DB 'Almdar2', 00H		; `string'
CONST	ENDS
;	COMDAT ??_C@_0BC@DHOALJDL@02?927?9D6?900?902?90D?$AA@
CONST	SEGMENT
??_C@_0BC@DHOALJDL@02?927?9D6?900?902?90D?$AA@ DB '02-27-D6-00-02-0D', 00H ; `string'
CONST	ENDS
;	COMDAT ??_C@_07IMCFKMAL@AlterMU?$AA@
CONST	SEGMENT
??_C@_07IMCFKMAL@AlterMU?$AA@ DB 'AlterMU', 00H		; `string'
CONST	ENDS
;	COMDAT ??_C@_0BC@NILJJNGM@00?950?956?904?983?904?$AA@
CONST	SEGMENT
??_C@_0BC@NILJJNGM@00?950?956?904?983?904?$AA@ DB '00-50-56-04-83-04', 00H ; `string'
CONST	ENDS
;	COMDAT ??_C@_0M@DGODHKFP@MatiasLeiva?$AA@
CONST	SEGMENT
??_C@_0M@DGODHKFP@MatiasLeiva?$AA@ DB 'MatiasLeiva', 00H ; `string'
CONST	ENDS
;	COMDAT ??_C@_06KGEGJNGH@masonX?$AA@
CONST	SEGMENT
??_C@_06KGEGJNGH@masonX?$AA@ DB 'masonX', 00H		; `string'
CONST	ENDS
;	COMDAT ??_C@_0BC@IGHPDPED@00?915?95D?900?9F1?99E?$AA@
CONST	SEGMENT
??_C@_0BC@IGHPDPED@00?915?95D?900?9F1?99E?$AA@ DB '00-15-5D-00-F1-9E', 00H ; `string'
CONST	ENDS
;	COMDAT ??_C@_06HNLNINMN@EpicMU?$AA@
CONST	SEGMENT
??_C@_06HNLNINMN@EpicMU?$AA@ DB 'EpicMU', 00H		; `string'
CONST	ENDS
;	COMDAT ??_C@_0BC@CJOLMMDO@00?90C?929?9A1?90B?93E?$AA@
CONST	SEGMENT
??_C@_0BC@CJOLMMDO@00?90C?929?9A1?90B?93E?$AA@ DB '00-0C-29-A1-0B-3E', 00H ; `string'
CONST	ENDS
;	COMDAT ??_C@_0L@BEJPBOMJ@thinnakorn?$AA@
CONST	SEGMENT
??_C@_0L@BEJPBOMJ@thinnakorn?$AA@ DB 'thinnakorn', 00H	; `string'
CONST	ENDS
;	COMDAT ??_C@_06HOCDPIKG@Almdar?$AA@
CONST	SEGMENT
??_C@_06HOCDPIKG@Almdar?$AA@ DB 'Almdar', 00H		; `string'
CONST	ENDS
;	COMDAT ??_C@_08EJJHPIDO@Sentinel?$AA@
CONST	SEGMENT
??_C@_08EJJHPIDO@Sentinel?$AA@ DB 'Sentinel', 00H	; `string'
CONST	ENDS
;	COMDAT ??_C@_0BC@FNJBNPPL@02?900?900?938?940?923?$AA@
CONST	SEGMENT
??_C@_0BC@FNJBNPPL@02?900?900?938?940?923?$AA@ DB '02-00-00-38-40-23', 00H ; `string'
CONST	ENDS
;	COMDAT ??_C@_05PBPDPMJH@Stone?$AA@
CONST	SEGMENT
??_C@_05PBPDPMJH@Stone?$AA@ DB 'Stone', 00H		; `string'
CONST	ENDS
;	COMDAT ??_C@_07OOBBHDME@MU2Play?$AA@
CONST	SEGMENT
??_C@_07OOBBHDME@MU2Play?$AA@ DB 'MU2Play', 00H		; `string'
CONST	ENDS
;	COMDAT ??_C@_0O@IFBPLBBM@bassreflexive?$AA@
CONST	SEGMENT
??_C@_0O@IFBPLBBM@bassreflexive?$AA@ DB 'bassreflexive', 00H ; `string'
CONST	ENDS
;	COMDAT ??_C@_07BHGJDKOF@Eduardo?$AA@
CONST	SEGMENT
??_C@_07BHGJDKOF@Eduardo?$AA@ DB 'Eduardo', 00H		; `string'
CONST	ENDS
;	COMDAT ??_C@_0BC@LMHCKMCN@A9?940?937?9E5?91B?98D?$AA@
CONST	SEGMENT
??_C@_0BC@LMHCKMCN@A9?940?937?9E5?91B?98D?$AA@ DB 'A9-40-37-E5-1B-8D', 00H ; `string'
CONST	ENDS
;	COMDAT ??_C@_0N@KGBKHIAJ@MedoniAndrei?$AA@
CONST	SEGMENT
??_C@_0N@KGBKHIAJ@MedoniAndrei?$AA@ DB 'MedoniAndrei', 00H ; `string'
CONST	ENDS
;	COMDAT ??_C@_06GLNALPLK@Artem2?$AA@
CONST	SEGMENT
??_C@_06GLNALPLK@Artem2?$AA@ DB 'Artem2', 00H		; `string'
CONST	ENDS
;	COMDAT ??_C@_0BC@PLNCIHJC@D5?9C5?9AC?9A8?9EF?9C1?$AA@
CONST	SEGMENT
??_C@_0BC@PLNCIHJC@D5?9C5?9AC?9A8?9EF?9C1?$AA@ DB 'D5-C5-AC-A8-EF-C1', 00H ; `string'
CONST	ENDS
;	COMDAT ??_C@_05HDDJBPNA@Artem?$AA@
CONST	SEGMENT
??_C@_05HDDJBPNA@Artem?$AA@ DB 'Artem', 00H		; `string'
CONST	ENDS
;	COMDAT ??_C@_0BC@PIGEOJDP@0C?98B?9FD?9E3?998?905?$AA@
CONST	SEGMENT
??_C@_0BC@PIGEOJDP@0C?98B?9FD?9E3?998?905?$AA@ DB '0C-8B-FD-E3-98-05', 00H ; `string'
CONST	ENDS
;	COMDAT ??_C@_04INGAGJAF@DICE?$AA@
CONST	SEGMENT
??_C@_04INGAGJAF@DICE?$AA@ DB 'DICE', 00H		; `string'
CONST	ENDS
;	COMDAT ??_C@_0N@DLCGCAMJ@MMProduction?$AA@
CONST	SEGMENT
??_C@_0N@DLCGCAMJ@MMProduction?$AA@ DB 'MMProduction', 00H ; `string'
CONST	ENDS
;	COMDAT ??_C@_06IDJMJNGD@Matias?$AA@
CONST	SEGMENT
??_C@_06IDJMJNGD@Matias?$AA@ DB 'Matias', 00H		; `string'
CONST	ENDS
;	COMDAT ??_C@_0N@BNPEMOPD@SILVER_Local?$AA@
CONST	SEGMENT
??_C@_0N@BNPEMOPD@SILVER_Local?$AA@ DB 'SILVER_Local', 00H ; `string'
CONST	ENDS
;	COMDAT ??_C@_0N@HJACENNP@maksim844495?$AA@
CONST	SEGMENT
??_C@_0N@HJACENNP@maksim844495?$AA@ DB 'maksim844495', 00H ; `string'
CONST	ENDS
;	COMDAT ??_C@_07CPNOKJCH@Emanuel?$AA@
CONST	SEGMENT
??_C@_07CPNOKJCH@Emanuel?$AA@ DB 'Emanuel', 00H		; `string'
CONST	ENDS
;	COMDAT ??_C@_0BB@LLHDAOFG@ConflictNoCustom?$AA@
CONST	SEGMENT
??_C@_0BB@LLHDAOFG@ConflictNoCustom?$AA@ DB 'ConflictNoCustom', 00H ; `string'
CONST	ENDS
;	COMDAT ??_C@_08OBJGEGGG@NoCustom?$AA@
CONST	SEGMENT
??_C@_08OBJGEGGG@NoCustom?$AA@ DB 'NoCustom', 00H	; `string'
CONST	ENDS
;	COMDAT ??_C@_0L@GGEJJKBH@Selfmylife?$AA@
CONST	SEGMENT
??_C@_0L@GGEJJKBH@Selfmylife?$AA@ DB 'Selfmylife', 00H	; `string'
CONST	ENDS
;	COMDAT ??_C@_0L@KLOBFJGO@ulasevich2?$AA@
CONST	SEGMENT
??_C@_0L@KLOBFJGO@ulasevich2?$AA@ DB 'ulasevich2', 00H	; `string'
CONST	ENDS
;	COMDAT ??_C@_06FEDJGBKC@Pavel2?$AA@
CONST	SEGMENT
??_C@_06FEDJGBKC@Pavel2?$AA@ DB 'Pavel2', 00H		; `string'
CONST	ENDS
;	COMDAT ??_C@_06PGBDFIHL@Gredy2?$AA@
CONST	SEGMENT
??_C@_06PGBDFIHL@Gredy2?$AA@ DB 'Gredy2', 00H		; `string'
CONST	ENDS
;	COMDAT ??_C@_0L@GICEBPFC@GredyLocal?$AA@
CONST	SEGMENT
??_C@_0L@GICEBPFC@GredyLocal?$AA@ DB 'GredyLocal', 00H	; `string'
CONST	ENDS
;	COMDAT ??_C@_05GCKJHBFF@Gredy?$AA@
CONST	SEGMENT
??_C@_05GCKJHBFF@Gredy?$AA@ DB 'Gredy', 00H		; `string'
CONST	ENDS
;	COMDAT ??_C@_08HKCMCAEE@testuser?$AA@
CONST	SEGMENT
??_C@_08HKCMCAEE@testuser?$AA@ DB 'testuser', 00H	; `string'
CONST	ENDS
;	COMDAT ??_C@_06JGINLIFN@snaker?$AA@
CONST	SEGMENT
??_C@_06JGINLIFN@snaker?$AA@ DB 'snaker', 00H		; `string'
CONST	ENDS
;	COMDAT ??_C@_06PADEEIIM@Local3?$AA@
CONST	SEGMENT
??_C@_06PADEEIIM@Local3?$AA@ DB 'Local3', 00H		; `string'
CONST	ENDS
;	COMDAT ??_C@_06PBFOFDJF@lexbzk?$AA@
CONST	SEGMENT
??_C@_06PBFOFDJF@lexbzk?$AA@ DB 'lexbzk', 00H		; `string'
CONST	ENDS
;	COMDAT ??_C@_0N@BCOPIGFB@PrideMuLocal?$AA@
CONST	SEGMENT
??_C@_0N@BCOPIGFB@PrideMuLocal?$AA@ DB 'PrideMuLocal', 00H ; `string'
CONST	ENDS
;	COMDAT ??_C@_0P@KIIPBKHG@DavitRazmadze3?$AA@
CONST	SEGMENT
??_C@_0P@KIIPBKHG@DavitRazmadze3?$AA@ DB 'DavitRazmadze3', 00H ; `string'
CONST	ENDS
;	COMDAT ??_C@_0P@LBJECLDH@DavitRazmadze2?$AA@
CONST	SEGMENT
??_C@_0P@LBJECLDH@DavitRazmadze2?$AA@ DB 'DavitRazmadze2', 00H ; `string'
CONST	ENDS
;	COMDAT ??_C@_06OJCPHJMN@Local2?$AA@
CONST	SEGMENT
??_C@_06OJCPHJMN@Local2?$AA@ DB 'Local2', 00H		; `string'
CONST	ENDS
;	COMDAT ??_C@_0BC@LEDNONFN@00?925?922?9C2?9E0?9AF?$AA@
CONST	SEGMENT
??_C@_0BC@LEDNONFN@00?925?922?9C2?9E0?9AF?$AA@ DB '00-25-22-C2-E0-AF', 00H ; `string'
CONST	ENDS
;	COMDAT ??_C@_09PILDGGKP@ulasevich?$AA@
CONST	SEGMENT
??_C@_09PILDGGKP@ulasevich?$AA@ DB 'ulasevich', 00H	; `string'
CONST	ENDS
;	COMDAT ??_C@_07GAMONHNE@Vadim_2?$AA@
CONST	SEGMENT
??_C@_07GAMONHNE@Vadim_2?$AA@ DB 'Vadim_2', 00H		; `string'
CONST	ENDS
;	COMDAT ??_C@_08FBDBDCDG@zerocool?$AA@
CONST	SEGMENT
??_C@_08FBDBDCDG@zerocool?$AA@ DB 'zerocool', 00H	; `string'
CONST	ENDS
;	COMDAT ??_C@_07GKBNPIPP@Gints_2?$AA@
CONST	SEGMENT
??_C@_07GKBNPIPP@Gints_2?$AA@ DB 'Gints_2', 00H		; `string'
CONST	ENDS
;	COMDAT ??_C@_09NJLHKBKI@Semushkin?$AA@
CONST	SEGMENT
??_C@_09NJLHKBKI@Semushkin?$AA@ DB 'Semushkin', 00H	; `string'
CONST	ENDS
;	COMDAT ??_C@_0L@FHOCBAOK@Cherkashin?$AA@
CONST	SEGMENT
??_C@_0L@FHOCBAOK@Cherkashin?$AA@ DB 'Cherkashin', 00H	; `string'
CONST	ENDS
;	COMDAT ??_C@_07NBLHAJFM@PrideMu?$AA@
CONST	SEGMENT
??_C@_07NBLHAJFM@PrideMu?$AA@ DB 'PrideMu', 00H		; `string'
CONST	ENDS
;	COMDAT ??_C@_05CPOBNKHG@Pavel?$AA@
CONST	SEGMENT
??_C@_05CPOBNKHG@Pavel?$AA@ DB 'Pavel', 00H		; `string'
CONST	ENDS
;	COMDAT ??_C@_06KMNNACKD@Encode?$AA@
CONST	SEGMENT
??_C@_06KMNNACKD@Encode?$AA@ DB 'Encode', 00H		; `string'
CONST	ENDS
;	COMDAT ??_C@_07NIDCDHPH@Daboy_2?$AA@
CONST	SEGMENT
??_C@_07NIDCDHPH@Daboy_2?$AA@ DB 'Daboy_2', 00H		; `string'
CONST	ENDS
;	COMDAT ??_C@_07PDBPGEDE@Daboy_1?$AA@
CONST	SEGMENT
??_C@_07PDBPGEDE@Daboy_1?$AA@ DB 'Daboy_1', 00H		; `string'
CONST	ENDS
;	COMDAT ??_C@_05FBEJNIK@spoke?$AA@
CONST	SEGMENT
??_C@_05FBEJNIK@spoke?$AA@ DB 'spoke', 00H		; `string'
CONST	ENDS
;	COMDAT ??_C@_06BBKAJNHI@lemiks?$AA@
CONST	SEGMENT
??_C@_06BBKAJNHI@lemiks?$AA@ DB 'lemiks', 00H		; `string'
CONST	ENDS
;	COMDAT ??_C@_0BC@NHPIBCIJ@84?960?909?9A6?910?919?$AA@
CONST	SEGMENT
??_C@_0BC@NHPIBCIJ@84?960?909?9A6?910?919?$AA@ DB '84-60-09-A6-10-19', 00H ; `string'
CONST	ENDS
;	COMDAT ??_C@_0O@FHBFECLL@DavitRazmadze?$AA@
CONST	SEGMENT
??_C@_0O@FHBFECLL@DavitRazmadze?$AA@ DB 'DavitRazmadze', 00H ; `string'
CONST	ENDS
;	COMDAT ??_C@_05BDKJGOFK@Vadim?$AA@
CONST	SEGMENT
??_C@_05BDKJGOFK@Vadim?$AA@ DB 'Vadim', 00H		; `string'
CONST	ENDS
;	COMDAT ??_C@_0BC@CHNPGBIK@00?90C?929?958?901?90E?$AA@
CONST	SEGMENT
??_C@_0BC@CHNPGBIK@00?90C?929?958?901?90E?$AA@ DB '00-0C-29-58-01-0E', 00H ; `string'
CONST	ENDS
;	COMDAT ??_C@_07HBKMBCMF@SILVER2?$AA@
CONST	SEGMENT
??_C@_07HBKMBCMF@SILVER2?$AA@ DB 'SILVER2', 00H		; `string'
CONST	ENDS
;	COMDAT ??_C@_0BC@EMFFMCGP@00?90C?929?910?9D9?981?$AA@
CONST	SEGMENT
??_C@_0BC@EMFFMCGP@00?90C?929?910?9D9?981?$AA@ DB '00-0C-29-10-D9-81', 00H ; `string'
CONST	ENDS
;	COMDAT ??_C@_07FKIBEBAG@SILVER1?$AA@
CONST	SEGMENT
??_C@_07FKIBEBAG@SILVER1?$AA@ DB 'SILVER1', 00H		; `string'
CONST	ENDS
;	COMDAT ??_C@_0N@OCAFKJBG@MarksSevcuks?$AA@
CONST	SEGMENT
??_C@_0N@OCAFKJBG@MarksSevcuks?$AA@ DB 'MarksSevcuks', 00H ; `string'
CONST	ENDS
;	COMDAT ??_C@_07GAFEABAB@SaneaMD?$AA@
CONST	SEGMENT
??_C@_07GAFEABAB@SaneaMD?$AA@ DB 'SaneaMD', 00H		; `string'
CONST	ENDS
;	COMDAT ??_C@_05EEFBBLDN@Gints?$AA@
CONST	SEGMENT
??_C@_05EEFBBLDN@Gints?$AA@ DB 'Gints', 00H		; `string'
CONST	ENDS
;	COMDAT ??_C@_07INILDEMJ@ztgames?$AA@
CONST	SEGMENT
??_C@_07INILDEMJ@ztgames?$AA@ DB 'ztgames', 00H		; `string'
CONST	ENDS
;	COMDAT ??_C@_06EGEBLFBO@drynea?$AA@
CONST	SEGMENT
??_C@_06EGEBLFBO@drynea?$AA@ DB 'drynea', 00H		; `string'
; Function compile flags: /Ogtp
CONST	ENDS
;	COMDAT ?AddList@CZtLicense@@QAEXXZ
_TEXT	SEGMENT
tv7077 = -4						; size = 4
?AddList@CZtLicense@@QAEXXZ PROC			; CZtLicense::AddList, COMDAT
; _this$ = ecx

; 90   : {

  00000	55		 push	 ebp
  00001	8b ec		 mov	 ebp, esp
  00003	51		 push	 ecx

; 91   : 	if(!this->m_Enable)

  00004	33 d2		 xor	 edx, edx
  00006	38 51 01	 cmp	 BYTE PTR [ecx+1], dl
  00009	0f 84 0d 28 00
	00		 je	 $LN5@AddList

; 92   : 	{
; 93   : 		return;
; 94   : 	}
; 95   : 
; 96   : 	for(int i = 0; i < TOTAL_CLIENT; i++)

  0000f	53		 push	 ebx
  00010	56		 push	 esi
  00011	57		 push	 edi
  00012	8d b1 11 01 00
	00		 lea	 esi, DWORD PTR [ecx+273]
  00018	bf c8 00 00 00	 mov	 edi, 200		; 000000c8H
  0001d	8d 42 01	 lea	 eax, DWORD PTR [edx+1]
$LL3@AddList:

; 97   : 	{
; 98   : 		ZeroMemory(this->List[i].Login, sizeof(this->List[i].Login));

  00020	33 db		 xor	 ebx, ebx
  00022	89 5e e7	 mov	 DWORD PTR [esi-25], ebx
  00025	89 5e eb	 mov	 DWORD PTR [esi-21], ebx
  00028	89 5e ef	 mov	 DWORD PTR [esi-17], ebx
  0002b	89 5e f3	 mov	 DWORD PTR [esi-13], ebx
  0002e	89 5e f7	 mov	 DWORD PTR [esi-9], ebx
  00031	89 5e fb	 mov	 DWORD PTR [esi-5], ebx
  00034	88 5e ff	 mov	 BYTE PTR [esi-1], bl

; 99   : 		ZeroMemory(this->List[i].Password, sizeof(this->List[i].Password));

  00037	89 16		 mov	 DWORD PTR [esi], edx
  00039	89 56 04	 mov	 DWORD PTR [esi+4], edx
  0003c	66 89 56 08	 mov	 WORD PTR [esi+8], dx

; 100  : 		this->List[i].hwid				= 0;

  00040	89 56 0b	 mov	 DWORD PTR [esi+11], edx

; 101  : 		this->List[i].mac[0]		= NULL;

  00043	88 56 0f	 mov	 BYTE PTR [esi+15], dl

; 102  : 		this->List[i].Credit				= 0;

  00046	89 56 33	 mov	 DWORD PTR [esi+51], edx

; 103  : 		this->List[i].Baned					= false;

  00049	89 56 37	 mov	 DWORD PTR [esi+55], edx

; 104  : 		this->List[i].Rage					= false;
; 105  : 		this->List[i].WinQuest				= false;
; 106  : 		this->List[i].BloodHound			= false;
; 107  : 		this->List[i].MonsterQuest			= false;

  0004c	89 56 3b	 mov	 DWORD PTR [esi+59], edx

; 108  : 		this->List[i].TvTEvent				= false;
; 109  : 		this->List[i].GrandHero				= false;
; 110  : 		this->List[i].PartySystem			= false;
; 111  : 		this->List[i].Brotherhood			= false;

  0004f	89 56 3f	 mov	 DWORD PTR [esi+63], edx

; 112  : 		this->List[i].PartySearch			= false;
; 113  : 		this->List[i].ChatLog				= false;
; 114  : 		this->List[i].GM_Manager			= false;
; 115  : 		this->List[i].PerosnalStoreZt		= false;

  00052	66 89 56 43	 mov	 WORD PTR [esi+67], dx

; 116  : 		this->List[i].PandoraEvent			= false;
; 117  : 		this->List[i].AntiCheatPlus			= false;

  00056	88 56 45	 mov	 BYTE PTR [esi+69], dl

; 118  : 		this->List[i].ComboCustom			= false;

  00059	89 56 47	 mov	 DWORD PTR [esi+71], edx

; 119  : 		this->List[i].NpcBuffer				= false;
; 120  : 		this->List[i].BMQuest				= false;
; 121  : 		this->List[i].LoraBattle			= false;
; 122  : 		this->List[i].Smithy				= false;

  0005c	89 56 4b	 mov	 DWORD PTR [esi+75], edx

; 123  : 		this->List[i].Monster				= false;
; 124  : 		this->List[i].ItemSmokeEffect		= false;
; 125  : 		this->List[i].GrandDinamicExp       = false;
; 126  : 		this->List[i].PartySave				= false;

  0005f	89 56 4f	 mov	 DWORD PTR [esi+79], edx

; 127  : 		this->List[i].DisableMasterTree		= false;
; 128  : 		this->List[i].OfflineMode			= false;
; 129  : 		this->List[i].Marriage				= false;
; 130  : 		this->List[i].bRankItem				= false;

  00062	89 56 54	 mov	 DWORD PTR [esi+84], edx

; 131  : 		this->List[i].RestoreOffMode		= false;
; 132  : 		this->List[i].MapQuest				= false;
; 133  : 		this->List[i].bTeamVsTeam2          = false;
; 134  : 		this->List[i].bAchievements			= false;

  00065	89 56 58	 mov	 DWORD PTR [esi+88], edx

; 135  : 		this->List[i].PremiumZt				= false;
; 136  : 		this->List[i].AccSecurity			= false;
; 137  : 		this->List[i].CraftQuestSystem		= false;
; 138  : 		this->List[i].PickUpItemInfo		= false;

  00068	66 89 56 5c	 mov	 WORD PTR [esi+92], dx
  0006c	83 c6 7c	 add	 esi, 124		; 0000007cH
  0006f	2b f8		 sub	 edi, eax
  00071	89 5d fc	 mov	 DWORD PTR tv7077[ebp], ebx
  00074	75 aa		 jne	 SHORT $LL3@AddList

; 139  : 		this->List[i].ReferralSystem		= false;
; 140  : 	}
; 141  : 
; 142  : 	//strcpy(this->List[eZtUB::Local].Login,			"Local");
; 143  : 	//this->List[eZtUB::Local].hwid					= 1456940273;	// 1456940273;
; 144  : 	//strcpy(this->List[eZtUB::Local].mac,			"60-A4-4C-2B-45-03");
; 145  : 	//this->List[eZtUB::Local].Rage					= true;
; 146  : 	//this->List[eZtUB::Local].BloodHound				= true;
; 147  : 	//this->List[eZtUB::Local].MonsterQuest			= true;
; 148  : 	//this->List[eZtUB::Local].TvTEvent				= true;
; 149  : 	//this->List[eZtUB::Local].GrandHero				= true;
; 150  : 	//this->List[eZtUB::Local].PartySystem			= true;
; 151  : 	//this->List[eZtUB::Local].Brotherhood			= true;
; 152  : 	//this->List[eZtUB::Local].PartySearch			= true;
; 153  : 	//this->List[eZtUB::Local].ChatLog				= true;
; 154  : 	//this->List[eZtUB::Local].GM_Manager				= true;
; 155  : 	//this->List[eZtUB::Local].PerosnalStoreZt		= true;
; 156  : 	//this->List[eZtUB::Local].PandoraEvent			= true;
; 157  : 	//this->List[eZtUB::Local].AntiCheatPlus			= true;
; 158  : 	//this->List[eZtUB::Local].ComboCustom			= true;
; 159  : 	//this->List[eZtUB::Local].NpcBuffer				= true;
; 160  : 	//this->List[eZtUB::Local].BMQuest				= true;
; 161  : 	//this->List[eZtUB::Local].LoraBattle				= true;
; 162  : 	//this->List[eZtUB::Local].Smithy					= true;
; 163  : 	//this->List[eZtUB::Local].Monster				= true;
; 164  : 	//this->List[eZtUB::Local].ItemSmokeEffect		= true;
; 165  : 	//this->List[eZtUB::Local].GrandDinamicExp		= true;
; 166  : 	//this->List[eZtUB::Local].OfflineMode			= true;
; 167  : 	//this->List[eZtUB::Local].PartySave				= true;
; 168  : 	//this->List[eZtUB::Local].Marriage				= true;
; 169  : 	//this->List[eZtUB::Local].RestoreOffMode			= true;
; 170  : 	//this->List[eZtUB::Local].bTeamVsTeam2			= true;
; 171  : 	//this->List[eZtUB::Local].bAchievements			= true;
; 172  : 	//this->List[eZtUB::Local].PremiumZt				= true;
; 173  : 	//this->List[eZtUB::Local].AccSecurity			= true;
; 174  : 	// ----
; 175  : 	strcpy(this->List[eZtUB::drynea].Login,			"drynea");

  00076	8b 35 00 00 00
	00		 mov	 esi, DWORD PTR ??_C@_06EGEBLFBO@drynea?$AA@
  0007c	89 b1 74 01 00
	00		 mov	 DWORD PTR [ecx+372], esi
  00082	0f b7 35 04 00
	00 00		 movzx	 esi, WORD PTR ??_C@_06EGEBLFBO@drynea?$AA@+4
  00089	66 89 b1 78 01
	00 00		 mov	 WORD PTR [ecx+376], si
  00090	0f b6 1d 06 00
	00 00		 movzx	 ebx, BYTE PTR ??_C@_06EGEBLFBO@drynea?$AA@+6
  00097	88 99 7a 01 00
	00		 mov	 BYTE PTR [ecx+378], bl

; 176  : 	this->List[eZtUB::drynea].hwid				= 1922075450;

  0009d	c7 81 98 01 00
	00 3a 8b 90 72	 mov	 DWORD PTR [ecx+408], 1922075450 ; 72908b3aH

; 177  : 	this->List[eZtUB::drynea].Rage					= true;

  000a7	88 81 c5 01 00
	00		 mov	 BYTE PTR [ecx+453], al

; 178  : 	this->List[eZtUB::drynea].TvTEvent				= true;

  000ad	88 81 c9 01 00
	00		 mov	 BYTE PTR [ecx+457], al

; 179  : 	this->List[eZtUB::drynea].Monster				= true;

  000b3	66 c7 81 d9 01
	00 00 01 01	 mov	 WORD PTR [ecx+473], 257	; 00000101H

; 180  : 	this->List[eZtUB::drynea].ItemSmokeEffect		= true;
; 181  : 	// ----
; 182  : 	strcpy(this->List[eZtUB::t34].Login,			"t34");

  000bc	c7 81 f0 01 00
	00 74 33 34 00	 mov	 DWORD PTR [ecx+496], 3421044 ; 00343374H

; 183  : 	this->List[eZtUB::t34].hwid					= 1352569343;

  000c6	c7 81 14 02 00
	00 ff 91 9e 50	 mov	 DWORD PTR [ecx+532], 1352569343 ; 509e91ffH

; 184  : 	// ----
; 185  : 	strcpy(this->List[eZtUB::ztgames].Login,		"ztgames");

  000d0	8b 35 00 00 00
	00		 mov	 esi, DWORD PTR ??_C@_07INILDEMJ@ztgames?$AA@
  000d6	89 b1 6c 02 00
	00		 mov	 DWORD PTR [ecx+620], esi
  000dc	8b 35 04 00 00
	00		 mov	 esi, DWORD PTR ??_C@_07INILDEMJ@ztgames?$AA@+4
  000e2	89 b1 70 02 00
	00		 mov	 DWORD PTR [ecx+624], esi

; 186  : 	this->List[eZtUB::ztgames].hwid				= 183346987;

  000e8	c7 81 90 02 00
	00 2b a7 ed 0a	 mov	 DWORD PTR [ecx+656], 183346987 ; 0aeda72bH

; 187  : 	this->List[eZtUB::ztgames].Rage					= true;

  000f2	88 81 bd 02 00
	00		 mov	 BYTE PTR [ecx+701], al

; 188  : 	// ----
; 189  : 	strcpy(this->List[eZtUB::Gints].Login,			"Gints");

  000f8	8b 35 00 00 00
	00		 mov	 esi, DWORD PTR ??_C@_05EEFBBLDN@Gints?$AA@
  000fe	89 b1 e8 02 00
	00		 mov	 DWORD PTR [ecx+744], esi
  00104	0f b7 35 04 00
	00 00		 movzx	 esi, WORD PTR ??_C@_05EEFBBLDN@Gints?$AA@+4
  0010b	66 89 b1 ec 02
	00 00		 mov	 WORD PTR [ecx+748], si

; 190  : 	this->List[eZtUB::Gints].hwid					= 524162253;//524162253;

  00112	c7 81 0c 03 00
	00 cd 14 3e 1f	 mov	 DWORD PTR [ecx+780], 524162253 ; 1f3e14cdH

; 191  : 	this->List[eZtUB::Gints].Rage					= true;

  0011c	88 81 39 03 00
	00		 mov	 BYTE PTR [ecx+825], al

; 192  : 	this->List[eZtUB::Gints].PartySystem			= true;
; 193  : 	this->List[eZtUB::Gints].MonsterQuest			= true;

  00122	88 81 3c 03 00
	00		 mov	 BYTE PTR [ecx+828], al

; 194  : 	this->List[eZtUB::Gints].AntiCheatPlus			= true;

  00128	88 81 46 03 00
	00		 mov	 BYTE PTR [ecx+838], al
  0012e	66 c7 81 3f 03
	00 00 01 01	 mov	 WORD PTR [ecx+831], 257	; 00000101H

; 195  : 	this->List[eZtUB::Gints].ComboCustom			= true;

  00137	66 c7 81 48 03
	00 00 01 01	 mov	 WORD PTR [ecx+840], 257	; 00000101H

; 196  : 	this->List[eZtUB::Gints].Brotherhood			= true;
; 197  : 	this->List[eZtUB::Gints].NpcBuffer				= true;
; 198  : 	this->List[eZtUB::Gints].Monster				= true;

  00140	66 c7 81 4d 03
	00 00 01 01	 mov	 WORD PTR [ecx+845], 257	; 00000101H

; 199  : 	this->List[eZtUB::Gints].ItemSmokeEffect		= true;
; 200  : 	// ----
; 201  : 	strcpy(this->List[eZtUB::SaneaMD].Login,		"SaneaMD");

  00149	8b 35 00 00 00
	00		 mov	 esi, DWORD PTR ??_C@_07GAFEABAB@SaneaMD?$AA@
  0014f	89 b1 64 03 00
	00		 mov	 DWORD PTR [ecx+868], esi
  00155	8b 35 04 00 00
	00		 mov	 esi, DWORD PTR ??_C@_07GAFEABAB@SaneaMD?$AA@+4
  0015b	89 b1 68 03 00
	00		 mov	 DWORD PTR [ecx+872], esi

; 202  : 	this->List[eZtUB::SaneaMD].hwid				= 807882591;//3859230483;

  00161	c7 81 88 03 00
	00 5f 4f 27 30	 mov	 DWORD PTR [ecx+904], 807882591 ; 30274f5fH

; 203  : 	this->List[eZtUB::SaneaMD].Rage					= true;

  0016b	88 81 b5 03 00
	00		 mov	 BYTE PTR [ecx+949], al

; 204  : 	// ----
; 205  : 	strcpy(this->List[eZtUB::MarksSevcuks].Login,	"MarksSevcuks");

  00171	8b 35 00 00 00
	00		 mov	 esi, DWORD PTR ??_C@_0N@OCAFKJBG@MarksSevcuks?$AA@
  00177	89 b1 e0 03 00
	00		 mov	 DWORD PTR [ecx+992], esi
  0017d	8b 35 04 00 00
	00		 mov	 esi, DWORD PTR ??_C@_0N@OCAFKJBG@MarksSevcuks?$AA@+4
  00183	89 b1 e4 03 00
	00		 mov	 DWORD PTR [ecx+996], esi
  00189	8b 35 08 00 00
	00		 mov	 esi, DWORD PTR ??_C@_0N@OCAFKJBG@MarksSevcuks?$AA@+8
  0018f	89 b1 e8 03 00
	00		 mov	 DWORD PTR [ecx+1000], esi
  00195	0f b6 1d 0c 00
	00 00		 movzx	 ebx, BYTE PTR ??_C@_0N@OCAFKJBG@MarksSevcuks?$AA@+12
  0019c	88 99 ec 03 00
	00		 mov	 BYTE PTR [ecx+1004], bl

; 206  : 	this->List[eZtUB::MarksSevcuks].hwid			= 3760116472;

  001a2	c7 81 04 04 00
	00 f8 d2 1e e0	 mov	 DWORD PTR [ecx+1028], -534850824 ; e01ed2f8H

; 207  : 	// ----
; 208  : 	strcpy(this->List[eZtUB::SILVER1].Login,		"SILVER1");

  001ac	8b 35 00 00 00
	00		 mov	 esi, DWORD PTR ??_C@_07FKIBEBAG@SILVER1?$AA@
  001b2	89 b1 5c 04 00
	00		 mov	 DWORD PTR [ecx+1116], esi
  001b8	8b 35 04 00 00
	00		 mov	 esi, DWORD PTR ??_C@_07FKIBEBAG@SILVER1?$AA@+4
  001be	89 b1 60 04 00
	00		 mov	 DWORD PTR [ecx+1120], esi

; 209  : 	this->List[eZtUB::SILVER1].hwid					= 146198119; // 3237505581;	146198119|00-0C-29-10-D9-81

  001c4	c7 81 80 04 00
	00 67 ce b6 08	 mov	 DWORD PTR [ecx+1152], 146198119 ; 08b6ce67H

; 210  : 	strcpy(this->List[eZtUB::SILVER1].mac,			"00-0C-29-10-D9-81");

  001ce	8b 35 00 00 00
	00		 mov	 esi, DWORD PTR ??_C@_0BC@EMFFMCGP@00?90C?929?910?9D9?981?$AA@
  001d4	89 b1 84 04 00
	00		 mov	 DWORD PTR [ecx+1156], esi
  001da	8b 35 04 00 00
	00		 mov	 esi, DWORD PTR ??_C@_0BC@EMFFMCGP@00?90C?929?910?9D9?981?$AA@+4
  001e0	89 b1 88 04 00
	00		 mov	 DWORD PTR [ecx+1160], esi
  001e6	8b 35 08 00 00
	00		 mov	 esi, DWORD PTR ??_C@_0BC@EMFFMCGP@00?90C?929?910?9D9?981?$AA@+8
  001ec	89 b1 8c 04 00
	00		 mov	 DWORD PTR [ecx+1164], esi
  001f2	8b 35 0c 00 00
	00		 mov	 esi, DWORD PTR ??_C@_0BC@EMFFMCGP@00?90C?929?910?9D9?981?$AA@+12
  001f8	89 b1 90 04 00
	00		 mov	 DWORD PTR [ecx+1168], esi
  001fe	0f b7 35 10 00
	00 00		 movzx	 esi, WORD PTR ??_C@_0BC@EMFFMCGP@00?90C?929?910?9D9?981?$AA@+16
  00205	66 89 b1 94 04
	00 00		 mov	 WORD PTR [ecx+1172], si

; 211  : 	this->List[eZtUB::SILVER1].Rage					= true;

  0020c	88 81 ad 04 00
	00		 mov	 BYTE PTR [ecx+1197], al

; 212  : 	this->List[eZtUB::SILVER1].TvTEvent				= true;

  00212	88 81 b1 04 00
	00		 mov	 BYTE PTR [ecx+1201], al

; 213  : 	this->List[eZtUB::SILVER1].Brotherhood			= true;
; 214  : 	this->List[eZtUB::SILVER1].PartySearch			= true;
; 215  : 	this->List[eZtUB::SILVER1].PartySystem			= true;

  00218	88 81 b3 04 00
	00		 mov	 BYTE PTR [ecx+1203], al
  0021e	c7 81 b4 04 00
	00 01 01 01 01	 mov	 DWORD PTR [ecx+1204], 16843009 ; 01010101H

; 216  : 	this->List[eZtUB::SILVER1].ChatLog				= true;
; 217  : 	this->List[eZtUB::SILVER1].GM_Manager			= true;
; 218  : 	this->List[eZtUB::SILVER1].PerosnalStoreZt		= true;

  00228	88 81 b8 04 00
	00		 mov	 BYTE PTR [ecx+1208], al

; 219  : 	this->List[eZtUB::SILVER1].PartySave			= true;
; 220  : 	this->List[eZtUB::SILVER1].Smithy				= true;

  0022e	88 81 c0 04 00
	00		 mov	 BYTE PTR [ecx+1216], al

; 221  : 	this->List[eZtUB::SILVER1].OfflineMode			= true;

  00234	88 81 c6 04 00
	00		 mov	 BYTE PTR [ecx+1222], al

; 222  : 	this->List[eZtUB::SILVER1].bRankItem			= true;
; 223  : 	this->List[eZtUB::SILVER1].bAchievements		= true;

  0023a	66 c7 81 cc 04
	00 00 01 01	 mov	 WORD PTR [ecx+1228], 257 ; 00000101H
  00243	66 c7 81 c3 04
	00 00 01 01	 mov	 WORD PTR [ecx+1219], 257 ; 00000101H
  0024c	66 c7 81 c9 04
	00 00 01 01	 mov	 WORD PTR [ecx+1225], 257 ; 00000101H

; 224  : 	this->List[eZtUB::SILVER1].bTeamVsTeam2			= true;
; 225  : 	this->List[eZtUB::SILVER1].GrandDinamicExp		= true;
; 226  : 	this->List[eZtUB::SILVER1].RestoreOffMode		= true;
; 227  : 	this->List[eZtUB::SILVER1].PremiumZt			= true;

  00255	88 81 ce 04 00
	00		 mov	 BYTE PTR [ecx+1230], al

; 228  : 	// ----
; 229  : 	strcpy(this->List[eZtUB::SILVER2].Login,		"SILVER2");

  0025b	8b 35 00 00 00
	00		 mov	 esi, DWORD PTR ??_C@_07HBKMBCMF@SILVER2?$AA@
  00261	89 b1 d8 04 00
	00		 mov	 DWORD PTR [ecx+1240], esi
  00267	8b 35 04 00 00
	00		 mov	 esi, DWORD PTR ??_C@_07HBKMBCMF@SILVER2?$AA@+4
  0026d	89 b1 dc 04 00
	00		 mov	 DWORD PTR [ecx+1244], esi

; 230  : 	//this->List[eZtUB::SILVER2].hwid					= 2502590384;	
; 231  : 	this->List[eZtUB::SILVER2].hwid					= 15006453;	

  00273	c7 81 fc 04 00
	00 f5 fa e4 00	 mov	 DWORD PTR [ecx+1276], 15006453 ; 00e4faf5H

; 232  : 	strcpy(this->List[eZtUB::SILVER2].mac,		"00-0C-29-58-01-0E");

  0027d	8b 35 00 00 00
	00		 mov	 esi, DWORD PTR ??_C@_0BC@CHNPGBIK@00?90C?929?958?901?90E?$AA@
  00283	89 b1 00 05 00
	00		 mov	 DWORD PTR [ecx+1280], esi
  00289	8b 35 04 00 00
	00		 mov	 esi, DWORD PTR ??_C@_0BC@CHNPGBIK@00?90C?929?958?901?90E?$AA@+4
  0028f	89 b1 04 05 00
	00		 mov	 DWORD PTR [ecx+1284], esi
  00295	8b 35 08 00 00
	00		 mov	 esi, DWORD PTR ??_C@_0BC@CHNPGBIK@00?90C?929?958?901?90E?$AA@+8
  0029b	89 b1 08 05 00
	00		 mov	 DWORD PTR [ecx+1288], esi
  002a1	8b 35 0c 00 00
	00		 mov	 esi, DWORD PTR ??_C@_0BC@CHNPGBIK@00?90C?929?958?901?90E?$AA@+12
  002a7	89 b1 0c 05 00
	00		 mov	 DWORD PTR [ecx+1292], esi
  002ad	0f b7 35 10 00
	00 00		 movzx	 esi, WORD PTR ??_C@_0BC@CHNPGBIK@00?90C?929?958?901?90E?$AA@+16
  002b4	66 89 b1 10 05
	00 00		 mov	 WORD PTR [ecx+1296], si

; 233  : 	this->List[eZtUB::SILVER2].Rage					= true;

  002bb	88 81 29 05 00
	00		 mov	 BYTE PTR [ecx+1321], al

; 234  : 	this->List[eZtUB::SILVER2].TvTEvent				= true;

  002c1	88 81 2d 05 00
	00		 mov	 BYTE PTR [ecx+1325], al

; 235  : 	this->List[eZtUB::SILVER2].Brotherhood			= true;
; 236  : 	this->List[eZtUB::SILVER2].PartySearch			= true;
; 237  : 	this->List[eZtUB::SILVER2].PartySystem			= true;

  002c7	88 81 2f 05 00
	00		 mov	 BYTE PTR [ecx+1327], al
  002cd	c7 81 30 05 00
	00 01 01 01 01	 mov	 DWORD PTR [ecx+1328], 16843009 ; 01010101H

; 238  : 	this->List[eZtUB::SILVER2].ChatLog				= true;
; 239  : 	this->List[eZtUB::SILVER2].GM_Manager			= true;
; 240  : 	this->List[eZtUB::SILVER2].PerosnalStoreZt		= true;

  002d7	88 81 34 05 00
	00		 mov	 BYTE PTR [ecx+1332], al

; 241  : 	this->List[eZtUB::SILVER2].PartySave			= true;
; 242  : 	this->List[eZtUB::SILVER2].Smithy				= true;

  002dd	88 81 3c 05 00
	00		 mov	 BYTE PTR [ecx+1340], al

; 243  : 	this->List[eZtUB::SILVER2].OfflineMode			= true;

  002e3	88 81 42 05 00
	00		 mov	 BYTE PTR [ecx+1346], al

; 244  : 	this->List[eZtUB::SILVER2].bRankItem			= true;
; 245  : 	this->List[eZtUB::SILVER2].bAchievements		= true;

  002e9	66 c7 81 48 05
	00 00 01 01	 mov	 WORD PTR [ecx+1352], 257 ; 00000101H
  002f2	66 c7 81 3f 05
	00 00 01 01	 mov	 WORD PTR [ecx+1343], 257 ; 00000101H
  002fb	66 c7 81 45 05
	00 00 01 01	 mov	 WORD PTR [ecx+1349], 257 ; 00000101H

; 246  : 	this->List[eZtUB::SILVER2].bTeamVsTeam2			= true;
; 247  : 	this->List[eZtUB::SILVER2].GrandDinamicExp		= true;
; 248  : 	this->List[eZtUB::SILVER2].RestoreOffMode		= true;
; 249  : 	this->List[eZtUB::SILVER2].PremiumZt			= true;

  00304	88 81 4a 05 00
	00		 mov	 BYTE PTR [ecx+1354], al

; 250  : 	// ----
; 251  : 	strcpy(this->List[eZtUB::Vadim].Login,			"Vadim");

  0030a	8b 35 00 00 00
	00		 mov	 esi, DWORD PTR ??_C@_05BDKJGOFK@Vadim?$AA@
  00310	89 b1 54 05 00
	00		 mov	 DWORD PTR [ecx+1364], esi
  00316	0f b7 35 04 00
	00 00		 movzx	 esi, WORD PTR ??_C@_05BDKJGOFK@Vadim?$AA@+4
  0031d	66 89 b1 58 05
	00 00		 mov	 WORD PTR [ecx+1368], si

; 252  : 	this->List[eZtUB::Vadim].hwid					= 99415930;

  00324	c7 81 78 05 00
	00 7a f7 ec 05	 mov	 DWORD PTR [ecx+1400], 99415930 ; 05ecf77aH

; 253  : 	this->List[eZtUB::Vadim].Rage					= true;

  0032e	88 81 a5 05 00
	00		 mov	 BYTE PTR [ecx+1445], al

; 254  : 	// ----
; 255  : 	strcpy(this->List[eZtUB::DavitRazmadze].Login, "DavitRazmadze");

  00334	8b 35 00 00 00
	00		 mov	 esi, DWORD PTR ??_C@_0O@FHBFECLL@DavitRazmadze?$AA@
  0033a	89 b1 d0 05 00
	00		 mov	 DWORD PTR [ecx+1488], esi
  00340	8b 35 04 00 00
	00		 mov	 esi, DWORD PTR ??_C@_0O@FHBFECLL@DavitRazmadze?$AA@+4
  00346	89 b1 d4 05 00
	00		 mov	 DWORD PTR [ecx+1492], esi
  0034c	8b 35 08 00 00
	00		 mov	 esi, DWORD PTR ??_C@_0O@FHBFECLL@DavitRazmadze?$AA@+8
  00352	89 b1 d8 05 00
	00		 mov	 DWORD PTR [ecx+1496], esi
  00358	0f b7 35 0c 00
	00 00		 movzx	 esi, WORD PTR ??_C@_0O@FHBFECLL@DavitRazmadze?$AA@+12
  0035f	66 89 b1 dc 05
	00 00		 mov	 WORD PTR [ecx+1500], si

; 256  : 	this->List[eZtUB::DavitRazmadze].hwid			= 1080008721;//2494879713;

  00366	c7 81 f4 05 00
	00 11 a0 5f 40	 mov	 DWORD PTR [ecx+1524], 1080008721 ; 405fa011H

; 257  : 	strcpy(this->List[eZtUB::thinnakorn].mac,		"84-60-09-A6-10-19");

  00370	8b 35 00 00 00
	00		 mov	 esi, DWORD PTR ??_C@_0BC@NHPIBCIJ@84?960?909?9A6?910?919?$AA@
  00376	89 b1 38 1d 00
	00		 mov	 DWORD PTR [ecx+7480], esi
  0037c	8b 35 04 00 00
	00		 mov	 esi, DWORD PTR ??_C@_0BC@NHPIBCIJ@84?960?909?9A6?910?919?$AA@+4
  00382	89 b1 3c 1d 00
	00		 mov	 DWORD PTR [ecx+7484], esi
  00388	8b 35 08 00 00
	00		 mov	 esi, DWORD PTR ??_C@_0BC@NHPIBCIJ@84?960?909?9A6?910?919?$AA@+8
  0038e	89 b1 40 1d 00
	00		 mov	 DWORD PTR [ecx+7488], esi
  00394	8b 35 0c 00 00
	00		 mov	 esi, DWORD PTR ??_C@_0BC@NHPIBCIJ@84?960?909?9A6?910?919?$AA@+12
  0039a	89 b1 44 1d 00
	00		 mov	 DWORD PTR [ecx+7492], esi
  003a0	0f b7 35 10 00
	00 00		 movzx	 esi, WORD PTR ??_C@_0BC@NHPIBCIJ@84?960?909?9A6?910?919?$AA@+16
  003a7	66 89 b1 48 1d
	00 00		 mov	 WORD PTR [ecx+7496], si

; 258  : 	this->List[eZtUB::DavitRazmadze].ItemSmokeEffect		= true;

  003ae	66 c7 81 35 06
	00 00 01 01	 mov	 WORD PTR [ecx+1589], 257 ; 00000101H

; 259  : 	this->List[eZtUB::DavitRazmadze].Monster		= true;
; 260  : 	this->List[eZtUB::DavitRazmadze].AntiCheatPlus		= true;

  003b7	88 81 2e 06 00
	00		 mov	 BYTE PTR [ecx+1582], al

; 261  : 	this->List[eZtUB::DavitRazmadze].TvTEvent		= true;

  003bd	88 81 25 06 00
	00		 mov	 BYTE PTR [ecx+1573], al

; 262  : 	this->List[eZtUB::DavitRazmadze].bAchievements		= true;

  003c3	88 81 41 06 00
	00		 mov	 BYTE PTR [ecx+1601], al

; 263  : 	// ----
; 264  : 	strcpy(this->List[eZtUB::lemiks].Login,			"lemiks");

  003c9	8b 35 00 00 00
	00		 mov	 esi, DWORD PTR ??_C@_06BBKAJNHI@lemiks?$AA@
  003cf	89 b1 4c 06 00
	00		 mov	 DWORD PTR [ecx+1612], esi
  003d5	0f b7 35 04 00
	00 00		 movzx	 esi, WORD PTR ??_C@_06BBKAJNHI@lemiks?$AA@+4
  003dc	66 89 b1 50 06
	00 00		 mov	 WORD PTR [ecx+1616], si
  003e3	0f b6 1d 06 00
	00 00		 movzx	 ebx, BYTE PTR ??_C@_06BBKAJNHI@lemiks?$AA@+6
  003ea	88 99 52 06 00
	00		 mov	 BYTE PTR [ecx+1618], bl

; 265  : 	this->List[eZtUB::lemiks].hwid				= 3029767103;

  003f0	c7 81 70 06 00
	00 bf 93 96 b4	 mov	 DWORD PTR [ecx+1648], -1265200193 ; b49693bfH

; 266  : 	this->List[eZtUB::lemiks].GrandHero				= true;

  003fa	88 81 a2 06 00
	00		 mov	 BYTE PTR [ecx+1698], al

; 267  : 	this->List[eZtUB::lemiks].Brotherhood			= true;

  00400	88 81 a4 06 00
	00		 mov	 BYTE PTR [ecx+1700], al

; 268  : 	this->List[eZtUB::lemiks].Monster				= true;

  00406	66 c7 81 b1 06
	00 00 01 01	 mov	 WORD PTR [ecx+1713], 257 ; 00000101H

; 269  : 	this->List[eZtUB::lemiks].ItemSmokeEffect		= true;
; 270  : 	this->List[eZtUB::lemiks].MonsterAttackLife		= true;

  0040f	88 81 b8 06 00
	00		 mov	 BYTE PTR [ecx+1720], al

; 271  : 	this->List[eZtUB::lemiks].GrandDinamicExp		= true;

  00415	88 81 b3 06 00
	00		 mov	 BYTE PTR [ecx+1715], al

; 272  : 	// ----
; 273  : 	strcpy(this->List[eZtUB::spoke].Login,			"spoke");

  0041b	8b 35 00 00 00
	00		 mov	 esi, DWORD PTR ??_C@_05FBEJNIK@spoke?$AA@
  00421	89 b1 c8 06 00
	00		 mov	 DWORD PTR [ecx+1736], esi
  00427	0f b7 35 04 00
	00 00		 movzx	 esi, WORD PTR ??_C@_05FBEJNIK@spoke?$AA@+4
  0042e	66 89 b1 cc 06
	00 00		 mov	 WORD PTR [ecx+1740], si

; 274  : 	this->List[eZtUB::spoke].hwid					= 2461314075;

  00435	c7 81 ec 06 00
	00 1b ac b4 92	 mov	 DWORD PTR [ecx+1772], -1833653221 ; 92b4ac1bH

; 275  : 	this->List[eZtUB::spoke].Monster				= true;

  0043f	88 81 2d 07 00
	00		 mov	 BYTE PTR [ecx+1837], al

; 276  : 	// ----
; 277  : 	strcpy(this->List[eZtUB::Daboy_1].Login,		"Daboy_1");

  00445	8b 35 00 00 00
	00		 mov	 esi, DWORD PTR ??_C@_07PDBPGEDE@Daboy_1?$AA@
  0044b	89 b1 44 07 00
	00		 mov	 DWORD PTR [ecx+1860], esi
  00451	8b 35 04 00 00
	00		 mov	 esi, DWORD PTR ??_C@_07PDBPGEDE@Daboy_1?$AA@+4
  00457	89 b1 48 07 00
	00		 mov	 DWORD PTR [ecx+1864], esi

; 278  : 	this->List[eZtUB::Daboy_1].hwid				= 1081550485;

  0045d	c7 81 68 07 00
	00 95 26 77 40	 mov	 DWORD PTR [ecx+1896], 1081550485 ; 40772695H

; 279  : 	// ----
; 280  : 	strcpy(this->List[eZtUB::Daboy_2].Login,		"Daboy_2");

  00467	8b 35 00 00 00
	00		 mov	 esi, DWORD PTR ??_C@_07NIDCDHPH@Daboy_2?$AA@
  0046d	89 b1 c0 07 00
	00		 mov	 DWORD PTR [ecx+1984], esi
  00473	8b 35 04 00 00
	00		 mov	 esi, DWORD PTR ??_C@_07NIDCDHPH@Daboy_2?$AA@+4
  00479	89 b1 c4 07 00
	00		 mov	 DWORD PTR [ecx+1988], esi

; 281  : 	this->List[eZtUB::Daboy_2].hwid				= 3102437392;

  0047f	c7 81 e4 07 00
	00 10 70 eb b8	 mov	 DWORD PTR [ecx+2020], -1192529904 ; b8eb7010H

; 282  : 	// ----
; 283  : 	strcpy(this->List[eZtUB::Encode].Login,			"Encode");

  00489	8b 35 00 00 00
	00		 mov	 esi, DWORD PTR ??_C@_06KMNNACKD@Encode?$AA@
  0048f	89 b1 3c 08 00
	00		 mov	 DWORD PTR [ecx+2108], esi
  00495	0f b7 35 04 00
	00 00		 movzx	 esi, WORD PTR ??_C@_06KMNNACKD@Encode?$AA@+4
  0049c	66 89 b1 40 08
	00 00		 mov	 WORD PTR [ecx+2112], si
  004a3	0f b6 1d 06 00
	00 00		 movzx	 ebx, BYTE PTR ??_C@_06KMNNACKD@Encode?$AA@+6
  004aa	88 99 42 08 00
	00		 mov	 BYTE PTR [ecx+2114], bl

; 284  : 	this->List[eZtUB::Encode].hwid				= 2664824880;

  004b0	c7 81 60 08 00
	00 30 00 d6 9e	 mov	 DWORD PTR [ecx+2144], -1630142416 ; 9ed60030H

; 285  : 	// ----
; 286  : 	strcpy(this->List[eZtUB::Pavel].Login,			"Pavel");

  004ba	8b 35 00 00 00
	00		 mov	 esi, DWORD PTR ??_C@_05CPOBNKHG@Pavel?$AA@
  004c0	89 b1 b8 08 00
	00		 mov	 DWORD PTR [ecx+2232], esi
  004c6	0f b7 35 04 00
	00 00		 movzx	 esi, WORD PTR ??_C@_05CPOBNKHG@Pavel?$AA@+4
  004cd	66 89 b1 bc 08
	00 00		 mov	 WORD PTR [ecx+2236], si

; 287  : 	this->List[eZtUB::Pavel].hwid					= 1745027016;

  004d4	c7 81 dc 08 00
	00 c8 ff 02 68	 mov	 DWORD PTR [ecx+2268], 1745027016 ; 6802ffc8H

; 288  : 	// ----
; 289  : 	strcpy(this->List[eZtUB::PrideMu].Login,		"PrideMu");

  004de	8b 35 00 00 00
	00		 mov	 esi, DWORD PTR ??_C@_07NBLHAJFM@PrideMu?$AA@
  004e4	89 b1 34 09 00
	00		 mov	 DWORD PTR [ecx+2356], esi
  004ea	8b 35 04 00 00
	00		 mov	 esi, DWORD PTR ??_C@_07NBLHAJFM@PrideMu?$AA@+4
  004f0	89 b1 38 09 00
	00		 mov	 DWORD PTR [ecx+2360], esi

; 290  : 	this->List[eZtUB::PrideMu].hwid				= 1;	//136373629

  004f6	89 81 58 09 00
	00		 mov	 DWORD PTR [ecx+2392], eax

; 291  : 	//List[eZtUB::PrideMu].Rage						= true;
; 292  : 	//List[eZtUB::PrideMu].MonsterQuest				= true;
; 293  : 	//List[eZtUB::PrideMu].TvTEvent					= true;
; 294  : 	//List[eZtUB::PrideMu].GrandHero				= true;
; 295  : 	this->List[eZtUB::PrideMu].Monster				= true;

  004fc	66 c7 81 99 09
	00 00 01 01	 mov	 WORD PTR [ecx+2457], 257 ; 00000101H

; 296  : 	this->List[eZtUB::PrideMu].ItemSmokeEffect		= true;
; 297  : 	// ----
; 298  : 	strcpy(this->List[eZtUB::Cherkashin].Login,		"Cherkashin");

  00505	8b 35 00 00 00
	00		 mov	 esi, DWORD PTR ??_C@_0L@FHOCBAOK@Cherkashin?$AA@
  0050b	89 b1 b0 09 00
	00		 mov	 DWORD PTR [ecx+2480], esi
  00511	8b 35 04 00 00
	00		 mov	 esi, DWORD PTR ??_C@_0L@FHOCBAOK@Cherkashin?$AA@+4
  00517	89 b1 b4 09 00
	00		 mov	 DWORD PTR [ecx+2484], esi
  0051d	0f b7 35 08 00
	00 00		 movzx	 esi, WORD PTR ??_C@_0L@FHOCBAOK@Cherkashin?$AA@+8
  00524	66 89 b1 b8 09
	00 00		 mov	 WORD PTR [ecx+2488], si
  0052b	0f b6 1d 0a 00
	00 00		 movzx	 ebx, BYTE PTR ??_C@_0L@FHOCBAOK@Cherkashin?$AA@+10
  00532	88 99 ba 09 00
	00		 mov	 BYTE PTR [ecx+2490], bl

; 299  : 	this->List[eZtUB::Cherkashin].hwid			= 3422826830;

  00538	c7 81 d4 09 00
	00 4e 31 04 cc	 mov	 DWORD PTR [ecx+2516], -872140466 ; cc04314eH

; 300  : 	this->List[eZtUB::Cherkashin].Monster			= true;

  00542	88 81 15 0a 00
	00		 mov	 BYTE PTR [ecx+2581], al

; 301  : 	// ----
; 302  : 	strcpy(this->List[eZtUB::Semushkin].Login,		"Semushkin");

  00548	8b 35 00 00 00
	00		 mov	 esi, DWORD PTR ??_C@_09NJLHKBKI@Semushkin?$AA@
  0054e	89 b1 2c 0a 00
	00		 mov	 DWORD PTR [ecx+2604], esi
  00554	8b 35 04 00 00
	00		 mov	 esi, DWORD PTR ??_C@_09NJLHKBKI@Semushkin?$AA@+4
  0055a	89 b1 30 0a 00
	00		 mov	 DWORD PTR [ecx+2608], esi
  00560	0f b7 35 08 00
	00 00		 movzx	 esi, WORD PTR ??_C@_09NJLHKBKI@Semushkin?$AA@+8
  00567	66 89 b1 34 0a
	00 00		 mov	 WORD PTR [ecx+2612], si

; 303  : 	this->List[eZtUB::Semushkin].hwid				= 2149325968;

  0056e	c7 81 50 0a 00
	00 90 1c 1c 80	 mov	 DWORD PTR [ecx+2640], -2145641328 ; 801c1c90H

; 304  : 	// ----
; 305  : 	strcpy(this->List[eZtUB::Gints_2].Login,		"Gints_2");

  00578	8b 35 00 00 00
	00		 mov	 esi, DWORD PTR ??_C@_07GKBNPIPP@Gints_2?$AA@
  0057e	89 b1 a8 0a 00
	00		 mov	 DWORD PTR [ecx+2728], esi
  00584	8b 35 04 00 00
	00		 mov	 esi, DWORD PTR ??_C@_07GKBNPIPP@Gints_2?$AA@+4
  0058a	89 b1 ac 0a 00
	00		 mov	 DWORD PTR [ecx+2732], esi

; 306  : 	this->List[eZtUB::Gints_2].hwid				= 2556587903;

  00590	c7 81 cc 0a 00
	00 7f 6f 62 98	 mov	 DWORD PTR [ecx+2764], -1738379393 ; 98626f7fH

; 307  : 	this->List[eZtUB::Gints_2].Rage					= true;

  0059a	88 81 f9 0a 00
	00		 mov	 BYTE PTR [ecx+2809], al

; 308  : 	this->List[eZtUB::Gints_2].GrandHero			= true;

  005a0	66 c7 81 fe 0a
	00 00 01 01	 mov	 WORD PTR [ecx+2814], 257 ; 00000101H

; 309  : 	this->List[eZtUB::Gints_2].PartySystem			= true;
; 310  : 	this->List[eZtUB::Gints_2].MonsterQuest			= true;

  005a9	88 81 fc 0a 00
	00		 mov	 BYTE PTR [ecx+2812], al

; 311  : 	this->List[eZtUB::Gints_2].AntiCheatPlus		= true;

  005af	88 81 06 0b 00
	00		 mov	 BYTE PTR [ecx+2822], al

; 312  : 	this->List[eZtUB::Gints_2].ComboCustom			= true;

  005b5	88 81 08 0b 00
	00		 mov	 BYTE PTR [ecx+2824], al

; 313  : 	this->List[eZtUB::Gints_2].Brotherhood			= true;

  005bb	88 81 00 0b 00
	00		 mov	 BYTE PTR [ecx+2816], al

; 314  : 	this->List[eZtUB::Gints_2].NpcBuffer			= true;

  005c1	88 81 09 0b 00
	00		 mov	 BYTE PTR [ecx+2825], al

; 315  : 	this->List[eZtUB::Gints_2].Monster				= true;

  005c7	66 c7 81 0d 0b
	00 00 01 01	 mov	 WORD PTR [ecx+2829], 257 ; 00000101H

; 316  : 	this->List[eZtUB::Gints_2].ItemSmokeEffect		= true;
; 317  : 	// ----
; 318  : 	strcpy(this->List[eZtUB::zerocool].Login,		"zerocool");

  005d0	8b 35 00 00 00
	00		 mov	 esi, DWORD PTR ??_C@_08FBDBDCDG@zerocool?$AA@
  005d6	89 b1 24 0b 00
	00		 mov	 DWORD PTR [ecx+2852], esi
  005dc	8b 35 04 00 00
	00		 mov	 esi, DWORD PTR ??_C@_08FBDBDCDG@zerocool?$AA@+4
  005e2	89 b1 28 0b 00
	00		 mov	 DWORD PTR [ecx+2856], esi
  005e8	0f b6 1d 08 00
	00 00		 movzx	 ebx, BYTE PTR ??_C@_08FBDBDCDG@zerocool?$AA@+8
  005ef	88 99 2c 0b 00
	00		 mov	 BYTE PTR [ecx+2860], bl

; 319  : 	this->List[eZtUB::zerocool].hwid				= 3358746164;

  005f5	c7 81 48 0b 00
	00 34 66 32 c8	 mov	 DWORD PTR [ecx+2888], -936221132 ; c8326634H

; 320  : 	// ----
; 321  : 	strcpy(this->List[eZtUB::Vadim_2].Login,		"Vadim_2");

  005ff	8b 35 00 00 00
	00		 mov	 esi, DWORD PTR ??_C@_07GAMONHNE@Vadim_2?$AA@
  00605	89 b1 a0 0b 00
	00		 mov	 DWORD PTR [ecx+2976], esi
  0060b	8b 35 04 00 00
	00		 mov	 esi, DWORD PTR ??_C@_07GAMONHNE@Vadim_2?$AA@+4
  00611	89 b1 a4 0b 00
	00		 mov	 DWORD PTR [ecx+2980], esi

; 322  : 	this->List[eZtUB::Vadim_2].hwid				= 1684392689;

  00617	c7 81 c4 0b 00
	00 f1 ca 65 64	 mov	 DWORD PTR [ecx+3012], 1684392689 ; 6465caf1H

; 323  : 	// ----
; 324  : 	strcpy(this->List[eZtUB::ulasevich].Login,		"ulasevich");	//  

  00621	8b 35 00 00 00
	00		 mov	 esi, DWORD PTR ??_C@_09PILDGGKP@ulasevich?$AA@
  00627	89 b1 1c 0c 00
	00		 mov	 DWORD PTR [ecx+3100], esi
  0062d	8b 35 04 00 00
	00		 mov	 esi, DWORD PTR ??_C@_09PILDGGKP@ulasevich?$AA@+4
  00633	89 b1 20 0c 00
	00		 mov	 DWORD PTR [ecx+3104], esi
  00639	0f b7 35 08 00
	00 00		 movzx	 esi, WORD PTR ??_C@_09PILDGGKP@ulasevich?$AA@+8
  00640	66 89 b1 24 0c
	00 00		 mov	 WORD PTR [ecx+3108], si

; 325  : 	this->List[eZtUB::ulasevich].hwid				= 471417973;// 3632441894;

  00647	c7 81 40 0c 00
	00 75 44 19 1c	 mov	 DWORD PTR [ecx+3136], 471417973 ; 1c194475H

; 326  : 	strcpy(this->List[eZtUB::Artem].mac,			"00-25-22-C2-E0-AF");

  00651	8b 35 00 00 00
	00		 mov	 esi, DWORD PTR ??_C@_0BC@LEDNONFN@00?925?922?9C2?9E0?9AF?$AA@
  00657	89 b1 60 18 00
	00		 mov	 DWORD PTR [ecx+6240], esi
  0065d	8b 35 04 00 00
	00		 mov	 esi, DWORD PTR ??_C@_0BC@LEDNONFN@00?925?922?9C2?9E0?9AF?$AA@+4
  00663	89 b1 64 18 00
	00		 mov	 DWORD PTR [ecx+6244], esi
  00669	8b 35 08 00 00
	00		 mov	 esi, DWORD PTR ??_C@_0BC@LEDNONFN@00?925?922?9C2?9E0?9AF?$AA@+8
  0066f	89 b1 68 18 00
	00		 mov	 DWORD PTR [ecx+6248], esi
  00675	8b 35 0c 00 00
	00		 mov	 esi, DWORD PTR ??_C@_0BC@LEDNONFN@00?925?922?9C2?9E0?9AF?$AA@+12
  0067b	89 b1 6c 18 00
	00		 mov	 DWORD PTR [ecx+6252], esi
  00681	0f b7 35 10 00
	00 00		 movzx	 esi, WORD PTR ??_C@_0BC@LEDNONFN@00?925?922?9C2?9E0?9AF?$AA@+16
  00688	66 89 b1 70 18
	00 00		 mov	 WORD PTR [ecx+6256], si

; 327  : 	this->List[eZtUB::ulasevich].BloodHound			= true;

  0068f	88 81 6f 0c 00
	00		 mov	 BYTE PTR [ecx+3183], al

; 328  : 	this->List[eZtUB::ulasevich].Rage				= true;

  00695	88 81 6d 0c 00
	00		 mov	 BYTE PTR [ecx+3181], al

; 329  : 	this->List[eZtUB::ulasevich].MonsterQuest		= true;

  0069b	88 81 70 0c 00
	00		 mov	 BYTE PTR [ecx+3184], al

; 330  : 	this->List[eZtUB::ulasevich].Brotherhood		= true;

  006a1	88 81 74 0c 00
	00		 mov	 BYTE PTR [ecx+3188], al

; 331  : 	this->List[eZtUB::ulasevich].AntiCheatPlus		= true;

  006a7	88 81 7a 0c 00
	00		 mov	 BYTE PTR [ecx+3194], al

; 332  : 	this->List[eZtUB::ulasevich].BMQuest			= true;

  006ad	88 81 7e 0c 00
	00		 mov	 BYTE PTR [ecx+3198], al

; 333  : 	this->List[eZtUB::ulasevich].PandoraEvent		= true;

  006b3	88 81 79 0c 00
	00		 mov	 BYTE PTR [ecx+3193], al

; 334  : 	this->List[eZtUB::ulasevich].bRankItem			= true;

  006b9	88 81 89 0c 00
	00		 mov	 BYTE PTR [ecx+3209], al

; 335  : 	this->List[eZtUB::ulasevich].PremiumZt			= true;

  006bf	88 81 8e 0c 00
	00		 mov	 BYTE PTR [ecx+3214], al

; 336  : 	this->List[eZtUB::ulasevich].Smithy				= true;

  006c5	88 81 80 0c 00
	00		 mov	 BYTE PTR [ecx+3200], al

; 337  : 	this->List[eZtUB::ulasevich].OfflineMode		= true;

  006cb	88 81 86 0c 00
	00		 mov	 BYTE PTR [ecx+3206], al

; 338  : 	this->List[eZtUB::ulasevich].PerosnalStoreZt	= true;

  006d1	66 c7 81 77 0c
	00 00 01 01	 mov	 WORD PTR [ecx+3191], 257 ; 00000101H

; 339  : 	this->List[eZtUB::ulasevich].GM_Manager			= true;		//    ? 
; 340  : 	this->List[eZtUB::ulasevich].RestoreOffMode		= true;

  006da	88 81 8a 0c 00
	00		 mov	 BYTE PTR [ecx+3210], al

; 341  : 	this->List[eZtUB::ulasevich].DisableMasterTree	= true;

  006e0	88 81 85 0c 00
	00		 mov	 BYTE PTR [ecx+3205], al

; 342  : 	this->List[eZtUB::ulasevich].bAchievements		= true;

  006e6	88 81 8d 0c 00
	00		 mov	 BYTE PTR [ecx+3213], al

; 343  : 	this->List[eZtUB::ulasevich].Monster			= true;

  006ec	88 81 81 0c 00
	00		 mov	 BYTE PTR [ecx+3201], al

; 344  : 	// ??? ?
; 345  : 	//?????
; 346  : 	// ----
; 347  : 	strcpy(this->List[eZtUB::Local2].Login,			"Local2");

  006f2	8b 35 00 00 00
	00		 mov	 esi, DWORD PTR ??_C@_06OJCPHJMN@Local2?$AA@
  006f8	89 b1 98 0c 00
	00		 mov	 DWORD PTR [ecx+3224], esi
  006fe	0f b7 35 04 00
	00 00		 movzx	 esi, WORD PTR ??_C@_06OJCPHJMN@Local2?$AA@+4
  00705	66 89 b1 9c 0c
	00 00		 mov	 WORD PTR [ecx+3228], si
  0070c	0f b6 1d 06 00
	00 00		 movzx	 ebx, BYTE PTR ??_C@_06OJCPHJMN@Local2?$AA@+6
  00713	88 99 9e 0c 00
	00		 mov	 BYTE PTR [ecx+3230], bl

; 348  : 	this->List[eZtUB::Local2].hwid					= 3962621275;

  00719	c7 81 bc 0c 00
	00 5b cd 30 ec	 mov	 DWORD PTR [ecx+3260], -332346021 ; ec30cd5bH

; 349  : 	this->List[eZtUB::Local2].Rage					= true;

  00723	88 81 e9 0c 00
	00		 mov	 BYTE PTR [ecx+3305], al

; 350  : 	this->List[eZtUB::Local2].BloodHound			= true;

  00729	66 c7 81 eb 0c
	00 00 01 01	 mov	 WORD PTR [ecx+3307], 257 ; 00000101H

; 351  : 	this->List[eZtUB::Local2].MonsterQuest			= true;
; 352  : 	this->List[eZtUB::Local2].TvTEvent				= true;

  00732	66 c7 81 ed 0c
	00 00 01 01	 mov	 WORD PTR [ecx+3309], 257 ; 00000101H

; 353  : 	this->List[eZtUB::Local2].GrandHero				= true;
; 354  : 	// ----
; 355  : 	strcpy(this->List[eZtUB::DavitRazmadze2].Login, "DavitRazmadze2");

  0073b	8b 35 00 00 00
	00		 mov	 esi, DWORD PTR ??_C@_0P@LBJECLDH@DavitRazmadze2?$AA@
  00741	89 b1 14 0d 00
	00		 mov	 DWORD PTR [ecx+3348], esi
  00747	8b 35 04 00 00
	00		 mov	 esi, DWORD PTR ??_C@_0P@LBJECLDH@DavitRazmadze2?$AA@+4
  0074d	89 b1 18 0d 00
	00		 mov	 DWORD PTR [ecx+3352], esi
  00753	8b 35 08 00 00
	00		 mov	 esi, DWORD PTR ??_C@_0P@LBJECLDH@DavitRazmadze2?$AA@+8
  00759	89 b1 1c 0d 00
	00		 mov	 DWORD PTR [ecx+3356], esi
  0075f	0f b7 35 0c 00
	00 00		 movzx	 esi, WORD PTR ??_C@_0P@LBJECLDH@DavitRazmadze2?$AA@+12
  00766	66 89 b1 20 0d
	00 00		 mov	 WORD PTR [ecx+3360], si
  0076d	0f b6 1d 0e 00
	00 00		 movzx	 ebx, BYTE PTR ??_C@_0P@LBJECLDH@DavitRazmadze2?$AA@+14
  00774	88 99 22 0d 00
	00		 mov	 BYTE PTR [ecx+3362], bl

; 356  : 	this->List[eZtUB::DavitRazmadze2].hwid		= 3496675938;

  0077a	c7 81 38 0d 00
	00 62 0a 6b d0	 mov	 DWORD PTR [ecx+3384], -798291358 ; d06b0a62H

; 357  : 	this->List[eZtUB::DavitRazmadze2].ItemSmokeEffect		= true;

  00784	66 c7 81 79 0d
	00 00 01 01	 mov	 WORD PTR [ecx+3449], 257 ; 00000101H

; 358  : 	this->List[eZtUB::DavitRazmadze2].Monster		= true;
; 359  : 	this->List[eZtUB::DavitRazmadze2].AntiCheatPlus		= true;

  0078d	88 81 72 0d 00
	00		 mov	 BYTE PTR [ecx+3442], al

; 360  : 	this->List[eZtUB::DavitRazmadze2].TvTEvent		= true;

  00793	88 81 69 0d 00
	00		 mov	 BYTE PTR [ecx+3433], al

; 361  : 	this->List[eZtUB::DavitRazmadze2].bAchievements		= true;

  00799	88 81 85 0d 00
	00		 mov	 BYTE PTR [ecx+3461], al

; 362  : 	// ----
; 363  : 	strcpy(this->List[eZtUB::DavitRazmadze3].Login, "DavitRazmadze3");

  0079f	8b 35 00 00 00
	00		 mov	 esi, DWORD PTR ??_C@_0P@KIIPBKHG@DavitRazmadze3?$AA@
  007a5	89 b1 04 0f 00
	00		 mov	 DWORD PTR [ecx+3844], esi
  007ab	8b 35 04 00 00
	00		 mov	 esi, DWORD PTR ??_C@_0P@KIIPBKHG@DavitRazmadze3?$AA@+4
  007b1	89 b1 08 0f 00
	00		 mov	 DWORD PTR [ecx+3848], esi
  007b7	8b 35 08 00 00
	00		 mov	 esi, DWORD PTR ??_C@_0P@KIIPBKHG@DavitRazmadze3?$AA@+8
  007bd	89 b1 0c 0f 00
	00		 mov	 DWORD PTR [ecx+3852], esi
  007c3	0f b7 35 0c 00
	00 00		 movzx	 esi, WORD PTR ??_C@_0P@KIIPBKHG@DavitRazmadze3?$AA@+12
  007ca	66 89 b1 10 0f
	00 00		 mov	 WORD PTR [ecx+3856], si
  007d1	0f b6 1d 0e 00
	00 00		 movzx	 ebx, BYTE PTR ??_C@_0P@KIIPBKHG@DavitRazmadze3?$AA@+14
  007d8	88 99 12 0f 00
	00		 mov	 BYTE PTR [ecx+3858], bl

; 364  : 	this->List[eZtUB::DavitRazmadze3].hwid		= 2361010737;

  007de	c7 81 28 0f 00
	00 31 2a ba 8c	 mov	 DWORD PTR [ecx+3880], -1933956559 ; 8cba2a31H

; 365  : 	this->List[eZtUB::DavitRazmadze3].ItemSmokeEffect		= true;

  007e8	66 c7 81 69 0f
	00 00 01 01	 mov	 WORD PTR [ecx+3945], 257 ; 00000101H

; 366  : 	this->List[eZtUB::DavitRazmadze3].Monster		= true;
; 367  : 	this->List[eZtUB::DavitRazmadze3].AntiCheatPlus		= true;

  007f1	88 81 62 0f 00
	00		 mov	 BYTE PTR [ecx+3938], al

; 368  : 	this->List[eZtUB::DavitRazmadze3].TvTEvent		= true;

  007f7	88 81 59 0f 00
	00		 mov	 BYTE PTR [ecx+3929], al

; 369  : 	this->List[eZtUB::DavitRazmadze3].bAchievements		= true;

  007fd	88 81 75 0f 00
	00		 mov	 BYTE PTR [ecx+3957], al

; 370  : 	// ----
; 371  : 	strcpy(this->List[eZtUB::PrideMuLocal].Login,	"PrideMuLocal");

  00803	8b 35 00 00 00
	00		 mov	 esi, DWORD PTR ??_C@_0N@BCOPIGFB@PrideMuLocal?$AA@
  00809	89 b1 90 0d 00
	00		 mov	 DWORD PTR [ecx+3472], esi
  0080f	8b 35 04 00 00
	00		 mov	 esi, DWORD PTR ??_C@_0N@BCOPIGFB@PrideMuLocal?$AA@+4
  00815	89 b1 94 0d 00
	00		 mov	 DWORD PTR [ecx+3476], esi
  0081b	8b 35 08 00 00
	00		 mov	 esi, DWORD PTR ??_C@_0N@BCOPIGFB@PrideMuLocal?$AA@+8
  00821	89 b1 98 0d 00
	00		 mov	 DWORD PTR [ecx+3480], esi
  00827	0f b6 1d 0c 00
	00 00		 movzx	 ebx, BYTE PTR ??_C@_0N@BCOPIGFB@PrideMuLocal?$AA@+12
  0082e	88 99 9c 0d 00
	00		 mov	 BYTE PTR [ecx+3484], bl

; 372  : 	this->List[eZtUB::PrideMuLocal].hwid			= 102821109;

  00834	c7 81 b4 0d 00
	00 f5 ec 20 06	 mov	 DWORD PTR [ecx+3508], 102821109 ; 0620ecf5H

; 373  : 	this->List[eZtUB::PrideMuLocal].Rage			= true;

  0083e	88 81 e1 0d 00
	00		 mov	 BYTE PTR [ecx+3553], al

; 374  : 	this->List[eZtUB::PrideMuLocal].MonsterQuest	= true;

  00844	66 c7 81 e4 0d
	00 00 01 01	 mov	 WORD PTR [ecx+3556], 257 ; 00000101H

; 375  : 	this->List[eZtUB::PrideMuLocal].TvTEvent		= true;
; 376  : 	this->List[eZtUB::PrideMuLocal].GrandHero		= true;

  0084d	88 81 e6 0d 00
	00		 mov	 BYTE PTR [ecx+3558], al

; 377  : 	this->List[eZtUB::PrideMuLocal].Monster			= true;

  00853	66 c7 81 f5 0d
	00 00 01 01	 mov	 WORD PTR [ecx+3573], 257 ; 00000101H

; 378  : 	this->List[eZtUB::PrideMuLocal].ItemSmokeEffect	= true;
; 379  : 	// ----
; 380  : 	strcpy(this->List[eZtUB::lexbzk].Login,			"lexbzk");

  0085c	8b 35 00 00 00
	00		 mov	 esi, DWORD PTR ??_C@_06PBFOFDJF@lexbzk?$AA@
  00862	89 b1 0c 0e 00
	00		 mov	 DWORD PTR [ecx+3596], esi
  00868	0f b7 35 04 00
	00 00		 movzx	 esi, WORD PTR ??_C@_06PBFOFDJF@lexbzk?$AA@+4
  0086f	66 89 b1 10 0e
	00 00		 mov	 WORD PTR [ecx+3600], si
  00876	0f b6 1d 06 00
	00 00		 movzx	 ebx, BYTE PTR ??_C@_06PBFOFDJF@lexbzk?$AA@+6
  0087d	88 99 12 0e 00
	00		 mov	 BYTE PTR [ecx+3602], bl

; 381  : 	this->List[eZtUB::lexbzk].hwid				= 308214326;

  00883	c7 81 30 0e 00
	00 36 fa 5e 12	 mov	 DWORD PTR [ecx+3632], 308214326 ; 125efa36H

; 382  : 	// ----
; 383  : 	strcpy(this->List[eZtUB::Local3].Login,			"Local3");

  0088d	8b 35 00 00 00
	00		 mov	 esi, DWORD PTR ??_C@_06PADEEIIM@Local3?$AA@
  00893	89 b1 88 0e 00
	00		 mov	 DWORD PTR [ecx+3720], esi
  00899	0f b7 35 04 00
	00 00		 movzx	 esi, WORD PTR ??_C@_06PADEEIIM@Local3?$AA@+4
  008a0	66 89 b1 8c 0e
	00 00		 mov	 WORD PTR [ecx+3724], si
  008a7	0f b6 1d 06 00
	00 00		 movzx	 ebx, BYTE PTR ??_C@_06PADEEIIM@Local3?$AA@+6
  008ae	88 99 8e 0e 00
	00		 mov	 BYTE PTR [ecx+3726], bl

; 384  : 	this->List[eZtUB::Local3].hwid				= 1518866620;

  008b4	c7 81 ac 0e 00
	00 bc 10 88 5a	 mov	 DWORD PTR [ecx+3756], 1518866620 ; 5a8810bcH

; 385  : 	this->List[eZtUB::Local3].Rage					= true;

  008be	88 81 d9 0e 00
	00		 mov	 BYTE PTR [ecx+3801], al

; 386  : 	this->List[eZtUB::Local3].MonsterQuest			= true;

  008c4	66 c7 81 dc 0e
	00 00 01 01	 mov	 WORD PTR [ecx+3804], 257 ; 00000101H

; 387  : 	this->List[eZtUB::Local3].TvTEvent				= true;
; 388  : 	this->List[eZtUB::Local3].GrandHero				= true;

  008cd	88 81 de 0e 00
	00		 mov	 BYTE PTR [ecx+3806], al

; 389  : 	// ----
; 390  : 	//strcpy(this->List[eZtUB::DavitRazmadze3].Login, "DavitRazmadze3");
; 391  : 	//this->List[eZtUB::DavitRazmadze3].hwid		= 370104553;
; 392  : 	//this->List[eZtUB::DavitRazmadze3].Monster		= true;
; 393  : 	//this->List[eZtUB::DavitRazmadze3].AntiCheatPlus		= true;
; 394  : 	// ----
; 395  : 	strcpy(this->List[eZtUB::snaker].Login,			"snaker");

  008d3	8b 35 00 00 00
	00		 mov	 esi, DWORD PTR ??_C@_06JGINLIFN@snaker?$AA@
  008d9	89 b1 80 0f 00
	00		 mov	 DWORD PTR [ecx+3968], esi
  008df	0f b7 35 04 00
	00 00		 movzx	 esi, WORD PTR ??_C@_06JGINLIFN@snaker?$AA@+4
  008e6	66 89 b1 84 0f
	00 00		 mov	 WORD PTR [ecx+3972], si
  008ed	0f b6 1d 06 00
	00 00		 movzx	 ebx, BYTE PTR ??_C@_06JGINLIFN@snaker?$AA@+6
  008f4	88 99 86 0f 00
	00		 mov	 BYTE PTR [ecx+3974], bl

; 396  : 	this->List[eZtUB::snaker].hwid				= 4230177721;

  008fa	c7 81 a4 0f 00
	00 b9 63 23 fc	 mov	 DWORD PTR [ecx+4004], -64789575 ; fc2363b9H

; 397  : 	this->List[eZtUB::snaker].Rage					= true;

  00904	88 81 d1 0f 00
	00		 mov	 BYTE PTR [ecx+4049], al

; 398  : 	this->List[eZtUB::snaker].MonsterQuest			= true;

  0090a	66 c7 81 d4 0f
	00 00 01 01	 mov	 WORD PTR [ecx+4052], 257 ; 00000101H

; 399  : 	this->List[eZtUB::snaker].TvTEvent				= true;
; 400  : 	this->List[eZtUB::snaker].GrandHero				= true;

  00913	88 81 d6 0f 00
	00		 mov	 BYTE PTR [ecx+4054], al

; 401  : 	this->List[eZtUB::snaker].Monster				= true;

  00919	66 c7 81 e5 0f
	00 00 01 01	 mov	 WORD PTR [ecx+4069], 257 ; 00000101H

; 402  : 	this->List[eZtUB::snaker].ItemSmokeEffect		= true;
; 403  : 	// ----
; 404  : 	strcpy(this->List[eZtUB::testuser].Login,		"testuser");

  00922	8b 35 00 00 00
	00		 mov	 esi, DWORD PTR ??_C@_08HKCMCAEE@testuser?$AA@
  00928	89 b1 fc 0f 00
	00		 mov	 DWORD PTR [ecx+4092], esi
  0092e	8b 35 04 00 00
	00		 mov	 esi, DWORD PTR ??_C@_08HKCMCAEE@testuser?$AA@+4
  00934	89 b1 00 10 00
	00		 mov	 DWORD PTR [ecx+4096], esi
  0093a	0f b6 1d 08 00
	00 00		 movzx	 ebx, BYTE PTR ??_C@_08HKCMCAEE@testuser?$AA@+8
  00941	88 99 04 10 00
	00		 mov	 BYTE PTR [ecx+4100], bl

; 405  : 	this->List[eZtUB::testuser].hwid				= 3834831223;

  00947	c7 81 20 10 00
	00 77 e1 92 e4	 mov	 DWORD PTR [ecx+4128], -460136073 ; e492e177H

; 406  : 	// ----
; 407  : 	strcpy(this->List[eZtUB::Gredy].Login,			"Gredy");

  00951	8b 35 00 00 00
	00		 mov	 esi, DWORD PTR ??_C@_05GCKJHBFF@Gredy?$AA@
  00957	89 b1 78 10 00
	00		 mov	 DWORD PTR [ecx+4216], esi
  0095d	0f b7 35 04 00
	00 00		 movzx	 esi, WORD PTR ??_C@_05GCKJHBFF@Gredy?$AA@+4
  00964	66 89 b1 7c 10
	00 00		 mov	 WORD PTR [ecx+4220], si

; 408  : 	this->List[eZtUB::Gredy].hwid					= 1009564418;	//1009564418

  0096b	c7 81 9c 10 00
	00 02 bb 2c 3c	 mov	 DWORD PTR [ecx+4252], 1009564418 ; 3c2cbb02H

; 409  : 	this->List[eZtUB::Gredy].TvTEvent				= true;

  00975	88 81 cd 10 00
	00		 mov	 BYTE PTR [ecx+4301], al

; 410  : 	this->List[eZtUB::Gredy].PerosnalStoreZt		= true;

  0097b	66 c7 81 d3 10
	00 00 01 01	 mov	 WORD PTR [ecx+4307], 257 ; 00000101H

; 411  : 	this->List[eZtUB::Gredy].GM_Manager				= true;
; 412  : 	this->List[eZtUB::Gredy].AntiCheatPlus			= true;

  00984	66 c7 81 d6 10
	00 00 01 01	 mov	 WORD PTR [ecx+4310], 257 ; 00000101H

; 413  : 	this->List[eZtUB::Gredy].SpotReturn				= true;
; 414  : 	this->List[eZtUB::Gredy].PandoraEvent			= true;

  0098d	88 81 d5 10 00
	00		 mov	 BYTE PTR [ecx+4309], al

; 415  : 	this->List[eZtUB::Gredy].LoraBattle				= true;

  00993	66 c7 81 db 10
	00 00 01 01	 mov	 WORD PTR [ecx+4315], 257 ; 00000101H

; 416  : 	this->List[eZtUB::Gredy].Smithy					= true;
; 417  : 	this->List[eZtUB::Gredy].GrandDinamicExp		= true;

  0099c	88 81 df 10 00
	00		 mov	 BYTE PTR [ecx+4319], al

; 418  : 	//this->List[eZtUB::Gredy].DisableMasterTree		= true;
; 419  : 	this->List[eZtUB::Gredy].Rage					= true;

  009a2	88 81 c9 10 00
	00		 mov	 BYTE PTR [ecx+4297], al

; 420  : 	this->List[eZtUB::Gredy].OfflineMode			= true;

  009a8	88 81 e2 10 00
	00		 mov	 BYTE PTR [ecx+4322], al

; 421  : 	this->List[eZtUB::Gredy].Monster				= true;

  009ae	88 81 dd 10 00
	00		 mov	 BYTE PTR [ecx+4317], al

; 422  : 	this->List[eZtUB::Gredy].Marriage				= true;

  009b4	88 81 e3 10 00
	00		 mov	 BYTE PTR [ecx+4323], al

; 423  : 	this->List[eZtUB::Gredy].NpcBuffer				= true;

  009ba	88 81 d9 10 00
	00		 mov	 BYTE PTR [ecx+4313], al

; 424  : 	this->List[eZtUB::Gredy].bRankItem				= true;

  009c0	66 c7 81 e5 10
	00 00 01 01	 mov	 WORD PTR [ecx+4325], 257 ; 00000101H

; 425  : 	this->List[eZtUB::Gredy].RestoreOffMode			= true;
; 426  : 	this->List[eZtUB::Gredy].PartySave				= true;

  009c9	88 81 e0 10 00
	00		 mov	 BYTE PTR [ecx+4320], al

; 427  : 	this->List[eZtUB::Gredy].PartySearch			= true;

  009cf	88 81 d1 10 00
	00		 mov	 BYTE PTR [ecx+4305], al

; 428  : 	this->List[eZtUB::Gredy].GrandHero				= true;

  009d5	88 81 ce 10 00
	00		 mov	 BYTE PTR [ecx+4302], al

; 429  : 	this->List[eZtUB::Gredy].MonsterQuest			= true;

  009db	88 81 cc 10 00
	00		 mov	 BYTE PTR [ecx+4300], al

; 430  : 	this->List[eZtUB::Gredy].MapQuest				= true;

  009e1	88 81 e7 10 00
	00		 mov	 BYTE PTR [ecx+4327], al

; 431  : 	this->List[eZtUB::Gredy].bAchievements			= true;

  009e7	66 c7 81 e9 10
	00 00 01 01	 mov	 WORD PTR [ecx+4329], 257 ; 00000101H

; 432  : 	this->List[eZtUB::Gredy].PremiumZt				= true;
; 433  : 	this->List[eZtUB::Gredy].PartySystem			= true;

  009f0	88 81 cf 10 00
	00		 mov	 BYTE PTR [ecx+4303], al

; 434  : 	this->List[eZtUB::Gredy].bTeamVsTeam2			= true;

  009f6	88 81 e8 10 00
	00		 mov	 BYTE PTR [ecx+4328], al

; 435  : 	this->List[eZtUB::Gredy].ItemSmokeEffect		= true;

  009fc	88 81 de 10 00
	00		 mov	 BYTE PTR [ecx+4318], al

; 436  : 	this->List[eZtUB::Gredy].AccSecurity			= true;

  00a02	66 c7 81 eb 10
	00 00 01 01	 mov	 WORD PTR [ecx+4331], 257 ; 00000101H

; 437  : 	this->List[eZtUB::Gredy].CraftQuestSystem		= true;
; 438  : 	// ----
; 439  : 	strcpy(this->List[eZtUB::GredyLocal].Login,		"GredyLocal");

  00a0b	8b 35 00 00 00
	00		 mov	 esi, DWORD PTR ??_C@_0L@GICEBPFC@GredyLocal?$AA@
  00a11	89 b1 f4 10 00
	00		 mov	 DWORD PTR [ecx+4340], esi
  00a17	8b 35 04 00 00
	00		 mov	 esi, DWORD PTR ??_C@_0L@GICEBPFC@GredyLocal?$AA@+4
  00a1d	89 b1 f8 10 00
	00		 mov	 DWORD PTR [ecx+4344], esi
  00a23	0f b7 35 08 00
	00 00		 movzx	 esi, WORD PTR ??_C@_0L@GICEBPFC@GredyLocal?$AA@+8
  00a2a	66 89 b1 fc 10
	00 00		 mov	 WORD PTR [ecx+4348], si
  00a31	0f b6 1d 0a 00
	00 00		 movzx	 ebx, BYTE PTR ??_C@_0L@GICEBPFC@GredyLocal?$AA@+10
  00a38	88 99 fe 10 00
	00		 mov	 BYTE PTR [ecx+4350], bl

; 440  : 	this->List[eZtUB::GredyLocal].hwid				= 443216415;

  00a3e	c7 81 18 11 00
	00 1f f2 6a 1a	 mov	 DWORD PTR [ecx+4376], 443216415 ; 1a6af21fH

; 441  : 	this->List[eZtUB::GredyLocal].TvTEvent			= true;

  00a48	88 81 49 11 00
	00		 mov	 BYTE PTR [ecx+4425], al

; 442  : 	this->List[eZtUB::GredyLocal].PerosnalStoreZt	= true;

  00a4e	66 c7 81 4f 11
	00 00 01 01	 mov	 WORD PTR [ecx+4431], 257 ; 00000101H

; 443  : 	this->List[eZtUB::GredyLocal].GM_Manager		= true;
; 444  : 	this->List[eZtUB::GredyLocal].AntiCheatPlus		= true;

  00a57	66 c7 81 52 11
	00 00 01 01	 mov	 WORD PTR [ecx+4434], 257 ; 00000101H

; 445  : 	this->List[eZtUB::GredyLocal].SpotReturn		= true;
; 446  : 	this->List[eZtUB::GredyLocal].PandoraEvent		= true;

  00a60	88 81 51 11 00
	00		 mov	 BYTE PTR [ecx+4433], al

; 447  : 	this->List[eZtUB::GredyLocal].LoraBattle		= true;

  00a66	66 c7 81 57 11
	00 00 01 01	 mov	 WORD PTR [ecx+4439], 257 ; 00000101H

; 448  : 	this->List[eZtUB::GredyLocal].Smithy			= true;
; 449  : 	this->List[eZtUB::GredyLocal].GrandDinamicExp	= true;

  00a6f	88 81 5b 11 00
	00		 mov	 BYTE PTR [ecx+4443], al

; 450  : 	//this->List[eZtUB::GredyLocal].DisableMasterTree	= true;
; 451  : 	this->List[eZtUB::GredyLocal].Rage				= true;

  00a75	88 81 45 11 00
	00		 mov	 BYTE PTR [ecx+4421], al

; 452  : 	this->List[eZtUB::GredyLocal].OfflineMode		= true;

  00a7b	88 81 5e 11 00
	00		 mov	 BYTE PTR [ecx+4446], al

; 453  : 	this->List[eZtUB::GredyLocal].Monster			= true;

  00a81	88 81 59 11 00
	00		 mov	 BYTE PTR [ecx+4441], al

; 454  : 	this->List[eZtUB::GredyLocal].Marriage			= true;

  00a87	88 81 5f 11 00
	00		 mov	 BYTE PTR [ecx+4447], al

; 455  : 	this->List[eZtUB::GredyLocal].NpcBuffer			= true;

  00a8d	88 81 55 11 00
	00		 mov	 BYTE PTR [ecx+4437], al

; 456  : 	this->List[eZtUB::GredyLocal].bRankItem			= true;

  00a93	66 c7 81 61 11
	00 00 01 01	 mov	 WORD PTR [ecx+4449], 257 ; 00000101H

; 457  : 	this->List[eZtUB::GredyLocal].RestoreOffMode	= true;
; 458  : 	this->List[eZtUB::GredyLocal].PartySave			= true;

  00a9c	88 81 5c 11 00
	00		 mov	 BYTE PTR [ecx+4444], al

; 459  : 	this->List[eZtUB::GredyLocal].PartySearch		= true;

  00aa2	88 81 4d 11 00
	00		 mov	 BYTE PTR [ecx+4429], al

; 460  : 	this->List[eZtUB::GredyLocal].GrandHero			= true;

  00aa8	88 81 4a 11 00
	00		 mov	 BYTE PTR [ecx+4426], al

; 461  : 	this->List[eZtUB::GredyLocal].MonsterQuest		= true;

  00aae	88 81 48 11 00
	00		 mov	 BYTE PTR [ecx+4424], al

; 462  : 	this->List[eZtUB::GredyLocal].MapQuest			= true;

  00ab4	88 81 63 11 00
	00		 mov	 BYTE PTR [ecx+4451], al

; 463  : 	this->List[eZtUB::GredyLocal].bAchievements		= true;

  00aba	66 c7 81 65 11
	00 00 01 01	 mov	 WORD PTR [ecx+4453], 257 ; 00000101H

; 464  : 	this->List[eZtUB::GredyLocal].PremiumZt			= true;
; 465  : 	this->List[eZtUB::GredyLocal].PartySystem		= true;

  00ac3	88 81 4b 11 00
	00		 mov	 BYTE PTR [ecx+4427], al

; 466  : 	this->List[eZtUB::GredyLocal].bTeamVsTeam2		= true;

  00ac9	88 81 64 11 00
	00		 mov	 BYTE PTR [ecx+4452], al

; 467  : 	this->List[eZtUB::GredyLocal].ItemSmokeEffect	= true;

  00acf	88 81 5a 11 00
	00		 mov	 BYTE PTR [ecx+4442], al

; 468  : 	this->List[eZtUB::GredyLocal].AccSecurity		= true;

  00ad5	66 c7 81 67 11
	00 00 01 01	 mov	 WORD PTR [ecx+4455], 257 ; 00000101H

; 469  : 	this->List[eZtUB::GredyLocal].CraftQuestSystem	= true;
; 470  : 	// ----
; 471  : 	strcpy(this->List[eZtUB::Gredy2].Login,			"Gredy2");

  00ade	8b 35 00 00 00
	00		 mov	 esi, DWORD PTR ??_C@_06PGBDFIHL@Gredy2?$AA@
  00ae4	89 b1 70 11 00
	00		 mov	 DWORD PTR [ecx+4464], esi
  00aea	0f b7 35 04 00
	00 00		 movzx	 esi, WORD PTR ??_C@_06PGBDFIHL@Gredy2?$AA@+4
  00af1	66 89 b1 74 11
	00 00		 mov	 WORD PTR [ecx+4468], si
  00af8	0f b6 1d 06 00
	00 00		 movzx	 ebx, BYTE PTR ??_C@_06PGBDFIHL@Gredy2?$AA@+6
  00aff	88 99 76 11 00
	00		 mov	 BYTE PTR [ecx+4470], bl

; 472  : 	this->List[eZtUB::Gredy2].hwid					= 3761286172;	// 1309694294;

  00b05	c7 81 94 11 00
	00 1c ac 30 e0	 mov	 DWORD PTR [ecx+4500], -533681124 ; e030ac1cH

; 473  : 	this->List[eZtUB::Gredy2].TvTEvent				= true;

  00b0f	88 81 c5 11 00
	00		 mov	 BYTE PTR [ecx+4549], al

; 474  : 	this->List[eZtUB::Gredy2].PerosnalStoreZt		= true;

  00b15	66 c7 81 cb 11
	00 00 01 01	 mov	 WORD PTR [ecx+4555], 257 ; 00000101H

; 475  : 	this->List[eZtUB::Gredy2].GM_Manager			= true;
; 476  : 	this->List[eZtUB::Gredy2].AntiCheatPlus			= true;

  00b1e	66 c7 81 ce 11
	00 00 01 01	 mov	 WORD PTR [ecx+4558], 257 ; 00000101H

; 477  : 	this->List[eZtUB::Gredy2].SpotReturn			= true;
; 478  : 	this->List[eZtUB::Gredy2].PandoraEvent			= true;

  00b27	88 81 cd 11 00
	00		 mov	 BYTE PTR [ecx+4557], al

; 479  : 	this->List[eZtUB::Gredy2].LoraBattle			= true;

  00b2d	66 c7 81 d3 11
	00 00 01 01	 mov	 WORD PTR [ecx+4563], 257 ; 00000101H

; 480  : 	this->List[eZtUB::Gredy2].Smithy				= true;
; 481  : 	this->List[eZtUB::Gredy2].GrandDinamicExp		= true;

  00b36	88 81 d7 11 00
	00		 mov	 BYTE PTR [ecx+4567], al

; 482  : 	//this->List[eZtUB::Gredy2].DisableMasterTree		= true;
; 483  : 	this->List[eZtUB::Gredy2].Rage					= true;

  00b3c	88 81 c1 11 00
	00		 mov	 BYTE PTR [ecx+4545], al

; 484  : 	this->List[eZtUB::Gredy2].OfflineMode			= true;

  00b42	88 81 da 11 00
	00		 mov	 BYTE PTR [ecx+4570], al

; 485  : 	this->List[eZtUB::Gredy2].Monster				= true;

  00b48	88 81 d5 11 00
	00		 mov	 BYTE PTR [ecx+4565], al

; 486  : 	this->List[eZtUB::Gredy2].Marriage				= true;

  00b4e	88 81 db 11 00
	00		 mov	 BYTE PTR [ecx+4571], al

; 487  : 	this->List[eZtUB::Gredy2].NpcBuffer				= true;

  00b54	88 81 d1 11 00
	00		 mov	 BYTE PTR [ecx+4561], al

; 488  : 	this->List[eZtUB::Gredy2].bRankItem				= true;

  00b5a	66 c7 81 dd 11
	00 00 01 01	 mov	 WORD PTR [ecx+4573], 257 ; 00000101H

; 489  : 	this->List[eZtUB::Gredy2].RestoreOffMode		= true;
; 490  : 	this->List[eZtUB::Gredy2].PartySave				= true;

  00b63	88 81 d8 11 00
	00		 mov	 BYTE PTR [ecx+4568], al

; 491  : 	this->List[eZtUB::Gredy2].PartySearch			= true;

  00b69	88 81 c9 11 00
	00		 mov	 BYTE PTR [ecx+4553], al

; 492  : 	this->List[eZtUB::Gredy2].GrandHero				= true;

  00b6f	88 81 c6 11 00
	00		 mov	 BYTE PTR [ecx+4550], al

; 493  : 	this->List[eZtUB::Gredy2].MonsterQuest			= true;

  00b75	88 81 c4 11 00
	00		 mov	 BYTE PTR [ecx+4548], al

; 494  : 	this->List[eZtUB::Gredy2].MapQuest				= true;

  00b7b	88 81 df 11 00
	00		 mov	 BYTE PTR [ecx+4575], al

; 495  : 	this->List[eZtUB::Gredy2].bAchievements			= true;

  00b81	66 c7 81 e1 11
	00 00 01 01	 mov	 WORD PTR [ecx+4577], 257 ; 00000101H

; 496  : 	this->List[eZtUB::Gredy2].PremiumZt				= true;
; 497  : 	this->List[eZtUB::Gredy2].PartySystem			= true;

  00b8a	88 81 c7 11 00
	00		 mov	 BYTE PTR [ecx+4551], al

; 498  : 	this->List[eZtUB::Gredy2].bTeamVsTeam2			= true;

  00b90	88 81 e0 11 00
	00		 mov	 BYTE PTR [ecx+4576], al

; 499  : 	this->List[eZtUB::Gredy2].ItemSmokeEffect		= true;

  00b96	88 81 d6 11 00
	00		 mov	 BYTE PTR [ecx+4566], al

; 500  : 	this->List[eZtUB::Gredy2].AccSecurity			= true;

  00b9c	66 c7 81 e3 11
	00 00 01 01	 mov	 WORD PTR [ecx+4579], 257 ; 00000101H

; 501  : 	this->List[eZtUB::Gredy2].CraftQuestSystem		= true;
; 502  : 	// ----
; 503  : 	strcpy(this->List[eZtUB::Pavel2].Login,			"Pavel2");

  00ba5	8b 35 00 00 00
	00		 mov	 esi, DWORD PTR ??_C@_06FEDJGBKC@Pavel2?$AA@
  00bab	89 b1 ec 11 00
	00		 mov	 DWORD PTR [ecx+4588], esi
  00bb1	0f b7 35 04 00
	00 00		 movzx	 esi, WORD PTR ??_C@_06FEDJGBKC@Pavel2?$AA@+4
  00bb8	66 89 b1 f0 11
	00 00		 mov	 WORD PTR [ecx+4592], si
  00bbf	0f b6 1d 06 00
	00 00		 movzx	 ebx, BYTE PTR ??_C@_06FEDJGBKC@Pavel2?$AA@+6
  00bc6	88 99 f2 11 00
	00		 mov	 BYTE PTR [ecx+4594], bl

; 504  : 	this->List[eZtUB::Pavel2].hwid					= 2691024834;

  00bcc	c7 81 10 12 00
	00 c2 c7 65 a0	 mov	 DWORD PTR [ecx+4624], -1603942462 ; a065c7c2H

; 505  : 	// ----
; 506  : 	strcpy(this->List[eZtUB::ulasevich2].Login,		"ulasevich2");

  00bd6	8b 35 00 00 00
	00		 mov	 esi, DWORD PTR ??_C@_0L@KLOBFJGO@ulasevich2?$AA@
  00bdc	89 b1 68 12 00
	00		 mov	 DWORD PTR [ecx+4712], esi
  00be2	8b 35 04 00 00
	00		 mov	 esi, DWORD PTR ??_C@_0L@KLOBFJGO@ulasevich2?$AA@+4
  00be8	89 b1 6c 12 00
	00		 mov	 DWORD PTR [ecx+4716], esi
  00bee	0f b7 35 08 00
	00 00		 movzx	 esi, WORD PTR ??_C@_0L@KLOBFJGO@ulasevich2?$AA@+8
  00bf5	66 89 b1 70 12
	00 00		 mov	 WORD PTR [ecx+4720], si
  00bfc	0f b6 1d 0a 00
	00 00		 movzx	 ebx, BYTE PTR ??_C@_0L@KLOBFJGO@ulasevich2?$AA@+10
  00c03	88 99 72 12 00
	00		 mov	 BYTE PTR [ecx+4722], bl

; 507  : 	this->List[eZtUB::ulasevich2].hwid				= 71422912;

  00c09	c7 81 8c 12 00
	00 c0 d3 41 04	 mov	 DWORD PTR [ecx+4748], 71422912 ; 0441d3c0H

; 508  : 	this->List[eZtUB::ulasevich2].BloodHound		= true;

  00c13	88 81 bb 12 00
	00		 mov	 BYTE PTR [ecx+4795], al

; 509  : 	this->List[eZtUB::ulasevich2].Rage				= true;

  00c19	88 81 b9 12 00
	00		 mov	 BYTE PTR [ecx+4793], al

; 510  : 	this->List[eZtUB::ulasevich2].MonsterQuest		= true;

  00c1f	88 81 bc 12 00
	00		 mov	 BYTE PTR [ecx+4796], al

; 511  : 	this->List[eZtUB::ulasevich2].Brotherhood		= true;

  00c25	88 81 c0 12 00
	00		 mov	 BYTE PTR [ecx+4800], al

; 512  : 	this->List[eZtUB::ulasevich2].AntiCheatPlus		= true;

  00c2b	88 81 c6 12 00
	00		 mov	 BYTE PTR [ecx+4806], al

; 513  : 	this->List[eZtUB::ulasevich2].BMQuest			= true;

  00c31	88 81 ca 12 00
	00		 mov	 BYTE PTR [ecx+4810], al

; 514  : 	this->List[eZtUB::ulasevich2].PandoraEvent		= true;

  00c37	88 81 c5 12 00
	00		 mov	 BYTE PTR [ecx+4805], al

; 515  : 	this->List[eZtUB::ulasevich2].bRankItem			= true;

  00c3d	88 81 d5 12 00
	00		 mov	 BYTE PTR [ecx+4821], al

; 516  : 	this->List[eZtUB::ulasevich2].PremiumZt			= true;

  00c43	88 81 da 12 00
	00		 mov	 BYTE PTR [ecx+4826], al

; 517  : 	this->List[eZtUB::ulasevich2].Smithy			= true;

  00c49	88 81 cc 12 00
	00		 mov	 BYTE PTR [ecx+4812], al

; 518  : 	this->List[eZtUB::ulasevich2].OfflineMode		= true;

  00c4f	88 81 d2 12 00
	00		 mov	 BYTE PTR [ecx+4818], al

; 519  : 	this->List[eZtUB::ulasevich2].PerosnalStoreZt	= true;

  00c55	88 81 c4 12 00
	00		 mov	 BYTE PTR [ecx+4804], al

; 520  : 	this->List[eZtUB::ulasevich2].RestoreOffMode		= true;

  00c5b	88 81 d6 12 00
	00		 mov	 BYTE PTR [ecx+4822], al

; 521  : 	this->List[eZtUB::ulasevich2].DisableMasterTree		= true;

  00c61	88 81 d1 12 00
	00		 mov	 BYTE PTR [ecx+4817], al

; 522  : 	this->List[eZtUB::ulasevich2].Monster			= true;

  00c67	88 81 cd 12 00
	00		 mov	 BYTE PTR [ecx+4813], al

; 523  : 	// ----
; 524  : 	//strcpy(this->List[eZtUB::feqan].Login,			"feqan");
; 525  : 	//this->List[eZtUB::feqan].hwid					= 1521036435;
; 526  : 	//this->List[eZtUB::feqan].PartySystem			= true;
; 527  : 	// ----
; 528  : 	strcpy(this->List[eZtUB::Selfmylife].Login,		"Selfmylife");

  00c6d	8b 35 00 00 00
	00		 mov	 esi, DWORD PTR ??_C@_0L@GGEJJKBH@Selfmylife?$AA@
  00c73	89 b1 60 13 00
	00		 mov	 DWORD PTR [ecx+4960], esi
  00c79	8b 35 04 00 00
	00		 mov	 esi, DWORD PTR ??_C@_0L@GGEJJKBH@Selfmylife?$AA@+4
  00c7f	89 b1 64 13 00
	00		 mov	 DWORD PTR [ecx+4964], esi
  00c85	0f b7 35 08 00
	00 00		 movzx	 esi, WORD PTR ??_C@_0L@GGEJJKBH@Selfmylife?$AA@+8
  00c8c	66 89 b1 68 13
	00 00		 mov	 WORD PTR [ecx+4968], si
  00c93	0f b6 1d 0a 00
	00 00		 movzx	 ebx, BYTE PTR ??_C@_0L@GGEJJKBH@Selfmylife?$AA@+10
  00c9a	88 99 6a 13 00
	00		 mov	 BYTE PTR [ecx+4970], bl

; 529  : 	this->List[eZtUB::Selfmylife].hwid			= 3296873814;

  00ca0	c7 81 84 13 00
	00 56 4d 82 c4	 mov	 DWORD PTR [ecx+4996], -998093482 ; c4824d56H

; 530  : 	// ----
; 531  : 	strcpy(this->List[eZtUB::NoCustom].Login,		"NoCustom");

  00caa	8b 35 00 00 00
	00		 mov	 esi, DWORD PTR ??_C@_08OBJGEGGG@NoCustom?$AA@
  00cb0	89 b1 dc 13 00
	00		 mov	 DWORD PTR [ecx+5084], esi
  00cb6	8b 35 04 00 00
	00		 mov	 esi, DWORD PTR ??_C@_08OBJGEGGG@NoCustom?$AA@+4
  00cbc	89 b1 e0 13 00
	00		 mov	 DWORD PTR [ecx+5088], esi
  00cc2	0f b6 1d 08 00
	00 00		 movzx	 ebx, BYTE PTR ??_C@_08OBJGEGGG@NoCustom?$AA@+8
  00cc9	88 99 e4 13 00
	00		 mov	 BYTE PTR [ecx+5092], bl

; 532  : 	this->List[eZtUB::NoCustom].hwid				= 1188528199;

  00ccf	c7 81 00 14 00
	00 47 80 d7 46	 mov	 DWORD PTR [ecx+5120], 1188528199 ; 46d78047H

; 533  : 	// ----
; 534  : 	strcpy(this->List[eZtUB::ConflictNoCustom].Login,"ConflictNoCustom");

  00cd9	8b 35 00 00 00
	00		 mov	 esi, DWORD PTR ??_C@_0BB@LLHDAOFG@ConflictNoCustom?$AA@
  00cdf	89 b1 58 14 00
	00		 mov	 DWORD PTR [ecx+5208], esi
  00ce5	8b 35 04 00 00
	00		 mov	 esi, DWORD PTR ??_C@_0BB@LLHDAOFG@ConflictNoCustom?$AA@+4
  00ceb	89 b1 5c 14 00
	00		 mov	 DWORD PTR [ecx+5212], esi
  00cf1	8b 35 08 00 00
	00		 mov	 esi, DWORD PTR ??_C@_0BB@LLHDAOFG@ConflictNoCustom?$AA@+8
  00cf7	89 b1 60 14 00
	00		 mov	 DWORD PTR [ecx+5216], esi
  00cfd	8b 35 0c 00 00
	00		 mov	 esi, DWORD PTR ??_C@_0BB@LLHDAOFG@ConflictNoCustom?$AA@+12
  00d03	89 b1 64 14 00
	00		 mov	 DWORD PTR [ecx+5220], esi
  00d09	0f b6 1d 10 00
	00 00		 movzx	 ebx, BYTE PTR ??_C@_0BB@LLHDAOFG@ConflictNoCustom?$AA@+16
  00d10	88 99 68 14 00
	00		 mov	 BYTE PTR [ecx+5224], bl

; 535  : 	this->List[eZtUB::ConflictNoCustom].hwid		= 2492754898;

  00d16	c7 81 7c 14 00
	00 d2 6b 94 94	 mov	 DWORD PTR [ecx+5244], -1802212398 ; 94946bd2H

; 536  : 	this->List[eZtUB::ConflictNoCustom].TvTEvent	= true;

  00d20	88 81 ad 14 00
	00		 mov	 BYTE PTR [ecx+5293], al

; 537  : 	this->List[eZtUB::ConflictNoCustom].PandoraEvent= true;

  00d26	88 81 b5 14 00
	00		 mov	 BYTE PTR [ecx+5301], al

; 538  : 	// ----
; 539  : 	strcpy(List[eZtUB::Emanuel].Login,				"Emanuel");

  00d2c	8b 35 00 00 00
	00		 mov	 esi, DWORD PTR ??_C@_07CPNOKJCH@Emanuel?$AA@
  00d32	89 b1 d4 14 00
	00		 mov	 DWORD PTR [ecx+5332], esi
  00d38	8b 35 04 00 00
	00		 mov	 esi, DWORD PTR ??_C@_07CPNOKJCH@Emanuel?$AA@+4
  00d3e	89 b1 d8 14 00
	00		 mov	 DWORD PTR [ecx+5336], esi

; 540  : 	List[eZtUB::Emanuel].hwid						= 4196649766;

  00d44	c7 81 f8 14 00
	00 26 cb 23 fa	 mov	 DWORD PTR [ecx+5368], -98317530 ; fa23cb26H

; 541  : 	// ----
; 542  : 	strcpy(this->List[eZtUB::maksim844495].Login,	"maksim844495");

  00d4e	8b 35 00 00 00
	00		 mov	 esi, DWORD PTR ??_C@_0N@HJACENNP@maksim844495?$AA@
  00d54	89 b1 50 15 00
	00		 mov	 DWORD PTR [ecx+5456], esi
  00d5a	8b 35 04 00 00
	00		 mov	 esi, DWORD PTR ??_C@_0N@HJACENNP@maksim844495?$AA@+4
  00d60	89 b1 54 15 00
	00		 mov	 DWORD PTR [ecx+5460], esi
  00d66	8b 35 08 00 00
	00		 mov	 esi, DWORD PTR ??_C@_0N@HJACENNP@maksim844495?$AA@+8
  00d6c	89 b1 58 15 00
	00		 mov	 DWORD PTR [ecx+5464], esi
  00d72	0f b6 1d 0c 00
	00 00		 movzx	 ebx, BYTE PTR ??_C@_0N@HJACENNP@maksim844495?$AA@+12
  00d79	88 99 5c 15 00
	00		 mov	 BYTE PTR [ecx+5468], bl

; 543  : 	this->List[eZtUB::maksim844495].hwid			= 136373629;

  00d7f	c7 81 74 15 00
	00 7d e5 20 08	 mov	 DWORD PTR [ecx+5492], 136373629 ; 0820e57dH

; 544  : 	this->List[eZtUB::maksim844495].AntiCheatPlus	= true;

  00d89	88 81 ae 15 00
	00		 mov	 BYTE PTR [ecx+5550], al

; 545  : 	// ----
; 546  : 	strcpy(this->List[eZtUB::SILVER_Local].Login,		"SILVER_Local");

  00d8f	8b 35 00 00 00
	00		 mov	 esi, DWORD PTR ??_C@_0N@BNPEMOPD@SILVER_Local?$AA@
  00d95	89 b1 cc 15 00
	00		 mov	 DWORD PTR [ecx+5580], esi
  00d9b	8b 35 04 00 00
	00		 mov	 esi, DWORD PTR ??_C@_0N@BNPEMOPD@SILVER_Local?$AA@+4
  00da1	89 b1 d0 15 00
	00		 mov	 DWORD PTR [ecx+5584], esi
  00da7	8b 35 08 00 00
	00		 mov	 esi, DWORD PTR ??_C@_0N@BNPEMOPD@SILVER_Local?$AA@+8
  00dad	89 b1 d4 15 00
	00		 mov	 DWORD PTR [ecx+5588], esi
  00db3	0f b6 1d 0c 00
	00 00		 movzx	 ebx, BYTE PTR ??_C@_0N@BNPEMOPD@SILVER_Local?$AA@+12
  00dba	88 99 d8 15 00
	00		 mov	 BYTE PTR [ecx+5592], bl

; 547  : 	this->List[eZtUB::SILVER_Local].hwid				= 0;	// 3237505581;

  00dc0	89 91 f0 15 00
	00		 mov	 DWORD PTR [ecx+5616], edx

; 548  : 	this->List[eZtUB::SILVER_Local].Rage				= true;

  00dc6	88 81 1d 16 00
	00		 mov	 BYTE PTR [ecx+5661], al

; 549  : 	this->List[eZtUB::SILVER_Local].TvTEvent			= true;

  00dcc	88 81 21 16 00
	00		 mov	 BYTE PTR [ecx+5665], al

; 550  : 	this->List[eZtUB::SILVER_Local].Brotherhood			= true;

  00dd2	66 c7 81 24 16
	00 00 01 01	 mov	 WORD PTR [ecx+5668], 257 ; 00000101H

; 551  : 	this->List[eZtUB::SILVER_Local].PartySearch			= true;
; 552  : 	this->List[eZtUB::SILVER_Local].PartySystem			= true;

  00ddb	88 81 23 16 00
	00		 mov	 BYTE PTR [ecx+5667], al

; 553  : 	this->List[eZtUB::SILVER_Local].ChatLog				= true;

  00de1	66 c7 81 26 16
	00 00 01 01	 mov	 WORD PTR [ecx+5670], 257 ; 00000101H

; 554  : 	this->List[eZtUB::SILVER_Local].GM_Manager			= true;
; 555  : 	this->List[eZtUB::SILVER_Local].PerosnalStoreZt		= true;

  00dea	88 81 28 16 00
	00		 mov	 BYTE PTR [ecx+5672], al

; 556  : 	this->List[eZtUB::SILVER_Local].PartySave			= true;

  00df0	88 81 34 16 00
	00		 mov	 BYTE PTR [ecx+5684], al

; 557  : 	this->List[eZtUB::SILVER_Local].Smithy				= true;

  00df6	88 81 30 16 00
	00		 mov	 BYTE PTR [ecx+5680], al

; 558  : 	this->List[eZtUB::SILVER_Local].OfflineMode			= true;

  00dfc	88 81 36 16 00
	00		 mov	 BYTE PTR [ecx+5686], al

; 559  : 	this->List[eZtUB::SILVER_Local].bAchievements		= true;

  00e02	88 81 3d 16 00
	00		 mov	 BYTE PTR [ecx+5693], al

; 560  : 	this->List[eZtUB::SILVER_Local].GrandDinamicExp		= true;

  00e08	88 81 33 16 00
	00		 mov	 BYTE PTR [ecx+5683], al

; 561  : 	this->List[eZtUB::SILVER_Local].RestoreOffMode		= true;

  00e0e	88 81 3a 16 00
	00		 mov	 BYTE PTR [ecx+5690], al

; 562  : 
; 563  : 
; 564  : 	// ----
; 565  : 	strcpy(this->List[eZtUB::Matias].Login,				"Matias");

  00e14	8b 35 00 00 00
	00		 mov	 esi, DWORD PTR ??_C@_06IDJMJNGD@Matias?$AA@
  00e1a	89 b1 48 16 00
	00		 mov	 DWORD PTR [ecx+5704], esi
  00e20	0f b7 35 04 00
	00 00		 movzx	 esi, WORD PTR ??_C@_06IDJMJNGD@Matias?$AA@+4
  00e27	66 89 b1 4c 16
	00 00		 mov	 WORD PTR [ecx+5708], si
  00e2e	0f b6 1d 06 00
	00 00		 movzx	 ebx, BYTE PTR ??_C@_06IDJMJNGD@Matias?$AA@+6
  00e35	88 99 4e 16 00
	00		 mov	 BYTE PTR [ecx+5710], bl

; 566  : 	this->List[eZtUB::Matias].hwid					= 1578038406;

  00e3b	c7 81 6c 16 00
	00 86 f4 0e 5e	 mov	 DWORD PTR [ecx+5740], 1578038406 ; 5e0ef486H

; 567  : 	// ----
; 568  : 	strcpy(this->List[eZtUB::MMProduction].Login,		"MMProduction");

  00e45	8b 35 00 00 00
	00		 mov	 esi, DWORD PTR ??_C@_0N@DLCGCAMJ@MMProduction?$AA@
  00e4b	89 b1 c4 16 00
	00		 mov	 DWORD PTR [ecx+5828], esi
  00e51	8b 35 04 00 00
	00		 mov	 esi, DWORD PTR ??_C@_0N@DLCGCAMJ@MMProduction?$AA@+4
  00e57	89 b1 c8 16 00
	00		 mov	 DWORD PTR [ecx+5832], esi
  00e5d	8b 35 08 00 00
	00		 mov	 esi, DWORD PTR ??_C@_0N@DLCGCAMJ@MMProduction?$AA@+8
  00e63	89 b1 cc 16 00
	00		 mov	 DWORD PTR [ecx+5836], esi
  00e69	0f b6 1d 0c 00
	00 00		 movzx	 ebx, BYTE PTR ??_C@_0N@DLCGCAMJ@MMProduction?$AA@+12
  00e70	88 99 d0 16 00
	00		 mov	 BYTE PTR [ecx+5840], bl

; 569  : 	this->List[eZtUB::MMProduction].hwid				=	NULL;	//	37123;	<<-- License double disable

  00e76	89 91 e8 16 00
	00		 mov	 DWORD PTR [ecx+5864], edx

; 570  : 	
; 571  : 	//strcpy(this->List[eZtUB::absolute].Login,			"absolute");
; 572  : 	//this->List[eZtUB::absolute].hwid					= 2349598538;	//1578038406;
; 573  : 	//strcpy(this->List[eZtUB::absolute].mac,	"00-15-5D-22-70-34");
; 574  : 	//this->List[eZtUB::absolute].PartySearch				= true;
; 575  : 	//this->List[eZtUB::absolute].PartySystem				= true;
; 576  : 	//this->List[eZtUB::absolute].ChatLog					= true;
; 577  : 	//this->List[eZtUB::absolute].GrandHero				= true;
; 578  : 	//this->List[eZtUB::absolute].GM_Manager				= true;
; 579  : 	//this->List[eZtUB::absolute].PerosnalStoreZt			= true;
; 580  : 	//this->List[eZtUB::absolute].AntiCheatPlus			= true;
; 581  : 	////this->List[eZtUB::absolute].Smithy				= true;
; 582  : 	//this->List[eZtUB::absolute].Monster					= true;
; 583  : 	//this->List[eZtUB::absolute].ItemSmokeEffect			= true;
; 584  : 	//this->List[eZtUB::absolute].PartySave				= true;
; 585  : 	//this->List[eZtUB::absolute].OfflineMode				= true;
; 586  : 
; 587  : 	strcpy(this->List[eZtUB::DICE].Login,			"DICE");

  00e7c	8b 35 00 00 00
	00		 mov	 esi, DWORD PTR ??_C@_04INGAGJAF@DICE?$AA@
  00e82	89 b1 bc 17 00
	00		 mov	 DWORD PTR [ecx+6076], esi
  00e88	0f b6 1d 04 00
	00 00		 movzx	 ebx, BYTE PTR ??_C@_04INGAGJAF@DICE?$AA@+4
  00e8f	88 99 c0 17 00
	00		 mov	 BYTE PTR [ecx+6080], bl

; 588  : 	this->List[eZtUB::DICE].hwid					= 2730446961;	// 2730446961;	//1578038406;

  00e95	c7 81 e0 17 00
	00 71 50 bf a2	 mov	 DWORD PTR [ecx+6112], -1564520335 ; a2bf5071H

; 589  : 	strcpy(this->List[eZtUB::DICE].mac,		"0C-8B-FD-E3-98-05");

  00e9f	8b 35 00 00 00
	00		 mov	 esi, DWORD PTR ??_C@_0BC@PIGEOJDP@0C?98B?9FD?9E3?998?905?$AA@
  00ea5	89 b1 e4 17 00
	00		 mov	 DWORD PTR [ecx+6116], esi
  00eab	8b 35 04 00 00
	00		 mov	 esi, DWORD PTR ??_C@_0BC@PIGEOJDP@0C?98B?9FD?9E3?998?905?$AA@+4
  00eb1	89 b1 e8 17 00
	00		 mov	 DWORD PTR [ecx+6120], esi
  00eb7	8b 35 08 00 00
	00		 mov	 esi, DWORD PTR ??_C@_0BC@PIGEOJDP@0C?98B?9FD?9E3?998?905?$AA@+8
  00ebd	89 b1 ec 17 00
	00		 mov	 DWORD PTR [ecx+6124], esi
  00ec3	8b 35 0c 00 00
	00		 mov	 esi, DWORD PTR ??_C@_0BC@PIGEOJDP@0C?98B?9FD?9E3?998?905?$AA@+12
  00ec9	89 b1 f0 17 00
	00		 mov	 DWORD PTR [ecx+6128], esi
  00ecf	0f b7 35 10 00
	00 00		 movzx	 esi, WORD PTR ??_C@_0BC@PIGEOJDP@0C?98B?9FD?9E3?998?905?$AA@+16
  00ed6	66 89 b1 f4 17
	00 00		 mov	 WORD PTR [ecx+6132], si

; 590  : 
; 591  : 	strcpy(this->List[eZtUB::Artem].Login,			"Artem");

  00edd	8b 35 00 00 00
	00		 mov	 esi, DWORD PTR ??_C@_05HDDJBPNA@Artem?$AA@
  00ee3	89 b1 38 18 00
	00		 mov	 DWORD PTR [ecx+6200], esi
  00ee9	0f b7 35 04 00
	00 00		 movzx	 esi, WORD PTR ??_C@_05HDDJBPNA@Artem?$AA@+4
  00ef0	66 89 b1 3c 18
	00 00		 mov	 WORD PTR [ecx+6204], si

; 592  : 	this->List[eZtUB::Artem].hwid					= 1111188280;	//	 2529125018;	// |D5-C5-AC-A8-EF-C1 ?? 

  00ef7	c7 81 5c 18 00
	00 38 63 3b 42	 mov	 DWORD PTR [ecx+6236], 1111188280 ; 423b6338H

; 593  : 	strcpy(this->List[eZtUB::Artem].mac,			"D5-C5-AC-A8-EF-C1");

  00f01	8b 35 00 00 00
	00		 mov	 esi, DWORD PTR ??_C@_0BC@PLNCIHJC@D5?9C5?9AC?9A8?9EF?9C1?$AA@
  00f07	89 b1 60 18 00
	00		 mov	 DWORD PTR [ecx+6240], esi
  00f0d	8b 35 04 00 00
	00		 mov	 esi, DWORD PTR ??_C@_0BC@PLNCIHJC@D5?9C5?9AC?9A8?9EF?9C1?$AA@+4
  00f13	89 b1 64 18 00
	00		 mov	 DWORD PTR [ecx+6244], esi
  00f19	8b 35 08 00 00
	00		 mov	 esi, DWORD PTR ??_C@_0BC@PLNCIHJC@D5?9C5?9AC?9A8?9EF?9C1?$AA@+8
  00f1f	89 b1 68 18 00
	00		 mov	 DWORD PTR [ecx+6248], esi
  00f25	8b 35 0c 00 00
	00		 mov	 esi, DWORD PTR ??_C@_0BC@PLNCIHJC@D5?9C5?9AC?9A8?9EF?9C1?$AA@+12
  00f2b	89 b1 6c 18 00
	00		 mov	 DWORD PTR [ecx+6252], esi
  00f31	0f b7 35 10 00
	00 00		 movzx	 esi, WORD PTR ??_C@_0BC@PLNCIHJC@D5?9C5?9AC?9A8?9EF?9C1?$AA@+16
  00f38	66 89 b1 70 18
	00 00		 mov	 WORD PTR [ecx+6256], si

; 594  : 	this->List[eZtUB::Artem].TvTEvent				= true;

  00f3f	88 81 8d 18 00
	00		 mov	 BYTE PTR [ecx+6285], al

; 595  : 	this->List[eZtUB::Artem].PerosnalStoreZt		= true;

  00f45	66 c7 81 93 18
	00 00 01 01	 mov	 WORD PTR [ecx+6291], 257 ; 00000101H

; 596  : 	this->List[eZtUB::Artem].GM_Manager				= true;
; 597  : 	this->List[eZtUB::Artem].AntiCheatPlus			= true;

  00f4e	66 c7 81 96 18
	00 00 01 01	 mov	 WORD PTR [ecx+6294], 257 ; 00000101H

; 598  : 	this->List[eZtUB::Artem].SpotReturn				= true;
; 599  : 	this->List[eZtUB::Artem].PandoraEvent			= true;

  00f57	88 81 95 18 00
	00		 mov	 BYTE PTR [ecx+6293], al

; 600  : 	this->List[eZtUB::Artem].LoraBattle				= true;

  00f5d	66 c7 81 9b 18
	00 00 01 01	 mov	 WORD PTR [ecx+6299], 257 ; 00000101H

; 601  : 	this->List[eZtUB::Artem].Smithy					= true;
; 602  : 	this->List[eZtUB::Artem].GrandDinamicExp		= true;

  00f66	88 81 9f 18 00
	00		 mov	 BYTE PTR [ecx+6303], al

; 603  : 	this->List[eZtUB::Artem].DisableMasterTree		= true;

  00f6c	88 81 a1 18 00
	00		 mov	 BYTE PTR [ecx+6305], al

; 604  : 	this->List[eZtUB::Artem].Rage					= true;

  00f72	88 81 89 18 00
	00		 mov	 BYTE PTR [ecx+6281], al

; 605  : 	this->List[eZtUB::Artem].OfflineMode			= true;

  00f78	88 81 a2 18 00
	00		 mov	 BYTE PTR [ecx+6306], al

; 606  : 	this->List[eZtUB::Artem].Monster				= true;

  00f7e	88 81 9d 18 00
	00		 mov	 BYTE PTR [ecx+6301], al

; 607  : 	this->List[eZtUB::Artem].Marriage				= true;
; 608  : 	this->List[eZtUB::Artem].PartySave				= true;

  00f84	88 81 a0 18 00
	00		 mov	 BYTE PTR [ecx+6304], al

; 609  : 	this->List[eZtUB::Artem].bTeamVsTeam2			= true;

  00f8a	88 81 a8 18 00
	00		 mov	 BYTE PTR [ecx+6312], al

; 610  : 	this->List[eZtUB::Artem].bRankItem				= true;

  00f90	66 c7 81 a4 18
	00 00 01 01	 mov	 WORD PTR [ecx+6308], 257 ; 00000101H

; 611  : 	this->List[eZtUB::Artem].MonsterAttackLife		= true;
; 612  : 	this->List[eZtUB::Artem].RestoreOffMode			= true;

  00f99	88 81 a6 18 00
	00		 mov	 BYTE PTR [ecx+6310], al

; 613  : 	this->List[eZtUB::Artem].PartySearch			= true;

  00f9f	88 81 91 18 00
	00		 mov	 BYTE PTR [ecx+6289], al

; 614  : 	this->List[eZtUB::Artem].bAchievements			= true;

  00fa5	88 81 a9 18 00
	00		 mov	 BYTE PTR [ecx+6313], al

; 615  : 	this->List[eZtUB::Artem].MonsterQuest			= true;

  00fab	88 81 8c 18 00
	00		 mov	 BYTE PTR [ecx+6284], al

; 616  : 	this->List[eZtUB::Artem].PremiumZt				= true;

  00fb1	88 81 aa 18 00
	00		 mov	 BYTE PTR [ecx+6314], al

; 617  : 	this->List[eZtUB::Artem].PartySystem			= true;

  00fb7	88 81 8f 18 00
	00		 mov	 BYTE PTR [ecx+6287], al

; 618  : 	this->List[eZtUB::Artem].Marriage				= true;

  00fbd	88 81 a3 18 00
	00		 mov	 BYTE PTR [ecx+6307], al

; 619  : 	this->List[eZtUB::Artem].AccSecurity			= true;

  00fc3	88 81 ab 18 00
	00		 mov	 BYTE PTR [ecx+6315], al

; 620  : 	this->List[eZtUB::Artem].ReferralSystem			= true;

  00fc9	88 81 ae 18 00
	00		 mov	 BYTE PTR [ecx+6318], al

; 621  : 	this->List[eZtUB::Artem].NpcBuffer				= true;

  00fcf	88 81 99 18 00
	00		 mov	 BYTE PTR [ecx+6297], al

; 622  : 
; 623  : 	strcpy(this->List[eZtUB::Artem2].Login,			"Artem2");

  00fd5	8b 35 00 00 00
	00		 mov	 esi, DWORD PTR ??_C@_06GLNALPLK@Artem2?$AA@
  00fdb	89 b1 b4 18 00
	00		 mov	 DWORD PTR [ecx+6324], esi
  00fe1	0f b7 35 04 00
	00 00		 movzx	 esi, WORD PTR ??_C@_06GLNALPLK@Artem2?$AA@+4
  00fe8	66 89 b1 b8 18
	00 00		 mov	 WORD PTR [ecx+6328], si
  00fef	0f b6 1d 06 00
	00 00		 movzx	 ebx, BYTE PTR ??_C@_06GLNALPLK@Artem2?$AA@+6
  00ff6	88 99 ba 18 00
	00		 mov	 BYTE PTR [ecx+6330], bl

; 624  : 	this->List[eZtUB::Artem2].hwid					= 37123;	//37123

  00ffc	c7 81 d8 18 00
	00 03 91 00 00	 mov	 DWORD PTR [ecx+6360], 37123 ; 00009103H

; 625  : 	//strcpy(this->List[eZtUB::Artem2].mac,			"FD-50-78-1A-FE-13");
; 626  : 	this->List[eZtUB::Artem2].TvTEvent				= true;

  01006	88 81 09 19 00
	00		 mov	 BYTE PTR [ecx+6409], al

; 627  : 	this->List[eZtUB::Artem2].PerosnalStoreZt		= true;

  0100c	66 c7 81 0f 19
	00 00 01 01	 mov	 WORD PTR [ecx+6415], 257 ; 00000101H

; 628  : 	this->List[eZtUB::Artem2].GM_Manager			= true;
; 629  : 	this->List[eZtUB::Artem2].AntiCheatPlus			= true;

  01015	66 c7 81 12 19
	00 00 01 01	 mov	 WORD PTR [ecx+6418], 257 ; 00000101H

; 630  : 	this->List[eZtUB::Artem2].SpotReturn			= true;
; 631  : 	this->List[eZtUB::Artem2].PandoraEvent			= true;

  0101e	88 81 11 19 00
	00		 mov	 BYTE PTR [ecx+6417], al

; 632  : 	this->List[eZtUB::Artem2].LoraBattle			= true;

  01024	66 c7 81 17 19
	00 00 01 01	 mov	 WORD PTR [ecx+6423], 257 ; 00000101H

; 633  : 	this->List[eZtUB::Artem2].Smithy				= true;
; 634  : 	this->List[eZtUB::Artem2].GrandDinamicExp		= true;

  0102d	88 81 1b 19 00
	00		 mov	 BYTE PTR [ecx+6427], al

; 635  : 	this->List[eZtUB::Artem2].DisableMasterTree		= true;

  01033	88 81 1d 19 00
	00		 mov	 BYTE PTR [ecx+6429], al

; 636  : 	this->List[eZtUB::Artem2].Rage					= true;

  01039	88 81 05 19 00
	00		 mov	 BYTE PTR [ecx+6405], al

; 637  : 	this->List[eZtUB::Artem2].OfflineMode			= true;

  0103f	88 81 1e 19 00
	00		 mov	 BYTE PTR [ecx+6430], al

; 638  : 	this->List[eZtUB::Artem2].Monster				= true;

  01045	88 81 19 19 00
	00		 mov	 BYTE PTR [ecx+6425], al

; 639  : 	this->List[eZtUB::Artem2].Marriage				= true;
; 640  : 	this->List[eZtUB::Artem2].PartySave				= true;

  0104b	88 81 1c 19 00
	00		 mov	 BYTE PTR [ecx+6428], al

; 641  : 	this->List[eZtUB::Artem2].bTeamVsTeam2			= true;

  01051	88 81 24 19 00
	00		 mov	 BYTE PTR [ecx+6436], al

; 642  : 	this->List[eZtUB::Artem2].bRankItem				= true;

  01057	66 c7 81 20 19
	00 00 01 01	 mov	 WORD PTR [ecx+6432], 257 ; 00000101H

; 643  : 	this->List[eZtUB::Artem2].MonsterAttackLife		= true;
; 644  : 	this->List[eZtUB::Artem2].RestoreOffMode		= true;

  01060	88 81 22 19 00
	00		 mov	 BYTE PTR [ecx+6434], al

; 645  : 	this->List[eZtUB::Artem2].PartySearch			= true;

  01066	88 81 0d 19 00
	00		 mov	 BYTE PTR [ecx+6413], al

; 646  : 	this->List[eZtUB::Artem2].bAchievements			= true;

  0106c	88 81 25 19 00
	00		 mov	 BYTE PTR [ecx+6437], al

; 647  : 	this->List[eZtUB::Artem2].MonsterQuest			= true;

  01072	88 81 08 19 00
	00		 mov	 BYTE PTR [ecx+6408], al

; 648  : 	this->List[eZtUB::Artem2].PremiumZt				= true;

  01078	88 81 26 19 00
	00		 mov	 BYTE PTR [ecx+6438], al

; 649  : 	this->List[eZtUB::Artem2].PartySystem			= true;

  0107e	88 81 0b 19 00
	00		 mov	 BYTE PTR [ecx+6411], al

; 650  : 	this->List[eZtUB::Artem2].Marriage				= true;

  01084	88 81 1f 19 00
	00		 mov	 BYTE PTR [ecx+6431], al

; 651  : 	this->List[eZtUB::Artem2].AccSecurity			= true;

  0108a	88 81 27 19 00
	00		 mov	 BYTE PTR [ecx+6439], al

; 652  : 	this->List[eZtUB::Artem2].ReferralSystem		= true;

  01090	88 81 2a 19 00
	00		 mov	 BYTE PTR [ecx+6442], al

; 653  : 	this->List[eZtUB::Artem2].NpcBuffer				= true;

  01096	88 81 15 19 00
	00		 mov	 BYTE PTR [ecx+6421], al

; 654  : 
; 655  : 
; 656  : 	strcpy(this->List[eZtUB::MedoniAndrei].Login,	"MedoniAndrei");

  0109c	8b 35 00 00 00
	00		 mov	 esi, DWORD PTR ??_C@_0N@KGBKHIAJ@MedoniAndrei?$AA@
  010a2	89 b1 30 19 00
	00		 mov	 DWORD PTR [ecx+6448], esi
  010a8	8b 35 04 00 00
	00		 mov	 esi, DWORD PTR ??_C@_0N@KGBKHIAJ@MedoniAndrei?$AA@+4
  010ae	89 b1 34 19 00
	00		 mov	 DWORD PTR [ecx+6452], esi
  010b4	8b 35 08 00 00
	00		 mov	 esi, DWORD PTR ??_C@_0N@KGBKHIAJ@MedoniAndrei?$AA@+8
  010ba	89 b1 38 19 00
	00		 mov	 DWORD PTR [ecx+6456], esi
  010c0	0f b6 1d 0c 00
	00 00		 movzx	 ebx, BYTE PTR ??_C@_0N@KGBKHIAJ@MedoniAndrei?$AA@+12
  010c7	88 99 3c 19 00
	00		 mov	 BYTE PTR [ecx+6460], bl

; 657  : 	this->List[eZtUB::MedoniAndrei].hwid			= 2630807982;// 2262655649;	//3760173629

  010cd	c7 81 54 19 00
	00 ae f1 ce 9c	 mov	 DWORD PTR [ecx+6484], -1664159314 ; 9ccef1aeH

; 658  : 	strcpy(this->List[eZtUB::MedoniAndrei].mac,		"A9-40-37-E5-1B-8D");

  010d7	8b 35 00 00 00
	00		 mov	 esi, DWORD PTR ??_C@_0BC@LMHCKMCN@A9?940?937?9E5?91B?98D?$AA@
  010dd	89 b1 58 19 00
	00		 mov	 DWORD PTR [ecx+6488], esi
  010e3	8b 35 04 00 00
	00		 mov	 esi, DWORD PTR ??_C@_0BC@LMHCKMCN@A9?940?937?9E5?91B?98D?$AA@+4
  010e9	89 b1 5c 19 00
	00		 mov	 DWORD PTR [ecx+6492], esi
  010ef	8b 35 08 00 00
	00		 mov	 esi, DWORD PTR ??_C@_0BC@LMHCKMCN@A9?940?937?9E5?91B?98D?$AA@+8
  010f5	89 b1 60 19 00
	00		 mov	 DWORD PTR [ecx+6496], esi
  010fb	8b 35 0c 00 00
	00		 mov	 esi, DWORD PTR ??_C@_0BC@LMHCKMCN@A9?940?937?9E5?91B?98D?$AA@+12
  01101	89 b1 64 19 00
	00		 mov	 DWORD PTR [ecx+6500], esi
  01107	0f b7 35 10 00
	00 00		 movzx	 esi, WORD PTR ??_C@_0BC@LMHCKMCN@A9?940?937?9E5?91B?98D?$AA@+16
  0110e	66 89 b1 68 19
	00 00		 mov	 WORD PTR [ecx+6504], si

; 659  : 	this->List[eZtUB::MedoniAndrei].OfflineMode     = true;

  01115	88 81 9a 19 00
	00		 mov	 BYTE PTR [ecx+6554], al

; 660  : 	this->List[eZtUB::MedoniAndrei].PerosnalStoreZt	= true;

  0111b	88 81 8c 19 00
	00		 mov	 BYTE PTR [ecx+6540], al

; 661  : 	this->List[eZtUB::MedoniAndrei].Monster			= true;

  01121	88 81 95 19 00
	00		 mov	 BYTE PTR [ecx+6549], al

; 662  : 	this->List[eZtUB::MedoniAndrei].MonsterAttackLife = true;

  01127	88 81 9c 19 00
	00		 mov	 BYTE PTR [ecx+6556], al

; 663  : 	this->List[eZtUB::MedoniAndrei].Brotherhood		= true;

  0112d	88 81 88 19 00
	00		 mov	 BYTE PTR [ecx+6536], al

; 664  : 	this->List[eZtUB::MedoniAndrei].AntiCheatPlus	= true;

  01133	88 81 8e 19 00
	00		 mov	 BYTE PTR [ecx+6542], al

; 665  : 	this->List[eZtUB::MedoniAndrei].TvTEvent		= true;

  01139	88 81 85 19 00
	00		 mov	 BYTE PTR [ecx+6533], al

; 666  : 	this->List[eZtUB::MedoniAndrei].ItemSmokeEffect	= true;

  0113f	88 81 96 19 00
	00		 mov	 BYTE PTR [ecx+6550], al

; 667  : 	//this->List[eZtUB::MedoniAndrei].Rage			= true;
; 668  : 	this->List[eZtUB::MedoniAndrei].bTeamVsTeam2	= true;

  01145	88 81 a0 19 00
	00		 mov	 BYTE PTR [ecx+6560], al

; 669  : 	this->List[eZtUB::MedoniAndrei].bRankItem		= true;

  0114b	88 81 9d 19 00
	00		 mov	 BYTE PTR [ecx+6557], al

; 670  : 	this->List[eZtUB::MedoniAndrei].PremiumZt		= true;

  01151	66 c7 81 a2 19
	00 00 01 01	 mov	 WORD PTR [ecx+6562], 257 ; 00000101H

; 671  : 	this->List[eZtUB::MedoniAndrei].AccSecurity		= true;
; 672  : 	this->List[eZtUB::MedoniAndrei].PartySearch		= true;

  0115a	88 81 89 19 00
	00		 mov	 BYTE PTR [ecx+6537], al

; 673  : 	this->List[eZtUB::MedoniAndrei].ReferralSystem  = true;

  01160	88 81 a6 19 00
	00		 mov	 BYTE PTR [ecx+6566], al

; 674  : 	this->List[eZtUB::MedoniAndrei].GrandDinamicExp = true;

  01166	66 c7 81 97 19
	00 00 01 01	 mov	 WORD PTR [ecx+6551], 257 ; 00000101H

; 675  : 	this->List[eZtUB::MedoniAndrei].PartySave		= true;
; 676  : 	this->List[eZtUB::MedoniAndrei].CraftQuestSystem = true;

  0116f	66 c7 81 a4 19
	00 00 01 01	 mov	 WORD PTR [ecx+6564], 257 ; 00000101H

; 677  : 	this->List[eZtUB::MedoniAndrei].PickUpItemInfo = true;
; 678  : 
; 679  : 	//strcpy(this->List[eZtUB::SirJ].Login,	"SirJ");
; 680  : 	//this->List[eZtUB::SirJ].hwid			= 2349598538;
; 681  : 
; 682  : 	strcpy(this->List[eZtUB::Eduardo].Login,	"Eduardo");

  01178	8b 35 00 00 00
	00		 mov	 esi, DWORD PTR ??_C@_07BHGJDKOF@Eduardo?$AA@
  0117e	89 b1 28 1a 00
	00		 mov	 DWORD PTR [ecx+6696], esi
  01184	8b 35 04 00 00
	00		 mov	 esi, DWORD PTR ??_C@_07BHGJDKOF@Eduardo?$AA@+4
  0118a	89 b1 2c 1a 00
	00		 mov	 DWORD PTR [ecx+6700], esi

; 683  : 	this->List[eZtUB::Eduardo].hwid				= 3489763032;

  01190	c7 81 4c 1a 00
	00 d8 8e 01 d0	 mov	 DWORD PTR [ecx+6732], -805204264 ; d0018ed8H

; 684  : 	this->List[eZtUB::Eduardo].AntiCheatPlus	= true;

  0119a	88 81 86 1a 00
	00		 mov	 BYTE PTR [ecx+6790], al

; 685  : 	this->List[eZtUB::Eduardo].NpcBuffer		= true;

  011a0	88 81 89 1a 00
	00		 mov	 BYTE PTR [ecx+6793], al

; 686  : 
; 687  : 	strcpy(this->List[eZtUB::bassreflexive].Login,	"bassreflexive");

  011a6	8b 35 00 00 00
	00		 mov	 esi, DWORD PTR ??_C@_0O@IFBPLBBM@bassreflexive?$AA@
  011ac	89 b1 a4 1a 00
	00		 mov	 DWORD PTR [ecx+6820], esi
  011b2	8b 35 04 00 00
	00		 mov	 esi, DWORD PTR ??_C@_0O@IFBPLBBM@bassreflexive?$AA@+4
  011b8	89 b1 a8 1a 00
	00		 mov	 DWORD PTR [ecx+6824], esi
  011be	8b 35 08 00 00
	00		 mov	 esi, DWORD PTR ??_C@_0O@IFBPLBBM@bassreflexive?$AA@+8
  011c4	89 b1 ac 1a 00
	00		 mov	 DWORD PTR [ecx+6828], esi
  011ca	0f b7 35 0c 00
	00 00		 movzx	 esi, WORD PTR ??_C@_0O@IFBPLBBM@bassreflexive?$AA@+12
  011d1	66 89 b1 b0 1a
	00 00		 mov	 WORD PTR [ecx+6832], si

; 688  : 	this->List[eZtUB::bassreflexive].hwid			= 176480702;// 3825993254;

  011d8	c7 81 c8 1a 00
	00 be e1 84 0a	 mov	 DWORD PTR [ecx+6856], 176480702 ; 0a84e1beH

; 689  : 	this->List[eZtUB::bassreflexive].PerosnalStoreZt	= true;

  011e2	88 81 00 1b 00
	00		 mov	 BYTE PTR [ecx+6912], al

; 690  : 	this->List[eZtUB::bassreflexive].OfflineMode	= true;

  011e8	88 81 0e 1b 00
	00		 mov	 BYTE PTR [ecx+6926], al

; 691  : 	this->List[eZtUB::bassreflexive].Rage		= true;

  011ee	88 81 f5 1a 00
	00		 mov	 BYTE PTR [ecx+6901], al

; 692  : 
; 693  : 	strcpy(this->List[eZtUB::MU2Play].Login,			"MU2Play");

  011f4	8b 35 00 00 00
	00		 mov	 esi, DWORD PTR ??_C@_07OOBBHDME@MU2Play?$AA@
  011fa	89 b1 20 1b 00
	00		 mov	 DWORD PTR [ecx+6944], esi
  01200	8b 35 04 00 00
	00		 mov	 esi, DWORD PTR ??_C@_07OOBBHDME@MU2Play?$AA@+4
  01206	89 b1 24 1b 00
	00		 mov	 DWORD PTR [ecx+6948], esi

; 694  : 	//this->List[eZtUB::MU2Play].hwid						= 3324969216;	// 3324969216;	//2349598538;
; 695  : 	//strcpy(this->List[eZtUB::MU2Play].mac,				"02-19-5D-22-71-D1");
; 696  : 	this->List[eZtUB::MU2Play].PartySearch				= true;

  0120c	88 81 79 1b 00
	00		 mov	 BYTE PTR [ecx+7033], al

; 697  : 	this->List[eZtUB::MU2Play].PartySystem				= true;

  01212	88 81 77 1b 00
	00		 mov	 BYTE PTR [ecx+7031], al

; 698  : 	this->List[eZtUB::MU2Play].GM_Manager				= true;

  01218	66 c7 81 7b 1b
	00 00 01 01	 mov	 WORD PTR [ecx+7035], 257 ; 00000101H

; 699  : 	this->List[eZtUB::MU2Play].PerosnalStoreZt			= true;
; 700  : 	this->List[eZtUB::MU2Play].AntiCheatPlus			= true;

  01221	88 81 7e 1b 00
	00		 mov	 BYTE PTR [ecx+7038], al

; 701  : 	this->List[eZtUB::MU2Play].Rage						= true;

  01227	88 81 71 1b 00
	00		 mov	 BYTE PTR [ecx+7025], al

; 702  : 	this->List[eZtUB::MU2Play].Monster					= true;

  0122d	88 81 85 1b 00
	00		 mov	 BYTE PTR [ecx+7045], al

; 703  : 	this->List[eZtUB::MU2Play].PartySave				= true;

  01233	88 81 88 1b 00
	00		 mov	 BYTE PTR [ecx+7048], al

; 704  : 	this->List[eZtUB::MU2Play].OfflineMode				= true;

  01239	88 81 8a 1b 00
	00		 mov	 BYTE PTR [ecx+7050], al

; 705  : 	this->List[eZtUB::MU2Play].bRankItem				= true;

  0123f	66 c7 81 8c 1b
	00 00 01 01	 mov	 WORD PTR [ecx+7052], 257 ; 00000101H

; 706  : 	this->List[eZtUB::MU2Play].MonsterAttackLife		= true;
; 707  : 	this->List[eZtUB::MU2Play].GrandDinamicExp			= true;

  01248	88 81 87 1b 00
	00		 mov	 BYTE PTR [ecx+7047], al

; 708  : 	this->List[eZtUB::MU2Play].RestoreOffMode			= true;

  0124e	88 81 8e 1b 00
	00		 mov	 BYTE PTR [ecx+7054], al

; 709  : 	this->List[eZtUB::MU2Play].bTeamVsTeam2				= true;

  01254	88 81 90 1b 00
	00		 mov	 BYTE PTR [ecx+7056], al

; 710  : 
; 711  : 	strcpy(this->List[eZtUB::Stone].Login,	"Stone");

  0125a	8b 35 00 00 00
	00		 mov	 esi, DWORD PTR ??_C@_05PBPDPMJH@Stone?$AA@
  01260	89 b1 9c 1b 00
	00		 mov	 DWORD PTR [ecx+7068], esi
  01266	0f b7 35 04 00
	00 00		 movzx	 esi, WORD PTR ??_C@_05PBPDPMJH@Stone?$AA@+4
  0126d	66 89 b1 a0 1b
	00 00		 mov	 WORD PTR [ecx+7072], si

; 712  : 	this->List[eZtUB::Stone].hwid			= 2628301467;	//370104553;

  01274	c7 81 c0 1b 00
	00 9b b2 a8 9c	 mov	 DWORD PTR [ecx+7104], -1666665829 ; 9ca8b29bH

; 713  : 	strcpy(this->List[eZtUB::Stone].mac,				"02-00-00-38-40-23");

  0127e	8b 35 00 00 00
	00		 mov	 esi, DWORD PTR ??_C@_0BC@FNJBNPPL@02?900?900?938?940?923?$AA@
  01284	89 b1 c4 1b 00
	00		 mov	 DWORD PTR [ecx+7108], esi
  0128a	8b 35 04 00 00
	00		 mov	 esi, DWORD PTR ??_C@_0BC@FNJBNPPL@02?900?900?938?940?923?$AA@+4
  01290	89 b1 c8 1b 00
	00		 mov	 DWORD PTR [ecx+7112], esi
  01296	8b 35 08 00 00
	00		 mov	 esi, DWORD PTR ??_C@_0BC@FNJBNPPL@02?900?900?938?940?923?$AA@+8
  0129c	89 b1 cc 1b 00
	00		 mov	 DWORD PTR [ecx+7116], esi
  012a2	8b 35 0c 00 00
	00		 mov	 esi, DWORD PTR ??_C@_0BC@FNJBNPPL@02?900?900?938?940?923?$AA@+12
  012a8	89 b1 d0 1b 00
	00		 mov	 DWORD PTR [ecx+7120], esi
  012ae	0f b7 35 10 00
	00 00		 movzx	 esi, WORD PTR ??_C@_0BC@FNJBNPPL@02?900?900?938?940?923?$AA@+16
  012b5	66 89 b1 d4 1b
	00 00		 mov	 WORD PTR [ecx+7124], si

; 714  : 	this->List[eZtUB::Stone].bTeamVsTeam2				= true;

  012bc	88 81 0c 1c 00
	00		 mov	 BYTE PTR [ecx+7180], al

; 715  : 
; 716  : 	strcpy(this->List[eZtUB::Sentinel].Login,			"Sentinel");

  012c2	8b 35 00 00 00
	00		 mov	 esi, DWORD PTR ??_C@_08EJJHPIDO@Sentinel?$AA@
  012c8	89 b1 18 1c 00
	00		 mov	 DWORD PTR [ecx+7192], esi
  012ce	8b 35 04 00 00
	00		 mov	 esi, DWORD PTR ??_C@_08EJJHPIDO@Sentinel?$AA@+4
  012d4	89 b1 1c 1c 00
	00		 mov	 DWORD PTR [ecx+7196], esi
  012da	0f b6 1d 08 00
	00 00		 movzx	 ebx, BYTE PTR ??_C@_08EJJHPIDO@Sentinel?$AA@+8
  012e1	88 99 20 1c 00
	00		 mov	 BYTE PTR [ecx+7200], bl

; 717  : 	this->List[eZtUB::Sentinel].hwid					= 1521036435;

  012e7	c7 81 3c 1c 00
	00 93 2c a9 5a	 mov	 DWORD PTR [ecx+7228], 1521036435 ; 5aa92c93H

; 718  : 	this->List[eZtUB::Sentinel].PartySearch				= true;

  012f1	88 81 71 1c 00
	00		 mov	 BYTE PTR [ecx+7281], al

; 719  : 	this->List[eZtUB::Sentinel].PartySystem				= true;

  012f7	88 81 6f 1c 00
	00		 mov	 BYTE PTR [ecx+7279], al

; 720  : 	this->List[eZtUB::Sentinel].ChatLog					= true;

  012fd	66 c7 81 72 1c
	00 00 01 01	 mov	 WORD PTR [ecx+7282], 257 ; 00000101H

; 721  : 	this->List[eZtUB::Sentinel].GM_Manager				= true;
; 722  : 	this->List[eZtUB::Sentinel].PerosnalStoreZt			= true;

  01306	88 81 74 1c 00
	00		 mov	 BYTE PTR [ecx+7284], al

; 723  : 	this->List[eZtUB::Sentinel].AntiCheatPlus			= true;

  0130c	88 81 76 1c 00
	00		 mov	 BYTE PTR [ecx+7286], al

; 724  : 	this->List[eZtUB::Sentinel].Rage					= true;

  01312	88 81 69 1c 00
	00		 mov	 BYTE PTR [ecx+7273], al

; 725  : 	this->List[eZtUB::Sentinel].Monster					= true;

  01318	66 c7 81 7d 1c
	00 00 01 01	 mov	 WORD PTR [ecx+7293], 257 ; 00000101H

; 726  : 	this->List[eZtUB::Sentinel].ItemSmokeEffect			= true;
; 727  : 	this->List[eZtUB::Sentinel].PartySave				= true;

  01321	88 81 80 1c 00
	00		 mov	 BYTE PTR [ecx+7296], al

; 728  : 	this->List[eZtUB::Sentinel].OfflineMode				= true;

  01327	88 81 82 1c 00
	00		 mov	 BYTE PTR [ecx+7298], al

; 729  : 	this->List[eZtUB::Sentinel].bRankItem				= true;

  0132d	66 c7 81 84 1c
	00 00 01 01	 mov	 WORD PTR [ecx+7300], 257 ; 00000101H

; 730  : 	this->List[eZtUB::Sentinel].MonsterAttackLife		= true;
; 731  : 	this->List[eZtUB::Sentinel].GrandDinamicExp			= true;

  01336	88 81 7f 1c 00
	00		 mov	 BYTE PTR [ecx+7295], al

; 732  : 	this->List[eZtUB::Sentinel].RestoreOffMode			= true;

  0133c	88 81 86 1c 00
	00		 mov	 BYTE PTR [ecx+7302], al

; 733  : 	this->List[eZtUB::Sentinel].GrandHero				= true;

  01342	88 81 6e 1c 00
	00		 mov	 BYTE PTR [ecx+7278], al

; 734  : 	this->List[eZtUB::Sentinel].bTeamVsTeam2			= true;

  01348	88 81 88 1c 00
	00		 mov	 BYTE PTR [ecx+7304], al

; 735  : 
; 736  : 	strcpy(this->List[eZtUB::Almdar].Login,				"Almdar");

  0134e	8b 35 00 00 00
	00		 mov	 esi, DWORD PTR ??_C@_06HOCDPIKG@Almdar?$AA@
  01354	89 b1 94 1c 00
	00		 mov	 DWORD PTR [ecx+7316], esi
  0135a	0f b7 35 04 00
	00 00		 movzx	 esi, WORD PTR ??_C@_06HOCDPIKG@Almdar?$AA@+4
  01361	66 89 b1 98 1c
	00 00		 mov	 WORD PTR [ecx+7320], si
  01368	0f b6 1d 06 00
	00 00		 movzx	 ebx, BYTE PTR ??_C@_06HOCDPIKG@Almdar?$AA@+6
  0136f	88 99 9a 1c 00
	00		 mov	 BYTE PTR [ecx+7322], bl

; 737  : 	this->List[eZtUB::Almdar].hwid						= 2764084540;	//2764084540

  01375	c7 81 b8 1c 00
	00 3c 95 c0 a4	 mov	 DWORD PTR [ecx+7352], -1530882756 ; a4c0953cH

; 738  : 	this->List[eZtUB::Almdar].AntiCheatPlus				= true;

  0137f	88 81 f2 1c 00
	00		 mov	 BYTE PTR [ecx+7410], al

; 739  : 	this->List[eZtUB::Almdar].PerosnalStoreZt			= true;

  01385	66 c7 81 ef 1c
	00 00 01 01	 mov	 WORD PTR [ecx+7407], 257 ; 00000101H

; 740  : 	this->List[eZtUB::Almdar].GM_Manager				= true;
; 741  : 
; 742  : 	strcpy(this->List[eZtUB::thinnakorn].Login,			"thinnakorn");

  0138e	8b 35 00 00 00
	00		 mov	 esi, DWORD PTR ??_C@_0L@BEJPBOMJ@thinnakorn?$AA@
  01394	89 b1 10 1d 00
	00		 mov	 DWORD PTR [ecx+7440], esi
  0139a	8b 35 04 00 00
	00		 mov	 esi, DWORD PTR ??_C@_0L@BEJPBOMJ@thinnakorn?$AA@+4
  013a0	89 b1 14 1d 00
	00		 mov	 DWORD PTR [ecx+7444], esi
  013a6	0f b7 35 08 00
	00 00		 movzx	 esi, WORD PTR ??_C@_0L@BEJPBOMJ@thinnakorn?$AA@+8
  013ad	66 89 b1 18 1d
	00 00		 mov	 WORD PTR [ecx+7448], si
  013b4	0f b6 1d 0a 00
	00 00		 movzx	 ebx, BYTE PTR ??_C@_0L@BEJPBOMJ@thinnakorn?$AA@+10
  013bb	88 99 1a 1d 00
	00		 mov	 BYTE PTR [ecx+7450], bl

; 743  : 	this->List[eZtUB::thinnakorn].hwid					= 2756002743;

  013c1	be b7 43 45 a4	 mov	 esi, -1538964553	; a44543b7H
  013c6	89 b1 34 1d 00
	00		 mov	 DWORD PTR [ecx+7476], esi

; 744  : 	strcpy(this->List[eZtUB::thinnakorn].mac,			"00-0C-29-A1-0B-3E");

  013cc	8b 3d 00 00 00
	00		 mov	 edi, DWORD PTR ??_C@_0BC@CJOLMMDO@00?90C?929?9A1?90B?93E?$AA@
  013d2	89 b9 38 1d 00
	00		 mov	 DWORD PTR [ecx+7480], edi
  013d8	8b 3d 04 00 00
	00		 mov	 edi, DWORD PTR ??_C@_0BC@CJOLMMDO@00?90C?929?9A1?90B?93E?$AA@+4
  013de	89 b9 3c 1d 00
	00		 mov	 DWORD PTR [ecx+7484], edi
  013e4	8b 3d 08 00 00
	00		 mov	 edi, DWORD PTR ??_C@_0BC@CJOLMMDO@00?90C?929?9A1?90B?93E?$AA@+8
  013ea	89 b9 40 1d 00
	00		 mov	 DWORD PTR [ecx+7488], edi
  013f0	8b 3d 0c 00 00
	00		 mov	 edi, DWORD PTR ??_C@_0BC@CJOLMMDO@00?90C?929?9A1?90B?93E?$AA@+12
  013f6	89 b9 44 1d 00
	00		 mov	 DWORD PTR [ecx+7492], edi
  013fc	0f b7 3d 10 00
	00 00		 movzx	 edi, WORD PTR ??_C@_0BC@CJOLMMDO@00?90C?929?9A1?90B?93E?$AA@+16
  01403	66 89 b9 48 1d
	00 00		 mov	 WORD PTR [ecx+7496], di

; 745  : 	this->List[eZtUB::thinnakorn].AntiCheatPlus			= true;

  0140a	88 81 6e 1d 00
	00		 mov	 BYTE PTR [ecx+7534], al

; 746  : 	this->List[eZtUB::thinnakorn].Rage					= true;

  01410	88 81 61 1d 00
	00		 mov	 BYTE PTR [ecx+7521], al

; 747  : 	this->List[eZtUB::thinnakorn].Smithy				= true;

  01416	88 81 74 1d 00
	00		 mov	 BYTE PTR [ecx+7540], al

; 748  : 	this->List[eZtUB::thinnakorn].OfflineMode			= true;

  0141c	88 81 7a 1d 00
	00		 mov	 BYTE PTR [ecx+7546], al

; 749  : 	this->List[eZtUB::thinnakorn].ComboCustom			= true;

  01422	88 81 70 1d 00
	00		 mov	 BYTE PTR [ecx+7536], al

; 750  : 
; 751  : 	strcpy(this->List[eZtUB::EpicMU].Login,				"EpicMU");

  01428	8b 3d 00 00 00
	00		 mov	 edi, DWORD PTR ??_C@_06HNLNINMN@EpicMU?$AA@
  0142e	89 b9 8c 1d 00
	00		 mov	 DWORD PTR [ecx+7564], edi
  01434	0f b7 3d 04 00
	00 00		 movzx	 edi, WORD PTR ??_C@_06HNLNINMN@EpicMU?$AA@+4
  0143b	66 89 b9 90 1d
	00 00		 mov	 WORD PTR [ecx+7568], di
  01442	0f b6 1d 06 00
	00 00		 movzx	 ebx, BYTE PTR ??_C@_06HNLNINMN@EpicMU?$AA@+6
  01449	88 99 92 1d 00
	00		 mov	 BYTE PTR [ecx+7570], bl

; 752  : 	this->List[eZtUB::EpicMU].hwid						= 2633646976;	// 2633646976;// 2633646976;

  0144f	c7 81 b0 1d 00
	00 80 43 fa 9c	 mov	 DWORD PTR [ecx+7600], -1661320320 ; 9cfa4380H

; 753  : 	strcpy(this->List[eZtUB::EpicMU].mac,				"00-15-5D-00-F1-9E");

  01459	8b 3d 00 00 00
	00		 mov	 edi, DWORD PTR ??_C@_0BC@IGHPDPED@00?915?95D?900?9F1?99E?$AA@
  0145f	89 b9 b4 1d 00
	00		 mov	 DWORD PTR [ecx+7604], edi
  01465	8b 3d 04 00 00
	00		 mov	 edi, DWORD PTR ??_C@_0BC@IGHPDPED@00?915?95D?900?9F1?99E?$AA@+4
  0146b	89 b9 b8 1d 00
	00		 mov	 DWORD PTR [ecx+7608], edi
  01471	8b 3d 08 00 00
	00		 mov	 edi, DWORD PTR ??_C@_0BC@IGHPDPED@00?915?95D?900?9F1?99E?$AA@+8
  01477	89 b9 bc 1d 00
	00		 mov	 DWORD PTR [ecx+7612], edi
  0147d	8b 3d 0c 00 00
	00		 mov	 edi, DWORD PTR ??_C@_0BC@IGHPDPED@00?915?95D?900?9F1?99E?$AA@+12
  01483	89 b9 c0 1d 00
	00		 mov	 DWORD PTR [ecx+7616], edi
  01489	0f b7 3d 10 00
	00 00		 movzx	 edi, WORD PTR ??_C@_0BC@IGHPDPED@00?915?95D?900?9F1?99E?$AA@+16
  01490	66 89 b9 c4 1d
	00 00		 mov	 WORD PTR [ecx+7620], di

; 754  : 	this->List[eZtUB::EpicMU].Rage						= true;
; 755  : 	this->List[eZtUB::EpicMU].PartySystem				= true;

  01497	88 81 e3 1d 00
	00		 mov	 BYTE PTR [ecx+7651], al

; 756  : 	this->List[eZtUB::EpicMU].PartySearch				= true;

  0149d	66 c7 81 e5 1d
	00 00 01 01	 mov	 WORD PTR [ecx+7653], 257 ; 00000101H

; 757  : 	this->List[eZtUB::EpicMU].ChatLog					= true;
; 758  : 	this->List[eZtUB::EpicMU].GM_Manager				= true;

  014a6	66 c7 81 e7 1d
	00 00 01 01	 mov	 WORD PTR [ecx+7655], 257 ; 00000101H

; 759  : 	this->List[eZtUB::EpicMU].PerosnalStoreZt			= true;
; 760  : 	this->List[eZtUB::EpicMU].AntiCheatPlus				= true;

  014af	88 81 ea 1d 00
	00		 mov	 BYTE PTR [ecx+7658], al

; 761  : 	this->List[eZtUB::EpicMU].LoraBattle				= true;

  014b5	88 81 ef 1d 00
	00		 mov	 BYTE PTR [ecx+7663], al

; 762  : 	this->List[eZtUB::EpicMU].Monster					= true;

  014bb	66 c7 81 f1 1d
	00 00 01 01	 mov	 WORD PTR [ecx+7665], 257 ; 00000101H

; 763  : 	this->List[eZtUB::EpicMU].ItemSmokeEffect			= true;
; 764  : 	this->List[eZtUB::EpicMU].PartySave					= true;

  014c4	88 81 f4 1d 00
	00		 mov	 BYTE PTR [ecx+7668], al

; 765  : 	//this->List[eZtUB::EpicMU].DisableMasterTree			= true;
; 766  : 	this->List[eZtUB::EpicMU].OfflineMode				= true;

  014ca	88 81 f6 1d 00
	00		 mov	 BYTE PTR [ecx+7670], al

; 767  : 	this->List[eZtUB::EpicMU].MonsterAttackLife			= true;

  014d0	66 c7 81 f8 1d
	00 00 01 01	 mov	 WORD PTR [ecx+7672], 257 ; 00000101H

; 768  : 	this->List[eZtUB::EpicMU].bRankItem					= true;
; 769  : 	this->List[eZtUB::EpicMU].RestoreOffMode			= true;

  014d9	88 81 fa 1d 00
	00		 mov	 BYTE PTR [ecx+7674], al

; 770  : 	this->List[eZtUB::EpicMU].bTeamVsTeam2				= true;

  014df	66 c7 81 fc 1d
	00 00 01 01	 mov	 WORD PTR [ecx+7676], 257 ; 00000101H

; 771  : 	this->List[eZtUB::EpicMU].bAchievements				= true;
; 772  : 	this->List[eZtUB::EpicMU].MonsterQuest				= true;

  014e8	88 81 e0 1d 00
	00		 mov	 BYTE PTR [ecx+7648], al

; 773  : 	this->List[eZtUB::EpicMU].PremiumZt					= true;

  014ee	88 81 fe 1d 00
	00		 mov	 BYTE PTR [ecx+7678], al

; 774  : 	this->List[eZtUB::EpicMU].BMQuest					= true;

  014f4	88 81 ee 1d 00
	00		 mov	 BYTE PTR [ecx+7662], al

; 775  : 	this->List[eZtUB::EpicMU].Brotherhood				= true;

  014fa	88 81 e4 1d 00
	00		 mov	 BYTE PTR [ecx+7652], al

; 776  : 	this->List[eZtUB::EpicMU].Rage						= true;

  01500	88 81 dd 1d 00
	00		 mov	 BYTE PTR [ecx+7645], al

; 777  : 	this->List[eZtUB::EpicMU].Marriage					= true;

  01506	88 81 f7 1d 00
	00		 mov	 BYTE PTR [ecx+7671], al

; 778  : 	this->List[eZtUB::EpicMU].Smithy					= true;

  0150c	88 81 f0 1d 00
	00		 mov	 BYTE PTR [ecx+7664], al

; 779  : 
; 780  : 	strcpy(this->List[eZtUB::masonX].Login,				"masonX");

  01512	8b 3d 00 00 00
	00		 mov	 edi, DWORD PTR ??_C@_06KGEGJNGH@masonX?$AA@
  01518	89 b9 08 1e 00
	00		 mov	 DWORD PTR [ecx+7688], edi
  0151e	0f b7 3d 04 00
	00 00		 movzx	 edi, WORD PTR ??_C@_06KGEGJNGH@masonX?$AA@+4
  01525	66 89 b9 0c 1e
	00 00		 mov	 WORD PTR [ecx+7692], di
  0152c	0f b6 1d 06 00
	00 00		 movzx	 ebx, BYTE PTR ??_C@_06KGEGJNGH@masonX?$AA@+6
  01533	88 99 0e 1e 00
	00		 mov	 BYTE PTR [ecx+7694], bl

; 781  : 	this->List[eZtUB::masonX].hwid						= 1356980851;

  01539	c7 81 2c 1e 00
	00 73 e2 e1 50	 mov	 DWORD PTR [ecx+7724], 1356980851 ; 50e1e273H

; 782  : 	//strcpy(this->List[eZtUB::masonX].mac,			"DF-FE-FA-BB-AE-58");
; 783  : 	this->List[eZtUB::masonX].PartySystem				= true;

  01543	88 81 5f 1e 00
	00		 mov	 BYTE PTR [ecx+7775], al

; 784  : 	this->List[eZtUB::masonX].PerosnalStoreZt				= true;

  01549	88 81 64 1e 00
	00		 mov	 BYTE PTR [ecx+7780], al

; 785  : 	this->List[eZtUB::masonX].PartySearch				= true;

  0154f	88 81 61 1e 00
	00		 mov	 BYTE PTR [ecx+7777], al

; 786  : 	this->List[eZtUB::masonX].PremiumZt				= true;

  01555	88 81 7a 1e 00
	00		 mov	 BYTE PTR [ecx+7802], al

; 787  : 
; 788  : 	strcpy(this->List[eZtUB::MatiasLeiva].Login,		"MatiasLeiva");

  0155b	8b 3d 00 00 00
	00		 mov	 edi, DWORD PTR ??_C@_0M@DGODHKFP@MatiasLeiva?$AA@
  01561	89 b9 84 1e 00
	00		 mov	 DWORD PTR [ecx+7812], edi
  01567	8b 3d 04 00 00
	00		 mov	 edi, DWORD PTR ??_C@_0M@DGODHKFP@MatiasLeiva?$AA@+4
  0156d	89 b9 88 1e 00
	00		 mov	 DWORD PTR [ecx+7816], edi
  01573	8b 3d 08 00 00
	00		 mov	 edi, DWORD PTR ??_C@_0M@DGODHKFP@MatiasLeiva?$AA@+8
  01579	89 b9 8c 1e 00
	00		 mov	 DWORD PTR [ecx+7820], edi

; 789  : 	this->List[eZtUB::MatiasLeiva].hwid					= 3028269993;

  0157f	c7 81 a8 1e 00
	00 a9 bb 7f b4	 mov	 DWORD PTR [ecx+7848], -1266697303 ; b47fbba9H

; 790  : 	strcpy(this->List[eZtUB::MatiasLeiva].mac,			"00-50-56-04-83-04");

  01589	8b 3d 00 00 00
	00		 mov	 edi, DWORD PTR ??_C@_0BC@NILJJNGM@00?950?956?904?983?904?$AA@
  0158f	89 b9 ac 1e 00
	00		 mov	 DWORD PTR [ecx+7852], edi
  01595	8b 3d 04 00 00
	00		 mov	 edi, DWORD PTR ??_C@_0BC@NILJJNGM@00?950?956?904?983?904?$AA@+4
  0159b	89 b9 b0 1e 00
	00		 mov	 DWORD PTR [ecx+7856], edi
  015a1	8b 3d 08 00 00
	00		 mov	 edi, DWORD PTR ??_C@_0BC@NILJJNGM@00?950?956?904?983?904?$AA@+8
  015a7	89 b9 b4 1e 00
	00		 mov	 DWORD PTR [ecx+7860], edi
  015ad	8b 3d 0c 00 00
	00		 mov	 edi, DWORD PTR ??_C@_0BC@NILJJNGM@00?950?956?904?983?904?$AA@+12
  015b3	89 b9 b8 1e 00
	00		 mov	 DWORD PTR [ecx+7864], edi
  015b9	0f b7 3d 10 00
	00 00		 movzx	 edi, WORD PTR ??_C@_0BC@NILJJNGM@00?950?956?904?983?904?$AA@+16
  015c0	66 89 b9 bc 1e
	00 00		 mov	 WORD PTR [ecx+7868], di

; 791  : 	
; 792  : 	strcpy(this->List[eZtUB::AlterMU].Login,		"AlterMU");

  015c7	8b 3d 00 00 00
	00		 mov	 edi, DWORD PTR ??_C@_07IMCFKMAL@AlterMU?$AA@
  015cd	89 b9 00 1f 00
	00		 mov	 DWORD PTR [ecx+7936], edi
  015d3	8b 3d 04 00 00
	00		 mov	 edi, DWORD PTR ??_C@_07IMCFKMAL@AlterMU?$AA@+4
  015d9	89 b9 04 1f 00
	00		 mov	 DWORD PTR [ecx+7940], edi

; 793  : 	this->List[eZtUB::AlterMU].hwid					= 3324969216;

  015df	bf 00 01 2f c6	 mov	 edi, -969998080		; c62f0100H
  015e4	89 b9 24 1f 00
	00		 mov	 DWORD PTR [ecx+7972], edi

; 794  : 	strcpy(this->List[eZtUB::AlterMU].mac,			"02-27-D6-00-02-0D");

  015ea	8b 1d 00 00 00
	00		 mov	 ebx, DWORD PTR ??_C@_0BC@DHOALJDL@02?927?9D6?900?902?90D?$AA@
  015f0	89 99 28 1f 00
	00		 mov	 DWORD PTR [ecx+7976], ebx
  015f6	8b 1d 04 00 00
	00		 mov	 ebx, DWORD PTR ??_C@_0BC@DHOALJDL@02?927?9D6?900?902?90D?$AA@+4
  015fc	89 99 2c 1f 00
	00		 mov	 DWORD PTR [ecx+7980], ebx
  01602	8b 1d 08 00 00
	00		 mov	 ebx, DWORD PTR ??_C@_0BC@DHOALJDL@02?927?9D6?900?902?90D?$AA@+8
  01608	89 99 30 1f 00
	00		 mov	 DWORD PTR [ecx+7984], ebx
  0160e	8b 1d 0c 00 00
	00		 mov	 ebx, DWORD PTR ??_C@_0BC@DHOALJDL@02?927?9D6?900?902?90D?$AA@+12
  01614	89 99 34 1f 00
	00		 mov	 DWORD PTR [ecx+7988], ebx
  0161a	0f b7 1d 10 00
	00 00		 movzx	 ebx, WORD PTR ??_C@_0BC@DHOALJDL@02?927?9D6?900?902?90D?$AA@+16
  01621	66 89 99 38 1f
	00 00		 mov	 WORD PTR [ecx+7992], bx

; 795  : 	this->List[eZtUB::AlterMU].PartySystem				= true;

  01628	88 81 57 1f 00
	00		 mov	 BYTE PTR [ecx+8023], al

; 796  : 	this->List[eZtUB::AlterMU].PartySearch				= true;

  0162e	66 c7 81 59 1f
	00 00 01 01	 mov	 WORD PTR [ecx+8025], 257 ; 00000101H

; 797  : 	this->List[eZtUB::AlterMU].ChatLog					= true;
; 798  : 	this->List[eZtUB::AlterMU].GM_Manager				= true;

  01637	66 c7 81 5b 1f
	00 00 01 01	 mov	 WORD PTR [ecx+8027], 257 ; 00000101H

; 799  : 	this->List[eZtUB::AlterMU].PerosnalStoreZt			= true;
; 800  : 	this->List[eZtUB::AlterMU].AntiCheatPlus			= true;

  01640	88 81 5e 1f 00
	00		 mov	 BYTE PTR [ecx+8030], al

; 801  : 	this->List[eZtUB::AlterMU].Monster					= true;

  01646	66 c7 81 65 1f
	00 00 01 01	 mov	 WORD PTR [ecx+8037], 257 ; 00000101H

; 802  : 	this->List[eZtUB::AlterMU].ItemSmokeEffect			= true;
; 803  : 	this->List[eZtUB::AlterMU].PartySave				= true;

  0164f	66 c7 81 68 1f
	00 00 01 01	 mov	 WORD PTR [ecx+8040], 257 ; 00000101H

; 804  : 	this->List[eZtUB::AlterMU].DisableMasterTree		= true;
; 805  : 	this->List[eZtUB::AlterMU].OfflineMode				= true;

  01658	88 81 6a 1f 00
	00		 mov	 BYTE PTR [ecx+8042], al

; 806  : 	this->List[eZtUB::AlterMU].MonsterAttackLife		= true;

  0165e	88 81 6c 1f 00
	00		 mov	 BYTE PTR [ecx+8044], al

; 807  : 	this->List[eZtUB::AlterMU].RestoreOffMode			= true;

  01664	88 81 6e 1f 00
	00		 mov	 BYTE PTR [ecx+8046], al

; 808  : 	this->List[eZtUB::AlterMU].bAchievements			= true;	

  0166a	88 81 71 1f 00
	00		 mov	 BYTE PTR [ecx+8049], al

; 809  : 	this->List[eZtUB::AlterMU].GrandHero				= true;	

  01670	88 81 56 1f 00
	00		 mov	 BYTE PTR [ecx+8022], al

; 810  : 	this->List[eZtUB::AlterMU].CustomCameraMove			= true;	

  01676	88 81 79 1f 00
	00		 mov	 BYTE PTR [ecx+8057], al

; 811  : 	//this->List[eZtUB::AlterMU].CustomMiniMapZt			= true;	
; 812  : 	
; 813  : 
; 814  : 	strcpy(this->List[eZtUB::Almdar2].Login,			"Almdar2");

  0167c	8b 1d 00 00 00
	00		 mov	 ebx, DWORD PTR ??_C@_07NCLLHBFE@Almdar2?$AA@
  01682	89 99 7c 1f 00
	00		 mov	 DWORD PTR [ecx+8060], ebx
  01688	8b 1d 04 00 00
	00		 mov	 ebx, DWORD PTR ??_C@_07NCLLHBFE@Almdar2?$AA@+4
  0168e	89 99 80 1f 00
	00		 mov	 DWORD PTR [ecx+8064], ebx

; 815  : 	this->List[eZtUB::Almdar2].hwid						= 2756002743;	//2764084540

  01694	89 b1 a0 1f 00
	00		 mov	 DWORD PTR [ecx+8096], esi

; 816  : 	strcpy(this->List[eZtUB::Almdar2].mac,				"74-D4-35-FE-B7-24");

  0169a	8b 35 00 00 00
	00		 mov	 esi, DWORD PTR ??_C@_0BC@CFLFIKCB@74?9D4?935?9FE?9B7?924?$AA@
  016a0	89 b1 a4 1f 00
	00		 mov	 DWORD PTR [ecx+8100], esi
  016a6	8b 35 04 00 00
	00		 mov	 esi, DWORD PTR ??_C@_0BC@CFLFIKCB@74?9D4?935?9FE?9B7?924?$AA@+4
  016ac	89 b1 a8 1f 00
	00		 mov	 DWORD PTR [ecx+8104], esi
  016b2	8b 35 08 00 00
	00		 mov	 esi, DWORD PTR ??_C@_0BC@CFLFIKCB@74?9D4?935?9FE?9B7?924?$AA@+8
  016b8	89 b1 ac 1f 00
	00		 mov	 DWORD PTR [ecx+8108], esi
  016be	8b 35 0c 00 00
	00		 mov	 esi, DWORD PTR ??_C@_0BC@CFLFIKCB@74?9D4?935?9FE?9B7?924?$AA@+12
  016c4	89 b1 b0 1f 00
	00		 mov	 DWORD PTR [ecx+8112], esi
  016ca	0f b7 35 10 00
	00 00		 movzx	 esi, WORD PTR ??_C@_0BC@CFLFIKCB@74?9D4?935?9FE?9B7?924?$AA@+16
  016d1	66 89 b1 b4 1f
	00 00		 mov	 WORD PTR [ecx+8116], si

; 817  : 	this->List[eZtUB::Almdar2].AntiCheatPlus			= true;

  016d8	88 81 da 1f 00
	00		 mov	 BYTE PTR [ecx+8154], al

; 818  : 	this->List[eZtUB::Almdar2].PerosnalStoreZt			= true;

  016de	66 c7 81 d7 1f
	00 00 01 01	 mov	 WORD PTR [ecx+8151], 257 ; 00000101H

; 819  : 	this->List[eZtUB::Almdar2].GM_Manager				= true;
; 820  : 	//1087360052
; 821  : 
; 822  : 	strcpy(this->List[eZtUB::Escalate].Login,			"Escalate");

  016e7	8b 35 00 00 00
	00		 mov	 esi, DWORD PTR ??_C@_08ECPAOEKJ@Escalate?$AA@
  016ed	89 b1 f8 1f 00
	00		 mov	 DWORD PTR [ecx+8184], esi
  016f3	8b 35 04 00 00
	00		 mov	 esi, DWORD PTR ??_C@_08ECPAOEKJ@Escalate?$AA@+4
  016f9	89 b1 fc 1f 00
	00		 mov	 DWORD PTR [ecx+8188], esi
  016ff	0f b6 1d 08 00
	00 00		 movzx	 ebx, BYTE PTR ??_C@_08ECPAOEKJ@Escalate?$AA@+8
  01706	88 99 00 20 00
	00		 mov	 BYTE PTR [ecx+8192], bl

; 823  : 	this->List[eZtUB::Escalate].hwid					= 3302700294;	//2633646976;

  0170c	be 06 35 db c4	 mov	 esi, -992267002		; c4db3506H
  01711	89 b1 1c 20 00
	00		 mov	 DWORD PTR [ecx+8220], esi

; 824  : 	strcpy(this->List[eZtUB::Escalate].mac,				"02-12-5D-00-45-90");

  01717	8b 1d 00 00 00
	00		 mov	 ebx, DWORD PTR ??_C@_0BC@NGKMICPN@02?912?95D?900?945?990?$AA@
  0171d	89 99 20 20 00
	00		 mov	 DWORD PTR [ecx+8224], ebx
  01723	8b 1d 04 00 00
	00		 mov	 ebx, DWORD PTR ??_C@_0BC@NGKMICPN@02?912?95D?900?945?990?$AA@+4
  01729	89 99 24 20 00
	00		 mov	 DWORD PTR [ecx+8228], ebx
  0172f	8b 1d 08 00 00
	00		 mov	 ebx, DWORD PTR ??_C@_0BC@NGKMICPN@02?912?95D?900?945?990?$AA@+8
  01735	89 99 28 20 00
	00		 mov	 DWORD PTR [ecx+8232], ebx
  0173b	8b 1d 0c 00 00
	00		 mov	 ebx, DWORD PTR ??_C@_0BC@NGKMICPN@02?912?95D?900?945?990?$AA@+12
  01741	89 99 2c 20 00
	00		 mov	 DWORD PTR [ecx+8236], ebx
  01747	0f b7 1d 10 00
	00 00		 movzx	 ebx, WORD PTR ??_C@_0BC@NGKMICPN@02?912?95D?900?945?990?$AA@+16
  0174e	66 89 99 30 20
	00 00		 mov	 WORD PTR [ecx+8240], bx

; 825  : 	this->List[eZtUB::Escalate].PartySearch				= true;

  01755	88 81 51 20 00
	00		 mov	 BYTE PTR [ecx+8273], al

; 826  : 	this->List[eZtUB::Escalate].PartySystem				= true;

  0175b	88 81 4f 20 00
	00		 mov	 BYTE PTR [ecx+8271], al

; 827  : 	this->List[eZtUB::Escalate].GM_Manager				= true;

  01761	66 c7 81 53 20
	00 00 01 01	 mov	 WORD PTR [ecx+8275], 257 ; 00000101H

; 828  : 	this->List[eZtUB::Escalate].PerosnalStoreZt			= true;
; 829  : 	this->List[eZtUB::Escalate].AntiCheatPlus			= true;

  0176a	88 81 56 20 00
	00		 mov	 BYTE PTR [ecx+8278], al

; 830  : 	this->List[eZtUB::Escalate].Rage					= true;

  01770	88 81 49 20 00
	00		 mov	 BYTE PTR [ecx+8265], al

; 831  : 	this->List[eZtUB::Escalate].Monster					= true;

  01776	88 81 5d 20 00
	00		 mov	 BYTE PTR [ecx+8285], al

; 832  : 	this->List[eZtUB::Escalate].PartySave				= true;

  0177c	88 81 60 20 00
	00		 mov	 BYTE PTR [ecx+8288], al

; 833  : 	this->List[eZtUB::Escalate].OfflineMode				= true;
; 834  : 	this->List[eZtUB::Escalate].bRankItem				= true;

  01782	66 c7 81 64 20
	00 00 01 01	 mov	 WORD PTR [ecx+8292], 257 ; 00000101H

; 835  : 	this->List[eZtUB::Escalate].MonsterAttackLife		= true;
; 836  : 	this->List[eZtUB::Escalate].GrandDinamicExp			= true;

  0178b	88 81 5f 20 00
	00		 mov	 BYTE PTR [ecx+8287], al

; 837  : 	this->List[eZtUB::Escalate].RestoreOffMode			= true;

  01791	88 81 66 20 00
	00		 mov	 BYTE PTR [ecx+8294], al

; 838  : 	this->List[eZtUB::Escalate].bTeamVsTeam2			= true;

  01797	88 81 68 20 00
	00		 mov	 BYTE PTR [ecx+8296], al

; 839  : 	this->List[eZtUB::Escalate].LoraBattle				= true;	//OK

  0179d	88 81 5b 20 00
	00		 mov	 BYTE PTR [ecx+8283], al

; 840  : 	//this->List[eZtUB::Escalate].Smithy					= true;	//OK
; 841  : 	this->List[eZtUB::Escalate].ItemSmokeEffect			= true;	//OK

  017a3	88 81 5e 20 00
	00		 mov	 BYTE PTR [ecx+8286], al

; 842  : 	this->List[eZtUB::Escalate].PandoraEvent			= true;	//OK

  017a9	88 81 55 20 00
	00		 mov	 BYTE PTR [ecx+8277], al

; 843  : 	this->List[eZtUB::Escalate].OfflineMode				= true;

  017af	88 81 62 20 00
	00		 mov	 BYTE PTR [ecx+8290], al

; 844  : 	this->List[eZtUB::Escalate].bAchievements			= true;

  017b5	88 81 69 20 00
	00		 mov	 BYTE PTR [ecx+8297], al

; 845  : 	this->List[eZtUB::Escalate].AccSecurity				= true;

  017bb	66 c7 81 6a 20
	00 00 01 01	 mov	 WORD PTR [ecx+8298], 257 ; 00000101H

; 846  : 	this->List[eZtUB::Escalate].PremiumZt				= true;
; 847  : 	this->List[eZtUB::Escalate].ComboCustom				= true;

  017c4	88 81 58 20 00
	00		 mov	 BYTE PTR [ecx+8280], al

; 848  : 
; 849  : 	strcpy(this->List[eZtUB::RafaelLorenzet].Login,		"RafaelLorenzet");

  017ca	8b 1d 00 00 00
	00		 mov	 ebx, DWORD PTR ??_C@_0P@NNDEBNIG@RafaelLorenzet?$AA@
  017d0	89 99 74 20 00
	00		 mov	 DWORD PTR [ecx+8308], ebx
  017d6	8b 1d 04 00 00
	00		 mov	 ebx, DWORD PTR ??_C@_0P@NNDEBNIG@RafaelLorenzet?$AA@+4
  017dc	89 99 78 20 00
	00		 mov	 DWORD PTR [ecx+8312], ebx
  017e2	8b 1d 08 00 00
	00		 mov	 ebx, DWORD PTR ??_C@_0P@NNDEBNIG@RafaelLorenzet?$AA@+8
  017e8	89 99 7c 20 00
	00		 mov	 DWORD PTR [ecx+8316], ebx
  017ee	0f b7 1d 0c 00
	00 00		 movzx	 ebx, WORD PTR ??_C@_0P@NNDEBNIG@RafaelLorenzet?$AA@+12
  017f5	66 89 99 80 20
	00 00		 mov	 WORD PTR [ecx+8320], bx
  017fc	0f b6 1d 0e 00
	00 00		 movzx	 ebx, BYTE PTR ??_C@_0P@NNDEBNIG@RafaelLorenzet?$AA@+14
  01803	88 99 82 20 00
	00		 mov	 BYTE PTR [ecx+8322], bl

; 850  : 	this->List[eZtUB::RafaelLorenzet].hwid				= 2282774568;	//2633646976;

  01809	c7 81 98 20 00
	00 28 60 10 88	 mov	 DWORD PTR [ecx+8344], -2012192728 ; 88106028H

; 851  : 	strcpy(this->List[eZtUB::RafaelLorenzet].mac,		"00-15-5D-1E-17-05");

  01813	8b 1d 00 00 00
	00		 mov	 ebx, DWORD PTR ??_C@_0BC@MMDNDOFE@00?915?95D?91E?917?905?$AA@
  01819	89 99 9c 20 00
	00		 mov	 DWORD PTR [ecx+8348], ebx
  0181f	8b 1d 04 00 00
	00		 mov	 ebx, DWORD PTR ??_C@_0BC@MMDNDOFE@00?915?95D?91E?917?905?$AA@+4
  01825	89 99 a0 20 00
	00		 mov	 DWORD PTR [ecx+8352], ebx
  0182b	8b 1d 08 00 00
	00		 mov	 ebx, DWORD PTR ??_C@_0BC@MMDNDOFE@00?915?95D?91E?917?905?$AA@+8
  01831	89 99 a4 20 00
	00		 mov	 DWORD PTR [ecx+8356], ebx
  01837	8b 1d 0c 00 00
	00		 mov	 ebx, DWORD PTR ??_C@_0BC@MMDNDOFE@00?915?95D?91E?917?905?$AA@+12
  0183d	89 99 a8 20 00
	00		 mov	 DWORD PTR [ecx+8360], ebx
  01843	0f b7 1d 10 00
	00 00		 movzx	 ebx, WORD PTR ??_C@_0BC@MMDNDOFE@00?915?95D?91E?917?905?$AA@+16
  0184a	66 89 99 ac 20
	00 00		 mov	 WORD PTR [ecx+8364], bx

; 852  : 
; 853  : 	strcpy(this->List[eZtUB::TGBA_LLC].Login,			"TGBA_LLC");

  01851	8b 1d 00 00 00
	00		 mov	 ebx, DWORD PTR ??_C@_08MLNFFKLL@TGBA_LLC?$AA@
  01857	89 99 f0 20 00
	00		 mov	 DWORD PTR [ecx+8432], ebx
  0185d	8b 1d 04 00 00
	00		 mov	 ebx, DWORD PTR ??_C@_08MLNFFKLL@TGBA_LLC?$AA@+4
  01863	89 99 f4 20 00
	00		 mov	 DWORD PTR [ecx+8436], ebx
  01869	0f b6 1d 08 00
	00 00		 movzx	 ebx, BYTE PTR ??_C@_08MLNFFKLL@TGBA_LLC?$AA@+8
  01870	88 99 f8 20 00
	00		 mov	 BYTE PTR [ecx+8440], bl

; 854  : 	this->List[eZtUB::TGBA_LLC].hwid					= 3324969216;	//2633646976;

  01876	89 b9 14 21 00
	00		 mov	 DWORD PTR [ecx+8468], edi

; 855  : 	strcpy(this->List[eZtUB::TGBA_LLC].mac,				"00-01-5D-D7-04-C1");

  0187c	8b 1d 00 00 00
	00		 mov	 ebx, DWORD PTR ??_C@_0BC@IGAMMAKI@00?901?95D?9D7?904?9C1?$AA@
  01882	89 99 18 21 00
	00		 mov	 DWORD PTR [ecx+8472], ebx
  01888	8b 1d 04 00 00
	00		 mov	 ebx, DWORD PTR ??_C@_0BC@IGAMMAKI@00?901?95D?9D7?904?9C1?$AA@+4
  0188e	89 99 1c 21 00
	00		 mov	 DWORD PTR [ecx+8476], ebx
  01894	8b 1d 08 00 00
	00		 mov	 ebx, DWORD PTR ??_C@_0BC@IGAMMAKI@00?901?95D?9D7?904?9C1?$AA@+8
  0189a	89 99 20 21 00
	00		 mov	 DWORD PTR [ecx+8480], ebx
  018a0	8b 1d 0c 00 00
	00		 mov	 ebx, DWORD PTR ??_C@_0BC@IGAMMAKI@00?901?95D?9D7?904?9C1?$AA@+12
  018a6	89 99 24 21 00
	00		 mov	 DWORD PTR [ecx+8484], ebx
  018ac	0f b7 1d 10 00
	00 00		 movzx	 ebx, WORD PTR ??_C@_0BC@IGAMMAKI@00?901?95D?9D7?904?9C1?$AA@+16
  018b3	66 89 99 28 21
	00 00		 mov	 WORD PTR [ecx+8488], bx

; 856  : 	this->List[eZtUB::TGBA_LLC].Monster					= true;

  018ba	88 81 55 21 00
	00		 mov	 BYTE PTR [ecx+8533], al

; 857  : 	this->List[eZtUB::TGBA_LLC].bAchievements			= true;

  018c0	88 81 61 21 00
	00		 mov	 BYTE PTR [ecx+8545], al

; 858  : 	this->List[eZtUB::TGBA_LLC].MonsterQuest			= true;

  018c6	88 81 44 21 00
	00		 mov	 BYTE PTR [ecx+8516], al

; 859  : 	
; 860  : 	strcpy(this->List[eZtUB::RevoMU].Login,				"RevoMU");

  018cc	8b 1d 00 00 00
	00		 mov	 ebx, DWORD PTR ??_C@_06CELJADEO@RevoMU?$AA@
  018d2	89 99 6c 21 00
	00		 mov	 DWORD PTR [ecx+8556], ebx
  018d8	0f b7 1d 04 00
	00 00		 movzx	 ebx, WORD PTR ??_C@_06CELJADEO@RevoMU?$AA@+4
  018df	66 89 99 70 21
	00 00		 mov	 WORD PTR [ecx+8560], bx
  018e6	0f b6 1d 06 00
	00 00		 movzx	 ebx, BYTE PTR ??_C@_06CELJADEO@RevoMU?$AA@+6
  018ed	88 99 72 21 00
	00		 mov	 BYTE PTR [ecx+8562], bl

; 861  : 	//this->List[eZtUB::RevoMU].hwid						= 1918130772;
; 862  : 	this->List[eZtUB::RevoMU].hwid						= 3324969216;	//3324969216;	// 1918130772;

  018f3	89 b9 90 21 00
	00		 mov	 DWORD PTR [ecx+8592], edi

; 863  : 	strcpy(this->List[eZtUB::RevoMU].mac,				"02-05-5D-CD-04-73");

  018f9	8b 3d 00 00 00
	00		 mov	 edi, DWORD PTR ??_C@_0BC@GMOMIGMA@02?905?95D?9CD?904?973?$AA@
  018ff	89 b9 94 21 00
	00		 mov	 DWORD PTR [ecx+8596], edi
  01905	8b 3d 04 00 00
	00		 mov	 edi, DWORD PTR ??_C@_0BC@GMOMIGMA@02?905?95D?9CD?904?973?$AA@+4
  0190b	89 b9 98 21 00
	00		 mov	 DWORD PTR [ecx+8600], edi
  01911	8b 3d 08 00 00
	00		 mov	 edi, DWORD PTR ??_C@_0BC@GMOMIGMA@02?905?95D?9CD?904?973?$AA@+8
  01917	89 b9 9c 21 00
	00		 mov	 DWORD PTR [ecx+8604], edi
  0191d	8b 3d 0c 00 00
	00		 mov	 edi, DWORD PTR ??_C@_0BC@GMOMIGMA@02?905?95D?9CD?904?973?$AA@+12
  01923	89 b9 a0 21 00
	00		 mov	 DWORD PTR [ecx+8608], edi
  01929	0f b7 3d 10 00
	00 00		 movzx	 edi, WORD PTR ??_C@_0BC@GMOMIGMA@02?905?95D?9CD?904?973?$AA@+16
  01930	66 89 b9 a4 21
	00 00		 mov	 WORD PTR [ecx+8612], di

; 864  : 	this->List[eZtUB::RevoMU].bAchievements				= true;

  01937	88 81 dd 21 00
	00		 mov	 BYTE PTR [ecx+8669], al

; 865  : 	this->List[eZtUB::RevoMU].OfflineMode				= true;

  0193d	88 81 d6 21 00
	00		 mov	 BYTE PTR [ecx+8662], al

; 866  : 	this->List[eZtUB::RevoMU].PerosnalStoreZt			= true;

  01943	88 81 c8 21 00
	00		 mov	 BYTE PTR [ecx+8648], al

; 867  : 	this->List[eZtUB::RevoMU].PartySystem				= true;

  01949	88 81 c3 21 00
	00		 mov	 BYTE PTR [ecx+8643], al

; 868  : 	this->List[eZtUB::RevoMU].PartySearch				= true;

  0194f	66 c7 81 c5 21
	00 00 01 01	 mov	 WORD PTR [ecx+8645], 257 ; 00000101H

; 869  : 	this->List[eZtUB::RevoMU].ChatLog					= true;
; 870  : 	this->List[eZtUB::RevoMU].GM_Manager				= true;

  01958	88 81 c7 21 00
	00		 mov	 BYTE PTR [ecx+8647], al

; 871  : 	this->List[eZtUB::RevoMU].PartySave					= true;

  0195e	88 81 d4 21 00
	00		 mov	 BYTE PTR [ecx+8660], al

; 872  : 	this->List[eZtUB::RevoMU].RestoreOffMode			= true;

  01964	88 81 da 21 00
	00		 mov	 BYTE PTR [ecx+8666], al

; 873  : 	this->List[eZtUB::RevoMU].PremiumZt					= true;

  0196a	66 c7 81 de 21
	00 00 01 01	 mov	 WORD PTR [ecx+8670], 257 ; 00000101H

; 874  : 	this->List[eZtUB::RevoMU].AccSecurity				= true;
; 875  : 	this->List[eZtUB::RevoMU].MonsterQuest				= true;

  01973	88 81 c0 21 00
	00		 mov	 BYTE PTR [ecx+8640], al

; 876  : 
; 877  : 	strcpy(this->List[eZtUB::DrXAOS].Login,				"DrXAOS");

  01979	8b 3d 00 00 00
	00		 mov	 edi, DWORD PTR ??_C@_06FFKGKCBJ@DrXAOS?$AA@
  0197f	89 b9 e8 21 00
	00		 mov	 DWORD PTR [ecx+8680], edi
  01985	0f b7 3d 04 00
	00 00		 movzx	 edi, WORD PTR ??_C@_06FFKGKCBJ@DrXAOS?$AA@+4
  0198c	66 89 b9 ec 21
	00 00		 mov	 WORD PTR [ecx+8684], di
  01993	0f b6 1d 06 00
	00 00		 movzx	 ebx, BYTE PTR ??_C@_06FFKGKCBJ@DrXAOS?$AA@+6
  0199a	88 99 ee 21 00
	00		 mov	 BYTE PTR [ecx+8686], bl

; 878  : 	this->List[eZtUB::DrXAOS].hwid						= 2153285885;

  019a0	c7 81 0c 22 00
	00 fd 88 58 80	 mov	 DWORD PTR [ecx+8716], -2141681411 ; 805888fdH

; 879  : 	strcpy(this->List[eZtUB::DrXAOS].mac,				"97-67-23-65-5A-0A");

  019aa	8b 3d 00 00 00
	00		 mov	 edi, DWORD PTR ??_C@_0BC@KDCDCIGI@97?967?923?965?95A?90A?$AA@
  019b0	89 b9 10 22 00
	00		 mov	 DWORD PTR [ecx+8720], edi
  019b6	8b 3d 04 00 00
	00		 mov	 edi, DWORD PTR ??_C@_0BC@KDCDCIGI@97?967?923?965?95A?90A?$AA@+4
  019bc	89 b9 14 22 00
	00		 mov	 DWORD PTR [ecx+8724], edi
  019c2	8b 3d 08 00 00
	00		 mov	 edi, DWORD PTR ??_C@_0BC@KDCDCIGI@97?967?923?965?95A?90A?$AA@+8
  019c8	89 b9 18 22 00
	00		 mov	 DWORD PTR [ecx+8728], edi
  019ce	8b 3d 0c 00 00
	00		 mov	 edi, DWORD PTR ??_C@_0BC@KDCDCIGI@97?967?923?965?95A?90A?$AA@+12
  019d4	89 b9 1c 22 00
	00		 mov	 DWORD PTR [ecx+8732], edi
  019da	0f b7 3d 10 00
	00 00		 movzx	 edi, WORD PTR ??_C@_0BC@KDCDCIGI@97?967?923?965?95A?90A?$AA@+16
  019e1	66 89 b9 20 22
	00 00		 mov	 WORD PTR [ecx+8736], di

; 880  : 
; 881  : 	strcpy(this->List[eZtUB::masonX2].Login,				"masonX");

  019e8	8b 3d 00 00 00
	00		 mov	 edi, DWORD PTR ??_C@_06KGEGJNGH@masonX?$AA@
  019ee	89 b9 64 22 00
	00		 mov	 DWORD PTR [ecx+8804], edi
  019f4	0f b7 3d 04 00
	00 00		 movzx	 edi, WORD PTR ??_C@_06KGEGJNGH@masonX?$AA@+4
  019fb	66 89 b9 68 22
	00 00		 mov	 WORD PTR [ecx+8808], di
  01a02	0f b6 1d 06 00
	00 00		 movzx	 ebx, BYTE PTR ??_C@_06KGEGJNGH@masonX?$AA@+6
  01a09	88 99 6a 22 00
	00		 mov	 BYTE PTR [ecx+8810], bl

; 882  : 	this->List[eZtUB::masonX2].hwid						= 473466670;

  01a0f	c7 81 88 22 00
	00 2e 87 38 1c	 mov	 DWORD PTR [ecx+8840], 473466670 ; 1c38872eH

; 883  : 	strcpy(this->List[eZtUB::masonX2].mac,				"A6-A1-04-8F-7C-F2");

  01a19	8b 3d 00 00 00
	00		 mov	 edi, DWORD PTR ??_C@_0BC@NDFIENCO@A6?9A1?904?98F?97C?9F2?$AA@
  01a1f	89 b9 8c 22 00
	00		 mov	 DWORD PTR [ecx+8844], edi
  01a25	8b 3d 04 00 00
	00		 mov	 edi, DWORD PTR ??_C@_0BC@NDFIENCO@A6?9A1?904?98F?97C?9F2?$AA@+4
  01a2b	89 b9 90 22 00
	00		 mov	 DWORD PTR [ecx+8848], edi
  01a31	8b 3d 08 00 00
	00		 mov	 edi, DWORD PTR ??_C@_0BC@NDFIENCO@A6?9A1?904?98F?97C?9F2?$AA@+8
  01a37	89 b9 94 22 00
	00		 mov	 DWORD PTR [ecx+8852], edi
  01a3d	8b 3d 0c 00 00
	00		 mov	 edi, DWORD PTR ??_C@_0BC@NDFIENCO@A6?9A1?904?98F?97C?9F2?$AA@+12
  01a43	89 b9 98 22 00
	00		 mov	 DWORD PTR [ecx+8856], edi
  01a49	0f b7 3d 10 00
	00 00		 movzx	 edi, WORD PTR ??_C@_0BC@NDFIENCO@A6?9A1?904?98F?97C?9F2?$AA@+16
  01a50	66 89 b9 9c 22
	00 00		 mov	 WORD PTR [ecx+8860], di

; 884  : 	this->List[eZtUB::masonX2].PartySystem				= true;

  01a57	88 81 bb 22 00
	00		 mov	 BYTE PTR [ecx+8891], al

; 885  : 	this->List[eZtUB::masonX2].PerosnalStoreZt			= true;

  01a5d	88 81 c0 22 00
	00		 mov	 BYTE PTR [ecx+8896], al

; 886  : 	this->List[eZtUB::masonX2].PartySearch				= true;

  01a63	88 81 bd 22 00
	00		 mov	 BYTE PTR [ecx+8893], al

; 887  : 	this->List[eZtUB::masonX2].PremiumZt				= true;

  01a69	88 81 d6 22 00
	00		 mov	 BYTE PTR [ecx+8918], al

; 888  : 
; 889  : 	strcpy(this->List[eZtUB::GloryMU].Login,				"GloryMU");

  01a6f	8b 3d 00 00 00
	00		 mov	 edi, DWORD PTR ??_C@_07CGJKJLEH@GloryMU?$AA@
  01a75	89 b9 e0 22 00
	00		 mov	 DWORD PTR [ecx+8928], edi
  01a7b	8b 3d 04 00 00
	00		 mov	 edi, DWORD PTR ??_C@_07CGJKJLEH@GloryMU?$AA@+4
  01a81	89 b9 e4 22 00
	00		 mov	 DWORD PTR [ecx+8932], edi

; 890  : 	//this->List[eZtUB::GloryMU].hwid						= 3302700294;
; 891  : 	//strcpy(this->List[eZtUB::GloryMU].mac,			"02-0E-5D-00-3E-4F");
; 892  : 	this->List[eZtUB::GloryMU].GrandHero				= true;

  01a87	66 c7 81 36 23
	00 00 01 01	 mov	 WORD PTR [ecx+9014], 257 ; 00000101H

; 893  : 	this->List[eZtUB::GloryMU].PartySystem				= true;
; 894  : 	this->List[eZtUB::GloryMU].PartySearch				= true;

  01a90	66 c7 81 39 23
	00 00 01 01	 mov	 WORD PTR [ecx+9017], 257 ; 00000101H

; 895  : 	this->List[eZtUB::GloryMU].ChatLog					= true;
; 896  : 	this->List[eZtUB::GloryMU].GM_Manager				= true;

  01a99	66 c7 81 3b 23
	00 00 01 01	 mov	 WORD PTR [ecx+9019], 257 ; 00000101H

; 897  : 	this->List[eZtUB::GloryMU].PerosnalStoreZt			= true;
; 898  : 	this->List[eZtUB::GloryMU].ComboCustom				= false;

  01aa2	66 89 91 40 23
	00 00		 mov	 WORD PTR [ecx+9024], dx

; 899  : 	this->List[eZtUB::GloryMU].NpcBuffer				= false;
; 900  : 	this->List[eZtUB::GloryMU].LoraBattle				= true;

  01aa9	66 c7 81 43 23
	00 00 01 01	 mov	 WORD PTR [ecx+9027], 257 ; 00000101H

; 901  : 	this->List[eZtUB::GloryMU].Smithy					= true;
; 902  : 	this->List[eZtUB::GloryMU].Monster					= true;

  01ab2	66 c7 81 45 23
	00 00 01 01	 mov	 WORD PTR [ecx+9029], 257 ; 00000101H

; 903  : 	this->List[eZtUB::GloryMU].ItemSmokeEffect			= true;
; 904  : 	this->List[eZtUB::GloryMU].GrandDinamicExp			= true;

  01abb	66 c7 81 47 23
	00 00 01 01	 mov	 WORD PTR [ecx+9031], 257 ; 00000101H

; 905  : 	this->List[eZtUB::GloryMU].PartySave				= true;
; 906  : 	this->List[eZtUB::GloryMU].DisableMasterTree		= true;

  01ac4	66 c7 81 49 23
	00 00 01 01	 mov	 WORD PTR [ecx+9033], 257 ; 00000101H

; 907  : 	this->List[eZtUB::GloryMU].OfflineMode				= true;
; 908  : 	this->List[eZtUB::GloryMU].bRankItem				= false;

  01acd	66 c7 81 4d 23
	00 00 00 01	 mov	 WORD PTR [ecx+9037], 256 ; 00000100H

; 909  : 	this->List[eZtUB::GloryMU].RestoreOffMode			= true;
; 910  : 	this->List[eZtUB::GloryMU].bTeamVsTeam2				= false;

  01ad6	66 c7 81 50 23
	00 00 00 01	 mov	 WORD PTR [ecx+9040], 256 ; 00000100H

; 911  : 	this->List[eZtUB::GloryMU].bAchievements			= true;
; 912  : 	this->List[eZtUB::GloryMU].PremiumZt				= true;

  01adf	66 c7 81 52 23
	00 00 01 01	 mov	 WORD PTR [ecx+9042], 257 ; 00000101H

; 913  : 	this->List[eZtUB::GloryMU].AccSecurity				= true;
; 914  : 	this->List[eZtUB::GloryMU].CraftQuestSystem			= true;

  01ae8	66 89 81 54 23
	00 00		 mov	 WORD PTR [ecx+9044], ax

; 915  : 	this->List[eZtUB::GloryMU].PickUpItemInfo			= false;
; 916  : 	this->List[eZtUB::GloryMU].ReferralSystem			= 0;

  01aef	88 91 56 23 00
	00		 mov	 BYTE PTR [ecx+9046], dl

; 917  : 
; 918  : 	strcpy(this->List[eZtUB::MuRelic].Login,				"MuRelic");	//vlad vlad

  01af5	8b 3d 00 00 00
	00		 mov	 edi, DWORD PTR ??_C@_07POKHNJJH@MuRelic?$AA@
  01afb	89 b9 5c 23 00
	00		 mov	 DWORD PTR [ecx+9052], edi
  01b01	8b 3d 04 00 00
	00		 mov	 edi, DWORD PTR ??_C@_07POKHNJJH@MuRelic?$AA@+4
  01b07	89 b9 60 23 00
	00		 mov	 DWORD PTR [ecx+9056], edi

; 919  : 	this->List[eZtUB::MuRelic].hwid						= 0;

  01b0d	89 91 80 23 00
	00		 mov	 DWORD PTR [ecx+9088], edx

; 920  : 	//strcpy(this->List[eZtUB::MuRelic].mac,			"00-15-5D-06-41-F8");
; 921  : 	this->List[eZtUB::MuRelic].GrandHero				= true;

  01b13	88 81 b2 23 00
	00		 mov	 BYTE PTR [ecx+9138], al

; 922  : 
; 923  : 	strcpy(this->List[eZtUB::ArcMu].Login,				"ArcMu");

  01b19	8b 3d 00 00 00
	00		 mov	 edi, DWORD PTR ??_C@_05KLCPPPH@ArcMu?$AA@
  01b1f	89 b9 d8 23 00
	00		 mov	 DWORD PTR [ecx+9176], edi
  01b25	0f b7 3d 04 00
	00 00		 movzx	 edi, WORD PTR ??_C@_05KLCPPPH@ArcMu?$AA@+4
  01b2c	66 89 b9 dc 23
	00 00		 mov	 WORD PTR [ecx+9180], di

; 924  : 	this->List[eZtUB::ArcMu].hwid						= 697983919;

  01b33	c7 81 fc 23 00
	00 af 63 9a 29	 mov	 DWORD PTR [ecx+9212], 697983919 ; 299a63afH

; 925  : 	strcpy(this->List[eZtUB::ArcMu].mac,				"A4-BF-01-23-8E-D3");

  01b3d	8b 3d 00 00 00
	00		 mov	 edi, DWORD PTR ??_C@_0BC@PNPLLFGH@A4?9BF?901?923?98E?9D3?$AA@
  01b43	89 b9 00 24 00
	00		 mov	 DWORD PTR [ecx+9216], edi
  01b49	8b 3d 04 00 00
	00		 mov	 edi, DWORD PTR ??_C@_0BC@PNPLLFGH@A4?9BF?901?923?98E?9D3?$AA@+4
  01b4f	89 b9 04 24 00
	00		 mov	 DWORD PTR [ecx+9220], edi
  01b55	8b 3d 08 00 00
	00		 mov	 edi, DWORD PTR ??_C@_0BC@PNPLLFGH@A4?9BF?901?923?98E?9D3?$AA@+8
  01b5b	89 b9 08 24 00
	00		 mov	 DWORD PTR [ecx+9224], edi
  01b61	8b 3d 0c 00 00
	00		 mov	 edi, DWORD PTR ??_C@_0BC@PNPLLFGH@A4?9BF?901?923?98E?9D3?$AA@+12
  01b67	89 b9 0c 24 00
	00		 mov	 DWORD PTR [ecx+9228], edi
  01b6d	0f b7 3d 10 00
	00 00		 movzx	 edi, WORD PTR ??_C@_0BC@PNPLLFGH@A4?9BF?901?923?98E?9D3?$AA@+16
  01b74	66 89 b9 10 24
	00 00		 mov	 WORD PTR [ecx+9232], di

; 926  : 	this->List[eZtUB::ArcMu].Rage						= true;

  01b7b	88 81 29 24 00
	00		 mov	 BYTE PTR [ecx+9257], al

; 927  : 	this->List[eZtUB::ArcMu].Monster					= true;

  01b81	66 c7 81 3d 24
	00 00 01 01	 mov	 WORD PTR [ecx+9277], 257 ; 00000101H

; 928  : 	this->List[eZtUB::ArcMu].ItemSmokeEffect			= true;
; 929  : 	this->List[eZtUB::ArcMu].MonsterQuest				= true;//

  01b8a	88 81 2c 24 00
	00		 mov	 BYTE PTR [ecx+9260], al

; 930  : 	this->List[eZtUB::ArcMu].GrandHero					= true;

  01b90	66 c7 81 2d 24
	00 00 01 01	 mov	 WORD PTR [ecx+9261], 257 ; 00000101H

; 931  : 	this->List[eZtUB::ArcMu].TvTEvent					= true;
; 932  : 	this->List[eZtUB::ArcMu].PartySystem				= true;

  01b99	66 89 81 2f 24
	00 00		 mov	 WORD PTR [ecx+9263], ax

; 933  : 	this->List[eZtUB::ArcMu].Brotherhood				= false;
; 934  : 	this->List[eZtUB::ArcMu].PartySearch				= true;

  01ba0	88 81 31 24 00
	00		 mov	 BYTE PTR [ecx+9265], al

; 935  : 	this->List[eZtUB::ArcMu].PerosnalStoreZt			= true;

  01ba6	88 81 34 24 00
	00		 mov	 BYTE PTR [ecx+9268], al

; 936  : 	this->List[eZtUB::ArcMu].CraftQuestSystem			= true;

  01bac	88 81 4c 24 00
	00		 mov	 BYTE PTR [ecx+9292], al

; 937  : 	this->List[eZtUB::ArcMu].NpcBuffer					= true;

  01bb2	66 c7 81 38 24
	00 00 00 01	 mov	 WORD PTR [ecx+9272], 256 ; 00000100H

; 938  : 	this->List[eZtUB::ArcMu].ComboCustom				= false;
; 939  : 	this->List[eZtUB::ArcMu].MonsterAttackLife			= true;

  01bbb	88 81 44 24 00
	00		 mov	 BYTE PTR [ecx+9284], al

; 940  : 	this->List[eZtUB::ArcMu].PandoraEvent				= true;

  01bc1	88 81 35 24 00
	00		 mov	 BYTE PTR [ecx+9269], al

; 941  : 	this->List[eZtUB::ArcMu].Smithy						= true;

  01bc7	88 81 3c 24 00
	00		 mov	 BYTE PTR [ecx+9276], al

; 942  : 	this->List[eZtUB::ArcMu].bRankItem					= true;

  01bcd	88 81 45 24 00
	00		 mov	 BYTE PTR [ecx+9285], al

; 943  : 	this->List[eZtUB::ArcMu].bAchievements				= true;

  01bd3	88 81 49 24 00
	00		 mov	 BYTE PTR [ecx+9289], al

; 944  : 	this->List[eZtUB::ArcMu].RestoreOffMode				= true;

  01bd9	88 81 46 24 00
	00		 mov	 BYTE PTR [ecx+9286], al

; 945  : 	this->List[eZtUB::ArcMu].AccSecurity				= true;

  01bdf	88 81 4b 24 00
	00		 mov	 BYTE PTR [ecx+9291], al

; 946  : 
; 947  : #if(LICENSE_ARCMU)
; 948  : 	this->List[eZtUB::ArcMu].bTeamVsTeam2				= true;
; 949  : 	this->List[eZtUB::ArcMu].LoraBattle					= true;
; 950  : 	this->List[eZtUB::ArcMu].GM_Manager					= true;
; 951  : 	this->List[eZtUB::ArcMu].MapQuest					= true;
; 952  : 	this->List[eZtUB::ArcMu].PremiumZt					= true;
; 953  : 	this->List[eZtUB::ArcMu].BloodHound					= true;
; 954  : 	this->List[eZtUB::ArcMu].Brotherhood				= true;
; 955  : 	this->List[eZtUB::ArcMu].Marriage					= true;
; 956  : 	this->List[eZtUB::ArcMu].PartySave					= true;
; 957  : 	this->List[eZtUB::ArcMu].OfflineMode				= true;
; 958  : #endif
; 959  : 
; 960  : 	strcpy(this->List[eZtUB::muheroia].Login,				"muheroia");

  01be5	8b 3d 00 00 00
	00		 mov	 edi, DWORD PTR ??_C@_08GLLNHAIO@muheroia?$AA@
  01beb	89 b9 54 24 00
	00		 mov	 DWORD PTR [ecx+9300], edi
  01bf1	8b 3d 04 00 00
	00		 mov	 edi, DWORD PTR ??_C@_08GLLNHAIO@muheroia?$AA@+4
  01bf7	89 b9 58 24 00
	00		 mov	 DWORD PTR [ecx+9304], edi
  01bfd	0f b6 1d 08 00
	00 00		 movzx	 ebx, BYTE PTR ??_C@_08GLLNHAIO@muheroia?$AA@+8
  01c04	88 99 5c 24 00
	00		 mov	 BYTE PTR [ecx+9308], bl

; 961  : 	this->List[eZtUB::muheroia].hwid						= 3302700294;

  01c0a	89 b1 78 24 00
	00		 mov	 DWORD PTR [ecx+9336], esi

; 962  : 	strcpy(this->List[eZtUB::muheroia].mac,			"02-12-5D-00-45-DF");

  01c10	8b 3d 00 00 00
	00		 mov	 edi, DWORD PTR ??_C@_0BC@PDOAKHIO@02?912?95D?900?945?9DF?$AA@
  01c16	89 b9 7c 24 00
	00		 mov	 DWORD PTR [ecx+9340], edi
  01c1c	8b 3d 04 00 00
	00		 mov	 edi, DWORD PTR ??_C@_0BC@PDOAKHIO@02?912?95D?900?945?9DF?$AA@+4
  01c22	89 b9 80 24 00
	00		 mov	 DWORD PTR [ecx+9344], edi
  01c28	8b 3d 08 00 00
	00		 mov	 edi, DWORD PTR ??_C@_0BC@PDOAKHIO@02?912?95D?900?945?9DF?$AA@+8
  01c2e	89 b9 84 24 00
	00		 mov	 DWORD PTR [ecx+9348], edi
  01c34	8b 3d 0c 00 00
	00		 mov	 edi, DWORD PTR ??_C@_0BC@PDOAKHIO@02?912?95D?900?945?9DF?$AA@+12
  01c3a	89 b9 88 24 00
	00		 mov	 DWORD PTR [ecx+9352], edi
  01c40	0f b7 3d 10 00
	00 00		 movzx	 edi, WORD PTR ??_C@_0BC@PDOAKHIO@02?912?95D?900?945?9DF?$AA@+16
  01c47	66 89 b9 8c 24
	00 00		 mov	 WORD PTR [ecx+9356], di

; 963  : 
; 964  : 	strcpy(this->List[eZtUB::HomeLan].Login,				"HomeLan");

  01c4e	8b 3d 00 00 00
	00		 mov	 edi, DWORD PTR ??_C@_07JLEKCBMA@HomeLan?$AA@
  01c54	89 b9 d0 24 00
	00		 mov	 DWORD PTR [ecx+9424], edi
  01c5a	8b 3d 04 00 00
	00		 mov	 edi, DWORD PTR ??_C@_07JLEKCBMA@HomeLan?$AA@+4
  01c60	89 b9 d4 24 00
	00		 mov	 DWORD PTR [ecx+9428], edi

; 965  : 	//this->List[eZtUB::HomeLan].hwid						= 3302700294;
; 966  : 	//strcpy(this->List[eZtUB::HomeLan].mac,			"02-12-5D-00-45-DF");
; 967  : 
; 968  : 	strcpy(this->List[eZtUB::ProtectDebug].Login,				"ProtectDebug");

  01c66	8b 3d 00 00 00
	00		 mov	 edi, DWORD PTR ??_C@_0N@HBPLJJOE@ProtectDebug?$AA@
  01c6c	89 b9 4c 25 00
	00		 mov	 DWORD PTR [ecx+9548], edi
  01c72	8b 3d 04 00 00
	00		 mov	 edi, DWORD PTR ??_C@_0N@HBPLJJOE@ProtectDebug?$AA@+4
  01c78	89 b9 50 25 00
	00		 mov	 DWORD PTR [ecx+9552], edi
  01c7e	8b 3d 08 00 00
	00		 mov	 edi, DWORD PTR ??_C@_0N@HBPLJJOE@ProtectDebug?$AA@+8
  01c84	89 b9 54 25 00
	00		 mov	 DWORD PTR [ecx+9556], edi
  01c8a	0f b6 1d 0c 00
	00 00		 movzx	 ebx, BYTE PTR ??_C@_0N@HBPLJJOE@ProtectDebug?$AA@+12
  01c91	88 99 58 25 00
	00		 mov	 BYTE PTR [ecx+9560], bl

; 969  : 	//this->List[eZtUB::ProtectDebug].hwid						= ProtectDebug;
; 970  : 	//strcpy(this->List[eZtUB::ProtectDebug].mac,			"02-12-5D-00-45-DF");
; 971  : 	this->List[eZtUB::ProtectDebug].OfflineMode				= true;

  01c97	88 81 b6 25 00
	00		 mov	 BYTE PTR [ecx+9654], al

; 972  : 	this->List[eZtUB::ProtectDebug].RestoreOffMode			= true;

  01c9d	88 81 ba 25 00
	00		 mov	 BYTE PTR [ecx+9658], al

; 973  : 	this->List[eZtUB::ProtectDebug].PerosnalStoreZt			= true;

  01ca3	88 81 a8 25 00
	00		 mov	 BYTE PTR [ecx+9640], al

; 974  : 
; 975  : 	strcpy(this->List[eZtUB::UpdateDebug].Login,		"UpdateDebug");

  01ca9	8b 3d 00 00 00
	00		 mov	 edi, DWORD PTR ??_C@_0M@JAOCFDKO@UpdateDebug?$AA@
  01caf	89 b9 c8 25 00
	00		 mov	 DWORD PTR [ecx+9672], edi
  01cb5	8b 3d 04 00 00
	00		 mov	 edi, DWORD PTR ??_C@_0M@JAOCFDKO@UpdateDebug?$AA@+4
  01cbb	89 b9 cc 25 00
	00		 mov	 DWORD PTR [ecx+9676], edi
  01cc1	8b 3d 08 00 00
	00		 mov	 edi, DWORD PTR ??_C@_0M@JAOCFDKO@UpdateDebug?$AA@+8
  01cc7	89 b9 d0 25 00
	00		 mov	 DWORD PTR [ecx+9680], edi

; 976  : 	//this->List[eZtUB::UpdateDebug].hwid					= 0;
; 977  : 	//strcpy(this->List[eZtUB::UpdateDebug].mac,			"60-A4-4C-2B-45-03");
; 978  : 	this->List[eZtUB::UpdateDebug].Credit				= 0;

  01ccd	89 91 14 26 00
	00		 mov	 DWORD PTR [ecx+9748], edx

; 979  : 	this->List[eZtUB::UpdateDebug].Baned				= false;

  01cd3	66 c7 81 18 26
	00 00 00 01	 mov	 WORD PTR [ecx+9752], 256 ; 00000100H

; 980  : 	this->List[eZtUB::UpdateDebug].Rage					= true;
; 981  : 	this->List[eZtUB::UpdateDebug].WinQuest				= 0;

  01cdc	66 c7 81 1a 26
	00 00 00 01	 mov	 WORD PTR [ecx+9754], 256 ; 00000100H

; 982  : 	this->List[eZtUB::UpdateDebug].BloodHound			= true;
; 983  : 	this->List[eZtUB::UpdateDebug].MonsterQuest			= true;

  01ce5	66 c7 81 1c 26
	00 00 01 01	 mov	 WORD PTR [ecx+9756], 257 ; 00000101H

; 984  : 	this->List[eZtUB::UpdateDebug].TvTEvent				= true;
; 985  : 	this->List[eZtUB::UpdateDebug].GrandHero			= true;

  01cee	66 c7 81 1e 26
	00 00 01 01	 mov	 WORD PTR [ecx+9758], 257 ; 00000101H

; 986  : 	this->List[eZtUB::UpdateDebug].PartySystem			= true;
; 987  : 	this->List[eZtUB::UpdateDebug].Brotherhood			= true;

  01cf7	66 c7 81 20 26
	00 00 01 01	 mov	 WORD PTR [ecx+9760], 257 ; 00000101H

; 988  : 	this->List[eZtUB::UpdateDebug].PartySearch			= true;
; 989  : 	this->List[eZtUB::UpdateDebug].ChatLog				= true;

  01d00	66 c7 81 22 26
	00 00 01 01	 mov	 WORD PTR [ecx+9762], 257 ; 00000101H

; 990  : 	this->List[eZtUB::UpdateDebug].GM_Manager			= true;
; 991  : 	this->List[eZtUB::UpdateDebug].PerosnalStoreZt		= true;

  01d09	66 c7 81 24 26
	00 00 01 01	 mov	 WORD PTR [ecx+9764], 257 ; 00000101H

; 992  : 	this->List[eZtUB::UpdateDebug].PandoraEvent			= true;
; 993  : 	this->List[eZtUB::UpdateDebug].AntiCheatPlus		= true;

  01d12	88 81 26 26 00
	00		 mov	 BYTE PTR [ecx+9766], al

; 994  : 	this->List[eZtUB::UpdateDebug].ComboCustom			= true;

  01d18	66 c7 81 28 26
	00 00 01 01	 mov	 WORD PTR [ecx+9768], 257 ; 00000101H

; 995  : 	this->List[eZtUB::UpdateDebug].NpcBuffer			= true;
; 996  : 	this->List[eZtUB::UpdateDebug].BMQuest				= true;

  01d21	66 c7 81 2a 26
	00 00 01 01	 mov	 WORD PTR [ecx+9770], 257 ; 00000101H

; 997  : 	this->List[eZtUB::UpdateDebug].LoraBattle			= true;
; 998  : 	this->List[eZtUB::UpdateDebug].Smithy				= true;

  01d2a	66 c7 81 2c 26
	00 00 01 01	 mov	 WORD PTR [ecx+9772], 257 ; 00000101H

; 999  : 	this->List[eZtUB::UpdateDebug].Monster				= true;
; 1000 : 	this->List[eZtUB::UpdateDebug].ItemSmokeEffect		= true;

  01d33	66 c7 81 2e 26
	00 00 01 01	 mov	 WORD PTR [ecx+9774], 257 ; 00000101H

; 1001 : 	this->List[eZtUB::UpdateDebug].GrandDinamicExp      = true;
; 1002 : 	this->List[eZtUB::UpdateDebug].PartySave			= true;

  01d3c	66 c7 81 30 26
	00 00 01 01	 mov	 WORD PTR [ecx+9776], 257 ; 00000101H

; 1003 : 	this->List[eZtUB::UpdateDebug].DisableMasterTree	= true;
; 1004 : 	this->List[eZtUB::UpdateDebug].OfflineMode			= true;

  01d45	66 c7 81 32 26
	00 00 01 01	 mov	 WORD PTR [ecx+9778], 257 ; 00000101H

; 1005 : 	this->List[eZtUB::UpdateDebug].Marriage				= true;
; 1006 : 	this->List[eZtUB::UpdateDebug].bRankItem			= true;

  01d4e	66 c7 81 35 26
	00 00 01 01	 mov	 WORD PTR [ecx+9781], 257 ; 00000101H

; 1007 : 	this->List[eZtUB::UpdateDebug].RestoreOffMode		= true;
; 1008 : 	this->List[eZtUB::UpdateDebug].MapQuest				= true;

  01d57	66 c7 81 37 26
	00 00 01 01	 mov	 WORD PTR [ecx+9783], 257 ; 00000101H

; 1009 : 	this->List[eZtUB::UpdateDebug].bTeamVsTeam2         = true;
; 1010 : 	this->List[eZtUB::UpdateDebug].bAchievements		= true;

  01d60	66 c7 81 39 26
	00 00 01 01	 mov	 WORD PTR [ecx+9785], 257 ; 00000101H

; 1011 : 	this->List[eZtUB::UpdateDebug].PremiumZt			= true;
; 1012 : 	this->List[eZtUB::UpdateDebug].AccSecurity			= true;

  01d69	66 c7 81 3b 26
	00 00 01 01	 mov	 WORD PTR [ecx+9787], 257 ; 00000101H

; 1013 : 	this->List[eZtUB::UpdateDebug].CraftQuestSystem		= true;
; 1014 : 	this->List[eZtUB::UpdateDebug].PickUpItemInfo		= true;

  01d72	66 c7 81 3d 26
	00 00 01 01	 mov	 WORD PTR [ecx+9789], 257 ; 00000101H

; 1015 : 	this->List[eZtUB::UpdateDebug].ReferralSystem		= true;
; 1016 : 	
; 1017 : 	strcpy(this->List[eZtUB::MegaM].Login,		"MegaM");

  01d7b	8b 15 00 00 00
	00		 mov	 edx, DWORD PTR ??_C@_05GBKOADG@MegaM?$AA@
  01d81	89 91 44 26 00
	00		 mov	 DWORD PTR [ecx+9796], edx
  01d87	0f b7 15 04 00
	00 00		 movzx	 edx, WORD PTR ??_C@_05GBKOADG@MegaM?$AA@+4
  01d8e	66 89 91 48 26
	00 00		 mov	 WORD PTR [ecx+9800], dx

; 1018 : 	this->List[eZtUB::MegaM].hwid					= 3226014109;

  01d95	bf 9d 11 49 c0	 mov	 edi, -1068953187	; c049119dH
  01d9a	89 b9 68 26 00
	00		 mov	 DWORD PTR [ecx+9832], edi

; 1019 : 	strcpy(this->List[eZtUB::MegaM].mac,			"02-11-5D-00-6B-C4");

  01da0	8b 15 00 00 00
	00		 mov	 edx, DWORD PTR ??_C@_0BC@JBPNBCHA@02?911?95D?900?96B?9C4?$AA@
  01da6	89 91 6c 26 00
	00		 mov	 DWORD PTR [ecx+9836], edx
  01dac	8b 15 04 00 00
	00		 mov	 edx, DWORD PTR ??_C@_0BC@JBPNBCHA@02?911?95D?900?96B?9C4?$AA@+4
  01db2	89 91 70 26 00
	00		 mov	 DWORD PTR [ecx+9840], edx
  01db8	8b 15 08 00 00
	00		 mov	 edx, DWORD PTR ??_C@_0BC@JBPNBCHA@02?911?95D?900?96B?9C4?$AA@+8
  01dbe	89 91 74 26 00
	00		 mov	 DWORD PTR [ecx+9844], edx
  01dc4	8b 15 0c 00 00
	00		 mov	 edx, DWORD PTR ??_C@_0BC@JBPNBCHA@02?911?95D?900?96B?9C4?$AA@+12
  01dca	89 91 78 26 00
	00		 mov	 DWORD PTR [ecx+9848], edx
  01dd0	0f b7 15 10 00
	00 00		 movzx	 edx, WORD PTR ??_C@_0BC@JBPNBCHA@02?911?95D?900?96B?9C4?$AA@+16
  01dd7	66 89 91 7c 26
	00 00		 mov	 WORD PTR [ecx+9852], dx

; 1020 : 	this->List[eZtUB::MegaM].MonsterQuest			= true;

  01dde	88 81 98 26 00
	00		 mov	 BYTE PTR [ecx+9880], al

; 1021 : 	this->List[eZtUB::MegaM].bTeamVsTeam2			= true;

  01de4	88 81 b4 26 00
	00		 mov	 BYTE PTR [ecx+9908], al

; 1022 : 
; 1023 : 	strcpy(this->List[eZtUB::mu4you].Login,			"mu4you");

  01dea	8b 15 00 00 00
	00		 mov	 edx, DWORD PTR ??_C@_06IAEIGBCI@mu4you?$AA@
  01df0	89 91 c0 26 00
	00		 mov	 DWORD PTR [ecx+9920], edx
  01df6	0f b7 15 04 00
	00 00		 movzx	 edx, WORD PTR ??_C@_06IAEIGBCI@mu4you?$AA@+4
  01dfd	66 89 91 c4 26
	00 00		 mov	 WORD PTR [ecx+9924], dx
  01e04	0f b6 15 06 00
	00 00		 movzx	 edx, BYTE PTR ??_C@_06IAEIGBCI@mu4you?$AA@+6
  01e0b	88 91 c6 26 00
	00		 mov	 BYTE PTR [ecx+9926], dl

; 1024 : 	this->List[eZtUB::mu4you].hwid					= 3302700294;

  01e11	89 b1 e4 26 00
	00		 mov	 DWORD PTR [ecx+9956], esi

; 1025 : 	strcpy(this->List[eZtUB::mu4you].mac,			"02-0E-5D-00-3E-4F");

  01e17	8b 15 00 00 00
	00		 mov	 edx, DWORD PTR ??_C@_0BC@HFJPNNME@02?90E?95D?900?93E?94F?$AA@
  01e1d	89 91 e8 26 00
	00		 mov	 DWORD PTR [ecx+9960], edx
  01e23	8b 15 04 00 00
	00		 mov	 edx, DWORD PTR ??_C@_0BC@HFJPNNME@02?90E?95D?900?93E?94F?$AA@+4
  01e29	89 91 ec 26 00
	00		 mov	 DWORD PTR [ecx+9964], edx
  01e2f	8b 15 08 00 00
	00		 mov	 edx, DWORD PTR ??_C@_0BC@HFJPNNME@02?90E?95D?900?93E?94F?$AA@+8
  01e35	89 91 f0 26 00
	00		 mov	 DWORD PTR [ecx+9968], edx
  01e3b	8b 15 0c 00 00
	00		 mov	 edx, DWORD PTR ??_C@_0BC@HFJPNNME@02?90E?95D?900?93E?94F?$AA@+12
  01e41	89 91 f4 26 00
	00		 mov	 DWORD PTR [ecx+9972], edx
  01e47	0f b7 15 10 00
	00 00		 movzx	 edx, WORD PTR ??_C@_0BC@HFJPNNME@02?90E?95D?900?93E?94F?$AA@+16
  01e4e	66 89 91 f8 26
	00 00		 mov	 WORD PTR [ecx+9976], dx

; 1026 : 	this->List[eZtUB::mu4you].PartySearch			= true;

  01e55	88 81 19 27 00
	00		 mov	 BYTE PTR [ecx+10009], al

; 1027 : 	this->List[eZtUB::mu4you].PartySystem			= true;

  01e5b	88 81 17 27 00
	00		 mov	 BYTE PTR [ecx+10007], al

; 1028 : 	this->List[eZtUB::mu4you].GM_Manager			= true;

  01e61	66 c7 81 1b 27
	00 00 01 01	 mov	 WORD PTR [ecx+10011], 257 ; 00000101H

; 1029 : 	this->List[eZtUB::mu4you].PerosnalStoreZt		= true;
; 1030 : 	this->List[eZtUB::mu4you].AntiCheatPlus			= true;

  01e6a	88 81 1e 27 00
	00		 mov	 BYTE PTR [ecx+10014], al

; 1031 : 	this->List[eZtUB::mu4you].Rage					= true;

  01e70	88 81 11 27 00
	00		 mov	 BYTE PTR [ecx+10001], al

; 1032 : 	this->List[eZtUB::mu4you].Monster				= true;

  01e76	88 81 25 27 00
	00		 mov	 BYTE PTR [ecx+10021], al

; 1033 : 	this->List[eZtUB::mu4you].PartySave				= true;

  01e7c	88 81 28 27 00
	00		 mov	 BYTE PTR [ecx+10024], al

; 1034 : 	this->List[eZtUB::mu4you].OfflineMode			= true;
; 1035 : 	this->List[eZtUB::mu4you].bRankItem				= true;

  01e82	66 c7 81 2c 27
	00 00 01 01	 mov	 WORD PTR [ecx+10028], 257 ; 00000101H

; 1036 : 	this->List[eZtUB::mu4you].MonsterAttackLife		= true;
; 1037 : 	this->List[eZtUB::mu4you].GrandDinamicExp		= true;

  01e8b	88 81 27 27 00
	00		 mov	 BYTE PTR [ecx+10023], al

; 1038 : 	this->List[eZtUB::mu4you].RestoreOffMode		= true;

  01e91	88 81 2e 27 00
	00		 mov	 BYTE PTR [ecx+10030], al

; 1039 : 	this->List[eZtUB::mu4you].bTeamVsTeam2			= true;

  01e97	88 81 30 27 00
	00		 mov	 BYTE PTR [ecx+10032], al

; 1040 : 	this->List[eZtUB::mu4you].LoraBattle			= true;

  01e9d	88 81 23 27 00
	00		 mov	 BYTE PTR [ecx+10019], al

; 1041 : 	this->List[eZtUB::mu4you].ItemSmokeEffect		= true;

  01ea3	88 81 26 27 00
	00		 mov	 BYTE PTR [ecx+10022], al

; 1042 : 	this->List[eZtUB::mu4you].PandoraEvent			= true;

  01ea9	88 81 1d 27 00
	00		 mov	 BYTE PTR [ecx+10013], al

; 1043 : 	this->List[eZtUB::mu4you].OfflineMode			= true;

  01eaf	88 81 2a 27 00
	00		 mov	 BYTE PTR [ecx+10026], al

; 1044 : 	this->List[eZtUB::mu4you].bAchievements			= true;

  01eb5	88 81 31 27 00
	00		 mov	 BYTE PTR [ecx+10033], al

; 1045 : 	this->List[eZtUB::mu4you].AccSecurity			= true;

  01ebb	66 c7 81 32 27
	00 00 01 01	 mov	 WORD PTR [ecx+10034], 257 ; 00000101H

; 1046 : 	this->List[eZtUB::mu4you].PremiumZt				= true;
; 1047 : 	this->List[eZtUB::mu4you].ComboCustom			= true;

  01ec4	88 81 20 27 00
	00		 mov	 BYTE PTR [ecx+10016], al

; 1048 : 
; 1049 : 	strcpy(this->List[eZtUB::eternalmu].Login,			"eternalmu");

  01eca	8b 15 00 00 00
	00		 mov	 edx, DWORD PTR ??_C@_09JABDAIBF@eternalmu?$AA@
  01ed0	89 91 3c 27 00
	00		 mov	 DWORD PTR [ecx+10044], edx
  01ed6	8b 15 04 00 00
	00		 mov	 edx, DWORD PTR ??_C@_09JABDAIBF@eternalmu?$AA@+4
  01edc	89 91 40 27 00
	00		 mov	 DWORD PTR [ecx+10048], edx
  01ee2	0f b7 15 08 00
	00 00		 movzx	 edx, WORD PTR ??_C@_09JABDAIBF@eternalmu?$AA@+8
  01ee9	66 89 91 44 27
	00 00		 mov	 WORD PTR [ecx+10052], dx

; 1050 : 	this->List[eZtUB::eternalmu].hwid					= 3971232786;	//3971232786|00-15-5D-05-62-89

  01ef0	ba 12 34 b4 ec	 mov	 edx, -323734510		; ecb43412H
  01ef5	89 91 60 27 00
	00		 mov	 DWORD PTR [ecx+10080], edx

; 1051 : 	strcpy(this->List[eZtUB::eternalmu].mac,		"00-15-5D-05-62-89");

  01efb	8b 35 00 00 00
	00		 mov	 esi, DWORD PTR ??_C@_0BC@FFBKPL@00?915?95D?905?962?989?$AA@
  01f01	89 b1 64 27 00
	00		 mov	 DWORD PTR [ecx+10084], esi
  01f07	8b 35 04 00 00
	00		 mov	 esi, DWORD PTR ??_C@_0BC@FFBKPL@00?915?95D?905?962?989?$AA@+4
  01f0d	89 b1 68 27 00
	00		 mov	 DWORD PTR [ecx+10088], esi
  01f13	8b 35 08 00 00
	00		 mov	 esi, DWORD PTR ??_C@_0BC@FFBKPL@00?915?95D?905?962?989?$AA@+8
  01f19	89 b1 6c 27 00
	00		 mov	 DWORD PTR [ecx+10092], esi
  01f1f	8b 35 0c 00 00
	00		 mov	 esi, DWORD PTR ??_C@_0BC@FFBKPL@00?915?95D?905?962?989?$AA@+12
  01f25	89 b1 70 27 00
	00		 mov	 DWORD PTR [ecx+10096], esi
  01f2b	0f b7 35 10 00
	00 00		 movzx	 esi, WORD PTR ??_C@_0BC@FFBKPL@00?915?95D?905?962?989?$AA@+16
  01f32	66 89 b1 74 27
	00 00		 mov	 WORD PTR [ecx+10100], si

; 1052 : 	this->List[eZtUB::eternalmu].PartySearch				= true;

  01f39	88 81 95 27 00
	00		 mov	 BYTE PTR [ecx+10133], al

; 1053 : 	this->List[eZtUB::eternalmu].PartySystem				= true;

  01f3f	88 81 93 27 00
	00		 mov	 BYTE PTR [ecx+10131], al

; 1054 : 	this->List[eZtUB::eternalmu].GM_Manager				= true;

  01f45	66 c7 81 97 27
	00 00 01 01	 mov	 WORD PTR [ecx+10135], 257 ; 00000101H

; 1055 : 	this->List[eZtUB::eternalmu].PerosnalStoreZt			= true;
; 1056 : 	this->List[eZtUB::eternalmu].AntiCheatPlus			= true;

  01f4e	88 81 9a 27 00
	00		 mov	 BYTE PTR [ecx+10138], al

; 1057 : 	this->List[eZtUB::eternalmu].Rage					= true;

  01f54	88 81 8d 27 00
	00		 mov	 BYTE PTR [ecx+10125], al

; 1058 : 	this->List[eZtUB::eternalmu].Monster					= true;

  01f5a	88 81 a1 27 00
	00		 mov	 BYTE PTR [ecx+10145], al

; 1059 : 	this->List[eZtUB::eternalmu].PartySave				= true;

  01f60	88 81 a4 27 00
	00		 mov	 BYTE PTR [ecx+10148], al

; 1060 : 	this->List[eZtUB::eternalmu].OfflineMode				= true;
; 1061 : 	this->List[eZtUB::eternalmu].bRankItem				= true;

  01f66	66 c7 81 a8 27
	00 00 01 01	 mov	 WORD PTR [ecx+10152], 257 ; 00000101H

; 1062 : 	this->List[eZtUB::eternalmu].MonsterAttackLife		= true;
; 1063 : 	this->List[eZtUB::eternalmu].GrandDinamicExp			= true;

  01f6f	88 81 a3 27 00
	00		 mov	 BYTE PTR [ecx+10147], al

; 1064 : 	this->List[eZtUB::eternalmu].RestoreOffMode			= true;

  01f75	88 81 aa 27 00
	00		 mov	 BYTE PTR [ecx+10154], al

; 1065 : 	this->List[eZtUB::eternalmu].bTeamVsTeam2			= true;

  01f7b	88 81 ac 27 00
	00		 mov	 BYTE PTR [ecx+10156], al

; 1066 : 	this->List[eZtUB::eternalmu].LoraBattle				= true;	//OK

  01f81	88 81 9f 27 00
	00		 mov	 BYTE PTR [ecx+10143], al

; 1067 : 	//this->List[eZtUB::eternalmu].Smithy					= true;	//OK
; 1068 : 	this->List[eZtUB::eternalmu].ItemSmokeEffect			= true;	//OK

  01f87	88 81 a2 27 00
	00		 mov	 BYTE PTR [ecx+10146], al

; 1069 : 	this->List[eZtUB::eternalmu].PandoraEvent			= true;	//OK

  01f8d	88 81 99 27 00
	00		 mov	 BYTE PTR [ecx+10137], al

; 1070 : 	this->List[eZtUB::eternalmu].OfflineMode				= true;

  01f93	88 81 a6 27 00
	00		 mov	 BYTE PTR [ecx+10150], al

; 1071 : 	this->List[eZtUB::eternalmu].bAchievements			= true;

  01f99	88 81 ad 27 00
	00		 mov	 BYTE PTR [ecx+10157], al

; 1072 : 	this->List[eZtUB::eternalmu].AccSecurity				= true;

  01f9f	66 c7 81 ae 27
	00 00 01 01	 mov	 WORD PTR [ecx+10158], 257 ; 00000101H

; 1073 : 	this->List[eZtUB::eternalmu].PremiumZt				= true;
; 1074 : 	this->List[eZtUB::eternalmu].ComboCustom				= true;

  01fa8	88 81 9c 27 00
	00		 mov	 BYTE PTR [ecx+10140], al

; 1075 : 	this->List[eZtUB::eternalmu].ChatLog				= true;

  01fae	88 81 96 27 00
	00		 mov	 BYTE PTR [ecx+10134], al

; 1076 : 	this->List[eZtUB::eternalmu].DisableMasterTree			= true;

  01fb4	88 81 a5 27 00
	00		 mov	 BYTE PTR [ecx+10149], al

; 1077 : 
; 1078 : 	this->List[eZtUB::eternalmu].WinQuest			= true;

  01fba	88 81 8e 27 00
	00		 mov	 BYTE PTR [ecx+10126], al

; 1079 : 
; 1080 : 	strcpy(this->List[eZtUB::WarBorn].Login,			"WarBorn");

  01fc0	8b 35 00 00 00
	00		 mov	 esi, DWORD PTR ??_C@_07EDGICHLJ@WarBorn?$AA@
  01fc6	89 b1 b8 27 00
	00		 mov	 DWORD PTR [ecx+10168], esi
  01fcc	8b 35 04 00 00
	00		 mov	 esi, DWORD PTR ??_C@_07EDGICHLJ@WarBorn?$AA@+4
  01fd2	89 b1 bc 27 00
	00		 mov	 DWORD PTR [ecx+10172], esi

; 1081 : 	this->List[eZtUB::WarBorn].hwid					= 3971232786;

  01fd8	89 91 dc 27 00
	00		 mov	 DWORD PTR [ecx+10204], edx

; 1082 : 	strcpy(this->List[eZtUB::WarBorn].mac,			"02-0E-5D-00-3E-58");

  01fde	8b 35 00 00 00
	00		 mov	 esi, DWORD PTR ??_C@_0BC@MFOBODIL@02?90E?95D?900?93E?958?$AA@
  01fe4	89 b1 e0 27 00
	00		 mov	 DWORD PTR [ecx+10208], esi
  01fea	8b 35 04 00 00
	00		 mov	 esi, DWORD PTR ??_C@_0BC@MFOBODIL@02?90E?95D?900?93E?958?$AA@+4
  01ff0	89 b1 e4 27 00
	00		 mov	 DWORD PTR [ecx+10212], esi
  01ff6	8b 35 08 00 00
	00		 mov	 esi, DWORD PTR ??_C@_0BC@MFOBODIL@02?90E?95D?900?93E?958?$AA@+8
  01ffc	89 b1 e8 27 00
	00		 mov	 DWORD PTR [ecx+10216], esi
  02002	8b 35 0c 00 00
	00		 mov	 esi, DWORD PTR ??_C@_0BC@MFOBODIL@02?90E?95D?900?93E?958?$AA@+12
  02008	89 b1 ec 27 00
	00		 mov	 DWORD PTR [ecx+10220], esi
  0200e	0f b7 35 10 00
	00 00		 movzx	 esi, WORD PTR ??_C@_0BC@MFOBODIL@02?90E?95D?900?93E?958?$AA@+16
  02015	66 89 b1 f0 27
	00 00		 mov	 WORD PTR [ecx+10224], si

; 1083 : 	this->List[eZtUB::WarBorn].PartySearch			= true;

  0201c	88 81 11 28 00
	00		 mov	 BYTE PTR [ecx+10257], al

; 1084 : 	this->List[eZtUB::WarBorn].PartySystem			= true;

  02022	88 81 0f 28 00
	00		 mov	 BYTE PTR [ecx+10255], al

; 1085 : 	this->List[eZtUB::WarBorn].GM_Manager			= true;

  02028	66 c7 81 13 28
	00 00 01 01	 mov	 WORD PTR [ecx+10259], 257 ; 00000101H

; 1086 : 	this->List[eZtUB::WarBorn].PerosnalStoreZt		= true;
; 1087 : 	this->List[eZtUB::WarBorn].AntiCheatPlus		= true;

  02031	88 81 16 28 00
	00		 mov	 BYTE PTR [ecx+10262], al

; 1088 : 	this->List[eZtUB::WarBorn].Rage					= true;

  02037	88 81 09 28 00
	00		 mov	 BYTE PTR [ecx+10249], al

; 1089 : 	this->List[eZtUB::WarBorn].Monster				= true;

  0203d	88 81 1d 28 00
	00		 mov	 BYTE PTR [ecx+10269], al

; 1090 : 	this->List[eZtUB::WarBorn].PartySave			= true;

  02043	88 81 20 28 00
	00		 mov	 BYTE PTR [ecx+10272], al

; 1091 : 	this->List[eZtUB::WarBorn].OfflineMode			= true;
; 1092 : 	this->List[eZtUB::WarBorn].bRankItem			= true;

  02049	66 c7 81 24 28
	00 00 01 01	 mov	 WORD PTR [ecx+10276], 257 ; 00000101H

; 1093 : 	this->List[eZtUB::WarBorn].MonsterAttackLife	= true;
; 1094 : 	this->List[eZtUB::WarBorn].GrandDinamicExp		= true;

  02052	88 81 1f 28 00
	00		 mov	 BYTE PTR [ecx+10271], al

; 1095 : 	this->List[eZtUB::WarBorn].RestoreOffMode		= true;

  02058	88 81 26 28 00
	00		 mov	 BYTE PTR [ecx+10278], al

; 1096 : 	this->List[eZtUB::WarBorn].bTeamVsTeam2			= true;

  0205e	88 81 28 28 00
	00		 mov	 BYTE PTR [ecx+10280], al

; 1097 : 	this->List[eZtUB::WarBorn].LoraBattle			= true;

  02064	88 81 1b 28 00
	00		 mov	 BYTE PTR [ecx+10267], al

; 1098 : 	this->List[eZtUB::WarBorn].ItemSmokeEffect		= true;

  0206a	88 81 1e 28 00
	00		 mov	 BYTE PTR [ecx+10270], al

; 1099 : 	this->List[eZtUB::WarBorn].PandoraEvent			= true;

  02070	88 81 15 28 00
	00		 mov	 BYTE PTR [ecx+10261], al

; 1100 : 	this->List[eZtUB::WarBorn].OfflineMode			= true;

  02076	88 81 22 28 00
	00		 mov	 BYTE PTR [ecx+10274], al

; 1101 : 	this->List[eZtUB::WarBorn].bAchievements		= true;

  0207c	88 81 29 28 00
	00		 mov	 BYTE PTR [ecx+10281], al

; 1102 : 	this->List[eZtUB::WarBorn].AccSecurity			= true;

  02082	66 c7 81 2a 28
	00 00 01 01	 mov	 WORD PTR [ecx+10282], 257 ; 00000101H

; 1103 : 	this->List[eZtUB::WarBorn].PremiumZt			= true;
; 1104 : 	this->List[eZtUB::WarBorn].ComboCustom			= true;

  0208b	88 81 18 28 00
	00		 mov	 BYTE PTR [ecx+10264], al

; 1105 : 
; 1106 : 	strcpy(this->List[eZtUB::NSGames].Login,			"NSGames");

  02091	8b 35 00 00 00
	00		 mov	 esi, DWORD PTR ??_C@_07IBLKGLGK@NSGames?$AA@
  02097	89 b1 34 28 00
	00		 mov	 DWORD PTR [ecx+10292], esi
  0209d	8b 35 04 00 00
	00		 mov	 esi, DWORD PTR ??_C@_07IBLKGLGK@NSGames?$AA@+4
  020a3	89 b1 38 28 00
	00		 mov	 DWORD PTR [ecx+10296], esi

; 1107 : 	this->List[eZtUB::NSGames].hwid					= 3971232786;

  020a9	89 91 58 28 00
	00		 mov	 DWORD PTR [ecx+10328], edx

; 1108 : 	strcpy(this->List[eZtUB::NSGames].mac,			"00-15-5D-05-84-FA");

  020af	8b 15 00 00 00
	00		 mov	 edx, DWORD PTR ??_C@_0BC@MJGDIIP@00?915?95D?905?984?9FA?$AA@
  020b5	89 91 5c 28 00
	00		 mov	 DWORD PTR [ecx+10332], edx
  020bb	8b 15 04 00 00
	00		 mov	 edx, DWORD PTR ??_C@_0BC@MJGDIIP@00?915?95D?905?984?9FA?$AA@+4
  020c1	89 91 60 28 00
	00		 mov	 DWORD PTR [ecx+10336], edx
  020c7	8b 15 08 00 00
	00		 mov	 edx, DWORD PTR ??_C@_0BC@MJGDIIP@00?915?95D?905?984?9FA?$AA@+8
  020cd	89 91 64 28 00
	00		 mov	 DWORD PTR [ecx+10340], edx
  020d3	8b 15 0c 00 00
	00		 mov	 edx, DWORD PTR ??_C@_0BC@MJGDIIP@00?915?95D?905?984?9FA?$AA@+12
  020d9	89 91 68 28 00
	00		 mov	 DWORD PTR [ecx+10344], edx
  020df	0f b7 15 10 00
	00 00		 movzx	 edx, WORD PTR ??_C@_0BC@MJGDIIP@00?915?95D?905?984?9FA?$AA@+16
  020e6	66 89 91 6c 28
	00 00		 mov	 WORD PTR [ecx+10348], dx

; 1109 : 	this->List[eZtUB::NSGames].PartySearch			= true;

  020ed	88 81 8d 28 00
	00		 mov	 BYTE PTR [ecx+10381], al

; 1110 : 	this->List[eZtUB::NSGames].PartySystem			= true;

  020f3	88 81 8b 28 00
	00		 mov	 BYTE PTR [ecx+10379], al

; 1111 : 	this->List[eZtUB::NSGames].GM_Manager			= true;

  020f9	66 c7 81 8f 28
	00 00 01 01	 mov	 WORD PTR [ecx+10383], 257 ; 00000101H

; 1112 : 	this->List[eZtUB::NSGames].PerosnalStoreZt		= true;
; 1113 : 	this->List[eZtUB::NSGames].AntiCheatPlus			= true;

  02102	88 81 92 28 00
	00		 mov	 BYTE PTR [ecx+10386], al

; 1114 : 	this->List[eZtUB::NSGames].Rage					= true;

  02108	88 81 85 28 00
	00		 mov	 BYTE PTR [ecx+10373], al

; 1115 : 	this->List[eZtUB::NSGames].Monster				= true;

  0210e	88 81 99 28 00
	00		 mov	 BYTE PTR [ecx+10393], al

; 1116 : 	this->List[eZtUB::NSGames].PartySave				= true;

  02114	88 81 9c 28 00
	00		 mov	 BYTE PTR [ecx+10396], al

; 1117 : 	this->List[eZtUB::NSGames].OfflineMode			= true;
; 1118 : 	this->List[eZtUB::NSGames].bRankItem				= true;

  0211a	66 c7 81 a0 28
	00 00 01 01	 mov	 WORD PTR [ecx+10400], 257 ; 00000101H

; 1119 : 	this->List[eZtUB::NSGames].MonsterAttackLife		= true;
; 1120 : 	this->List[eZtUB::NSGames].GrandDinamicExp		= true;

  02123	88 81 9b 28 00
	00		 mov	 BYTE PTR [ecx+10395], al

; 1121 : 	this->List[eZtUB::NSGames].RestoreOffMode		= true;

  02129	88 81 a2 28 00
	00		 mov	 BYTE PTR [ecx+10402], al

; 1122 : 	this->List[eZtUB::NSGames].bTeamVsTeam2			= true;

  0212f	88 81 a4 28 00
	00		 mov	 BYTE PTR [ecx+10404], al

; 1123 : 	this->List[eZtUB::NSGames].LoraBattle			= true;

  02135	88 81 97 28 00
	00		 mov	 BYTE PTR [ecx+10391], al

; 1124 : 	this->List[eZtUB::NSGames].ItemSmokeEffect		= true;

  0213b	88 81 9a 28 00
	00		 mov	 BYTE PTR [ecx+10394], al

; 1125 : 	this->List[eZtUB::NSGames].PandoraEvent			= true;

  02141	88 81 91 28 00
	00		 mov	 BYTE PTR [ecx+10385], al

; 1126 : 	this->List[eZtUB::NSGames].OfflineMode			= true;

  02147	88 81 9e 28 00
	00		 mov	 BYTE PTR [ecx+10398], al

; 1127 : 	this->List[eZtUB::NSGames].bAchievements			= true;

  0214d	88 81 a5 28 00
	00		 mov	 BYTE PTR [ecx+10405], al

; 1128 : 	this->List[eZtUB::NSGames].AccSecurity			= true;

  02153	66 c7 81 a6 28
	00 00 01 01	 mov	 WORD PTR [ecx+10406], 257 ; 00000101H

; 1129 : 	this->List[eZtUB::NSGames].PremiumZt				= true;
; 1130 : 	this->List[eZtUB::NSGames].ComboCustom			= true;

  0215c	88 81 94 28 00
	00		 mov	 BYTE PTR [ecx+10388], al

; 1131 : 	this->List[eZtUB::NSGames].DisableMasterTree			= true;

  02162	88 81 9d 28 00
	00		 mov	 BYTE PTR [ecx+10397], al

; 1132 : 	this->List[eZtUB::NSGames].NpcBuffer			= true;

  02168	88 81 95 28 00
	00		 mov	 BYTE PTR [ecx+10389], al

; 1133 : 	this->List[eZtUB::NSGames].CustomCameraMove		= 1;

  0216e	66 c7 81 ad 28
	00 00 01 01	 mov	 WORD PTR [ecx+10413], 257 ; 00000101H

; 1134 : 	this->List[eZtUB::NSGames].CustomMiniMapZt		= 1;
; 1135 : 	this->List[eZtUB::NSGames].CustomMapTeleport	= 1;

  02177	88 81 ac 28 00
	00		 mov	 BYTE PTR [ecx+10412], al

; 1136 : 
; 1137 : 	strcpy(this->List[eZtUB::FinalMU].Login,	"FinalMU");

  0217d	8b 15 00 00 00
	00		 mov	 edx, DWORD PTR ??_C@_07DDNDCNCE@FinalMU?$AA@
  02183	89 91 b0 28 00
	00		 mov	 DWORD PTR [ecx+10416], edx
  02189	8b 15 04 00 00
	00		 mov	 edx, DWORD PTR ??_C@_07DDNDCNCE@FinalMU?$AA@+4
  0218f	89 91 b4 28 00
	00		 mov	 DWORD PTR [ecx+10420], edx

; 1138 : 	this->List[eZtUB::FinalMU].WinQuest			= true;

  02195	88 81 02 29 00
	00		 mov	 BYTE PTR [ecx+10498], al

; 1139 : 
; 1140 : 	strcpy(this->List[eZtUB::MUDev].Login,		"MUDev");

  0219b	8b 15 00 00 00
	00		 mov	 edx, DWORD PTR ??_C@_05COAHBPIE@MUDev?$AA@
  021a1	89 91 2c 29 00
	00		 mov	 DWORD PTR [ecx+10540], edx
  021a7	0f b7 15 04 00
	00 00		 movzx	 edx, WORD PTR ??_C@_05COAHBPIE@MUDev?$AA@+4
  021ae	66 89 91 30 29
	00 00		 mov	 WORD PTR [ecx+10544], dx

; 1141 : 	this->List[eZtUB::MUDev].Monster	= 1;

  021b5	88 81 91 29 00
	00		 mov	 BYTE PTR [ecx+10641], al

; 1142 : 	this->List[eZtUB::MUDev].CustomMiniMapZt	= 1;

  021bb	88 81 a6 29 00
	00		 mov	 BYTE PTR [ecx+10662], al

; 1143 : 
; 1144 : 	strcpy(this->List[eZtUB::FoxMU].Login,			"FoxMU");

  021c1	8b 15 00 00 00
	00		 mov	 edx, DWORD PTR ??_C@_05JNFLGIEA@FoxMU?$AA@
  021c7	89 91 a8 29 00
	00		 mov	 DWORD PTR [ecx+10664], edx
  021cd	0f b7 15 04 00
	00 00		 movzx	 edx, WORD PTR ??_C@_05JNFLGIEA@FoxMU?$AA@+4
  021d4	66 89 91 ac 29
	00 00		 mov	 WORD PTR [ecx+10668], dx

; 1145 : 	this->List[eZtUB::FoxMU].hwid					= 1278144493;

  021db	c7 81 cc 29 00
	00 ed ef 2e 4c	 mov	 DWORD PTR [ecx+10700], 1278144493 ; 4c2eefedH

; 1146 : 	strcpy(this->List[eZtUB::FoxMU].mac,			"00-15-5D-AC-28-10");

  021e5	8b 15 00 00 00
	00		 mov	 edx, DWORD PTR ??_C@_0BC@ICIAIPAL@00?915?95D?9AC?928?910?$AA@
  021eb	89 91 d0 29 00
	00		 mov	 DWORD PTR [ecx+10704], edx
  021f1	8b 15 04 00 00
	00		 mov	 edx, DWORD PTR ??_C@_0BC@ICIAIPAL@00?915?95D?9AC?928?910?$AA@+4
  021f7	89 91 d4 29 00
	00		 mov	 DWORD PTR [ecx+10708], edx
  021fd	8b 15 08 00 00
	00		 mov	 edx, DWORD PTR ??_C@_0BC@ICIAIPAL@00?915?95D?9AC?928?910?$AA@+8
  02203	89 91 d8 29 00
	00		 mov	 DWORD PTR [ecx+10712], edx
  02209	8b 15 0c 00 00
	00		 mov	 edx, DWORD PTR ??_C@_0BC@ICIAIPAL@00?915?95D?9AC?928?910?$AA@+12
  0220f	89 91 dc 29 00
	00		 mov	 DWORD PTR [ecx+10716], edx
  02215	0f b7 15 10 00
	00 00		 movzx	 edx, WORD PTR ??_C@_0BC@ICIAIPAL@00?915?95D?9AC?928?910?$AA@+16
  0221c	66 89 91 e0 29
	00 00		 mov	 WORD PTR [ecx+10720], dx

; 1147 : 
; 1148 : 	// ----
; 1149 : 
; 1150 : 	strcpy(this->List[eZtUB::MUCustom].Login,		"MUCustom");

  02223	8b 15 00 00 00
	00		 mov	 edx, DWORD PTR ??_C@_08MMBGDFBG@MUCustom?$AA@
  02229	89 91 24 2a 00
	00		 mov	 DWORD PTR [ecx+10788], edx
  0222f	8b 15 04 00 00
	00		 mov	 edx, DWORD PTR ??_C@_08MMBGDFBG@MUCustom?$AA@+4
  02235	89 91 28 2a 00
	00		 mov	 DWORD PTR [ecx+10792], edx
  0223b	0f b6 15 08 00
	00 00		 movzx	 edx, BYTE PTR ??_C@_08MMBGDFBG@MUCustom?$AA@+8
  02242	88 91 2c 2a 00
	00		 mov	 BYTE PTR [ecx+10796], dl

; 1151 : 	this->List[eZtUB::MUCustom].hwid				= 419191045;

  02248	c7 81 48 2a 00
	00 05 59 fc 18	 mov	 DWORD PTR [ecx+10824], 419191045 ; 18fc5905H

; 1152 : 	strcpy(this->List[eZtUB::MUCustom].mac,			"24-4B-FE-7B-09-F9");

  02252	8b 15 00 00 00
	00		 mov	 edx, DWORD PTR ??_C@_0BC@GFOEBPGL@24?94B?9FE?97B?909?9F9?$AA@
  02258	89 91 4c 2a 00
	00		 mov	 DWORD PTR [ecx+10828], edx
  0225e	8b 15 04 00 00
	00		 mov	 edx, DWORD PTR ??_C@_0BC@GFOEBPGL@24?94B?9FE?97B?909?9F9?$AA@+4
  02264	89 91 50 2a 00
	00		 mov	 DWORD PTR [ecx+10832], edx
  0226a	8b 15 08 00 00
	00		 mov	 edx, DWORD PTR ??_C@_0BC@GFOEBPGL@24?94B?9FE?97B?909?9F9?$AA@+8
  02270	89 91 54 2a 00
	00		 mov	 DWORD PTR [ecx+10836], edx
  02276	8b 15 0c 00 00
	00		 mov	 edx, DWORD PTR ??_C@_0BC@GFOEBPGL@24?94B?9FE?97B?909?9F9?$AA@+12
  0227c	89 91 58 2a 00
	00		 mov	 DWORD PTR [ecx+10840], edx
  02282	0f b7 15 10 00
	00 00		 movzx	 edx, WORD PTR ??_C@_0BC@GFOEBPGL@24?94B?9FE?97B?909?9F9?$AA@+16
  02289	66 89 91 5c 2a
	00 00		 mov	 WORD PTR [ecx+10844], dx

; 1153 : 	//this->List[eZtUB::MUCustom].FixVieweMonster	= 1;
; 1154 : 	//this->List[eZtUB::MUCustom].CustomMapTeleport	= 1;
; 1155 : 	this->List[eZtUB::MUCustom].CustomCameraMove	= 1;

  02290	66 c7 81 9d 2a
	00 00 01 01	 mov	 WORD PTR [ecx+10909], 257 ; 00000101H

; 1156 : 	this->List[eZtUB::MUCustom].CustomMiniMapZt	= 1;
; 1157 : 	
; 1158 : 
; 1159 : 	strcpy(this->List[eZtUB::Chebuk].Login,			"Chebuk");

  02299	8b 15 00 00 00
	00		 mov	 edx, DWORD PTR ??_C@_06OHBJBNDA@Chebuk?$AA@
  0229f	89 91 a0 2a 00
	00		 mov	 DWORD PTR [ecx+10912], edx
  022a5	0f b7 15 04 00
	00 00		 movzx	 edx, WORD PTR ??_C@_06OHBJBNDA@Chebuk?$AA@+4
  022ac	66 89 91 a4 2a
	00 00		 mov	 WORD PTR [ecx+10916], dx
  022b3	0f b6 15 06 00
	00 00		 movzx	 edx, BYTE PTR ??_C@_06OHBJBNDA@Chebuk?$AA@+6
  022ba	88 91 a6 2a 00
	00		 mov	 BYTE PTR [ecx+10918], dl

; 1160 : 	this->List[eZtUB::Chebuk].hwid					= 851719034;

  022c0	c7 81 c4 2a 00
	00 7a 33 c4 32	 mov	 DWORD PTR [ecx+10948], 851719034 ; 32c4337aH

; 1161 : 	strcpy(this->List[eZtUB::Chebuk].mac,			"00-15-13-2D-A2-52");	

  022ca	8b 15 00 00 00
	00		 mov	 edx, DWORD PTR ??_C@_0BC@GHENKIJN@00?915?913?92D?9A2?952?$AA@
  022d0	89 91 c8 2a 00
	00		 mov	 DWORD PTR [ecx+10952], edx
  022d6	8b 15 04 00 00
	00		 mov	 edx, DWORD PTR ??_C@_0BC@GHENKIJN@00?915?913?92D?9A2?952?$AA@+4
  022dc	89 91 cc 2a 00
	00		 mov	 DWORD PTR [ecx+10956], edx
  022e2	8b 15 08 00 00
	00		 mov	 edx, DWORD PTR ??_C@_0BC@GHENKIJN@00?915?913?92D?9A2?952?$AA@+8
  022e8	89 91 d0 2a 00
	00		 mov	 DWORD PTR [ecx+10960], edx
  022ee	8b 15 0c 00 00
	00		 mov	 edx, DWORD PTR ??_C@_0BC@GHENKIJN@00?915?913?92D?9A2?952?$AA@+12
  022f4	89 91 d4 2a 00
	00		 mov	 DWORD PTR [ecx+10964], edx
  022fa	0f b7 15 10 00
	00 00		 movzx	 edx, WORD PTR ??_C@_0BC@GHENKIJN@00?915?913?92D?9A2?952?$AA@+16
  02301	66 89 91 d8 2a
	00 00		 mov	 WORD PTR [ecx+10968], dx

; 1162 : 
; 1163 : 	strcpy(this->List[eZtUB::Jancis].Login,			"Jancis");

  02308	8b 15 00 00 00
	00		 mov	 edx, DWORD PTR ??_C@_06NMFJNBC@Jancis?$AA@
  0230e	89 91 1c 2b 00
	00		 mov	 DWORD PTR [ecx+11036], edx
  02314	0f b7 15 04 00
	00 00		 movzx	 edx, WORD PTR ??_C@_06NMFJNBC@Jancis?$AA@+4
  0231b	66 89 91 20 2b
	00 00		 mov	 WORD PTR [ecx+11040], dx
  02322	0f b6 15 06 00
	00 00		 movzx	 edx, BYTE PTR ??_C@_06NMFJNBC@Jancis?$AA@+6
  02329	88 91 22 2b 00
	00		 mov	 BYTE PTR [ecx+11042], dl

; 1164 : 	this->List[eZtUB::Jancis].hwid					= 3693880149;

  0232f	c7 81 40 2b 00
	00 55 23 2c dc	 mov	 DWORD PTR [ecx+11072], -601087147 ; dc2c2355H

; 1165 : 	strcpy(this->List[eZtUB::Jancis].mac,			"02-00-00-32-8C-B8");	

  02339	8b 15 00 00 00
	00		 mov	 edx, DWORD PTR ??_C@_0BC@LCOECIMM@02?900?900?932?98C?9B8?$AA@
  0233f	89 91 44 2b 00
	00		 mov	 DWORD PTR [ecx+11076], edx
  02345	8b 15 04 00 00
	00		 mov	 edx, DWORD PTR ??_C@_0BC@LCOECIMM@02?900?900?932?98C?9B8?$AA@+4
  0234b	89 91 48 2b 00
	00		 mov	 DWORD PTR [ecx+11080], edx
  02351	8b 15 08 00 00
	00		 mov	 edx, DWORD PTR ??_C@_0BC@LCOECIMM@02?900?900?932?98C?9B8?$AA@+8
  02357	89 91 4c 2b 00
	00		 mov	 DWORD PTR [ecx+11084], edx
  0235d	8b 15 0c 00 00
	00		 mov	 edx, DWORD PTR ??_C@_0BC@LCOECIMM@02?900?900?932?98C?9B8?$AA@+12
  02363	89 91 50 2b 00
	00		 mov	 DWORD PTR [ecx+11088], edx
  02369	0f b7 15 10 00
	00 00		 movzx	 edx, WORD PTR ??_C@_0BC@LCOECIMM@02?900?900?932?98C?9B8?$AA@+16
  02370	66 89 91 54 2b
	00 00		 mov	 WORD PTR [ecx+11092], dx

; 1166 : 	this->List[eZtUB::Jancis].CustomMapTeleport		= 1;

  02377	66 c7 81 94 2b
	00 00 01 01	 mov	 WORD PTR [ecx+11156], 257 ; 00000101H

; 1167 : 	this->List[eZtUB::Jancis].CustomCameraMove		= 1;
; 1168 : 	
; 1169 : 	strcpy(this->List[eZtUB::Atomic].Login,			"Atomic");

  02380	8b 15 00 00 00
	00		 mov	 edx, DWORD PTR ??_C@_06MLKEBGBC@Atomic?$AA@
  02386	89 91 98 2b 00
	00		 mov	 DWORD PTR [ecx+11160], edx
  0238c	0f b7 15 04 00
	00 00		 movzx	 edx, WORD PTR ??_C@_06MLKEBGBC@Atomic?$AA@+4
  02393	66 89 91 9c 2b
	00 00		 mov	 WORD PTR [ecx+11164], dx
  0239a	0f b6 15 06 00
	00 00		 movzx	 edx, BYTE PTR ??_C@_06MLKEBGBC@Atomic?$AA@+6
  023a1	88 91 9e 2b 00
	00		 mov	 BYTE PTR [ecx+11166], dl

; 1170 : 	//this->List[eZtUB::Atomic].hwid					= 3693880149;
; 1171 : 	//strcpy(this->List[eZtUB::Atomic].mac,			"02-00-00-32-8C-B8");	
; 1172 : 
; 1173 : 	strcpy(this->List[eZtUB::jammal].Login,			"jammal");

  023a7	8b 15 00 00 00
	00		 mov	 edx, DWORD PTR ??_C@_06KGEOPGEL@jammal?$AA@
  023ad	89 91 14 2c 00
	00		 mov	 DWORD PTR [ecx+11284], edx
  023b3	0f b7 15 04 00
	00 00		 movzx	 edx, WORD PTR ??_C@_06KGEOPGEL@jammal?$AA@+4
  023ba	66 89 91 18 2c
	00 00		 mov	 WORD PTR [ecx+11288], dx
  023c1	0f b6 15 06 00
	00 00		 movzx	 edx, BYTE PTR ??_C@_06KGEOPGEL@jammal?$AA@+6
  023c8	88 91 1a 2c 00
	00		 mov	 BYTE PTR [ecx+11290], dl

; 1174 : 	this->List[eZtUB::jammal].hwid					= 987085549;

  023ce	c7 81 38 2c 00
	00 ed ba d5 3a	 mov	 DWORD PTR [ecx+11320], 987085549 ; 3ad5baedH

; 1175 : 	strcpy(this->List[eZtUB::jammal].mac,			"00-50-56-22-01-01");		

  023d8	8b 15 00 00 00
	00		 mov	 edx, DWORD PTR ??_C@_0BC@NLMEJJCF@00?950?956?922?901?901?$AA@
  023de	89 91 3c 2c 00
	00		 mov	 DWORD PTR [ecx+11324], edx
  023e4	8b 15 04 00 00
	00		 mov	 edx, DWORD PTR ??_C@_0BC@NLMEJJCF@00?950?956?922?901?901?$AA@+4
  023ea	89 91 40 2c 00
	00		 mov	 DWORD PTR [ecx+11328], edx
  023f0	8b 15 08 00 00
	00		 mov	 edx, DWORD PTR ??_C@_0BC@NLMEJJCF@00?950?956?922?901?901?$AA@+8
  023f6	89 91 44 2c 00
	00		 mov	 DWORD PTR [ecx+11332], edx
  023fc	8b 15 0c 00 00
	00		 mov	 edx, DWORD PTR ??_C@_0BC@NLMEJJCF@00?950?956?922?901?901?$AA@+12
  02402	89 91 48 2c 00
	00		 mov	 DWORD PTR [ecx+11336], edx
  02408	0f b7 15 10 00
	00 00		 movzx	 edx, WORD PTR ??_C@_0BC@NLMEJJCF@00?950?956?922?901?901?$AA@+16
  0240f	66 89 91 4c 2c
	00 00		 mov	 WORD PTR [ecx+11340], dx

; 1176 : 
; 1177 : 	strcpy(this->List[eZtUB::MuPrime].Login,			"MuPrime");

  02416	8b 15 00 00 00
	00		 mov	 edx, DWORD PTR ??_C@_07HCCMMGG@MuPrime?$AA@
  0241c	89 91 90 2c 00
	00		 mov	 DWORD PTR [ecx+11408], edx
  02422	8b 15 04 00 00
	00		 mov	 edx, DWORD PTR ??_C@_07HCCMMGG@MuPrime?$AA@+4
  02428	89 91 94 2c 00
	00		 mov	 DWORD PTR [ecx+11412], edx

; 1178 : 	this->List[eZtUB::MuPrime].hwid					= 2326546573;

  0242e	c7 81 b4 2c 00
	00 8d 48 ac 8a	 mov	 DWORD PTR [ecx+11444], -1968420723 ; 8aac488dH

; 1179 : 	strcpy(this->List[eZtUB::MuPrime].mac,			"F7-10-16-F6-56-9F");		

  02438	8b 15 00 00 00
	00		 mov	 edx, DWORD PTR ??_C@_0BC@BBHPJGIB@F7?910?916?9F6?956?99F?$AA@
  0243e	89 91 b8 2c 00
	00		 mov	 DWORD PTR [ecx+11448], edx
  02444	8b 15 04 00 00
	00		 mov	 edx, DWORD PTR ??_C@_0BC@BBHPJGIB@F7?910?916?9F6?956?99F?$AA@+4
  0244a	89 91 bc 2c 00
	00		 mov	 DWORD PTR [ecx+11452], edx
  02450	8b 15 08 00 00
	00		 mov	 edx, DWORD PTR ??_C@_0BC@BBHPJGIB@F7?910?916?9F6?956?99F?$AA@+8
  02456	89 91 c0 2c 00
	00		 mov	 DWORD PTR [ecx+11456], edx
  0245c	8b 15 0c 00 00
	00		 mov	 edx, DWORD PTR ??_C@_0BC@BBHPJGIB@F7?910?916?9F6?956?99F?$AA@+12
  02462	89 91 c4 2c 00
	00		 mov	 DWORD PTR [ecx+11460], edx
  02468	0f b7 15 10 00
	00 00		 movzx	 edx, WORD PTR ??_C@_0BC@BBHPJGIB@F7?910?916?9F6?956?99F?$AA@+16
  0246f	66 89 91 c8 2c
	00 00		 mov	 WORD PTR [ecx+11464], dx

; 1180 : 
; 1181 : 	strcpy(this->List[eZtUB::Berlin].Login,			"Berlin");

  02476	8b 15 00 00 00
	00		 mov	 edx, DWORD PTR ??_C@_06KHKEJHKK@Berlin?$AA@
  0247c	89 91 0c 2d 00
	00		 mov	 DWORD PTR [ecx+11532], edx
  02482	0f b7 15 04 00
	00 00		 movzx	 edx, WORD PTR ??_C@_06KHKEJHKK@Berlin?$AA@+4
  02489	66 89 91 10 2d
	00 00		 mov	 WORD PTR [ecx+11536], dx
  02490	0f b6 15 06 00
	00 00		 movzx	 edx, BYTE PTR ??_C@_06KHKEJHKK@Berlin?$AA@+6
  02497	88 91 12 2d 00
	00		 mov	 BYTE PTR [ecx+11538], dl

; 1182 : 	this->List[eZtUB::Berlin].hwid					= 3226014109;

  0249d	89 b9 30 2d 00
	00		 mov	 DWORD PTR [ecx+11568], edi

; 1183 : 	strcpy(this->List[eZtUB::Berlin].mac,			"00-15-5D-09-A4-0F");		

  024a3	8b 15 00 00 00
	00		 mov	 edx, DWORD PTR ??_C@_0BC@GICJPDOM@00?915?95D?909?9A4?90F?$AA@
  024a9	89 91 34 2d 00
	00		 mov	 DWORD PTR [ecx+11572], edx
  024af	8b 15 04 00 00
	00		 mov	 edx, DWORD PTR ??_C@_0BC@GICJPDOM@00?915?95D?909?9A4?90F?$AA@+4
  024b5	89 91 38 2d 00
	00		 mov	 DWORD PTR [ecx+11576], edx
  024bb	8b 15 08 00 00
	00		 mov	 edx, DWORD PTR ??_C@_0BC@GICJPDOM@00?915?95D?909?9A4?90F?$AA@+8
  024c1	89 91 3c 2d 00
	00		 mov	 DWORD PTR [ecx+11580], edx
  024c7	8b 15 0c 00 00
	00		 mov	 edx, DWORD PTR ??_C@_0BC@GICJPDOM@00?915?95D?909?9A4?90F?$AA@+12
  024cd	89 91 40 2d 00
	00		 mov	 DWORD PTR [ecx+11584], edx
  024d3	0f b7 15 10 00
	00 00		 movzx	 edx, WORD PTR ??_C@_0BC@GICJPDOM@00?915?95D?909?9A4?90F?$AA@+16
  024da	66 89 91 44 2d
	00 00		 mov	 WORD PTR [ecx+11588], dx

; 1184 : 	this->List[eZtUB::Berlin].CustomMiniMapZt	= 1;

  024e1	88 81 86 2d 00
	00		 mov	 BYTE PTR [ecx+11654], al

; 1185 : 
; 1186 : 	strcpy(this->List[eZtUB::Thinnakorn].Login,			"Thinnakorn");

  024e7	a1 00 00 00 00	 mov	 eax, DWORD PTR ??_C@_0L@JCADJBBO@Thinnakorn?$AA@
  024ec	89 81 88 2d 00
	00		 mov	 DWORD PTR [ecx+11656], eax
  024f2	8b 15 04 00 00
	00		 mov	 edx, DWORD PTR ??_C@_0L@JCADJBBO@Thinnakorn?$AA@+4
  024f8	89 91 8c 2d 00
	00		 mov	 DWORD PTR [ecx+11660], edx
  024fe	0f b7 05 08 00
	00 00		 movzx	 eax, WORD PTR ??_C@_0L@JCADJBBO@Thinnakorn?$AA@+8
  02505	66 89 81 90 2d
	00 00		 mov	 WORD PTR [ecx+11664], ax
  0250c	0f b6 15 0a 00
	00 00		 movzx	 edx, BYTE PTR ??_C@_0L@JCADJBBO@Thinnakorn?$AA@+10
  02513	88 91 92 2d 00
	00		 mov	 BYTE PTR [ecx+11666], dl

; 1187 : 	this->List[eZtUB::Thinnakorn].hwid					= 1392480478;

  02519	c7 81 ac 2d 00
	00 de 90 ff 52	 mov	 DWORD PTR [ecx+11692], 1392480478 ; 52ff90deH

; 1188 : 	strcpy(this->List[eZtUB::Thinnakorn].mac,			"00-0C-29-FF-E9-2E");		

  02523	a1 00 00 00 00	 mov	 eax, DWORD PTR ??_C@_0BC@DPDABOOF@00?90C?929?9FF?9E9?92E?$AA@
  02528	89 81 b0 2d 00
	00		 mov	 DWORD PTR [ecx+11696], eax
  0252e	8b 15 04 00 00
	00		 mov	 edx, DWORD PTR ??_C@_0BC@DPDABOOF@00?90C?929?9FF?9E9?92E?$AA@+4
  02534	89 91 b4 2d 00
	00		 mov	 DWORD PTR [ecx+11700], edx
  0253a	a1 08 00 00 00	 mov	 eax, DWORD PTR ??_C@_0BC@DPDABOOF@00?90C?929?9FF?9E9?92E?$AA@+8
  0253f	89 81 b8 2d 00
	00		 mov	 DWORD PTR [ecx+11704], eax
  02545	8b 15 0c 00 00
	00		 mov	 edx, DWORD PTR ??_C@_0BC@DPDABOOF@00?90C?929?9FF?9E9?92E?$AA@+12
  0254b	89 91 bc 2d 00
	00		 mov	 DWORD PTR [ecx+11708], edx
  02551	0f b7 05 10 00
	00 00		 movzx	 eax, WORD PTR ??_C@_0BC@DPDABOOF@00?90C?929?9FF?9E9?92E?$AA@+16
  02558	66 89 81 c0 2d
	00 00		 mov	 WORD PTR [ecx+11712], ax

; 1189 : 
; 1190 : 	strcpy(this->List[eZtUB::InfinityMU].Login,			"InfinityMU");

  0255f	8b 15 00 00 00
	00		 mov	 edx, DWORD PTR ??_C@_0L@EHBHGJLF@InfinityMU?$AA@
  02565	89 91 04 2e 00
	00		 mov	 DWORD PTR [ecx+11780], edx
  0256b	a1 04 00 00 00	 mov	 eax, DWORD PTR ??_C@_0L@EHBHGJLF@InfinityMU?$AA@+4
  02570	89 81 08 2e 00
	00		 mov	 DWORD PTR [ecx+11784], eax
  02576	0f b7 15 08 00
	00 00		 movzx	 edx, WORD PTR ??_C@_0L@EHBHGJLF@InfinityMU?$AA@+8
  0257d	66 89 91 0c 2e
	00 00		 mov	 WORD PTR [ecx+11788], dx
  02584	0f b6 05 0a 00
	00 00		 movzx	 eax, BYTE PTR ??_C@_0L@EHBHGJLF@InfinityMU?$AA@+10
  0258b	88 81 0e 2e 00
	00		 mov	 BYTE PTR [ecx+11790], al

; 1191 : 	this->List[eZtUB::InfinityMU].hwid					= 3601014565;

  02591	c7 81 28 2e 00
	00 25 1f a3 d6	 mov	 DWORD PTR [ecx+11816], -693952731 ; d6a31f25H

; 1192 : 	strcpy(this->List[eZtUB::InfinityMU].mac,			"F7-2D-8E-C4-4B-F4");		

  0259b	8b 15 00 00 00
	00		 mov	 edx, DWORD PTR ??_C@_0BC@IELACNEE@F7?92D?98E?9C4?94B?9F4?$AA@
  025a1	89 91 2c 2e 00
	00		 mov	 DWORD PTR [ecx+11820], edx
  025a7	a1 04 00 00 00	 mov	 eax, DWORD PTR ??_C@_0BC@IELACNEE@F7?92D?98E?9C4?94B?9F4?$AA@+4
  025ac	89 81 30 2e 00
	00		 mov	 DWORD PTR [ecx+11824], eax
  025b2	8b 15 08 00 00
	00		 mov	 edx, DWORD PTR ??_C@_0BC@IELACNEE@F7?92D?98E?9C4?94B?9F4?$AA@+8
  025b8	89 91 34 2e 00
	00		 mov	 DWORD PTR [ecx+11828], edx
  025be	a1 0c 00 00 00	 mov	 eax, DWORD PTR ??_C@_0BC@IELACNEE@F7?92D?98E?9C4?94B?9F4?$AA@+12
  025c3	89 81 38 2e 00
	00		 mov	 DWORD PTR [ecx+11832], eax
  025c9	0f b7 15 10 00
	00 00		 movzx	 edx, WORD PTR ??_C@_0BC@IELACNEE@F7?92D?98E?9C4?94B?9F4?$AA@+16
  025d0	66 89 91 3c 2e
	00 00		 mov	 WORD PTR [ecx+11836], dx

; 1193 : 
; 1194 : 	strcpy(this->List[eZtUB::MuInsane].Login,			"MuInsane");

  025d7	a1 00 00 00 00	 mov	 eax, DWORD PTR ??_C@_08FGNNLNME@MuInsane?$AA@
  025dc	89 81 80 2e 00
	00		 mov	 DWORD PTR [ecx+11904], eax
  025e2	8b 15 04 00 00
	00		 mov	 edx, DWORD PTR ??_C@_08FGNNLNME@MuInsane?$AA@+4
  025e8	89 91 84 2e 00
	00		 mov	 DWORD PTR [ecx+11908], edx
  025ee	0f b6 05 08 00
	00 00		 movzx	 eax, BYTE PTR ??_C@_08FGNNLNME@MuInsane?$AA@+8
  025f5	88 81 88 2e 00
	00		 mov	 BYTE PTR [ecx+11912], al

; 1195 : 	
; 1196 : 	strcpy(this->List[eZtUB::Jeancarlos].Login,			"Jeancarlos");

  025fb	8b 15 00 00 00
	00		 mov	 edx, DWORD PTR ??_C@_0L@NFKFDAJJ@Jeancarlos?$AA@
  02601	89 91 fc 2e 00
	00		 mov	 DWORD PTR [ecx+12028], edx
  02607	a1 04 00 00 00	 mov	 eax, DWORD PTR ??_C@_0L@NFKFDAJJ@Jeancarlos?$AA@+4
  0260c	89 81 00 2f 00
	00		 mov	 DWORD PTR [ecx+12032], eax
  02612	0f b7 15 08 00
	00 00		 movzx	 edx, WORD PTR ??_C@_0L@NFKFDAJJ@Jeancarlos?$AA@+8
  02619	66 89 91 04 2f
	00 00		 mov	 WORD PTR [ecx+12036], dx
  02620	0f b6 05 0a 00
	00 00		 movzx	 eax, BYTE PTR ??_C@_0L@NFKFDAJJ@Jeancarlos?$AA@+10
  02627	88 81 06 2f 00
	00		 mov	 BYTE PTR [ecx+12038], al

; 1197 : 	this->List[eZtUB::Jeancarlos].hwid					= 3565722453;

  0262d	c7 81 20 2f 00
	00 55 9b 88 d4	 mov	 DWORD PTR [ecx+12064], -729244843 ; d4889b55H

; 1198 : 	strcpy(this->List[eZtUB::Jeancarlos].mac,			"00-16-3C-67-3E-05");	

  02637	8b 15 00 00 00
	00		 mov	 edx, DWORD PTR ??_C@_0BC@DCJEECGM@00?916?93C?967?93E?905?$AA@
  0263d	89 91 24 2f 00
	00		 mov	 DWORD PTR [ecx+12068], edx
  02643	a1 04 00 00 00	 mov	 eax, DWORD PTR ??_C@_0BC@DCJEECGM@00?916?93C?967?93E?905?$AA@+4
  02648	89 81 28 2f 00
	00		 mov	 DWORD PTR [ecx+12072], eax
  0264e	8b 15 08 00 00
	00		 mov	 edx, DWORD PTR ??_C@_0BC@DCJEECGM@00?916?93C?967?93E?905?$AA@+8
  02654	89 91 2c 2f 00
	00		 mov	 DWORD PTR [ecx+12076], edx
  0265a	a1 0c 00 00 00	 mov	 eax, DWORD PTR ??_C@_0BC@DCJEECGM@00?916?93C?967?93E?905?$AA@+12
  0265f	89 81 30 2f 00
	00		 mov	 DWORD PTR [ecx+12080], eax
  02665	0f b7 15 10 00
	00 00		 movzx	 edx, WORD PTR ??_C@_0BC@DCJEECGM@00?916?93C?967?93E?905?$AA@+16
  0266c	66 89 91 34 2f
	00 00		 mov	 WORD PTR [ecx+12084], dx

; 1199 : 
; 1200 : 	strcpy(this->List[eZtUB::NoriaMU].Login,			"NoriaMU");

  02673	a1 00 00 00 00	 mov	 eax, DWORD PTR ??_C@_07DFOIFCFH@NoriaMU?$AA@
  02678	89 81 78 2f 00
	00		 mov	 DWORD PTR [ecx+12152], eax
  0267e	8b 15 04 00 00
	00		 mov	 edx, DWORD PTR ??_C@_07DFOIFCFH@NoriaMU?$AA@+4
  02684	89 91 7c 2f 00
	00		 mov	 DWORD PTR [ecx+12156], edx

; 1201 : 	this->List[eZtUB::NoriaMU].hwid					= 172572549;

  0268a	c7 81 9c 2f 00
	00 85 3f 49 0a	 mov	 DWORD PTR [ecx+12188], 172572549 ; 0a493f85H

; 1202 : 	strcpy(this->List[eZtUB::NoriaMU].mac,			"00-50-56-A2-15-26");	

  02694	a1 00 00 00 00	 mov	 eax, DWORD PTR ??_C@_0BC@GAPDFBPJ@00?950?956?9A2?915?926?$AA@
  02699	89 81 a0 2f 00
	00		 mov	 DWORD PTR [ecx+12192], eax
  0269f	8b 15 04 00 00
	00		 mov	 edx, DWORD PTR ??_C@_0BC@GAPDFBPJ@00?950?956?9A2?915?926?$AA@+4
  026a5	89 91 a4 2f 00
	00		 mov	 DWORD PTR [ecx+12196], edx
  026ab	a1 08 00 00 00	 mov	 eax, DWORD PTR ??_C@_0BC@GAPDFBPJ@00?950?956?9A2?915?926?$AA@+8
  026b0	89 81 a8 2f 00
	00		 mov	 DWORD PTR [ecx+12200], eax
  026b6	8b 15 0c 00 00
	00		 mov	 edx, DWORD PTR ??_C@_0BC@GAPDFBPJ@00?950?956?9A2?915?926?$AA@+12
  026bc	89 91 ac 2f 00
	00		 mov	 DWORD PTR [ecx+12204], edx
  026c2	0f b7 05 10 00
	00 00		 movzx	 eax, WORD PTR ??_C@_0BC@GAPDFBPJ@00?950?956?9A2?915?926?$AA@+16
  026c9	66 89 81 b0 2f
	00 00		 mov	 WORD PTR [ecx+12208], ax

; 1203 : 
; 1204 : 	strcpy(this->List[eZtUB::FlameMu].Login,			"FlameMu");

  026d0	8b 15 00 00 00
	00		 mov	 edx, DWORD PTR ??_C@_07LNMBDGHP@FlameMu?$AA@
  026d6	89 91 f4 2f 00
	00		 mov	 DWORD PTR [ecx+12276], edx
  026dc	a1 04 00 00 00	 mov	 eax, DWORD PTR ??_C@_07LNMBDGHP@FlameMu?$AA@+4
  026e1	89 81 f8 2f 00
	00		 mov	 DWORD PTR [ecx+12280], eax

; 1205 : 	this->List[eZtUB::FlameMu].hwid					= 4103493799;

  026e7	b8 a7 58 96 f4	 mov	 eax, -191473497		; f49658a7H
  026ec	89 81 18 30 00
	00		 mov	 DWORD PTR [ecx+12312], eax

; 1206 : 	strcpy(this->List[eZtUB::FlameMu].mac,			"BA-AE-51-32-80-1F");	

  026f2	8b 15 00 00 00
	00		 mov	 edx, DWORD PTR ??_C@_0BC@JIEJCOCC@BA?9AE?951?932?980?91F?$AA@
  026f8	89 91 1c 30 00
	00		 mov	 DWORD PTR [ecx+12316], edx
  026fe	8b 15 04 00 00
	00		 mov	 edx, DWORD PTR ??_C@_0BC@JIEJCOCC@BA?9AE?951?932?980?91F?$AA@+4
  02704	89 91 20 30 00
	00		 mov	 DWORD PTR [ecx+12320], edx
  0270a	8b 15 08 00 00
	00		 mov	 edx, DWORD PTR ??_C@_0BC@JIEJCOCC@BA?9AE?951?932?980?91F?$AA@+8
  02710	89 91 24 30 00
	00		 mov	 DWORD PTR [ecx+12324], edx
  02716	8b 15 0c 00 00
	00		 mov	 edx, DWORD PTR ??_C@_0BC@JIEJCOCC@BA?9AE?951?932?980?91F?$AA@+12
  0271c	89 91 28 30 00
	00		 mov	 DWORD PTR [ecx+12328], edx
  02722	0f b7 15 10 00
	00 00		 movzx	 edx, WORD PTR ??_C@_0BC@JIEJCOCC@BA?9AE?951?932?980?91F?$AA@+16
  02729	66 89 91 2c 30
	00 00		 mov	 WORD PTR [ecx+12332], dx

; 1207 : 
; 1208 : 	strcpy(this->List[eZtUB::AsteraMU].Login,			"AsteraMU");

  02730	8b 15 00 00 00
	00		 mov	 edx, DWORD PTR ??_C@_08NNIJEPM@AsteraMU?$AA@
  02736	89 91 70 30 00
	00		 mov	 DWORD PTR [ecx+12400], edx
  0273c	8b 15 04 00 00
	00		 mov	 edx, DWORD PTR ??_C@_08NNIJEPM@AsteraMU?$AA@+4
  02742	89 91 74 30 00
	00		 mov	 DWORD PTR [ecx+12404], edx
  02748	0f b6 15 08 00
	00 00		 movzx	 edx, BYTE PTR ??_C@_08NNIJEPM@AsteraMU?$AA@+8
  0274f	88 91 78 30 00
	00		 mov	 BYTE PTR [ecx+12408], dl

; 1209 : 	this->List[eZtUB::AsteraMU].hwid					= 4103493799;

  02755	89 81 94 30 00
	00		 mov	 DWORD PTR [ecx+12436], eax

; 1210 : 	strcpy(this->List[eZtUB::AsteraMU].mac,			"BA-AE-51-32-80-1F");	

  0275b	a1 00 00 00 00	 mov	 eax, DWORD PTR ??_C@_0BC@JIEJCOCC@BA?9AE?951?932?980?91F?$AA@
  02760	89 81 98 30 00
	00		 mov	 DWORD PTR [ecx+12440], eax
  02766	8b 15 04 00 00
	00		 mov	 edx, DWORD PTR ??_C@_0BC@JIEJCOCC@BA?9AE?951?932?980?91F?$AA@+4
  0276c	89 91 9c 30 00
	00		 mov	 DWORD PTR [ecx+12444], edx
  02772	a1 08 00 00 00	 mov	 eax, DWORD PTR ??_C@_0BC@JIEJCOCC@BA?9AE?951?932?980?91F?$AA@+8
  02777	89 81 a0 30 00
	00		 mov	 DWORD PTR [ecx+12448], eax
  0277d	8b 15 0c 00 00
	00		 mov	 edx, DWORD PTR ??_C@_0BC@JIEJCOCC@BA?9AE?951?932?980?91F?$AA@+12
  02783	89 91 a4 30 00
	00		 mov	 DWORD PTR [ecx+12452], edx
  02789	0f b7 05 10 00
	00 00		 movzx	 eax, WORD PTR ??_C@_0BC@JIEJCOCC@BA?9AE?951?932?980?91F?$AA@+16
  02790	66 89 81 a8 30
	00 00		 mov	 WORD PTR [ecx+12456], ax

; 1211 : 
; 1212 : 	strcpy(this->List[eZtUB::MU_GE].Login,			"MU_GE");

  02797	8b 15 00 00 00
	00		 mov	 edx, DWORD PTR ??_C@_05GGLNDIKE@MU_GE?$AA@
  0279d	89 91 ec 30 00
	00		 mov	 DWORD PTR [ecx+12524], edx
  027a3	0f b7 05 04 00
	00 00		 movzx	 eax, WORD PTR ??_C@_05GGLNDIKE@MU_GE?$AA@+4
  027aa	66 89 81 f0 30
	00 00		 mov	 WORD PTR [ecx+12528], ax

; 1213 : 	this->List[eZtUB::MU_GE].hwid					= 2262655649;

  027b1	c7 81 10 31 00
	00 a1 62 dd 86	 mov	 DWORD PTR [ecx+12560], -2032311647 ; 86dd62a1H

; 1214 : 	strcpy(this->List[eZtUB::MU_GE].mac,				"A4-89-F2-5D-0D-15");	

  027bb	8b 15 00 00 00
	00		 mov	 edx, DWORD PTR ??_C@_0BC@GFGBAENL@A4?989?9F2?95D?90D?915?$AA@
  027c1	89 91 14 31 00
	00		 mov	 DWORD PTR [ecx+12564], edx
  027c7	a1 04 00 00 00	 mov	 eax, DWORD PTR ??_C@_0BC@GFGBAENL@A4?989?9F2?95D?90D?915?$AA@+4
  027cc	89 81 18 31 00
	00		 mov	 DWORD PTR [ecx+12568], eax
  027d2	8b 15 08 00 00
	00		 mov	 edx, DWORD PTR ??_C@_0BC@GFGBAENL@A4?989?9F2?95D?90D?915?$AA@+8
  027d8	89 91 1c 31 00
	00		 mov	 DWORD PTR [ecx+12572], edx
  027de	a1 0c 00 00 00	 mov	 eax, DWORD PTR ??_C@_0BC@GFGBAENL@A4?989?9F2?95D?90D?915?$AA@+12
  027e3	89 81 20 31 00
	00		 mov	 DWORD PTR [ecx+12576], eax
  027e9	0f b7 15 10 00
	00 00		 movzx	 edx, WORD PTR ??_C@_0BC@GFGBAENL@A4?989?9F2?95D?90D?915?$AA@+16
  027f0	66 89 91 24 31
	00 00		 mov	 WORD PTR [ecx+12580], dx

; 1215 : 
; 1216 : 	strcpy(this->List[eZtUB::SaksonPavel].Login,			"SaksonPavel");

  027f7	a1 00 00 00 00	 mov	 eax, DWORD PTR ??_C@_0M@NCCPJIG@SaksonPavel?$AA@
  027fc	89 81 68 31 00
	00		 mov	 DWORD PTR [ecx+12648], eax
  02802	8b 15 04 00 00
	00		 mov	 edx, DWORD PTR ??_C@_0M@NCCPJIG@SaksonPavel?$AA@+4
  02808	5f		 pop	 edi
  02809	89 91 6c 31 00
	00		 mov	 DWORD PTR [ecx+12652], edx
  0280f	a1 08 00 00 00	 mov	 eax, DWORD PTR ??_C@_0M@NCCPJIG@SaksonPavel?$AA@+8
  02814	5e		 pop	 esi
  02815	89 81 70 31 00
	00		 mov	 DWORD PTR [ecx+12656], eax
  0281b	5b		 pop	 ebx
$LN5@AddList:

; 1217 : 	//this->List[eZtUB::SaksonPavel].hwid					= 2262655649;
; 1218 : 	//strcpy(this->List[eZtUB::SaksonPavel].mac,				"A4-89-F2-5D-0D-15");	
; 1219 : }

  0281c	8b e5		 mov	 esp, ebp
  0281e	5d		 pop	 ebp
  0281f	c3		 ret	 0
?AddList@CZtLicense@@QAEXXZ ENDP			; CZtLicense::AddList
_TEXT	ENDS
PUBLIC	?CheckUser@CZtLicense@@QAE_NH@Z			; CZtLicense::CheckUser
; Function compile flags: /Ogtp
;	COMDAT ?CheckUser@CZtLicense@@QAE_NH@Z
_TEXT	SEGMENT
_NeedUser$ = 8						; size = 4
?CheckUser@CZtLicense@@QAE_NH@Z PROC			; CZtLicense::CheckUser, COMDAT
; _this$ = ecx

; 1363 : {

  00000	55		 push	 ebp
  00001	8b ec		 mov	 ebp, esp

; 1364 : 	if(this->ActiveUser == NeedUser)

  00003	8b 41 04	 mov	 eax, DWORD PTR [ecx+4]
  00006	3b 45 08	 cmp	 eax, DWORD PTR _NeedUser$[ebp]
  00009	0f 94 c0	 sete	 al

; 1365 : 	{
; 1366 : 		return true;
; 1367 : 	}
; 1368 : 	return false;
; 1369 : }

  0000c	5d		 pop	 ebp
  0000d	c2 04 00	 ret	 4
?CheckUser@CZtLicense@@QAE_NH@Z ENDP			; CZtLicense::CheckUser
_TEXT	ENDS
PUBLIC	??0PMSG_LICENSE_DATA@@QAE@XZ			; PMSG_LICENSE_DATA::PMSG_LICENSE_DATA
; Function compile flags: /Ogtp
;	COMDAT ??0PMSG_LICENSE_DATA@@QAE@XZ
_TEXT	SEGMENT
??0PMSG_LICENSE_DATA@@QAE@XZ PROC			; PMSG_LICENSE_DATA::PMSG_LICENSE_DATA, COMDAT
; _this$ = ecx
  00000	56		 push	 esi
  00001	8b f1		 mov	 esi, ecx
  00003	8d 4e 0c	 lea	 ecx, DWORD PTR [esi+12]
  00006	e8 00 00 00 00	 call	 ??0LICENSE_DATA@@QAE@XZ	; LICENSE_DATA::LICENSE_DATA
  0000b	32 c0		 xor	 al, al
  0000d	88 86 8c 00 00
	00		 mov	 BYTE PTR [esi+140], al
  00013	c7 86 88 00 00
	00 05 00 00 00	 mov	 DWORD PTR [esi+136], 5
  0001d	8b c6		 mov	 eax, esi
  0001f	5e		 pop	 esi
  00020	c3		 ret	 0
??0PMSG_LICENSE_DATA@@QAE@XZ ENDP			; PMSG_LICENSE_DATA::PMSG_LICENSE_DATA
_TEXT	ENDS
PUBLIC	__$ArrayPad$
PUBLIC	?GDLicenseUser@CZtLicense@@QAEXXZ		; CZtLicense::GDLicenseUser
EXTRN	?Send@DBSockMng@@QAEHPADH@Z:PROC		; DBSockMng::Send
EXTRN	?cDBSMng@@3VDBSockMng@@A:BYTE			; cDBSMng
EXTRN	?gGENS@@3HA:DWORD				; gGENS
EXTRN	___security_cookie:DWORD
EXTRN	@__security_check_cookie@4:PROC
; Function compile flags: /Ogtp
;	COMDAT ?GDLicenseUser@CZtLicense@@QAEXXZ
_TEXT	SEGMENT
_rSend$ = -148						; size = 144
__$ArrayPad$ = -4					; size = 4
?GDLicenseUser@CZtLicense@@QAEXXZ PROC			; CZtLicense::GDLicenseUser, COMDAT
; _this$ = ecx

; 1390 : {

  00000	55		 push	 ebp
  00001	8b ec		 mov	 ebp, esp
  00003	81 ec 94 00 00
	00		 sub	 esp, 148		; 00000094H
  00009	a1 00 00 00 00	 mov	 eax, DWORD PTR ___security_cookie
  0000e	33 c5		 xor	 eax, ebp
  00010	89 45 fc	 mov	 DWORD PTR __$ArrayPad$[ebp], eax
  00013	56		 push	 esi
  00014	8b f1		 mov	 esi, ecx
  00016	57		 push	 edi

; 1391 : 	VMBEGIN
; 1392 : 	PMSG_LICENSE_DATA rSend;

  00017	8d 8d 78 ff ff
	ff		 lea	 ecx, DWORD PTR _rSend$[ebp+12]
  0001d	e8 00 00 00 00	 call	 ??0LICENSE_DATA@@QAE@XZ	; LICENSE_DATA::LICENSE_DATA

; 1393 : 	rSend.h.set((LPBYTE)&rSend, 0xE3, 0x00, sizeof(rSend));
; 1394 : 	rSend.LicenseUser = this->ActiveUser;

  00022	8b 4e 04	 mov	 ecx, DWORD PTR [esi+4]

; 1395 : 	rSend.LicenseCustom = this->m_SetCustom;

  00025	8b 96 dc 61 00
	00		 mov	 edx, DWORD PTR [esi+25052]
  0002b	33 c0		 xor	 eax, eax
  0002d	89 8d 70 ff ff
	ff		 mov	 DWORD PTR _rSend$[ebp+4], ecx
  00033	88 45 f6	 mov	 BYTE PTR _rSend$[ebp+138], al
  00036	88 45 f8	 mov	 BYTE PTR _rSend$[ebp+140], al

; 1396 : 	rSend.base = this->user;

  00039	83 c6 7c	 add	 esi, 124		; 0000007cH

; 1397 : 	rSend.config.Gens = gGENS;

  0003c	39 05 00 00 00
	00		 cmp	 DWORD PTR ?gGENS@@3HA, eax ; gGENS
  00042	66 c7 45 f4 05
	00		 mov	 WORD PTR _rSend$[ebp+136], 5
  00048	c7 85 6c ff ff
	ff c1 90 e3 00	 mov	 DWORD PTR _rSend$[ebp], 14913729 ; 00e390c1H
  00052	89 95 74 ff ff
	ff		 mov	 DWORD PTR _rSend$[ebp+8], edx
  00058	b9 1f 00 00 00	 mov	 ecx, 31			; 0000001fH
  0005d	8d bd 78 ff ff
	ff		 lea	 edi, DWORD PTR _rSend$[ebp+12]
  00063	f3 a5		 rep movsd

; 1398 : 	cDBSMng.Send((char*)&rSend, sizeof(rSend));

  00065	68 90 00 00 00	 push	 144			; 00000090H
  0006a	8d 8d 6c ff ff
	ff		 lea	 ecx, DWORD PTR _rSend$[ebp]
  00070	0f 95 c0	 setne	 al
  00073	51		 push	 ecx
  00074	b9 00 00 00 00	 mov	 ecx, OFFSET ?cDBSMng@@3VDBSockMng@@A ; cDBSMng
  00079	88 45 f7	 mov	 BYTE PTR _rSend$[ebp+139], al
  0007c	e8 00 00 00 00	 call	 ?Send@DBSockMng@@QAEHPADH@Z ; DBSockMng::Send

; 1399 : 	VMEND
; 1400 : }

  00081	8b 4d fc	 mov	 ecx, DWORD PTR __$ArrayPad$[ebp]
  00084	5f		 pop	 edi
  00085	33 cd		 xor	 ecx, ebp
  00087	5e		 pop	 esi
  00088	e8 00 00 00 00	 call	 @__security_check_cookie@4
  0008d	8b e5		 mov	 esp, ebp
  0008f	5d		 pop	 ebp
  00090	c3		 ret	 0
?GDLicenseUser@CZtLicense@@QAEXXZ ENDP			; CZtLicense::GDLicenseUser
_TEXT	ENDS
PUBLIC	?GetDecText@CZtLicense@@QAEPADPAD@Z		; CZtLicense::GetDecText
EXTRN	??_U@YAPAXI@Z:PROC				; operator new[]
; Function compile flags: /Ogtp
;	COMDAT ?GetDecText@CZtLicense@@QAEPADPAD@Z
_TEXT	SEGMENT
_this$ = -4						; size = 4
tv166 = 8						; size = 4
_EncodeChar$ = 8					; size = 4
?GetDecText@CZtLicense@@QAEPADPAD@Z PROC		; CZtLicense::GetDecText, COMDAT
; _this$ = ecx

; 1403 : {

  00000	55		 push	 ebp
  00001	8b ec		 mov	 ebp, esp
  00003	51		 push	 ecx
  00004	53		 push	 ebx
  00005	56		 push	 esi

; 1404 : 	int len = strlen(EncodeChar);	

  00006	8b 75 08	 mov	 esi, DWORD PTR _EncodeChar$[ebp]
  00009	57		 push	 edi
  0000a	8b fe		 mov	 edi, esi
  0000c	89 4d fc	 mov	 DWORD PTR _this$[ebp], ecx
  0000f	8d 4f 01	 lea	 ecx, DWORD PTR [edi+1]
$LL8@GetDecText:
  00012	8a 07		 mov	 al, BYTE PTR [edi]
  00014	47		 inc	 edi
  00015	84 c0		 test	 al, al
  00017	75 f9		 jne	 SHORT $LL8@GetDecText
  00019	2b f9		 sub	 edi, ecx

; 1405 : 	char* Line = new char[len+1];

  0001b	8d 47 01	 lea	 eax, DWORD PTR [edi+1]
  0001e	50		 push	 eax
  0001f	e8 00 00 00 00	 call	 ??_U@YAPAXI@Z		; operator new[]
  00024	83 c4 04	 add	 esp, 4

; 1406 : 	for(int i = 0; i < len; i++)

  00027	33 c9		 xor	 ecx, ecx
  00029	8b d8		 mov	 ebx, eax
  0002b	85 ff		 test	 edi, edi
  0002d	7e 3d		 jle	 SHORT $LN9@GetDecText
  0002f	8b c6		 mov	 eax, esi
  00031	2b c3		 sub	 eax, ebx
  00033	89 45 08	 mov	 DWORD PTR tv166[ebp], eax
$LL3@GetDecText:

; 1407 : 	{
; 1408 : 		Line[i] = char(EncodeChar[i] ^ this->TextXoR[i % 3]);

  00036	b8 ab aa aa aa	 mov	 eax, -1431655765	; aaaaaaabH
  0003b	f7 e1		 mul	 ecx
  0003d	d1 ea		 shr	 edx, 1
  0003f	8d 14 52	 lea	 edx, DWORD PTR [edx+edx*2]
  00042	8b c1		 mov	 eax, ecx
  00044	2b c2		 sub	 eax, edx
  00046	8b 55 fc	 mov	 edx, DWORD PTR _this$[ebp]
  00049	8a 44 10 76	 mov	 al, BYTE PTR [eax+edx+118]
  0004d	8b 55 08	 mov	 edx, DWORD PTR tv166[ebp]
  00050	8d 34 19	 lea	 esi, DWORD PTR [ecx+ebx]
  00053	32 04 32	 xor	 al, BYTE PTR [edx+esi]
  00056	41		 inc	 ecx
  00057	88 06		 mov	 BYTE PTR [esi], al
  00059	3b cf		 cmp	 ecx, edi
  0005b	7c d9		 jl	 SHORT $LL3@GetDecText

; 1409 : 	}
; 1410 : 	Line[len] = 0;

  0005d	c6 04 3b 00	 mov	 BYTE PTR [ebx+edi], 0
  00061	5f		 pop	 edi
  00062	5e		 pop	 esi

; 1411 : 	return Line;

  00063	8b c3		 mov	 eax, ebx
  00065	5b		 pop	 ebx

; 1412 : }

  00066	8b e5		 mov	 esp, ebp
  00068	5d		 pop	 ebp
  00069	c2 04 00	 ret	 4
$LN9@GetDecText:

; 1409 : 	}
; 1410 : 	Line[len] = 0;

  0006c	88 0c 3b	 mov	 BYTE PTR [ebx+edi], cl
  0006f	5f		 pop	 edi
  00070	5e		 pop	 esi

; 1411 : 	return Line;

  00071	8b c3		 mov	 eax, ebx
  00073	5b		 pop	 ebx

; 1412 : }

  00074	8b e5		 mov	 esp, ebp
  00076	5d		 pop	 ebp
  00077	c2 04 00	 ret	 4
?GetDecText@CZtLicense@@QAEPADPAD@Z ENDP		; CZtLicense::GetDecText
_TEXT	ENDS
PUBLIC	?SelectLicense@CZtLicense@@QAEXH@Z		; CZtLicense::SelectLicense
; Function compile flags: /Ogtp
;	COMDAT ?SelectLicense@CZtLicense@@QAEXH@Z
_TEXT	SEGMENT
_UserID$ = 8						; size = 4
?SelectLicense@CZtLicense@@QAEXH@Z PROC			; CZtLicense::SelectLicense, COMDAT
; _this$ = ecx

; 1415 : {

  00000	55		 push	 ebp
  00001	8b ec		 mov	 ebp, esp

; 1416 : 	this->ActiveUser = UserID;

  00003	8b 45 08	 mov	 eax, DWORD PTR _UserID$[ebp]
  00006	56		 push	 esi

; 1417 : 	memcpy(&this->user, &this->List[UserID], sizeof(this->user));

  00007	8d 70 02	 lea	 esi, DWORD PTR [eax+2]
  0000a	6b f6 7c	 imul	 esi, 124		; 0000007cH
  0000d	57		 push	 edi
  0000e	03 f1		 add	 esi, ecx
  00010	89 41 04	 mov	 DWORD PTR [ecx+4], eax
  00013	8d 79 7c	 lea	 edi, DWORD PTR [ecx+124]
  00016	b9 1f 00 00 00	 mov	 ecx, 31			; 0000001fH
  0001b	f3 a5		 rep movsd
  0001d	5f		 pop	 edi
  0001e	5e		 pop	 esi

; 1418 : 	return;
; 1419 : }

  0001f	5d		 pop	 ebp
  00020	c2 04 00	 ret	 4
?SelectLicense@CZtLicense@@QAEXH@Z ENDP			; CZtLicense::SelectLicense
_TEXT	ENDS
PUBLIC	??_C@_07NBCGADJA@Unknown?$AA@			; `string'
PUBLIC	?GetLicenseName@CZtLicense@@QAEPADXZ		; CZtLicense::GetLicenseName
;	COMDAT ??_C@_07NBCGADJA@Unknown?$AA@
CONST	SEGMENT
??_C@_07NBCGADJA@Unknown?$AA@ DB 'Unknown', 00H		; `string'
; Function compile flags: /Ogtp
CONST	ENDS
;	COMDAT ?GetLicenseName@CZtLicense@@QAEPADXZ
_TEXT	SEGMENT
?GetLicenseName@CZtLicense@@QAEPADXZ PROC		; CZtLicense::GetLicenseName, COMDAT
; _this$ = ecx

; 1423 : 	if(this->ActiveUser == -1)

  00000	83 79 04 ff	 cmp	 DWORD PTR [ecx+4], -1

; 1424 : 	{
; 1425 : 		return "Unknown";

  00004	b8 00 00 00 00	 mov	 eax, OFFSET ??_C@_07NBCGADJA@Unknown?$AA@
  00009	74 03		 je	 SHORT $LN2@GetLicense

; 1426 : 	}
; 1427 : 
; 1428 : 	return this->user.Login;

  0000b	8d 41 7c	 lea	 eax, DWORD PTR [ecx+124]
$LN2@GetLicense:

; 1429 : }

  0000e	c3		 ret	 0
?GetLicenseName@CZtLicense@@QAEPADXZ ENDP		; CZtLicense::GetLicenseName
_TEXT	ENDS
PUBLIC	?CustomManager@CZtLicense@@QAEXXZ		; CZtLicense::CustomManager
; Function compile flags: /Ogtp
;	COMDAT ?CustomManager@CZtLicense@@QAEXXZ
_TEXT	SEGMENT
?CustomManager@CZtLicense@@QAEXXZ PROC			; CZtLicense::CustomManager, COMDAT
; _this$ = ecx

; 1432 : {

  00000	8b d1		 mov	 edx, ecx

; 1433 : 	#if(CUSTOM_VALUE_MENU)
; 1434 : 	if(/*g_ZtLicense.CheckUser(eZtUB::NSGames) || */g_ZtLicense.CheckUser(eZtUB::Artem) || g_ZtLicense.CheckUser(eZtUB::Artem2) ||
; 1435 : 	   g_ZtLicense.CheckUser(eZtUB::Gredy)	 ||  g_ZtLicense.CheckUser(eZtUB::Gredy2) || g_ZtLicense.CheckUser(eZtUB::GredyLocal) || 
; 1436 : 	   g_ZtLicense.CheckUser(eZtUB::WarBorn))

  00002	6a 30		 push	 48			; 00000030H
  00004	b9 00 00 00 00	 mov	 ecx, OFFSET ?g_ZtLicense@@3VCZtLicense@@A ; g_ZtLicense
  00009	e8 00 00 00 00	 call	 ?CheckUser@CZtLicense@@QAE_NH@Z ; CZtLicense::CheckUser
  0000e	84 c0		 test	 al, al
  00010	75 37		 jne	 SHORT $LN1@CustomMana
  00012	6a 31		 push	 49			; 00000031H
  00014	e8 00 00 00 00	 call	 ?CheckUser@CZtLicense@@QAE_NH@Z ; CZtLicense::CheckUser
  00019	84 c0		 test	 al, al
  0001b	75 2c		 jne	 SHORT $LN1@CustomMana
  0001d	6a 20		 push	 32			; 00000020H
  0001f	e8 00 00 00 00	 call	 ?CheckUser@CZtLicense@@QAE_NH@Z ; CZtLicense::CheckUser
  00024	84 c0		 test	 al, al
  00026	75 21		 jne	 SHORT $LN1@CustomMana
  00028	6a 22		 push	 34			; 00000022H
  0002a	e8 00 00 00 00	 call	 ?CheckUser@CZtLicense@@QAE_NH@Z ; CZtLicense::CheckUser
  0002f	84 c0		 test	 al, al
  00031	75 16		 jne	 SHORT $LN1@CustomMana
  00033	6a 21		 push	 33			; 00000021H
  00035	e8 00 00 00 00	 call	 ?CheckUser@CZtLicense@@QAE_NH@Z ; CZtLicense::CheckUser
  0003a	84 c0		 test	 al, al
  0003c	75 0b		 jne	 SHORT $LN1@CustomMana
  0003e	6a 50		 push	 80			; 00000050H
  00040	e8 00 00 00 00	 call	 ?CheckUser@CZtLicense@@QAE_NH@Z ; CZtLicense::CheckUser
  00045	84 c0		 test	 al, al
  00047	74 0a		 je	 SHORT $LN2@CustomMana
$LN1@CustomMana:

; 1437 : 	{
; 1438 : 		this->m_MultiWarehouseType = 1;

  00049	c7 82 d8 61 00
	00 01 00 00 00	 mov	 DWORD PTR [edx+25048], 1
$LN2@CustomMana:

; 1439 : 	}
; 1440 : 	#endif
; 1441 : }

  00053	c3		 ret	 0
?CustomManager@CZtLicense@@QAEXXZ ENDP			; CZtLicense::CustomManager
_TEXT	ENDS
PUBLIC	?SetCustom@CZtLicense@@QAEXH@Z			; CZtLicense::SetCustom
; Function compile flags: /Ogtp
;	COMDAT ?SetCustom@CZtLicense@@QAEXH@Z
_TEXT	SEGMENT
_ListID$ = 8						; size = 4
?SetCustom@CZtLicense@@QAEXH@Z PROC			; CZtLicense::SetCustom, COMDAT
; _this$ = ecx

; 1444 : {

  00000	8b d1		 mov	 edx, ecx

; 1445 : 	if( !g_ZtLicense.CheckUser(eZtUB::ulasevich) && 
; 1446 : 		!g_ZtLicense.CheckUser(eZtUB::ulasevich2) &&
; 1447 : 		!g_ZtLicense.CheckUser(eZtUB::DavitRazmadze))

  00002	6a 17		 push	 23			; 00000017H
  00004	b9 00 00 00 00	 mov	 ecx, OFFSET ?g_ZtLicense@@3VCZtLicense@@A ; g_ZtLicense
  00009	e8 00 00 00 00	 call	 ?CheckUser@CZtLicense@@QAE_NH@Z ; CZtLicense::CheckUser
  0000e	84 c0		 test	 al, al
  00010	75 20		 jne	 SHORT $LN2@SetCustom
  00012	6a 24		 push	 36			; 00000024H
  00014	e8 00 00 00 00	 call	 ?CheckUser@CZtLicense@@QAE_NH@Z ; CZtLicense::CheckUser
  00019	84 c0		 test	 al, al
  0001b	75 15		 jne	 SHORT $LN2@SetCustom
  0001d	6a 0a		 push	 10			; 0000000aH
  0001f	e8 00 00 00 00	 call	 ?CheckUser@CZtLicense@@QAE_NH@Z ; CZtLicense::CheckUser
  00024	84 c0		 test	 al, al
  00026	75 0a		 jne	 SHORT $LN2@SetCustom

; 1448 : 	{
; 1449 : 		if(this->ActiveUser < 84)

  00028	83 7a 04 54	 cmp	 DWORD PTR [edx+4], 84	; 00000054H
  0002c	0f 8c 96 00 00
	00		 jl	 $LN1@SetCustom
$LN2@SetCustom:

; 1450 : 		{
; 1451 : 			return;
; 1452 : 		}
; 1453 : 	}
; 1454 : 
; 1455 : 
; 1456 : 	this->m_SetCustom = 1;

  00032	b8 01 00 00 00	 mov	 eax, 1
  00037	89 82 dc 61 00
	00		 mov	 DWORD PTR [edx+25052], eax

; 1457 : 
; 1458 : 	//LICENSE_DATA * pList = &List[ListID]; 
; 1459 : 
; 1460 : 	LICENSE_DATA * pList = &this->user;
; 1461 : 
; 1462 : 	pList->Rage					= true;
; 1463 : 	pList->MonsterQuest			= true;

  0003d	c7 82 d0 00 00
	00 01 01 01 01	 mov	 DWORD PTR [edx+208], 16843009 ; 01010101H

; 1464 : 	pList->TvTEvent				= true;
; 1465 : 	pList->GrandHero			= true;
; 1466 : 	pList->PartySystem			= true;
; 1467 : 	pList->PartySearch			= true;

  00047	c7 82 d5 00 00
	00 01 01 01 01	 mov	 DWORD PTR [edx+213], 16843009 ; 01010101H

; 1468 : 	pList->ChatLog				= true;
; 1469 : 	pList->GM_Manager			= true;
; 1470 : 	pList->PerosnalStoreZt		= true;
; 1471 : 	pList->PandoraEvent			= true;

  00051	66 c7 82 d9 00
	00 00 01 01	 mov	 WORD PTR [edx+217], 257	; 00000101H

; 1472 : 	pList->AntiCheatPlus		= true;
; 1473 : 	pList->ComboCustom			= true;

  0005a	66 c7 82 dc 00
	00 00 01 01	 mov	 WORD PTR [edx+220], 257	; 00000101H

; 1474 : 	pList->NpcBuffer			= true;
; 1475 : 	pList->LoraBattle			= true;

  00063	c7 82 df 00 00
	00 01 01 01 01	 mov	 DWORD PTR [edx+223], 16843009 ; 01010101H

; 1476 : 	pList->Smithy				= true;
; 1477 : 	pList->Monster				= true;
; 1478 : 	pList->ItemSmokeEffect		= true;
; 1479 : 	pList->GrandDinamicExp      = true;

  0006d	66 c7 82 e3 00
	00 00 01 01	 mov	 WORD PTR [edx+227], 257	; 00000101H

; 1480 : 	pList->PartySave			= true;
; 1481 : 	pList->OfflineMode			= true;
; 1482 : 	pList->MonsterAttackLife	= true;

  00076	c7 82 e8 00 00
	00 01 01 01 01	 mov	 DWORD PTR [edx+232], 16843009 ; 01010101H

; 1483 : 	pList->bRankItem			= true;
; 1484 : 	pList->RestoreOffMode		= true;
; 1485 : 	pList->MapQuest				= true;
; 1486 : 	pList->bTeamVsTeam2			= true;

  00080	66 c7 82 ec 00
	00 00 01 01	 mov	 WORD PTR [edx+236], 257	; 00000101H

; 1487 : 	pList->bAchievements		= true;
; 1488 : 	pList->PremiumZt			= true;
; 1489 : 	pList->CraftQuestSystem		= true;

  00089	c7 82 ee 00 00
	00 01 01 01 01	 mov	 DWORD PTR [edx+238], 16843009 ; 01010101H
  00093	66 c7 82 cd 00
	00 00 01 01	 mov	 WORD PTR [edx+205], 257	; 00000101H

; 1490 : 	pList->PickUpItemInfo		= true;
; 1491 : 
; 1492 : 	pList->AccSecurity			= true;
; 1493 : 	pList->WinQuest				= true;
; 1494 : 	pList->Brotherhood			= true;

  0009c	88 82 d4 00 00
	00		 mov	 BYTE PTR [edx+212], al
  000a2	66 c7 82 e6 00
	00 00 01 01	 mov	 WORD PTR [edx+230], 257	; 00000101H

; 1495 : 	pList->Marriage				= true;
; 1496 : 
; 1497 : 	this->m_MultiWarehouseType = 1;
; 1498 : 
; 1499 : 	//
; 1500 : 
; 1501 : 	if(g_ZtLicense.CheckUser(eZtUB::Berlin))

  000ab	6a 5b		 push	 91			; 0000005bH
  000ad	b9 00 00 00 00	 mov	 ecx, OFFSET ?g_ZtLicense@@3VCZtLicense@@A ; g_ZtLicense
  000b2	89 82 d8 61 00
	00		 mov	 DWORD PTR [edx+25048], eax
  000b8	e8 00 00 00 00	 call	 ?CheckUser@CZtLicense@@QAE_NH@Z ; CZtLicense::CheckUser
  000bd	84 c0		 test	 al, al
  000bf	74 07		 je	 SHORT $LN1@SetCustom

; 1502 : 	{
; 1503 : 		pList->Smithy = false;

  000c1	c6 82 e0 00 00
	00 00		 mov	 BYTE PTR [edx+224], 0
$LN1@SetCustom:

; 1504 : 	}
; 1505 : 
; 1506 : 	
; 1507 : 
; 1508 : 
; 1509 : 
; 1510 : 	//AccSecurity
; 1511 : 
; 1512 : 	/*
; 1513 : 		Config Interface Chat
; 1514 : 		Config Interface Buff Icon
; 1515 : 		Add Points
; 1516 : 		Reset point
; 1517 : 		Donate Manager
; 1518 : 		Teleport Manager
; 1519 : 		NPC PK Clear
; 1520 : 		Donate Shop
; 1521 : 		Monster Message
; 1522 : 		Dungeon Siege
; 1523 : 		Carnage Event
; 1524 : 		Question Answer
; 1525 : 	*/
; 1526 : }

  000c8	c2 04 00	 ret	 4
?SetCustom@CZtLicense@@QAEXH@Z ENDP			; CZtLicense::SetCustom
_TEXT	ENDS
PUBLIC	?GetCustom@CZtLicense@@QAEHXZ			; CZtLicense::GetCustom
; Function compile flags: /Ogtp
;	COMDAT ?GetCustom@CZtLicense@@QAEHXZ
_TEXT	SEGMENT
?GetCustom@CZtLicense@@QAEHXZ PROC			; CZtLicense::GetCustom, COMDAT
; _this$ = ecx

; 1530 : 	return this->m_SetCustom;

  00000	8b 81 dc 61 00
	00		 mov	 eax, DWORD PTR [ecx+25052]

; 1531 : }

  00006	c3		 ret	 0
?GetCustom@CZtLicense@@QAEHXZ ENDP			; CZtLicense::GetCustom
_TEXT	ENDS
PUBLIC	__$ArrayPad$
PUBLIC	?CheckTime@CZtLicense@@QAE_NHHHH@Z		; CZtLicense::CheckTime
EXTRN	__imp__GetLocalTime@4:PROC
; Function compile flags: /Ogtp
;	COMDAT ?CheckTime@CZtLicense@@QAE_NHHHH@Z
_TEXT	SEGMENT
_t$ = -20						; size = 16
__$ArrayPad$ = -4					; size = 4
_UserID$ = 8						; size = 4
_Year$ = 12						; size = 4
_Month$ = 16						; size = 4
_Day$ = 20						; size = 4
?CheckTime@CZtLicense@@QAE_NHHHH@Z PROC			; CZtLicense::CheckTime, COMDAT
; _this$ = ecx

; 1534 : {

  00000	55		 push	 ebp
  00001	8b ec		 mov	 ebp, esp
  00003	83 ec 14	 sub	 esp, 20			; 00000014H
  00006	a1 00 00 00 00	 mov	 eax, DWORD PTR ___security_cookie
  0000b	33 c5		 xor	 eax, ebp
  0000d	89 45 fc	 mov	 DWORD PTR __$ArrayPad$[ebp], eax

; 1535 : 	if(UserID != this->ActiveUser)

  00010	8b 45 08	 mov	 eax, DWORD PTR _UserID$[ebp]
  00013	3b 41 04	 cmp	 eax, DWORD PTR [ecx+4]

; 1536 : 	{
; 1537 : 		return true;

  00016	75 37		 jne	 SHORT $LN1@CheckTime

; 1538 : 	}
; 1539 : 	
; 1540 : 	SYSTEMTIME t;
; 1541 : 
; 1542 : 	GetLocalTime(&t);

  00018	8d 4d ec	 lea	 ecx, DWORD PTR _t$[ebp]
  0001b	51		 push	 ecx
  0001c	ff 15 00 00 00
	00		 call	 DWORD PTR __imp__GetLocalTime@4

; 1543 : 
; 1544 : 	if(t.wYear >= Year)

  00022	0f b7 55 ec	 movzx	 edx, WORD PTR _t$[ebp]
  00026	3b 55 0c	 cmp	 edx, DWORD PTR _Year$[ebp]
  00029	7c 24		 jl	 SHORT $LN1@CheckTime

; 1545 : 	{
; 1546 : 		if(t.wMonth >= Month)

  0002b	0f b7 45 ee	 movzx	 eax, WORD PTR _t$[ebp+2]
  0002f	3b 45 10	 cmp	 eax, DWORD PTR _Month$[ebp]
  00032	7c 1b		 jl	 SHORT $LN1@CheckTime

; 1547 : 		{
; 1548 : 			if(t.wDay >= Day)

  00034	0f b7 4d f2	 movzx	 ecx, WORD PTR _t$[ebp+6]
  00038	3b 4d 14	 cmp	 ecx, DWORD PTR _Day$[ebp]
  0003b	7c 12		 jl	 SHORT $LN1@CheckTime

; 1549 : 			{
; 1550 : 				return false;

  0003d	32 c0		 xor	 al, al

; 1551 : 			}
; 1552 : 		}
; 1553 : 	}
; 1554 : 
; 1555 : 	return true;
; 1556 : }

  0003f	8b 4d fc	 mov	 ecx, DWORD PTR __$ArrayPad$[ebp]
  00042	33 cd		 xor	 ecx, ebp
  00044	e8 00 00 00 00	 call	 @__security_check_cookie@4
  00049	8b e5		 mov	 esp, ebp
  0004b	5d		 pop	 ebp
  0004c	c2 10 00	 ret	 16			; 00000010H
$LN1@CheckTime:
  0004f	8b 4d fc	 mov	 ecx, DWORD PTR __$ArrayPad$[ebp]
  00052	33 cd		 xor	 ecx, ebp
  00054	b0 01		 mov	 al, 1
  00056	e8 00 00 00 00	 call	 @__security_check_cookie@4
  0005b	8b e5		 mov	 esp, ebp
  0005d	5d		 pop	 ebp
  0005e	c2 10 00	 ret	 16			; 00000010H
?CheckTime@CZtLicense@@QAE_NHHHH@Z ENDP			; CZtLicense::CheckTime
_TEXT	ENDS
PUBLIC	??0CZtLicense@@QAE@XZ				; CZtLicense::CZtLicense
; Function compile flags: /Ogtp
;	COMDAT ??0CZtLicense@@QAE@XZ
_TEXT	SEGMENT
??0CZtLicense@@QAE@XZ PROC				; CZtLicense::CZtLicense, COMDAT
; _this$ = ecx

; 16   : {

  00000	56		 push	 esi
  00001	8b f1		 mov	 esi, ecx
  00003	8d 4e 7c	 lea	 ecx, DWORD PTR [esi+124]
  00006	e8 00 00 00 00	 call	 ??0LICENSE_DATA@@QAE@XZ	; LICENSE_DATA::LICENSE_DATA
  0000b	8d 86 f8 00 00
	00		 lea	 eax, DWORD PTR [esi+248]
  00011	ba c7 00 00 00	 mov	 edx, 199		; 000000c7H
  00016	33 c9		 xor	 ecx, ecx
$LL4@CZtLicense:
  00018	89 08		 mov	 DWORD PTR [eax], ecx
  0001a	89 48 04	 mov	 DWORD PTR [eax+4], ecx
  0001d	89 48 08	 mov	 DWORD PTR [eax+8], ecx
  00020	89 48 0c	 mov	 DWORD PTR [eax+12], ecx
  00023	89 48 10	 mov	 DWORD PTR [eax+16], ecx
  00026	89 48 14	 mov	 DWORD PTR [eax+20], ecx
  00029	88 48 18	 mov	 BYTE PTR [eax+24], cl
  0002c	89 48 19	 mov	 DWORD PTR [eax+25], ecx
  0002f	89 48 1d	 mov	 DWORD PTR [eax+29], ecx
  00032	66 89 48 21	 mov	 WORD PTR [eax+33], cx
  00036	89 48 28	 mov	 DWORD PTR [eax+40], ecx
  00039	89 48 2c	 mov	 DWORD PTR [eax+44], ecx
  0003c	89 48 30	 mov	 DWORD PTR [eax+48], ecx
  0003f	89 48 34	 mov	 DWORD PTR [eax+52], ecx
  00042	66 89 48 38	 mov	 WORD PTR [eax+56], cx
  00046	89 48 3a	 mov	 DWORD PTR [eax+58], ecx
  00049	89 48 3e	 mov	 DWORD PTR [eax+62], ecx
  0004c	89 48 42	 mov	 DWORD PTR [eax+66], ecx
  0004f	89 48 46	 mov	 DWORD PTR [eax+70], ecx
  00052	89 48 24	 mov	 DWORD PTR [eax+36], ecx
  00055	89 48 4c	 mov	 DWORD PTR [eax+76], ecx
  00058	89 48 50	 mov	 DWORD PTR [eax+80], ecx
  0005b	89 48 54	 mov	 DWORD PTR [eax+84], ecx
  0005e	89 48 58	 mov	 DWORD PTR [eax+88], ecx
  00061	66 89 48 5c	 mov	 WORD PTR [eax+92], cx
  00065	88 48 5e	 mov	 BYTE PTR [eax+94], cl
  00068	89 48 60	 mov	 DWORD PTR [eax+96], ecx
  0006b	89 48 64	 mov	 DWORD PTR [eax+100], ecx
  0006e	89 48 68	 mov	 DWORD PTR [eax+104], ecx
  00071	89 48 6c	 mov	 DWORD PTR [eax+108], ecx
  00074	89 48 70	 mov	 DWORD PTR [eax+112], ecx
  00077	89 48 74	 mov	 DWORD PTR [eax+116], ecx
  0007a	66 89 48 78	 mov	 WORD PTR [eax+120], cx
  0007e	88 48 7a	 mov	 BYTE PTR [eax+122], cl
  00081	83 c0 7c	 add	 eax, 124		; 0000007cH
  00084	4a		 dec	 edx
  00085	79 91		 jns	 SHORT $LL4@CZtLicense

; 17   : 	VMBEGIN
; 18   : 	this->Init();

  00087	8b ce		 mov	 ecx, esi
  00089	e8 00 00 00 00	 call	 ?Init@CZtLicense@@QAEXXZ ; CZtLicense::Init

; 19   : 	VMEND
; 20   : }

  0008e	8b c6		 mov	 eax, esi
  00090	5e		 pop	 esi
  00091	c3		 ret	 0
??0CZtLicense@@QAE@XZ ENDP				; CZtLicense::CZtLicense
_TEXT	ENDS
PUBLIC	__$ArrayPad$
PUBLIC	?CheckLicense@CZtLicense@@QAEXXZ		; CZtLicense::CheckLicense
; Function compile flags: /Ogtp
;	COMDAT ?CheckLicense@CZtLicense@@QAEXXZ
_TEXT	SEGMENT
__$ArrayPad$ = -4					; size = 4
?CheckLicense@CZtLicense@@QAEXXZ PROC			; CZtLicense::CheckLicense, COMDAT
; _this$ = ecx

; 1223 : {

  00000	55		 push	 ebp
  00001	8b ec		 mov	 ebp, esp
  00003	51		 push	 ecx
  00004	a1 00 00 00 00	 mov	 eax, DWORD PTR ___security_cookie
  00009	33 c5		 xor	 eax, ebp
  0000b	89 45 fc	 mov	 DWORD PTR __$ArrayPad$[ebp], eax

; 1224 : #if(ZTLICENSE_SELECT)
; 1225 : 	//this->SelectLicense(eZtUB::ulasevich);
; 1226 : 	//this->SelectLicense(eZtUB::Gredy);	
; 1227 : 	//this->SelectLicense(eZtUB::MuPrime);
; 1228 : 	//this->SelectLicense(eZtUB::Thinnakorn);
; 1229 : 	//this->SelectLicense(eZtUB::Berlin);	//48 14
; 1230 : 	//this->SelectLicense(eZtUB::MUCustom);
; 1231 : 	//this->SelectLicense(eZtUB::InfinityMU);
; 1232 : 	//this->SelectLicense(eZtUB::MUDev);
; 1233 : 	//this->SelectLicense(eZtUB::Berlin);
; 1234 : 	//this->SelectLicense(eZtUB::AsteraMU);
; 1235 : 	//this->SelectLicense(eZtUB::SaksonPavel);
; 1236 : 	this->SelectLicense(eZtUB::AlterMU);

  0000e	6a 3e		 push	 62			; 0000003eH
  00010	e8 00 00 00 00	 call	 ?SelectLicense@CZtLicense@@QAEXH@Z ; CZtLicense::SelectLicense

; 1237 : 	//this->SelectLicense(eZtUB::Gredy);
; 1238 : 	
; 1239 : 	return;
; 1240 : #endif
; 1241 : 
; 1242 : #if(THINNAKORN_MAC)
; 1243 : 	strcpy(this->user.Login,		"AllCustom");
; 1244 : 	strcpy(this->user.Password,		"");                                                                                                                                                                                                                                                                                                    
; 1245 : 	this->user.hwid					= 0;
; 1246 : 	this->user.mac[0]				= NULL;
; 1247 : 	this->user.Credit				= 0;
; 1248 : 	this->user.Baned				= true;
; 1249 : 	this->user.Rage					= true;
; 1250 : 	this->user.WinQuest				= false;
; 1251 : 	this->user.BloodHound			= true;
; 1252 : 	this->user.MonsterQuest			= true;
; 1253 : 	this->user.TvTEvent				= true;
; 1254 : 	this->user.GrandHero			= true;
; 1255 : 	this->user.PartySystem			= true;
; 1256 : 	this->user.Brotherhood			= true;
; 1257 : 	this->user.PartySearch			= true;
; 1258 : 	this->user.ChatLog				= true;
; 1259 : 	this->user.GM_Manager			= true;
; 1260 : 	this->user.PerosnalStoreZt		= true;
; 1261 : 	this->user.PandoraEvent			= true;
; 1262 : 	this->user.AntiCheatPlus		= true;
; 1263 : 	this->user.ComboCustom			= true;
; 1264 : 	this->user.NpcBuffer			= true;
; 1265 : 	this->user.BMQuest				= true;
; 1266 : 	this->user.LoraBattle			= true;
; 1267 : 	this->user.Smithy				= true;
; 1268 : 	this->user.Monster				= true;
; 1269 : 	this->user.ItemSmokeEffect		= true;
; 1270 : 	this->user.GrandDinamicExp      = true;
; 1271 : 	this->user.PartySave			= true;
; 1272 : 	this->user.DisableMasterTree	= true;
; 1273 : 	this->user.OfflineMode			= true;
; 1274 : 	this->user.Marriage				= true;
; 1275 : 	this->user.bRankItem			= true;
; 1276 : 	this->user.RestoreOffMode		= true;
; 1277 : 	this->user.MapQuest				= true;
; 1278 : 	this->user.bTeamVsTeam2         = true;
; 1279 : 	this->user.bAchievements		= true;
; 1280 : 
; 1281 : 	return;
; 1282 : #endif
; 1283 : 
; 1284 : #if(LICENSE_EVOMU)
; 1285 : 	this->ActiveUser = eZtUB::Gredy;
; 1286 : 	memcpy(&this->user, &this->List[this->ActiveUser], sizeof(g_ZtLicense.user));
; 1287 : 	return;
; 1288 : #endif
; 1289 : 
; 1290 : 
; 1291 : 	VMBEGIN
; 1292 : 
; 1293 : 	bool Result = false; 
; 1294 : 
; 1295 : 	unsigned char MACData[6];
; 1296 : 	UUID uuid;
; 1297 : 	UuidCreateSequential(&uuid);
; 1298 : 
; 1299 : 	for(int i = 2; i < 8; i++)
; 1300 : 	{
; 1301 : 		MACData[i-2] = uuid.Data4[i];
; 1302 : 	}
; 1303 : 
; 1304 : 	char szMac[18];
; 1305 : 	sprintf(szMac, "%02X-%02X-%02X-%02X-%02X-%02X", MACData[0], MACData[1], MACData[2], MACData[3], MACData[4], MACData[5]);
; 1306 : 
; 1307 : 	for(int i = 0; i < TOTAL_CLIENT; i++)
; 1308 : 	{
; 1309 : 		if(this->List[i].mac[0] != NULL)
; 1310 : 		{
; 1311 : 			if(!strcmp(this->List[i].mac, szMac))
; 1312 : 			{
; 1313 : 				if(this->List[i].Baned)
; 1314 : 				{
; 1315 : 					ExitProcess(0);
; 1316 : 				}
; 1317 : 				this->ActiveUser = i;
; 1318 : 				Result = true;
; 1319 : 				break;
; 1320 : 			}
; 1321 : 		}
; 1322 : 	}
; 1323 : 
; 1324 : 	if(Result == false)
; 1325 : 	{
; 1326 : 		unsigned long HDDKEY;
; 1327 : 		GetVolumeInformationA(this->GetDecText(DISK_DIR),0,0,&HDDKEY,0,0,0,0); 
; 1328 : 
; 1329 : 		for(int i = 0; i < TOTAL_CLIENT; i++)
; 1330 : 		{
; 1331 : 			if(HDDKEY == this->List[i].hwid)
; 1332 : 			{
; 1333 : 				if(this->List[i].Baned)
; 1334 : 				{
; 1335 : 					ExitProcess(0);
; 1336 : 				}
; 1337 : 				this->ActiveUser = i;
; 1338 : 				Result = true;
; 1339 : 				break;
; 1340 : 			}
; 1341 : 		}
; 1342 : 	}
; 1343 : 
; 1344 : 	/*
; 1345 : 	if(!this->CheckTime(NoriaMU, 2020, 8, 17))
; 1346 : 	{
; 1347 : 		Result = false;
; 1348 : 	}
; 1349 : 	*/
; 1350 : 
; 1351 : 	if(!Result)
; 1352 : 	{
; 1353 : 		ExitProcess(0);
; 1354 : 		return;
; 1355 : 	}
; 1356 : 
; 1357 : 	memcpy(&this->user, &this->List[this->ActiveUser], sizeof(g_ZtLicense.user));
; 1358 : 	VMEND
; 1359 : }

  00015	8b 4d fc	 mov	 ecx, DWORD PTR __$ArrayPad$[ebp]
  00018	33 cd		 xor	 ecx, ebp
  0001a	e8 00 00 00 00	 call	 @__security_check_cookie@4
  0001f	8b e5		 mov	 esp, ebp
  00021	5d		 pop	 ebp
  00022	c3		 ret	 0
?CheckLicense@CZtLicense@@QAEXXZ ENDP			; CZtLicense::CheckLicense
_TEXT	ENDS
PUBLIC	__$ArrayPad$
PUBLIC	?GCLicenseUser@CZtLicense@@QAEXH@Z		; CZtLicense::GCLicenseUser
EXTRN	?GC_SettingsSend@CUserConfig@@QAEXH@Z:PROC	; CUserConfig::GC_SettingsSend
EXTRN	?g_UserConfig@@3VCUserConfig@@A:BYTE		; g_UserConfig
EXTRN	?DataSend@@YAHHPAEK@Z:PROC			; DataSend
EXTRN	?g_PersonalShopZt@@3VPersonalShopZt@@A:BYTE	; g_PersonalShopZt
EXTRN	?g_MaxPartyMember@@3HA:DWORD			; g_MaxPartyMember
; Function compile flags: /Ogtp
;	COMDAT ?GCLicenseUser@CZtLicense@@QAEXH@Z
_TEXT	SEGMENT
_rSend$ = -148						; size = 144
__$ArrayPad$ = -4					; size = 4
_aIndex$ = 8						; size = 4
?GCLicenseUser@CZtLicense@@QAEXH@Z PROC			; CZtLicense::GCLicenseUser, COMDAT
; _this$ = ecx

; 1372 : {

  00000	55		 push	 ebp
  00001	8b ec		 mov	 ebp, esp
  00003	81 ec 94 00 00
	00		 sub	 esp, 148		; 00000094H
  00009	a1 00 00 00 00	 mov	 eax, DWORD PTR ___security_cookie
  0000e	33 c5		 xor	 eax, ebp
  00010	89 45 fc	 mov	 DWORD PTR __$ArrayPad$[ebp], eax
  00013	56		 push	 esi
  00014	8b f1		 mov	 esi, ecx
  00016	57		 push	 edi

; 1373 : 	VMBEGIN
; 1374 : 	PMSG_LICENSE_DATA rSend;

  00017	8d 8d 78 ff ff
	ff		 lea	 ecx, DWORD PTR _rSend$[ebp+12]
  0001d	e8 00 00 00 00	 call	 ??0LICENSE_DATA@@QAE@XZ	; LICENSE_DATA::LICENSE_DATA

; 1375 : 	rSend.h.set((LPBYTE)&rSend, 0xFB, 17, sizeof(rSend));
; 1376 : 	rSend.LicenseUser = this->ActiveUser;

  00022	8b 46 04	 mov	 eax, DWORD PTR [esi+4]

; 1377 : 	rSend.LicenseCustom = this->m_SetCustom;

  00025	8b 8e dc 61 00
	00		 mov	 ecx, DWORD PTR [esi+25052]

; 1378 : 	memcpy(&rSend.base, &this->user, sizeof(g_ZtLicense.user));
; 1379 : 	rSend.config.MaxPartyUser = g_MaxPartyMember;

  0002b	0f b6 15 00 00
	00 00		 movzx	 edx, BYTE PTR ?g_MaxPartyMember@@3HA
  00032	89 8d 74 ff ff
	ff		 mov	 DWORD PTR _rSend$[ebp+8], ecx
  00038	89 85 70 ff ff
	ff		 mov	 DWORD PTR _rSend$[ebp+4], eax

; 1380 : 	rSend.config.PersonalEnable = g_PersonalShopZt.Enable;

  0003e	a0 00 00 00 00	 mov	 al, BYTE PTR ?g_PersonalShopZt@@3VPersonalShopZt@@A
  00043	83 c6 7c	 add	 esi, 124		; 0000007cH
  00046	c6 45 f7 00	 mov	 BYTE PTR _rSend$[ebp+139], 0
  0004a	c7 85 6c ff ff
	ff c1 90 fb 11	 mov	 DWORD PTR _rSend$[ebp], 301699265 ; 11fb90c1H
  00054	b9 1f 00 00 00	 mov	 ecx, 31			; 0000001fH
  00059	8d bd 78 ff ff
	ff		 lea	 edi, DWORD PTR _rSend$[ebp+12]
  0005f	f3 a5		 rep movsd

; 1381 : 	rSend.config.PersonalBonus = g_PersonalShopZt.BonusPrice;

  00061	8a 0d 14 00 00
	00		 mov	 cl, BYTE PTR ?g_PersonalShopZt@@3VPersonalShopZt@@A+20

; 1382 : 	rSend.config.PersonalCredit = g_PersonalShopZt.CreditPrice;
; 1383 : 	DataSend(aIndex,(LPBYTE)&rSend,sizeof(rSend));

  00067	8b 75 08	 mov	 esi, DWORD PTR _aIndex$[ebp]
  0006a	88 45 f5	 mov	 BYTE PTR _rSend$[ebp+137], al
  0006d	88 55 f4	 mov	 BYTE PTR _rSend$[ebp+136], dl
  00070	0f b6 15 18 00
	00 00		 movzx	 edx, BYTE PTR ?g_PersonalShopZt@@3VPersonalShopZt@@A+24
  00077	68 90 00 00 00	 push	 144			; 00000090H
  0007c	8d 85 6c ff ff
	ff		 lea	 eax, DWORD PTR _rSend$[ebp]
  00082	50		 push	 eax
  00083	56		 push	 esi
  00084	88 4d f6	 mov	 BYTE PTR _rSend$[ebp+138], cl
  00087	88 55 f8	 mov	 BYTE PTR _rSend$[ebp+140], dl
  0008a	e8 00 00 00 00	 call	 ?DataSend@@YAHHPAEK@Z	; DataSend
  0008f	83 c4 0c	 add	 esp, 12			; 0000000cH

; 1384 : 	g_UserConfig.GC_SettingsSend(aIndex);

  00092	56		 push	 esi
  00093	b9 00 00 00 00	 mov	 ecx, OFFSET ?g_UserConfig@@3VCUserConfig@@A ; g_UserConfig
  00098	e8 00 00 00 00	 call	 ?GC_SettingsSend@CUserConfig@@QAEXH@Z ; CUserConfig::GC_SettingsSend

; 1385 : 	VMEND
; 1386 : }

  0009d	8b 4d fc	 mov	 ecx, DWORD PTR __$ArrayPad$[ebp]
  000a0	5f		 pop	 edi
  000a1	33 cd		 xor	 ecx, ebp
  000a3	5e		 pop	 esi
  000a4	e8 00 00 00 00	 call	 @__security_check_cookie@4
  000a9	8b e5		 mov	 esp, ebp
  000ab	5d		 pop	 ebp
  000ac	c2 04 00	 ret	 4
?GCLicenseUser@CZtLicense@@QAEXH@Z ENDP			; CZtLicense::GCLicenseUser
_TEXT	ENDS
PUBLIC	?Load@CZtLicense@@QAEXXZ			; CZtLicense::Load
; Function compile flags: /Ogtp
;	COMDAT ?Load@CZtLicense@@QAEXXZ
_TEXT	SEGMENT
?Load@CZtLicense@@QAEXXZ PROC				; CZtLicense::Load, COMDAT
; _this$ = ecx

; 49   : {

  00000	56		 push	 esi
  00001	8b f1		 mov	 esi, ecx

; 50   : 	VMBEGIN
; 51   : 	this->Init();

  00003	e8 00 00 00 00	 call	 ?Init@CZtLicense@@QAEXXZ ; CZtLicense::Init

; 52   : 
; 53   : 	if(!this->m_Enable)

  00008	80 7e 01 00	 cmp	 BYTE PTR [esi+1], 0
  0000c	74 1c		 je	 SHORT $LN2@Load

; 54   : 	{
; 55   : 		return;
; 56   : 	}
; 57   : 
; 58   : #if(ZTLICENSE_SERVER)
; 59   : 	g_ZtLicenseClient.Start();
; 60   : 
; 61   : 	int i = 0;
; 62   : 
; 63   : 	while(!g_ZtLicense.m_WaitLicense)
; 64   : 	{
; 65   : 		if(i == 10)
; 66   : 		{
; 67   : 			ExitProcess(0);
; 68   : 		}
; 69   : 		i++;
; 70   : 		Sleep(1000);
; 71   : 	}
; 72   : #else
; 73   : 
; 74   : 	this->AddList();

  0000e	8b ce		 mov	 ecx, esi
  00010	e8 00 00 00 00	 call	 ?AddList@CZtLicense@@QAEXXZ ; CZtLicense::AddList

; 75   : 
; 76   : 	this->CheckLicense();

  00015	e8 00 00 00 00	 call	 ?CheckLicense@CZtLicense@@QAEXXZ ; CZtLicense::CheckLicense

; 77   : 
; 78   : 	this->CustomManager();

  0001a	8b ce		 mov	 ecx, esi
  0001c	e8 00 00 00 00	 call	 ?CustomManager@CZtLicense@@QAEXXZ ; CZtLicense::CustomManager

; 79   : 
; 80   : 	this->SetCustom(0);

  00021	6a 00		 push	 0
  00023	8b ce		 mov	 ecx, esi
  00025	e8 00 00 00 00	 call	 ?SetCustom@CZtLicense@@QAEXH@Z ; CZtLicense::SetCustom
$LN2@Load:
  0002a	5e		 pop	 esi

; 81   : 	
; 82   : #endif
; 83   : 	
; 84   : 
; 85   : 	VMEND
; 86   : }

  0002b	c3		 ret	 0
?Load@CZtLicense@@QAEXXZ ENDP				; CZtLicense::Load
_TEXT	ENDS
EXTRN	_atexit:PROC
; Function compile flags: /Ogtp
;	COMDAT ??__Eg_ZtLicense@@YAXXZ
text$yc	SEGMENT
??__Eg_ZtLicense@@YAXXZ PROC				; `dynamic initializer for 'g_ZtLicense'', COMDAT

; 13   : CZtLicense g_ZtLicense;

  00000	b9 00 00 00 00	 mov	 ecx, OFFSET ?g_ZtLicense@@3VCZtLicense@@A ; g_ZtLicense
  00005	e8 00 00 00 00	 call	 ??0CZtLicense@@QAE@XZ	; CZtLicense::CZtLicense
  0000a	68 00 00 00 00	 push	 OFFSET ??__Fg_ZtLicense@@YAXXZ ; `dynamic atexit destructor for 'g_ZtLicense''
  0000f	e8 00 00 00 00	 call	 _atexit
  00014	59		 pop	 ecx
  00015	c3		 ret	 0
??__Eg_ZtLicense@@YAXXZ ENDP				; `dynamic initializer for 'g_ZtLicense''
; Function compile flags: /Ogtp
text$yc	ENDS
;	COMDAT ??__Fg_ZtLicense@@YAXXZ
text$yd	SEGMENT
??__Fg_ZtLicense@@YAXXZ PROC				; `dynamic atexit destructor for 'g_ZtLicense'', COMDAT
  00000	c3		 ret	 0
??__Fg_ZtLicense@@YAXXZ ENDP				; `dynamic atexit destructor for 'g_ZtLicense''
text$yd	ENDS
PUBLIC	?g_ZtLicense@@3VCZtLicense@@A			; g_ZtLicense
_BSS	SEGMENT
?g_ZtLicense@@3VCZtLicense@@A DB 061e0H DUP (?)		; g_ZtLicense
_BSS	ENDS
CRT$XCU	SEGMENT
_g_ZtLicense$initializer$ DD FLAT:??__Eg_ZtLicense@@YAXXZ
CRT$XCU	ENDS
END
