; Listing generated by Microsoft (R) Optimizing Compiler Version 16.00.30319.01 

	TITLE	E:\work\tranet_version\GS\GameServer\ZtText.cpp
	.686P
	.XMM
	include listing.inc
	.model	flat

INCLUDELIB LIBCMT
INCLUDELIB OLDNAMES

_DATA	SEGMENT
_g_iNpcUpDfLevel_CGATE DD 01H
	DD	02H
	DD	02dc6c0H
	DD	02H
	DD	03H
	DD	02dc6c0H
	DD	03H
	DD	04H
	DD	02dc6c0H
_g_iNpcUpDfLevel_CSTATUE DD 01H
	DD	03H
	DD	02dc6c0H
	DD	02H
	DD	05H
	DD	02dc6c0H
	DD	03H
	DD	07H
	DD	02dc6c0H
_g_iNpcUpMaxHP_CGATE DD 02625a0H
	DD	02H
	DD	0f4240H
	DD	03567e0H
	DD	03H
	DD	0f4240H
	DD	04f5880H
	DD	04H
	DD	0f4240H
_g_iNpcUpMaxHP_CSTATUE DD 02191c0H
	DD	03H
	DD	0f4240H
	DD	033e140H
	DD	05H
	DD	0f4240H
	DD	04c4b40H
	DD	07H
	DD	0f4240H
_g_iNpcUpRgLevel_CSTATUE DD 01H
	DD	03H
	DD	04c4b40H
	DD	02H
	DD	05H
	DD	04c4b40H
	DD	03H
	DD	07H
	DD	04c4b40H
_g_iCsUserReSpawnArea DD 023H
	DD	011H
	DD	090H
	DD	030H
	DD	04aH
	DD	090H
	DD	073H
	DD	09aH
	DD	023H
	DD	011H
	DD	090H
	DD	030H
_g_iNpcDefense_CGATE DD 064H
	DD	0b4H
	DD	012cH
	DD	0208H
_g_iNpcDefense_CSTATUE DD 050H
	DD	0b4H
	DD	0154H
	DD	0226H
_g_iCastleWallStepAxisY DD 071H
	DD	0a0H
	DD	0cbH
_DATA	ENDS
PUBLIC	??_H@YGXPAXIHP6EPAX0@Z@Z			; `vector constructor iterator'
; Function compile flags: /Ogtp
;	COMDAT ??_H@YGXPAXIHP6EPAX0@Z@Z
_TEXT	SEGMENT
___t$ = 8						; size = 4
___s$ = 12						; size = 4
___n$ = 16						; size = 4
___f$ = 20						; size = 4
??_H@YGXPAXIHP6EPAX0@Z@Z PROC				; `vector constructor iterator', COMDAT
  00000	55		 push	 ebp
  00001	8b ec		 mov	 ebp, esp
  00003	57		 push	 edi
  00004	8b 7d 10	 mov	 edi, DWORD PTR ___n$[ebp]
  00007	4f		 dec	 edi
  00008	78 14		 js	 SHORT $LN1@vector
  0000a	53		 push	 ebx
  0000b	8b 5d 14	 mov	 ebx, DWORD PTR ___f$[ebp]
  0000e	56		 push	 esi
  0000f	8b 75 08	 mov	 esi, DWORD PTR ___t$[ebp]
$LL2@vector:
  00012	8b ce		 mov	 ecx, esi
  00014	ff d3		 call	 ebx
  00016	03 75 0c	 add	 esi, DWORD PTR ___s$[ebp]
  00019	4f		 dec	 edi
  0001a	79 f6		 jns	 SHORT $LL2@vector
  0001c	5e		 pop	 esi
  0001d	5b		 pop	 ebx
$LN1@vector:
  0001e	5f		 pop	 edi
  0001f	5d		 pop	 ebp
  00020	c2 10 00	 ret	 16			; 00000010H
??_H@YGXPAXIHP6EPAX0@Z@Z ENDP				; `vector constructor iterator'
_TEXT	ENDS
PUBLIC	??1CZtText@@QAE@XZ				; CZtText::~CZtText
; Function compile flags: /Ogtp
; File e:\work\tranet_version\gs\gameserver\zttext.cpp
;	COMDAT ??1CZtText@@QAE@XZ
_TEXT	SEGMENT
??1CZtText@@QAE@XZ PROC					; CZtText::~CZtText, COMDAT
; _this$ = ecx

; 16   : }

  00000	c3		 ret	 0
??1CZtText@@QAE@XZ ENDP					; CZtText::~CZtText
_TEXT	ENDS
PUBLIC	?Init@CZtText@@QAEXXZ				; CZtText::Init
EXTRN	_memset:PROC
; Function compile flags: /Ogtp
;	COMDAT ?Init@CZtText@@QAEXXZ
_TEXT	SEGMENT
?Init@CZtText@@QAEXXZ PROC				; CZtText::Init, COMDAT
; _this$ = ecx

; 19   : {

  00000	56		 push	 esi

; 20   : 	memset(this->m_Path, 0, sizeof(this->m_Text));

  00001	68 00 fa 00 00	 push	 64000			; 0000fa00H
  00006	8b f1		 mov	 esi, ecx
  00008	6a 00		 push	 0
  0000a	56		 push	 esi
  0000b	e8 00 00 00 00	 call	 _memset

; 21   : 	memset(this->m_Text, 0, sizeof(this->m_Text));

  00010	68 00 fa 00 00	 push	 64000			; 0000fa00H
  00015	6a 00		 push	 0
  00017	83 ee 80	 sub	 esi, -128		; ffffff80H
  0001a	56		 push	 esi
  0001b	e8 00 00 00 00	 call	 _memset
  00020	83 c4 18	 add	 esp, 24			; 00000018H
  00023	5e		 pop	 esi

; 22   : }

  00024	c3		 ret	 0
?Init@CZtText@@QAEXXZ ENDP				; CZtText::Init
_TEXT	ENDS
PUBLIC	?Read@CZtText@@QAEXPAD@Z			; CZtText::Read
; Function compile flags: /Ogtp
;	COMDAT ?Read@CZtText@@QAEXPAD@Z
_TEXT	SEGMENT
_filename$ = 8						; size = 4
?Read@CZtText@@QAEXPAD@Z PROC				; CZtText::Read, COMDAT
; _this$ = ecx

; 32   : {

  00000	55		 push	 ebp
  00001	8b ec		 mov	 ebp, esp
  00003	56		 push	 esi

; 33   : 	memcpy(this->m_Path, filename, sizeof(this->m_Path));

  00004	8b 75 08	 mov	 esi, DWORD PTR _filename$[ebp]
  00007	57		 push	 edi
  00008	8b f9		 mov	 edi, ecx
  0000a	b9 20 00 00 00	 mov	 ecx, 32			; 00000020H
  0000f	f3 a5		 rep movsd
  00011	5f		 pop	 edi
  00012	5e		 pop	 esi

; 34   : }

  00013	5d		 pop	 ebp
  00014	c2 04 00	 ret	 4
?Read@CZtText@@QAEXPAD@Z ENDP				; CZtText::Read
_TEXT	ENDS
PUBLIC	??_C@_06CNKIADGI@ZtTeam?$AA@			; `string'
PUBLIC	??_C@_06PPNIMFKB@Text?$CFd?$AA@			; `string'
PUBLIC	__$ArrayPad$
PUBLIC	?SetText@CZtText@@QAEXHPAD@Z			; CZtText::SetText
EXTRN	__imp__GetPrivateProfileStringA@24:PROC
EXTRN	_sprintf:PROC
EXTRN	___security_cookie:DWORD
EXTRN	@__security_check_cookie@4:PROC
;	COMDAT ??_C@_06CNKIADGI@ZtTeam?$AA@
CONST	SEGMENT
??_C@_06CNKIADGI@ZtTeam?$AA@ DB 'ZtTeam', 00H		; `string'
CONST	ENDS
;	COMDAT ??_C@_06PPNIMFKB@Text?$CFd?$AA@
CONST	SEGMENT
??_C@_06PPNIMFKB@Text?$CFd?$AA@ DB 'Text%d', 00H	; `string'
; Function compile flags: /Ogtp
CONST	ENDS
;	COMDAT ?SetText@CZtText@@QAEXHPAD@Z
_TEXT	SEGMENT
_szTextNumber$ = -260					; size = 256
__$ArrayPad$ = -4					; size = 4
_number$ = 8						; size = 4
_Text$ = 12						; size = 4
?SetText@CZtText@@QAEXHPAD@Z PROC			; CZtText::SetText, COMDAT
; _this$ = ecx

; 310  : {

  00000	55		 push	 ebp
  00001	8b ec		 mov	 ebp, esp
  00003	81 ec 04 01 00
	00		 sub	 esp, 260		; 00000104H
  00009	a1 00 00 00 00	 mov	 eax, DWORD PTR ___security_cookie
  0000e	33 c5		 xor	 eax, ebp
  00010	89 45 fc	 mov	 DWORD PTR __$ArrayPad$[ebp], eax
  00013	53		 push	 ebx
  00014	8b 5d 0c	 mov	 ebx, DWORD PTR _Text$[ebp]
  00017	56		 push	 esi
  00018	8b 75 08	 mov	 esi, DWORD PTR _number$[ebp]
  0001b	57		 push	 edi
  0001c	8b f9		 mov	 edi, ecx

; 311  : 	if(number < 0 || number >= MAX_ZTTEXT)

  0001e	81 fe f3 01 00
	00		 cmp	 esi, 499		; 000001f3H
  00024	77 4f		 ja	 SHORT $LN1@SetText

; 312  : 	{
; 313  : 		return;
; 314  : 	}
; 315  : 
; 316  : 	char szTextNumber[256] = { 0 };

  00026	68 ff 00 00 00	 push	 255			; 000000ffH
  0002b	8d 85 fd fe ff
	ff		 lea	 eax, DWORD PTR _szTextNumber$[ebp+1]
  00031	6a 00		 push	 0
  00033	50		 push	 eax
  00034	c6 85 fc fe ff
	ff 00		 mov	 BYTE PTR _szTextNumber$[ebp], 0
  0003b	e8 00 00 00 00	 call	 _memset

; 317  : 	sprintf(szTextNumber, "Text%d", number);

  00040	56		 push	 esi
  00041	8d 8d fc fe ff
	ff		 lea	 ecx, DWORD PTR _szTextNumber$[ebp]
  00047	68 00 00 00 00	 push	 OFFSET ??_C@_06PPNIMFKB@Text?$CFd?$AA@
  0004c	51		 push	 ecx
  0004d	e8 00 00 00 00	 call	 _sprintf
  00052	83 c4 18	 add	 esp, 24			; 00000018H

; 318  : 	GetPrivateProfileString("ZtTeam", szTextNumber, Text, this->m_Text[number], 128, this->m_Path);

  00055	57		 push	 edi
  00056	46		 inc	 esi
  00057	68 80 00 00 00	 push	 128			; 00000080H
  0005c	c1 e6 07	 shl	 esi, 7
  0005f	03 f7		 add	 esi, edi
  00061	56		 push	 esi
  00062	53		 push	 ebx
  00063	8d 95 fc fe ff
	ff		 lea	 edx, DWORD PTR _szTextNumber$[ebp]
  00069	52		 push	 edx
  0006a	68 00 00 00 00	 push	 OFFSET ??_C@_06CNKIADGI@ZtTeam?$AA@
  0006f	ff 15 00 00 00
	00		 call	 DWORD PTR __imp__GetPrivateProfileStringA@24
$LN1@SetText:

; 319  : }

  00075	8b 4d fc	 mov	 ecx, DWORD PTR __$ArrayPad$[ebp]
  00078	5f		 pop	 edi
  00079	5e		 pop	 esi
  0007a	33 cd		 xor	 ecx, ebp
  0007c	5b		 pop	 ebx
  0007d	e8 00 00 00 00	 call	 @__security_check_cookie@4
  00082	8b e5		 mov	 esp, ebp
  00084	5d		 pop	 ebp
  00085	c2 08 00	 ret	 8
?SetText@CZtText@@QAEXHPAD@Z ENDP			; CZtText::SetText
_TEXT	ENDS
PUBLIC	??_C@_05NAOIJFC@Error?$AA@			; `string'
PUBLIC	?GetText@CZtText@@QAEPADH@Z			; CZtText::GetText
;	COMDAT ??_C@_05NAOIJFC@Error?$AA@
CONST	SEGMENT
??_C@_05NAOIJFC@Error?$AA@ DB 'Error', 00H		; `string'
; Function compile flags: /Ogtp
CONST	ENDS
;	COMDAT ?GetText@CZtText@@QAEPADH@Z
_TEXT	SEGMENT
_number$ = 8						; size = 4
?GetText@CZtText@@QAEPADH@Z PROC			; CZtText::GetText, COMDAT
; _this$ = ecx

; 322  : {

  00000	55		 push	 ebp
  00001	8b ec		 mov	 ebp, esp

; 323  : 	if(number < 0 || number >= MAX_ZTTEXT)

  00003	8b 45 08	 mov	 eax, DWORD PTR _number$[ebp]
  00006	3d f3 01 00 00	 cmp	 eax, 499		; 000001f3H
  0000b	77 0a		 ja	 SHORT $LN1@GetText

; 326  : 	}
; 327  : 
; 328  : 	return this->m_Text[number];

  0000d	40		 inc	 eax
  0000e	c1 e0 07	 shl	 eax, 7
  00011	03 c1		 add	 eax, ecx

; 329  : }

  00013	5d		 pop	 ebp
  00014	c2 04 00	 ret	 4
$LN1@GetText:

; 324  : 	{
; 325  : 		return "Error";

  00017	b8 00 00 00 00	 mov	 eax, OFFSET ??_C@_05NAOIJFC@Error?$AA@

; 329  : }

  0001c	5d		 pop	 ebp
  0001d	c2 04 00	 ret	 4
?GetText@CZtText@@QAEPADH@Z ENDP			; CZtText::GetText
_TEXT	ENDS
PUBLIC	??0CZtText@@QAE@XZ				; CZtText::CZtText
; Function compile flags: /Ogtp
;	COMDAT ??0CZtText@@QAE@XZ
_TEXT	SEGMENT
??0CZtText@@QAE@XZ PROC					; CZtText::CZtText, COMDAT
; _this$ = ecx

; 10   : {

  00000	56		 push	 esi
  00001	8b f1		 mov	 esi, ecx

; 11   : 	this->Init();

  00003	e8 00 00 00 00	 call	 ?Init@CZtText@@QAEXXZ	; CZtText::Init

; 12   : }

  00008	8b c6		 mov	 eax, esi
  0000a	5e		 pop	 esi
  0000b	c3		 ret	 0
??0CZtText@@QAE@XZ ENDP					; CZtText::CZtText
_TEXT	ENDS
PUBLIC	??_C@_0BB@KBHFEEDO@?$FLMax?5GReset?$FN?3?5?$CFd?$AA@ ; `string'
PUBLIC	??_C@_0BA@MEJNHEPC@?$FLMax?5Reset?$FN?3?5?$CFd?$AA@ ; `string'
PUBLIC	??_C@_0BC@MBMKDKDE@?$FLNeed?5Goblin?$FN?3?5?$CFd?$AA@ ; `string'
PUBLIC	??_C@_0BC@MKENDDB@?$FLNeed?5WCoinP?$FN?3?5?$CFd?$AA@ ; `string'
PUBLIC	??_C@_0BC@FKJCFFGC@?$FLNeed?5WCoinC?$FN?3?5?$CFd?$AA@ ; `string'
PUBLIC	??_C@_0BC@OJOICOKF@?$FLNeed?5ZtCred?$FN?3?5?$CFd?$AA@ ; `string'
PUBLIC	??_C@_0P@JOEEOEIN@?$FLNeed?5Zen?$FN?3?5?$CFd?$AA@ ; `string'
PUBLIC	??_C@_0BH@KHMLGCFI@?$FLNeed?5Premium?$FN?3?5Status?$AA@ ; `string'
PUBLIC	??_C@_0BP@KMDIOMJA@?$FLNeed?5Premium?$FN?3?5Status?5?$CFd?5rank?$AA@ ; `string'
PUBLIC	??_C@_0BC@CHJAHMDJ@?$FLNeed?5GReset?$FN?3?5?$CFd?$AA@ ; `string'
PUBLIC	??_C@_0BB@PCHHKHCC@?$FLNeed?5Reset?$FN?3?5?$CFd?$AA@ ; `string'
PUBLIC	??_C@_0BB@BAFBNPAJ@?$FLNeed?5Level?$FN?3?5?$CFd?$AA@ ; `string'
PUBLIC	??_C@_0BG@EEMGHGE@?$FLDrop?5Event?$FN?5Started?$CB?$AA@ ; `string'
PUBLIC	??_C@_09FMDNBLPI@No?5Jewels?$AA@		; `string'
PUBLIC	??_C@_0BI@HBMDNHJN@?$EA?$FLPREMIUM?$FN?5Time?5is?5over?$AA@ ; `string'
PUBLIC	??_C@_0BD@KMCMCOAB@?$EA?$FLPREMIUM?$FN?5Min?3?5?$CFd?$AA@ ; `string'
PUBLIC	??_C@_0BK@NBMNNEF@?$EA?$FLPREMIUM?$FN?5Defence?3?5?$CL?$CFd?$CF?$CF?$AA@ ; `string'
PUBLIC	??_C@_0CA@BMNDND@?$EA?$FLPREMIUM?$FN?5Wizard?5Damage?3?5?$CL?$CFd?$CF?$CF?$AA@ ; `string'
PUBLIC	??_C@_0BJ@HMOBPEHA@?$EA?$FLPREMIUM?$FN?5Damage?3?5?$CL?$CFd?$CF?$CF?$AA@ ; `string'
PUBLIC	??_C@_0BL@NDFEDM@?$EA?$FLPREMIUM?$FN?5Drop?5Zen?3?5?$CL?$CFd?$CF?$CF?$AA@ ; `string'
PUBLIC	??_C@_0BN@JJILFFBN@?$EA?$FLPREMIUM?$FN?5Experience?3?5?$CL?$CFd?$CF?$CF?$AA@ ; `string'
PUBLIC	??_C@_06JOGMAFMB@GM?5Map?$AA@			; `string'
PUBLIC	??_C@_0CE@IDHHPCBO@?$FLOffExp?$FN?5Works?5just?5outside?5of?5t@ ; `string'
PUBLIC	??_C@_0BI@CGJMHIKF@?$FLOffExp?$FN?5Need?5?$CFd?5Goblin?$AA@ ; `string'
PUBLIC	??_C@_0BI@LKOIBIFN@?$FLOffExp?$FN?5Need?5?$CFd?5WCoinP?$AA@ ; `string'
PUBLIC	??_C@_0BI@NLAHFJMP@?$FLOffExp?$FN?5Need?5?$CFd?5WCoinC?$AA@ ; `string'
PUBLIC	??_C@_0BI@KKCCEDNH@?$FLOffExp?$FN?5Need?5?$CFd?5Credit?$AA@ ; `string'
PUBLIC	??_C@_0BF@MAMJKDIJ@?$FLOffExp?$FN?5Need?5?$CFd?5Zen?$AA@ ; `string'
PUBLIC	??_C@_0BB@BDLKINPJ@?$FLBuy?$FN?5?$CFd?5Credits?$AA@ ; `string'
PUBLIC	??_C@_0P@HJIHFOLJ@?$FLBuy?$FN?5?$CFd?5Wcoin?$AA@ ; `string'
PUBLIC	??_C@_0BG@FKEOOLNJ@?$FLBuy?$FN?5Need?5?$CFd?5Credits?$AA@ ; `string'
PUBLIC	??_C@_0BE@EOJKDIHI@?$FLBuy?$FN?5Need?5?$CFd?5Bonus?$AA@ ; `string'
PUBLIC	??_C@_09FLDHBEND@Karutan?52?$AA@		; `string'
PUBLIC	??_C@_07OCAFKKPM@Karutan?$AA@			; `string'
PUBLIC	??_C@_0N@PNCDMAOA@Loren?5Market?$AA@		; `string'
PUBLIC	??_C@_0L@HHAFLHHC@Imperial?54?$AA@		; `string'
PUBLIC	??_C@_0L@DIEECBLF@Imperial?53?$AA@		; `string'
PUBLIC	??_C@_0L@CBFPBAPE@Imperial?52?$AA@		; `string'
PUBLIC	??_C@_0L@KHCEDDH@Imperial?51?$AA@		; `string'
PUBLIC	??_C@_0O@KEFHLJKC@Double?5Goer?54?$AA@		; `string'
PUBLIC	??_C@_0O@OLBGCPGF@Double?5Goer?53?$AA@		; `string'
PUBLIC	??_C@_0O@PCANBOCE@Double?5Goer?52?$AA@		; `string'
PUBLIC	??_C@_0O@NJCAENOH@Double?5Goer?51?$AA@		; `string'
PUBLIC	??_C@_0M@EAGBBPA@Vulcan?5Room?$AA@		; `string'
PUBLIC	??_C@_06LOEDEFOB@Vulcan?$AA@			; `string'
PUBLIC	??_C@_0L@NJMBKLOB@Santa?5Town?$AA@		; `string'
PUBLIC	??_C@_0N@KEHJEJIE@Raklion?5Boss?$AA@		; `string'
PUBLIC	??_C@_07GADFIEBE@Raklion?$AA@			; `string'
PUBLIC	??_C@_0BC@BMNEEACA@Swamp?5Of?5Calmness?$AA@	; `string'
PUBLIC	??_C@_0P@DAEACODP@Devil?5Squere?57?$AA@		; `string'
PUBLIC	??_C@_0P@KDANNKKM@Chaos?5Castle?57?$AA@		; `string'
PUBLIC	??_C@_0P@PJOJEPGI@Blood?5Castle?58?$AA@		; `string'
PUBLIC	??_C@_07OBGILBCL@Elblend?$AA@			; `string'
PUBLIC	??_C@_0BC@CIODICBO@Illusion?5Temple?56?$AA@	; `string'
PUBLIC	??_C@_0BC@DMONBNN@Illusion?5Temple?55?$AA@	; `string'
PUBLIC	??_C@_0BC@BKNFOAJM@Illusion?5Temple?54?$AA@	; `string'
PUBLIC	??_C@_0BC@FFJEHGFL@Illusion?5Temple?53?$AA@	; `string'
PUBLIC	??_C@_0BC@EMIPEHBK@Illusion?5Temple?52?$AA@	; `string'
PUBLIC	??_C@_0BC@GHKCBENJ@Illusion?5Temple?51?$AA@	; `string'
PUBLIC	??_C@_0O@PEMOBAPG@Balgas?5Refuge?$AA@		; `string'
PUBLIC	??_C@_0O@FHBIHDBH@Balgas?5Baraks?$AA@		; `string'
PUBLIC	??_C@_0N@BKFGNFED@Kanturu?5Boss?$AA@		; `string'
PUBLIC	??_C@_0O@PBLCAFMO@Kanturu?5Relic?$AA@		; `string'
PUBLIC	??_C@_07KEJLPAHK@Kanturu?$AA@			; `string'
PUBLIC	??_C@_08HAOPGLOD@Kalima?57?$AA@			; `string'
PUBLIC	??_C@_08PFNMNIFL@Cry?5Wolf?$AA@			; `string'
PUBLIC	??_C@_04CJFIPIII@Aida?$AA@			; `string'
PUBLIC	??_C@_0O@PCDCCCEO@Land?5Of?5Trial?$AA@		; `string'
PUBLIC	??_C@_06NHLAJDOI@Castle?$AA@			; `string'
PUBLIC	??_C@_08GJPEFKKC@Kalima?56?$AA@			; `string'
PUBLIC	??_C@_08ECNJAJGB@Kalima?55?$AA@			; `string'
PUBLIC	??_C@_08FLMCDICA@Kalima?54?$AA@			; `string'
PUBLIC	??_C@_08BEIDKOOH@Kalima?53?$AA@			; `string'
PUBLIC	??_C@_08NJIJPKG@Kalima?52?$AA@			; `string'
PUBLIC	??_C@_08CGLFMMGF@Kalima?51?$AA@			; `string'
PUBLIC	??_C@_0P@LKBGOLON@Chaos?5Castle?56?$AA@		; `string'
PUBLIC	??_C@_0P@JBDLLICO@Chaos?5Castle?55?$AA@		; `string'
PUBLIC	??_C@_0P@IICAIJGP@Chaos?5Castle?54?$AA@		; `string'
PUBLIC	??_C@_0P@MHGBBPKI@Chaos?5Castle?53?$AA@		; `string'
PUBLIC	??_C@_0P@NOHKCOOJ@Chaos?5Castle?52?$AA@		; `string'
PUBLIC	??_C@_0P@PFFHHNCK@Chaos?5Castle?51?$AA@		; `string'
PUBLIC	??_C@_0P@HOHBFDKH@Blood?5Castle?57?$AA@		; `string'
PUBLIC	??_C@_0P@GHGKGCOG@Blood?5Castle?56?$AA@		; `string'
PUBLIC	??_C@_0P@EMEHDBCF@Blood?5Castle?55?$AA@		; `string'
PUBLIC	??_C@_0P@FFFMAAGE@Blood?5Castle?54?$AA@		; `string'
PUBLIC	??_C@_0P@BKBNJGKD@Blood?5Castle?53?$AA@		; `string'
PUBLIC	??_C@_0P@DAGKHOC@Blood?5Castle?52?$AA@		; `string'
PUBLIC	??_C@_0P@CICLPECB@Blood?5Castle?51?$AA@		; `string'
PUBLIC	??_C@_06OCMNLLL@Icarus?$AA@			; `string'
PUBLIC	??_C@_0M@DFALAJPK@DevilSquare?$AA@		; `string'
PUBLIC	??_C@_06KLPPBFEJ@Tarkan?$AA@			; `string'
PUBLIC	??_C@_06IJFPNHKO@Atlans?$AA@			; `string'
PUBLIC	??_C@_05DLHMIPMH@Arena?$AA@			; `string'
PUBLIC	??_C@_09IFBHMHO@LostTower?$AA@			; `string'
PUBLIC	??_C@_05JKNLBHIC@Noria?$AA@			; `string'
PUBLIC	??_C@_06PHFFMJMG@Devias?$AA@			; `string'
PUBLIC	??_C@_07CELLBLHP@Dungeon?$AA@			; `string'
PUBLIC	??_C@_08DPCEMNDG@Lorencia?$AA@			; `string'
PUBLIC	??_C@_0BK@BDHNBLOG@?$FLJewelsBank?$FN?5Recv?5?$CFd?5Life?$AA@ ; `string'
PUBLIC	??_C@_0BI@MHFJLCGA@?$FLJewelsBank?$FN?5No?5?$CFd?5Life?$AA@ ; `string'
PUBLIC	??_C@_0BK@BLAEOCAJ@?$FLJewelsBank?$FN?5Recv?5?$CFd?5Soul?$AA@ ; `string'
PUBLIC	??_C@_0BI@MPCAELIP@?$FLJewelsBank?$FN?5No?5?$CFd?5Soul?$AA@ ; `string'
PUBLIC	??_C@_0BL@LFJMIOEP@?$FLJewelsBank?$FN?5Recv?5?$CFd?5Bless?$AA@ ; `string'
PUBLIC	??_C@_0BJ@LBJDIMPD@?$FLJewelsBank?$FN?5No?5?$CFd?5Bless?$AA@ ; `string'
PUBLIC	??_C@_0BL@BBBODGGJ@?$FLJewelsBank?$FN?5Recv?5?$CFd?5Chaos?$AA@ ; `string'
PUBLIC	??_C@_0BK@KJOAAKB@?$FLJewelsBank?$FN?5Inventory?5?$CFd?$AA@ ; `string'
PUBLIC	??_C@_0BJ@BFBBDENF@?$FLJewelsBank?$FN?5No?5?$CFd?5Chaos?$AA@ ; `string'
PUBLIC	??_C@_0BK@CGCENOLB@?$FLJewelsBank?$FN?5Send?5?$CFd?5Life?$AA@ ; `string'
PUBLIC	??_C@_0BK@PGCOJPFB@?$FLJewelsBank?$FN?5Need?5?$CFd?5Life?$AA@ ; `string'
PUBLIC	??_C@_0BK@COFNCHFO@?$FLJewelsBank?$FN?5Send?5?$CFd?5Soul?$AA@ ; `string'
PUBLIC	??_C@_0BK@POFHGGLO@?$FLJewelsBank?$FN?5Need?5?$CFd?5Soul?$AA@ ; `string'
PUBLIC	??_C@_0BL@EAKGBDNN@?$FLJewelsBank?$FN?5Send?5?$CFd?5Bless?$AA@ ; `string'
PUBLIC	??_C@_0BL@OAHMPLOE@?$FLJewelsBank?$FN?5Need?5?$CFd?5Bless?$AA@ ; `string'
PUBLIC	??_C@_0BL@OECEKLPL@?$FLJewelsBank?$FN?5Send?5?$CFd?5Chaos?$AA@ ; `string'
PUBLIC	??_C@_0BL@EEPOEDMC@?$FLJewelsBank?$FN?5Need?5?$CFd?5Chaos?$AA@ ; `string'
PUBLIC	??_C@_0O@IMAIFDDM@?1recvlifebank?$AA@		; `string'
PUBLIC	??_C@_0O@EICHAAIA@?1recvsoulbank?$AA@		; `string'
PUBLIC	??_C@_0P@KGLHGEAA@?1recvblessbank?$AA@		; `string'
PUBLIC	??_C@_0P@DAKNKGHC@?1recvchaosbank?$AA@		; `string'
PUBLIC	??_C@_0O@LJFBJGGL@?1sendlifebank?$AA@		; `string'
PUBLIC	??_C@_0O@HNHOMFNH@?1sendsoulbank?$AA@		; `string'
PUBLIC	??_C@_0P@FDINPJJC@?1sendblessbank?$AA@		; `string'
PUBLIC	??_C@_0P@MFJHDLOA@?1sendchaosbank?$AA@		; `string'
PUBLIC	??_C@_08DFICILBJ@?1offlife?$AA@			; `string'
PUBLIC	??_C@_08DNPLHCPG@?1offsoul?$AA@			; `string'
PUBLIC	??_C@_09JILIJOFC@?1offbless?$AA@		; `string'
PUBLIC	??_C@_09DMDKCGHE@?1offchaos?$AA@		; `string'
PUBLIC	??_C@_0L@BMECOBJ@?1offgoblin?$AA@		; `string'
PUBLIC	??_C@_0L@PJIGPHF@?1offwcoinp?$AA@		; `string'
PUBLIC	??_C@_0L@GOHHCOOH@?1offwcoinc?$AA@		; `string'
PUBLIC	??_C@_0L@INHKBFGL@?1offcredit?$AA@		; `string'
PUBLIC	??_C@_07LOEKANNA@?1offzen?$AA@			; `string'
PUBLIC	??_C@_0BG@HHGJIIOJ@?$FLPkClear?$FN?5Need?5?$CFd?5Zen?$AA@ ; `string'
PUBLIC	??_C@_0BI@KLKJIHEI@?$FLPkClear?$FN?5Need?5?$CFd?5Level?$AA@ ; `string'
PUBLIC	??_C@_0BE@BKBFMADO@?$FLAdd?$FN?5Need?5?$CFd?5level?$AA@ ; `string'
PUBLIC	??_C@_0BC@GEGHIIJH@?$FLAdd?$FN?5Need?5?$CFd?5zen?$AA@ ; `string'
PUBLIC	??_C@_0BP@LBHMNDCK@?$FLChange?5Class?$FN?3?5Need?5?$CFd?5Credit?$AA@ ; `string'
PUBLIC	??_C@_0CJ@LADKEPDC@?$FLChange?5Class?$FN?3?5You?5need?5Empty?5I@ ; `string'
PUBLIC	??_C@_0CD@KGGNMMG@?$FLCredit?5Donate?$FN?3?5Sell?5?$CF?42f?5Credi@ ; `string'
PUBLIC	??_C@_0CE@GBGJMDIH@?$FLCredit?5Donate?$FN?3?5Buy?3?5?$CFs?0?5Price?3@ ; `string'
PUBLIC	??_C@_0CB@OOHAKKEO@?$FLCredit?5Donate?$FN?3?5Need?5?$CFd?5Credits@ ; `string'
PUBLIC	??_C@_0DN@GJKGEGIC@?$FLCredit?5Donate?$FN?3?5Need?5to?5make?5sp@ ; `string'
PUBLIC	??_C@_0CE@FPHGEDKP@?$FLCredit?5Donate?$FN?3Buy?5Premium?5Need@ ; `string'
PUBLIC	??_C@_0CD@OPBOIPPI@?$FLCredit?5Donate?$FN?3Buy?5Goblin?5Need?5@ ; `string'
PUBLIC	??_C@_0CL@DPCNHNIA@?$FLCredit?5Donate?$FN?3Buy?5Goblin?5Multi@ ; `string'
PUBLIC	??_C@_0CF@IBIBCJGE@?$FLCredit?5Donate?$FN?3Buy?5Wcoin?$CIP?$CJ?5Nee@ ; `string'
PUBLIC	??_C@_0CN@KJELFHNA@?$FLCredit?5Donate?$FN?3Buy?5Wcoin?$CIP?$CJ?5Mul@ ; `string'
PUBLIC	??_C@_0CC@KIFIBJEP@?$FLCredit?5Donate?$FN?3Buy?5Wcoin?5Need?5?$CF@ ; `string'
PUBLIC	??_C@_0CK@FMNEIMBA@?$FLCredit?5Donate?$FN?3Buy?5Wcoin?5Multip@ ; `string'
PUBLIC	??_C@_0CD@MKHEPPBN@?$FLMonster?5Bonus?$FN?3?5?$CL?$CFd?5Goblin?5Poin@ ; `string'
PUBLIC	??_C@_0BM@OBHKPNPP@?$FLMonster?5Bonus?$FN?3?5?$CL?$CFd?5WcoinP?$AA@ ; `string'
PUBLIC	??_C@_0BM@IAJFLMGN@?$FLMonster?5Bonus?$FN?3?5?$CL?$CFd?5WcoinC?$AA@ ; `string'
PUBLIC	??_C@_0BN@OLDBCGLM@?$FLMonster?5Bonus?$FN?3?5?$CL?$CFd?5Credits?$AA@ ; `string'
PUBLIC	??_C@_0BJ@FNBNDKKL@?$EA?$FL?$CFs?$FN?3?5Goblin?5Points?5?$CFd?$CB?$AA@ ; `string'
PUBLIC	??_C@_0BC@DIEIONHB@?$EA?$FL?$CFs?$FN?3?5WCoinP?5?$CFd?$CB?$AA@ ; `string'
PUBLIC	??_C@_0BC@LNAKJNEE@?$EA?$FL?$CFs?$FN?3?5WCoinC?5?$CFd?$CB?$AA@ ; `string'
PUBLIC	??_C@_0BC@KBALHELM@?$EA?$FL?$CFs?$FN?3?5ZtCred?5?$CFd?$CB?$AA@ ; `string'
PUBLIC	??_C@_0BG@MANINCDG@?$EA?$FL?$CFs?$FN?3?5FreePoints?5?$CFd?$CB?$AA@ ; `string'
PUBLIC	??_C@_0BN@LLEFKEPK@?$EA?$FL?$CFs?$FN?3?5Mission?5accomplished?$CB?$AA@ ; `string'
PUBLIC	??_C@_0BD@DALIAMPI@?$EA?$FL?$CFs?$FN?3?5Mission?3?5?$CFd?$AA@ ; `string'
PUBLIC	??_C@_0BK@GLEDHAJM@?$FLHappy?5Hour?$FN?5Event?5Close?$CB?$AA@ ; `string'
PUBLIC	??_C@_0CJ@MDEEPFFJ@?$FLHappy?5Hour?$FN?5Exp?3?5?$CL?$CFd?$CF?$CF?$CF?$CF?5Drop?3?5@ ; `string'
PUBLIC	??_C@_0BM@JPLLBIDJ@?$FLHappy?5Hour?$FN?5Event?5Started?$CB?$AA@ ; `string'
PUBLIC	??_C@_0BC@FHHCMEHD@?$FLEvangelion?$FN?5End?$CB?$AA@ ; `string'
PUBLIC	??_C@_0BK@NFIPBKLM@?$FLEvangelion?$FN?5In?5Lorencia?$CB?$AA@ ; `string'
PUBLIC	??_C@_0BM@BFEGMEHA@?$FLEvangelion?$FN?5Devias?5Win?5?$CFs?$CB?$AA@ ; `string'
PUBLIC	??_C@_0BI@OBOMMEGL@?$FLEvangelion?$FN?5In?5Devias?$CB?$AA@ ; `string'
PUBLIC	??_C@_0BL@DFMNOIC@?$FLEvangelion?$FN?5Noria?5Win?5?$CFs?$CB?$AA@ ; `string'
PUBLIC	??_C@_0BH@NGNDIGCL@?$FLEvangelion?$FN?5In?5Noria?$CB?$AA@ ; `string'
PUBLIC	??_C@_0BO@JENKFAJA@?$FLEvangelion?$FN?5Lorencia?5Win?5?$CFs?$CB?$AA@ ; `string'
PUBLIC	??_C@_0BM@CGIKKGMH@?$HO?$FLCredit?$FN?3?5Online?5Bonus?3?5?$CFd?$AA@ ; `string'
PUBLIC	??_C@_0BM@JNEHDAID@?$HO?$FLGoblin?$FN?3?5Online?5Bonus?3?5?$CFd?$AA@ ; `string'
PUBLIC	??_C@_0BM@JLLGHFCO@?$HO?$FLWCoinP?$FN?3?5Online?5Bonus?3?5?$CFd?$AA@ ; `string'
PUBLIC	??_C@_0BM@KLEMOFCB@?$HO?$FLWCoinC?$FN?3?5Online?5Bonus?3?5?$CFd?$AA@ ; `string'
PUBLIC	??_C@_0BG@GJDHCBJN@?$FLBuy?$FN?5Price?5?$CFd?5Goblin?$AA@ ; `string'
PUBLIC	??_C@_0BF@OIGNJAK@?$FLBuy?$FN?5Need?5?$CFd?5Goblin?$AA@ ; `string'
PUBLIC	??_C@_0BF@JCPCLJPC@?$FLBuy?$FN?5Need?5?$CFd?5WCoinP?$AA@ ; `string'
PUBLIC	??_C@_0BG@JEKMAAPH@?$FLBuy?$FN?5Price?5?$CFd?5WCoinC?$AA@ ; `string'
PUBLIC	??_C@_0BF@PDBNPIGA@?$FLBuy?$FN?5Need?5?$CFd?5WCoinC?$AA@ ; `string'
PUBLIC	??_C@_0BG@OFIJBKOP@?$FLBuy?$FN?5Price?5?$CFd?5Credit?$AA@ ; `string'
PUBLIC	??_C@_0BF@ICDIOCHI@?$FLBuy?$FN?5Need?5?$CFd?5Credit?$AA@ ; `string'
PUBLIC	??_C@_0BC@GHOMDOGB@?$FLBuy?$FN?5Need?5?$CFd?5Zen?$AA@ ; `string'
PUBLIC	??_C@_0BF@BBLCPHHL@Max?5Zen?5In?5Inventory?$AA@	; `string'
PUBLIC	??_C@_0BL@DLGFFCMG@In?5?$CFs?5Max?5Zen?5In?5Inventory?$AA@ ; `string'
PUBLIC	??_C@_0BN@EKEIPIHO@?$FLOffTrade?$FN?5Need?5?$CFd?5Life?5Bank?$AA@ ; `string'
PUBLIC	??_C@_0BN@IIFLCIIK@?$FLOffTrade?$FN?5Need?5?$CFd?5Soul?5Bank?$AA@ ; `string'
PUBLIC	??_C@_0BO@IJDAJIJG@?$FLOffTrade?$FN?5Need?5?$CFd?5Bless?5Bank?$AA@ ; `string'
PUBLIC	??_C@_0BO@DHKNJCEE@?$FLOffTrade?$FN?5Need?5?$CFd?5Chaos?5Bank?$AA@ ; `string'
PUBLIC	??_C@_0BK@DKJMKJFO@?$FLOffTrade?$FN?5Need?5?$CFd?5WCoinG?$AA@ ; `string'
PUBLIC	??_C@_0BK@DPBPCNMI@?$FLOffTrade?$FN?5Need?5?$CFd?5WCoinP?$AA@ ; `string'
PUBLIC	??_C@_0BK@FOPAGMFK@?$FLOffTrade?$FN?5Need?5?$CFd?5WCoinC?$AA@ ; `string'
PUBLIC	??_C@_0BL@NCOFGJCD@?$FLOffTrade?$FN?5Need?5?$CFd?5PcPoint?$AA@ ; `string'
PUBLIC	??_C@_0CC@LHBNDNI@?$FLOffTrade?$FN?5work?5only?5special?5map@ ; `string'
PUBLIC	??_C@_0BF@MIALOGLA@?$FL?$CFs?$FN?$FL?$CFs?$FN?5Loren?5?$CFd?5?$CFd?$AA@ ; `string'
PUBLIC	??_C@_0BH@LBAPANHP@?$FL?$CFs?$FN?$FL?$CFs?$FN?5Emblend?5?$CFd?5?$CFd?$AA@ ; `string'
PUBLIC	??_C@_0BF@BLCEJJJH@?$FL?$CFs?$FN?$FL?$CFs?$FN?5Noria?5?$CFd?5?$CFd?$AA@ ; `string'
PUBLIC	??_C@_0BG@KJDAJKBP@?$FL?$CFs?$FN?$FL?$CFs?$FN?5Devias?5?$CFd?5?$CFd?$AA@ ; `string'
PUBLIC	??_C@_0BI@MAEGLEHI@?$FL?$CFs?$FN?$FL?$CFs?$FN?5Lorencia?5?$CFd?5?$CFd?$AA@ ; `string'
PUBLIC	??_C@_0BA@GPOPIKKI@?4?3?3LIFE?5SHOP?3?3?4?$AA@	; `string'
PUBLIC	??_C@_0BA@NIKENFKH@?4?3?3SOUL?5SHOP?3?3?4?$AA@	; `string'
PUBLIC	??_C@_0BB@DOAHPBOB@?4?3?3BLESS?5SHOP?3?3?4?$AA@	; `string'
PUBLIC	??_C@_0BB@MEFLBHHC@?4?3?3CHAOS?5SHOP?3?3?4?$AA@	; `string'
PUBLIC	??_C@_0BC@ECPKDNH@?4?3?3GOBLIN?5SHOP?3?3?4?$AA@	; `string'
PUBLIC	??_C@_0BE@BFOPECO@?4?3?3WCOIN?$CIP?$CJ?5SHOP?3?3?4?$AA@ ; `string'
PUBLIC	??_C@_0BB@IPFIAIKD@?4?3?3WCOIN?5SHOP?3?3?4?$AA@	; `string'
PUBLIC	??_C@_0BC@BEOIOLAE@?4?3?3CREDIT?5SHOP?3?3?4?$AA@ ; `string'
PUBLIC	??_C@_0P@KNLBLEED@?4?3?3ZEN?5SHOP?3?3?4?$AA@	; `string'
PUBLIC	??_C@_0CH@IHHOOGEB@?$FLOffline?5Trade?$FN?5work?5only?5specia@ ; `string'
PUBLIC	??_C@_0BL@FNOCMMHI@?$FLOffTrade?$FN?$FL?$CFs?$FN?5Loren?5?$CFd?5?$CFd?$AA@ ; `string'
PUBLIC	??_C@_0BN@GJJHAMAG@?$FLOffTrade?$FN?$FL?$CFs?$FN?5Emblend?5?$CFd?5?$CFd?$AA@ ; `string'
PUBLIC	??_C@_0BL@IOMNLDFP@?$FLOffTrade?$FN?$FL?$CFs?$FN?5Noria?5?$CFd?5?$CFd?$AA@ ; `string'
PUBLIC	??_C@_0BM@DMBKDJLH@?$FLOffTrade?$FN?$FL?$CFs?$FN?5Devias?5?$CFd?5?$CFd?$AA@ ; `string'
PUBLIC	??_C@_0BO@OJEHOFOB@?$FLOffTrade?$FN?$FL?$CFs?$FN?5Lorencia?5?$CFd?5?$CFd?$AA@ ; `string'
PUBLIC	??_C@_0BK@JCDLIHIH@?$FLOffTrade?$FN?5Need?5Open?5Shop?$AA@ ; `string'
PUBLIC	??_C@_0CH@JMGBEBME@?$FLOffTrade?$FN?5Disable?5in?5Castle?5sie@ ; `string'
PUBLIC	??_C@_0BD@IPGMBHGD@?$FLOfflineTrade?$FN?$FL?$CFs?$FN?$AA@ ; `string'
PUBLIC	??_C@_0CL@IJMEMPLE@?$FLOffTrade?$FN?5OffTrade?5work?5only?5Lo@ ; `string'
PUBLIC	??_C@_0CK@NAELDEKN@?$FLOfflineMode?$FN?5Disable?5in?5Castle?5@ ; `string'
PUBLIC	??_C@_0BO@CLFENIBF@?$FLJewels?$FN?5Item?5Exellent?5Status?$AA@ ; `string'
PUBLIC	??_C@_0BM@OMDDMGGO@?$FLJewels?$FN?5No?5Use?5Item?5Socket?$AA@ ; `string'
PUBLIC	??_C@_0BO@JJNPMFLC@?$FLJewels?$FN?5Max?5Socket?5option?5?$CFd?$AA@ ; `string'
PUBLIC	??_C@_0BF@JOAPLKJN@?$FLJewels?$FN?5Item?5is?5PvP?$AA@ ; `string'
PUBLIC	??_C@_0BJ@HIDKABDK@?$FLJewels?$FN?5No?5Use?5Item?5PvP?$AA@ ; `string'
PUBLIC	??_C@_0BM@OHHBFMIC@?$FLJewels?$FN?5Max?5Option?5to?5Item?$AA@ ; `string'
PUBLIC	??_C@_0BI@LGBBPIKN@?$FLJewels?$FN?5Item?5is?5Ancent?$AA@ ; `string'
PUBLIC	??_C@_0BM@DLKEAAPO@?$FLJewels?$FN?5No?5Use?5Item?5Ancent?$AA@ ; `string'
PUBLIC	??_C@_0BF@JAODIPNO@?$FLJewels?$FN?5No?5use?5item?$AA@ ; `string'
PUBLIC	??_C@_0BO@OEOJOBIJ@?$FLJewels?$FN?5Item?5Exellent?5status?$AA@ ; `string'
PUBLIC	??_C@_0BL@NKONFKM@?$FLJewels?$FN?5No?5use?5item?5Level?$AA@ ; `string'
PUBLIC	??_C@_0BL@JLMMBGJC@?$FLJewels?$FN?5Min?5Level?5Item?5?$CFd?$AA@ ; `string'
PUBLIC	??_C@_0BL@MIGKAOHG@?$FLJewels?$FN?5Max?5Level?5Item?5?$CFd?$AA@ ; `string'
PUBLIC	??_C@_0BL@EABJKCPD@?$FLJewels?$FN?5No?5use?5item?5skill?$AA@ ; `string'
PUBLIC	??_C@_0BM@OPNKJJKH@?$FLJewels?$FN?5Is?5Weapon?5to?5Skill?$AA@ ; `string'
PUBLIC	??_C@_0BK@JCANILHH@?$FLJewels?$FN?5No?5use?5item?5luck?$AA@ ; `string'
PUBLIC	??_C@_0BI@BNEAPBOP@?$FLJewels?$FN?5Is?5Set?5to?5Luck?$AA@ ; `string'
PUBLIC	??_C@_0BN@GPPEHKBE@?$FLJewels?$FN?5Need?5Item?5Accessory?$AA@ ; `string'
PUBLIC	??_C@_0BL@INEMADPH@?$FLJewels?$FN?5Min?5Item?5Level?5?$CFd?$AA@ ; `string'
PUBLIC	??_C@_0BL@NOOKBLBD@?$FLJewels?$FN?5Max?5Item?5Level?5?$CFd?$AA@ ; `string'
PUBLIC	??_C@_0CD@CKINFCHP@?$FLJewels?$FN?5Need?5Item?5Exellent?5Stat@ ; `string'
PUBLIC	??_C@_0CA@GHJGABEM@?$FLJewels?$FN?5Max?5?$CFd?5Exellent?5Option?$AA@ ; `string'
PUBLIC	??_C@_0CN@NMLOMMO@?$FLGReset?$FN?3?5You?5need?5Empty?5Invento@ ; `string'
PUBLIC	??_C@_0CK@FCBCNAMG@?$FLGReset?$FN?3?5You?5need?5above?5?$CFd?5Zen?5@ ; `string'
PUBLIC	??_C@_0CM@HPMBDCHP@?$FLGReset?$FN?3?5You?5need?5above?5?$CFd?5Leve@ ; `string'
PUBLIC	??_C@_0CM@DHNDAPCF@?$FLGReset?$FN?3?5You?5need?5above?5?$CFd?5Rese@ ; `string'
PUBLIC	??_C@_0BN@NFJAONJC@?$FLGReset?$FN?3?5Max?5Grand?5Reset?5?$CFd?$AA@ ; `string'
PUBLIC	??_C@_0BM@CCOFCGNI@?$FLGReset?$FN?3?5Interface?5Disable?$AA@ ; `string'
PUBLIC	??_C@_0BO@PEPJHIDK@?$FLGReset?$FN?3?5Started?5In?5Lorencia?$AA@ ; `string'
PUBLIC	??_C@_0BN@LOHKEBON@?$FLReset?$FN?3?5Need?5Reset?5Items?5?$CFd?$AA@ ; `string'
PUBLIC	??_C@_0CL@HNIKKPDH@?$FLReset?$FN?3?5You?5need?5Empty?5Inventor@ ; `string'
PUBLIC	??_C@_0CI@KOEBMPOL@?$FLReset?$FN?3?5You?5need?5above?5?$CFd?5Zen?5t@ ; `string'
PUBLIC	??_C@_0CM@EPGGAPLD@?$FLReset?$FN?3?5You?5need?5above?5?$CFd?5Credi@ ; `string'
PUBLIC	??_C@_0CK@JCAEKBGA@?$FLReset?$FN?3?5You?5need?5above?5?$CFd?5Wcoin@ ; `string'
PUBLIC	??_C@_0CK@JOKEILBF@?$FLReset?$FN?3?5You?5need?5above?5?$CFd?5Level@ ; `string'
PUBLIC	??_C@_0BG@BDFKKKDA@?$FLReset?$FN?3?5Max?5Reset?5?$CFd?$AA@ ; `string'
PUBLIC	??_C@_0BL@DMAJGMEH@?$FLReset?$FN?3?5Interface?5Disable?$AA@ ; `string'
PUBLIC	??_C@_0BH@KMBFHLHL@?$FLReset?$FN?3?5Started?5In?5?$CFs?$AA@ ; `string'
PUBLIC	??_C@_0N@LNMNJIEC@?$FLOnline?$FN?3?5?$CFd?$AA@	; `string'
PUBLIC	??_C@_0N@MAIJFPGO@?$FLGReset?$FN?3?5?$CFd?$AA@	; `string'
PUBLIC	??_C@_0M@FDHJPHCM@?$FLReset?$FN?3?5?$CFd?$AA@	; `string'
PUBLIC	?LoadText@CZtText@@QAEXXZ			; CZtText::LoadText
;	COMDAT ??_C@_0BB@KBHFEEDO@?$FLMax?5GReset?$FN?3?5?$CFd?$AA@
CONST	SEGMENT
??_C@_0BB@KBHFEEDO@?$FLMax?5GReset?$FN?3?5?$CFd?$AA@ DB '[Max GReset]: %d'
	DB	00H						; `string'
CONST	ENDS
;	COMDAT ??_C@_0BA@MEJNHEPC@?$FLMax?5Reset?$FN?3?5?$CFd?$AA@
CONST	SEGMENT
??_C@_0BA@MEJNHEPC@?$FLMax?5Reset?$FN?3?5?$CFd?$AA@ DB '[Max Reset]: %d', 00H ; `string'
CONST	ENDS
;	COMDAT ??_C@_0BC@MBMKDKDE@?$FLNeed?5Goblin?$FN?3?5?$CFd?$AA@
CONST	SEGMENT
??_C@_0BC@MBMKDKDE@?$FLNeed?5Goblin?$FN?3?5?$CFd?$AA@ DB '[Need Goblin]: '
	DB	'%d', 00H					; `string'
CONST	ENDS
;	COMDAT ??_C@_0BC@MKENDDB@?$FLNeed?5WCoinP?$FN?3?5?$CFd?$AA@
CONST	SEGMENT
??_C@_0BC@MKENDDB@?$FLNeed?5WCoinP?$FN?3?5?$CFd?$AA@ DB '[Need WCoinP]: %'
	DB	'd', 00H					; `string'
CONST	ENDS
;	COMDAT ??_C@_0BC@FKJCFFGC@?$FLNeed?5WCoinC?$FN?3?5?$CFd?$AA@
CONST	SEGMENT
??_C@_0BC@FKJCFFGC@?$FLNeed?5WCoinC?$FN?3?5?$CFd?$AA@ DB '[Need WCoinC]: '
	DB	'%d', 00H					; `string'
CONST	ENDS
;	COMDAT ??_C@_0BC@OJOICOKF@?$FLNeed?5ZtCred?$FN?3?5?$CFd?$AA@
CONST	SEGMENT
??_C@_0BC@OJOICOKF@?$FLNeed?5ZtCred?$FN?3?5?$CFd?$AA@ DB '[Need ZtCred]: '
	DB	'%d', 00H					; `string'
CONST	ENDS
;	COMDAT ??_C@_0P@JOEEOEIN@?$FLNeed?5Zen?$FN?3?5?$CFd?$AA@
CONST	SEGMENT
??_C@_0P@JOEEOEIN@?$FLNeed?5Zen?$FN?3?5?$CFd?$AA@ DB '[Need Zen]: %d', 00H ; `string'
CONST	ENDS
;	COMDAT ??_C@_0BH@KHMLGCFI@?$FLNeed?5Premium?$FN?3?5Status?$AA@
CONST	SEGMENT
??_C@_0BH@KHMLGCFI@?$FLNeed?5Premium?$FN?3?5Status?$AA@ DB '[Need Premium'
	DB	']: Status', 00H				; `string'
CONST	ENDS
;	COMDAT ??_C@_0BP@KMDIOMJA@?$FLNeed?5Premium?$FN?3?5Status?5?$CFd?5rank?$AA@
CONST	SEGMENT
??_C@_0BP@KMDIOMJA@?$FLNeed?5Premium?$FN?3?5Status?5?$CFd?5rank?$AA@ DB '['
	DB	'Need Premium]: Status %d rank', 00H		; `string'
CONST	ENDS
;	COMDAT ??_C@_0BC@CHJAHMDJ@?$FLNeed?5GReset?$FN?3?5?$CFd?$AA@
CONST	SEGMENT
??_C@_0BC@CHJAHMDJ@?$FLNeed?5GReset?$FN?3?5?$CFd?$AA@ DB '[Need GReset]: '
	DB	'%d', 00H					; `string'
CONST	ENDS
;	COMDAT ??_C@_0BB@PCHHKHCC@?$FLNeed?5Reset?$FN?3?5?$CFd?$AA@
CONST	SEGMENT
??_C@_0BB@PCHHKHCC@?$FLNeed?5Reset?$FN?3?5?$CFd?$AA@ DB '[Need Reset]: %d'
	DB	00H						; `string'
CONST	ENDS
;	COMDAT ??_C@_0BB@BAFBNPAJ@?$FLNeed?5Level?$FN?3?5?$CFd?$AA@
CONST	SEGMENT
??_C@_0BB@BAFBNPAJ@?$FLNeed?5Level?$FN?3?5?$CFd?$AA@ DB '[Need Level]: %d'
	DB	00H						; `string'
CONST	ENDS
;	COMDAT ??_C@_0BG@EEMGHGE@?$FLDrop?5Event?$FN?5Started?$CB?$AA@
CONST	SEGMENT
??_C@_0BG@EEMGHGE@?$FLDrop?5Event?$FN?5Started?$CB?$AA@ DB '[Drop Event] '
	DB	'Started!', 00H				; `string'
CONST	ENDS
;	COMDAT ??_C@_09FMDNBLPI@No?5Jewels?$AA@
CONST	SEGMENT
??_C@_09FMDNBLPI@No?5Jewels?$AA@ DB 'No Jewels', 00H	; `string'
CONST	ENDS
;	COMDAT ??_C@_0BI@HBMDNHJN@?$EA?$FLPREMIUM?$FN?5Time?5is?5over?$AA@
CONST	SEGMENT
??_C@_0BI@HBMDNHJN@?$EA?$FLPREMIUM?$FN?5Time?5is?5over?$AA@ DB '@[PREMIUM'
	DB	'] Time is over', 00H			; `string'
CONST	ENDS
;	COMDAT ??_C@_0BD@KMCMCOAB@?$EA?$FLPREMIUM?$FN?5Min?3?5?$CFd?$AA@
CONST	SEGMENT
??_C@_0BD@KMCMCOAB@?$EA?$FLPREMIUM?$FN?5Min?3?5?$CFd?$AA@ DB '@[PREMIUM] '
	DB	'Min: %d', 00H				; `string'
CONST	ENDS
;	COMDAT ??_C@_0BK@NBMNNEF@?$EA?$FLPREMIUM?$FN?5Defence?3?5?$CL?$CFd?$CF?$CF?$AA@
CONST	SEGMENT
??_C@_0BK@NBMNNEF@?$EA?$FLPREMIUM?$FN?5Defence?3?5?$CL?$CFd?$CF?$CF?$AA@ DB '@'
	DB	'[PREMIUM] Defence: +%d%%', 00H		; `string'
CONST	ENDS
;	COMDAT ??_C@_0CA@BMNDND@?$EA?$FLPREMIUM?$FN?5Wizard?5Damage?3?5?$CL?$CFd?$CF?$CF?$AA@
CONST	SEGMENT
??_C@_0CA@BMNDND@?$EA?$FLPREMIUM?$FN?5Wizard?5Damage?3?5?$CL?$CFd?$CF?$CF?$AA@ DB '@'
	DB	'[PREMIUM] Wizard Damage: +%d%%', 00H	; `string'
CONST	ENDS
;	COMDAT ??_C@_0BJ@HMOBPEHA@?$EA?$FLPREMIUM?$FN?5Damage?3?5?$CL?$CFd?$CF?$CF?$AA@
CONST	SEGMENT
??_C@_0BJ@HMOBPEHA@?$EA?$FLPREMIUM?$FN?5Damage?3?5?$CL?$CFd?$CF?$CF?$AA@ DB '@'
	DB	'[PREMIUM] Damage: +%d%%', 00H		; `string'
CONST	ENDS
;	COMDAT ??_C@_0BL@NDFEDM@?$EA?$FLPREMIUM?$FN?5Drop?5Zen?3?5?$CL?$CFd?$CF?$CF?$AA@
CONST	SEGMENT
??_C@_0BL@NDFEDM@?$EA?$FLPREMIUM?$FN?5Drop?5Zen?3?5?$CL?$CFd?$CF?$CF?$AA@ DB '@'
	DB	'[PREMIUM] Drop Zen: +%d%%', 00H		; `string'
CONST	ENDS
;	COMDAT ??_C@_0BN@JJILFFBN@?$EA?$FLPREMIUM?$FN?5Experience?3?5?$CL?$CFd?$CF?$CF?$AA@
CONST	SEGMENT
??_C@_0BN@JJILFFBN@?$EA?$FLPREMIUM?$FN?5Experience?3?5?$CL?$CFd?$CF?$CF?$AA@ DB '@'
	DB	'[PREMIUM] Experience: +%d%%', 00H		; `string'
CONST	ENDS
;	COMDAT ??_C@_06JOGMAFMB@GM?5Map?$AA@
CONST	SEGMENT
??_C@_06JOGMAFMB@GM?5Map?$AA@ DB 'GM Map', 00H		; `string'
CONST	ENDS
;	COMDAT ??_C@_0CE@IDHHPCBO@?$FLOffExp?$FN?5Works?5just?5outside?5of?5t@
CONST	SEGMENT
??_C@_0CE@IDHHPCBO@?$FLOffExp?$FN?5Works?5just?5outside?5of?5t@ DB '[OffE'
	DB	'xp] Works just outside of town', 00H	; `string'
CONST	ENDS
;	COMDAT ??_C@_0BI@CGJMHIKF@?$FLOffExp?$FN?5Need?5?$CFd?5Goblin?$AA@
CONST	SEGMENT
??_C@_0BI@CGJMHIKF@?$FLOffExp?$FN?5Need?5?$CFd?5Goblin?$AA@ DB '[OffExp] '
	DB	'Need %d Goblin', 00H			; `string'
CONST	ENDS
;	COMDAT ??_C@_0BI@LKOIBIFN@?$FLOffExp?$FN?5Need?5?$CFd?5WCoinP?$AA@
CONST	SEGMENT
??_C@_0BI@LKOIBIFN@?$FLOffExp?$FN?5Need?5?$CFd?5WCoinP?$AA@ DB '[OffExp] '
	DB	'Need %d WCoinP', 00H			; `string'
CONST	ENDS
;	COMDAT ??_C@_0BI@NLAHFJMP@?$FLOffExp?$FN?5Need?5?$CFd?5WCoinC?$AA@
CONST	SEGMENT
??_C@_0BI@NLAHFJMP@?$FLOffExp?$FN?5Need?5?$CFd?5WCoinC?$AA@ DB '[OffExp] '
	DB	'Need %d WCoinC', 00H			; `string'
CONST	ENDS
;	COMDAT ??_C@_0BI@KKCCEDNH@?$FLOffExp?$FN?5Need?5?$CFd?5Credit?$AA@
CONST	SEGMENT
??_C@_0BI@KKCCEDNH@?$FLOffExp?$FN?5Need?5?$CFd?5Credit?$AA@ DB '[OffExp] '
	DB	'Need %d Credit', 00H			; `string'
CONST	ENDS
;	COMDAT ??_C@_0BF@MAMJKDIJ@?$FLOffExp?$FN?5Need?5?$CFd?5Zen?$AA@
CONST	SEGMENT
??_C@_0BF@MAMJKDIJ@?$FLOffExp?$FN?5Need?5?$CFd?5Zen?$AA@ DB '[OffExp] Nee'
	DB	'd %d Zen', 00H				; `string'
CONST	ENDS
;	COMDAT ??_C@_0BB@BDLKINPJ@?$FLBuy?$FN?5?$CFd?5Credits?$AA@
CONST	SEGMENT
??_C@_0BB@BDLKINPJ@?$FLBuy?$FN?5?$CFd?5Credits?$AA@ DB '[Buy] %d Credits', 00H ; `string'
CONST	ENDS
;	COMDAT ??_C@_0P@HJIHFOLJ@?$FLBuy?$FN?5?$CFd?5Wcoin?$AA@
CONST	SEGMENT
??_C@_0P@HJIHFOLJ@?$FLBuy?$FN?5?$CFd?5Wcoin?$AA@ DB '[Buy] %d Wcoin', 00H ; `string'
CONST	ENDS
;	COMDAT ??_C@_0BG@FKEOOLNJ@?$FLBuy?$FN?5Need?5?$CFd?5Credits?$AA@
CONST	SEGMENT
??_C@_0BG@FKEOOLNJ@?$FLBuy?$FN?5Need?5?$CFd?5Credits?$AA@ DB '[Buy] Need '
	DB	'%d Credits', 00H				; `string'
CONST	ENDS
;	COMDAT ??_C@_0BE@EOJKDIHI@?$FLBuy?$FN?5Need?5?$CFd?5Bonus?$AA@
CONST	SEGMENT
??_C@_0BE@EOJKDIHI@?$FLBuy?$FN?5Need?5?$CFd?5Bonus?$AA@ DB '[Buy] Need %d'
	DB	' Bonus', 00H				; `string'
CONST	ENDS
;	COMDAT ??_C@_09FLDHBEND@Karutan?52?$AA@
CONST	SEGMENT
??_C@_09FLDHBEND@Karutan?52?$AA@ DB 'Karutan 2', 00H	; `string'
CONST	ENDS
;	COMDAT ??_C@_07OCAFKKPM@Karutan?$AA@
CONST	SEGMENT
??_C@_07OCAFKKPM@Karutan?$AA@ DB 'Karutan', 00H		; `string'
CONST	ENDS
;	COMDAT ??_C@_0N@PNCDMAOA@Loren?5Market?$AA@
CONST	SEGMENT
??_C@_0N@PNCDMAOA@Loren?5Market?$AA@ DB 'Loren Market', 00H ; `string'
CONST	ENDS
;	COMDAT ??_C@_0L@HHAFLHHC@Imperial?54?$AA@
CONST	SEGMENT
??_C@_0L@HHAFLHHC@Imperial?54?$AA@ DB 'Imperial 4', 00H	; `string'
CONST	ENDS
;	COMDAT ??_C@_0L@DIEECBLF@Imperial?53?$AA@
CONST	SEGMENT
??_C@_0L@DIEECBLF@Imperial?53?$AA@ DB 'Imperial 3', 00H	; `string'
CONST	ENDS
;	COMDAT ??_C@_0L@CBFPBAPE@Imperial?52?$AA@
CONST	SEGMENT
??_C@_0L@CBFPBAPE@Imperial?52?$AA@ DB 'Imperial 2', 00H	; `string'
CONST	ENDS
;	COMDAT ??_C@_0L@KHCEDDH@Imperial?51?$AA@
CONST	SEGMENT
??_C@_0L@KHCEDDH@Imperial?51?$AA@ DB 'Imperial 1', 00H	; `string'
CONST	ENDS
;	COMDAT ??_C@_0O@KEFHLJKC@Double?5Goer?54?$AA@
CONST	SEGMENT
??_C@_0O@KEFHLJKC@Double?5Goer?54?$AA@ DB 'Double Goer 4', 00H ; `string'
CONST	ENDS
;	COMDAT ??_C@_0O@OLBGCPGF@Double?5Goer?53?$AA@
CONST	SEGMENT
??_C@_0O@OLBGCPGF@Double?5Goer?53?$AA@ DB 'Double Goer 3', 00H ; `string'
CONST	ENDS
;	COMDAT ??_C@_0O@PCANBOCE@Double?5Goer?52?$AA@
CONST	SEGMENT
??_C@_0O@PCANBOCE@Double?5Goer?52?$AA@ DB 'Double Goer 2', 00H ; `string'
CONST	ENDS
;	COMDAT ??_C@_0O@NJCAENOH@Double?5Goer?51?$AA@
CONST	SEGMENT
??_C@_0O@NJCAENOH@Double?5Goer?51?$AA@ DB 'Double Goer 1', 00H ; `string'
CONST	ENDS
;	COMDAT ??_C@_0M@EAGBBPA@Vulcan?5Room?$AA@
CONST	SEGMENT
??_C@_0M@EAGBBPA@Vulcan?5Room?$AA@ DB 'Vulcan Room', 00H ; `string'
CONST	ENDS
;	COMDAT ??_C@_06LOEDEFOB@Vulcan?$AA@
CONST	SEGMENT
??_C@_06LOEDEFOB@Vulcan?$AA@ DB 'Vulcan', 00H		; `string'
CONST	ENDS
;	COMDAT ??_C@_0L@NJMBKLOB@Santa?5Town?$AA@
CONST	SEGMENT
??_C@_0L@NJMBKLOB@Santa?5Town?$AA@ DB 'Santa Town', 00H	; `string'
CONST	ENDS
;	COMDAT ??_C@_0N@KEHJEJIE@Raklion?5Boss?$AA@
CONST	SEGMENT
??_C@_0N@KEHJEJIE@Raklion?5Boss?$AA@ DB 'Raklion Boss', 00H ; `string'
CONST	ENDS
;	COMDAT ??_C@_07GADFIEBE@Raklion?$AA@
CONST	SEGMENT
??_C@_07GADFIEBE@Raklion?$AA@ DB 'Raklion', 00H		; `string'
CONST	ENDS
;	COMDAT ??_C@_0BC@BMNEEACA@Swamp?5Of?5Calmness?$AA@
CONST	SEGMENT
??_C@_0BC@BMNEEACA@Swamp?5Of?5Calmness?$AA@ DB 'Swamp Of Calmness', 00H ; `string'
CONST	ENDS
;	COMDAT ??_C@_0P@DAEACODP@Devil?5Squere?57?$AA@
CONST	SEGMENT
??_C@_0P@DAEACODP@Devil?5Squere?57?$AA@ DB 'Devil Squere 7', 00H ; `string'
CONST	ENDS
;	COMDAT ??_C@_0P@KDANNKKM@Chaos?5Castle?57?$AA@
CONST	SEGMENT
??_C@_0P@KDANNKKM@Chaos?5Castle?57?$AA@ DB 'Chaos Castle 7', 00H ; `string'
CONST	ENDS
;	COMDAT ??_C@_0P@PJOJEPGI@Blood?5Castle?58?$AA@
CONST	SEGMENT
??_C@_0P@PJOJEPGI@Blood?5Castle?58?$AA@ DB 'Blood Castle 8', 00H ; `string'
CONST	ENDS
;	COMDAT ??_C@_07OBGILBCL@Elblend?$AA@
CONST	SEGMENT
??_C@_07OBGILBCL@Elblend?$AA@ DB 'Elblend', 00H		; `string'
CONST	ENDS
;	COMDAT ??_C@_0BC@CIODICBO@Illusion?5Temple?56?$AA@
CONST	SEGMENT
??_C@_0BC@CIODICBO@Illusion?5Temple?56?$AA@ DB 'Illusion Temple 6', 00H ; `string'
CONST	ENDS
;	COMDAT ??_C@_0BC@DMONBNN@Illusion?5Temple?55?$AA@
CONST	SEGMENT
??_C@_0BC@DMONBNN@Illusion?5Temple?55?$AA@ DB 'Illusion Temple 5', 00H ; `string'
CONST	ENDS
;	COMDAT ??_C@_0BC@BKNFOAJM@Illusion?5Temple?54?$AA@
CONST	SEGMENT
??_C@_0BC@BKNFOAJM@Illusion?5Temple?54?$AA@ DB 'Illusion Temple 4', 00H ; `string'
CONST	ENDS
;	COMDAT ??_C@_0BC@FFJEHGFL@Illusion?5Temple?53?$AA@
CONST	SEGMENT
??_C@_0BC@FFJEHGFL@Illusion?5Temple?53?$AA@ DB 'Illusion Temple 3', 00H ; `string'
CONST	ENDS
;	COMDAT ??_C@_0BC@EMIPEHBK@Illusion?5Temple?52?$AA@
CONST	SEGMENT
??_C@_0BC@EMIPEHBK@Illusion?5Temple?52?$AA@ DB 'Illusion Temple 2', 00H ; `string'
CONST	ENDS
;	COMDAT ??_C@_0BC@GHKCBENJ@Illusion?5Temple?51?$AA@
CONST	SEGMENT
??_C@_0BC@GHKCBENJ@Illusion?5Temple?51?$AA@ DB 'Illusion Temple 1', 00H ; `string'
CONST	ENDS
;	COMDAT ??_C@_0O@PEMOBAPG@Balgas?5Refuge?$AA@
CONST	SEGMENT
??_C@_0O@PEMOBAPG@Balgas?5Refuge?$AA@ DB 'Balgas Refuge', 00H ; `string'
CONST	ENDS
;	COMDAT ??_C@_0O@FHBIHDBH@Balgas?5Baraks?$AA@
CONST	SEGMENT
??_C@_0O@FHBIHDBH@Balgas?5Baraks?$AA@ DB 'Balgas Baraks', 00H ; `string'
CONST	ENDS
;	COMDAT ??_C@_0N@BKFGNFED@Kanturu?5Boss?$AA@
CONST	SEGMENT
??_C@_0N@BKFGNFED@Kanturu?5Boss?$AA@ DB 'Kanturu Boss', 00H ; `string'
CONST	ENDS
;	COMDAT ??_C@_0O@PBLCAFMO@Kanturu?5Relic?$AA@
CONST	SEGMENT
??_C@_0O@PBLCAFMO@Kanturu?5Relic?$AA@ DB 'Kanturu Relic', 00H ; `string'
CONST	ENDS
;	COMDAT ??_C@_07KEJLPAHK@Kanturu?$AA@
CONST	SEGMENT
??_C@_07KEJLPAHK@Kanturu?$AA@ DB 'Kanturu', 00H		; `string'
CONST	ENDS
;	COMDAT ??_C@_08HAOPGLOD@Kalima?57?$AA@
CONST	SEGMENT
??_C@_08HAOPGLOD@Kalima?57?$AA@ DB 'Kalima 7', 00H	; `string'
CONST	ENDS
;	COMDAT ??_C@_08PFNMNIFL@Cry?5Wolf?$AA@
CONST	SEGMENT
??_C@_08PFNMNIFL@Cry?5Wolf?$AA@ DB 'Cry Wolf', 00H	; `string'
CONST	ENDS
;	COMDAT ??_C@_04CJFIPIII@Aida?$AA@
CONST	SEGMENT
??_C@_04CJFIPIII@Aida?$AA@ DB 'Aida', 00H		; `string'
CONST	ENDS
;	COMDAT ??_C@_0O@PCDCCCEO@Land?5Of?5Trial?$AA@
CONST	SEGMENT
??_C@_0O@PCDCCCEO@Land?5Of?5Trial?$AA@ DB 'Land Of Trial', 00H ; `string'
CONST	ENDS
;	COMDAT ??_C@_06NHLAJDOI@Castle?$AA@
CONST	SEGMENT
??_C@_06NHLAJDOI@Castle?$AA@ DB 'Castle', 00H		; `string'
CONST	ENDS
;	COMDAT ??_C@_08GJPEFKKC@Kalima?56?$AA@
CONST	SEGMENT
??_C@_08GJPEFKKC@Kalima?56?$AA@ DB 'Kalima 6', 00H	; `string'
CONST	ENDS
;	COMDAT ??_C@_08ECNJAJGB@Kalima?55?$AA@
CONST	SEGMENT
??_C@_08ECNJAJGB@Kalima?55?$AA@ DB 'Kalima 5', 00H	; `string'
CONST	ENDS
;	COMDAT ??_C@_08FLMCDICA@Kalima?54?$AA@
CONST	SEGMENT
??_C@_08FLMCDICA@Kalima?54?$AA@ DB 'Kalima 4', 00H	; `string'
CONST	ENDS
;	COMDAT ??_C@_08BEIDKOOH@Kalima?53?$AA@
CONST	SEGMENT
??_C@_08BEIDKOOH@Kalima?53?$AA@ DB 'Kalima 3', 00H	; `string'
CONST	ENDS
;	COMDAT ??_C@_08NJIJPKG@Kalima?52?$AA@
CONST	SEGMENT
??_C@_08NJIJPKG@Kalima?52?$AA@ DB 'Kalima 2', 00H	; `string'
CONST	ENDS
;	COMDAT ??_C@_08CGLFMMGF@Kalima?51?$AA@
CONST	SEGMENT
??_C@_08CGLFMMGF@Kalima?51?$AA@ DB 'Kalima 1', 00H	; `string'
CONST	ENDS
;	COMDAT ??_C@_0P@LKBGOLON@Chaos?5Castle?56?$AA@
CONST	SEGMENT
??_C@_0P@LKBGOLON@Chaos?5Castle?56?$AA@ DB 'Chaos Castle 6', 00H ; `string'
CONST	ENDS
;	COMDAT ??_C@_0P@JBDLLICO@Chaos?5Castle?55?$AA@
CONST	SEGMENT
??_C@_0P@JBDLLICO@Chaos?5Castle?55?$AA@ DB 'Chaos Castle 5', 00H ; `string'
CONST	ENDS
;	COMDAT ??_C@_0P@IICAIJGP@Chaos?5Castle?54?$AA@
CONST	SEGMENT
??_C@_0P@IICAIJGP@Chaos?5Castle?54?$AA@ DB 'Chaos Castle 4', 00H ; `string'
CONST	ENDS
;	COMDAT ??_C@_0P@MHGBBPKI@Chaos?5Castle?53?$AA@
CONST	SEGMENT
??_C@_0P@MHGBBPKI@Chaos?5Castle?53?$AA@ DB 'Chaos Castle 3', 00H ; `string'
CONST	ENDS
;	COMDAT ??_C@_0P@NOHKCOOJ@Chaos?5Castle?52?$AA@
CONST	SEGMENT
??_C@_0P@NOHKCOOJ@Chaos?5Castle?52?$AA@ DB 'Chaos Castle 2', 00H ; `string'
CONST	ENDS
;	COMDAT ??_C@_0P@PFFHHNCK@Chaos?5Castle?51?$AA@
CONST	SEGMENT
??_C@_0P@PFFHHNCK@Chaos?5Castle?51?$AA@ DB 'Chaos Castle 1', 00H ; `string'
CONST	ENDS
;	COMDAT ??_C@_0P@HOHBFDKH@Blood?5Castle?57?$AA@
CONST	SEGMENT
??_C@_0P@HOHBFDKH@Blood?5Castle?57?$AA@ DB 'Blood Castle 7', 00H ; `string'
CONST	ENDS
;	COMDAT ??_C@_0P@GHGKGCOG@Blood?5Castle?56?$AA@
CONST	SEGMENT
??_C@_0P@GHGKGCOG@Blood?5Castle?56?$AA@ DB 'Blood Castle 6', 00H ; `string'
CONST	ENDS
;	COMDAT ??_C@_0P@EMEHDBCF@Blood?5Castle?55?$AA@
CONST	SEGMENT
??_C@_0P@EMEHDBCF@Blood?5Castle?55?$AA@ DB 'Blood Castle 5', 00H ; `string'
CONST	ENDS
;	COMDAT ??_C@_0P@FFFMAAGE@Blood?5Castle?54?$AA@
CONST	SEGMENT
??_C@_0P@FFFMAAGE@Blood?5Castle?54?$AA@ DB 'Blood Castle 4', 00H ; `string'
CONST	ENDS
;	COMDAT ??_C@_0P@BKBNJGKD@Blood?5Castle?53?$AA@
CONST	SEGMENT
??_C@_0P@BKBNJGKD@Blood?5Castle?53?$AA@ DB 'Blood Castle 3', 00H ; `string'
CONST	ENDS
;	COMDAT ??_C@_0P@DAGKHOC@Blood?5Castle?52?$AA@
CONST	SEGMENT
??_C@_0P@DAGKHOC@Blood?5Castle?52?$AA@ DB 'Blood Castle 2', 00H ; `string'
CONST	ENDS
;	COMDAT ??_C@_0P@CICLPECB@Blood?5Castle?51?$AA@
CONST	SEGMENT
??_C@_0P@CICLPECB@Blood?5Castle?51?$AA@ DB 'Blood Castle 1', 00H ; `string'
CONST	ENDS
;	COMDAT ??_C@_06OCMNLLL@Icarus?$AA@
CONST	SEGMENT
??_C@_06OCMNLLL@Icarus?$AA@ DB 'Icarus', 00H		; `string'
CONST	ENDS
;	COMDAT ??_C@_0M@DFALAJPK@DevilSquare?$AA@
CONST	SEGMENT
??_C@_0M@DFALAJPK@DevilSquare?$AA@ DB 'DevilSquare', 00H ; `string'
CONST	ENDS
;	COMDAT ??_C@_06KLPPBFEJ@Tarkan?$AA@
CONST	SEGMENT
??_C@_06KLPPBFEJ@Tarkan?$AA@ DB 'Tarkan', 00H		; `string'
CONST	ENDS
;	COMDAT ??_C@_06IJFPNHKO@Atlans?$AA@
CONST	SEGMENT
??_C@_06IJFPNHKO@Atlans?$AA@ DB 'Atlans', 00H		; `string'
CONST	ENDS
;	COMDAT ??_C@_05DLHMIPMH@Arena?$AA@
CONST	SEGMENT
??_C@_05DLHMIPMH@Arena?$AA@ DB 'Arena', 00H		; `string'
CONST	ENDS
;	COMDAT ??_C@_09IFBHMHO@LostTower?$AA@
CONST	SEGMENT
??_C@_09IFBHMHO@LostTower?$AA@ DB 'LostTower', 00H	; `string'
CONST	ENDS
;	COMDAT ??_C@_05JKNLBHIC@Noria?$AA@
CONST	SEGMENT
??_C@_05JKNLBHIC@Noria?$AA@ DB 'Noria', 00H		; `string'
CONST	ENDS
;	COMDAT ??_C@_06PHFFMJMG@Devias?$AA@
CONST	SEGMENT
??_C@_06PHFFMJMG@Devias?$AA@ DB 'Devias', 00H		; `string'
CONST	ENDS
;	COMDAT ??_C@_07CELLBLHP@Dungeon?$AA@
CONST	SEGMENT
??_C@_07CELLBLHP@Dungeon?$AA@ DB 'Dungeon', 00H		; `string'
CONST	ENDS
;	COMDAT ??_C@_08DPCEMNDG@Lorencia?$AA@
CONST	SEGMENT
??_C@_08DPCEMNDG@Lorencia?$AA@ DB 'Lorencia', 00H	; `string'
CONST	ENDS
;	COMDAT ??_C@_0BK@BDHNBLOG@?$FLJewelsBank?$FN?5Recv?5?$CFd?5Life?$AA@
CONST	SEGMENT
??_C@_0BK@BDHNBLOG@?$FLJewelsBank?$FN?5Recv?5?$CFd?5Life?$AA@ DB '[Jewels'
	DB	'Bank] Recv %d Life', 00H			; `string'
CONST	ENDS
;	COMDAT ??_C@_0BI@MHFJLCGA@?$FLJewelsBank?$FN?5No?5?$CFd?5Life?$AA@
CONST	SEGMENT
??_C@_0BI@MHFJLCGA@?$FLJewelsBank?$FN?5No?5?$CFd?5Life?$AA@ DB '[JewelsBa'
	DB	'nk] No %d Life', 00H			; `string'
CONST	ENDS
;	COMDAT ??_C@_0BK@BLAEOCAJ@?$FLJewelsBank?$FN?5Recv?5?$CFd?5Soul?$AA@
CONST	SEGMENT
??_C@_0BK@BLAEOCAJ@?$FLJewelsBank?$FN?5Recv?5?$CFd?5Soul?$AA@ DB '[Jewels'
	DB	'Bank] Recv %d Soul', 00H			; `string'
CONST	ENDS
;	COMDAT ??_C@_0BI@MPCAELIP@?$FLJewelsBank?$FN?5No?5?$CFd?5Soul?$AA@
CONST	SEGMENT
??_C@_0BI@MPCAELIP@?$FLJewelsBank?$FN?5No?5?$CFd?5Soul?$AA@ DB '[JewelsBa'
	DB	'nk] No %d Soul', 00H			; `string'
CONST	ENDS
;	COMDAT ??_C@_0BL@LFJMIOEP@?$FLJewelsBank?$FN?5Recv?5?$CFd?5Bless?$AA@
CONST	SEGMENT
??_C@_0BL@LFJMIOEP@?$FLJewelsBank?$FN?5Recv?5?$CFd?5Bless?$AA@ DB '[Jewel'
	DB	'sBank] Recv %d Bless', 00H			; `string'
CONST	ENDS
;	COMDAT ??_C@_0BJ@LBJDIMPD@?$FLJewelsBank?$FN?5No?5?$CFd?5Bless?$AA@
CONST	SEGMENT
??_C@_0BJ@LBJDIMPD@?$FLJewelsBank?$FN?5No?5?$CFd?5Bless?$AA@ DB '[JewelsB'
	DB	'ank] No %d Bless', 00H			; `string'
CONST	ENDS
;	COMDAT ??_C@_0BL@BBBODGGJ@?$FLJewelsBank?$FN?5Recv?5?$CFd?5Chaos?$AA@
CONST	SEGMENT
??_C@_0BL@BBBODGGJ@?$FLJewelsBank?$FN?5Recv?5?$CFd?5Chaos?$AA@ DB '[Jewel'
	DB	'sBank] Recv %d Chaos', 00H			; `string'
CONST	ENDS
;	COMDAT ??_C@_0BK@KJOAAKB@?$FLJewelsBank?$FN?5Inventory?5?$CFd?$AA@
CONST	SEGMENT
??_C@_0BK@KJOAAKB@?$FLJewelsBank?$FN?5Inventory?5?$CFd?$AA@ DB '[JewelsBa'
	DB	'nk] Inventory %d', 00H			; `string'
CONST	ENDS
;	COMDAT ??_C@_0BJ@BFBBDENF@?$FLJewelsBank?$FN?5No?5?$CFd?5Chaos?$AA@
CONST	SEGMENT
??_C@_0BJ@BFBBDENF@?$FLJewelsBank?$FN?5No?5?$CFd?5Chaos?$AA@ DB '[JewelsB'
	DB	'ank] No %d Chaos', 00H			; `string'
CONST	ENDS
;	COMDAT ??_C@_0BK@CGCENOLB@?$FLJewelsBank?$FN?5Send?5?$CFd?5Life?$AA@
CONST	SEGMENT
??_C@_0BK@CGCENOLB@?$FLJewelsBank?$FN?5Send?5?$CFd?5Life?$AA@ DB '[Jewels'
	DB	'Bank] Send %d Life', 00H			; `string'
CONST	ENDS
;	COMDAT ??_C@_0BK@PGCOJPFB@?$FLJewelsBank?$FN?5Need?5?$CFd?5Life?$AA@
CONST	SEGMENT
??_C@_0BK@PGCOJPFB@?$FLJewelsBank?$FN?5Need?5?$CFd?5Life?$AA@ DB '[Jewels'
	DB	'Bank] Need %d Life', 00H			; `string'
CONST	ENDS
;	COMDAT ??_C@_0BK@COFNCHFO@?$FLJewelsBank?$FN?5Send?5?$CFd?5Soul?$AA@
CONST	SEGMENT
??_C@_0BK@COFNCHFO@?$FLJewelsBank?$FN?5Send?5?$CFd?5Soul?$AA@ DB '[Jewels'
	DB	'Bank] Send %d Soul', 00H			; `string'
CONST	ENDS
;	COMDAT ??_C@_0BK@POFHGGLO@?$FLJewelsBank?$FN?5Need?5?$CFd?5Soul?$AA@
CONST	SEGMENT
??_C@_0BK@POFHGGLO@?$FLJewelsBank?$FN?5Need?5?$CFd?5Soul?$AA@ DB '[Jewels'
	DB	'Bank] Need %d Soul', 00H			; `string'
CONST	ENDS
;	COMDAT ??_C@_0BL@EAKGBDNN@?$FLJewelsBank?$FN?5Send?5?$CFd?5Bless?$AA@
CONST	SEGMENT
??_C@_0BL@EAKGBDNN@?$FLJewelsBank?$FN?5Send?5?$CFd?5Bless?$AA@ DB '[Jewel'
	DB	'sBank] Send %d Bless', 00H			; `string'
CONST	ENDS
;	COMDAT ??_C@_0BL@OAHMPLOE@?$FLJewelsBank?$FN?5Need?5?$CFd?5Bless?$AA@
CONST	SEGMENT
??_C@_0BL@OAHMPLOE@?$FLJewelsBank?$FN?5Need?5?$CFd?5Bless?$AA@ DB '[Jewel'
	DB	'sBank] Need %d Bless', 00H			; `string'
CONST	ENDS
;	COMDAT ??_C@_0BL@OECEKLPL@?$FLJewelsBank?$FN?5Send?5?$CFd?5Chaos?$AA@
CONST	SEGMENT
??_C@_0BL@OECEKLPL@?$FLJewelsBank?$FN?5Send?5?$CFd?5Chaos?$AA@ DB '[Jewel'
	DB	'sBank] Send %d Chaos', 00H			; `string'
CONST	ENDS
;	COMDAT ??_C@_0BL@EEPOEDMC@?$FLJewelsBank?$FN?5Need?5?$CFd?5Chaos?$AA@
CONST	SEGMENT
??_C@_0BL@EEPOEDMC@?$FLJewelsBank?$FN?5Need?5?$CFd?5Chaos?$AA@ DB '[Jewel'
	DB	'sBank] Need %d Chaos', 00H			; `string'
CONST	ENDS
;	COMDAT ??_C@_0O@IMAIFDDM@?1recvlifebank?$AA@
CONST	SEGMENT
??_C@_0O@IMAIFDDM@?1recvlifebank?$AA@ DB '/recvlifebank', 00H ; `string'
CONST	ENDS
;	COMDAT ??_C@_0O@EICHAAIA@?1recvsoulbank?$AA@
CONST	SEGMENT
??_C@_0O@EICHAAIA@?1recvsoulbank?$AA@ DB '/recvsoulbank', 00H ; `string'
CONST	ENDS
;	COMDAT ??_C@_0P@KGLHGEAA@?1recvblessbank?$AA@
CONST	SEGMENT
??_C@_0P@KGLHGEAA@?1recvblessbank?$AA@ DB '/recvblessbank', 00H ; `string'
CONST	ENDS
;	COMDAT ??_C@_0P@DAKNKGHC@?1recvchaosbank?$AA@
CONST	SEGMENT
??_C@_0P@DAKNKGHC@?1recvchaosbank?$AA@ DB '/recvchaosbank', 00H ; `string'
CONST	ENDS
;	COMDAT ??_C@_0O@LJFBJGGL@?1sendlifebank?$AA@
CONST	SEGMENT
??_C@_0O@LJFBJGGL@?1sendlifebank?$AA@ DB '/sendlifebank', 00H ; `string'
CONST	ENDS
;	COMDAT ??_C@_0O@HNHOMFNH@?1sendsoulbank?$AA@
CONST	SEGMENT
??_C@_0O@HNHOMFNH@?1sendsoulbank?$AA@ DB '/sendsoulbank', 00H ; `string'
CONST	ENDS
;	COMDAT ??_C@_0P@FDINPJJC@?1sendblessbank?$AA@
CONST	SEGMENT
??_C@_0P@FDINPJJC@?1sendblessbank?$AA@ DB '/sendblessbank', 00H ; `string'
CONST	ENDS
;	COMDAT ??_C@_0P@MFJHDLOA@?1sendchaosbank?$AA@
CONST	SEGMENT
??_C@_0P@MFJHDLOA@?1sendchaosbank?$AA@ DB '/sendchaosbank', 00H ; `string'
CONST	ENDS
;	COMDAT ??_C@_08DFICILBJ@?1offlife?$AA@
CONST	SEGMENT
??_C@_08DFICILBJ@?1offlife?$AA@ DB '/offlife', 00H	; `string'
CONST	ENDS
;	COMDAT ??_C@_08DNPLHCPG@?1offsoul?$AA@
CONST	SEGMENT
??_C@_08DNPLHCPG@?1offsoul?$AA@ DB '/offsoul', 00H	; `string'
CONST	ENDS
;	COMDAT ??_C@_09JILIJOFC@?1offbless?$AA@
CONST	SEGMENT
??_C@_09JILIJOFC@?1offbless?$AA@ DB '/offbless', 00H	; `string'
CONST	ENDS
;	COMDAT ??_C@_09DMDKCGHE@?1offchaos?$AA@
CONST	SEGMENT
??_C@_09DMDKCGHE@?1offchaos?$AA@ DB '/offchaos', 00H	; `string'
CONST	ENDS
;	COMDAT ??_C@_0L@BMECOBJ@?1offgoblin?$AA@
CONST	SEGMENT
??_C@_0L@BMECOBJ@?1offgoblin?$AA@ DB '/offgoblin', 00H	; `string'
CONST	ENDS
;	COMDAT ??_C@_0L@PJIGPHF@?1offwcoinp?$AA@
CONST	SEGMENT
??_C@_0L@PJIGPHF@?1offwcoinp?$AA@ DB '/offwcoinp', 00H	; `string'
CONST	ENDS
;	COMDAT ??_C@_0L@GOHHCOOH@?1offwcoinc?$AA@
CONST	SEGMENT
??_C@_0L@GOHHCOOH@?1offwcoinc?$AA@ DB '/offwcoinc', 00H	; `string'
CONST	ENDS
;	COMDAT ??_C@_0L@INHKBFGL@?1offcredit?$AA@
CONST	SEGMENT
??_C@_0L@INHKBFGL@?1offcredit?$AA@ DB '/offcredit', 00H	; `string'
CONST	ENDS
;	COMDAT ??_C@_07LOEKANNA@?1offzen?$AA@
CONST	SEGMENT
??_C@_07LOEKANNA@?1offzen?$AA@ DB '/offzen', 00H	; `string'
CONST	ENDS
;	COMDAT ??_C@_0BG@HHGJIIOJ@?$FLPkClear?$FN?5Need?5?$CFd?5Zen?$AA@
CONST	SEGMENT
??_C@_0BG@HHGJIIOJ@?$FLPkClear?$FN?5Need?5?$CFd?5Zen?$AA@ DB '[PkClear] N'
	DB	'eed %d Zen', 00H				; `string'
CONST	ENDS
;	COMDAT ??_C@_0BI@KLKJIHEI@?$FLPkClear?$FN?5Need?5?$CFd?5Level?$AA@
CONST	SEGMENT
??_C@_0BI@KLKJIHEI@?$FLPkClear?$FN?5Need?5?$CFd?5Level?$AA@ DB '[PkClear]'
	DB	' Need %d Level', 00H			; `string'
CONST	ENDS
;	COMDAT ??_C@_0BE@BKBFMADO@?$FLAdd?$FN?5Need?5?$CFd?5level?$AA@
CONST	SEGMENT
??_C@_0BE@BKBFMADO@?$FLAdd?$FN?5Need?5?$CFd?5level?$AA@ DB '[Add] Need %d'
	DB	' level', 00H				; `string'
CONST	ENDS
;	COMDAT ??_C@_0BC@GEGHIIJH@?$FLAdd?$FN?5Need?5?$CFd?5zen?$AA@
CONST	SEGMENT
??_C@_0BC@GEGHIIJH@?$FLAdd?$FN?5Need?5?$CFd?5zen?$AA@ DB '[Add] Need %d z'
	DB	'en', 00H					; `string'
CONST	ENDS
;	COMDAT ??_C@_0BP@LBHMNDCK@?$FLChange?5Class?$FN?3?5Need?5?$CFd?5Credit?$AA@
CONST	SEGMENT
??_C@_0BP@LBHMNDCK@?$FLChange?5Class?$FN?3?5Need?5?$CFd?5Credit?$AA@ DB '['
	DB	'Change Class]: Need %d Credit', 00H		; `string'
CONST	ENDS
;	COMDAT ??_C@_0CJ@LADKEPDC@?$FLChange?5Class?$FN?3?5You?5need?5Empty?5I@
CONST	SEGMENT
??_C@_0CJ@LADKEPDC@?$FLChange?5Class?$FN?3?5You?5need?5Empty?5I@ DB '[Cha'
	DB	'nge Class]: You need Empty Inventory', 00H	; `string'
CONST	ENDS
;	COMDAT ??_C@_0CD@KGGNMMG@?$FLCredit?5Donate?$FN?3?5Sell?5?$CF?42f?5Credi@
CONST	SEGMENT
??_C@_0CD@KGGNMMG@?$FLCredit?5Donate?$FN?3?5Sell?5?$CF?42f?5Credi@ DB '[C'
	DB	'redit Donate]: Sell %.2f Credits', 00H	; `string'
CONST	ENDS
;	COMDAT ??_C@_0CE@GBGJMDIH@?$FLCredit?5Donate?$FN?3?5Buy?3?5?$CFs?0?5Price?3@
CONST	SEGMENT
??_C@_0CE@GBGJMDIH@?$FLCredit?5Donate?$FN?3?5Buy?3?5?$CFs?0?5Price?3@ DB '['
	DB	'Credit Donate]: Buy: %s, Price: %d', 00H	; `string'
CONST	ENDS
;	COMDAT ??_C@_0CB@OOHAKKEO@?$FLCredit?5Donate?$FN?3?5Need?5?$CFd?5Credits@
CONST	SEGMENT
??_C@_0CB@OOHAKKEO@?$FLCredit?5Donate?$FN?3?5Need?5?$CFd?5Credits@ DB '[C'
	DB	'redit Donate]: Need %d Credits', 00H	; `string'
CONST	ENDS
;	COMDAT ??_C@_0DN@GJKGEGIC@?$FLCredit?5Donate?$FN?3?5Need?5to?5make?5sp@
CONST	SEGMENT
??_C@_0DN@GJKGEGIC@?$FLCredit?5Donate?$FN?3?5Need?5to?5make?5sp@ DB '[Cre'
	DB	'dit Donate]: Need to make space in the inventory (%dx%d)', 00H ; `string'
CONST	ENDS
;	COMDAT ??_C@_0CE@FPHGEDKP@?$FLCredit?5Donate?$FN?3Buy?5Premium?5Need@
CONST	SEGMENT
??_C@_0CE@FPHGEDKP@?$FLCredit?5Donate?$FN?3Buy?5Premium?5Need@ DB '[Credi'
	DB	't Donate]:Buy Premium Need %d', 00H		; `string'
CONST	ENDS
;	COMDAT ??_C@_0CD@OPBOIPPI@?$FLCredit?5Donate?$FN?3Buy?5Goblin?5Need?5@
CONST	SEGMENT
??_C@_0CD@OPBOIPPI@?$FLCredit?5Donate?$FN?3Buy?5Goblin?5Need?5@ DB '[Cred'
	DB	'it Donate]:Buy Goblin Need %d', 00H		; `string'
CONST	ENDS
;	COMDAT ??_C@_0CL@DPCNHNIA@?$FLCredit?5Donate?$FN?3Buy?5Goblin?5Multi@
CONST	SEGMENT
??_C@_0CL@DPCNHNIA@?$FLCredit?5Donate?$FN?3Buy?5Goblin?5Multi@ DB '[Credi'
	DB	't Donate]:Buy Goblin Multiple of 100', 00H	; `string'
CONST	ENDS
;	COMDAT ??_C@_0CF@IBIBCJGE@?$FLCredit?5Donate?$FN?3Buy?5Wcoin?$CIP?$CJ?5Nee@
CONST	SEGMENT
??_C@_0CF@IBIBCJGE@?$FLCredit?5Donate?$FN?3Buy?5Wcoin?$CIP?$CJ?5Nee@ DB '['
	DB	'Credit Donate]:Buy Wcoin(P) Need %d', 00H	; `string'
CONST	ENDS
;	COMDAT ??_C@_0CN@KJELFHNA@?$FLCredit?5Donate?$FN?3Buy?5Wcoin?$CIP?$CJ?5Mul@
CONST	SEGMENT
??_C@_0CN@KJELFHNA@?$FLCredit?5Donate?$FN?3Buy?5Wcoin?$CIP?$CJ?5Mul@ DB '['
	DB	'Credit Donate]:Buy Wcoin(P) Multiple of 100', 00H ; `string'
CONST	ENDS
;	COMDAT ??_C@_0CC@KIFIBJEP@?$FLCredit?5Donate?$FN?3Buy?5Wcoin?5Need?5?$CF@
CONST	SEGMENT
??_C@_0CC@KIFIBJEP@?$FLCredit?5Donate?$FN?3Buy?5Wcoin?5Need?5?$CF@ DB '[C'
	DB	'redit Donate]:Buy Wcoin Need %d', 00H	; `string'
CONST	ENDS
;	COMDAT ??_C@_0CK@FMNEIMBA@?$FLCredit?5Donate?$FN?3Buy?5Wcoin?5Multip@
CONST	SEGMENT
??_C@_0CK@FMNEIMBA@?$FLCredit?5Donate?$FN?3Buy?5Wcoin?5Multip@ DB '[Credi'
	DB	't Donate]:Buy Wcoin Multiple of 100', 00H	; `string'
CONST	ENDS
;	COMDAT ??_C@_0CD@MKHEPPBN@?$FLMonster?5Bonus?$FN?3?5?$CL?$CFd?5Goblin?5Poin@
CONST	SEGMENT
??_C@_0CD@MKHEPPBN@?$FLMonster?5Bonus?$FN?3?5?$CL?$CFd?5Goblin?5Poin@ DB '['
	DB	'Monster Bonus]: +%d Goblin Points', 00H	; `string'
CONST	ENDS
;	COMDAT ??_C@_0BM@OBHKPNPP@?$FLMonster?5Bonus?$FN?3?5?$CL?$CFd?5WcoinP?$AA@
CONST	SEGMENT
??_C@_0BM@OBHKPNPP@?$FLMonster?5Bonus?$FN?3?5?$CL?$CFd?5WcoinP?$AA@ DB '['
	DB	'Monster Bonus]: +%d WcoinP', 00H		; `string'
CONST	ENDS
;	COMDAT ??_C@_0BM@IAJFLMGN@?$FLMonster?5Bonus?$FN?3?5?$CL?$CFd?5WcoinC?$AA@
CONST	SEGMENT
??_C@_0BM@IAJFLMGN@?$FLMonster?5Bonus?$FN?3?5?$CL?$CFd?5WcoinC?$AA@ DB '['
	DB	'Monster Bonus]: +%d WcoinC', 00H		; `string'
CONST	ENDS
;	COMDAT ??_C@_0BN@OLDBCGLM@?$FLMonster?5Bonus?$FN?3?5?$CL?$CFd?5Credits?$AA@
CONST	SEGMENT
??_C@_0BN@OLDBCGLM@?$FLMonster?5Bonus?$FN?3?5?$CL?$CFd?5Credits?$AA@ DB '['
	DB	'Monster Bonus]: +%d Credits', 00H		; `string'
CONST	ENDS
;	COMDAT ??_C@_0BJ@FNBNDKKL@?$EA?$FL?$CFs?$FN?3?5Goblin?5Points?5?$CFd?$CB?$AA@
CONST	SEGMENT
??_C@_0BJ@FNBNDKKL@?$EA?$FL?$CFs?$FN?3?5Goblin?5Points?5?$CFd?$CB?$AA@ DB '@'
	DB	'[%s]: Goblin Points %d!', 00H		; `string'
CONST	ENDS
;	COMDAT ??_C@_0BC@DIEIONHB@?$EA?$FL?$CFs?$FN?3?5WCoinP?5?$CFd?$CB?$AA@
CONST	SEGMENT
??_C@_0BC@DIEIONHB@?$EA?$FL?$CFs?$FN?3?5WCoinP?5?$CFd?$CB?$AA@ DB '@[%s]:'
	DB	' WCoinP %d!', 00H				; `string'
CONST	ENDS
;	COMDAT ??_C@_0BC@LNAKJNEE@?$EA?$FL?$CFs?$FN?3?5WCoinC?5?$CFd?$CB?$AA@
CONST	SEGMENT
??_C@_0BC@LNAKJNEE@?$EA?$FL?$CFs?$FN?3?5WCoinC?5?$CFd?$CB?$AA@ DB '@[%s]:'
	DB	' WCoinC %d!', 00H				; `string'
CONST	ENDS
;	COMDAT ??_C@_0BC@KBALHELM@?$EA?$FL?$CFs?$FN?3?5ZtCred?5?$CFd?$CB?$AA@
CONST	SEGMENT
??_C@_0BC@KBALHELM@?$EA?$FL?$CFs?$FN?3?5ZtCred?5?$CFd?$CB?$AA@ DB '@[%s]:'
	DB	' ZtCred %d!', 00H				; `string'
CONST	ENDS
;	COMDAT ??_C@_0BG@MANINCDG@?$EA?$FL?$CFs?$FN?3?5FreePoints?5?$CFd?$CB?$AA@
CONST	SEGMENT
??_C@_0BG@MANINCDG@?$EA?$FL?$CFs?$FN?3?5FreePoints?5?$CFd?$CB?$AA@ DB '@['
	DB	'%s]: FreePoints %d!', 00H			; `string'
CONST	ENDS
;	COMDAT ??_C@_0BN@LLEFKEPK@?$EA?$FL?$CFs?$FN?3?5Mission?5accomplished?$CB?$AA@
CONST	SEGMENT
??_C@_0BN@LLEFKEPK@?$EA?$FL?$CFs?$FN?3?5Mission?5accomplished?$CB?$AA@ DB '@'
	DB	'[%s]: Mission accomplished!', 00H		; `string'
CONST	ENDS
;	COMDAT ??_C@_0BD@DALIAMPI@?$EA?$FL?$CFs?$FN?3?5Mission?3?5?$CFd?$AA@
CONST	SEGMENT
??_C@_0BD@DALIAMPI@?$EA?$FL?$CFs?$FN?3?5Mission?3?5?$CFd?$AA@ DB '@[%s]: '
	DB	'Mission: %d', 00H				; `string'
CONST	ENDS
;	COMDAT ??_C@_0BK@GLEDHAJM@?$FLHappy?5Hour?$FN?5Event?5Close?$CB?$AA@
CONST	SEGMENT
??_C@_0BK@GLEDHAJM@?$FLHappy?5Hour?$FN?5Event?5Close?$CB?$AA@ DB '[Happy '
	DB	'Hour] Event Close!', 00H			; `string'
CONST	ENDS
;	COMDAT ??_C@_0CJ@MDEEPFFJ@?$FLHappy?5Hour?$FN?5Exp?3?5?$CL?$CFd?$CF?$CF?$CF?$CF?5Drop?3?5@
CONST	SEGMENT
??_C@_0CJ@MDEEPFFJ@?$FLHappy?5Hour?$FN?5Exp?3?5?$CL?$CFd?$CF?$CF?$CF?$CF?5Drop?3?5@ DB '['
	DB	'Happy Hour] Exp: +%d%%%% Drop: +%d%%%%%', 00H ; `string'
CONST	ENDS
;	COMDAT ??_C@_0BM@JPLLBIDJ@?$FLHappy?5Hour?$FN?5Event?5Started?$CB?$AA@
CONST	SEGMENT
??_C@_0BM@JPLLBIDJ@?$FLHappy?5Hour?$FN?5Event?5Started?$CB?$AA@ DB '[Happ'
	DB	'y Hour] Event Started!', 00H		; `string'
CONST	ENDS
;	COMDAT ??_C@_0BC@FHHCMEHD@?$FLEvangelion?$FN?5End?$CB?$AA@
CONST	SEGMENT
??_C@_0BC@FHHCMEHD@?$FLEvangelion?$FN?5End?$CB?$AA@ DB '[Evangelion] End!'
	DB	00H						; `string'
CONST	ENDS
;	COMDAT ??_C@_0BK@NFIPBKLM@?$FLEvangelion?$FN?5In?5Lorencia?$CB?$AA@
CONST	SEGMENT
??_C@_0BK@NFIPBKLM@?$FLEvangelion?$FN?5In?5Lorencia?$CB?$AA@ DB '[Evangel'
	DB	'ion] In Lorencia!', 00H			; `string'
CONST	ENDS
;	COMDAT ??_C@_0BM@BFEGMEHA@?$FLEvangelion?$FN?5Devias?5Win?5?$CFs?$CB?$AA@
CONST	SEGMENT
??_C@_0BM@BFEGMEHA@?$FLEvangelion?$FN?5Devias?5Win?5?$CFs?$CB?$AA@ DB '[E'
	DB	'vangelion] Devias Win %s!', 00H		; `string'
CONST	ENDS
;	COMDAT ??_C@_0BI@OBOMMEGL@?$FLEvangelion?$FN?5In?5Devias?$CB?$AA@
CONST	SEGMENT
??_C@_0BI@OBOMMEGL@?$FLEvangelion?$FN?5In?5Devias?$CB?$AA@ DB '[Evangelio'
	DB	'n] In Devias!', 00H				; `string'
CONST	ENDS
;	COMDAT ??_C@_0BL@DFMNOIC@?$FLEvangelion?$FN?5Noria?5Win?5?$CFs?$CB?$AA@
CONST	SEGMENT
??_C@_0BL@DFMNOIC@?$FLEvangelion?$FN?5Noria?5Win?5?$CFs?$CB?$AA@ DB '[Eva'
	DB	'ngelion] Noria Win %s!', 00H		; `string'
CONST	ENDS
;	COMDAT ??_C@_0BH@NGNDIGCL@?$FLEvangelion?$FN?5In?5Noria?$CB?$AA@
CONST	SEGMENT
??_C@_0BH@NGNDIGCL@?$FLEvangelion?$FN?5In?5Noria?$CB?$AA@ DB '[Evangelion'
	DB	'] In Noria!', 00H				; `string'
CONST	ENDS
;	COMDAT ??_C@_0BO@JENKFAJA@?$FLEvangelion?$FN?5Lorencia?5Win?5?$CFs?$CB?$AA@
CONST	SEGMENT
??_C@_0BO@JENKFAJA@?$FLEvangelion?$FN?5Lorencia?5Win?5?$CFs?$CB?$AA@ DB '['
	DB	'Evangelion] Lorencia Win %s!', 00H		; `string'
CONST	ENDS
;	COMDAT ??_C@_0BM@CGIKKGMH@?$HO?$FLCredit?$FN?3?5Online?5Bonus?3?5?$CFd?$AA@
CONST	SEGMENT
??_C@_0BM@CGIKKGMH@?$HO?$FLCredit?$FN?3?5Online?5Bonus?3?5?$CFd?$AA@ DB '~'
	DB	'[Credit]: Online Bonus: %d', 00H		; `string'
CONST	ENDS
;	COMDAT ??_C@_0BM@JNEHDAID@?$HO?$FLGoblin?$FN?3?5Online?5Bonus?3?5?$CFd?$AA@
CONST	SEGMENT
??_C@_0BM@JNEHDAID@?$HO?$FLGoblin?$FN?3?5Online?5Bonus?3?5?$CFd?$AA@ DB '~'
	DB	'[Goblin]: Online Bonus: %d', 00H		; `string'
CONST	ENDS
;	COMDAT ??_C@_0BM@JLLGHFCO@?$HO?$FLWCoinP?$FN?3?5Online?5Bonus?3?5?$CFd?$AA@
CONST	SEGMENT
??_C@_0BM@JLLGHFCO@?$HO?$FLWCoinP?$FN?3?5Online?5Bonus?3?5?$CFd?$AA@ DB '~'
	DB	'[WCoinP]: Online Bonus: %d', 00H		; `string'
CONST	ENDS
;	COMDAT ??_C@_0BM@KLEMOFCB@?$HO?$FLWCoinC?$FN?3?5Online?5Bonus?3?5?$CFd?$AA@
CONST	SEGMENT
??_C@_0BM@KLEMOFCB@?$HO?$FLWCoinC?$FN?3?5Online?5Bonus?3?5?$CFd?$AA@ DB '~'
	DB	'[WCoinC]: Online Bonus: %d', 00H		; `string'
CONST	ENDS
;	COMDAT ??_C@_0BG@GJDHCBJN@?$FLBuy?$FN?5Price?5?$CFd?5Goblin?$AA@
CONST	SEGMENT
??_C@_0BG@GJDHCBJN@?$FLBuy?$FN?5Price?5?$CFd?5Goblin?$AA@ DB '[Buy] Price'
	DB	' %d Goblin', 00H				; `string'
CONST	ENDS
;	COMDAT ??_C@_0BF@OIGNJAK@?$FLBuy?$FN?5Need?5?$CFd?5Goblin?$AA@
CONST	SEGMENT
??_C@_0BF@OIGNJAK@?$FLBuy?$FN?5Need?5?$CFd?5Goblin?$AA@ DB '[Buy] Need %d'
	DB	' Goblin', 00H				; `string'
CONST	ENDS
;	COMDAT ??_C@_0BF@JCPCLJPC@?$FLBuy?$FN?5Need?5?$CFd?5WCoinP?$AA@
CONST	SEGMENT
??_C@_0BF@JCPCLJPC@?$FLBuy?$FN?5Need?5?$CFd?5WCoinP?$AA@ DB '[Buy] Need %'
	DB	'd WCoinP', 00H				; `string'
CONST	ENDS
;	COMDAT ??_C@_0BG@JEKMAAPH@?$FLBuy?$FN?5Price?5?$CFd?5WCoinC?$AA@
CONST	SEGMENT
??_C@_0BG@JEKMAAPH@?$FLBuy?$FN?5Price?5?$CFd?5WCoinC?$AA@ DB '[Buy] Price'
	DB	' %d WCoinC', 00H				; `string'
CONST	ENDS
;	COMDAT ??_C@_0BF@PDBNPIGA@?$FLBuy?$FN?5Need?5?$CFd?5WCoinC?$AA@
CONST	SEGMENT
??_C@_0BF@PDBNPIGA@?$FLBuy?$FN?5Need?5?$CFd?5WCoinC?$AA@ DB '[Buy] Need %'
	DB	'd WCoinC', 00H				; `string'
CONST	ENDS
;	COMDAT ??_C@_0BG@OFIJBKOP@?$FLBuy?$FN?5Price?5?$CFd?5Credit?$AA@
CONST	SEGMENT
??_C@_0BG@OFIJBKOP@?$FLBuy?$FN?5Price?5?$CFd?5Credit?$AA@ DB '[Buy] Price'
	DB	' %d Credit', 00H				; `string'
CONST	ENDS
;	COMDAT ??_C@_0BF@ICDIOCHI@?$FLBuy?$FN?5Need?5?$CFd?5Credit?$AA@
CONST	SEGMENT
??_C@_0BF@ICDIOCHI@?$FLBuy?$FN?5Need?5?$CFd?5Credit?$AA@ DB '[Buy] Need %'
	DB	'd Credit', 00H				; `string'
CONST	ENDS
;	COMDAT ??_C@_0BC@GHOMDOGB@?$FLBuy?$FN?5Need?5?$CFd?5Zen?$AA@
CONST	SEGMENT
??_C@_0BC@GHOMDOGB@?$FLBuy?$FN?5Need?5?$CFd?5Zen?$AA@ DB '[Buy] Need %d Z'
	DB	'en', 00H					; `string'
CONST	ENDS
;	COMDAT ??_C@_0BF@BBLCPHHL@Max?5Zen?5In?5Inventory?$AA@
CONST	SEGMENT
??_C@_0BF@BBLCPHHL@Max?5Zen?5In?5Inventory?$AA@ DB 'Max Zen In Inventory', 00H ; `string'
CONST	ENDS
;	COMDAT ??_C@_0BL@DLGFFCMG@In?5?$CFs?5Max?5Zen?5In?5Inventory?$AA@
CONST	SEGMENT
??_C@_0BL@DLGFFCMG@In?5?$CFs?5Max?5Zen?5In?5Inventory?$AA@ DB 'In %s Max '
	DB	'Zen In Inventory', 00H			; `string'
CONST	ENDS
;	COMDAT ??_C@_0BN@EKEIPIHO@?$FLOffTrade?$FN?5Need?5?$CFd?5Life?5Bank?$AA@
CONST	SEGMENT
??_C@_0BN@EKEIPIHO@?$FLOffTrade?$FN?5Need?5?$CFd?5Life?5Bank?$AA@ DB '[Of'
	DB	'fTrade] Need %d Life Bank', 00H		; `string'
CONST	ENDS
;	COMDAT ??_C@_0BN@IIFLCIIK@?$FLOffTrade?$FN?5Need?5?$CFd?5Soul?5Bank?$AA@
CONST	SEGMENT
??_C@_0BN@IIFLCIIK@?$FLOffTrade?$FN?5Need?5?$CFd?5Soul?5Bank?$AA@ DB '[Of'
	DB	'fTrade] Need %d Soul Bank', 00H		; `string'
CONST	ENDS
;	COMDAT ??_C@_0BO@IJDAJIJG@?$FLOffTrade?$FN?5Need?5?$CFd?5Bless?5Bank?$AA@
CONST	SEGMENT
??_C@_0BO@IJDAJIJG@?$FLOffTrade?$FN?5Need?5?$CFd?5Bless?5Bank?$AA@ DB '[O'
	DB	'ffTrade] Need %d Bless Bank', 00H		; `string'
CONST	ENDS
;	COMDAT ??_C@_0BO@DHKNJCEE@?$FLOffTrade?$FN?5Need?5?$CFd?5Chaos?5Bank?$AA@
CONST	SEGMENT
??_C@_0BO@DHKNJCEE@?$FLOffTrade?$FN?5Need?5?$CFd?5Chaos?5Bank?$AA@ DB '[O'
	DB	'ffTrade] Need %d Chaos Bank', 00H		; `string'
CONST	ENDS
;	COMDAT ??_C@_0BK@DKJMKJFO@?$FLOffTrade?$FN?5Need?5?$CFd?5WCoinG?$AA@
CONST	SEGMENT
??_C@_0BK@DKJMKJFO@?$FLOffTrade?$FN?5Need?5?$CFd?5WCoinG?$AA@ DB '[OffTra'
	DB	'de] Need %d WCoinG', 00H			; `string'
CONST	ENDS
;	COMDAT ??_C@_0BK@DPBPCNMI@?$FLOffTrade?$FN?5Need?5?$CFd?5WCoinP?$AA@
CONST	SEGMENT
??_C@_0BK@DPBPCNMI@?$FLOffTrade?$FN?5Need?5?$CFd?5WCoinP?$AA@ DB '[OffTra'
	DB	'de] Need %d WCoinP', 00H			; `string'
CONST	ENDS
;	COMDAT ??_C@_0BK@FOPAGMFK@?$FLOffTrade?$FN?5Need?5?$CFd?5WCoinC?$AA@
CONST	SEGMENT
??_C@_0BK@FOPAGMFK@?$FLOffTrade?$FN?5Need?5?$CFd?5WCoinC?$AA@ DB '[OffTra'
	DB	'de] Need %d WCoinC', 00H			; `string'
CONST	ENDS
;	COMDAT ??_C@_0BL@NCOFGJCD@?$FLOffTrade?$FN?5Need?5?$CFd?5PcPoint?$AA@
CONST	SEGMENT
??_C@_0BL@NCOFGJCD@?$FLOffTrade?$FN?5Need?5?$CFd?5PcPoint?$AA@ DB '[OffTr'
	DB	'ade] Need %d PcPoint', 00H			; `string'
CONST	ENDS
;	COMDAT ??_C@_0CC@LHBNDNI@?$FLOffTrade?$FN?5work?5only?5special?5map@
CONST	SEGMENT
??_C@_0CC@LHBNDNI@?$FLOffTrade?$FN?5work?5only?5special?5map@ DB '[OffTra'
	DB	'de] work only special maps', 00H		; `string'
CONST	ENDS
;	COMDAT ??_C@_0BF@MIALOGLA@?$FL?$CFs?$FN?$FL?$CFs?$FN?5Loren?5?$CFd?5?$CFd?$AA@
CONST	SEGMENT
??_C@_0BF@MIALOGLA@?$FL?$CFs?$FN?$FL?$CFs?$FN?5Loren?5?$CFd?5?$CFd?$AA@ DB '['
	DB	'%s][%s] Loren %d %d', 00H			; `string'
CONST	ENDS
;	COMDAT ??_C@_0BH@LBAPANHP@?$FL?$CFs?$FN?$FL?$CFs?$FN?5Emblend?5?$CFd?5?$CFd?$AA@
CONST	SEGMENT
??_C@_0BH@LBAPANHP@?$FL?$CFs?$FN?$FL?$CFs?$FN?5Emblend?5?$CFd?5?$CFd?$AA@ DB '['
	DB	'%s][%s] Emblend %d %d', 00H			; `string'
CONST	ENDS
;	COMDAT ??_C@_0BF@BLCEJJJH@?$FL?$CFs?$FN?$FL?$CFs?$FN?5Noria?5?$CFd?5?$CFd?$AA@
CONST	SEGMENT
??_C@_0BF@BLCEJJJH@?$FL?$CFs?$FN?$FL?$CFs?$FN?5Noria?5?$CFd?5?$CFd?$AA@ DB '['
	DB	'%s][%s] Noria %d %d', 00H			; `string'
CONST	ENDS
;	COMDAT ??_C@_0BG@KJDAJKBP@?$FL?$CFs?$FN?$FL?$CFs?$FN?5Devias?5?$CFd?5?$CFd?$AA@
CONST	SEGMENT
??_C@_0BG@KJDAJKBP@?$FL?$CFs?$FN?$FL?$CFs?$FN?5Devias?5?$CFd?5?$CFd?$AA@ DB '['
	DB	'%s][%s] Devias %d %d', 00H			; `string'
CONST	ENDS
;	COMDAT ??_C@_0BI@MAEGLEHI@?$FL?$CFs?$FN?$FL?$CFs?$FN?5Lorencia?5?$CFd?5?$CFd?$AA@
CONST	SEGMENT
??_C@_0BI@MAEGLEHI@?$FL?$CFs?$FN?$FL?$CFs?$FN?5Lorencia?5?$CFd?5?$CFd?$AA@ DB '['
	DB	'%s][%s] Lorencia %d %d', 00H		; `string'
CONST	ENDS
;	COMDAT ??_C@_0BA@GPOPIKKI@?4?3?3LIFE?5SHOP?3?3?4?$AA@
CONST	SEGMENT
??_C@_0BA@GPOPIKKI@?4?3?3LIFE?5SHOP?3?3?4?$AA@ DB '.::LIFE SHOP::.', 00H ; `string'
CONST	ENDS
;	COMDAT ??_C@_0BA@NIKENFKH@?4?3?3SOUL?5SHOP?3?3?4?$AA@
CONST	SEGMENT
??_C@_0BA@NIKENFKH@?4?3?3SOUL?5SHOP?3?3?4?$AA@ DB '.::SOUL SHOP::.', 00H ; `string'
CONST	ENDS
;	COMDAT ??_C@_0BB@DOAHPBOB@?4?3?3BLESS?5SHOP?3?3?4?$AA@
CONST	SEGMENT
??_C@_0BB@DOAHPBOB@?4?3?3BLESS?5SHOP?3?3?4?$AA@ DB '.::BLESS SHOP::.', 00H ; `string'
CONST	ENDS
;	COMDAT ??_C@_0BB@MEFLBHHC@?4?3?3CHAOS?5SHOP?3?3?4?$AA@
CONST	SEGMENT
??_C@_0BB@MEFLBHHC@?4?3?3CHAOS?5SHOP?3?3?4?$AA@ DB '.::CHAOS SHOP::.', 00H ; `string'
CONST	ENDS
;	COMDAT ??_C@_0BC@ECPKDNH@?4?3?3GOBLIN?5SHOP?3?3?4?$AA@
CONST	SEGMENT
??_C@_0BC@ECPKDNH@?4?3?3GOBLIN?5SHOP?3?3?4?$AA@ DB '.::GOBLIN SHOP::.', 00H ; `string'
CONST	ENDS
;	COMDAT ??_C@_0BE@BFOPECO@?4?3?3WCOIN?$CIP?$CJ?5SHOP?3?3?4?$AA@
CONST	SEGMENT
??_C@_0BE@BFOPECO@?4?3?3WCOIN?$CIP?$CJ?5SHOP?3?3?4?$AA@ DB '.::WCOIN(P) S'
	DB	'HOP::.', 00H				; `string'
CONST	ENDS
;	COMDAT ??_C@_0BB@IPFIAIKD@?4?3?3WCOIN?5SHOP?3?3?4?$AA@
CONST	SEGMENT
??_C@_0BB@IPFIAIKD@?4?3?3WCOIN?5SHOP?3?3?4?$AA@ DB '.::WCOIN SHOP::.', 00H ; `string'
CONST	ENDS
;	COMDAT ??_C@_0BC@BEOIOLAE@?4?3?3CREDIT?5SHOP?3?3?4?$AA@
CONST	SEGMENT
??_C@_0BC@BEOIOLAE@?4?3?3CREDIT?5SHOP?3?3?4?$AA@ DB '.::CREDIT SHOP::.', 00H ; `string'
CONST	ENDS
;	COMDAT ??_C@_0P@KNLBLEED@?4?3?3ZEN?5SHOP?3?3?4?$AA@
CONST	SEGMENT
??_C@_0P@KNLBLEED@?4?3?3ZEN?5SHOP?3?3?4?$AA@ DB '.::ZEN SHOP::.', 00H ; `string'
CONST	ENDS
;	COMDAT ??_C@_0CH@IHHOOGEB@?$FLOffline?5Trade?$FN?5work?5only?5specia@
CONST	SEGMENT
??_C@_0CH@IHHOOGEB@?$FLOffline?5Trade?$FN?5work?5only?5specia@ DB '[Offli'
	DB	'ne Trade] work only special maps', 00H	; `string'
CONST	ENDS
;	COMDAT ??_C@_0BL@FNOCMMHI@?$FLOffTrade?$FN?$FL?$CFs?$FN?5Loren?5?$CFd?5?$CFd?$AA@
CONST	SEGMENT
??_C@_0BL@FNOCMMHI@?$FLOffTrade?$FN?$FL?$CFs?$FN?5Loren?5?$CFd?5?$CFd?$AA@ DB '['
	DB	'OffTrade][%s] Loren %d %d', 00H		; `string'
CONST	ENDS
;	COMDAT ??_C@_0BN@GJJHAMAG@?$FLOffTrade?$FN?$FL?$CFs?$FN?5Emblend?5?$CFd?5?$CFd?$AA@
CONST	SEGMENT
??_C@_0BN@GJJHAMAG@?$FLOffTrade?$FN?$FL?$CFs?$FN?5Emblend?5?$CFd?5?$CFd?$AA@ DB '['
	DB	'OffTrade][%s] Emblend %d %d', 00H		; `string'
CONST	ENDS
;	COMDAT ??_C@_0BL@IOMNLDFP@?$FLOffTrade?$FN?$FL?$CFs?$FN?5Noria?5?$CFd?5?$CFd?$AA@
CONST	SEGMENT
??_C@_0BL@IOMNLDFP@?$FLOffTrade?$FN?$FL?$CFs?$FN?5Noria?5?$CFd?5?$CFd?$AA@ DB '['
	DB	'OffTrade][%s] Noria %d %d', 00H		; `string'
CONST	ENDS
;	COMDAT ??_C@_0BM@DMBKDJLH@?$FLOffTrade?$FN?$FL?$CFs?$FN?5Devias?5?$CFd?5?$CFd?$AA@
CONST	SEGMENT
??_C@_0BM@DMBKDJLH@?$FLOffTrade?$FN?$FL?$CFs?$FN?5Devias?5?$CFd?5?$CFd?$AA@ DB '['
	DB	'OffTrade][%s] Devias %d %d', 00H		; `string'
CONST	ENDS
;	COMDAT ??_C@_0BO@OJEHOFOB@?$FLOffTrade?$FN?$FL?$CFs?$FN?5Lorencia?5?$CFd?5?$CFd?$AA@
CONST	SEGMENT
??_C@_0BO@OJEHOFOB@?$FLOffTrade?$FN?$FL?$CFs?$FN?5Lorencia?5?$CFd?5?$CFd?$AA@ DB '['
	DB	'OffTrade][%s] Lorencia %d %d', 00H		; `string'
CONST	ENDS
;	COMDAT ??_C@_0BK@JCDLIHIH@?$FLOffTrade?$FN?5Need?5Open?5Shop?$AA@
CONST	SEGMENT
??_C@_0BK@JCDLIHIH@?$FLOffTrade?$FN?5Need?5Open?5Shop?$AA@ DB '[OffTrade]'
	DB	' Need Open Shop', 00H			; `string'
CONST	ENDS
;	COMDAT ??_C@_0CH@JMGBEBME@?$FLOffTrade?$FN?5Disable?5in?5Castle?5sie@
CONST	SEGMENT
??_C@_0CH@JMGBEBME@?$FLOffTrade?$FN?5Disable?5in?5Castle?5sie@ DB '[OffTr'
	DB	'ade] Disable in Castle siege map', 00H	; `string'
CONST	ENDS
;	COMDAT ??_C@_0BD@IPGMBHGD@?$FLOfflineTrade?$FN?$FL?$CFs?$FN?$AA@
CONST	SEGMENT
??_C@_0BD@IPGMBHGD@?$FLOfflineTrade?$FN?$FL?$CFs?$FN?$AA@ DB '[OfflineTra'
	DB	'de][%s]', 00H				; `string'
CONST	ENDS
;	COMDAT ??_C@_0CL@IJMEMPLE@?$FLOffTrade?$FN?5OffTrade?5work?5only?5Lo@
CONST	SEGMENT
??_C@_0CL@IJMEMPLE@?$FLOffTrade?$FN?5OffTrade?5work?5only?5Lo@ DB '[OffTr'
	DB	'ade] OffTrade work only Loren Market', 00H	; `string'
CONST	ENDS
;	COMDAT ??_C@_0CK@NAELDEKN@?$FLOfflineMode?$FN?5Disable?5in?5Castle?5@
CONST	SEGMENT
??_C@_0CK@NAELDEKN@?$FLOfflineMode?$FN?5Disable?5in?5Castle?5@ DB '[Offli'
	DB	'neMode] Disable in Castle siege map', 00H	; `string'
CONST	ENDS
;	COMDAT ??_C@_0BO@CLFENIBF@?$FLJewels?$FN?5Item?5Exellent?5Status?$AA@
CONST	SEGMENT
??_C@_0BO@CLFENIBF@?$FLJewels?$FN?5Item?5Exellent?5Status?$AA@ DB '[Jewel'
	DB	's] Item Exellent Status', 00H		; `string'
CONST	ENDS
;	COMDAT ??_C@_0BM@OMDDMGGO@?$FLJewels?$FN?5No?5Use?5Item?5Socket?$AA@
CONST	SEGMENT
??_C@_0BM@OMDDMGGO@?$FLJewels?$FN?5No?5Use?5Item?5Socket?$AA@ DB '[Jewels'
	DB	'] No Use Item Socket', 00H			; `string'
CONST	ENDS
;	COMDAT ??_C@_0BO@JJNPMFLC@?$FLJewels?$FN?5Max?5Socket?5option?5?$CFd?$AA@
CONST	SEGMENT
??_C@_0BO@JJNPMFLC@?$FLJewels?$FN?5Max?5Socket?5option?5?$CFd?$AA@ DB '[J'
	DB	'ewels] Max Socket option %d', 00H		; `string'
CONST	ENDS
;	COMDAT ??_C@_0BF@JOAPLKJN@?$FLJewels?$FN?5Item?5is?5PvP?$AA@
CONST	SEGMENT
??_C@_0BF@JOAPLKJN@?$FLJewels?$FN?5Item?5is?5PvP?$AA@ DB '[Jewels] Item i'
	DB	's PvP', 00H					; `string'
CONST	ENDS
;	COMDAT ??_C@_0BJ@HIDKABDK@?$FLJewels?$FN?5No?5Use?5Item?5PvP?$AA@
CONST	SEGMENT
??_C@_0BJ@HIDKABDK@?$FLJewels?$FN?5No?5Use?5Item?5PvP?$AA@ DB '[Jewels] N'
	DB	'o Use Item PvP', 00H			; `string'
CONST	ENDS
;	COMDAT ??_C@_0BM@OHHBFMIC@?$FLJewels?$FN?5Max?5Option?5to?5Item?$AA@
CONST	SEGMENT
??_C@_0BM@OHHBFMIC@?$FLJewels?$FN?5Max?5Option?5to?5Item?$AA@ DB '[Jewels'
	DB	'] Max Option to Item', 00H			; `string'
CONST	ENDS
;	COMDAT ??_C@_0BI@LGBBPIKN@?$FLJewels?$FN?5Item?5is?5Ancent?$AA@
CONST	SEGMENT
??_C@_0BI@LGBBPIKN@?$FLJewels?$FN?5Item?5is?5Ancent?$AA@ DB '[Jewels] Ite'
	DB	'm is Ancent', 00H				; `string'
CONST	ENDS
;	COMDAT ??_C@_0BM@DLKEAAPO@?$FLJewels?$FN?5No?5Use?5Item?5Ancent?$AA@
CONST	SEGMENT
??_C@_0BM@DLKEAAPO@?$FLJewels?$FN?5No?5Use?5Item?5Ancent?$AA@ DB '[Jewels'
	DB	'] No Use Item Ancent', 00H			; `string'
CONST	ENDS
;	COMDAT ??_C@_0BF@JAODIPNO@?$FLJewels?$FN?5No?5use?5item?$AA@
CONST	SEGMENT
??_C@_0BF@JAODIPNO@?$FLJewels?$FN?5No?5use?5item?$AA@ DB '[Jewels] No use'
	DB	' item', 00H					; `string'
CONST	ENDS
;	COMDAT ??_C@_0BO@OEOJOBIJ@?$FLJewels?$FN?5Item?5Exellent?5status?$AA@
CONST	SEGMENT
??_C@_0BO@OEOJOBIJ@?$FLJewels?$FN?5Item?5Exellent?5status?$AA@ DB '[Jewel'
	DB	's] Item Exellent status', 00H		; `string'
CONST	ENDS
;	COMDAT ??_C@_0BL@NKONFKM@?$FLJewels?$FN?5No?5use?5item?5Level?$AA@
CONST	SEGMENT
??_C@_0BL@NKONFKM@?$FLJewels?$FN?5No?5use?5item?5Level?$AA@ DB '[Jewels] '
	DB	'No use item Level', 00H			; `string'
CONST	ENDS
;	COMDAT ??_C@_0BL@JLMMBGJC@?$FLJewels?$FN?5Min?5Level?5Item?5?$CFd?$AA@
CONST	SEGMENT
??_C@_0BL@JLMMBGJC@?$FLJewels?$FN?5Min?5Level?5Item?5?$CFd?$AA@ DB '[Jewe'
	DB	'ls] Min Level Item %d', 00H			; `string'
CONST	ENDS
;	COMDAT ??_C@_0BL@MIGKAOHG@?$FLJewels?$FN?5Max?5Level?5Item?5?$CFd?$AA@
CONST	SEGMENT
??_C@_0BL@MIGKAOHG@?$FLJewels?$FN?5Max?5Level?5Item?5?$CFd?$AA@ DB '[Jewe'
	DB	'ls] Max Level Item %d', 00H			; `string'
CONST	ENDS
;	COMDAT ??_C@_0BL@EABJKCPD@?$FLJewels?$FN?5No?5use?5item?5skill?$AA@
CONST	SEGMENT
??_C@_0BL@EABJKCPD@?$FLJewels?$FN?5No?5use?5item?5skill?$AA@ DB '[Jewels]'
	DB	' No use item skill', 00H			; `string'
CONST	ENDS
;	COMDAT ??_C@_0BM@OPNKJJKH@?$FLJewels?$FN?5Is?5Weapon?5to?5Skill?$AA@
CONST	SEGMENT
??_C@_0BM@OPNKJJKH@?$FLJewels?$FN?5Is?5Weapon?5to?5Skill?$AA@ DB '[Jewels'
	DB	'] Is Weapon to Skill', 00H			; `string'
CONST	ENDS
;	COMDAT ??_C@_0BK@JCANILHH@?$FLJewels?$FN?5No?5use?5item?5luck?$AA@
CONST	SEGMENT
??_C@_0BK@JCANILHH@?$FLJewels?$FN?5No?5use?5item?5luck?$AA@ DB '[Jewels] '
	DB	'No use item luck', 00H			; `string'
CONST	ENDS
;	COMDAT ??_C@_0BI@BNEAPBOP@?$FLJewels?$FN?5Is?5Set?5to?5Luck?$AA@
CONST	SEGMENT
??_C@_0BI@BNEAPBOP@?$FLJewels?$FN?5Is?5Set?5to?5Luck?$AA@ DB '[Jewels] Is'
	DB	' Set to Luck', 00H				; `string'
CONST	ENDS
;	COMDAT ??_C@_0BN@GPPEHKBE@?$FLJewels?$FN?5Need?5Item?5Accessory?$AA@
CONST	SEGMENT
??_C@_0BN@GPPEHKBE@?$FLJewels?$FN?5Need?5Item?5Accessory?$AA@ DB '[Jewels'
	DB	'] Need Item Accessory', 00H			; `string'
CONST	ENDS
;	COMDAT ??_C@_0BL@INEMADPH@?$FLJewels?$FN?5Min?5Item?5Level?5?$CFd?$AA@
CONST	SEGMENT
??_C@_0BL@INEMADPH@?$FLJewels?$FN?5Min?5Item?5Level?5?$CFd?$AA@ DB '[Jewe'
	DB	'ls] Min Item Level %d', 00H			; `string'
CONST	ENDS
;	COMDAT ??_C@_0BL@NOOKBLBD@?$FLJewels?$FN?5Max?5Item?5Level?5?$CFd?$AA@
CONST	SEGMENT
??_C@_0BL@NOOKBLBD@?$FLJewels?$FN?5Max?5Item?5Level?5?$CFd?$AA@ DB '[Jewe'
	DB	'ls] Max Item Level %d', 00H			; `string'
CONST	ENDS
;	COMDAT ??_C@_0CD@CKINFCHP@?$FLJewels?$FN?5Need?5Item?5Exellent?5Stat@
CONST	SEGMENT
??_C@_0CD@CKINFCHP@?$FLJewels?$FN?5Need?5Item?5Exellent?5Stat@ DB '[Jewel'
	DB	's] Need Item Exellent Status', 00H		; `string'
CONST	ENDS
;	COMDAT ??_C@_0CA@GHJGABEM@?$FLJewels?$FN?5Max?5?$CFd?5Exellent?5Option?$AA@
CONST	SEGMENT
??_C@_0CA@GHJGABEM@?$FLJewels?$FN?5Max?5?$CFd?5Exellent?5Option?$AA@ DB '['
	DB	'Jewels] Max %d Exellent Option', 00H	; `string'
CONST	ENDS
;	COMDAT ??_C@_0CN@NMLOMMO@?$FLGReset?$FN?3?5You?5need?5Empty?5Invento@
CONST	SEGMENT
??_C@_0CN@NMLOMMO@?$FLGReset?$FN?3?5You?5need?5Empty?5Invento@ DB '[GRese'
	DB	't]: You need Empty Inventory to GReset', 00H ; `string'
CONST	ENDS
;	COMDAT ??_C@_0CK@FCBCNAMG@?$FLGReset?$FN?3?5You?5need?5above?5?$CFd?5Zen?5@
CONST	SEGMENT
??_C@_0CK@FCBCNAMG@?$FLGReset?$FN?3?5You?5need?5above?5?$CFd?5Zen?5@ DB '['
	DB	'GReset]: You need above %d Zen to GReset', 00H ; `string'
CONST	ENDS
;	COMDAT ??_C@_0CM@HPMBDCHP@?$FLGReset?$FN?3?5You?5need?5above?5?$CFd?5Leve@
CONST	SEGMENT
??_C@_0CM@HPMBDCHP@?$FLGReset?$FN?3?5You?5need?5above?5?$CFd?5Leve@ DB '['
	DB	'GReset]: You need above %d Level to GReset', 00H ; `string'
CONST	ENDS
;	COMDAT ??_C@_0CM@DHNDAPCF@?$FLGReset?$FN?3?5You?5need?5above?5?$CFd?5Rese@
CONST	SEGMENT
??_C@_0CM@DHNDAPCF@?$FLGReset?$FN?3?5You?5need?5above?5?$CFd?5Rese@ DB '['
	DB	'GReset]: You need above %d Reset to GReset', 00H ; `string'
CONST	ENDS
;	COMDAT ??_C@_0BN@NFJAONJC@?$FLGReset?$FN?3?5Max?5Grand?5Reset?5?$CFd?$AA@
CONST	SEGMENT
??_C@_0BN@NFJAONJC@?$FLGReset?$FN?3?5Max?5Grand?5Reset?5?$CFd?$AA@ DB '[G'
	DB	'Reset]: Max Grand Reset %d', 00H		; `string'
CONST	ENDS
;	COMDAT ??_C@_0BM@CCOFCGNI@?$FLGReset?$FN?3?5Interface?5Disable?$AA@
CONST	SEGMENT
??_C@_0BM@CCOFCGNI@?$FLGReset?$FN?3?5Interface?5Disable?$AA@ DB '[GReset]'
	DB	': Interface Disable', 00H			; `string'
CONST	ENDS
;	COMDAT ??_C@_0BO@PEPJHIDK@?$FLGReset?$FN?3?5Started?5In?5Lorencia?$AA@
CONST	SEGMENT
??_C@_0BO@PEPJHIDK@?$FLGReset?$FN?3?5Started?5In?5Lorencia?$AA@ DB '[GRes'
	DB	'et]: Started In Lorencia', 00H		; `string'
CONST	ENDS
;	COMDAT ??_C@_0BN@LOHKEBON@?$FLReset?$FN?3?5Need?5Reset?5Items?5?$CFd?$AA@
CONST	SEGMENT
??_C@_0BN@LOHKEBON@?$FLReset?$FN?3?5Need?5Reset?5Items?5?$CFd?$AA@ DB '[R'
	DB	'eset]: Need Reset Items %d', 00H		; `string'
CONST	ENDS
;	COMDAT ??_C@_0CL@HNIKKPDH@?$FLReset?$FN?3?5You?5need?5Empty?5Inventor@
CONST	SEGMENT
??_C@_0CL@HNIKKPDH@?$FLReset?$FN?3?5You?5need?5Empty?5Inventor@ DB '[Rese'
	DB	't]: You need Empty Inventory to Reset', 00H	; `string'
CONST	ENDS
;	COMDAT ??_C@_0CI@KOEBMPOL@?$FLReset?$FN?3?5You?5need?5above?5?$CFd?5Zen?5t@
CONST	SEGMENT
??_C@_0CI@KOEBMPOL@?$FLReset?$FN?3?5You?5need?5above?5?$CFd?5Zen?5t@ DB '['
	DB	'Reset]: You need above %d Zen to Reset', 00H ; `string'
CONST	ENDS
;	COMDAT ??_C@_0CM@EPGGAPLD@?$FLReset?$FN?3?5You?5need?5above?5?$CFd?5Credi@
CONST	SEGMENT
??_C@_0CM@EPGGAPLD@?$FLReset?$FN?3?5You?5need?5above?5?$CFd?5Credi@ DB '['
	DB	'Reset]: You need above %d Credits to Reset', 00H ; `string'
CONST	ENDS
;	COMDAT ??_C@_0CK@JCAEKBGA@?$FLReset?$FN?3?5You?5need?5above?5?$CFd?5Wcoin@
CONST	SEGMENT
??_C@_0CK@JCAEKBGA@?$FLReset?$FN?3?5You?5need?5above?5?$CFd?5Wcoin@ DB '['
	DB	'Reset]: You need above %d Wcoin to Reset', 00H ; `string'
CONST	ENDS
;	COMDAT ??_C@_0CK@JOKEILBF@?$FLReset?$FN?3?5You?5need?5above?5?$CFd?5Level@
CONST	SEGMENT
??_C@_0CK@JOKEILBF@?$FLReset?$FN?3?5You?5need?5above?5?$CFd?5Level@ DB '['
	DB	'Reset]: You need above %d Level to Reset', 00H ; `string'
CONST	ENDS
;	COMDAT ??_C@_0BG@BDFKKKDA@?$FLReset?$FN?3?5Max?5Reset?5?$CFd?$AA@
CONST	SEGMENT
??_C@_0BG@BDFKKKDA@?$FLReset?$FN?3?5Max?5Reset?5?$CFd?$AA@ DB '[Reset]: M'
	DB	'ax Reset %d', 00H				; `string'
CONST	ENDS
;	COMDAT ??_C@_0BL@DMAJGMEH@?$FLReset?$FN?3?5Interface?5Disable?$AA@
CONST	SEGMENT
??_C@_0BL@DMAJGMEH@?$FLReset?$FN?3?5Interface?5Disable?$AA@ DB '[Reset]: '
	DB	'Interface Disable', 00H			; `string'
CONST	ENDS
;	COMDAT ??_C@_0BH@KMBFHLHL@?$FLReset?$FN?3?5Started?5In?5?$CFs?$AA@
CONST	SEGMENT
??_C@_0BH@KMBFHLHL@?$FLReset?$FN?3?5Started?5In?5?$CFs?$AA@ DB '[Reset]: '
	DB	'Started In %s', 00H				; `string'
CONST	ENDS
;	COMDAT ??_C@_0N@LNMNJIEC@?$FLOnline?$FN?3?5?$CFd?$AA@
CONST	SEGMENT
??_C@_0N@LNMNJIEC@?$FLOnline?$FN?3?5?$CFd?$AA@ DB '[Online]: %d', 00H ; `string'
CONST	ENDS
;	COMDAT ??_C@_0N@MAIJFPGO@?$FLGReset?$FN?3?5?$CFd?$AA@
CONST	SEGMENT
??_C@_0N@MAIJFPGO@?$FLGReset?$FN?3?5?$CFd?$AA@ DB '[GReset]: %d', 00H ; `string'
CONST	ENDS
;	COMDAT ??_C@_0M@FDHJPHCM@?$FLReset?$FN?3?5?$CFd?$AA@
CONST	SEGMENT
??_C@_0M@FDHJPHCM@?$FLReset?$FN?3?5?$CFd?$AA@ DB '[Reset]: %d', 00H ; `string'
; Function compile flags: /Ogtp
CONST	ENDS
;	COMDAT ?LoadText@CZtText@@QAEXXZ
_TEXT	SEGMENT
?LoadText@CZtText@@QAEXXZ PROC				; CZtText::LoadText, COMDAT
; _this$ = ecx

; 37   : {

  00000	56		 push	 esi

; 38   : 	this->SetText(0, "[Reset]: %d");

  00001	68 00 00 00 00	 push	 OFFSET ??_C@_0M@FDHJPHCM@?$FLReset?$FN?3?5?$CFd?$AA@
  00006	6a 00		 push	 0
  00008	8b f1		 mov	 esi, ecx
  0000a	e8 00 00 00 00	 call	 ?SetText@CZtText@@QAEXHPAD@Z ; CZtText::SetText

; 39   : 	this->SetText(1, "[GReset]: %d");

  0000f	68 00 00 00 00	 push	 OFFSET ??_C@_0N@MAIJFPGO@?$FLGReset?$FN?3?5?$CFd?$AA@
  00014	6a 01		 push	 1
  00016	8b ce		 mov	 ecx, esi
  00018	e8 00 00 00 00	 call	 ?SetText@CZtText@@QAEXHPAD@Z ; CZtText::SetText

; 40   : 	this->SetText(2, "[Online]: %d");

  0001d	68 00 00 00 00	 push	 OFFSET ??_C@_0N@LNMNJIEC@?$FLOnline?$FN?3?5?$CFd?$AA@
  00022	6a 02		 push	 2
  00024	8b ce		 mov	 ecx, esi
  00026	e8 00 00 00 00	 call	 ?SetText@CZtText@@QAEXHPAD@Z ; CZtText::SetText

; 41   : 	this->SetText(3, "[Reset]: Started In %s");

  0002b	68 00 00 00 00	 push	 OFFSET ??_C@_0BH@KMBFHLHL@?$FLReset?$FN?3?5Started?5In?5?$CFs?$AA@
  00030	6a 03		 push	 3
  00032	8b ce		 mov	 ecx, esi
  00034	e8 00 00 00 00	 call	 ?SetText@CZtText@@QAEXHPAD@Z ; CZtText::SetText

; 42   : 	this->SetText(4, "[Reset]: Interface Disable");

  00039	68 00 00 00 00	 push	 OFFSET ??_C@_0BL@DMAJGMEH@?$FLReset?$FN?3?5Interface?5Disable?$AA@
  0003e	6a 04		 push	 4
  00040	8b ce		 mov	 ecx, esi
  00042	e8 00 00 00 00	 call	 ?SetText@CZtText@@QAEXHPAD@Z ; CZtText::SetText

; 43   : 	this->SetText(5, "[Reset]: Max Reset %d");

  00047	68 00 00 00 00	 push	 OFFSET ??_C@_0BG@BDFKKKDA@?$FLReset?$FN?3?5Max?5Reset?5?$CFd?$AA@
  0004c	6a 05		 push	 5
  0004e	8b ce		 mov	 ecx, esi
  00050	e8 00 00 00 00	 call	 ?SetText@CZtText@@QAEXHPAD@Z ; CZtText::SetText

; 44   : 	this->SetText(6, "[Reset]: You need above %d Level to Reset");

  00055	68 00 00 00 00	 push	 OFFSET ??_C@_0CK@JOKEILBF@?$FLReset?$FN?3?5You?5need?5above?5?$CFd?5Level@
  0005a	6a 06		 push	 6
  0005c	8b ce		 mov	 ecx, esi
  0005e	e8 00 00 00 00	 call	 ?SetText@CZtText@@QAEXHPAD@Z ; CZtText::SetText

; 45   : 	this->SetText(7, "[Reset]: You need above %d Wcoin to Reset");

  00063	68 00 00 00 00	 push	 OFFSET ??_C@_0CK@JCAEKBGA@?$FLReset?$FN?3?5You?5need?5above?5?$CFd?5Wcoin@
  00068	6a 07		 push	 7
  0006a	8b ce		 mov	 ecx, esi
  0006c	e8 00 00 00 00	 call	 ?SetText@CZtText@@QAEXHPAD@Z ; CZtText::SetText

; 46   : 	this->SetText(8, "[Reset]: You need above %d Credits to Reset");

  00071	68 00 00 00 00	 push	 OFFSET ??_C@_0CM@EPGGAPLD@?$FLReset?$FN?3?5You?5need?5above?5?$CFd?5Credi@
  00076	6a 08		 push	 8
  00078	8b ce		 mov	 ecx, esi
  0007a	e8 00 00 00 00	 call	 ?SetText@CZtText@@QAEXHPAD@Z ; CZtText::SetText

; 47   : 	this->SetText(9, "[Reset]: You need above %d Zen to Reset");

  0007f	68 00 00 00 00	 push	 OFFSET ??_C@_0CI@KOEBMPOL@?$FLReset?$FN?3?5You?5need?5above?5?$CFd?5Zen?5t@
  00084	6a 09		 push	 9
  00086	8b ce		 mov	 ecx, esi
  00088	e8 00 00 00 00	 call	 ?SetText@CZtText@@QAEXHPAD@Z ; CZtText::SetText

; 48   : 	this->SetText(10, "[Reset]: You need Empty Inventory to Reset");

  0008d	68 00 00 00 00	 push	 OFFSET ??_C@_0CL@HNIKKPDH@?$FLReset?$FN?3?5You?5need?5Empty?5Inventor@
  00092	6a 0a		 push	 10			; 0000000aH
  00094	8b ce		 mov	 ecx, esi
  00096	e8 00 00 00 00	 call	 ?SetText@CZtText@@QAEXHPAD@Z ; CZtText::SetText

; 49   : 	this->SetText(11, "[Reset]: Need Reset Items %d");

  0009b	68 00 00 00 00	 push	 OFFSET ??_C@_0BN@LOHKEBON@?$FLReset?$FN?3?5Need?5Reset?5Items?5?$CFd?$AA@
  000a0	6a 0b		 push	 11			; 0000000bH
  000a2	8b ce		 mov	 ecx, esi
  000a4	e8 00 00 00 00	 call	 ?SetText@CZtText@@QAEXHPAD@Z ; CZtText::SetText

; 50   : 	this->SetText(12, "[GReset]: Started In Lorencia");

  000a9	68 00 00 00 00	 push	 OFFSET ??_C@_0BO@PEPJHIDK@?$FLGReset?$FN?3?5Started?5In?5Lorencia?$AA@
  000ae	6a 0c		 push	 12			; 0000000cH
  000b0	8b ce		 mov	 ecx, esi
  000b2	e8 00 00 00 00	 call	 ?SetText@CZtText@@QAEXHPAD@Z ; CZtText::SetText

; 51   : 	this->SetText(13, "[GReset]: Interface Disable");

  000b7	68 00 00 00 00	 push	 OFFSET ??_C@_0BM@CCOFCGNI@?$FLGReset?$FN?3?5Interface?5Disable?$AA@
  000bc	6a 0d		 push	 13			; 0000000dH
  000be	8b ce		 mov	 ecx, esi
  000c0	e8 00 00 00 00	 call	 ?SetText@CZtText@@QAEXHPAD@Z ; CZtText::SetText

; 52   : 	this->SetText(14, "[GReset]: Max Grand Reset %d");

  000c5	68 00 00 00 00	 push	 OFFSET ??_C@_0BN@NFJAONJC@?$FLGReset?$FN?3?5Max?5Grand?5Reset?5?$CFd?$AA@
  000ca	6a 0e		 push	 14			; 0000000eH
  000cc	8b ce		 mov	 ecx, esi
  000ce	e8 00 00 00 00	 call	 ?SetText@CZtText@@QAEXHPAD@Z ; CZtText::SetText

; 53   : 	this->SetText(15, "[GReset]: You need above %d Reset to GReset");

  000d3	68 00 00 00 00	 push	 OFFSET ??_C@_0CM@DHNDAPCF@?$FLGReset?$FN?3?5You?5need?5above?5?$CFd?5Rese@
  000d8	6a 0f		 push	 15			; 0000000fH
  000da	8b ce		 mov	 ecx, esi
  000dc	e8 00 00 00 00	 call	 ?SetText@CZtText@@QAEXHPAD@Z ; CZtText::SetText

; 54   : 	this->SetText(16, "[GReset]: You need above %d Level to GReset");

  000e1	68 00 00 00 00	 push	 OFFSET ??_C@_0CM@HPMBDCHP@?$FLGReset?$FN?3?5You?5need?5above?5?$CFd?5Leve@
  000e6	6a 10		 push	 16			; 00000010H
  000e8	8b ce		 mov	 ecx, esi
  000ea	e8 00 00 00 00	 call	 ?SetText@CZtText@@QAEXHPAD@Z ; CZtText::SetText

; 55   : 	this->SetText(17, "[GReset]: You need above %d Zen to GReset");

  000ef	68 00 00 00 00	 push	 OFFSET ??_C@_0CK@FCBCNAMG@?$FLGReset?$FN?3?5You?5need?5above?5?$CFd?5Zen?5@
  000f4	6a 11		 push	 17			; 00000011H
  000f6	8b ce		 mov	 ecx, esi
  000f8	e8 00 00 00 00	 call	 ?SetText@CZtText@@QAEXHPAD@Z ; CZtText::SetText

; 56   : 	this->SetText(18, "[GReset]: You need Empty Inventory to GReset");

  000fd	68 00 00 00 00	 push	 OFFSET ??_C@_0CN@NMLOMMO@?$FLGReset?$FN?3?5You?5need?5Empty?5Invento@
  00102	6a 12		 push	 18			; 00000012H
  00104	8b ce		 mov	 ecx, esi
  00106	e8 00 00 00 00	 call	 ?SetText@CZtText@@QAEXHPAD@Z ; CZtText::SetText

; 57   : 	this->SetText(19, "[Jewels] Max %d Exellent Option");

  0010b	68 00 00 00 00	 push	 OFFSET ??_C@_0CA@GHJGABEM@?$FLJewels?$FN?5Max?5?$CFd?5Exellent?5Option?$AA@
  00110	6a 13		 push	 19			; 00000013H
  00112	8b ce		 mov	 ecx, esi
  00114	e8 00 00 00 00	 call	 ?SetText@CZtText@@QAEXHPAD@Z ; CZtText::SetText

; 58   : 	this->SetText(20, "[Jewels] Need Item Exellent Status");

  00119	68 00 00 00 00	 push	 OFFSET ??_C@_0CD@CKINFCHP@?$FLJewels?$FN?5Need?5Item?5Exellent?5Stat@
  0011e	6a 14		 push	 20			; 00000014H
  00120	8b ce		 mov	 ecx, esi
  00122	e8 00 00 00 00	 call	 ?SetText@CZtText@@QAEXHPAD@Z ; CZtText::SetText

; 59   : 	this->SetText(21, "[Jewels] Max Item Level %d");

  00127	68 00 00 00 00	 push	 OFFSET ??_C@_0BL@NOOKBLBD@?$FLJewels?$FN?5Max?5Item?5Level?5?$CFd?$AA@
  0012c	6a 15		 push	 21			; 00000015H
  0012e	8b ce		 mov	 ecx, esi
  00130	e8 00 00 00 00	 call	 ?SetText@CZtText@@QAEXHPAD@Z ; CZtText::SetText

; 60   : 	this->SetText(22, "[Jewels] Min Item Level %d");

  00135	68 00 00 00 00	 push	 OFFSET ??_C@_0BL@INEMADPH@?$FLJewels?$FN?5Min?5Item?5Level?5?$CFd?$AA@
  0013a	6a 16		 push	 22			; 00000016H
  0013c	8b ce		 mov	 ecx, esi
  0013e	e8 00 00 00 00	 call	 ?SetText@CZtText@@QAEXHPAD@Z ; CZtText::SetText

; 61   : 	this->SetText(23, "[Jewels] Need Item Accessory");

  00143	68 00 00 00 00	 push	 OFFSET ??_C@_0BN@GPPEHKBE@?$FLJewels?$FN?5Need?5Item?5Accessory?$AA@
  00148	6a 17		 push	 23			; 00000017H
  0014a	8b ce		 mov	 ecx, esi
  0014c	e8 00 00 00 00	 call	 ?SetText@CZtText@@QAEXHPAD@Z ; CZtText::SetText

; 62   : 	this->SetText(24, "[Jewels] Is Set to Luck");

  00151	68 00 00 00 00	 push	 OFFSET ??_C@_0BI@BNEAPBOP@?$FLJewels?$FN?5Is?5Set?5to?5Luck?$AA@
  00156	6a 18		 push	 24			; 00000018H
  00158	8b ce		 mov	 ecx, esi
  0015a	e8 00 00 00 00	 call	 ?SetText@CZtText@@QAEXHPAD@Z ; CZtText::SetText

; 63   : 	this->SetText(25, "[Jewels] No use item luck");

  0015f	68 00 00 00 00	 push	 OFFSET ??_C@_0BK@JCANILHH@?$FLJewels?$FN?5No?5use?5item?5luck?$AA@
  00164	6a 19		 push	 25			; 00000019H
  00166	8b ce		 mov	 ecx, esi
  00168	e8 00 00 00 00	 call	 ?SetText@CZtText@@QAEXHPAD@Z ; CZtText::SetText

; 64   : 	this->SetText(26, "[Jewels] Is Weapon to Skill");

  0016d	68 00 00 00 00	 push	 OFFSET ??_C@_0BM@OPNKJJKH@?$FLJewels?$FN?5Is?5Weapon?5to?5Skill?$AA@
  00172	6a 1a		 push	 26			; 0000001aH
  00174	8b ce		 mov	 ecx, esi
  00176	e8 00 00 00 00	 call	 ?SetText@CZtText@@QAEXHPAD@Z ; CZtText::SetText

; 65   : 	this->SetText(27, "[Jewels] No use item skill");

  0017b	68 00 00 00 00	 push	 OFFSET ??_C@_0BL@EABJKCPD@?$FLJewels?$FN?5No?5use?5item?5skill?$AA@
  00180	6a 1b		 push	 27			; 0000001bH
  00182	8b ce		 mov	 ecx, esi
  00184	e8 00 00 00 00	 call	 ?SetText@CZtText@@QAEXHPAD@Z ; CZtText::SetText

; 66   : 	this->SetText(28, "[Jewels] Max Level Item %d");

  00189	68 00 00 00 00	 push	 OFFSET ??_C@_0BL@MIGKAOHG@?$FLJewels?$FN?5Max?5Level?5Item?5?$CFd?$AA@
  0018e	6a 1c		 push	 28			; 0000001cH
  00190	8b ce		 mov	 ecx, esi
  00192	e8 00 00 00 00	 call	 ?SetText@CZtText@@QAEXHPAD@Z ; CZtText::SetText

; 67   : 	this->SetText(29, "[Jewels] Min Level Item %d");

  00197	68 00 00 00 00	 push	 OFFSET ??_C@_0BL@JLMMBGJC@?$FLJewels?$FN?5Min?5Level?5Item?5?$CFd?$AA@
  0019c	6a 1d		 push	 29			; 0000001dH
  0019e	8b ce		 mov	 ecx, esi
  001a0	e8 00 00 00 00	 call	 ?SetText@CZtText@@QAEXHPAD@Z ; CZtText::SetText

; 68   : 	this->SetText(30, "[Jewels] No use item Level");

  001a5	68 00 00 00 00	 push	 OFFSET ??_C@_0BL@NKONFKM@?$FLJewels?$FN?5No?5use?5item?5Level?$AA@
  001aa	6a 1e		 push	 30			; 0000001eH
  001ac	8b ce		 mov	 ecx, esi
  001ae	e8 00 00 00 00	 call	 ?SetText@CZtText@@QAEXHPAD@Z ; CZtText::SetText

; 69   : 	this->SetText(31, "[Jewels] Item Exellent status");

  001b3	68 00 00 00 00	 push	 OFFSET ??_C@_0BO@OEOJOBIJ@?$FLJewels?$FN?5Item?5Exellent?5status?$AA@
  001b8	6a 1f		 push	 31			; 0000001fH
  001ba	8b ce		 mov	 ecx, esi
  001bc	e8 00 00 00 00	 call	 ?SetText@CZtText@@QAEXHPAD@Z ; CZtText::SetText

; 70   : 	this->SetText(32, "[Jewels] No use item");

  001c1	68 00 00 00 00	 push	 OFFSET ??_C@_0BF@JAODIPNO@?$FLJewels?$FN?5No?5use?5item?$AA@
  001c6	6a 20		 push	 32			; 00000020H
  001c8	8b ce		 mov	 ecx, esi
  001ca	e8 00 00 00 00	 call	 ?SetText@CZtText@@QAEXHPAD@Z ; CZtText::SetText

; 71   : 	this->SetText(33, "[Jewels] No Use Item Ancent");

  001cf	68 00 00 00 00	 push	 OFFSET ??_C@_0BM@DLKEAAPO@?$FLJewels?$FN?5No?5Use?5Item?5Ancent?$AA@
  001d4	6a 21		 push	 33			; 00000021H
  001d6	8b ce		 mov	 ecx, esi
  001d8	e8 00 00 00 00	 call	 ?SetText@CZtText@@QAEXHPAD@Z ; CZtText::SetText

; 72   : 	this->SetText(34, "[Jewels] Item is Ancent");

  001dd	68 00 00 00 00	 push	 OFFSET ??_C@_0BI@LGBBPIKN@?$FLJewels?$FN?5Item?5is?5Ancent?$AA@
  001e2	6a 22		 push	 34			; 00000022H
  001e4	8b ce		 mov	 ecx, esi
  001e6	e8 00 00 00 00	 call	 ?SetText@CZtText@@QAEXHPAD@Z ; CZtText::SetText

; 73   : 	this->SetText(35, "[Jewels] Max Option to Item");

  001eb	68 00 00 00 00	 push	 OFFSET ??_C@_0BM@OHHBFMIC@?$FLJewels?$FN?5Max?5Option?5to?5Item?$AA@
  001f0	6a 23		 push	 35			; 00000023H
  001f2	8b ce		 mov	 ecx, esi
  001f4	e8 00 00 00 00	 call	 ?SetText@CZtText@@QAEXHPAD@Z ; CZtText::SetText

; 74   : 	this->SetText(36, "[Jewels] No Use Item PvP");

  001f9	68 00 00 00 00	 push	 OFFSET ??_C@_0BJ@HIDKABDK@?$FLJewels?$FN?5No?5Use?5Item?5PvP?$AA@
  001fe	6a 24		 push	 36			; 00000024H
  00200	8b ce		 mov	 ecx, esi
  00202	e8 00 00 00 00	 call	 ?SetText@CZtText@@QAEXHPAD@Z ; CZtText::SetText

; 75   : 	this->SetText(37, "[Jewels] Item is PvP");

  00207	68 00 00 00 00	 push	 OFFSET ??_C@_0BF@JOAPLKJN@?$FLJewels?$FN?5Item?5is?5PvP?$AA@
  0020c	6a 25		 push	 37			; 00000025H
  0020e	8b ce		 mov	 ecx, esi
  00210	e8 00 00 00 00	 call	 ?SetText@CZtText@@QAEXHPAD@Z ; CZtText::SetText

; 76   : 	this->SetText(38, "[Jewels] Max Socket option %d");

  00215	68 00 00 00 00	 push	 OFFSET ??_C@_0BO@JJNPMFLC@?$FLJewels?$FN?5Max?5Socket?5option?5?$CFd?$AA@
  0021a	6a 26		 push	 38			; 00000026H
  0021c	8b ce		 mov	 ecx, esi
  0021e	e8 00 00 00 00	 call	 ?SetText@CZtText@@QAEXHPAD@Z ; CZtText::SetText

; 77   : 	this->SetText(39, "[Jewels] No Use Item Socket");

  00223	68 00 00 00 00	 push	 OFFSET ??_C@_0BM@OMDDMGGO@?$FLJewels?$FN?5No?5Use?5Item?5Socket?$AA@
  00228	6a 27		 push	 39			; 00000027H
  0022a	8b ce		 mov	 ecx, esi
  0022c	e8 00 00 00 00	 call	 ?SetText@CZtText@@QAEXHPAD@Z ; CZtText::SetText

; 78   : 	this->SetText(40, "[Jewels] Max %d Exellent Option");

  00231	68 00 00 00 00	 push	 OFFSET ??_C@_0CA@GHJGABEM@?$FLJewels?$FN?5Max?5?$CFd?5Exellent?5Option?$AA@
  00236	6a 28		 push	 40			; 00000028H
  00238	8b ce		 mov	 ecx, esi
  0023a	e8 00 00 00 00	 call	 ?SetText@CZtText@@QAEXHPAD@Z ; CZtText::SetText

; 79   : 	this->SetText(41, "[Jewels] Item Exellent Status");

  0023f	68 00 00 00 00	 push	 OFFSET ??_C@_0BO@CLFENIBF@?$FLJewels?$FN?5Item?5Exellent?5Status?$AA@
  00244	6a 29		 push	 41			; 00000029H
  00246	8b ce		 mov	 ecx, esi
  00248	e8 00 00 00 00	 call	 ?SetText@CZtText@@QAEXHPAD@Z ; CZtText::SetText

; 80   : 	this->SetText(42, "[OfflineMode] Disable in Castle siege map");

  0024d	68 00 00 00 00	 push	 OFFSET ??_C@_0CK@NAELDEKN@?$FLOfflineMode?$FN?5Disable?5in?5Castle?5@
  00252	6a 2a		 push	 42			; 0000002aH
  00254	8b ce		 mov	 ecx, esi
  00256	e8 00 00 00 00	 call	 ?SetText@CZtText@@QAEXHPAD@Z ; CZtText::SetText

; 81   : 	this->SetText(43, "[OffTrade] OffTrade work only Loren Market");

  0025b	68 00 00 00 00	 push	 OFFSET ??_C@_0CL@IJMEMPLE@?$FLOffTrade?$FN?5OffTrade?5work?5only?5Lo@
  00260	6a 2b		 push	 43			; 0000002bH
  00262	8b ce		 mov	 ecx, esi
  00264	e8 00 00 00 00	 call	 ?SetText@CZtText@@QAEXHPAD@Z ; CZtText::SetText

; 82   : 	this->SetText(44,"[OfflineTrade][%s]");

  00269	68 00 00 00 00	 push	 OFFSET ??_C@_0BD@IPGMBHGD@?$FLOfflineTrade?$FN?$FL?$CFs?$FN?$AA@
  0026e	6a 2c		 push	 44			; 0000002cH
  00270	8b ce		 mov	 ecx, esi
  00272	e8 00 00 00 00	 call	 ?SetText@CZtText@@QAEXHPAD@Z ; CZtText::SetText

; 83   : 	this->SetText(45, "[OffTrade] OffTrade work only Loren Market");

  00277	68 00 00 00 00	 push	 OFFSET ??_C@_0CL@IJMEMPLE@?$FLOffTrade?$FN?5OffTrade?5work?5only?5Lo@
  0027c	6a 2d		 push	 45			; 0000002dH
  0027e	8b ce		 mov	 ecx, esi
  00280	e8 00 00 00 00	 call	 ?SetText@CZtText@@QAEXHPAD@Z ; CZtText::SetText

; 84   : 	this->SetText(46, "[OffTrade] Disable in Castle siege map");

  00285	68 00 00 00 00	 push	 OFFSET ??_C@_0CH@JMGBEBME@?$FLOffTrade?$FN?5Disable?5in?5Castle?5sie@
  0028a	6a 2e		 push	 46			; 0000002eH
  0028c	8b ce		 mov	 ecx, esi
  0028e	e8 00 00 00 00	 call	 ?SetText@CZtText@@QAEXHPAD@Z ; CZtText::SetText

; 85   : 	this->SetText(47, "[OffTrade] Need Open Shop");

  00293	68 00 00 00 00	 push	 OFFSET ??_C@_0BK@JCDLIHIH@?$FLOffTrade?$FN?5Need?5Open?5Shop?$AA@
  00298	6a 2f		 push	 47			; 0000002fH
  0029a	8b ce		 mov	 ecx, esi
  0029c	e8 00 00 00 00	 call	 ?SetText@CZtText@@QAEXHPAD@Z ; CZtText::SetText

; 86   : 	this->SetText(48, "[OffTrade][%s] Lorencia %d %d");

  002a1	68 00 00 00 00	 push	 OFFSET ??_C@_0BO@OJEHOFOB@?$FLOffTrade?$FN?$FL?$CFs?$FN?5Lorencia?5?$CFd?5?$CFd?$AA@
  002a6	6a 30		 push	 48			; 00000030H
  002a8	8b ce		 mov	 ecx, esi
  002aa	e8 00 00 00 00	 call	 ?SetText@CZtText@@QAEXHPAD@Z ; CZtText::SetText

; 87   : 	this->SetText(49, "[OffTrade][%s] Devias %d %d");

  002af	68 00 00 00 00	 push	 OFFSET ??_C@_0BM@DMBKDJLH@?$FLOffTrade?$FN?$FL?$CFs?$FN?5Devias?5?$CFd?5?$CFd?$AA@
  002b4	6a 31		 push	 49			; 00000031H
  002b6	8b ce		 mov	 ecx, esi
  002b8	e8 00 00 00 00	 call	 ?SetText@CZtText@@QAEXHPAD@Z ; CZtText::SetText

; 88   : 	this->SetText(50, "[OffTrade][%s] Noria %d %d");

  002bd	68 00 00 00 00	 push	 OFFSET ??_C@_0BL@IOMNLDFP@?$FLOffTrade?$FN?$FL?$CFs?$FN?5Noria?5?$CFd?5?$CFd?$AA@
  002c2	6a 32		 push	 50			; 00000032H
  002c4	8b ce		 mov	 ecx, esi
  002c6	e8 00 00 00 00	 call	 ?SetText@CZtText@@QAEXHPAD@Z ; CZtText::SetText

; 89   : 	this->SetText(51, "[OffTrade][%s] Emblend %d %d");

  002cb	68 00 00 00 00	 push	 OFFSET ??_C@_0BN@GJJHAMAG@?$FLOffTrade?$FN?$FL?$CFs?$FN?5Emblend?5?$CFd?5?$CFd?$AA@
  002d0	6a 33		 push	 51			; 00000033H
  002d2	8b ce		 mov	 ecx, esi
  002d4	e8 00 00 00 00	 call	 ?SetText@CZtText@@QAEXHPAD@Z ; CZtText::SetText

; 90   : 	this->SetText(52, "[OffTrade][%s] Loren %d %d");

  002d9	68 00 00 00 00	 push	 OFFSET ??_C@_0BL@FNOCMMHI@?$FLOffTrade?$FN?$FL?$CFs?$FN?5Loren?5?$CFd?5?$CFd?$AA@
  002de	6a 34		 push	 52			; 00000034H
  002e0	8b ce		 mov	 ecx, esi
  002e2	e8 00 00 00 00	 call	 ?SetText@CZtText@@QAEXHPAD@Z ; CZtText::SetText

; 91   : 	this->SetText(53, "[Offline Trade] work only special maps");

  002e7	68 00 00 00 00	 push	 OFFSET ??_C@_0CH@IHHOOGEB@?$FLOffline?5Trade?$FN?5work?5only?5specia@
  002ec	6a 35		 push	 53			; 00000035H
  002ee	8b ce		 mov	 ecx, esi
  002f0	e8 00 00 00 00	 call	 ?SetText@CZtText@@QAEXHPAD@Z ; CZtText::SetText

; 92   : 	this->SetText(54, ".::ZEN SHOP::.");

  002f5	68 00 00 00 00	 push	 OFFSET ??_C@_0P@KNLBLEED@?4?3?3ZEN?5SHOP?3?3?4?$AA@
  002fa	6a 36		 push	 54			; 00000036H
  002fc	8b ce		 mov	 ecx, esi
  002fe	e8 00 00 00 00	 call	 ?SetText@CZtText@@QAEXHPAD@Z ; CZtText::SetText

; 93   : 	this->SetText(55, ".::CREDIT SHOP::.");

  00303	68 00 00 00 00	 push	 OFFSET ??_C@_0BC@BEOIOLAE@?4?3?3CREDIT?5SHOP?3?3?4?$AA@
  00308	6a 37		 push	 55			; 00000037H
  0030a	8b ce		 mov	 ecx, esi
  0030c	e8 00 00 00 00	 call	 ?SetText@CZtText@@QAEXHPAD@Z ; CZtText::SetText

; 94   : 	this->SetText(56, ".::WCOIN SHOP::.");

  00311	68 00 00 00 00	 push	 OFFSET ??_C@_0BB@IPFIAIKD@?4?3?3WCOIN?5SHOP?3?3?4?$AA@
  00316	6a 38		 push	 56			; 00000038H
  00318	8b ce		 mov	 ecx, esi
  0031a	e8 00 00 00 00	 call	 ?SetText@CZtText@@QAEXHPAD@Z ; CZtText::SetText

; 95   : 	this->SetText(57, ".::WCOIN(P) SHOP::.");

  0031f	68 00 00 00 00	 push	 OFFSET ??_C@_0BE@BFOPECO@?4?3?3WCOIN?$CIP?$CJ?5SHOP?3?3?4?$AA@
  00324	6a 39		 push	 57			; 00000039H
  00326	8b ce		 mov	 ecx, esi
  00328	e8 00 00 00 00	 call	 ?SetText@CZtText@@QAEXHPAD@Z ; CZtText::SetText

; 96   : 	this->SetText(58, ".::GOBLIN SHOP::.");

  0032d	68 00 00 00 00	 push	 OFFSET ??_C@_0BC@ECPKDNH@?4?3?3GOBLIN?5SHOP?3?3?4?$AA@
  00332	6a 3a		 push	 58			; 0000003aH
  00334	8b ce		 mov	 ecx, esi
  00336	e8 00 00 00 00	 call	 ?SetText@CZtText@@QAEXHPAD@Z ; CZtText::SetText

; 97   : 	this->SetText(59, ".::CHAOS SHOP::.");

  0033b	68 00 00 00 00	 push	 OFFSET ??_C@_0BB@MEFLBHHC@?4?3?3CHAOS?5SHOP?3?3?4?$AA@
  00340	6a 3b		 push	 59			; 0000003bH
  00342	8b ce		 mov	 ecx, esi
  00344	e8 00 00 00 00	 call	 ?SetText@CZtText@@QAEXHPAD@Z ; CZtText::SetText

; 98   : 	this->SetText(60, ".::BLESS SHOP::.");

  00349	68 00 00 00 00	 push	 OFFSET ??_C@_0BB@DOAHPBOB@?4?3?3BLESS?5SHOP?3?3?4?$AA@
  0034e	6a 3c		 push	 60			; 0000003cH
  00350	8b ce		 mov	 ecx, esi
  00352	e8 00 00 00 00	 call	 ?SetText@CZtText@@QAEXHPAD@Z ; CZtText::SetText

; 99   : 	this->SetText(61, ".::SOUL SHOP::.");

  00357	68 00 00 00 00	 push	 OFFSET ??_C@_0BA@NIKENFKH@?4?3?3SOUL?5SHOP?3?3?4?$AA@
  0035c	6a 3d		 push	 61			; 0000003dH
  0035e	8b ce		 mov	 ecx, esi
  00360	e8 00 00 00 00	 call	 ?SetText@CZtText@@QAEXHPAD@Z ; CZtText::SetText

; 100  : 	this->SetText(62, ".::LIFE SHOP::.");

  00365	68 00 00 00 00	 push	 OFFSET ??_C@_0BA@GPOPIKKI@?4?3?3LIFE?5SHOP?3?3?4?$AA@
  0036a	6a 3e		 push	 62			; 0000003eH
  0036c	8b ce		 mov	 ecx, esi
  0036e	e8 00 00 00 00	 call	 ?SetText@CZtText@@QAEXHPAD@Z ; CZtText::SetText

; 101  : 	this->SetText(63, "[%s][%s] Lorencia %d %d");

  00373	68 00 00 00 00	 push	 OFFSET ??_C@_0BI@MAEGLEHI@?$FL?$CFs?$FN?$FL?$CFs?$FN?5Lorencia?5?$CFd?5?$CFd?$AA@
  00378	6a 3f		 push	 63			; 0000003fH
  0037a	8b ce		 mov	 ecx, esi
  0037c	e8 00 00 00 00	 call	 ?SetText@CZtText@@QAEXHPAD@Z ; CZtText::SetText

; 102  : 	this->SetText(64, "[%s][%s] Devias %d %d");

  00381	68 00 00 00 00	 push	 OFFSET ??_C@_0BG@KJDAJKBP@?$FL?$CFs?$FN?$FL?$CFs?$FN?5Devias?5?$CFd?5?$CFd?$AA@
  00386	6a 40		 push	 64			; 00000040H
  00388	8b ce		 mov	 ecx, esi
  0038a	e8 00 00 00 00	 call	 ?SetText@CZtText@@QAEXHPAD@Z ; CZtText::SetText

; 103  : 	this->SetText(65, "[%s][%s] Noria %d %d");

  0038f	68 00 00 00 00	 push	 OFFSET ??_C@_0BF@BLCEJJJH@?$FL?$CFs?$FN?$FL?$CFs?$FN?5Noria?5?$CFd?5?$CFd?$AA@
  00394	6a 41		 push	 65			; 00000041H
  00396	8b ce		 mov	 ecx, esi
  00398	e8 00 00 00 00	 call	 ?SetText@CZtText@@QAEXHPAD@Z ; CZtText::SetText

; 104  : 	this->SetText(66, "[%s][%s] Emblend %d %d");

  0039d	68 00 00 00 00	 push	 OFFSET ??_C@_0BH@LBAPANHP@?$FL?$CFs?$FN?$FL?$CFs?$FN?5Emblend?5?$CFd?5?$CFd?$AA@
  003a2	6a 42		 push	 66			; 00000042H
  003a4	8b ce		 mov	 ecx, esi
  003a6	e8 00 00 00 00	 call	 ?SetText@CZtText@@QAEXHPAD@Z ; CZtText::SetText

; 105  : 	this->SetText(67, "[%s][%s] Loren %d %d");

  003ab	68 00 00 00 00	 push	 OFFSET ??_C@_0BF@MIALOGLA@?$FL?$CFs?$FN?$FL?$CFs?$FN?5Loren?5?$CFd?5?$CFd?$AA@
  003b0	6a 43		 push	 67			; 00000043H
  003b2	8b ce		 mov	 ecx, esi
  003b4	e8 00 00 00 00	 call	 ?SetText@CZtText@@QAEXHPAD@Z ; CZtText::SetText

; 106  : 	this->SetText(68, "[OffTrade] work only special maps");

  003b9	68 00 00 00 00	 push	 OFFSET ??_C@_0CC@LHBNDNI@?$FLOffTrade?$FN?5work?5only?5special?5map@
  003be	6a 44		 push	 68			; 00000044H
  003c0	8b ce		 mov	 ecx, esi
  003c2	e8 00 00 00 00	 call	 ?SetText@CZtText@@QAEXHPAD@Z ; CZtText::SetText

; 107  : 	this->SetText(69, "[OffTrade] Need %d PcPoint");

  003c7	68 00 00 00 00	 push	 OFFSET ??_C@_0BL@NCOFGJCD@?$FLOffTrade?$FN?5Need?5?$CFd?5PcPoint?$AA@
  003cc	6a 45		 push	 69			; 00000045H
  003ce	8b ce		 mov	 ecx, esi
  003d0	e8 00 00 00 00	 call	 ?SetText@CZtText@@QAEXHPAD@Z ; CZtText::SetText

; 108  : 	this->SetText(70, "[OffTrade] Need %d WCoinC");

  003d5	68 00 00 00 00	 push	 OFFSET ??_C@_0BK@FOPAGMFK@?$FLOffTrade?$FN?5Need?5?$CFd?5WCoinC?$AA@
  003da	6a 46		 push	 70			; 00000046H
  003dc	8b ce		 mov	 ecx, esi
  003de	e8 00 00 00 00	 call	 ?SetText@CZtText@@QAEXHPAD@Z ; CZtText::SetText

; 109  : 	this->SetText(71, "[OffTrade] Need %d WCoinP");

  003e3	68 00 00 00 00	 push	 OFFSET ??_C@_0BK@DPBPCNMI@?$FLOffTrade?$FN?5Need?5?$CFd?5WCoinP?$AA@
  003e8	6a 47		 push	 71			; 00000047H
  003ea	8b ce		 mov	 ecx, esi
  003ec	e8 00 00 00 00	 call	 ?SetText@CZtText@@QAEXHPAD@Z ; CZtText::SetText

; 110  : 	this->SetText(72, "[OffTrade] Need %d WCoinG");

  003f1	68 00 00 00 00	 push	 OFFSET ??_C@_0BK@DKJMKJFO@?$FLOffTrade?$FN?5Need?5?$CFd?5WCoinG?$AA@
  003f6	6a 48		 push	 72			; 00000048H
  003f8	8b ce		 mov	 ecx, esi
  003fa	e8 00 00 00 00	 call	 ?SetText@CZtText@@QAEXHPAD@Z ; CZtText::SetText

; 111  : 	this->SetText(73, "[OffTrade] Need %d Chaos Bank");

  003ff	68 00 00 00 00	 push	 OFFSET ??_C@_0BO@DHKNJCEE@?$FLOffTrade?$FN?5Need?5?$CFd?5Chaos?5Bank?$AA@
  00404	6a 49		 push	 73			; 00000049H
  00406	8b ce		 mov	 ecx, esi
  00408	e8 00 00 00 00	 call	 ?SetText@CZtText@@QAEXHPAD@Z ; CZtText::SetText

; 112  : 	this->SetText(74, "[OffTrade] Need %d Bless Bank");

  0040d	68 00 00 00 00	 push	 OFFSET ??_C@_0BO@IJDAJIJG@?$FLOffTrade?$FN?5Need?5?$CFd?5Bless?5Bank?$AA@
  00412	6a 4a		 push	 74			; 0000004aH
  00414	8b ce		 mov	 ecx, esi
  00416	e8 00 00 00 00	 call	 ?SetText@CZtText@@QAEXHPAD@Z ; CZtText::SetText

; 113  : 	this->SetText(75, "[OffTrade] Need %d Soul Bank");

  0041b	68 00 00 00 00	 push	 OFFSET ??_C@_0BN@IIFLCIIK@?$FLOffTrade?$FN?5Need?5?$CFd?5Soul?5Bank?$AA@
  00420	6a 4b		 push	 75			; 0000004bH
  00422	8b ce		 mov	 ecx, esi
  00424	e8 00 00 00 00	 call	 ?SetText@CZtText@@QAEXHPAD@Z ; CZtText::SetText

; 114  : 	this->SetText(76, "[OffTrade] Need %d Life Bank");

  00429	68 00 00 00 00	 push	 OFFSET ??_C@_0BN@EKEIPIHO@?$FLOffTrade?$FN?5Need?5?$CFd?5Life?5Bank?$AA@
  0042e	6a 4c		 push	 76			; 0000004cH
  00430	8b ce		 mov	 ecx, esi
  00432	e8 00 00 00 00	 call	 ?SetText@CZtText@@QAEXHPAD@Z ; CZtText::SetText

; 115  : 	this->SetText(77, "In %s Max Zen In Inventory");

  00437	68 00 00 00 00	 push	 OFFSET ??_C@_0BL@DLGFFCMG@In?5?$CFs?5Max?5Zen?5In?5Inventory?$AA@
  0043c	6a 4d		 push	 77			; 0000004dH
  0043e	8b ce		 mov	 ecx, esi
  00440	e8 00 00 00 00	 call	 ?SetText@CZtText@@QAEXHPAD@Z ; CZtText::SetText

; 116  : 	this->SetText(78, "Max Zen In Inventory");

  00445	68 00 00 00 00	 push	 OFFSET ??_C@_0BF@BBLCPHHL@Max?5Zen?5In?5Inventory?$AA@
  0044a	6a 4e		 push	 78			; 0000004eH
  0044c	8b ce		 mov	 ecx, esi
  0044e	e8 00 00 00 00	 call	 ?SetText@CZtText@@QAEXHPAD@Z ; CZtText::SetText

; 117  : 	this->SetText(79, "[Buy] Need %d Zen");

  00453	68 00 00 00 00	 push	 OFFSET ??_C@_0BC@GHOMDOGB@?$FLBuy?$FN?5Need?5?$CFd?5Zen?$AA@
  00458	6a 4f		 push	 79			; 0000004fH
  0045a	8b ce		 mov	 ecx, esi
  0045c	e8 00 00 00 00	 call	 ?SetText@CZtText@@QAEXHPAD@Z ; CZtText::SetText

; 118  : 	this->SetText(80, "[Buy] Need %d Credit");

  00461	68 00 00 00 00	 push	 OFFSET ??_C@_0BF@ICDIOCHI@?$FLBuy?$FN?5Need?5?$CFd?5Credit?$AA@
  00466	6a 50		 push	 80			; 00000050H
  00468	8b ce		 mov	 ecx, esi
  0046a	e8 00 00 00 00	 call	 ?SetText@CZtText@@QAEXHPAD@Z ; CZtText::SetText

; 119  : 	this->SetText(81, "[Buy] Price %d Credit");

  0046f	68 00 00 00 00	 push	 OFFSET ??_C@_0BG@OFIJBKOP@?$FLBuy?$FN?5Price?5?$CFd?5Credit?$AA@
  00474	6a 51		 push	 81			; 00000051H
  00476	8b ce		 mov	 ecx, esi
  00478	e8 00 00 00 00	 call	 ?SetText@CZtText@@QAEXHPAD@Z ; CZtText::SetText

; 120  : 	this->SetText(82, "[Buy] Need %d WCoinC");

  0047d	68 00 00 00 00	 push	 OFFSET ??_C@_0BF@PDBNPIGA@?$FLBuy?$FN?5Need?5?$CFd?5WCoinC?$AA@
  00482	6a 52		 push	 82			; 00000052H
  00484	8b ce		 mov	 ecx, esi
  00486	e8 00 00 00 00	 call	 ?SetText@CZtText@@QAEXHPAD@Z ; CZtText::SetText

; 121  : 	this->SetText(83, "[Buy] Price %d WCoinC");

  0048b	68 00 00 00 00	 push	 OFFSET ??_C@_0BG@JEKMAAPH@?$FLBuy?$FN?5Price?5?$CFd?5WCoinC?$AA@
  00490	6a 53		 push	 83			; 00000053H
  00492	8b ce		 mov	 ecx, esi
  00494	e8 00 00 00 00	 call	 ?SetText@CZtText@@QAEXHPAD@Z ; CZtText::SetText

; 122  : 	this->SetText(84, "[Buy] Need %d WCoinP");

  00499	68 00 00 00 00	 push	 OFFSET ??_C@_0BF@JCPCLJPC@?$FLBuy?$FN?5Need?5?$CFd?5WCoinP?$AA@
  0049e	6a 54		 push	 84			; 00000054H
  004a0	8b ce		 mov	 ecx, esi
  004a2	e8 00 00 00 00	 call	 ?SetText@CZtText@@QAEXHPAD@Z ; CZtText::SetText

; 123  : 	this->SetText(85, "[Buy] Need %d WCoinP");

  004a7	68 00 00 00 00	 push	 OFFSET ??_C@_0BF@JCPCLJPC@?$FLBuy?$FN?5Need?5?$CFd?5WCoinP?$AA@
  004ac	6a 55		 push	 85			; 00000055H
  004ae	8b ce		 mov	 ecx, esi
  004b0	e8 00 00 00 00	 call	 ?SetText@CZtText@@QAEXHPAD@Z ; CZtText::SetText

; 124  : 	this->SetText(86, "[Buy] Need %d Goblin");

  004b5	68 00 00 00 00	 push	 OFFSET ??_C@_0BF@OIGNJAK@?$FLBuy?$FN?5Need?5?$CFd?5Goblin?$AA@
  004ba	6a 56		 push	 86			; 00000056H
  004bc	8b ce		 mov	 ecx, esi
  004be	e8 00 00 00 00	 call	 ?SetText@CZtText@@QAEXHPAD@Z ; CZtText::SetText

; 125  : 	this->SetText(87, "[Buy] Price %d Goblin");

  004c3	68 00 00 00 00	 push	 OFFSET ??_C@_0BG@GJDHCBJN@?$FLBuy?$FN?5Price?5?$CFd?5Goblin?$AA@
  004c8	6a 57		 push	 87			; 00000057H
  004ca	8b ce		 mov	 ecx, esi
  004cc	e8 00 00 00 00	 call	 ?SetText@CZtText@@QAEXHPAD@Z ; CZtText::SetText

; 126  : 	this->SetText(88, "~[WCoinC]: Online Bonus: %d");

  004d1	68 00 00 00 00	 push	 OFFSET ??_C@_0BM@KLEMOFCB@?$HO?$FLWCoinC?$FN?3?5Online?5Bonus?3?5?$CFd?$AA@
  004d6	6a 58		 push	 88			; 00000058H
  004d8	8b ce		 mov	 ecx, esi
  004da	e8 00 00 00 00	 call	 ?SetText@CZtText@@QAEXHPAD@Z ; CZtText::SetText

; 127  : 	this->SetText(89, "~[WCoinP]: Online Bonus: %d");

  004df	68 00 00 00 00	 push	 OFFSET ??_C@_0BM@JLLGHFCO@?$HO?$FLWCoinP?$FN?3?5Online?5Bonus?3?5?$CFd?$AA@
  004e4	6a 59		 push	 89			; 00000059H
  004e6	8b ce		 mov	 ecx, esi
  004e8	e8 00 00 00 00	 call	 ?SetText@CZtText@@QAEXHPAD@Z ; CZtText::SetText

; 128  : 	this->SetText(90, "~[Goblin]: Online Bonus: %d");

  004ed	68 00 00 00 00	 push	 OFFSET ??_C@_0BM@JNEHDAID@?$HO?$FLGoblin?$FN?3?5Online?5Bonus?3?5?$CFd?$AA@
  004f2	6a 5a		 push	 90			; 0000005aH
  004f4	8b ce		 mov	 ecx, esi
  004f6	e8 00 00 00 00	 call	 ?SetText@CZtText@@QAEXHPAD@Z ; CZtText::SetText

; 129  : 	this->SetText(91, "~[Credit]: Online Bonus: %d");

  004fb	68 00 00 00 00	 push	 OFFSET ??_C@_0BM@CGIKKGMH@?$HO?$FLCredit?$FN?3?5Online?5Bonus?3?5?$CFd?$AA@
  00500	6a 5b		 push	 91			; 0000005bH
  00502	8b ce		 mov	 ecx, esi
  00504	e8 00 00 00 00	 call	 ?SetText@CZtText@@QAEXHPAD@Z ; CZtText::SetText

; 130  : 	this->SetText(92, "[Evangelion] Lorencia Win %s!");

  00509	68 00 00 00 00	 push	 OFFSET ??_C@_0BO@JENKFAJA@?$FLEvangelion?$FN?5Lorencia?5Win?5?$CFs?$CB?$AA@
  0050e	6a 5c		 push	 92			; 0000005cH
  00510	8b ce		 mov	 ecx, esi
  00512	e8 00 00 00 00	 call	 ?SetText@CZtText@@QAEXHPAD@Z ; CZtText::SetText

; 131  : 	this->SetText(93, "[Evangelion] In Noria!");

  00517	68 00 00 00 00	 push	 OFFSET ??_C@_0BH@NGNDIGCL@?$FLEvangelion?$FN?5In?5Noria?$CB?$AA@
  0051c	6a 5d		 push	 93			; 0000005dH
  0051e	8b ce		 mov	 ecx, esi
  00520	e8 00 00 00 00	 call	 ?SetText@CZtText@@QAEXHPAD@Z ; CZtText::SetText

; 132  : 	this->SetText(94, "[Evangelion] Noria Win %s!");

  00525	68 00 00 00 00	 push	 OFFSET ??_C@_0BL@DFMNOIC@?$FLEvangelion?$FN?5Noria?5Win?5?$CFs?$CB?$AA@
  0052a	6a 5e		 push	 94			; 0000005eH
  0052c	8b ce		 mov	 ecx, esi
  0052e	e8 00 00 00 00	 call	 ?SetText@CZtText@@QAEXHPAD@Z ; CZtText::SetText

; 133  : 	this->SetText(95, "[Evangelion] In Devias!");

  00533	68 00 00 00 00	 push	 OFFSET ??_C@_0BI@OBOMMEGL@?$FLEvangelion?$FN?5In?5Devias?$CB?$AA@
  00538	6a 5f		 push	 95			; 0000005fH
  0053a	8b ce		 mov	 ecx, esi
  0053c	e8 00 00 00 00	 call	 ?SetText@CZtText@@QAEXHPAD@Z ; CZtText::SetText

; 134  : 	this->SetText(96, "[Evangelion] Devias Win %s!");

  00541	68 00 00 00 00	 push	 OFFSET ??_C@_0BM@BFEGMEHA@?$FLEvangelion?$FN?5Devias?5Win?5?$CFs?$CB?$AA@
  00546	6a 60		 push	 96			; 00000060H
  00548	8b ce		 mov	 ecx, esi
  0054a	e8 00 00 00 00	 call	 ?SetText@CZtText@@QAEXHPAD@Z ; CZtText::SetText

; 135  : 	this->SetText(97, "[Evangelion] In Lorencia!");

  0054f	68 00 00 00 00	 push	 OFFSET ??_C@_0BK@NFIPBKLM@?$FLEvangelion?$FN?5In?5Lorencia?$CB?$AA@
  00554	6a 61		 push	 97			; 00000061H
  00556	8b ce		 mov	 ecx, esi
  00558	e8 00 00 00 00	 call	 ?SetText@CZtText@@QAEXHPAD@Z ; CZtText::SetText

; 136  : 	this->SetText(98, "[Evangelion] End!");

  0055d	68 00 00 00 00	 push	 OFFSET ??_C@_0BC@FHHCMEHD@?$FLEvangelion?$FN?5End?$CB?$AA@
  00562	6a 62		 push	 98			; 00000062H
  00564	8b ce		 mov	 ecx, esi
  00566	e8 00 00 00 00	 call	 ?SetText@CZtText@@QAEXHPAD@Z ; CZtText::SetText

; 137  : 	this->SetText(99, "[Happy Hour] Event Started!");

  0056b	68 00 00 00 00	 push	 OFFSET ??_C@_0BM@JPLLBIDJ@?$FLHappy?5Hour?$FN?5Event?5Started?$CB?$AA@
  00570	6a 63		 push	 99			; 00000063H
  00572	8b ce		 mov	 ecx, esi
  00574	e8 00 00 00 00	 call	 ?SetText@CZtText@@QAEXHPAD@Z ; CZtText::SetText

; 138  : 	this->SetText(100, "[Happy Hour] Exp: +%d%%%% Drop: +%d%%%%%");

  00579	68 00 00 00 00	 push	 OFFSET ??_C@_0CJ@MDEEPFFJ@?$FLHappy?5Hour?$FN?5Exp?3?5?$CL?$CFd?$CF?$CF?$CF?$CF?5Drop?3?5@
  0057e	6a 64		 push	 100			; 00000064H
  00580	8b ce		 mov	 ecx, esi
  00582	e8 00 00 00 00	 call	 ?SetText@CZtText@@QAEXHPAD@Z ; CZtText::SetText

; 139  : 	this->SetText(101, "[Happy Hour] Event Close!");

  00587	68 00 00 00 00	 push	 OFFSET ??_C@_0BK@GLEDHAJM@?$FLHappy?5Hour?$FN?5Event?5Close?$CB?$AA@
  0058c	6a 65		 push	 101			; 00000065H
  0058e	8b ce		 mov	 ecx, esi
  00590	e8 00 00 00 00	 call	 ?SetText@CZtText@@QAEXHPAD@Z ; CZtText::SetText

; 140  : 	this->SetText(102, "@[%s]: Mission: %d");

  00595	68 00 00 00 00	 push	 OFFSET ??_C@_0BD@DALIAMPI@?$EA?$FL?$CFs?$FN?3?5Mission?3?5?$CFd?$AA@
  0059a	6a 66		 push	 102			; 00000066H
  0059c	8b ce		 mov	 ecx, esi
  0059e	e8 00 00 00 00	 call	 ?SetText@CZtText@@QAEXHPAD@Z ; CZtText::SetText

; 141  : 	this->SetText(103, "@[%s]: Mission accomplished!");

  005a3	68 00 00 00 00	 push	 OFFSET ??_C@_0BN@LLEFKEPK@?$EA?$FL?$CFs?$FN?3?5Mission?5accomplished?$CB?$AA@
  005a8	6a 67		 push	 103			; 00000067H
  005aa	8b ce		 mov	 ecx, esi
  005ac	e8 00 00 00 00	 call	 ?SetText@CZtText@@QAEXHPAD@Z ; CZtText::SetText

; 142  : 	this->SetText(104, "@[%s]: FreePoints %d!");

  005b1	68 00 00 00 00	 push	 OFFSET ??_C@_0BG@MANINCDG@?$EA?$FL?$CFs?$FN?3?5FreePoints?5?$CFd?$CB?$AA@
  005b6	6a 68		 push	 104			; 00000068H
  005b8	8b ce		 mov	 ecx, esi
  005ba	e8 00 00 00 00	 call	 ?SetText@CZtText@@QAEXHPAD@Z ; CZtText::SetText

; 143  : 	this->SetText(105, "@[%s]: ZtCred %d!");

  005bf	68 00 00 00 00	 push	 OFFSET ??_C@_0BC@KBALHELM@?$EA?$FL?$CFs?$FN?3?5ZtCred?5?$CFd?$CB?$AA@
  005c4	6a 69		 push	 105			; 00000069H
  005c6	8b ce		 mov	 ecx, esi
  005c8	e8 00 00 00 00	 call	 ?SetText@CZtText@@QAEXHPAD@Z ; CZtText::SetText

; 144  : 	this->SetText(106, "@[%s]: WCoinC %d!");

  005cd	68 00 00 00 00	 push	 OFFSET ??_C@_0BC@LNAKJNEE@?$EA?$FL?$CFs?$FN?3?5WCoinC?5?$CFd?$CB?$AA@
  005d2	6a 6a		 push	 106			; 0000006aH
  005d4	8b ce		 mov	 ecx, esi
  005d6	e8 00 00 00 00	 call	 ?SetText@CZtText@@QAEXHPAD@Z ; CZtText::SetText

; 145  : 	this->SetText(107, "@[%s]: WCoinP %d!");

  005db	68 00 00 00 00	 push	 OFFSET ??_C@_0BC@DIEIONHB@?$EA?$FL?$CFs?$FN?3?5WCoinP?5?$CFd?$CB?$AA@
  005e0	6a 6b		 push	 107			; 0000006bH
  005e2	8b ce		 mov	 ecx, esi
  005e4	e8 00 00 00 00	 call	 ?SetText@CZtText@@QAEXHPAD@Z ; CZtText::SetText

; 146  : 	this->SetText(108, "@[%s]: Goblin Points %d!");

  005e9	68 00 00 00 00	 push	 OFFSET ??_C@_0BJ@FNBNDKKL@?$EA?$FL?$CFs?$FN?3?5Goblin?5Points?5?$CFd?$CB?$AA@
  005ee	6a 6c		 push	 108			; 0000006cH
  005f0	8b ce		 mov	 ecx, esi
  005f2	e8 00 00 00 00	 call	 ?SetText@CZtText@@QAEXHPAD@Z ; CZtText::SetText

; 147  : 	this->SetText(109, "[Monster Bonus]: +%d Credits");

  005f7	68 00 00 00 00	 push	 OFFSET ??_C@_0BN@OLDBCGLM@?$FLMonster?5Bonus?$FN?3?5?$CL?$CFd?5Credits?$AA@
  005fc	6a 6d		 push	 109			; 0000006dH
  005fe	8b ce		 mov	 ecx, esi
  00600	e8 00 00 00 00	 call	 ?SetText@CZtText@@QAEXHPAD@Z ; CZtText::SetText

; 148  : 	this->SetText(110, "[Monster Bonus]: +%d WcoinC");

  00605	68 00 00 00 00	 push	 OFFSET ??_C@_0BM@IAJFLMGN@?$FLMonster?5Bonus?$FN?3?5?$CL?$CFd?5WcoinC?$AA@
  0060a	6a 6e		 push	 110			; 0000006eH
  0060c	8b ce		 mov	 ecx, esi
  0060e	e8 00 00 00 00	 call	 ?SetText@CZtText@@QAEXHPAD@Z ; CZtText::SetText

; 149  : 	this->SetText(111, "[Monster Bonus]: +%d WcoinP");

  00613	68 00 00 00 00	 push	 OFFSET ??_C@_0BM@OBHKPNPP@?$FLMonster?5Bonus?$FN?3?5?$CL?$CFd?5WcoinP?$AA@
  00618	6a 6f		 push	 111			; 0000006fH
  0061a	8b ce		 mov	 ecx, esi
  0061c	e8 00 00 00 00	 call	 ?SetText@CZtText@@QAEXHPAD@Z ; CZtText::SetText

; 150  : 	this->SetText(112, "[Monster Bonus]: +%d Goblin Points");

  00621	68 00 00 00 00	 push	 OFFSET ??_C@_0CD@MKHEPPBN@?$FLMonster?5Bonus?$FN?3?5?$CL?$CFd?5Goblin?5Poin@
  00626	6a 70		 push	 112			; 00000070H
  00628	8b ce		 mov	 ecx, esi
  0062a	e8 00 00 00 00	 call	 ?SetText@CZtText@@QAEXHPAD@Z ; CZtText::SetText

; 151  : 	this->SetText(113, "[Credit Donate]:Buy Wcoin Multiple of 100");

  0062f	68 00 00 00 00	 push	 OFFSET ??_C@_0CK@FMNEIMBA@?$FLCredit?5Donate?$FN?3Buy?5Wcoin?5Multip@
  00634	6a 71		 push	 113			; 00000071H
  00636	8b ce		 mov	 ecx, esi
  00638	e8 00 00 00 00	 call	 ?SetText@CZtText@@QAEXHPAD@Z ; CZtText::SetText

; 152  : 	this->SetText(114, "[Credit Donate]:Buy Wcoin Need %d");

  0063d	68 00 00 00 00	 push	 OFFSET ??_C@_0CC@KIFIBJEP@?$FLCredit?5Donate?$FN?3Buy?5Wcoin?5Need?5?$CF@
  00642	6a 72		 push	 114			; 00000072H
  00644	8b ce		 mov	 ecx, esi
  00646	e8 00 00 00 00	 call	 ?SetText@CZtText@@QAEXHPAD@Z ; CZtText::SetText

; 153  : 	this->SetText(115, "[Credit Donate]:Buy Wcoin(P) Multiple of 100");

  0064b	68 00 00 00 00	 push	 OFFSET ??_C@_0CN@KJELFHNA@?$FLCredit?5Donate?$FN?3Buy?5Wcoin?$CIP?$CJ?5Mul@
  00650	6a 73		 push	 115			; 00000073H
  00652	8b ce		 mov	 ecx, esi
  00654	e8 00 00 00 00	 call	 ?SetText@CZtText@@QAEXHPAD@Z ; CZtText::SetText

; 154  : 	this->SetText(116, "[Credit Donate]:Buy Wcoin(P) Need %d");

  00659	68 00 00 00 00	 push	 OFFSET ??_C@_0CF@IBIBCJGE@?$FLCredit?5Donate?$FN?3Buy?5Wcoin?$CIP?$CJ?5Nee@
  0065e	6a 74		 push	 116			; 00000074H
  00660	8b ce		 mov	 ecx, esi
  00662	e8 00 00 00 00	 call	 ?SetText@CZtText@@QAEXHPAD@Z ; CZtText::SetText

; 155  : 	this->SetText(117, "[Credit Donate]:Buy Goblin Multiple of 100");

  00667	68 00 00 00 00	 push	 OFFSET ??_C@_0CL@DPCNHNIA@?$FLCredit?5Donate?$FN?3Buy?5Goblin?5Multi@
  0066c	6a 75		 push	 117			; 00000075H
  0066e	8b ce		 mov	 ecx, esi
  00670	e8 00 00 00 00	 call	 ?SetText@CZtText@@QAEXHPAD@Z ; CZtText::SetText

; 156  : 	this->SetText(118, "[Credit Donate]:Buy Goblin Need %d");

  00675	68 00 00 00 00	 push	 OFFSET ??_C@_0CD@OPBOIPPI@?$FLCredit?5Donate?$FN?3Buy?5Goblin?5Need?5@
  0067a	6a 76		 push	 118			; 00000076H
  0067c	8b ce		 mov	 ecx, esi
  0067e	e8 00 00 00 00	 call	 ?SetText@CZtText@@QAEXHPAD@Z ; CZtText::SetText

; 157  : 	this->SetText(119, "[Credit Donate]:Buy Premium Need %d");

  00683	68 00 00 00 00	 push	 OFFSET ??_C@_0CE@FPHGEDKP@?$FLCredit?5Donate?$FN?3Buy?5Premium?5Need@
  00688	6a 77		 push	 119			; 00000077H
  0068a	8b ce		 mov	 ecx, esi
  0068c	e8 00 00 00 00	 call	 ?SetText@CZtText@@QAEXHPAD@Z ; CZtText::SetText

; 158  : 	this->SetText(120, "[Credit Donate]: Need to make space in the inventory (%dx%d)");

  00691	68 00 00 00 00	 push	 OFFSET ??_C@_0DN@GJKGEGIC@?$FLCredit?5Donate?$FN?3?5Need?5to?5make?5sp@
  00696	6a 78		 push	 120			; 00000078H
  00698	8b ce		 mov	 ecx, esi
  0069a	e8 00 00 00 00	 call	 ?SetText@CZtText@@QAEXHPAD@Z ; CZtText::SetText

; 159  : 	this->SetText(121, "[Credit Donate]: Need %d Credits");

  0069f	68 00 00 00 00	 push	 OFFSET ??_C@_0CB@OOHAKKEO@?$FLCredit?5Donate?$FN?3?5Need?5?$CFd?5Credits@
  006a4	6a 79		 push	 121			; 00000079H
  006a6	8b ce		 mov	 ecx, esi
  006a8	e8 00 00 00 00	 call	 ?SetText@CZtText@@QAEXHPAD@Z ; CZtText::SetText

; 160  : 	this->SetText(122, "[Credit Donate]: Buy: %s, Price: %d");

  006ad	68 00 00 00 00	 push	 OFFSET ??_C@_0CE@GBGJMDIH@?$FLCredit?5Donate?$FN?3?5Buy?3?5?$CFs?0?5Price?3@
  006b2	6a 7a		 push	 122			; 0000007aH
  006b4	8b ce		 mov	 ecx, esi
  006b6	e8 00 00 00 00	 call	 ?SetText@CZtText@@QAEXHPAD@Z ; CZtText::SetText

; 161  : 	this->SetText(123, "[Credit Donate]: Sell %.2f Credits");

  006bb	68 00 00 00 00	 push	 OFFSET ??_C@_0CD@KGGNMMG@?$FLCredit?5Donate?$FN?3?5Sell?5?$CF?42f?5Credi@
  006c0	6a 7b		 push	 123			; 0000007bH
  006c2	8b ce		 mov	 ecx, esi
  006c4	e8 00 00 00 00	 call	 ?SetText@CZtText@@QAEXHPAD@Z ; CZtText::SetText

; 162  : 	this->SetText(124, "[Change Class]: You need Empty Inventory");

  006c9	68 00 00 00 00	 push	 OFFSET ??_C@_0CJ@LADKEPDC@?$FLChange?5Class?$FN?3?5You?5need?5Empty?5I@
  006ce	6a 7c		 push	 124			; 0000007cH
  006d0	8b ce		 mov	 ecx, esi
  006d2	e8 00 00 00 00	 call	 ?SetText@CZtText@@QAEXHPAD@Z ; CZtText::SetText

; 163  : 	this->SetText(125, "[Change Class]: Need %d Credit");

  006d7	68 00 00 00 00	 push	 OFFSET ??_C@_0BP@LBHMNDCK@?$FLChange?5Class?$FN?3?5Need?5?$CFd?5Credit?$AA@
  006dc	6a 7d		 push	 125			; 0000007dH
  006de	8b ce		 mov	 ecx, esi
  006e0	e8 00 00 00 00	 call	 ?SetText@CZtText@@QAEXHPAD@Z ; CZtText::SetText

; 164  : 	this->SetText(126, "[Add] Need %d zen");

  006e5	68 00 00 00 00	 push	 OFFSET ??_C@_0BC@GEGHIIJH@?$FLAdd?$FN?5Need?5?$CFd?5zen?$AA@
  006ea	6a 7e		 push	 126			; 0000007eH
  006ec	8b ce		 mov	 ecx, esi
  006ee	e8 00 00 00 00	 call	 ?SetText@CZtText@@QAEXHPAD@Z ; CZtText::SetText

; 165  : 	this->SetText(127, "[Add] Need %d level");

  006f3	68 00 00 00 00	 push	 OFFSET ??_C@_0BE@BKBFMADO@?$FLAdd?$FN?5Need?5?$CFd?5level?$AA@
  006f8	6a 7f		 push	 127			; 0000007fH
  006fa	8b ce		 mov	 ecx, esi
  006fc	e8 00 00 00 00	 call	 ?SetText@CZtText@@QAEXHPAD@Z ; CZtText::SetText

; 166  : 	this->SetText(128, "[PkClear] Need %d Level");

  00701	68 00 00 00 00	 push	 OFFSET ??_C@_0BI@KLKJIHEI@?$FLPkClear?$FN?5Need?5?$CFd?5Level?$AA@
  00706	68 80 00 00 00	 push	 128			; 00000080H
  0070b	8b ce		 mov	 ecx, esi
  0070d	e8 00 00 00 00	 call	 ?SetText@CZtText@@QAEXHPAD@Z ; CZtText::SetText

; 167  : 	this->SetText(129, "[PkClear] Need %d Zen");

  00712	68 00 00 00 00	 push	 OFFSET ??_C@_0BG@HHGJIIOJ@?$FLPkClear?$FN?5Need?5?$CFd?5Zen?$AA@
  00717	68 81 00 00 00	 push	 129			; 00000081H
  0071c	8b ce		 mov	 ecx, esi
  0071e	e8 00 00 00 00	 call	 ?SetText@CZtText@@QAEXHPAD@Z ; CZtText::SetText

; 168  : 	this->SetText(130, "/offzen");

  00723	68 00 00 00 00	 push	 OFFSET ??_C@_07LOEKANNA@?1offzen?$AA@
  00728	68 82 00 00 00	 push	 130			; 00000082H
  0072d	8b ce		 mov	 ecx, esi
  0072f	e8 00 00 00 00	 call	 ?SetText@CZtText@@QAEXHPAD@Z ; CZtText::SetText

; 169  : 	this->SetText(131, "/offcredit");

  00734	68 00 00 00 00	 push	 OFFSET ??_C@_0L@INHKBFGL@?1offcredit?$AA@
  00739	68 83 00 00 00	 push	 131			; 00000083H
  0073e	8b ce		 mov	 ecx, esi
  00740	e8 00 00 00 00	 call	 ?SetText@CZtText@@QAEXHPAD@Z ; CZtText::SetText

; 170  : 	this->SetText(132, "/offwcoinc");

  00745	68 00 00 00 00	 push	 OFFSET ??_C@_0L@GOHHCOOH@?1offwcoinc?$AA@
  0074a	68 84 00 00 00	 push	 132			; 00000084H
  0074f	8b ce		 mov	 ecx, esi
  00751	e8 00 00 00 00	 call	 ?SetText@CZtText@@QAEXHPAD@Z ; CZtText::SetText

; 171  : 	this->SetText(133, "/offwcoinp");

  00756	68 00 00 00 00	 push	 OFFSET ??_C@_0L@PJIGPHF@?1offwcoinp?$AA@
  0075b	68 85 00 00 00	 push	 133			; 00000085H
  00760	8b ce		 mov	 ecx, esi
  00762	e8 00 00 00 00	 call	 ?SetText@CZtText@@QAEXHPAD@Z ; CZtText::SetText

; 172  : 	this->SetText(134, "/offgoblin");

  00767	68 00 00 00 00	 push	 OFFSET ??_C@_0L@BMECOBJ@?1offgoblin?$AA@
  0076c	68 86 00 00 00	 push	 134			; 00000086H
  00771	8b ce		 mov	 ecx, esi
  00773	e8 00 00 00 00	 call	 ?SetText@CZtText@@QAEXHPAD@Z ; CZtText::SetText

; 173  : 	this->SetText(135, "/offchaos");

  00778	68 00 00 00 00	 push	 OFFSET ??_C@_09DMDKCGHE@?1offchaos?$AA@
  0077d	68 87 00 00 00	 push	 135			; 00000087H
  00782	8b ce		 mov	 ecx, esi
  00784	e8 00 00 00 00	 call	 ?SetText@CZtText@@QAEXHPAD@Z ; CZtText::SetText

; 174  : 	this->SetText(136, "/offbless");

  00789	68 00 00 00 00	 push	 OFFSET ??_C@_09JILIJOFC@?1offbless?$AA@
  0078e	68 88 00 00 00	 push	 136			; 00000088H
  00793	8b ce		 mov	 ecx, esi
  00795	e8 00 00 00 00	 call	 ?SetText@CZtText@@QAEXHPAD@Z ; CZtText::SetText

; 175  : 	this->SetText(137, "/offsoul");

  0079a	68 00 00 00 00	 push	 OFFSET ??_C@_08DNPLHCPG@?1offsoul?$AA@
  0079f	68 89 00 00 00	 push	 137			; 00000089H
  007a4	8b ce		 mov	 ecx, esi
  007a6	e8 00 00 00 00	 call	 ?SetText@CZtText@@QAEXHPAD@Z ; CZtText::SetText

; 176  : 	this->SetText(138, "/offlife");

  007ab	68 00 00 00 00	 push	 OFFSET ??_C@_08DFICILBJ@?1offlife?$AA@
  007b0	68 8a 00 00 00	 push	 138			; 0000008aH
  007b5	8b ce		 mov	 ecx, esi
  007b7	e8 00 00 00 00	 call	 ?SetText@CZtText@@QAEXHPAD@Z ; CZtText::SetText

; 177  : 	this->SetText(139, "/sendchaosbank");

  007bc	68 00 00 00 00	 push	 OFFSET ??_C@_0P@MFJHDLOA@?1sendchaosbank?$AA@
  007c1	68 8b 00 00 00	 push	 139			; 0000008bH
  007c6	8b ce		 mov	 ecx, esi
  007c8	e8 00 00 00 00	 call	 ?SetText@CZtText@@QAEXHPAD@Z ; CZtText::SetText

; 178  : 	this->SetText(140, "/sendblessbank");

  007cd	68 00 00 00 00	 push	 OFFSET ??_C@_0P@FDINPJJC@?1sendblessbank?$AA@
  007d2	68 8c 00 00 00	 push	 140			; 0000008cH
  007d7	8b ce		 mov	 ecx, esi
  007d9	e8 00 00 00 00	 call	 ?SetText@CZtText@@QAEXHPAD@Z ; CZtText::SetText

; 179  : 	this->SetText(141, "/sendsoulbank");

  007de	68 00 00 00 00	 push	 OFFSET ??_C@_0O@HNHOMFNH@?1sendsoulbank?$AA@
  007e3	68 8d 00 00 00	 push	 141			; 0000008dH
  007e8	8b ce		 mov	 ecx, esi
  007ea	e8 00 00 00 00	 call	 ?SetText@CZtText@@QAEXHPAD@Z ; CZtText::SetText

; 180  : 	this->SetText(142, "/sendlifebank");

  007ef	68 00 00 00 00	 push	 OFFSET ??_C@_0O@LJFBJGGL@?1sendlifebank?$AA@
  007f4	68 8e 00 00 00	 push	 142			; 0000008eH
  007f9	8b ce		 mov	 ecx, esi
  007fb	e8 00 00 00 00	 call	 ?SetText@CZtText@@QAEXHPAD@Z ; CZtText::SetText

; 181  : 	this->SetText(143, "/recvchaosbank");

  00800	68 00 00 00 00	 push	 OFFSET ??_C@_0P@DAKNKGHC@?1recvchaosbank?$AA@
  00805	68 8f 00 00 00	 push	 143			; 0000008fH
  0080a	8b ce		 mov	 ecx, esi
  0080c	e8 00 00 00 00	 call	 ?SetText@CZtText@@QAEXHPAD@Z ; CZtText::SetText

; 182  : 	this->SetText(144, "/recvblessbank");

  00811	68 00 00 00 00	 push	 OFFSET ??_C@_0P@KGLHGEAA@?1recvblessbank?$AA@
  00816	68 90 00 00 00	 push	 144			; 00000090H
  0081b	8b ce		 mov	 ecx, esi
  0081d	e8 00 00 00 00	 call	 ?SetText@CZtText@@QAEXHPAD@Z ; CZtText::SetText

; 183  : 	this->SetText(145, "/recvsoulbank");

  00822	68 00 00 00 00	 push	 OFFSET ??_C@_0O@EICHAAIA@?1recvsoulbank?$AA@
  00827	68 91 00 00 00	 push	 145			; 00000091H
  0082c	8b ce		 mov	 ecx, esi
  0082e	e8 00 00 00 00	 call	 ?SetText@CZtText@@QAEXHPAD@Z ; CZtText::SetText

; 184  : 	this->SetText(146, "/recvlifebank");

  00833	68 00 00 00 00	 push	 OFFSET ??_C@_0O@IMAIFDDM@?1recvlifebank?$AA@
  00838	68 92 00 00 00	 push	 146			; 00000092H
  0083d	8b ce		 mov	 ecx, esi
  0083f	e8 00 00 00 00	 call	 ?SetText@CZtText@@QAEXHPAD@Z ; CZtText::SetText

; 185  : 	this->SetText(147, "[JewelsBank] Need %d Chaos");

  00844	68 00 00 00 00	 push	 OFFSET ??_C@_0BL@EEPOEDMC@?$FLJewelsBank?$FN?5Need?5?$CFd?5Chaos?$AA@
  00849	68 93 00 00 00	 push	 147			; 00000093H
  0084e	8b ce		 mov	 ecx, esi
  00850	e8 00 00 00 00	 call	 ?SetText@CZtText@@QAEXHPAD@Z ; CZtText::SetText

; 186  : 	this->SetText(148, "[JewelsBank] Send %d Chaos");

  00855	68 00 00 00 00	 push	 OFFSET ??_C@_0BL@OECEKLPL@?$FLJewelsBank?$FN?5Send?5?$CFd?5Chaos?$AA@
  0085a	68 94 00 00 00	 push	 148			; 00000094H
  0085f	8b ce		 mov	 ecx, esi
  00861	e8 00 00 00 00	 call	 ?SetText@CZtText@@QAEXHPAD@Z ; CZtText::SetText

; 187  : 	this->SetText(149, "[JewelsBank] Need %d Bless");

  00866	68 00 00 00 00	 push	 OFFSET ??_C@_0BL@OAHMPLOE@?$FLJewelsBank?$FN?5Need?5?$CFd?5Bless?$AA@
  0086b	68 95 00 00 00	 push	 149			; 00000095H
  00870	8b ce		 mov	 ecx, esi
  00872	e8 00 00 00 00	 call	 ?SetText@CZtText@@QAEXHPAD@Z ; CZtText::SetText

; 188  : 	this->SetText(150, "[JewelsBank] Send %d Bless");

  00877	68 00 00 00 00	 push	 OFFSET ??_C@_0BL@EAKGBDNN@?$FLJewelsBank?$FN?5Send?5?$CFd?5Bless?$AA@
  0087c	68 96 00 00 00	 push	 150			; 00000096H
  00881	8b ce		 mov	 ecx, esi
  00883	e8 00 00 00 00	 call	 ?SetText@CZtText@@QAEXHPAD@Z ; CZtText::SetText

; 189  : 	this->SetText(151, "[JewelsBank] Need %d Soul");

  00888	68 00 00 00 00	 push	 OFFSET ??_C@_0BK@POFHGGLO@?$FLJewelsBank?$FN?5Need?5?$CFd?5Soul?$AA@
  0088d	68 97 00 00 00	 push	 151			; 00000097H
  00892	8b ce		 mov	 ecx, esi
  00894	e8 00 00 00 00	 call	 ?SetText@CZtText@@QAEXHPAD@Z ; CZtText::SetText

; 190  : 	this->SetText(152, "[JewelsBank] Send %d Soul");

  00899	68 00 00 00 00	 push	 OFFSET ??_C@_0BK@COFNCHFO@?$FLJewelsBank?$FN?5Send?5?$CFd?5Soul?$AA@
  0089e	68 98 00 00 00	 push	 152			; 00000098H
  008a3	8b ce		 mov	 ecx, esi
  008a5	e8 00 00 00 00	 call	 ?SetText@CZtText@@QAEXHPAD@Z ; CZtText::SetText

; 191  : 	this->SetText(153, "[JewelsBank] Need %d Life");

  008aa	68 00 00 00 00	 push	 OFFSET ??_C@_0BK@PGCOJPFB@?$FLJewelsBank?$FN?5Need?5?$CFd?5Life?$AA@
  008af	68 99 00 00 00	 push	 153			; 00000099H
  008b4	8b ce		 mov	 ecx, esi
  008b6	e8 00 00 00 00	 call	 ?SetText@CZtText@@QAEXHPAD@Z ; CZtText::SetText

; 192  : 	this->SetText(154, "[JewelsBank] Send %d Life");

  008bb	68 00 00 00 00	 push	 OFFSET ??_C@_0BK@CGCENOLB@?$FLJewelsBank?$FN?5Send?5?$CFd?5Life?$AA@
  008c0	68 9a 00 00 00	 push	 154			; 0000009aH
  008c5	8b ce		 mov	 ecx, esi
  008c7	e8 00 00 00 00	 call	 ?SetText@CZtText@@QAEXHPAD@Z ; CZtText::SetText

; 193  : 	this->SetText(155, "[JewelsBank] No %d Chaos");

  008cc	68 00 00 00 00	 push	 OFFSET ??_C@_0BJ@BFBBDENF@?$FLJewelsBank?$FN?5No?5?$CFd?5Chaos?$AA@
  008d1	68 9b 00 00 00	 push	 155			; 0000009bH
  008d6	8b ce		 mov	 ecx, esi
  008d8	e8 00 00 00 00	 call	 ?SetText@CZtText@@QAEXHPAD@Z ; CZtText::SetText

; 194  : 	this->SetText(156, "[JewelsBank] Inventory %d");

  008dd	68 00 00 00 00	 push	 OFFSET ??_C@_0BK@KJOAAKB@?$FLJewelsBank?$FN?5Inventory?5?$CFd?$AA@
  008e2	68 9c 00 00 00	 push	 156			; 0000009cH
  008e7	8b ce		 mov	 ecx, esi
  008e9	e8 00 00 00 00	 call	 ?SetText@CZtText@@QAEXHPAD@Z ; CZtText::SetText

; 195  : 	this->SetText(157, "[JewelsBank] Recv %d Chaos");

  008ee	68 00 00 00 00	 push	 OFFSET ??_C@_0BL@BBBODGGJ@?$FLJewelsBank?$FN?5Recv?5?$CFd?5Chaos?$AA@
  008f3	68 9d 00 00 00	 push	 157			; 0000009dH
  008f8	8b ce		 mov	 ecx, esi
  008fa	e8 00 00 00 00	 call	 ?SetText@CZtText@@QAEXHPAD@Z ; CZtText::SetText

; 196  : 	this->SetText(158, "[JewelsBank] No %d Bless");

  008ff	68 00 00 00 00	 push	 OFFSET ??_C@_0BJ@LBJDIMPD@?$FLJewelsBank?$FN?5No?5?$CFd?5Bless?$AA@
  00904	68 9e 00 00 00	 push	 158			; 0000009eH
  00909	8b ce		 mov	 ecx, esi
  0090b	e8 00 00 00 00	 call	 ?SetText@CZtText@@QAEXHPAD@Z ; CZtText::SetText

; 197  : 	this->SetText(159, "[JewelsBank] Recv %d Bless");

  00910	68 00 00 00 00	 push	 OFFSET ??_C@_0BL@LFJMIOEP@?$FLJewelsBank?$FN?5Recv?5?$CFd?5Bless?$AA@
  00915	68 9f 00 00 00	 push	 159			; 0000009fH
  0091a	8b ce		 mov	 ecx, esi
  0091c	e8 00 00 00 00	 call	 ?SetText@CZtText@@QAEXHPAD@Z ; CZtText::SetText

; 198  : 	this->SetText(160, "[JewelsBank] No %d Soul");

  00921	68 00 00 00 00	 push	 OFFSET ??_C@_0BI@MPCAELIP@?$FLJewelsBank?$FN?5No?5?$CFd?5Soul?$AA@
  00926	68 a0 00 00 00	 push	 160			; 000000a0H
  0092b	8b ce		 mov	 ecx, esi
  0092d	e8 00 00 00 00	 call	 ?SetText@CZtText@@QAEXHPAD@Z ; CZtText::SetText

; 199  : 	this->SetText(161, "[JewelsBank] Recv %d Soul");

  00932	68 00 00 00 00	 push	 OFFSET ??_C@_0BK@BLAEOCAJ@?$FLJewelsBank?$FN?5Recv?5?$CFd?5Soul?$AA@
  00937	68 a1 00 00 00	 push	 161			; 000000a1H
  0093c	8b ce		 mov	 ecx, esi
  0093e	e8 00 00 00 00	 call	 ?SetText@CZtText@@QAEXHPAD@Z ; CZtText::SetText

; 200  : 	this->SetText(162, "[JewelsBank] No %d Life");

  00943	68 00 00 00 00	 push	 OFFSET ??_C@_0BI@MHFJLCGA@?$FLJewelsBank?$FN?5No?5?$CFd?5Life?$AA@
  00948	68 a2 00 00 00	 push	 162			; 000000a2H
  0094d	8b ce		 mov	 ecx, esi
  0094f	e8 00 00 00 00	 call	 ?SetText@CZtText@@QAEXHPAD@Z ; CZtText::SetText

; 201  : 	this->SetText(163, "[JewelsBank] Recv %d Life");

  00954	68 00 00 00 00	 push	 OFFSET ??_C@_0BK@BDHNBLOG@?$FLJewelsBank?$FN?5Recv?5?$CFd?5Life?$AA@
  00959	68 a3 00 00 00	 push	 163			; 000000a3H
  0095e	8b ce		 mov	 ecx, esi
  00960	e8 00 00 00 00	 call	 ?SetText@CZtText@@QAEXHPAD@Z ; CZtText::SetText

; 202  : 	this->SetText(164, "Lorencia");

  00965	68 00 00 00 00	 push	 OFFSET ??_C@_08DPCEMNDG@Lorencia?$AA@
  0096a	68 a4 00 00 00	 push	 164			; 000000a4H
  0096f	8b ce		 mov	 ecx, esi
  00971	e8 00 00 00 00	 call	 ?SetText@CZtText@@QAEXHPAD@Z ; CZtText::SetText

; 203  : 	this->SetText(165, "Dungeon");

  00976	68 00 00 00 00	 push	 OFFSET ??_C@_07CELLBLHP@Dungeon?$AA@
  0097b	68 a5 00 00 00	 push	 165			; 000000a5H
  00980	8b ce		 mov	 ecx, esi
  00982	e8 00 00 00 00	 call	 ?SetText@CZtText@@QAEXHPAD@Z ; CZtText::SetText

; 204  : 	this->SetText(166, "Devias");

  00987	68 00 00 00 00	 push	 OFFSET ??_C@_06PHFFMJMG@Devias?$AA@
  0098c	68 a6 00 00 00	 push	 166			; 000000a6H
  00991	8b ce		 mov	 ecx, esi
  00993	e8 00 00 00 00	 call	 ?SetText@CZtText@@QAEXHPAD@Z ; CZtText::SetText

; 205  : 	this->SetText(167, "Noria");

  00998	68 00 00 00 00	 push	 OFFSET ??_C@_05JKNLBHIC@Noria?$AA@
  0099d	68 a7 00 00 00	 push	 167			; 000000a7H
  009a2	8b ce		 mov	 ecx, esi
  009a4	e8 00 00 00 00	 call	 ?SetText@CZtText@@QAEXHPAD@Z ; CZtText::SetText

; 206  : 	this->SetText(168, "LostTower");

  009a9	68 00 00 00 00	 push	 OFFSET ??_C@_09IFBHMHO@LostTower?$AA@
  009ae	68 a8 00 00 00	 push	 168			; 000000a8H
  009b3	8b ce		 mov	 ecx, esi
  009b5	e8 00 00 00 00	 call	 ?SetText@CZtText@@QAEXHPAD@Z ; CZtText::SetText

; 207  : 	this->SetText(169, "Arena");

  009ba	68 00 00 00 00	 push	 OFFSET ??_C@_05DLHMIPMH@Arena?$AA@
  009bf	68 a9 00 00 00	 push	 169			; 000000a9H
  009c4	8b ce		 mov	 ecx, esi
  009c6	e8 00 00 00 00	 call	 ?SetText@CZtText@@QAEXHPAD@Z ; CZtText::SetText

; 208  : 	this->SetText(170, "Atlans");

  009cb	68 00 00 00 00	 push	 OFFSET ??_C@_06IJFPNHKO@Atlans?$AA@
  009d0	68 aa 00 00 00	 push	 170			; 000000aaH
  009d5	8b ce		 mov	 ecx, esi
  009d7	e8 00 00 00 00	 call	 ?SetText@CZtText@@QAEXHPAD@Z ; CZtText::SetText

; 209  : 	this->SetText(171, "Tarkan");

  009dc	68 00 00 00 00	 push	 OFFSET ??_C@_06KLPPBFEJ@Tarkan?$AA@
  009e1	68 ab 00 00 00	 push	 171			; 000000abH
  009e6	8b ce		 mov	 ecx, esi
  009e8	e8 00 00 00 00	 call	 ?SetText@CZtText@@QAEXHPAD@Z ; CZtText::SetText

; 210  : 	this->SetText(172, "DevilSquare");

  009ed	68 00 00 00 00	 push	 OFFSET ??_C@_0M@DFALAJPK@DevilSquare?$AA@
  009f2	68 ac 00 00 00	 push	 172			; 000000acH
  009f7	8b ce		 mov	 ecx, esi
  009f9	e8 00 00 00 00	 call	 ?SetText@CZtText@@QAEXHPAD@Z ; CZtText::SetText

; 211  : 	this->SetText(173, "Icarus");

  009fe	68 00 00 00 00	 push	 OFFSET ??_C@_06OCMNLLL@Icarus?$AA@
  00a03	68 ad 00 00 00	 push	 173			; 000000adH
  00a08	8b ce		 mov	 ecx, esi
  00a0a	e8 00 00 00 00	 call	 ?SetText@CZtText@@QAEXHPAD@Z ; CZtText::SetText

; 212  : 	this->SetText(174, "Blood Castle 1");

  00a0f	68 00 00 00 00	 push	 OFFSET ??_C@_0P@CICLPECB@Blood?5Castle?51?$AA@
  00a14	68 ae 00 00 00	 push	 174			; 000000aeH
  00a19	8b ce		 mov	 ecx, esi
  00a1b	e8 00 00 00 00	 call	 ?SetText@CZtText@@QAEXHPAD@Z ; CZtText::SetText

; 213  : 	this->SetText(175, "Blood Castle 2");

  00a20	68 00 00 00 00	 push	 OFFSET ??_C@_0P@DAGKHOC@Blood?5Castle?52?$AA@
  00a25	68 af 00 00 00	 push	 175			; 000000afH
  00a2a	8b ce		 mov	 ecx, esi
  00a2c	e8 00 00 00 00	 call	 ?SetText@CZtText@@QAEXHPAD@Z ; CZtText::SetText

; 214  : 	this->SetText(176, "Blood Castle 3");

  00a31	68 00 00 00 00	 push	 OFFSET ??_C@_0P@BKBNJGKD@Blood?5Castle?53?$AA@
  00a36	68 b0 00 00 00	 push	 176			; 000000b0H
  00a3b	8b ce		 mov	 ecx, esi
  00a3d	e8 00 00 00 00	 call	 ?SetText@CZtText@@QAEXHPAD@Z ; CZtText::SetText

; 215  : 	this->SetText(177, "Blood Castle 4");

  00a42	68 00 00 00 00	 push	 OFFSET ??_C@_0P@FFFMAAGE@Blood?5Castle?54?$AA@
  00a47	68 b1 00 00 00	 push	 177			; 000000b1H
  00a4c	8b ce		 mov	 ecx, esi
  00a4e	e8 00 00 00 00	 call	 ?SetText@CZtText@@QAEXHPAD@Z ; CZtText::SetText

; 216  : 	this->SetText(178, "Blood Castle 5");

  00a53	68 00 00 00 00	 push	 OFFSET ??_C@_0P@EMEHDBCF@Blood?5Castle?55?$AA@
  00a58	68 b2 00 00 00	 push	 178			; 000000b2H
  00a5d	8b ce		 mov	 ecx, esi
  00a5f	e8 00 00 00 00	 call	 ?SetText@CZtText@@QAEXHPAD@Z ; CZtText::SetText

; 217  : 	this->SetText(179, "Blood Castle 6");

  00a64	68 00 00 00 00	 push	 OFFSET ??_C@_0P@GHGKGCOG@Blood?5Castle?56?$AA@
  00a69	68 b3 00 00 00	 push	 179			; 000000b3H
  00a6e	8b ce		 mov	 ecx, esi
  00a70	e8 00 00 00 00	 call	 ?SetText@CZtText@@QAEXHPAD@Z ; CZtText::SetText

; 218  : 	this->SetText(180, "Blood Castle 7");

  00a75	68 00 00 00 00	 push	 OFFSET ??_C@_0P@HOHBFDKH@Blood?5Castle?57?$AA@
  00a7a	68 b4 00 00 00	 push	 180			; 000000b4H
  00a7f	8b ce		 mov	 ecx, esi
  00a81	e8 00 00 00 00	 call	 ?SetText@CZtText@@QAEXHPAD@Z ; CZtText::SetText

; 219  : 	this->SetText(181, "Chaos Castle 1");

  00a86	68 00 00 00 00	 push	 OFFSET ??_C@_0P@PFFHHNCK@Chaos?5Castle?51?$AA@
  00a8b	68 b5 00 00 00	 push	 181			; 000000b5H
  00a90	8b ce		 mov	 ecx, esi
  00a92	e8 00 00 00 00	 call	 ?SetText@CZtText@@QAEXHPAD@Z ; CZtText::SetText

; 220  : 	this->SetText(182, "Chaos Castle 2");

  00a97	68 00 00 00 00	 push	 OFFSET ??_C@_0P@NOHKCOOJ@Chaos?5Castle?52?$AA@
  00a9c	68 b6 00 00 00	 push	 182			; 000000b6H
  00aa1	8b ce		 mov	 ecx, esi
  00aa3	e8 00 00 00 00	 call	 ?SetText@CZtText@@QAEXHPAD@Z ; CZtText::SetText

; 221  : 	this->SetText(183, "Chaos Castle 3");

  00aa8	68 00 00 00 00	 push	 OFFSET ??_C@_0P@MHGBBPKI@Chaos?5Castle?53?$AA@
  00aad	68 b7 00 00 00	 push	 183			; 000000b7H
  00ab2	8b ce		 mov	 ecx, esi
  00ab4	e8 00 00 00 00	 call	 ?SetText@CZtText@@QAEXHPAD@Z ; CZtText::SetText

; 222  : 	this->SetText(184, "Chaos Castle 4");

  00ab9	68 00 00 00 00	 push	 OFFSET ??_C@_0P@IICAIJGP@Chaos?5Castle?54?$AA@
  00abe	68 b8 00 00 00	 push	 184			; 000000b8H
  00ac3	8b ce		 mov	 ecx, esi
  00ac5	e8 00 00 00 00	 call	 ?SetText@CZtText@@QAEXHPAD@Z ; CZtText::SetText

; 223  : 	this->SetText(185, "Chaos Castle 5");

  00aca	68 00 00 00 00	 push	 OFFSET ??_C@_0P@JBDLLICO@Chaos?5Castle?55?$AA@
  00acf	68 b9 00 00 00	 push	 185			; 000000b9H
  00ad4	8b ce		 mov	 ecx, esi
  00ad6	e8 00 00 00 00	 call	 ?SetText@CZtText@@QAEXHPAD@Z ; CZtText::SetText

; 224  : 	this->SetText(186, "Chaos Castle 6");

  00adb	68 00 00 00 00	 push	 OFFSET ??_C@_0P@LKBGOLON@Chaos?5Castle?56?$AA@
  00ae0	68 ba 00 00 00	 push	 186			; 000000baH
  00ae5	8b ce		 mov	 ecx, esi
  00ae7	e8 00 00 00 00	 call	 ?SetText@CZtText@@QAEXHPAD@Z ; CZtText::SetText

; 225  : 	this->SetText(187, "Kalima 1");

  00aec	68 00 00 00 00	 push	 OFFSET ??_C@_08CGLFMMGF@Kalima?51?$AA@
  00af1	68 bb 00 00 00	 push	 187			; 000000bbH
  00af6	8b ce		 mov	 ecx, esi
  00af8	e8 00 00 00 00	 call	 ?SetText@CZtText@@QAEXHPAD@Z ; CZtText::SetText

; 226  : 	this->SetText(188, "Kalima 2");

  00afd	68 00 00 00 00	 push	 OFFSET ??_C@_08NJIJPKG@Kalima?52?$AA@
  00b02	68 bc 00 00 00	 push	 188			; 000000bcH
  00b07	8b ce		 mov	 ecx, esi
  00b09	e8 00 00 00 00	 call	 ?SetText@CZtText@@QAEXHPAD@Z ; CZtText::SetText

; 227  : 	this->SetText(189, "Kalima 3");

  00b0e	68 00 00 00 00	 push	 OFFSET ??_C@_08BEIDKOOH@Kalima?53?$AA@
  00b13	68 bd 00 00 00	 push	 189			; 000000bdH
  00b18	8b ce		 mov	 ecx, esi
  00b1a	e8 00 00 00 00	 call	 ?SetText@CZtText@@QAEXHPAD@Z ; CZtText::SetText

; 228  : 	this->SetText(190, "Kalima 4");

  00b1f	68 00 00 00 00	 push	 OFFSET ??_C@_08FLMCDICA@Kalima?54?$AA@
  00b24	68 be 00 00 00	 push	 190			; 000000beH
  00b29	8b ce		 mov	 ecx, esi
  00b2b	e8 00 00 00 00	 call	 ?SetText@CZtText@@QAEXHPAD@Z ; CZtText::SetText

; 229  : 	this->SetText(191, "Kalima 5");

  00b30	68 00 00 00 00	 push	 OFFSET ??_C@_08ECNJAJGB@Kalima?55?$AA@
  00b35	68 bf 00 00 00	 push	 191			; 000000bfH
  00b3a	8b ce		 mov	 ecx, esi
  00b3c	e8 00 00 00 00	 call	 ?SetText@CZtText@@QAEXHPAD@Z ; CZtText::SetText

; 230  : 	this->SetText(192, "Kalima 6");

  00b41	68 00 00 00 00	 push	 OFFSET ??_C@_08GJPEFKKC@Kalima?56?$AA@
  00b46	68 c0 00 00 00	 push	 192			; 000000c0H
  00b4b	8b ce		 mov	 ecx, esi
  00b4d	e8 00 00 00 00	 call	 ?SetText@CZtText@@QAEXHPAD@Z ; CZtText::SetText

; 231  : 	this->SetText(193, "Castle");

  00b52	68 00 00 00 00	 push	 OFFSET ??_C@_06NHLAJDOI@Castle?$AA@
  00b57	68 c1 00 00 00	 push	 193			; 000000c1H
  00b5c	8b ce		 mov	 ecx, esi
  00b5e	e8 00 00 00 00	 call	 ?SetText@CZtText@@QAEXHPAD@Z ; CZtText::SetText

; 232  : 	this->SetText(194, "Land Of Trial");

  00b63	68 00 00 00 00	 push	 OFFSET ??_C@_0O@PCDCCCEO@Land?5Of?5Trial?$AA@
  00b68	68 c2 00 00 00	 push	 194			; 000000c2H
  00b6d	8b ce		 mov	 ecx, esi
  00b6f	e8 00 00 00 00	 call	 ?SetText@CZtText@@QAEXHPAD@Z ; CZtText::SetText

; 233  : 	this->SetText(195, "Aida");

  00b74	68 00 00 00 00	 push	 OFFSET ??_C@_04CJFIPIII@Aida?$AA@
  00b79	68 c3 00 00 00	 push	 195			; 000000c3H
  00b7e	8b ce		 mov	 ecx, esi
  00b80	e8 00 00 00 00	 call	 ?SetText@CZtText@@QAEXHPAD@Z ; CZtText::SetText

; 234  : 	this->SetText(196, "Cry Wolf");

  00b85	68 00 00 00 00	 push	 OFFSET ??_C@_08PFNMNIFL@Cry?5Wolf?$AA@
  00b8a	68 c4 00 00 00	 push	 196			; 000000c4H
  00b8f	8b ce		 mov	 ecx, esi
  00b91	e8 00 00 00 00	 call	 ?SetText@CZtText@@QAEXHPAD@Z ; CZtText::SetText

; 235  : 	this->SetText(197, "Cry Wolf");

  00b96	68 00 00 00 00	 push	 OFFSET ??_C@_08PFNMNIFL@Cry?5Wolf?$AA@
  00b9b	68 c5 00 00 00	 push	 197			; 000000c5H
  00ba0	8b ce		 mov	 ecx, esi
  00ba2	e8 00 00 00 00	 call	 ?SetText@CZtText@@QAEXHPAD@Z ; CZtText::SetText

; 236  : 	this->SetText(198, "Kalima 7");

  00ba7	68 00 00 00 00	 push	 OFFSET ??_C@_08HAOPGLOD@Kalima?57?$AA@
  00bac	68 c6 00 00 00	 push	 198			; 000000c6H
  00bb1	8b ce		 mov	 ecx, esi
  00bb3	e8 00 00 00 00	 call	 ?SetText@CZtText@@QAEXHPAD@Z ; CZtText::SetText

; 237  : 	this->SetText(199, "Kanturu");

  00bb8	68 00 00 00 00	 push	 OFFSET ??_C@_07KEJLPAHK@Kanturu?$AA@
  00bbd	68 c7 00 00 00	 push	 199			; 000000c7H
  00bc2	8b ce		 mov	 ecx, esi
  00bc4	e8 00 00 00 00	 call	 ?SetText@CZtText@@QAEXHPAD@Z ; CZtText::SetText

; 238  : 	this->SetText(200, "Kanturu Relic");

  00bc9	68 00 00 00 00	 push	 OFFSET ??_C@_0O@PBLCAFMO@Kanturu?5Relic?$AA@
  00bce	68 c8 00 00 00	 push	 200			; 000000c8H
  00bd3	8b ce		 mov	 ecx, esi
  00bd5	e8 00 00 00 00	 call	 ?SetText@CZtText@@QAEXHPAD@Z ; CZtText::SetText

; 239  : 	this->SetText(201, "Kanturu Boss");

  00bda	68 00 00 00 00	 push	 OFFSET ??_C@_0N@BKFGNFED@Kanturu?5Boss?$AA@
  00bdf	68 c9 00 00 00	 push	 201			; 000000c9H
  00be4	8b ce		 mov	 ecx, esi
  00be6	e8 00 00 00 00	 call	 ?SetText@CZtText@@QAEXHPAD@Z ; CZtText::SetText

; 240  : 	this->SetText(202, "Balgas Baraks");

  00beb	68 00 00 00 00	 push	 OFFSET ??_C@_0O@FHBIHDBH@Balgas?5Baraks?$AA@
  00bf0	68 ca 00 00 00	 push	 202			; 000000caH
  00bf5	8b ce		 mov	 ecx, esi
  00bf7	e8 00 00 00 00	 call	 ?SetText@CZtText@@QAEXHPAD@Z ; CZtText::SetText

; 241  : 	this->SetText(203, "Balgas Refuge");

  00bfc	68 00 00 00 00	 push	 OFFSET ??_C@_0O@PEMOBAPG@Balgas?5Refuge?$AA@
  00c01	68 cb 00 00 00	 push	 203			; 000000cbH
  00c06	8b ce		 mov	 ecx, esi
  00c08	e8 00 00 00 00	 call	 ?SetText@CZtText@@QAEXHPAD@Z ; CZtText::SetText

; 242  : 	this->SetText(204, "Illusion Temple 1");

  00c0d	68 00 00 00 00	 push	 OFFSET ??_C@_0BC@GHKCBENJ@Illusion?5Temple?51?$AA@
  00c12	68 cc 00 00 00	 push	 204			; 000000ccH
  00c17	8b ce		 mov	 ecx, esi
  00c19	e8 00 00 00 00	 call	 ?SetText@CZtText@@QAEXHPAD@Z ; CZtText::SetText

; 243  : 	this->SetText(205, "Illusion Temple 2");

  00c1e	68 00 00 00 00	 push	 OFFSET ??_C@_0BC@EMIPEHBK@Illusion?5Temple?52?$AA@
  00c23	68 cd 00 00 00	 push	 205			; 000000cdH
  00c28	8b ce		 mov	 ecx, esi
  00c2a	e8 00 00 00 00	 call	 ?SetText@CZtText@@QAEXHPAD@Z ; CZtText::SetText

; 244  : 	this->SetText(206, "Illusion Temple 3");

  00c2f	68 00 00 00 00	 push	 OFFSET ??_C@_0BC@FFJEHGFL@Illusion?5Temple?53?$AA@
  00c34	68 ce 00 00 00	 push	 206			; 000000ceH
  00c39	8b ce		 mov	 ecx, esi
  00c3b	e8 00 00 00 00	 call	 ?SetText@CZtText@@QAEXHPAD@Z ; CZtText::SetText

; 245  : 	this->SetText(207, "Illusion Temple 4");

  00c40	68 00 00 00 00	 push	 OFFSET ??_C@_0BC@BKNFOAJM@Illusion?5Temple?54?$AA@
  00c45	68 cf 00 00 00	 push	 207			; 000000cfH
  00c4a	8b ce		 mov	 ecx, esi
  00c4c	e8 00 00 00 00	 call	 ?SetText@CZtText@@QAEXHPAD@Z ; CZtText::SetText

; 246  : 	this->SetText(208, "Illusion Temple 5");

  00c51	68 00 00 00 00	 push	 OFFSET ??_C@_0BC@DMONBNN@Illusion?5Temple?55?$AA@
  00c56	68 d0 00 00 00	 push	 208			; 000000d0H
  00c5b	8b ce		 mov	 ecx, esi
  00c5d	e8 00 00 00 00	 call	 ?SetText@CZtText@@QAEXHPAD@Z ; CZtText::SetText

; 247  : 	this->SetText(209, "Illusion Temple 6");

  00c62	68 00 00 00 00	 push	 OFFSET ??_C@_0BC@CIODICBO@Illusion?5Temple?56?$AA@
  00c67	68 d1 00 00 00	 push	 209			; 000000d1H
  00c6c	8b ce		 mov	 ecx, esi
  00c6e	e8 00 00 00 00	 call	 ?SetText@CZtText@@QAEXHPAD@Z ; CZtText::SetText

; 248  : 	this->SetText(210, "Elblend");

  00c73	68 00 00 00 00	 push	 OFFSET ??_C@_07OBGILBCL@Elblend?$AA@
  00c78	68 d2 00 00 00	 push	 210			; 000000d2H
  00c7d	8b ce		 mov	 ecx, esi
  00c7f	e8 00 00 00 00	 call	 ?SetText@CZtText@@QAEXHPAD@Z ; CZtText::SetText

; 249  : 	this->SetText(211, "Blood Castle 8");

  00c84	68 00 00 00 00	 push	 OFFSET ??_C@_0P@PJOJEPGI@Blood?5Castle?58?$AA@
  00c89	68 d3 00 00 00	 push	 211			; 000000d3H
  00c8e	8b ce		 mov	 ecx, esi
  00c90	e8 00 00 00 00	 call	 ?SetText@CZtText@@QAEXHPAD@Z ; CZtText::SetText

; 250  : 	this->SetText(212, "Chaos Castle 7");

  00c95	68 00 00 00 00	 push	 OFFSET ??_C@_0P@KDANNKKM@Chaos?5Castle?57?$AA@
  00c9a	68 d4 00 00 00	 push	 212			; 000000d4H
  00c9f	8b ce		 mov	 ecx, esi
  00ca1	e8 00 00 00 00	 call	 ?SetText@CZtText@@QAEXHPAD@Z ; CZtText::SetText

; 251  : 	this->SetText(213, "Devil Squere 7");

  00ca6	68 00 00 00 00	 push	 OFFSET ??_C@_0P@DAEACODP@Devil?5Squere?57?$AA@
  00cab	68 d5 00 00 00	 push	 213			; 000000d5H
  00cb0	8b ce		 mov	 ecx, esi
  00cb2	e8 00 00 00 00	 call	 ?SetText@CZtText@@QAEXHPAD@Z ; CZtText::SetText

; 252  : 	this->SetText(214, "Swamp Of Calmness");

  00cb7	68 00 00 00 00	 push	 OFFSET ??_C@_0BC@BMNEEACA@Swamp?5Of?5Calmness?$AA@
  00cbc	68 d6 00 00 00	 push	 214			; 000000d6H
  00cc1	8b ce		 mov	 ecx, esi
  00cc3	e8 00 00 00 00	 call	 ?SetText@CZtText@@QAEXHPAD@Z ; CZtText::SetText

; 253  : 	this->SetText(215, "Raklion");

  00cc8	68 00 00 00 00	 push	 OFFSET ??_C@_07GADFIEBE@Raklion?$AA@
  00ccd	68 d7 00 00 00	 push	 215			; 000000d7H
  00cd2	8b ce		 mov	 ecx, esi
  00cd4	e8 00 00 00 00	 call	 ?SetText@CZtText@@QAEXHPAD@Z ; CZtText::SetText

; 254  : 	this->SetText(216, "Raklion Boss");

  00cd9	68 00 00 00 00	 push	 OFFSET ??_C@_0N@KEHJEJIE@Raklion?5Boss?$AA@
  00cde	68 d8 00 00 00	 push	 216			; 000000d8H
  00ce3	8b ce		 mov	 ecx, esi
  00ce5	e8 00 00 00 00	 call	 ?SetText@CZtText@@QAEXHPAD@Z ; CZtText::SetText

; 255  : 	this->SetText(217, "Santa Town");

  00cea	68 00 00 00 00	 push	 OFFSET ??_C@_0L@NJMBKLOB@Santa?5Town?$AA@
  00cef	68 d9 00 00 00	 push	 217			; 000000d9H
  00cf4	8b ce		 mov	 ecx, esi
  00cf6	e8 00 00 00 00	 call	 ?SetText@CZtText@@QAEXHPAD@Z ; CZtText::SetText

; 256  : 	this->SetText(218, "Vulcan");

  00cfb	68 00 00 00 00	 push	 OFFSET ??_C@_06LOEDEFOB@Vulcan?$AA@
  00d00	68 da 00 00 00	 push	 218			; 000000daH
  00d05	8b ce		 mov	 ecx, esi
  00d07	e8 00 00 00 00	 call	 ?SetText@CZtText@@QAEXHPAD@Z ; CZtText::SetText

; 257  : 	this->SetText(219, "Vulcan Room");

  00d0c	68 00 00 00 00	 push	 OFFSET ??_C@_0M@EAGBBPA@Vulcan?5Room?$AA@
  00d11	68 db 00 00 00	 push	 219			; 000000dbH
  00d16	8b ce		 mov	 ecx, esi
  00d18	e8 00 00 00 00	 call	 ?SetText@CZtText@@QAEXHPAD@Z ; CZtText::SetText

; 258  : 	this->SetText(220, "Double Goer 1");

  00d1d	68 00 00 00 00	 push	 OFFSET ??_C@_0O@NJCAENOH@Double?5Goer?51?$AA@
  00d22	68 dc 00 00 00	 push	 220			; 000000dcH
  00d27	8b ce		 mov	 ecx, esi
  00d29	e8 00 00 00 00	 call	 ?SetText@CZtText@@QAEXHPAD@Z ; CZtText::SetText

; 259  : 	this->SetText(221, "Double Goer 2");

  00d2e	68 00 00 00 00	 push	 OFFSET ??_C@_0O@PCANBOCE@Double?5Goer?52?$AA@
  00d33	68 dd 00 00 00	 push	 221			; 000000ddH
  00d38	8b ce		 mov	 ecx, esi
  00d3a	e8 00 00 00 00	 call	 ?SetText@CZtText@@QAEXHPAD@Z ; CZtText::SetText

; 260  : 	this->SetText(222, "Double Goer 3");

  00d3f	68 00 00 00 00	 push	 OFFSET ??_C@_0O@OLBGCPGF@Double?5Goer?53?$AA@
  00d44	68 de 00 00 00	 push	 222			; 000000deH
  00d49	8b ce		 mov	 ecx, esi
  00d4b	e8 00 00 00 00	 call	 ?SetText@CZtText@@QAEXHPAD@Z ; CZtText::SetText

; 261  : 	this->SetText(223, "Double Goer 4");

  00d50	68 00 00 00 00	 push	 OFFSET ??_C@_0O@KEFHLJKC@Double?5Goer?54?$AA@
  00d55	68 df 00 00 00	 push	 223			; 000000dfH
  00d5a	8b ce		 mov	 ecx, esi
  00d5c	e8 00 00 00 00	 call	 ?SetText@CZtText@@QAEXHPAD@Z ; CZtText::SetText

; 262  : 	this->SetText(224, "Imperial 1");

  00d61	68 00 00 00 00	 push	 OFFSET ??_C@_0L@KHCEDDH@Imperial?51?$AA@
  00d66	68 e0 00 00 00	 push	 224			; 000000e0H
  00d6b	8b ce		 mov	 ecx, esi
  00d6d	e8 00 00 00 00	 call	 ?SetText@CZtText@@QAEXHPAD@Z ; CZtText::SetText

; 263  : 	this->SetText(225, "Imperial 2");

  00d72	68 00 00 00 00	 push	 OFFSET ??_C@_0L@CBFPBAPE@Imperial?52?$AA@
  00d77	68 e1 00 00 00	 push	 225			; 000000e1H
  00d7c	8b ce		 mov	 ecx, esi
  00d7e	e8 00 00 00 00	 call	 ?SetText@CZtText@@QAEXHPAD@Z ; CZtText::SetText

; 264  : 	this->SetText(226, "Imperial 3");

  00d83	68 00 00 00 00	 push	 OFFSET ??_C@_0L@DIEECBLF@Imperial?53?$AA@
  00d88	68 e2 00 00 00	 push	 226			; 000000e2H
  00d8d	8b ce		 mov	 ecx, esi
  00d8f	e8 00 00 00 00	 call	 ?SetText@CZtText@@QAEXHPAD@Z ; CZtText::SetText

; 265  : 	this->SetText(227, "Imperial 4");

  00d94	68 00 00 00 00	 push	 OFFSET ??_C@_0L@HHAFLHHC@Imperial?54?$AA@
  00d99	68 e3 00 00 00	 push	 227			; 000000e3H
  00d9e	8b ce		 mov	 ecx, esi
  00da0	e8 00 00 00 00	 call	 ?SetText@CZtText@@QAEXHPAD@Z ; CZtText::SetText

; 266  : 	this->SetText(228, "Loren Market");

  00da5	68 00 00 00 00	 push	 OFFSET ??_C@_0N@PNCDMAOA@Loren?5Market?$AA@
  00daa	68 e4 00 00 00	 push	 228			; 000000e4H
  00daf	8b ce		 mov	 ecx, esi
  00db1	e8 00 00 00 00	 call	 ?SetText@CZtText@@QAEXHPAD@Z ; CZtText::SetText

; 267  : 	this->SetText(229, "Karutan");

  00db6	68 00 00 00 00	 push	 OFFSET ??_C@_07OCAFKKPM@Karutan?$AA@
  00dbb	68 e5 00 00 00	 push	 229			; 000000e5H
  00dc0	8b ce		 mov	 ecx, esi
  00dc2	e8 00 00 00 00	 call	 ?SetText@CZtText@@QAEXHPAD@Z ; CZtText::SetText

; 268  : 	this->SetText(230, "Karutan 2");

  00dc7	68 00 00 00 00	 push	 OFFSET ??_C@_09FLDHBEND@Karutan?52?$AA@
  00dcc	68 e6 00 00 00	 push	 230			; 000000e6H
  00dd1	8b ce		 mov	 ecx, esi
  00dd3	e8 00 00 00 00	 call	 ?SetText@CZtText@@QAEXHPAD@Z ; CZtText::SetText

; 269  : 	this->SetText(231, "[Buy] Need %d Zen");

  00dd8	68 00 00 00 00	 push	 OFFSET ??_C@_0BC@GHOMDOGB@?$FLBuy?$FN?5Need?5?$CFd?5Zen?$AA@
  00ddd	68 e7 00 00 00	 push	 231			; 000000e7H
  00de2	8b ce		 mov	 ecx, esi
  00de4	e8 00 00 00 00	 call	 ?SetText@CZtText@@QAEXHPAD@Z ; CZtText::SetText

; 270  : 	this->SetText(232, "[Buy] Need %d Bonus");

  00de9	68 00 00 00 00	 push	 OFFSET ??_C@_0BE@EOJKDIHI@?$FLBuy?$FN?5Need?5?$CFd?5Bonus?$AA@
  00dee	68 e8 00 00 00	 push	 232			; 000000e8H
  00df3	8b ce		 mov	 ecx, esi
  00df5	e8 00 00 00 00	 call	 ?SetText@CZtText@@QAEXHPAD@Z ; CZtText::SetText

; 271  : 	this->SetText(233, "[Buy] Need %d Credits");

  00dfa	68 00 00 00 00	 push	 OFFSET ??_C@_0BG@FKEOOLNJ@?$FLBuy?$FN?5Need?5?$CFd?5Credits?$AA@
  00dff	68 e9 00 00 00	 push	 233			; 000000e9H
  00e04	8b ce		 mov	 ecx, esi
  00e06	e8 00 00 00 00	 call	 ?SetText@CZtText@@QAEXHPAD@Z ; CZtText::SetText

; 272  : 	this->SetText(234, "[Buy] Need %d Zen");

  00e0b	68 00 00 00 00	 push	 OFFSET ??_C@_0BC@GHOMDOGB@?$FLBuy?$FN?5Need?5?$CFd?5Zen?$AA@
  00e10	68 ea 00 00 00	 push	 234			; 000000eaH
  00e15	8b ce		 mov	 ecx, esi
  00e17	e8 00 00 00 00	 call	 ?SetText@CZtText@@QAEXHPAD@Z ; CZtText::SetText

; 273  : 	this->SetText(235, "[Buy] Need %d Bonus");

  00e1c	68 00 00 00 00	 push	 OFFSET ??_C@_0BE@EOJKDIHI@?$FLBuy?$FN?5Need?5?$CFd?5Bonus?$AA@
  00e21	68 eb 00 00 00	 push	 235			; 000000ebH
  00e26	8b ce		 mov	 ecx, esi
  00e28	e8 00 00 00 00	 call	 ?SetText@CZtText@@QAEXHPAD@Z ; CZtText::SetText

; 274  : 	this->SetText(236, "[Buy] %d Wcoin");

  00e2d	68 00 00 00 00	 push	 OFFSET ??_C@_0P@HJIHFOLJ@?$FLBuy?$FN?5?$CFd?5Wcoin?$AA@
  00e32	68 ec 00 00 00	 push	 236			; 000000ecH
  00e37	8b ce		 mov	 ecx, esi
  00e39	e8 00 00 00 00	 call	 ?SetText@CZtText@@QAEXHPAD@Z ; CZtText::SetText

; 275  : 	this->SetText(237, "[Buy] Need %d Credits");

  00e3e	68 00 00 00 00	 push	 OFFSET ??_C@_0BG@FKEOOLNJ@?$FLBuy?$FN?5Need?5?$CFd?5Credits?$AA@
  00e43	68 ed 00 00 00	 push	 237			; 000000edH
  00e48	8b ce		 mov	 ecx, esi
  00e4a	e8 00 00 00 00	 call	 ?SetText@CZtText@@QAEXHPAD@Z ; CZtText::SetText

; 276  : 	this->SetText(238, "[Buy] %d Credits");

  00e4f	68 00 00 00 00	 push	 OFFSET ??_C@_0BB@BDLKINPJ@?$FLBuy?$FN?5?$CFd?5Credits?$AA@
  00e54	68 ee 00 00 00	 push	 238			; 000000eeH
  00e59	8b ce		 mov	 ecx, esi
  00e5b	e8 00 00 00 00	 call	 ?SetText@CZtText@@QAEXHPAD@Z ; CZtText::SetText

; 277  : 	this->SetText(239, "[OffExp] Need %d Zen");

  00e60	68 00 00 00 00	 push	 OFFSET ??_C@_0BF@MAMJKDIJ@?$FLOffExp?$FN?5Need?5?$CFd?5Zen?$AA@
  00e65	68 ef 00 00 00	 push	 239			; 000000efH
  00e6a	8b ce		 mov	 ecx, esi
  00e6c	e8 00 00 00 00	 call	 ?SetText@CZtText@@QAEXHPAD@Z ; CZtText::SetText

; 278  : 	this->SetText(240, "[OffExp] Need %d Credit");

  00e71	68 00 00 00 00	 push	 OFFSET ??_C@_0BI@KKCCEDNH@?$FLOffExp?$FN?5Need?5?$CFd?5Credit?$AA@
  00e76	68 f0 00 00 00	 push	 240			; 000000f0H
  00e7b	8b ce		 mov	 ecx, esi
  00e7d	e8 00 00 00 00	 call	 ?SetText@CZtText@@QAEXHPAD@Z ; CZtText::SetText

; 279  : 	this->SetText(241, "[OffExp] Need %d WCoinC");

  00e82	68 00 00 00 00	 push	 OFFSET ??_C@_0BI@NLAHFJMP@?$FLOffExp?$FN?5Need?5?$CFd?5WCoinC?$AA@
  00e87	68 f1 00 00 00	 push	 241			; 000000f1H
  00e8c	8b ce		 mov	 ecx, esi
  00e8e	e8 00 00 00 00	 call	 ?SetText@CZtText@@QAEXHPAD@Z ; CZtText::SetText

; 280  : 	this->SetText(242, "[OffExp] Need %d WCoinP");

  00e93	68 00 00 00 00	 push	 OFFSET ??_C@_0BI@LKOIBIFN@?$FLOffExp?$FN?5Need?5?$CFd?5WCoinP?$AA@
  00e98	68 f2 00 00 00	 push	 242			; 000000f2H
  00e9d	8b ce		 mov	 ecx, esi
  00e9f	e8 00 00 00 00	 call	 ?SetText@CZtText@@QAEXHPAD@Z ; CZtText::SetText

; 281  : 	this->SetText(243, "[OffExp] Need %d Goblin");

  00ea4	68 00 00 00 00	 push	 OFFSET ??_C@_0BI@CGJMHIKF@?$FLOffExp?$FN?5Need?5?$CFd?5Goblin?$AA@
  00ea9	68 f3 00 00 00	 push	 243			; 000000f3H
  00eae	8b ce		 mov	 ecx, esi
  00eb0	e8 00 00 00 00	 call	 ?SetText@CZtText@@QAEXHPAD@Z ; CZtText::SetText

; 282  : 	this->SetText(244, "[OffExp] Works just outside of town");

  00eb5	68 00 00 00 00	 push	 OFFSET ??_C@_0CE@IDHHPCBO@?$FLOffExp?$FN?5Works?5just?5outside?5of?5t@
  00eba	68 f4 00 00 00	 push	 244			; 000000f4H
  00ebf	8b ce		 mov	 ecx, esi
  00ec1	e8 00 00 00 00	 call	 ?SetText@CZtText@@QAEXHPAD@Z ; CZtText::SetText

; 283  : 	this->SetText(245, "GM Map");

  00ec6	68 00 00 00 00	 push	 OFFSET ??_C@_06JOGMAFMB@GM?5Map?$AA@
  00ecb	68 f5 00 00 00	 push	 245			; 000000f5H
  00ed0	8b ce		 mov	 ecx, esi
  00ed2	e8 00 00 00 00	 call	 ?SetText@CZtText@@QAEXHPAD@Z ; CZtText::SetText

; 284  : 	this->SetText(246, "@[PREMIUM] Experience: +%d%%");

  00ed7	68 00 00 00 00	 push	 OFFSET ??_C@_0BN@JJILFFBN@?$EA?$FLPREMIUM?$FN?5Experience?3?5?$CL?$CFd?$CF?$CF?$AA@
  00edc	68 f6 00 00 00	 push	 246			; 000000f6H
  00ee1	8b ce		 mov	 ecx, esi
  00ee3	e8 00 00 00 00	 call	 ?SetText@CZtText@@QAEXHPAD@Z ; CZtText::SetText

; 285  : 	this->SetText(247, "@[PREMIUM] Drop Zen: +%d%%");

  00ee8	68 00 00 00 00	 push	 OFFSET ??_C@_0BL@NDFEDM@?$EA?$FLPREMIUM?$FN?5Drop?5Zen?3?5?$CL?$CFd?$CF?$CF?$AA@
  00eed	68 f7 00 00 00	 push	 247			; 000000f7H
  00ef2	8b ce		 mov	 ecx, esi
  00ef4	e8 00 00 00 00	 call	 ?SetText@CZtText@@QAEXHPAD@Z ; CZtText::SetText

; 286  : 	this->SetText(248, "@[PREMIUM] Damage: +%d%%");

  00ef9	68 00 00 00 00	 push	 OFFSET ??_C@_0BJ@HMOBPEHA@?$EA?$FLPREMIUM?$FN?5Damage?3?5?$CL?$CFd?$CF?$CF?$AA@
  00efe	68 f8 00 00 00	 push	 248			; 000000f8H
  00f03	8b ce		 mov	 ecx, esi
  00f05	e8 00 00 00 00	 call	 ?SetText@CZtText@@QAEXHPAD@Z ; CZtText::SetText

; 287  : 	this->SetText(249, "@[PREMIUM] Wizard Damage: +%d%%");

  00f0a	68 00 00 00 00	 push	 OFFSET ??_C@_0CA@BMNDND@?$EA?$FLPREMIUM?$FN?5Wizard?5Damage?3?5?$CL?$CFd?$CF?$CF?$AA@
  00f0f	68 f9 00 00 00	 push	 249			; 000000f9H
  00f14	8b ce		 mov	 ecx, esi
  00f16	e8 00 00 00 00	 call	 ?SetText@CZtText@@QAEXHPAD@Z ; CZtText::SetText

; 288  : 	this->SetText(250, "@[PREMIUM] Defence: +%d%%");

  00f1b	68 00 00 00 00	 push	 OFFSET ??_C@_0BK@NBMNNEF@?$EA?$FLPREMIUM?$FN?5Defence?3?5?$CL?$CFd?$CF?$CF?$AA@
  00f20	68 fa 00 00 00	 push	 250			; 000000faH
  00f25	8b ce		 mov	 ecx, esi
  00f27	e8 00 00 00 00	 call	 ?SetText@CZtText@@QAEXHPAD@Z ; CZtText::SetText

; 289  : 	this->SetText(251, "@[PREMIUM] Min: %d");

  00f2c	68 00 00 00 00	 push	 OFFSET ??_C@_0BD@KMCMCOAB@?$EA?$FLPREMIUM?$FN?5Min?3?5?$CFd?$AA@
  00f31	68 fb 00 00 00	 push	 251			; 000000fbH
  00f36	8b ce		 mov	 ecx, esi
  00f38	e8 00 00 00 00	 call	 ?SetText@CZtText@@QAEXHPAD@Z ; CZtText::SetText

; 290  : 	this->SetText(252, "@[PREMIUM] Time is over");

  00f3d	68 00 00 00 00	 push	 OFFSET ??_C@_0BI@HBMDNHJN@?$EA?$FLPREMIUM?$FN?5Time?5is?5over?$AA@
  00f42	68 fc 00 00 00	 push	 252			; 000000fcH
  00f47	8b ce		 mov	 ecx, esi
  00f49	e8 00 00 00 00	 call	 ?SetText@CZtText@@QAEXHPAD@Z ; CZtText::SetText

; 291  : 	this->SetText(253, "No Jewels");

  00f4e	68 00 00 00 00	 push	 OFFSET ??_C@_09FMDNBLPI@No?5Jewels?$AA@
  00f53	68 fd 00 00 00	 push	 253			; 000000fdH
  00f58	8b ce		 mov	 ecx, esi
  00f5a	e8 00 00 00 00	 call	 ?SetText@CZtText@@QAEXHPAD@Z ; CZtText::SetText

; 292  : 	this->SetText(254, "[Drop Event] Started!");

  00f5f	68 00 00 00 00	 push	 OFFSET ??_C@_0BG@EEMGHGE@?$FLDrop?5Event?$FN?5Started?$CB?$AA@
  00f64	68 fe 00 00 00	 push	 254			; 000000feH
  00f69	8b ce		 mov	 ecx, esi
  00f6b	e8 00 00 00 00	 call	 ?SetText@CZtText@@QAEXHPAD@Z ; CZtText::SetText

; 293  : 
; 294  : 	this->SetText(255, "[Need Level]: %d");

  00f70	68 00 00 00 00	 push	 OFFSET ??_C@_0BB@BAFBNPAJ@?$FLNeed?5Level?$FN?3?5?$CFd?$AA@
  00f75	68 ff 00 00 00	 push	 255			; 000000ffH
  00f7a	8b ce		 mov	 ecx, esi
  00f7c	e8 00 00 00 00	 call	 ?SetText@CZtText@@QAEXHPAD@Z ; CZtText::SetText

; 295  : 	this->SetText(256, "[Need Reset]: %d");

  00f81	68 00 00 00 00	 push	 OFFSET ??_C@_0BB@PCHHKHCC@?$FLNeed?5Reset?$FN?3?5?$CFd?$AA@
  00f86	68 00 01 00 00	 push	 256			; 00000100H
  00f8b	8b ce		 mov	 ecx, esi
  00f8d	e8 00 00 00 00	 call	 ?SetText@CZtText@@QAEXHPAD@Z ; CZtText::SetText

; 296  : 	this->SetText(257, "[Need GReset]: %d");

  00f92	68 00 00 00 00	 push	 OFFSET ??_C@_0BC@CHJAHMDJ@?$FLNeed?5GReset?$FN?3?5?$CFd?$AA@
  00f97	68 01 01 00 00	 push	 257			; 00000101H
  00f9c	8b ce		 mov	 ecx, esi
  00f9e	e8 00 00 00 00	 call	 ?SetText@CZtText@@QAEXHPAD@Z ; CZtText::SetText

; 297  : 	this->SetText(258, "[Need Premium]: Status %d rank");

  00fa3	68 00 00 00 00	 push	 OFFSET ??_C@_0BP@KMDIOMJA@?$FLNeed?5Premium?$FN?3?5Status?5?$CFd?5rank?$AA@
  00fa8	68 02 01 00 00	 push	 258			; 00000102H
  00fad	8b ce		 mov	 ecx, esi
  00faf	e8 00 00 00 00	 call	 ?SetText@CZtText@@QAEXHPAD@Z ; CZtText::SetText

; 298  : 	this->SetText(259, "[Need Premium]: Status");

  00fb4	68 00 00 00 00	 push	 OFFSET ??_C@_0BH@KHMLGCFI@?$FLNeed?5Premium?$FN?3?5Status?$AA@
  00fb9	68 03 01 00 00	 push	 259			; 00000103H
  00fbe	8b ce		 mov	 ecx, esi
  00fc0	e8 00 00 00 00	 call	 ?SetText@CZtText@@QAEXHPAD@Z ; CZtText::SetText

; 299  : 	this->SetText(260, "[Need Zen]: %d");

  00fc5	68 00 00 00 00	 push	 OFFSET ??_C@_0P@JOEEOEIN@?$FLNeed?5Zen?$FN?3?5?$CFd?$AA@
  00fca	68 04 01 00 00	 push	 260			; 00000104H
  00fcf	8b ce		 mov	 ecx, esi
  00fd1	e8 00 00 00 00	 call	 ?SetText@CZtText@@QAEXHPAD@Z ; CZtText::SetText

; 300  : 	this->SetText(261, "[Need ZtCred]: %d");

  00fd6	68 00 00 00 00	 push	 OFFSET ??_C@_0BC@OJOICOKF@?$FLNeed?5ZtCred?$FN?3?5?$CFd?$AA@
  00fdb	68 05 01 00 00	 push	 261			; 00000105H
  00fe0	8b ce		 mov	 ecx, esi
  00fe2	e8 00 00 00 00	 call	 ?SetText@CZtText@@QAEXHPAD@Z ; CZtText::SetText

; 301  : 	this->SetText(262, "[Need WCoinC]: %d");

  00fe7	68 00 00 00 00	 push	 OFFSET ??_C@_0BC@FKJCFFGC@?$FLNeed?5WCoinC?$FN?3?5?$CFd?$AA@
  00fec	68 06 01 00 00	 push	 262			; 00000106H
  00ff1	8b ce		 mov	 ecx, esi
  00ff3	e8 00 00 00 00	 call	 ?SetText@CZtText@@QAEXHPAD@Z ; CZtText::SetText

; 302  : 	this->SetText(263, "[Need WCoinP]: %d");

  00ff8	68 00 00 00 00	 push	 OFFSET ??_C@_0BC@MKENDDB@?$FLNeed?5WCoinP?$FN?3?5?$CFd?$AA@
  00ffd	68 07 01 00 00	 push	 263			; 00000107H
  01002	8b ce		 mov	 ecx, esi
  01004	e8 00 00 00 00	 call	 ?SetText@CZtText@@QAEXHPAD@Z ; CZtText::SetText

; 303  : 	this->SetText(264, "[Need Goblin]: %d");

  01009	68 00 00 00 00	 push	 OFFSET ??_C@_0BC@MBMKDKDE@?$FLNeed?5Goblin?$FN?3?5?$CFd?$AA@
  0100e	68 08 01 00 00	 push	 264			; 00000108H
  01013	8b ce		 mov	 ecx, esi
  01015	e8 00 00 00 00	 call	 ?SetText@CZtText@@QAEXHPAD@Z ; CZtText::SetText

; 304  : 	this->SetText(265, "[Max Reset]: %d");

  0101a	68 00 00 00 00	 push	 OFFSET ??_C@_0BA@MEJNHEPC@?$FLMax?5Reset?$FN?3?5?$CFd?$AA@
  0101f	68 09 01 00 00	 push	 265			; 00000109H
  01024	8b ce		 mov	 ecx, esi
  01026	e8 00 00 00 00	 call	 ?SetText@CZtText@@QAEXHPAD@Z ; CZtText::SetText

; 305  : 	this->SetText(266, "[Max GReset]: %d");

  0102b	68 00 00 00 00	 push	 OFFSET ??_C@_0BB@KBHFEEDO@?$FLMax?5GReset?$FN?3?5?$CFd?$AA@
  01030	68 0a 01 00 00	 push	 266			; 0000010aH
  01035	8b ce		 mov	 ecx, esi
  01037	e8 00 00 00 00	 call	 ?SetText@CZtText@@QAEXHPAD@Z ; CZtText::SetText
  0103c	5e		 pop	 esi

; 306  : 	
; 307  : }

  0103d	c3		 ret	 0
?LoadText@CZtText@@QAEXXZ ENDP				; CZtText::LoadText
_TEXT	ENDS
PUBLIC	??_C@_0BD@GIAKCBOK@ZtData?2ZtTextS?4dat?$AA@	; `string'
PUBLIC	?Load@CZtText@@QAEXXZ				; CZtText::Load
EXTRN	?GetNewPath@CDirPath@@QAEPADPAD@Z:PROC		; CDirPath::GetNewPath
EXTRN	?gDirPath@@3VCDirPath@@A:BYTE			; gDirPath
;	COMDAT ??_C@_0BD@GIAKCBOK@ZtData?2ZtTextS?4dat?$AA@
CONST	SEGMENT
??_C@_0BD@GIAKCBOK@ZtData?2ZtTextS?4dat?$AA@ DB 'ZtData\ZtTextS.dat', 00H ; `string'
; Function compile flags: /Ogtp
CONST	ENDS
;	COMDAT ?Load@CZtText@@QAEXXZ
_TEXT	SEGMENT
?Load@CZtText@@QAEXXZ PROC				; CZtText::Load, COMDAT
; _this$ = ecx

; 25   : {

  00000	56		 push	 esi
  00001	8b f1		 mov	 esi, ecx

; 26   : 	this->Init();

  00003	e8 00 00 00 00	 call	 ?Init@CZtText@@QAEXXZ	; CZtText::Init

; 27   : 	this->Read(gDirPath.GetNewPath("ZtData\\ZtTextS.dat"));

  00008	68 00 00 00 00	 push	 OFFSET ??_C@_0BD@GIAKCBOK@ZtData?2ZtTextS?4dat?$AA@
  0000d	b9 00 00 00 00	 mov	 ecx, OFFSET ?gDirPath@@3VCDirPath@@A ; gDirPath
  00012	e8 00 00 00 00	 call	 ?GetNewPath@CDirPath@@QAEPADPAD@Z ; CDirPath::GetNewPath
  00017	50		 push	 eax
  00018	8b ce		 mov	 ecx, esi
  0001a	e8 00 00 00 00	 call	 ?Read@CZtText@@QAEXPAD@Z ; CZtText::Read

; 28   : 	this->LoadText();

  0001f	8b ce		 mov	 ecx, esi
  00021	5e		 pop	 esi
  00022	e9 00 00 00 00	 jmp	 ?LoadText@CZtText@@QAEXXZ ; CZtText::LoadText
?Load@CZtText@@QAEXXZ ENDP				; CZtText::Load
_TEXT	ENDS
EXTRN	_atexit:PROC
; Function compile flags: /Ogtp
;	COMDAT ??__Eg_ZtText@@YAXXZ
text$yc	SEGMENT
??__Eg_ZtText@@YAXXZ PROC				; `dynamic initializer for 'g_ZtText'', COMDAT

; 7    : CZtText g_ZtText;

  00000	b9 00 00 00 00	 mov	 ecx, OFFSET ?g_ZtText@@3VCZtText@@A ; g_ZtText
  00005	e8 00 00 00 00	 call	 ??0CZtText@@QAE@XZ	; CZtText::CZtText
  0000a	68 00 00 00 00	 push	 OFFSET ??__Fg_ZtText@@YAXXZ ; `dynamic atexit destructor for 'g_ZtText''
  0000f	e8 00 00 00 00	 call	 _atexit
  00014	59		 pop	 ecx
  00015	c3		 ret	 0
??__Eg_ZtText@@YAXXZ ENDP				; `dynamic initializer for 'g_ZtText''
; Function compile flags: /Ogtp
text$yc	ENDS
;	COMDAT ??__Fg_ZtText@@YAXXZ
text$yd	SEGMENT
??__Fg_ZtText@@YAXXZ PROC				; `dynamic atexit destructor for 'g_ZtText'', COMDAT
  00000	c3		 ret	 0
??__Fg_ZtText@@YAXXZ ENDP				; `dynamic atexit destructor for 'g_ZtText''
text$yd	ENDS
PUBLIC	?g_ZtText@@3VCZtText@@A				; g_ZtText
_BSS	SEGMENT
?g_ZtText@@3VCZtText@@A DB 0fa80H DUP (?)		; g_ZtText
_BSS	ENDS
CRT$XCU	SEGMENT
_g_ZtText$initializer$ DD FLAT:??__Eg_ZtText@@YAXXZ
CRT$XCU	ENDS
END
