; Listing generated by Microsoft (R) Optimizing Compiler Version 16.00.30319.01 

	TITLE	E:\work\tranet_version\GS\GameServer\ZtWinQuestSystem.cpp
	.686P
	.XMM
	include listing.inc
	.model	flat

INCLUDELIB LIBCMT
INCLUDELIB OLDNAMES

_DATA	SEGMENT
_g_iNpcUpDfLevel_CGATE DD 01H
	DD	02H
	DD	02dc6c0H
	DD	02H
	DD	03H
	DD	02dc6c0H
	DD	03H
	DD	04H
	DD	02dc6c0H
_g_iNpcUpDfLevel_CSTATUE DD 01H
	DD	03H
	DD	02dc6c0H
	DD	02H
	DD	05H
	DD	02dc6c0H
	DD	03H
	DD	07H
	DD	02dc6c0H
_g_iNpcUpMaxHP_CGATE DD 02625a0H
	DD	02H
	DD	0f4240H
	DD	03567e0H
	DD	03H
	DD	0f4240H
	DD	04f5880H
	DD	04H
	DD	0f4240H
_g_iNpcUpMaxHP_CSTATUE DD 02191c0H
	DD	03H
	DD	0f4240H
	DD	033e140H
	DD	05H
	DD	0f4240H
	DD	04c4b40H
	DD	07H
	DD	0f4240H
_g_iNpcUpRgLevel_CSTATUE DD 01H
	DD	03H
	DD	04c4b40H
	DD	02H
	DD	05H
	DD	04c4b40H
	DD	03H
	DD	07H
	DD	04c4b40H
_g_iCsUserReSpawnArea DD 023H
	DD	011H
	DD	090H
	DD	030H
	DD	04aH
	DD	090H
	DD	073H
	DD	09aH
	DD	023H
	DD	011H
	DD	090H
	DD	030H
_g_iNpcDefense_CGATE DD 064H
	DD	0b4H
	DD	012cH
	DD	0208H
_g_iNpcDefense_CSTATUE DD 050H
	DD	0b4H
	DD	0154H
	DD	0226H
_g_iCastleWallStepAxisY DD 071H
	DD	0a0H
	DD	0cbH
_DATA	ENDS
PUBLIC	?set@PBMSG_HEAD2@@QAEXPAEEEE@Z			; PBMSG_HEAD2::set
; Function compile flags: /Ogtp
; File e:\work\tranet_version\gs\include\prodef.h
;	COMDAT ?set@PBMSG_HEAD2@@QAEXPAEEEE@Z
_TEXT	SEGMENT
_lpBuf$ = 8						; size = 4
_head$ = 12						; size = 1
_sub$ = 16						; size = 1
_size$ = 20						; size = 1
?set@PBMSG_HEAD2@@QAEXPAEEEE@Z PROC			; PBMSG_HEAD2::set, COMDAT
; _this$ = ecx

; 104  : 	{

  00000	55		 push	 ebp
  00001	8b ec		 mov	 ebp, esp

; 105  : 		lpBuf[0] = 0xC1;

  00003	8b 45 08	 mov	 eax, DWORD PTR _lpBuf$[ebp]

; 106  : 		lpBuf[1] = size;

  00006	8a 4d 14	 mov	 cl, BYTE PTR _size$[ebp]

; 107  : 		lpBuf[2] = head;

  00009	8a 55 0c	 mov	 dl, BYTE PTR _head$[ebp]
  0000c	88 48 01	 mov	 BYTE PTR [eax+1], cl

; 108  : 		lpBuf[3] = sub;

  0000f	8a 4d 10	 mov	 cl, BYTE PTR _sub$[ebp]
  00012	c6 00 c1	 mov	 BYTE PTR [eax], 193	; 000000c1H
  00015	88 50 02	 mov	 BYTE PTR [eax+2], dl
  00018	88 48 03	 mov	 BYTE PTR [eax+3], cl

; 109  : 	};

  0001b	5d		 pop	 ebp
  0001c	c2 10 00	 ret	 16			; 00000010H
?set@PBMSG_HEAD2@@QAEXPAEEEE@Z ENDP			; PBMSG_HEAD2::set
_TEXT	ENDS
PUBLIC	?set@PWMSG_HEAD2@@QAEXPAEEEH@Z			; PWMSG_HEAD2::set
; Function compile flags: /Ogtp
;	COMDAT ?set@PWMSG_HEAD2@@QAEXPAEEEH@Z
_TEXT	SEGMENT
_lpBuf$ = 8						; size = 4
_head$ = 12						; size = 1
_sub$ = 16						; size = 1
_size$ = 20						; size = 4
?set@PWMSG_HEAD2@@QAEXPAEEEH@Z PROC			; PWMSG_HEAD2::set, COMDAT
; _this$ = ecx

; 149  : 	{

  00000	55		 push	 ebp
  00001	8b ec		 mov	 ebp, esp

; 150  : 		lpBuf[0] = 0xC2;
; 151  : 		lpBuf[1] = SET_NUMBERH(size);

  00003	8b 4d 14	 mov	 ecx, DWORD PTR _size$[ebp]
  00006	8b 45 08	 mov	 eax, DWORD PTR _lpBuf$[ebp]
  00009	8b d1		 mov	 edx, ecx
  0000b	c1 ea 08	 shr	 edx, 8
  0000e	88 50 01	 mov	 BYTE PTR [eax+1], dl

; 152  : 		lpBuf[2] = SET_NUMBERL(size);
; 153  : 		lpBuf[3] = head;
; 154  : 		lpBuf[4] = sub;

  00011	8a 55 10	 mov	 dl, BYTE PTR _sub$[ebp]
  00014	88 48 02	 mov	 BYTE PTR [eax+2], cl
  00017	8a 4d 0c	 mov	 cl, BYTE PTR _head$[ebp]
  0001a	c6 00 c2	 mov	 BYTE PTR [eax], 194	; 000000c2H
  0001d	88 48 03	 mov	 BYTE PTR [eax+3], cl
  00020	88 50 04	 mov	 BYTE PTR [eax+4], dl

; 155  : 	}

  00023	5d		 pop	 ebp
  00024	c2 10 00	 ret	 16			; 00000010H
?set@PWMSG_HEAD2@@QAEXPAEEEH@Z ENDP			; PWMSG_HEAD2::set
_TEXT	ENDS
PUBLIC	??_H@YGXPAXIHP6EPAX0@Z@Z			; `vector constructor iterator'
; Function compile flags: /Ogtp
;	COMDAT ??_H@YGXPAXIHP6EPAX0@Z@Z
_TEXT	SEGMENT
___t$ = 8						; size = 4
___s$ = 12						; size = 4
___n$ = 16						; size = 4
___f$ = 20						; size = 4
??_H@YGXPAXIHP6EPAX0@Z@Z PROC				; `vector constructor iterator', COMDAT
  00000	55		 push	 ebp
  00001	8b ec		 mov	 ebp, esp
  00003	57		 push	 edi
  00004	8b 7d 10	 mov	 edi, DWORD PTR ___n$[ebp]
  00007	4f		 dec	 edi
  00008	78 14		 js	 SHORT $LN1@vector
  0000a	53		 push	 ebx
  0000b	8b 5d 14	 mov	 ebx, DWORD PTR ___f$[ebp]
  0000e	56		 push	 esi
  0000f	8b 75 08	 mov	 esi, DWORD PTR ___t$[ebp]
$LL2@vector:
  00012	8b ce		 mov	 ecx, esi
  00014	ff d3		 call	 ebx
  00016	03 75 0c	 add	 esi, DWORD PTR ___s$[ebp]
  00019	4f		 dec	 edi
  0001a	79 f6		 jns	 SHORT $LL2@vector
  0001c	5e		 pop	 esi
  0001d	5b		 pop	 ebx
$LN1@vector:
  0001e	5f		 pop	 edi
  0001f	5d		 pop	 ebp
  00020	c2 10 00	 ret	 16			; 00000010H
??_H@YGXPAXIHP6EPAX0@Z@Z ENDP				; `vector constructor iterator'
_TEXT	ENDS
PUBLIC	__$ArrayPad$
EXTRN	_isalnum:PROC
EXTRN	_isalpha:PROC
EXTRN	_atof:PROC
EXTRN	_isdigit:PROC
EXTRN	_getc:PROC
EXTRN	_ungetc:PROC
EXTRN	_isspace:PROC
EXTRN	_fgetc:PROC
EXTRN	___security_cookie:DWORD
EXTRN	__fltused:DWORD
EXTRN	@__security_check_cookie@4:PROC
_BSS	SEGMENT
_CurrentToken DD 01H DUP (?)
_TokenNumber DD	01H DUP (?)
_SMDFile DD	01H DUP (?)
_TokenString DB	064H DUP (?)
; Function compile flags: /Ogtp
; File e:\work\tranet_version\gs\include\readscript.h
_BSS	ENDS
;	COMDAT ?GetToken@@YA?AW4SMDToken@@XZ
_TEXT	SEGMENT
_TempString$ = -104					; size = 100
__$ArrayPad$ = -4					; size = 4
?GetToken@@YA?AW4SMDToken@@XZ PROC			; GetToken, COMDAT

; 24   : {

  00000	55		 push	 ebp
  00001	8b ec		 mov	 ebp, esp
  00003	83 ec 68	 sub	 esp, 104		; 00000068H
  00006	a1 00 00 00 00	 mov	 eax, DWORD PTR ___security_cookie
  0000b	33 c5		 xor	 eax, ebp
  0000d	89 45 fc	 mov	 DWORD PTR __$ArrayPad$[ebp], eax

; 25   : 	char ch;
; 26   : 	char* p;
; 27   : 	char TempString[100];
; 28   : 
; 29   : 	TokenString[0]=0;

  00010	c6 05 00 00 00
	00 00		 mov	 BYTE PTR _TokenString, 0
  00017	53		 push	 ebx
  00018	eb 06 8d 9b 00
	00 00 00	 npad	 8
$LL31@GetToken:

; 30   : 
; 31   : 	do
; 32   : 	{
; 33   : 		if ((ch=fgetc(SMDFile)) == -1)

  00020	a1 00 00 00 00	 mov	 eax, DWORD PTR _SMDFile
  00025	50		 push	 eax
  00026	e8 00 00 00 00	 call	 _fgetc
  0002b	8a d8		 mov	 bl, al
  0002d	83 c4 04	 add	 esp, 4
  00030	80 fb ff	 cmp	 bl, -1
  00033	74 64		 je	 SHORT $LN39@GetToken

; 36   : 		}
; 37   : 		else
; 38   : 		{	
; 39   : 			if (ch=='/')		// this is /

  00035	80 fb 2f	 cmp	 bl, 47			; 0000002fH
  00038	75 31		 jne	 SHORT $LN30@GetToken

; 40   : 			{
; 41   : 				if((ch=fgetc(SMDFile)) == '/')

  0003a	8b 0d 00 00 00
	00		 mov	 ecx, DWORD PTR _SMDFile
  00040	51		 push	 ecx
  00041	e8 00 00 00 00	 call	 _fgetc
  00046	8a d8		 mov	 bl, al
  00048	83 c4 04	 add	 esp, 4
  0004b	80 fb 2f	 cmp	 bl, 47			; 0000002fH
  0004e	75 1b		 jne	 SHORT $LN30@GetToken
$LL24@GetToken:

; 42   : 				{
; 43   : 					while ((ch != '\n') && (ch != -1))	// End of Line (EOL)

  00050	80 fb ff	 cmp	 bl, -1
  00053	74 44		 je	 SHORT $LN39@GetToken

; 44   : 					{
; 45   : 						ch=fgetc(SMDFile);

  00055	8b 15 00 00 00
	00		 mov	 edx, DWORD PTR _SMDFile
  0005b	52		 push	 edx
  0005c	e8 00 00 00 00	 call	 _fgetc
  00061	8a d8		 mov	 bl, al
  00063	83 c4 04	 add	 esp, 4
  00066	80 fb 0a	 cmp	 bl, 10			; 0000000aH
  00069	75 e5		 jne	 SHORT $LL24@GetToken
$LN30@GetToken:

; 46   : 					}
; 47   : 	
; 48   : 					if (ch == -1)
; 49   : 					{
; 50   : 						return END;	// End of FILE
; 51   : 					}
; 52   : 				}
; 53   : 			}
; 54   : 		}
; 55   : 	}
; 56   : 	while (isspace(ch) != 0);

  0006b	0f be c3	 movsx	 eax, bl
  0006e	50		 push	 eax
  0006f	e8 00 00 00 00	 call	 _isspace
  00074	83 c4 04	 add	 esp, 4
  00077	85 c0		 test	 eax, eax
  00079	75 a5		 jne	 SHORT $LL31@GetToken

; 57   : 
; 58   : 	
; 59   : 	switch(ch)

  0007b	0f be c3	 movsx	 eax, bl
  0007e	8d 48 de	 lea	 ecx, DWORD PTR [eax-34]
  00081	56		 push	 esi
  00082	83 f9 5b	 cmp	 ecx, 91			; 0000005bH
  00085	0f 87 2b 01 00
	00		 ja	 $LN6@GetToken
  0008b	0f b6 89 00 00
	00 00		 movzx	 ecx, BYTE PTR $LN46@GetToken[ecx]
  00092	ff 24 8d 00 00
	00 00		 jmp	 DWORD PTR $LN50@GetToken[ecx*4]
$LN39@GetToken:

; 34   : 		{
; 35   : 			return END;	// End of FILE (EOF)

  00099	b8 02 00 00 00	 mov	 eax, 2
  0009e	5b		 pop	 ebx

; 147  : 		}
; 148  : 		break;
; 149  : 
; 150  : 	}
; 151  : 
; 152  : 	return NAME;
; 153  : }

  0009f	8b 4d fc	 mov	 ecx, DWORD PTR __$ArrayPad$[ebp]
  000a2	33 cd		 xor	 ecx, ebp
  000a4	e8 00 00 00 00	 call	 @__security_check_cookie@4
  000a9	8b e5		 mov	 esp, ebp
  000ab	5d		 pop	 ebp
  000ac	c3		 ret	 0
$LN19@GetToken:

; 60   : 	{
; 61   : 
; 62   : 	case 0x23:	// #
; 63   : 		return CurrentToken=COMMAND;

  000ad	b8 23 00 00 00	 mov	 eax, 35			; 00000023H
  000b2	e9 99 01 00 00	 jmp	 $LN48@GetToken
$LN18@GetToken:

; 64   : 		break;
; 65   : 	
; 66   : 	case 0x3B:	// ;
; 67   : 		return CurrentToken=SEMICOLON;

  000b7	b8 3b 00 00 00	 mov	 eax, 59			; 0000003bH
  000bc	e9 8f 01 00 00	 jmp	 $LN48@GetToken
$LN17@GetToken:

; 68   : 		break;
; 69   : 	
; 70   : 	case 0x2C:	// ,
; 71   : 
; 72   : 		return CurrentToken=COMMA;

  000c1	b8 2c 00 00 00	 mov	 eax, 44			; 0000002cH
  000c6	e9 85 01 00 00	 jmp	 $LN48@GetToken
$LN16@GetToken:

; 73   : 		break;
; 74   : 	
; 75   : 	case 0x7B:	// {
; 76   : 		return CurrentToken = LP;

  000cb	b8 7b 00 00 00	 mov	 eax, 123		; 0000007bH
  000d0	e9 7b 01 00 00	 jmp	 $LN48@GetToken
$LN15@GetToken:

; 77   : 		break;
; 78   : 
; 79   : 	case 0x7D:	// }
; 80   : 		return CurrentToken = RP;

  000d5	b8 7d 00 00 00	 mov	 eax, 125		; 0000007dH
  000da	e9 71 01 00 00	 jmp	 $LN48@GetToken
$LN14@GetToken:

; 81   : 		break;
; 82   : 	// Nice Index Table :)	by Deathway
; 83   : 	// Numbers Case
; 84   : 	case 0x2D:	//-
; 85   : 	case 0x2E:	//.
; 86   : 	case '0':	//0
; 87   : 	case '1':	//1
; 88   : 	case '2':	//2
; 89   : 	case '3':	//3
; 90   : 	case '4':	//4		
; 91   : 	case '5':	//5
; 92   : 	case '6':	//6
; 93   : 	case '7':	//7
; 94   : 	case '8':	//8
; 95   : 	case '9':	//9
; 96   : 		ungetc(ch, SMDFile);

  000df	8b 15 00 00 00
	00		 mov	 edx, DWORD PTR _SMDFile
  000e5	52		 push	 edx
  000e6	50		 push	 eax
  000e7	e8 00 00 00 00	 call	 _ungetc

; 97   : 		p = TempString;
; 98   : 		
; 99   : 		while (((ch=getc(SMDFile)) != -1) && ((ch == 0x2E) || (isdigit(ch) != 0) || (ch == 0x2D)))  // 2e '.'  2D '-'

  000ec	a1 00 00 00 00	 mov	 eax, DWORD PTR _SMDFile
  000f1	50		 push	 eax
  000f2	8d 75 98	 lea	 esi, DWORD PTR _TempString$[ebp]
  000f5	e8 00 00 00 00	 call	 _getc
  000fa	8a d8		 mov	 bl, al
  000fc	83 c4 0c	 add	 esp, 12			; 0000000cH
  000ff	80 fb ff	 cmp	 bl, -1
  00102	74 33		 je	 SHORT $LN12@GetToken
$LL13@GetToken:
  00104	80 fb 2e	 cmp	 bl, 46			; 0000002eH
  00107	74 15		 je	 SHORT $LN11@GetToken
  00109	0f be cb	 movsx	 ecx, bl
  0010c	51		 push	 ecx
  0010d	e8 00 00 00 00	 call	 _isdigit
  00112	83 c4 04	 add	 esp, 4
  00115	85 c0		 test	 eax, eax
  00117	75 05		 jne	 SHORT $LN11@GetToken
  00119	80 fb 2d	 cmp	 bl, 45			; 0000002dH
  0011c	75 19		 jne	 SHORT $LN12@GetToken
$LN11@GetToken:
  0011e	8b 15 00 00 00
	00		 mov	 edx, DWORD PTR _SMDFile

; 100  : 		{
; 101  : 			*p = ch;	// Construct a String

  00124	88 1e		 mov	 BYTE PTR [esi], bl
  00126	52		 push	 edx

; 102  : 			p++;

  00127	46		 inc	 esi
  00128	e8 00 00 00 00	 call	 _getc
  0012d	8a d8		 mov	 bl, al
  0012f	83 c4 04	 add	 esp, 4
  00132	80 fb ff	 cmp	 bl, -1
  00135	75 cd		 jne	 SHORT $LL13@GetToken
$LN12@GetToken:

; 103  : 		}		
; 104  : 		*p = 0;
; 105  : 		TokenNumber = atof( TempString);	// Select the first Byte as Main ID

  00137	8d 45 98	 lea	 eax, DWORD PTR _TempString$[ebp]
  0013a	50		 push	 eax
  0013b	c6 06 00	 mov	 BYTE PTR [esi], 0
  0013e	e8 00 00 00 00	 call	 _atof
  00143	d9 1d 00 00 00
	00		 fstp	 DWORD PTR _TokenNumber
  00149	83 c4 04	 add	 esp, 4
  0014c	5e		 pop	 esi

; 106  : 		return CurrentToken  = NUMBER ;

  0014d	c7 05 00 00 00
	00 01 00 00 00	 mov	 DWORD PTR _CurrentToken, 1
  00157	b8 01 00 00 00	 mov	 eax, 1
  0015c	5b		 pop	 ebx

; 147  : 		}
; 148  : 		break;
; 149  : 
; 150  : 	}
; 151  : 
; 152  : 	return NAME;
; 153  : }

  0015d	8b 4d fc	 mov	 ecx, DWORD PTR __$ArrayPad$[ebp]
  00160	33 cd		 xor	 ecx, ebp
  00162	e8 00 00 00 00	 call	 @__security_check_cookie@4
  00167	8b e5		 mov	 esp, ebp
  00169	5d		 pop	 ebp
  0016a	c3		 ret	 0
$LN10@GetToken:

; 107  : 		break;
; 108  : 
; 109  : 	case '\"':	// "	String Case
; 110  : 		p=&TokenString[0];
; 111  : 		
; 112  : 		while (((ch=getc(SMDFile)) != -1 ) && (ch != 0x22))	// nice

  0016b	8b 0d 00 00 00
	00		 mov	 ecx, DWORD PTR _SMDFile
  00171	51		 push	 ecx
  00172	be 00 00 00 00	 mov	 esi, OFFSET _TokenString
  00177	e8 00 00 00 00	 call	 _getc
  0017c	83 c4 04	 add	 esp, 4
  0017f	3c ff		 cmp	 al, -1
  00181	74 1e		 je	 SHORT $LN8@GetToken
$LL9@GetToken:
  00183	3c 22		 cmp	 al, 34			; 00000022H
  00185	0f 84 a1 00 00
	00		 je	 $LN7@GetToken
  0018b	8b 15 00 00 00
	00		 mov	 edx, DWORD PTR _SMDFile

; 113  : 		{
; 114  : 			*p = ch;

  00191	88 06		 mov	 BYTE PTR [esi], al
  00193	52		 push	 edx

; 115  : 			p++;

  00194	46		 inc	 esi
  00195	e8 00 00 00 00	 call	 _getc
  0019a	83 c4 04	 add	 esp, 4
  0019d	3c ff		 cmp	 al, -1
  0019f	75 e2		 jne	 SHORT $LL9@GetToken
$LN8@GetToken:

; 116  : 		}
; 117  : 		if (ch != 0x22 )

  001a1	3c 22		 cmp	 al, 34			; 00000022H
  001a3	0f 84 83 00 00
	00		 je	 $LN7@GetToken

; 118  : 		{
; 119  : 			ungetc(ch, SMDFile);

  001a9	8b 0d 00 00 00
	00		 mov	 ecx, DWORD PTR _SMDFile
  001af	0f be d0	 movsx	 edx, al
  001b2	51		 push	 ecx
  001b3	52		 push	 edx

; 120  : 		}
; 121  : 		*p = 0;
; 122  : 		return CurrentToken = NAME;

  001b4	eb 6e		 jmp	 SHORT $LN49@GetToken
$LN6@GetToken:

; 123  : 		break;
; 124  : 
; 125  : 	default:	// Others
; 126  : 		if (isalpha(ch))

  001b6	50		 push	 eax
  001b7	e8 00 00 00 00	 call	 _isalpha
  001bc	83 c4 04	 add	 esp, 4
  001bf	85 c0		 test	 eax, eax
  001c1	0f 84 84 00 00
	00		 je	 $LN5@GetToken

; 127  : 		{
; 128  : 			p=&TokenString[0];
; 129  : 			*p=ch;
; 130  : 			p++;
; 131  : 
; 132  : 			while ( ((ch=getc(SMDFile)) != -1) && ( (ch == 0x2E) || (ch == 0x5F) || (isalnum(ch) != 0) ) )

  001c7	a1 00 00 00 00	 mov	 eax, DWORD PTR _SMDFile
  001cc	50		 push	 eax
  001cd	88 1d 00 00 00
	00		 mov	 BYTE PTR _TokenString, bl
  001d3	be 01 00 00 00	 mov	 esi, OFFSET _TokenString+1
  001d8	e8 00 00 00 00	 call	 _getc
  001dd	8a d8		 mov	 bl, al
  001df	83 c4 04	 add	 esp, 4
  001e2	80 fb ff	 cmp	 bl, -1
  001e5	74 33		 je	 SHORT $LN3@GetToken
$LL4@GetToken:
  001e7	80 fb 2e	 cmp	 bl, 46			; 0000002eH
  001ea	74 15		 je	 SHORT $LN2@GetToken
  001ec	80 fb 5f	 cmp	 bl, 95			; 0000005fH
  001ef	74 10		 je	 SHORT $LN2@GetToken
  001f1	0f be cb	 movsx	 ecx, bl
  001f4	51		 push	 ecx
  001f5	e8 00 00 00 00	 call	 _isalnum
  001fa	83 c4 04	 add	 esp, 4
  001fd	85 c0		 test	 eax, eax
  001ff	74 19		 je	 SHORT $LN3@GetToken
$LN2@GetToken:
  00201	8b 15 00 00 00
	00		 mov	 edx, DWORD PTR _SMDFile

; 133  : 			{
; 134  : 				*p=ch;

  00207	88 1e		 mov	 BYTE PTR [esi], bl
  00209	52		 push	 edx

; 135  : 				p++;

  0020a	46		 inc	 esi
  0020b	e8 00 00 00 00	 call	 _getc
  00210	8a d8		 mov	 bl, al
  00212	83 c4 04	 add	 esp, 4
  00215	80 fb ff	 cmp	 bl, -1
  00218	75 cd		 jne	 SHORT $LL4@GetToken
$LN3@GetToken:

; 136  : 				
; 137  : 			}
; 138  : 
; 139  : 			ungetc(ch, SMDFile);

  0021a	a1 00 00 00 00	 mov	 eax, DWORD PTR _SMDFile
  0021f	0f be cb	 movsx	 ecx, bl
  00222	50		 push	 eax
  00223	51		 push	 ecx
$LN49@GetToken:
  00224	e8 00 00 00 00	 call	 _ungetc
  00229	83 c4 08	 add	 esp, 8
$LN7@GetToken:

; 140  : 			*p=0;

  0022c	c6 06 00	 mov	 BYTE PTR [esi], 0
  0022f	5e		 pop	 esi

; 141  : 			CurrentToken=NAME;

  00230	c7 05 00 00 00
	00 00 00 00 00	 mov	 DWORD PTR _CurrentToken, 0

; 142  : 			return CurrentToken;

  0023a	33 c0		 xor	 eax, eax
  0023c	5b		 pop	 ebx

; 147  : 		}
; 148  : 		break;
; 149  : 
; 150  : 	}
; 151  : 
; 152  : 	return NAME;
; 153  : }

  0023d	8b 4d fc	 mov	 ecx, DWORD PTR __$ArrayPad$[ebp]
  00240	33 cd		 xor	 ecx, ebp
  00242	e8 00 00 00 00	 call	 @__security_check_cookie@4
  00247	8b e5		 mov	 esp, ebp
  00249	5d		 pop	 ebp
  0024a	c3		 ret	 0
$LN5@GetToken:

; 143  : 		}
; 144  : 		else
; 145  : 		{
; 146  : 			return CurrentToken = SMD_ERROR; // '<'

  0024b	b8 3c 00 00 00	 mov	 eax, 60			; 0000003cH
$LN48@GetToken:

; 147  : 		}
; 148  : 		break;
; 149  : 
; 150  : 	}
; 151  : 
; 152  : 	return NAME;
; 153  : }

  00250	8b 4d fc	 mov	 ecx, DWORD PTR __$ArrayPad$[ebp]
  00253	5e		 pop	 esi
  00254	33 cd		 xor	 ecx, ebp
  00256	a3 00 00 00 00	 mov	 DWORD PTR _CurrentToken, eax
  0025b	5b		 pop	 ebx
  0025c	e8 00 00 00 00	 call	 @__security_check_cookie@4
  00261	8b e5		 mov	 esp, ebp
  00263	5d		 pop	 ebp
  00264	c3		 ret	 0
  00265	8d 49 00	 npad	 3
$LN50@GetToken:
  00268	00 00 00 00	 DD	 $LN10@GetToken
  0026c	00 00 00 00	 DD	 $LN19@GetToken
  00270	00 00 00 00	 DD	 $LN17@GetToken
  00274	00 00 00 00	 DD	 $LN14@GetToken
  00278	00 00 00 00	 DD	 $LN18@GetToken
  0027c	00 00 00 00	 DD	 $LN16@GetToken
  00280	00 00 00 00	 DD	 $LN15@GetToken
  00284	00 00 00 00	 DD	 $LN6@GetToken
$LN46@GetToken:
  00288	00		 DB	 0
  00289	01		 DB	 1
  0028a	07		 DB	 7
  0028b	07		 DB	 7
  0028c	07		 DB	 7
  0028d	07		 DB	 7
  0028e	07		 DB	 7
  0028f	07		 DB	 7
  00290	07		 DB	 7
  00291	07		 DB	 7
  00292	02		 DB	 2
  00293	03		 DB	 3
  00294	03		 DB	 3
  00295	07		 DB	 7
  00296	03		 DB	 3
  00297	03		 DB	 3
  00298	03		 DB	 3
  00299	03		 DB	 3
  0029a	03		 DB	 3
  0029b	03		 DB	 3
  0029c	03		 DB	 3
  0029d	03		 DB	 3
  0029e	03		 DB	 3
  0029f	03		 DB	 3
  002a0	07		 DB	 7
  002a1	04		 DB	 4
  002a2	07		 DB	 7
  002a3	07		 DB	 7
  002a4	07		 DB	 7
  002a5	07		 DB	 7
  002a6	07		 DB	 7
  002a7	07		 DB	 7
  002a8	07		 DB	 7
  002a9	07		 DB	 7
  002aa	07		 DB	 7
  002ab	07		 DB	 7
  002ac	07		 DB	 7
  002ad	07		 DB	 7
  002ae	07		 DB	 7
  002af	07		 DB	 7
  002b0	07		 DB	 7
  002b1	07		 DB	 7
  002b2	07		 DB	 7
  002b3	07		 DB	 7
  002b4	07		 DB	 7
  002b5	07		 DB	 7
  002b6	07		 DB	 7
  002b7	07		 DB	 7
  002b8	07		 DB	 7
  002b9	07		 DB	 7
  002ba	07		 DB	 7
  002bb	07		 DB	 7
  002bc	07		 DB	 7
  002bd	07		 DB	 7
  002be	07		 DB	 7
  002bf	07		 DB	 7
  002c0	07		 DB	 7
  002c1	07		 DB	 7
  002c2	07		 DB	 7
  002c3	07		 DB	 7
  002c4	07		 DB	 7
  002c5	07		 DB	 7
  002c6	07		 DB	 7
  002c7	07		 DB	 7
  002c8	07		 DB	 7
  002c9	07		 DB	 7
  002ca	07		 DB	 7
  002cb	07		 DB	 7
  002cc	07		 DB	 7
  002cd	07		 DB	 7
  002ce	07		 DB	 7
  002cf	07		 DB	 7
  002d0	07		 DB	 7
  002d1	07		 DB	 7
  002d2	07		 DB	 7
  002d3	07		 DB	 7
  002d4	07		 DB	 7
  002d5	07		 DB	 7
  002d6	07		 DB	 7
  002d7	07		 DB	 7
  002d8	07		 DB	 7
  002d9	07		 DB	 7
  002da	07		 DB	 7
  002db	07		 DB	 7
  002dc	07		 DB	 7
  002dd	07		 DB	 7
  002de	07		 DB	 7
  002df	07		 DB	 7
  002e0	07		 DB	 7
  002e1	05		 DB	 5
  002e2	07		 DB	 7
  002e3	06		 DB	 6
?GetToken@@YA?AW4SMDToken@@XZ ENDP			; GetToken
_TEXT	ENDS
PUBLIC	??1ZtWinQuestSystem@@QAE@XZ			; ZtWinQuestSystem::~ZtWinQuestSystem
; Function compile flags: /Ogtp
; File e:\work\tranet_version\gs\gameserver\ztwinquestsystem.cpp
;	COMDAT ??1ZtWinQuestSystem@@QAE@XZ
_TEXT	SEGMENT
??1ZtWinQuestSystem@@QAE@XZ PROC			; ZtWinQuestSystem::~ZtWinQuestSystem, COMDAT
; _this$ = ecx

; 28   : 	// ----
; 29   : }

  00000	c3		 ret	 0
??1ZtWinQuestSystem@@QAE@XZ ENDP			; ZtWinQuestSystem::~ZtWinQuestSystem
_TEXT	ENDS
PUBLIC	?Init@ZtWinQuestSystem@@QAEXXZ			; ZtWinQuestSystem::Init
EXTRN	_memset:PROC
; Function compile flags: /Ogtp
;	COMDAT ?Init@ZtWinQuestSystem@@QAEXXZ
_TEXT	SEGMENT
?Init@ZtWinQuestSystem@@QAEXXZ PROC			; ZtWinQuestSystem::Init, COMDAT
; _this$ = ecx

; 33   : {

  00000	53		 push	 ebx
  00001	56		 push	 esi
  00002	8b f1		 mov	 esi, ecx

; 34   : 	ZeroMemory(&this->ewdata,sizeof(this->ewdata));

  00004	68 40 d1 0c 00	 push	 840000			; 000cd140H
  00009	33 db		 xor	 ebx, ebx
  0000b	8d 46 14	 lea	 eax, DWORD PTR [esi+20]
  0000e	53		 push	 ebx
  0000f	50		 push	 eax
  00010	e8 00 00 00 00	 call	 _memset
  00015	83 c4 0c	 add	 esp, 12			; 0000000cH

; 35   : 
; 36   : 	this->Enable = false;

  00018	88 1e		 mov	 BYTE PTR [esi], bl

; 37   : 	this->NPC_Class = 0;

  0001a	89 5e 04	 mov	 DWORD PTR [esi+4], ebx

; 38   : 	this->NPC_Map = 0;

  0001d	89 5e 08	 mov	 DWORD PTR [esi+8], ebx

; 39   : 	this->NPC_X = 0;

  00020	89 5e 0c	 mov	 DWORD PTR [esi+12], ebx

; 40   : 	this->NPC_Y = 0;

  00023	89 5e 10	 mov	 DWORD PTR [esi+16], ebx

; 41   : 	this->iDropLoaded = 0;

  00026	89 9e 60 ea 0c
	00		 mov	 DWORD PTR [esi+846432], ebx
  0002c	5e		 pop	 esi
  0002d	5b		 pop	 ebx

; 42   : }

  0002e	c3		 ret	 0
?Init@ZtWinQuestSystem@@QAEXXZ ENDP			; ZtWinQuestSystem::Init
_TEXT	ENDS
PUBLIC	??_C@_05MGEEICMI@NPC_Y?$AA@			; `string'
PUBLIC	??_C@_05NPFPLDIJ@NPC_X?$AA@			; `string'
PUBLIC	??_C@_07LJMEGBCH@NPC_Map?$AA@			; `string'
PUBLIC	??_C@_09JIOKDDGI@NPC_Class?$AA@			; `string'
PUBLIC	??_C@_06CNKIADGI@ZtTeam?$AA@			; `string'
PUBLIC	??_C@_06CKGENIKG@Enable?$AA@			; `string'
PUBLIC	?Read@ZtWinQuestSystem@@QAEXPAD@Z		; ZtWinQuestSystem::Read
EXTRN	__imp__GetPrivateProfileIntA@16:PROC
;	COMDAT ??_C@_05MGEEICMI@NPC_Y?$AA@
CONST	SEGMENT
??_C@_05MGEEICMI@NPC_Y?$AA@ DB 'NPC_Y', 00H		; `string'
CONST	ENDS
;	COMDAT ??_C@_05NPFPLDIJ@NPC_X?$AA@
CONST	SEGMENT
??_C@_05NPFPLDIJ@NPC_X?$AA@ DB 'NPC_X', 00H		; `string'
CONST	ENDS
;	COMDAT ??_C@_07LJMEGBCH@NPC_Map?$AA@
CONST	SEGMENT
??_C@_07LJMEGBCH@NPC_Map?$AA@ DB 'NPC_Map', 00H		; `string'
CONST	ENDS
;	COMDAT ??_C@_09JIOKDDGI@NPC_Class?$AA@
CONST	SEGMENT
??_C@_09JIOKDDGI@NPC_Class?$AA@ DB 'NPC_Class', 00H	; `string'
CONST	ENDS
;	COMDAT ??_C@_06CNKIADGI@ZtTeam?$AA@
CONST	SEGMENT
??_C@_06CNKIADGI@ZtTeam?$AA@ DB 'ZtTeam', 00H		; `string'
CONST	ENDS
;	COMDAT ??_C@_06CKGENIKG@Enable?$AA@
CONST	SEGMENT
??_C@_06CKGENIKG@Enable?$AA@ DB 'Enable', 00H		; `string'
; Function compile flags: /Ogtp
CONST	ENDS
;	COMDAT ?Read@ZtWinQuestSystem@@QAEXPAD@Z
_TEXT	SEGMENT
_File$ = 8						; size = 4
?Read@ZtWinQuestSystem@@QAEXPAD@Z PROC			; ZtWinQuestSystem::Read, COMDAT
; _this$ = ecx

; 63   : {

  00000	55		 push	 ebp
  00001	8b ec		 mov	 ebp, esp
  00003	53		 push	 ebx

; 64   : 	this->Enable = GetPrivateProfileInt("ZtTeam", "Enable", 0, File);

  00004	8b 1d 00 00 00
	00		 mov	 ebx, DWORD PTR __imp__GetPrivateProfileIntA@16
  0000a	56		 push	 esi
  0000b	57		 push	 edi
  0000c	8b 7d 08	 mov	 edi, DWORD PTR _File$[ebp]
  0000f	57		 push	 edi
  00010	6a 00		 push	 0
  00012	68 00 00 00 00	 push	 OFFSET ??_C@_06CKGENIKG@Enable?$AA@
  00017	68 00 00 00 00	 push	 OFFSET ??_C@_06CNKIADGI@ZtTeam?$AA@
  0001c	8b f1		 mov	 esi, ecx
  0001e	ff d3		 call	 ebx

; 65   : 	this->NPC_Class = GetPrivateProfileInt("ZtTeam", "NPC_Class", 0, File);

  00020	57		 push	 edi
  00021	6a 00		 push	 0
  00023	85 c0		 test	 eax, eax
  00025	68 00 00 00 00	 push	 OFFSET ??_C@_09JIOKDDGI@NPC_Class?$AA@
  0002a	0f 95 c0	 setne	 al
  0002d	68 00 00 00 00	 push	 OFFSET ??_C@_06CNKIADGI@ZtTeam?$AA@
  00032	88 06		 mov	 BYTE PTR [esi], al
  00034	ff d3		 call	 ebx

; 66   : 	this->NPC_Map = GetPrivateProfileInt("ZtTeam", "NPC_Map", 0, File);

  00036	57		 push	 edi
  00037	6a 00		 push	 0
  00039	68 00 00 00 00	 push	 OFFSET ??_C@_07LJMEGBCH@NPC_Map?$AA@
  0003e	68 00 00 00 00	 push	 OFFSET ??_C@_06CNKIADGI@ZtTeam?$AA@
  00043	89 46 04	 mov	 DWORD PTR [esi+4], eax
  00046	ff d3		 call	 ebx

; 67   : 	this->NPC_X = GetPrivateProfileInt("ZtTeam", "NPC_X", 0, File);

  00048	57		 push	 edi
  00049	6a 00		 push	 0
  0004b	68 00 00 00 00	 push	 OFFSET ??_C@_05NPFPLDIJ@NPC_X?$AA@
  00050	68 00 00 00 00	 push	 OFFSET ??_C@_06CNKIADGI@ZtTeam?$AA@
  00055	89 46 08	 mov	 DWORD PTR [esi+8], eax
  00058	ff d3		 call	 ebx

; 68   : 	this->NPC_Y = GetPrivateProfileInt("ZtTeam", "NPC_Y", 0, File);

  0005a	57		 push	 edi
  0005b	6a 00		 push	 0
  0005d	68 00 00 00 00	 push	 OFFSET ??_C@_05MGEEICMI@NPC_Y?$AA@
  00062	68 00 00 00 00	 push	 OFFSET ??_C@_06CNKIADGI@ZtTeam?$AA@
  00067	89 46 0c	 mov	 DWORD PTR [esi+12], eax
  0006a	ff d3		 call	 ebx
  0006c	5f		 pop	 edi
  0006d	89 46 10	 mov	 DWORD PTR [esi+16], eax
  00070	5e		 pop	 esi
  00071	5b		 pop	 ebx

; 69   : }

  00072	5d		 pop	 ebp
  00073	c2 04 00	 ret	 4
?Read@ZtWinQuestSystem@@QAEXPAD@Z ENDP			; ZtWinQuestSystem::Read
_TEXT	ENDS
PUBLIC	??_C@_0DL@OMPMOFCM@?$FLZtWinQuestSystem?$FN?$FLReadQuestZt?$FN?5@ ; `string'
PUBLIC	??_C@_01KDCPPGHE@r?$AA@				; `string'
PUBLIC	?ReadQuest@ZtWinQuestSystem@@QAEXHPAD@Z		; ZtWinQuestSystem::ReadQuest
EXTRN	?LogAddTD@@3P6AXPADZZA:DWORD			; LogAddTD
EXTRN	_fclose:PROC
EXTRN	_strncpy:PROC
EXTRN	?MsgBox@@YAXPADZZ:PROC				; MsgBox
EXTRN	?Get@CMsg@@QAEPADH@Z:PROC			; CMsg::Get
EXTRN	?lMsg@@3VCMsg@@A:BYTE				; lMsg
EXTRN	_fopen:PROC
EXTRN	__ftol2_sse:PROC
;	COMDAT ??_C@_0DL@OMPMOFCM@?$FLZtWinQuestSystem?$FN?$FLReadQuestZt?$FN?5@
CONST	SEGMENT
??_C@_0DL@OMPMOFCM@?$FLZtWinQuestSystem?$FN?$FLReadQuestZt?$FN?5@ DB '[Zt'
	DB	'WinQuestSystem][ReadQuestZt] [%d] Item loaded from list', 00H ; `string'
CONST	ENDS
;	COMDAT ??_C@_01KDCPPGHE@r?$AA@
CONST	SEGMENT
??_C@_01KDCPPGHE@r?$AA@ DB 'r', 00H			; `string'
; Function compile flags: /Ogtp
CONST	ENDS
;	COMDAT ?ReadQuest@ZtWinQuestSystem@@QAEXHPAD@Z
_TEXT	SEGMENT
_this$ = -4						; size = 4
_a$ = 8							; size = 4
_n$ = 12						; size = 4
_File$ = 12						; size = 4
?ReadQuest@ZtWinQuestSystem@@QAEXHPAD@Z PROC		; ZtWinQuestSystem::ReadQuest, COMDAT
; _this$ = ecx

; 73   : {

  00000	55		 push	 ebp
  00001	8b ec		 mov	 ebp, esp
  00003	51		 push	 ecx
  00004	56		 push	 esi
  00005	57		 push	 edi

; 74   : 	int Token;
; 75   : 
; 76   : 	SMDFile = fopen(File, "r");

  00006	8b 7d 0c	 mov	 edi, DWORD PTR _File$[ebp]
  00009	8b f1		 mov	 esi, ecx
  0000b	68 00 00 00 00	 push	 OFFSET ??_C@_01KDCPPGHE@r?$AA@
  00010	57		 push	 edi
  00011	89 75 fc	 mov	 DWORD PTR _this$[ebp], esi
  00014	e8 00 00 00 00	 call	 _fopen
  00019	83 c4 08	 add	 esp, 8
  0001c	a3 00 00 00 00	 mov	 DWORD PTR _SMDFile, eax

; 77   : 
; 78   : 	if( SMDFile == NULL )

  00021	85 c0		 test	 eax, eax
  00023	75 1e		 jne	 SHORT $LN11@ReadQuest

; 79   : 	{
; 80   : 		MsgBox(lMsg.Get(MSGGET(0, 112)), File);

  00025	57		 push	 edi
  00026	6a 70		 push	 112			; 00000070H
  00028	b9 00 00 00 00	 mov	 ecx, OFFSET ?lMsg@@3VCMsg@@A ; lMsg
  0002d	e8 00 00 00 00	 call	 ?Get@CMsg@@QAEPADH@Z	; CMsg::Get
  00032	50		 push	 eax
  00033	e8 00 00 00 00	 call	 ?MsgBox@@YAXPADZZ	; MsgBox
  00038	83 c4 08	 add	 esp, 8
  0003b	5f		 pop	 edi
  0003c	5e		 pop	 esi

; 165  : }

  0003d	8b e5		 mov	 esp, ebp
  0003f	5d		 pop	 ebp
  00040	c2 08 00	 ret	 8
$LN11@ReadQuest:

; 81   : 		return;
; 82   : 	}
; 83   : 
; 84   : 	int n = 0;

  00043	33 ff		 xor	 edi, edi
  00045	53		 push	 ebx
  00046	89 7d 0c	 mov	 DWORD PTR _n$[ebp], edi

; 85   : 
; 86   : 	while(true) 
; 87   : 	{
; 88   : 		Token = GetToken();

  00049	e8 00 00 00 00	 call	 ?GetToken@@YA?AW4SMDToken@@XZ ; GetToken

; 89   : 
; 90   : 		if( Token == END)

  0004e	83 f8 02	 cmp	 eax, 2
  00051	0f 84 ab 01 00
	00		 je	 $LN19@ReadQuest
$LL10@ReadQuest:

; 91   : 		{
; 92   : 			break;
; 93   : 		}
; 94   : 
; 95   : 		if( Token != NUMBER )

  00057	83 f8 01	 cmp	 eax, 1
  0005a	0f 85 94 01 00
	00		 jne	 $LN22@ReadQuest

; 96   : 		{
; 97   : 			continue;
; 98   : 		}
; 99   : 		
; 100  : 		this->ewdata[a][n].NeedLevel = TokenNumber;

  00060	8b 45 08	 mov	 eax, DWORD PTR _a$[ebp]
  00063	d9 05 00 00 00
	00		 fld	 DWORD PTR _TokenNumber
  00069	69 c0 e8 03 00
	00		 imul	 eax, 1000		; 000003e8H
  0006f	03 f8		 add	 edi, eax
  00071	69 ff 18 01 00
	00		 imul	 edi, 280		; 00000118H
  00077	03 fe		 add	 edi, esi
  00079	e8 00 00 00 00	 call	 __ftol2_sse
  0007e	89 47 30	 mov	 DWORD PTR [edi+48], eax

; 101  : 
; 102  : 		Token = GetToken();

  00081	e8 00 00 00 00	 call	 ?GetToken@@YA?AW4SMDToken@@XZ ; GetToken

; 103  : 		this->ewdata[a][n].NeedReset = TokenNumber;

  00086	d9 05 00 00 00
	00		 fld	 DWORD PTR _TokenNumber
  0008c	e8 00 00 00 00	 call	 __ftol2_sse
  00091	89 47 34	 mov	 DWORD PTR [edi+52], eax

; 104  : 
; 105  : 		Token = GetToken();

  00094	e8 00 00 00 00	 call	 ?GetToken@@YA?AW4SMDToken@@XZ ; GetToken

; 106  : 		this->ewdata[a][n].NeedGrand = TokenNumber;

  00099	d9 05 00 00 00
	00		 fld	 DWORD PTR _TokenNumber
  0009f	e8 00 00 00 00	 call	 __ftol2_sse
  000a4	89 47 38	 mov	 DWORD PTR [edi+56], eax

; 107  : 
; 108  : 		Token = GetToken();

  000a7	e8 00 00 00 00	 call	 ?GetToken@@YA?AW4SMDToken@@XZ ; GetToken

; 109  : 		strncpy(this->ewdata[a][n].NameQuest, TokenString, 25);

  000ac	6a 19		 push	 25			; 00000019H
  000ae	8d 4f 14	 lea	 ecx, DWORD PTR [edi+20]
  000b1	68 00 00 00 00	 push	 OFFSET _TokenString
  000b6	51		 push	 ecx
  000b7	e8 00 00 00 00	 call	 _strncpy
  000bc	83 c4 0c	 add	 esp, 12			; 0000000cH
  000bf	8d 77 50	 lea	 esi, DWORD PTR [edi+80]
  000c2	bb 05 00 00 00	 mov	 ebx, 5
$LL6@ReadQuest:

; 110  : 
; 111  : 		for(int m = 0; m < EW_MAX_MISSION; m++)
; 112  : 		{
; 113  : 			Token = GetToken();

  000c7	e8 00 00 00 00	 call	 ?GetToken@@YA?AW4SMDToken@@XZ ; GetToken

; 114  : 			this->ewdata[a][n].MissionType[m]		= TokenNumber;

  000cc	d9 05 00 00 00
	00		 fld	 DWORD PTR _TokenNumber
  000d2	e8 00 00 00 00	 call	 __ftol2_sse
  000d7	89 46 ec	 mov	 DWORD PTR [esi-20], eax

; 115  : 
; 116  : 			Token = GetToken();

  000da	e8 00 00 00 00	 call	 ?GetToken@@YA?AW4SMDToken@@XZ ; GetToken

; 117  : 			this->ewdata[a][n].MissionID[m]			= TokenNumber;

  000df	d9 05 00 00 00
	00		 fld	 DWORD PTR _TokenNumber
  000e5	e8 00 00 00 00	 call	 __ftol2_sse
  000ea	89 06		 mov	 DWORD PTR [esi], eax

; 118  : 
; 119  : 			Token = GetToken();

  000ec	e8 00 00 00 00	 call	 ?GetToken@@YA?AW4SMDToken@@XZ ; GetToken

; 120  : 			this->ewdata[a][n].MissionIndex[m]		= TokenNumber;

  000f1	d9 05 00 00 00
	00		 fld	 DWORD PTR _TokenNumber
  000f7	e8 00 00 00 00	 call	 __ftol2_sse
  000fc	89 46 14	 mov	 DWORD PTR [esi+20], eax

; 121  : 
; 122  : 			Token = GetToken();

  000ff	e8 00 00 00 00	 call	 ?GetToken@@YA?AW4SMDToken@@XZ ; GetToken

; 123  : 			this->ewdata[a][n].MissionLevel[m]		= TokenNumber;

  00104	d9 05 00 00 00
	00		 fld	 DWORD PTR _TokenNumber
  0010a	e8 00 00 00 00	 call	 __ftol2_sse
  0010f	89 46 28	 mov	 DWORD PTR [esi+40], eax

; 124  : 
; 125  : 			Token = GetToken();

  00112	e8 00 00 00 00	 call	 ?GetToken@@YA?AW4SMDToken@@XZ ; GetToken

; 126  : 			this->ewdata[a][n].MissionLuck[m]		= TokenNumber;

  00117	d9 05 00 00 00
	00		 fld	 DWORD PTR _TokenNumber
  0011d	e8 00 00 00 00	 call	 __ftol2_sse
  00122	89 46 3c	 mov	 DWORD PTR [esi+60], eax

; 127  : 
; 128  : 			Token = GetToken();

  00125	e8 00 00 00 00	 call	 ?GetToken@@YA?AW4SMDToken@@XZ ; GetToken

; 129  : 			this->ewdata[a][n].MissionOpt[m]		= TokenNumber;

  0012a	d9 05 00 00 00
	00		 fld	 DWORD PTR _TokenNumber
  00130	e8 00 00 00 00	 call	 __ftol2_sse
  00135	89 46 50	 mov	 DWORD PTR [esi+80], eax

; 130  : 
; 131  : 			Token = GetToken();

  00138	e8 00 00 00 00	 call	 ?GetToken@@YA?AW4SMDToken@@XZ ; GetToken

; 132  : 			this->ewdata[a][n].MissionExl[m]		= TokenNumber;

  0013d	d9 05 00 00 00
	00		 fld	 DWORD PTR _TokenNumber
  00143	e8 00 00 00 00	 call	 __ftol2_sse
  00148	89 46 64	 mov	 DWORD PTR [esi+100], eax

; 133  : 
; 134  : 			Token = GetToken();

  0014b	e8 00 00 00 00	 call	 ?GetToken@@YA?AW4SMDToken@@XZ ; GetToken

; 135  : 			this->ewdata[a][n].MissionProcent[m]	= TokenNumber;

  00150	d9 05 00 00 00
	00		 fld	 DWORD PTR _TokenNumber
  00156	e8 00 00 00 00	 call	 __ftol2_sse
  0015b	89 86 8c 00 00
	00		 mov	 DWORD PTR [esi+140], eax

; 136  : 
; 137  : 			Token = GetToken();

  00161	e8 00 00 00 00	 call	 ?GetToken@@YA?AW4SMDToken@@XZ ; GetToken

; 138  : 			this->ewdata[a][n].MissionCount[m]		= TokenNumber;

  00166	d9 05 00 00 00
	00		 fld	 DWORD PTR _TokenNumber
  0016c	e8 00 00 00 00	 call	 __ftol2_sse
  00171	89 46 78	 mov	 DWORD PTR [esi+120], eax
  00174	83 c6 04	 add	 esi, 4
  00177	4b		 dec	 ebx
  00178	0f 85 49 ff ff
	ff		 jne	 $LL6@ReadQuest

; 139  : 		}
; 140  : 
; 141  : 		for(int r = 0; r < EW_MAX_REWARD; r++)

  0017e	8d b7 08 01 00
	00		 lea	 esi, DWORD PTR [edi+264]
  00184	8d 7b 03	 lea	 edi, DWORD PTR [ebx+3]
$LL3@ReadQuest:

; 142  : 		{
; 143  : 			Token = GetToken();

  00187	e8 00 00 00 00	 call	 ?GetToken@@YA?AW4SMDToken@@XZ ; GetToken

; 144  : 			this->ewdata[a][n].RewardType[r]		= TokenNumber;

  0018c	d9 05 00 00 00
	00		 fld	 DWORD PTR _TokenNumber
  00192	e8 00 00 00 00	 call	 __ftol2_sse
  00197	89 46 e8	 mov	 DWORD PTR [esi-24], eax

; 145  : 
; 146  : 			Token = GetToken();

  0019a	e8 00 00 00 00	 call	 ?GetToken@@YA?AW4SMDToken@@XZ ; GetToken

; 147  : 			this->ewdata[a][n].RewardItemType[r]	= TokenNumber;

  0019f	d9 05 00 00 00
	00		 fld	 DWORD PTR _TokenNumber
  001a5	e8 00 00 00 00	 call	 __ftol2_sse
  001aa	89 06		 mov	 DWORD PTR [esi], eax

; 148  : 
; 149  : 			Token = GetToken();

  001ac	e8 00 00 00 00	 call	 ?GetToken@@YA?AW4SMDToken@@XZ ; GetToken

; 150  : 			this->ewdata[a][n].RewardItemIndex[r]	= TokenNumber;

  001b1	d9 05 00 00 00
	00		 fld	 DWORD PTR _TokenNumber
  001b7	e8 00 00 00 00	 call	 __ftol2_sse
  001bc	89 46 0c	 mov	 DWORD PTR [esi+12], eax

; 151  : 
; 152  : 			Token = GetToken();

  001bf	e8 00 00 00 00	 call	 ?GetToken@@YA?AW4SMDToken@@XZ ; GetToken

; 153  : 			this->ewdata[a][n].RewardItemLevel[r]	= TokenNumber;

  001c4	d9 05 00 00 00
	00		 fld	 DWORD PTR _TokenNumber
  001ca	e8 00 00 00 00	 call	 __ftol2_sse
  001cf	89 46 18	 mov	 DWORD PTR [esi+24], eax

; 154  : 
; 155  : 			Token = GetToken();

  001d2	e8 00 00 00 00	 call	 ?GetToken@@YA?AW4SMDToken@@XZ ; GetToken

; 156  : 			this->ewdata[a][n].RewardCount[r]		= TokenNumber;

  001d7	d9 05 00 00 00
	00		 fld	 DWORD PTR _TokenNumber
  001dd	e8 00 00 00 00	 call	 __ftol2_sse
  001e2	89 46 f4	 mov	 DWORD PTR [esi-12], eax
  001e5	83 c6 04	 add	 esi, 4
  001e8	4f		 dec	 edi
  001e9	75 9c		 jne	 SHORT $LL3@ReadQuest

; 157  : 		}
; 158  : 
; 159  : 		n++;

  001eb	ff 45 0c	 inc	 DWORD PTR _n$[ebp]
  001ee	8b 75 fc	 mov	 esi, DWORD PTR _this$[ebp]
  001f1	8b 7d 0c	 mov	 edi, DWORD PTR _n$[ebp]
$LN22@ReadQuest:

; 89   : 
; 90   : 		if( Token == END)

  001f4	e8 00 00 00 00	 call	 ?GetToken@@YA?AW4SMDToken@@XZ ; GetToken
  001f9	83 f8 02	 cmp	 eax, 2
  001fc	0f 85 55 fe ff
	ff		 jne	 $LL10@ReadQuest
$LN19@ReadQuest:

; 160  : 	}
; 161  : 
; 162  : 	this->iLoaded[a] = n;
; 163  : 	fclose(SMDFile);	

  00202	8b 15 00 00 00
	00		 mov	 edx, DWORD PTR _SMDFile
  00208	8b 5d 08	 mov	 ebx, DWORD PTR _a$[ebp]
  0020b	52		 push	 edx
  0020c	89 bc 9e 54 ea
	0c 00		 mov	 DWORD PTR [esi+ebx*4+846420], edi
  00213	e8 00 00 00 00	 call	 _fclose

; 164  : 	LogAddTD("[ZtWinQuestSystem][ReadQuestZt] [%d] Item loaded from list", this->iLoaded[a]);

  00218	8b 84 9e 54 ea
	0c 00		 mov	 eax, DWORD PTR [esi+ebx*4+846420]
  0021f	50		 push	 eax
  00220	68 00 00 00 00	 push	 OFFSET ??_C@_0DL@OMPMOFCM@?$FLZtWinQuestSystem?$FN?$FLReadQuestZt?$FN?5@
  00225	ff 15 00 00 00
	00		 call	 DWORD PTR ?LogAddTD@@3P6AXPADZZA ; LogAddTD
  0022b	83 c4 0c	 add	 esp, 12			; 0000000cH
  0022e	5b		 pop	 ebx
  0022f	5f		 pop	 edi
  00230	5e		 pop	 esi

; 165  : }

  00231	8b e5		 mov	 esp, ebp
  00233	5d		 pop	 ebp
  00234	c2 08 00	 ret	 8
?ReadQuest@ZtWinQuestSystem@@QAEXHPAD@Z ENDP		; ZtWinQuestSystem::ReadQuest
_TEXT	ENDS
PUBLIC	??_C@_0DI@OBHHHGLO@?$FLZtWinQuestSystem?$FN?$FLReadDrop?$FN?5?$FL?$CFd@ ; `string'
PUBLIC	?ReadDrop@ZtWinQuestSystem@@QAEXPAD@Z		; ZtWinQuestSystem::ReadDrop
EXTRN	?LogAdd@@3P6AXPADZZA:DWORD			; LogAdd
;	COMDAT ??_C@_0DI@OBHHHGLO@?$FLZtWinQuestSystem?$FN?$FLReadDrop?$FN?5?$FL?$CFd@
CONST	SEGMENT
??_C@_0DI@OBHHHGLO@?$FLZtWinQuestSystem?$FN?$FLReadDrop?$FN?5?$FL?$CFd@ DB '['
	DB	'ZtWinQuestSystem][ReadDrop] [%d] Item loaded from list', 00H ; `string'
; Function compile flags: /Ogtp
CONST	ENDS
;	COMDAT ?ReadDrop@ZtWinQuestSystem@@QAEXPAD@Z
_TEXT	SEGMENT
_File$ = 8						; size = 4
?ReadDrop@ZtWinQuestSystem@@QAEXPAD@Z PROC		; ZtWinQuestSystem::ReadDrop, COMDAT
; _this$ = ecx

; 169  : {

  00000	55		 push	 ebp
  00001	8b ec		 mov	 ebp, esp
  00003	56		 push	 esi
  00004	57		 push	 edi

; 170  : 	SMDFile = fopen(File, "r");

  00005	8b 7d 08	 mov	 edi, DWORD PTR _File$[ebp]
  00008	68 00 00 00 00	 push	 OFFSET ??_C@_01KDCPPGHE@r?$AA@
  0000d	57		 push	 edi
  0000e	8b f1		 mov	 esi, ecx
  00010	e8 00 00 00 00	 call	 _fopen
  00015	83 c4 08	 add	 esp, 8
  00018	a3 00 00 00 00	 mov	 DWORD PTR _SMDFile, eax

; 171  : 
; 172  : 	if( SMDFile == NULL )

  0001d	85 c0		 test	 eax, eax
  0001f	75 20		 jne	 SHORT $LN8@ReadDrop

; 173  : 	{
; 174  : 		LogAdd(lMsg.Get(MSGGET(1, 198)), File);

  00021	57		 push	 edi
  00022	68 c6 01 00 00	 push	 454			; 000001c6H
  00027	b9 00 00 00 00	 mov	 ecx, OFFSET ?lMsg@@3VCMsg@@A ; lMsg
  0002c	e8 00 00 00 00	 call	 ?Get@CMsg@@QAEPADH@Z	; CMsg::Get
  00031	50		 push	 eax
  00032	ff 15 00 00 00
	00		 call	 DWORD PTR ?LogAdd@@3P6AXPADZZA ; LogAdd
  00038	83 c4 08	 add	 esp, 8
  0003b	5f		 pop	 edi
  0003c	5e		 pop	 esi

; 234  : }

  0003d	5d		 pop	 ebp
  0003e	c2 04 00	 ret	 4
$LN8@ReadDrop:

; 175  : 		return;
; 176  : 	}
; 177  : 
; 178  : 	while(true)
; 179  : 	{
; 180  : 		SMDToken Token = GetToken();

  00041	e8 00 00 00 00	 call	 ?GetToken@@YA?AW4SMDToken@@XZ ; GetToken

; 181  : 
; 182  : 		if( Token == END )

  00046	83 f8 02	 cmp	 eax, 2
  00049	0f 84 ec 01 00
	00		 je	 $LN9@ReadDrop
  0004f	90		 npad	 1
$LL3@ReadDrop:

; 183  : 		{
; 184  : 			break;
; 185  : 		}
; 186  : 
; 187  : 		this->m_Drop[this->iDropLoaded].iAct				= TokenNumber;

  00050	d9 05 00 00 00
	00		 fld	 DWORD PTR _TokenNumber
  00056	e8 00 00 00 00	 call	 __ftol2_sse
  0005b	8b 8e 60 ea 0c
	00		 mov	 ecx, DWORD PTR [esi+846432]
  00061	c1 e1 06	 shl	 ecx, 6
  00064	89 84 31 54 d1
	0c 00		 mov	 DWORD PTR [ecx+esi+840020], eax

; 188  : 
; 189  : 		GetToken();

  0006b	e8 00 00 00 00	 call	 ?GetToken@@YA?AW4SMDToken@@XZ ; GetToken

; 190  : 		this->m_Drop[this->iDropLoaded].iNeedQuest			= TokenNumber;

  00070	d9 05 00 00 00
	00		 fld	 DWORD PTR _TokenNumber
  00076	e8 00 00 00 00	 call	 __ftol2_sse
  0007b	8b 96 60 ea 0c
	00		 mov	 edx, DWORD PTR [esi+846432]
  00081	c1 e2 06	 shl	 edx, 6
  00084	89 84 32 58 d1
	0c 00		 mov	 DWORD PTR [edx+esi+840024], eax

; 191  : 
; 192  : 		GetToken();

  0008b	e8 00 00 00 00	 call	 ?GetToken@@YA?AW4SMDToken@@XZ ; GetToken

; 193  : 		this->m_Drop[this->iDropLoaded].ItemType			= TokenNumber;

  00090	d9 05 00 00 00
	00		 fld	 DWORD PTR _TokenNumber
  00096	e8 00 00 00 00	 call	 __ftol2_sse
  0009b	8b 8e 60 ea 0c
	00		 mov	 ecx, DWORD PTR [esi+846432]
  000a1	c1 e1 06	 shl	 ecx, 6
  000a4	89 84 31 5c d1
	0c 00		 mov	 DWORD PTR [ecx+esi+840028], eax

; 194  : 
; 195  : 		GetToken();

  000ab	e8 00 00 00 00	 call	 ?GetToken@@YA?AW4SMDToken@@XZ ; GetToken

; 196  : 		this->m_Drop[this->iDropLoaded].ItemIndex			= TokenNumber;

  000b0	d9 05 00 00 00
	00		 fld	 DWORD PTR _TokenNumber
  000b6	e8 00 00 00 00	 call	 __ftol2_sse
  000bb	8b 96 60 ea 0c
	00		 mov	 edx, DWORD PTR [esi+846432]
  000c1	c1 e2 06	 shl	 edx, 6
  000c4	89 84 32 60 d1
	0c 00		 mov	 DWORD PTR [edx+esi+840032], eax

; 197  : 
; 198  : 		GetToken();

  000cb	e8 00 00 00 00	 call	 ?GetToken@@YA?AW4SMDToken@@XZ ; GetToken

; 199  : 		this->m_Drop[this->iDropLoaded].ItemMinLevel		= TokenNumber;

  000d0	d9 05 00 00 00
	00		 fld	 DWORD PTR _TokenNumber
  000d6	e8 00 00 00 00	 call	 __ftol2_sse
  000db	8b 8e 60 ea 0c
	00		 mov	 ecx, DWORD PTR [esi+846432]
  000e1	c1 e1 06	 shl	 ecx, 6
  000e4	89 84 31 64 d1
	0c 00		 mov	 DWORD PTR [ecx+esi+840036], eax

; 200  : 
; 201  : 		GetToken();

  000eb	e8 00 00 00 00	 call	 ?GetToken@@YA?AW4SMDToken@@XZ ; GetToken

; 202  : 		this->m_Drop[this->iDropLoaded].ItemMaxLevel		= TokenNumber;

  000f0	d9 05 00 00 00
	00		 fld	 DWORD PTR _TokenNumber
  000f6	e8 00 00 00 00	 call	 __ftol2_sse
  000fb	8b 96 60 ea 0c
	00		 mov	 edx, DWORD PTR [esi+846432]
  00101	c1 e2 06	 shl	 edx, 6
  00104	89 84 32 68 d1
	0c 00		 mov	 DWORD PTR [edx+esi+840040], eax

; 203  : 
; 204  : 		GetToken();

  0010b	e8 00 00 00 00	 call	 ?GetToken@@YA?AW4SMDToken@@XZ ; GetToken

; 205  : 		this->m_Drop[this->iDropLoaded].ItemMaxOption		= TokenNumber;

  00110	d9 05 00 00 00
	00		 fld	 DWORD PTR _TokenNumber
  00116	e8 00 00 00 00	 call	 __ftol2_sse
  0011b	8b 8e 60 ea 0c
	00		 mov	 ecx, DWORD PTR [esi+846432]
  00121	c1 e1 06	 shl	 ecx, 6
  00124	89 84 31 6c d1
	0c 00		 mov	 DWORD PTR [ecx+esi+840044], eax

; 206  : 
; 207  : 		GetToken();

  0012b	e8 00 00 00 00	 call	 ?GetToken@@YA?AW4SMDToken@@XZ ; GetToken

; 208  : 		this->m_Drop[this->iDropLoaded].ItemLuck			= TokenNumber;

  00130	d9 05 00 00 00
	00		 fld	 DWORD PTR _TokenNumber
  00136	e8 00 00 00 00	 call	 __ftol2_sse
  0013b	8b 96 60 ea 0c
	00		 mov	 edx, DWORD PTR [esi+846432]
  00141	c1 e2 06	 shl	 edx, 6
  00144	89 84 32 70 d1
	0c 00		 mov	 DWORD PTR [edx+esi+840048], eax

; 209  : 
; 210  : 		GetToken();

  0014b	e8 00 00 00 00	 call	 ?GetToken@@YA?AW4SMDToken@@XZ ; GetToken

; 211  : 		this->m_Drop[this->iDropLoaded].ItemSkill			= TokenNumber;

  00150	d9 05 00 00 00
	00		 fld	 DWORD PTR _TokenNumber
  00156	e8 00 00 00 00	 call	 __ftol2_sse
  0015b	8b 8e 60 ea 0c
	00		 mov	 ecx, DWORD PTR [esi+846432]
  00161	c1 e1 06	 shl	 ecx, 6
  00164	89 84 31 74 d1
	0c 00		 mov	 DWORD PTR [ecx+esi+840052], eax

; 212  : 
; 213  : 		GetToken();

  0016b	e8 00 00 00 00	 call	 ?GetToken@@YA?AW4SMDToken@@XZ ; GetToken

; 214  : 		this->m_Drop[this->iDropLoaded].ItemExcellent		= TokenNumber;

  00170	d9 05 00 00 00
	00		 fld	 DWORD PTR _TokenNumber
  00176	e8 00 00 00 00	 call	 __ftol2_sse
  0017b	8b 96 60 ea 0c
	00		 mov	 edx, DWORD PTR [esi+846432]
  00181	c1 e2 06	 shl	 edx, 6
  00184	89 84 32 78 d1
	0c 00		 mov	 DWORD PTR [edx+esi+840056], eax

; 215  : 
; 216  : 		GetToken();

  0018b	e8 00 00 00 00	 call	 ?GetToken@@YA?AW4SMDToken@@XZ ; GetToken

; 217  : 		this->m_Drop[this->iDropLoaded].ItemDur				= TokenNumber;

  00190	d9 05 00 00 00
	00		 fld	 DWORD PTR _TokenNumber
  00196	e8 00 00 00 00	 call	 __ftol2_sse
  0019b	8b 8e 60 ea 0c
	00		 mov	 ecx, DWORD PTR [esi+846432]
  001a1	81 c1 46 33 00
	00		 add	 ecx, 13126		; 00003346H
  001a7	c1 e1 06	 shl	 ecx, 6
  001aa	89 04 31	 mov	 DWORD PTR [ecx+esi], eax

; 218  : 
; 219  : 		GetToken();

  001ad	e8 00 00 00 00	 call	 ?GetToken@@YA?AW4SMDToken@@XZ ; GetToken

; 220  : 		this->m_Drop[this->iDropLoaded].ItemDropRate		= TokenNumber;

  001b2	d9 05 00 00 00
	00		 fld	 DWORD PTR _TokenNumber
  001b8	e8 00 00 00 00	 call	 __ftol2_sse
  001bd	8b 96 60 ea 0c
	00		 mov	 edx, DWORD PTR [esi+846432]
  001c3	c1 e2 06	 shl	 edx, 6
  001c6	89 84 32 84 d1
	0c 00		 mov	 DWORD PTR [edx+esi+840068], eax

; 221  : 
; 222  : 		GetToken();

  001cd	e8 00 00 00 00	 call	 ?GetToken@@YA?AW4SMDToken@@XZ ; GetToken

; 223  : 		this->m_Drop[this->iDropLoaded].MonsterMinLevel		= TokenNumber;

  001d2	d9 05 00 00 00
	00		 fld	 DWORD PTR _TokenNumber
  001d8	e8 00 00 00 00	 call	 __ftol2_sse
  001dd	8b 8e 60 ea 0c
	00		 mov	 ecx, DWORD PTR [esi+846432]
  001e3	c1 e1 06	 shl	 ecx, 6
  001e6	89 84 31 88 d1
	0c 00		 mov	 DWORD PTR [ecx+esi+840072], eax

; 224  : 
; 225  : 		GetToken();

  001ed	e8 00 00 00 00	 call	 ?GetToken@@YA?AW4SMDToken@@XZ ; GetToken

; 226  : 		this->m_Drop[this->iDropLoaded].MonsterMaxLevel		= TokenNumber;

  001f2	d9 05 00 00 00
	00		 fld	 DWORD PTR _TokenNumber
  001f8	e8 00 00 00 00	 call	 __ftol2_sse
  001fd	8b 96 60 ea 0c
	00		 mov	 edx, DWORD PTR [esi+846432]
  00203	c1 e2 06	 shl	 edx, 6
  00206	89 84 32 8c d1
	0c 00		 mov	 DWORD PTR [edx+esi+840076], eax

; 227  : 
; 228  : 		GetToken();

  0020d	e8 00 00 00 00	 call	 ?GetToken@@YA?AW4SMDToken@@XZ ; GetToken

; 229  : 		this->m_Drop[this->iDropLoaded].MonsterMap			= TokenNumber;

  00212	d9 05 00 00 00
	00		 fld	 DWORD PTR _TokenNumber
  00218	e8 00 00 00 00	 call	 __ftol2_sse
  0021d	8b 8e 60 ea 0c
	00		 mov	 ecx, DWORD PTR [esi+846432]
  00223	c1 e1 06	 shl	 ecx, 6
  00226	89 84 31 90 d1
	0c 00		 mov	 DWORD PTR [ecx+esi+840080], eax
  0022d	e8 00 00 00 00	 call	 ?GetToken@@YA?AW4SMDToken@@XZ ; GetToken
  00232	83 f8 02	 cmp	 eax, 2
  00235	0f 85 15 fe ff
	ff		 jne	 $LL3@ReadDrop
$LN9@ReadDrop:

; 230  : 	}
; 231  : 	// ----
; 232  : 	fclose(SMDFile);

  0023b	8b 15 00 00 00
	00		 mov	 edx, DWORD PTR _SMDFile
  00241	52		 push	 edx
  00242	e8 00 00 00 00	 call	 _fclose

; 233  : 	LogAddTD("[ZtWinQuestSystem][ReadDrop] [%d] Item loaded from list", this->iDropLoaded);

  00247	8b 86 60 ea 0c
	00		 mov	 eax, DWORD PTR [esi+846432]
  0024d	50		 push	 eax
  0024e	68 00 00 00 00	 push	 OFFSET ??_C@_0DI@OBHHHGLO@?$FLZtWinQuestSystem?$FN?$FLReadDrop?$FN?5?$FL?$CFd@
  00253	ff 15 00 00 00
	00		 call	 DWORD PTR ?LogAddTD@@3P6AXPADZZA ; LogAddTD
  00259	83 c4 0c	 add	 esp, 12			; 0000000cH
  0025c	5f		 pop	 edi
  0025d	5e		 pop	 esi

; 234  : }

  0025e	5d		 pop	 ebp
  0025f	c2 04 00	 ret	 4
?ReadDrop@ZtWinQuestSystem@@QAEXPAD@Z ENDP		; ZtWinQuestSystem::ReadDrop
_TEXT	ENDS
PUBLIC	?GC_MiniInfoZt@ZtWinQuestSystem@@QAEXHHH@Z	; ZtWinQuestSystem::GC_MiniInfoZt
EXTRN	?DataSend@@YAHHPAEK@Z:PROC			; DataSend
EXTRN	?gObjIsConnectedZt@@YA_NH@Z:PROC		; gObjIsConnectedZt
; Function compile flags: /Ogtp
;	COMDAT ?GC_MiniInfoZt@ZtWinQuestSystem@@QAEXHHH@Z
_TEXT	SEGMENT
_ztSend$ = -8						; size = 6
_aIndex$ = 8						; size = 4
_a$ = 12						; size = 4
_m$ = 16						; size = 4
?GC_MiniInfoZt@ZtWinQuestSystem@@QAEXHHH@Z PROC		; ZtWinQuestSystem::GC_MiniInfoZt, COMDAT
; _this$ = ecx

; 450  : {

  00000	55		 push	 ebp
  00001	8b ec		 mov	 ebp, esp
  00003	83 ec 08	 sub	 esp, 8
  00006	56		 push	 esi

; 451  : 	if(!gObjIsConnectedZt(aIndex))

  00007	8b 75 08	 mov	 esi, DWORD PTR _aIndex$[ebp]
  0000a	56		 push	 esi
  0000b	e8 00 00 00 00	 call	 ?gObjIsConnectedZt@@YA_NH@Z ; gObjIsConnectedZt
  00010	83 c4 04	 add	 esp, 4
  00013	84 c0		 test	 al, al
  00015	74 2a		 je	 SHORT $LN2@GC_MiniInf

; 452  : 	{
; 453  : 		return;
; 454  : 	}
; 455  : 
; 456  : 	GC_ZtWinMiniInfoExt ztSend = { 0 };
; 457  : 	ztSend.h.set((LPBYTE)&ztSend, 0xFB, 0xC3, sizeof(ztSend));
; 458  : 
; 459  : 	ztSend.a = a;
; 460  : 	ztSend.m = m;

  00017	8a 4d 10	 mov	 cl, BYTE PTR _m$[ebp]
  0001a	33 c0		 xor	 eax, eax
  0001c	89 45 f9	 mov	 DWORD PTR _ztSend$[ebp+1], eax

; 461  : 
; 462  : 	DataSend(aIndex, (LPBYTE)&ztSend, ztSend.h.size);

  0001f	6a 06		 push	 6
  00021	8d 55 f8	 lea	 edx, DWORD PTR _ztSend$[ebp]
  00024	88 45 fd	 mov	 BYTE PTR _ztSend$[ebp+5], al
  00027	8a 45 0c	 mov	 al, BYTE PTR _a$[ebp]
  0002a	52		 push	 edx
  0002b	56		 push	 esi
  0002c	c7 45 f8 c1 06
	fb c3		 mov	 DWORD PTR _ztSend$[ebp], -1006958911 ; c3fb06c1H
  00033	88 45 fc	 mov	 BYTE PTR _ztSend$[ebp+4], al
  00036	88 4d fd	 mov	 BYTE PTR _ztSend$[ebp+5], cl
  00039	e8 00 00 00 00	 call	 ?DataSend@@YAHHPAEK@Z	; DataSend
  0003e	83 c4 0c	 add	 esp, 12			; 0000000cH
$LN2@GC_MiniInf:
  00041	5e		 pop	 esi

; 463  : }

  00042	8b e5		 mov	 esp, ebp
  00044	5d		 pop	 ebp
  00045	c2 0c 00	 ret	 12			; 0000000cH
?GC_MiniInfoZt@ZtWinQuestSystem@@QAEXHHH@Z ENDP		; ZtWinQuestSystem::GC_MiniInfoZt
_TEXT	ENDS
PUBLIC	?GC_Start@ZtWinQuestSystem@@QAEXHHH@Z		; ZtWinQuestSystem::GC_Start
; Function compile flags: /Ogtp
;	COMDAT ?GC_Start@ZtWinQuestSystem@@QAEXHHH@Z
_TEXT	SEGMENT
_pReq$ = -8						; size = 6
_aIndex$ = 8						; size = 4
_a$ = 12						; size = 4
_s$ = 16						; size = 4
?GC_Start@ZtWinQuestSystem@@QAEXHHH@Z PROC		; ZtWinQuestSystem::GC_Start, COMDAT
; _this$ = ecx

; 503  : {

  00000	55		 push	 ebp
  00001	8b ec		 mov	 ebp, esp
  00003	83 ec 08	 sub	 esp, 8

; 504  : 	GC_ZtWinStart pReq = { 0 };
; 505  : 	pReq.h.set((LPBYTE)&pReq, 0xFB, 0xC4, sizeof(pReq));
; 506  : 	pReq.Act = a;
; 507  : 	pReq.Start = s;

  00006	8a 4d 10	 mov	 cl, BYTE PTR _s$[ebp]
  00009	33 c0		 xor	 eax, eax
  0000b	89 45 f9	 mov	 DWORD PTR _pReq$[ebp+1], eax
  0000e	88 45 fd	 mov	 BYTE PTR _pReq$[ebp+5], al
  00011	8a 45 0c	 mov	 al, BYTE PTR _a$[ebp]

; 508  : 	DataSend(aIndex, (LPBYTE)&pReq, pReq.h.size);

  00014	6a 06		 push	 6
  00016	8d 55 f8	 lea	 edx, DWORD PTR _pReq$[ebp]
  00019	88 45 fc	 mov	 BYTE PTR _pReq$[ebp+4], al
  0001c	8b 45 08	 mov	 eax, DWORD PTR _aIndex$[ebp]
  0001f	52		 push	 edx
  00020	50		 push	 eax
  00021	c7 45 f8 c1 06
	fb c4		 mov	 DWORD PTR _pReq$[ebp], -990181695 ; c4fb06c1H
  00028	88 4d fd	 mov	 BYTE PTR _pReq$[ebp+5], cl
  0002b	e8 00 00 00 00	 call	 ?DataSend@@YAHHPAEK@Z	; DataSend
  00030	83 c4 0c	 add	 esp, 12			; 0000000cH

; 509  : 
; 510  : }

  00033	8b e5		 mov	 esp, ebp
  00035	5d		 pop	 ebp
  00036	c2 0c 00	 ret	 12			; 0000000cH
?GC_Start@ZtWinQuestSystem@@QAEXHHH@Z ENDP		; ZtWinQuestSystem::GC_Start
_TEXT	ENDS
PUBLIC	?PickUpItem@ZtWinQuestSystem@@QAEHHH@Z		; ZtWinQuestSystem::PickUpItem
EXTRN	?gObj@@3PAUOBJECTSTRUCT@@A:DWORD		; gObj
; Function compile flags: /Ogtp
;	COMDAT ?PickUpItem@ZtWinQuestSystem@@QAEHHH@Z
_TEXT	SEGMENT
tv429 = -20						; size = 4
tv378 = -16						; size = 4
tv455 = -12						; size = 4
tv364 = -8						; size = 4
_a$211168 = -4						; size = 4
_aIndex$ = 8						; size = 4
_ItemType$ = 12						; size = 4
?PickUpItem@ZtWinQuestSystem@@QAEHHH@Z PROC		; ZtWinQuestSystem::PickUpItem, COMDAT
; _this$ = ecx

; 593  : {

  00000	55		 push	 ebp
  00001	8b ec		 mov	 ebp, esp
  00003	83 ec 14	 sub	 esp, 20			; 00000014H

; 594  : 	if(!this->Enable)

  00006	80 39 00	 cmp	 BYTE PTR [ecx], 0
  00009	75 08		 jne	 SHORT $LN12@PickUpItem

; 595  : 	{
; 596  :  		return 0;

  0000b	33 c0		 xor	 eax, eax

; 629  : }

  0000d	8b e5		 mov	 esp, ebp
  0000f	5d		 pop	 ebp
  00010	c2 08 00	 ret	 8
$LN12@PickUpItem:
  00013	53		 push	 ebx

; 597  : 	}
; 598  : 
; 599  : 	int n = 0;
; 600  : 	LPOBJ lpUser = &gObj[aIndex];

  00014	8b 5d 08	 mov	 ebx, DWORD PTR _aIndex$[ebp]
  00017	69 db 50 2b 00
	00		 imul	 ebx, 11088		; 00002b50H
  0001d	03 1d 00 00 00
	00		 add	 ebx, DWORD PTR ?gObj@@3PAUOBJECTSTRUCT@@A ; gObj

; 601  : 
; 602  : 	for(int a = 0; a < EW_MAX_ACT; a++)

  00023	33 c0		 xor	 eax, eax
  00025	89 45 fc	 mov	 DWORD PTR _a$211168[ebp], eax
  00028	89 45 f0	 mov	 DWORD PTR tv378[ebp], eax
  0002b	8d 83 f0 2a 00
	00		 lea	 eax, DWORD PTR [ebx+10992]
  00031	56		 push	 esi
  00032	c7 45 ec 7b 15
	00 00		 mov	 DWORD PTR tv429[ebp], 5499 ; 0000157bH
  00039	89 45 f4	 mov	 DWORD PTR tv455[ebp], eax
  0003c	57		 push	 edi
  0003d	8d 49 00	 npad	 3
$LL24@PickUpItem:

; 603  : 	{
; 604  : 		n = lpUser->ZtWQuestNum[a];
; 605  : 
; 606  : 		if(lpUser->ZtWQuestStart[a] == TRUE)

  00040	8b 45 fc	 mov	 eax, DWORD PTR _a$211168[ebp]
  00043	80 bc 03 ec 2a
	00 00 01	 cmp	 BYTE PTR [ebx+eax+10988], 1
  0004b	8b 55 f4	 mov	 edx, DWORD PTR tv455[ebp]
  0004e	0f b7 12	 movzx	 edx, WORD PTR [edx]
  00051	75 5c		 jne	 SHORT $LN10@PickUpItem

; 607  : 		{
; 608  : 			for(int m = 0; m < EW_MAX_MISSION; m++)

  00053	03 55 f0	 add	 edx, DWORD PTR tv378[ebp]
  00056	33 c0		 xor	 eax, eax
  00058	6b d2 46	 imul	 edx, 70			; 00000046H
  0005b	8d 74 91 3c	 lea	 esi, DWORD PTR [ecx+edx*4+60]
  0005f	89 75 f8	 mov	 DWORD PTR tv364[ebp], esi
$LL7@PickUpItem:

; 609  : 			{
; 610  : 				if( this->ewdata[a][n].MissionType[m] == Droping && 
; 611  : 					ITEMGET(this->ewdata[a][n].MissionID[m], this->ewdata[a][n].MissionIndex[m]) == ItemType )

  00062	8b 75 f8	 mov	 esi, DWORD PTR tv364[ebp]
  00065	83 3e 02	 cmp	 DWORD PTR [esi], 2
  00068	75 3b		 jne	 SHORT $LN6@PickUpItem
  0006a	8d 34 02	 lea	 esi, DWORD PTR [edx+eax]
  0006d	8b 74 b1 50	 mov	 esi, DWORD PTR [ecx+esi*4+80]
  00071	c1 e6 09	 shl	 esi, 9
  00074	8d 3c 02	 lea	 edi, DWORD PTR [edx+eax]
  00077	03 74 b9 64	 add	 esi, DWORD PTR [ecx+edi*4+100]
  0007b	3b 75 0c	 cmp	 esi, DWORD PTR _ItemType$[ebp]
  0007e	75 25		 jne	 SHORT $LN6@PickUpItem

; 612  : 				{
; 613  : 					if(this->ewdata[a][n].MissionCount[m] > lpUser->ZtWQuestCount[a][m])

  00080	8b 75 ec	 mov	 esi, DWORD PTR tv429[ebp]
  00083	03 f0		 add	 esi, eax
  00085	0f b7 34 73	 movzx	 esi, WORD PTR [ebx+esi*2]
  00089	8d 3c 02	 lea	 edi, DWORD PTR [edx+eax]
  0008c	8b bc b9 c8 00
	00 00		 mov	 edi, DWORD PTR [ecx+edi*4+200]
  00093	3b f7		 cmp	 esi, edi
  00095	7c 45		 jl	 SHORT $LN17@PickUpItem

; 618  : 					}
; 619  : 					else if(lpUser->ZtWQuestCount[a][m] >= this->ewdata[a][n].MissionCount[m])
; 620  : 					{
; 621  : 						return 2;

  00097	5f		 pop	 edi
  00098	5e		 pop	 esi
  00099	b8 02 00 00 00	 mov	 eax, 2
  0009e	5b		 pop	 ebx

; 629  : }

  0009f	8b e5		 mov	 esp, ebp
  000a1	5d		 pop	 ebp
  000a2	c2 08 00	 ret	 8
$LN6@PickUpItem:

; 607  : 		{
; 608  : 			for(int m = 0; m < EW_MAX_MISSION; m++)

  000a5	83 45 f8 04	 add	 DWORD PTR tv364[ebp], 4
  000a9	40		 inc	 eax
  000aa	83 f8 05	 cmp	 eax, 5
  000ad	7c b3		 jl	 SHORT $LL7@PickUpItem
$LN10@PickUpItem:

; 601  : 
; 602  : 	for(int a = 0; a < EW_MAX_ACT; a++)

  000af	8b 45 ec	 mov	 eax, DWORD PTR tv429[ebp]
  000b2	ff 45 fc	 inc	 DWORD PTR _a$211168[ebp]
  000b5	83 45 f4 02	 add	 DWORD PTR tv455[ebp], 2
  000b9	81 45 f0 e8 03
	00 00		 add	 DWORD PTR tv378[ebp], 1000 ; 000003e8H
  000c0	83 c0 05	 add	 eax, 5
  000c3	89 45 ec	 mov	 DWORD PTR tv429[ebp], eax
  000c6	3d 8a 15 00 00	 cmp	 eax, 5514		; 0000158aH
  000cb	0f 8c 6f ff ff
	ff		 jl	 $LL24@PickUpItem

; 622  : 					}
; 623  : 				}
; 624  : 			}
; 625  : 		}
; 626  : 	}
; 627  : 
; 628  : 	return 0;

  000d1	5f		 pop	 edi
  000d2	5e		 pop	 esi
  000d3	33 c0		 xor	 eax, eax
  000d5	5b		 pop	 ebx

; 629  : }

  000d6	8b e5		 mov	 esp, ebp
  000d8	5d		 pop	 ebp
  000d9	c2 08 00	 ret	 8
$LN17@PickUpItem:

; 614  : 					{
; 615  : 						lpUser->ZtWQuestCount[a][m]++;

  000dc	8b 55 fc	 mov	 edx, DWORD PTR _a$211168[ebp]
  000df	8d 34 90	 lea	 esi, DWORD PTR [eax+edx*4]

; 616  : 						this->GC_MiniInfoZt(aIndex, a, m);

  000e2	50		 push	 eax
  000e3	03 f2		 add	 esi, edx
  000e5	66 ff 84 73 f6
	2a 00 00	 inc	 WORD PTR [ebx+esi*2+10998]
  000ed	52		 push	 edx
  000ee	8b 55 08	 mov	 edx, DWORD PTR _aIndex$[ebp]
  000f1	8d 9c 73 f6 2a
	00 00		 lea	 ebx, DWORD PTR [ebx+esi*2+10998]
  000f8	52		 push	 edx
  000f9	e8 00 00 00 00	 call	 ?GC_MiniInfoZt@ZtWinQuestSystem@@QAEXHHH@Z ; ZtWinQuestSystem::GC_MiniInfoZt
  000fe	5f		 pop	 edi
  000ff	5e		 pop	 esi

; 617  : 						return 1;

  00100	b8 01 00 00 00	 mov	 eax, 1
  00105	5b		 pop	 ebx

; 629  : }

  00106	8b e5		 mov	 esp, ebp
  00108	5d		 pop	 ebp
  00109	c2 08 00	 ret	 8
?PickUpItem@ZtWinQuestSystem@@QAEHHH@Z ENDP		; ZtWinQuestSystem::PickUpItem
_TEXT	ENDS
PUBLIC	?SearchItem@ZtWinQuestSystem@@QAE_NHHH@Z	; ZtWinQuestSystem::SearchItem
EXTRN	?CheckOptionItem@@YA_NHHH@Z:PROC		; CheckOptionItem
; Function compile flags: /Ogtp
;	COMDAT ?SearchItem@ZtWinQuestSystem@@QAE_NHHH@Z
_TEXT	SEGMENT
_iExl$ = -4						; size = 2
_iLevel$ = 8						; size = 2
_aIndex$ = 8						; size = 4
_iLuck$ = 12						; size = 2
_a$ = 12						; size = 4
_iOpt$ = 16						; size = 2
_m$ = 16						; size = 4
?SearchItem@ZtWinQuestSystem@@QAE_NHHH@Z PROC		; ZtWinQuestSystem::SearchItem, COMDAT
; _this$ = ecx

; 633  : {

  00000	55		 push	 ebp
  00001	8b ec		 mov	 ebp, esp
  00003	51		 push	 ecx

; 634  : 	LPOBJ lpUser = &gObj[aIndex];
; 635  : 
; 636  : 	int n = lpUser->ZtWQuestNum[a];

  00004	8b 45 0c	 mov	 eax, DWORD PTR _a$[ebp]
  00007	53		 push	 ebx
  00008	56		 push	 esi
  00009	8b 75 08	 mov	 esi, DWORD PTR _aIndex$[ebp]
  0000c	69 f6 50 2b 00
	00		 imul	 esi, 11088		; 00002b50H
  00012	03 35 00 00 00
	00		 add	 esi, DWORD PTR ?gObj@@3PAUOBJECTSTRUCT@@A ; gObj
  00018	57		 push	 edi
  00019	0f b7 94 46 f0
	2a 00 00	 movzx	 edx, WORD PTR [esi+eax*2+10992]

; 637  : 
; 638  : 	short iType = ITEMGET(this->ewdata[a][n].MissionID[m], this->ewdata[a][n].MissionIndex[m]);

  00021	69 c0 e8 03 00
	00		 imul	 eax, 1000		; 000003e8H
  00027	03 c2		 add	 eax, edx
  00029	6b c0 46	 imul	 eax, 70			; 00000046H
  0002c	03 45 10	 add	 eax, DWORD PTR _m$[ebp]
  0002f	ba 00 02 00 00	 mov	 edx, 512		; 00000200H
  00034	66 0f af 54 81
	50		 imul	 dx, WORD PTR [ecx+eax*4+80]
  0003a	66 03 54 81 64	 add	 dx, WORD PTR [ecx+eax*4+100]
  0003f	bf f0 09 00 00	 mov	 edi, 2544		; 000009f0H
  00044	0f b7 da	 movzx	 ebx, dx

; 639  : 	short iLevel = this->ewdata[a][n].MissionLevel[m];

  00047	0f b7 54 81 78	 movzx	 edx, WORD PTR [ecx+eax*4+120]
  0004c	89 55 08	 mov	 DWORD PTR _iLevel$[ebp], edx

; 640  : 	short iLuck = this->ewdata[a][n].MissionLuck[m];

  0004f	0f b7 94 81 8c
	00 00 00	 movzx	 edx, WORD PTR [ecx+eax*4+140]
  00057	89 55 0c	 mov	 DWORD PTR _iLuck$[ebp], edx

; 641  : 	short iOpt =  this->ewdata[a][n].MissionOpt[m];

  0005a	0f b7 94 81 a0
	00 00 00	 movzx	 edx, WORD PTR [ecx+eax*4+160]

; 642  : 	short iExl = this->ewdata[a][n].MissionExl[m];

  00062	0f b7 84 81 b4
	00 00 00	 movzx	 eax, WORD PTR [ecx+eax*4+180]
  0006a	89 55 10	 mov	 DWORD PTR _iOpt$[ebp], edx
  0006d	89 45 fc	 mov	 DWORD PTR _iExl$[ebp], eax
$LL11@SearchItem:

; 645  : 	{
; 646  : 		if( lpUser->pInventory[i].m_Type == iType && 
; 647  : 			lpUser->pInventory[i].m_Level >= iLevel &&
; 648  : 			CheckOptionItem(lpUser->pInventory[i].m_Option2, iLuck, FALSE) &&
; 649  : 			CheckOptionItem(lpUser->pInventory[i].m_Option3, iOpt, FALSE) &&
; 650  : 			CheckOptionItem(lpUser->pInventory[i].m_NewOption, iExl, FALSE) )

  00070	8b 8e 24 0e 00
	00		 mov	 ecx, DWORD PTR [esi+3620]
  00076	66 39 5c 0f 06	 cmp	 WORD PTR [edi+ecx+6], bx
  0007b	8d 04 0f	 lea	 eax, DWORD PTR [edi+ecx]
  0007e	75 69		 jne	 SHORT $LN3@SearchItem
  00080	66 8b 55 08	 mov	 dx, WORD PTR _iLevel$[ebp]
  00084	66 39 50 08	 cmp	 WORD PTR [eax+8], dx
  00088	7c 5f		 jl	 SHORT $LN3@SearchItem
  0008a	0f bf 4d 0c	 movsx	 ecx, WORD PTR _iLuck$[ebp]
  0008e	0f b6 90 95 00
	00 00		 movzx	 edx, BYTE PTR [eax+149]
  00095	6a 00		 push	 0
  00097	51		 push	 ecx
  00098	52		 push	 edx
  00099	e8 00 00 00 00	 call	 ?CheckOptionItem@@YA_NHHH@Z ; CheckOptionItem
  0009e	83 c4 0c	 add	 esp, 12			; 0000000cH
  000a1	84 c0		 test	 al, al
  000a3	74 44		 je	 SHORT $LN3@SearchItem
  000a5	0f bf 45 10	 movsx	 eax, WORD PTR _iOpt$[ebp]
  000a9	8b 8e 24 0e 00
	00		 mov	 ecx, DWORD PTR [esi+3620]
  000af	0f b6 94 0f 96
	00 00 00	 movzx	 edx, BYTE PTR [edi+ecx+150]
  000b7	6a 00		 push	 0
  000b9	50		 push	 eax
  000ba	52		 push	 edx
  000bb	e8 00 00 00 00	 call	 ?CheckOptionItem@@YA_NHHH@Z ; CheckOptionItem
  000c0	83 c4 0c	 add	 esp, 12			; 0000000cH
  000c3	84 c0		 test	 al, al
  000c5	74 22		 je	 SHORT $LN3@SearchItem
  000c7	0f bf 45 fc	 movsx	 eax, WORD PTR _iExl$[ebp]
  000cb	8b 8e 24 0e 00
	00		 mov	 ecx, DWORD PTR [esi+3620]
  000d1	0f b6 94 0f 97
	00 00 00	 movzx	 edx, BYTE PTR [edi+ecx+151]
  000d9	6a 00		 push	 0
  000db	50		 push	 eax
  000dc	52		 push	 edx
  000dd	e8 00 00 00 00	 call	 ?CheckOptionItem@@YA_NHHH@Z ; CheckOptionItem
  000e2	83 c4 0c	 add	 esp, 12			; 0000000cH
  000e5	84 c0		 test	 al, al
  000e7	75 1d		 jne	 SHORT $LN8@SearchItem
$LN3@SearchItem:

; 643  : 
; 644  : 	for (int i = INVETORY_WEAR_SIZE; i < INVENTORY_SIZE; i++)

  000e9	81 c7 d4 00 00
	00		 add	 edi, 212		; 000000d4H
  000ef	81 ff 70 c3 00
	00		 cmp	 edi, 50032		; 0000c370H
  000f5	0f 8c 75 ff ff
	ff		 jl	 $LL11@SearchItem

; 653  : 		}
; 654  : 	}
; 655  : 
; 656  : 	return false;

  000fb	5f		 pop	 edi
  000fc	5e		 pop	 esi
  000fd	32 c0		 xor	 al, al
  000ff	5b		 pop	 ebx

; 657  : }

  00100	8b e5		 mov	 esp, ebp
  00102	5d		 pop	 ebp
  00103	c2 0c 00	 ret	 12			; 0000000cH
$LN8@SearchItem:
  00106	5f		 pop	 edi
  00107	5e		 pop	 esi

; 651  : 		{
; 652  : 			return true;

  00108	b0 01		 mov	 al, 1
  0010a	5b		 pop	 ebx

; 657  : }

  0010b	8b e5		 mov	 esp, ebp
  0010d	5d		 pop	 ebp
  0010e	c2 0c 00	 ret	 12			; 0000000cH
?SearchItem@ZtWinQuestSystem@@QAE_NHHH@Z ENDP		; ZtWinQuestSystem::SearchItem
_TEXT	ENDS
PUBLIC	?DeleteItem@ZtWinQuestSystem@@QAEXHHH@Z		; ZtWinQuestSystem::DeleteItem
EXTRN	?GCInventoryItemDeleteSend@@YAXHEE@Z:PROC	; GCInventoryItemDeleteSend
EXTRN	?gObjInventoryDeleteItem@@YAEHH@Z:PROC		; gObjInventoryDeleteItem
; Function compile flags: /Ogtp
;	COMDAT ?DeleteItem@ZtWinQuestSystem@@QAEXHHH@Z
_TEXT	SEGMENT
_iExl$ = -12						; size = 2
_iOpt$ = -8						; size = 2
_iLuck$ = -4						; size = 2
_aIndex$ = 8						; size = 4
_iType$ = 12						; size = 2
_a$ = 12						; size = 4
_iLevel$ = 16						; size = 2
_m$ = 16						; size = 4
?DeleteItem@ZtWinQuestSystem@@QAEXHHH@Z PROC		; ZtWinQuestSystem::DeleteItem, COMDAT
; _this$ = ecx

; 661  : {

  00000	55		 push	 ebp
  00001	8b ec		 mov	 ebp, esp
  00003	83 ec 0c	 sub	 esp, 12			; 0000000cH

; 662  : 	LPOBJ lpUser = &gObj[aIndex];
; 663  : 
; 664  : 	int n = lpUser->ZtWQuestNum[a];

  00006	8b 45 0c	 mov	 eax, DWORD PTR _a$[ebp]
  00009	53		 push	 ebx
  0000a	56		 push	 esi
  0000b	8b 75 08	 mov	 esi, DWORD PTR _aIndex$[ebp]
  0000e	69 f6 50 2b 00
	00		 imul	 esi, 11088		; 00002b50H
  00014	03 35 00 00 00
	00		 add	 esi, DWORD PTR ?gObj@@3PAUOBJECTSTRUCT@@A ; gObj
  0001a	57		 push	 edi
  0001b	0f b7 94 46 f0
	2a 00 00	 movzx	 edx, WORD PTR [esi+eax*2+10992]

; 665  : 
; 666  : 	short iType = ITEMGET(this->ewdata[a][n].MissionID[m], this->ewdata[a][n].MissionIndex[m]);

  00023	69 c0 e8 03 00
	00		 imul	 eax, 1000		; 000003e8H
  00029	03 c2		 add	 eax, edx
  0002b	6b c0 46	 imul	 eax, 70			; 00000046H
  0002e	03 45 10	 add	 eax, DWORD PTR _m$[ebp]
  00031	ba 00 02 00 00	 mov	 edx, 512		; 00000200H
  00036	66 0f af 54 81
	50		 imul	 dx, WORD PTR [ecx+eax*4+80]
  0003c	66 03 54 81 64	 add	 dx, WORD PTR [ecx+eax*4+100]

; 667  : 	short iLevel = this->ewdata[a][n].MissionLevel[m];
; 668  : 	short iLuck = this->ewdata[a][n].MissionLuck[m];
; 669  : 	short iOpt =  this->ewdata[a][n].MissionOpt[m];
; 670  : 	short iExl = this->ewdata[a][n].MissionExl[m];
; 671  : 
; 672  : 	for (int i = INVETORY_WEAR_SIZE; i < INVENTORY_SIZE; i++)

  00041	bb 0c 00 00 00	 mov	 ebx, 12			; 0000000cH
  00046	0f b7 d2	 movzx	 edx, dx
  00049	89 55 0c	 mov	 DWORD PTR _iType$[ebp], edx
  0004c	0f b7 54 81 78	 movzx	 edx, WORD PTR [ecx+eax*4+120]
  00051	89 55 10	 mov	 DWORD PTR _iLevel$[ebp], edx
  00054	0f b7 94 81 8c
	00 00 00	 movzx	 edx, WORD PTR [ecx+eax*4+140]
  0005c	89 55 fc	 mov	 DWORD PTR _iLuck$[ebp], edx
  0005f	0f b7 94 81 a0
	00 00 00	 movzx	 edx, WORD PTR [ecx+eax*4+160]
  00067	0f b7 84 81 b4
	00 00 00	 movzx	 eax, WORD PTR [ecx+eax*4+180]
  0006f	89 55 f8	 mov	 DWORD PTR _iOpt$[ebp], edx
  00072	89 45 f4	 mov	 DWORD PTR _iExl$[ebp], eax
  00075	bf f0 09 00 00	 mov	 edi, 2544		; 000009f0H
  0007a	8d 9b 00 00 00
	00		 npad	 6
$LL10@DeleteItem:

; 673  : 	{
; 674  : 		if( lpUser->pInventory[i].m_Type == iType && 
; 675  : 			lpUser->pInventory[i].m_Level >= iLevel &&
; 676  : 			CheckOptionItem(lpUser->pInventory[i].m_Option2, iLuck, FALSE) &&
; 677  : 			CheckOptionItem(lpUser->pInventory[i].m_Option3, iOpt, FALSE) &&
; 678  : 			CheckOptionItem(lpUser->pInventory[i].m_NewOption, iExl, FALSE) )

  00080	8b 8e 24 0e 00
	00		 mov	 ecx, DWORD PTR [esi+3620]
  00086	66 8b 55 0c	 mov	 dx, WORD PTR _iType$[ebp]
  0008a	66 39 54 0f 06	 cmp	 WORD PTR [edi+ecx+6], dx
  0008f	8d 04 0f	 lea	 eax, DWORD PTR [edi+ecx]
  00092	0f 85 82 00 00
	00		 jne	 $LN3@DeleteItem
  00098	66 8b 4d 10	 mov	 cx, WORD PTR _iLevel$[ebp]
  0009c	66 39 48 08	 cmp	 WORD PTR [eax+8], cx
  000a0	7c 78		 jl	 SHORT $LN3@DeleteItem
  000a2	0f bf 55 fc	 movsx	 edx, WORD PTR _iLuck$[ebp]
  000a6	0f b6 80 95 00
	00 00		 movzx	 eax, BYTE PTR [eax+149]
  000ad	6a 00		 push	 0
  000af	52		 push	 edx
  000b0	50		 push	 eax
  000b1	e8 00 00 00 00	 call	 ?CheckOptionItem@@YA_NHHH@Z ; CheckOptionItem
  000b6	83 c4 0c	 add	 esp, 12			; 0000000cH
  000b9	84 c0		 test	 al, al
  000bb	74 5d		 je	 SHORT $LN3@DeleteItem
  000bd	0f bf 4d f8	 movsx	 ecx, WORD PTR _iOpt$[ebp]
  000c1	8b 96 24 0e 00
	00		 mov	 edx, DWORD PTR [esi+3620]
  000c7	0f b6 84 17 96
	00 00 00	 movzx	 eax, BYTE PTR [edi+edx+150]
  000cf	6a 00		 push	 0
  000d1	51		 push	 ecx
  000d2	50		 push	 eax
  000d3	e8 00 00 00 00	 call	 ?CheckOptionItem@@YA_NHHH@Z ; CheckOptionItem
  000d8	83 c4 0c	 add	 esp, 12			; 0000000cH
  000db	84 c0		 test	 al, al
  000dd	74 3b		 je	 SHORT $LN3@DeleteItem
  000df	0f bf 4d f4	 movsx	 ecx, WORD PTR _iExl$[ebp]
  000e3	8b 96 24 0e 00
	00		 mov	 edx, DWORD PTR [esi+3620]
  000e9	0f b6 84 17 97
	00 00 00	 movzx	 eax, BYTE PTR [edi+edx+151]
  000f1	6a 00		 push	 0
  000f3	51		 push	 ecx
  000f4	50		 push	 eax
  000f5	e8 00 00 00 00	 call	 ?CheckOptionItem@@YA_NHHH@Z ; CheckOptionItem
  000fa	83 c4 0c	 add	 esp, 12			; 0000000cH
  000fd	84 c0		 test	 al, al
  000ff	74 19		 je	 SHORT $LN3@DeleteItem

; 679  : 		{
; 680  : 			gObjInventoryDeleteItem(aIndex, i);

  00101	8b 4d 08	 mov	 ecx, DWORD PTR _aIndex$[ebp]
  00104	53		 push	 ebx
  00105	51		 push	 ecx
  00106	e8 00 00 00 00	 call	 ?gObjInventoryDeleteItem@@YAEHH@Z ; gObjInventoryDeleteItem

; 681  : 			GCInventoryItemDeleteSend(aIndex, i, 1);

  0010b	8b 55 08	 mov	 edx, DWORD PTR _aIndex$[ebp]
  0010e	6a 01		 push	 1
  00110	53		 push	 ebx
  00111	52		 push	 edx
  00112	e8 00 00 00 00	 call	 ?GCInventoryItemDeleteSend@@YAXHEE@Z ; GCInventoryItemDeleteSend
  00117	83 c4 14	 add	 esp, 20			; 00000014H
$LN3@DeleteItem:

; 667  : 	short iLevel = this->ewdata[a][n].MissionLevel[m];
; 668  : 	short iLuck = this->ewdata[a][n].MissionLuck[m];
; 669  : 	short iOpt =  this->ewdata[a][n].MissionOpt[m];
; 670  : 	short iExl = this->ewdata[a][n].MissionExl[m];
; 671  : 
; 672  : 	for (int i = INVETORY_WEAR_SIZE; i < INVENTORY_SIZE; i++)

  0011a	81 c7 d4 00 00
	00		 add	 edi, 212		; 000000d4H
  00120	43		 inc	 ebx
  00121	81 ff 70 c3 00
	00		 cmp	 edi, 50032		; 0000c370H
  00127	0f 8c 53 ff ff
	ff		 jl	 $LL10@DeleteItem
  0012d	5f		 pop	 edi
  0012e	5e		 pop	 esi
  0012f	5b		 pop	 ebx

; 682  : 		}
; 683  : 	}
; 684  : }

  00130	8b e5		 mov	 esp, ebp
  00132	5d		 pop	 ebp
  00133	c2 0c 00	 ret	 12			; 0000000cH
?DeleteItem@ZtWinQuestSystem@@QAEXHHH@Z ENDP		; ZtWinQuestSystem::DeleteItem
_TEXT	ENDS
PUBLIC	?CheckMission@ZtWinQuestSystem@@QAE_NHH@Z	; ZtWinQuestSystem::CheckMission
; Function compile flags: /Ogtp
;	COMDAT ?CheckMission@ZtWinQuestSystem@@QAE_NHH@Z
_TEXT	SEGMENT
_this$ = -8						; size = 4
tv267 = -4						; size = 4
_aIndex$ = 8						; size = 4
_a$ = 12						; size = 4
?CheckMission@ZtWinQuestSystem@@QAE_NHH@Z PROC		; ZtWinQuestSystem::CheckMission, COMDAT
; _this$ = ecx

; 688  : {

  00000	55		 push	 ebp
  00001	8b ec		 mov	 ebp, esp
  00003	83 ec 08	 sub	 esp, 8

; 689  : 	LPOBJ lpUser = &gObj[aIndex];
; 690  : 
; 691  : 	int n = lpUser->ZtWQuestNum[a];

  00006	8b 45 0c	 mov	 eax, DWORD PTR _a$[ebp]
  00009	53		 push	 ebx
  0000a	8b 5d 08	 mov	 ebx, DWORD PTR _aIndex$[ebp]
  0000d	69 db 50 2b 00
	00		 imul	 ebx, 11088		; 00002b50H
  00013	03 1d 00 00 00
	00		 add	 ebx, DWORD PTR ?gObj@@3PAUOBJECTSTRUCT@@A ; gObj
  00019	56		 push	 esi
  0001a	0f b7 94 43 f0
	2a 00 00	 movzx	 edx, WORD PTR [ebx+eax*2+10992]

; 692  : 
; 693  : 	for(int m = 0; m < EW_MAX_MISSION; m++)

  00022	8b f0		 mov	 esi, eax
  00024	69 f6 e8 03 00
	00		 imul	 esi, 1000		; 000003e8H
  0002a	03 f2		 add	 esi, edx
  0002c	57		 push	 edi
  0002d	33 ff		 xor	 edi, edi
  0002f	6b f6 46	 imul	 esi, 70			; 00000046H
  00032	8d 54 b1 3c	 lea	 edx, DWORD PTR [ecx+esi*4+60]
  00036	89 4d f8	 mov	 DWORD PTR _this$[ebp], ecx
  00039	89 55 fc	 mov	 DWORD PTR tv267[ebp], edx
  0003c	8d 64 24 00	 npad	 4
$LL9@CheckMissi:

; 694  : 	{
; 695  : 		if(this->ewdata[a][n].MissionType[m] == Hunting || this->ewdata[a][n].MissionType[m] == Droping)

  00040	8b 55 fc	 mov	 edx, DWORD PTR tv267[ebp]
  00043	8b 12		 mov	 edx, DWORD PTR [edx]
  00045	83 fa 01	 cmp	 edx, 1
  00048	74 1e		 je	 SHORT $LN5@CheckMissi
  0004a	83 fa 02	 cmp	 edx, 2
  0004d	74 19		 je	 SHORT $LN5@CheckMissi

; 700  : 			}
; 701  : 		}
; 702  : 		else if(this->ewdata[a][n].MissionType[m] == Searching)

  0004f	83 fa 03	 cmp	 edx, 3
  00052	75 30		 jne	 SHORT $LN8@CheckMissi

; 703  : 		{
; 704  : 			if(!this->SearchItem(aIndex, a, m))

  00054	57		 push	 edi
  00055	50		 push	 eax
  00056	8b 45 08	 mov	 eax, DWORD PTR _aIndex$[ebp]
  00059	50		 push	 eax
  0005a	e8 00 00 00 00	 call	 ?SearchItem@ZtWinQuestSystem@@QAE_NHHH@Z ; ZtWinQuestSystem::SearchItem
  0005f	84 c0		 test	 al, al
  00061	74 36		 je	 SHORT $LN14@CheckMissi
  00063	8b 4d f8	 mov	 ecx, DWORD PTR _this$[ebp]
  00066	eb 19		 jmp	 SHORT $LN17@CheckMissi
$LN5@CheckMissi:

; 696  : 		{
; 697  : 			if(this->ewdata[a][n].MissionCount[m] > lpUser->ZtWQuestCount[a][m])

  00068	8d 14 87	 lea	 edx, DWORD PTR [edi+eax*4]
  0006b	03 d0		 add	 edx, eax
  0006d	0f b7 84 53 f6
	2a 00 00	 movzx	 eax, WORD PTR [ebx+edx*2+10998]
  00075	8d 14 3e	 lea	 edx, DWORD PTR [esi+edi]
  00078	39 84 91 c8 00
	00 00		 cmp	 DWORD PTR [ecx+edx*4+200], eax
  0007f	7f 18		 jg	 SHORT $LN14@CheckMissi
$LN17@CheckMissi:
  00081	8b 45 0c	 mov	 eax, DWORD PTR _a$[ebp]
$LN8@CheckMissi:

; 692  : 
; 693  : 	for(int m = 0; m < EW_MAX_MISSION; m++)

  00084	83 45 fc 04	 add	 DWORD PTR tv267[ebp], 4
  00088	47		 inc	 edi
  00089	83 ff 05	 cmp	 edi, 5
  0008c	7c b2		 jl	 SHORT $LL9@CheckMissi

; 705  : 			{
; 706  : 				return false;
; 707  : 			}
; 708  : 		}
; 709  : 	}
; 710  : 
; 711  : 	return true;

  0008e	5f		 pop	 edi
  0008f	5e		 pop	 esi
  00090	b0 01		 mov	 al, 1
  00092	5b		 pop	 ebx

; 712  : }

  00093	8b e5		 mov	 esp, ebp
  00095	5d		 pop	 ebp
  00096	c2 08 00	 ret	 8
$LN14@CheckMissi:
  00099	5f		 pop	 edi
  0009a	5e		 pop	 esi

; 698  : 			{
; 699  : 				return false;

  0009b	32 c0		 xor	 al, al
  0009d	5b		 pop	 ebx

; 712  : }

  0009e	8b e5		 mov	 esp, ebp
  000a0	5d		 pop	 ebp
  000a1	c2 08 00	 ret	 8
?CheckMission@ZtWinQuestSystem@@QAE_NHH@Z ENDP		; ZtWinQuestSystem::CheckMission
_TEXT	ENDS
PUBLIC	?NewDrop@ZtWinQuestSystem@@QAE_NHH@Z		; ZtWinQuestSystem::NewDrop
EXTRN	?ItemSerialCreateSend@@YAXHEEEHEEEEEHEE@Z:PROC	; ItemSerialCreateSend
EXTRN	?gObjMonsterTopHitDamageUser@@YAHPAUOBJECTSTRUCT@@@Z:PROC ; gObjMonsterTopHitDamageUser
EXTRN	_rand:PROC
; Function compile flags: /Ogtp
;	COMDAT ?NewDrop@ZtWinQuestSystem@@QAE_NHH@Z
_TEXT	SEGMENT
_lpUser$ = -16						; size = 4
_iLuck$211313 = -12					; size = 4
_iSkill$211314 = -8					; size = 4
_this$ = -4						; size = 4
tv389 = 8						; size = 4
_iLevel$211316 = 8					; size = 4
_aIndexMob$ = 8						; size = 4
_i$211301 = 12						; size = 4
_aIndexUser$ = 12					; size = 4
?NewDrop@ZtWinQuestSystem@@QAE_NHH@Z PROC		; ZtWinQuestSystem::NewDrop, COMDAT
; _this$ = ecx

; 855  : {

  00000	55		 push	 ebp
  00001	8b ec		 mov	 ebp, esp
  00003	83 ec 10	 sub	 esp, 16			; 00000010H

; 856  : 	LPOBJ lpUser = &gObj[aIndexUser];

  00006	a1 00 00 00 00	 mov	 eax, DWORD PTR ?gObj@@3PAUOBJECTSTRUCT@@A ; gObj
  0000b	53		 push	 ebx
  0000c	8b 5d 0c	 mov	 ebx, DWORD PTR _aIndexUser$[ebp]
  0000f	57		 push	 edi
  00010	69 db 50 2b 00
	00		 imul	 ebx, 11088		; 00002b50H

; 857  : 	LPOBJ lpMonster = &gObj[aIndexMob];

  00016	8b 7d 08	 mov	 edi, DWORD PTR _aIndexMob$[ebp]
  00019	69 ff 50 2b 00
	00		 imul	 edi, 11088		; 00002b50H
  0001f	03 d8		 add	 ebx, eax
  00021	03 f8		 add	 edi, eax

; 858  : 
; 859  : 	switch(lpMonster->Class)

  00023	0f b7 87 b8 00
	00 00		 movzx	 eax, WORD PTR [edi+184]
  0002a	89 4d fc	 mov	 DWORD PTR _this$[ebp], ecx
  0002d	89 5d f0	 mov	 DWORD PTR _lpUser$[ebp], ebx
  00030	83 f8 52	 cmp	 eax, 82			; 00000052H
  00033	0f 8f a1 00 00
	00		 jg	 $LN24@NewDrop
  00039	0f 84 a9 00 00
	00		 je	 $LN19@NewDrop
  0003f	83 f8 35	 cmp	 eax, 53			; 00000035H
  00042	0f 84 a0 00 00
	00		 je	 $LN19@NewDrop
  00048	83 f8 4d	 cmp	 eax, 77			; 0000004dH
  0004b	7e 09		 jle	 SHORT $LN20@NewDrop
  0004d	83 f8 50	 cmp	 eax, 80			; 00000050H
  00050	0f 8e 92 00 00
	00		 jle	 $LN19@NewDrop
$LN20@NewDrop:

; 878  : 		}
; 879  : 		break;
; 880  : 	}
; 881  : 
; 882  : 	for( int i = 0; i < this->iDropLoaded; i++ )

  00056	83 b9 60 ea 0c
	00 00		 cmp	 DWORD PTR [ecx+846432], 0
  0005d	56		 push	 esi
  0005e	c7 45 0c 00 00
	00 00		 mov	 DWORD PTR _i$211301[ebp], 0
  00065	7e 68		 jle	 SHORT $LN16@NewDrop
  00067	8d b1 58 d1 0c
	00		 lea	 esi, DWORD PTR [ecx+840024]
  0006d	8d 49 00	 npad	 3
$LL18@NewDrop:

; 883  : 	{
; 884  : 		int a = this->m_Drop[i].iAct;

  00070	8b 46 fc	 mov	 eax, DWORD PTR [esi-4]

; 885  : 
; 886  : 		if(a < 0 || a >= EW_MAX_ACT)

  00073	83 f8 02	 cmp	 eax, 2
  00076	77 45		 ja	 SHORT $LN17@NewDrop

; 887  : 		{
; 888  : 			continue;
; 889  : 		}
; 890  : 
; 891  : 		if(lpUser->ZtWQuestNum[a] >= this->m_Drop[i].iNeedQuest)

  00078	0f b7 84 43 f0
	2a 00 00	 movzx	 eax, WORD PTR [ebx+eax*2+10992]
  00080	3b 06		 cmp	 eax, DWORD PTR [esi]
  00082	7c 39		 jl	 SHORT $LN17@NewDrop

; 892  : 		{
; 893  : 			if( lpMonster->Level >= this->m_Drop[i].MonsterMinLevel && lpMonster->Level <= this->m_Drop[i].MonsterMaxLevel )

  00084	0f bf 87 be 00
	00 00		 movsx	 eax, WORD PTR [edi+190]
  0008b	3b 46 30	 cmp	 eax, DWORD PTR [esi+48]
  0008e	7c 2d		 jl	 SHORT $LN17@NewDrop
  00090	3b 46 34	 cmp	 eax, DWORD PTR [esi+52]
  00093	7f 28		 jg	 SHORT $LN17@NewDrop

; 894  : 			{
; 895  : 				if( lpMonster->MapNumber == this->m_Drop[i].MonsterMap || this->m_Drop[i].MonsterMap == -1 )

  00095	0f b6 97 49 01
	00 00		 movzx	 edx, BYTE PTR [edi+329]
  0009c	8b 46 38	 mov	 eax, DWORD PTR [esi+56]
  0009f	3b d0		 cmp	 edx, eax
  000a1	74 05		 je	 SHORT $LN10@NewDrop
  000a3	83 f8 ff	 cmp	 eax, -1
  000a6	75 15		 jne	 SHORT $LN17@NewDrop
$LN10@NewDrop:

; 896  : 				{
; 897  : 					if( rand() % 10000 < this->m_Drop[i].ItemDropRate )

  000a8	e8 00 00 00 00	 call	 _rand
  000ad	99		 cdq
  000ae	b9 10 27 00 00	 mov	 ecx, 10000		; 00002710H
  000b3	f7 f9		 idiv	 ecx
  000b5	3b 56 2c	 cmp	 edx, DWORD PTR [esi+44]
  000b8	7c 38		 jl	 SHORT $LN26@NewDrop
  000ba	8b 4d fc	 mov	 ecx, DWORD PTR _this$[ebp]
$LN17@NewDrop:

; 878  : 		}
; 879  : 		break;
; 880  : 	}
; 881  : 
; 882  : 	for( int i = 0; i < this->iDropLoaded; i++ )

  000bd	8b 45 0c	 mov	 eax, DWORD PTR _i$211301[ebp]
  000c0	40		 inc	 eax
  000c1	83 c6 40	 add	 esi, 64			; 00000040H
  000c4	89 45 0c	 mov	 DWORD PTR _i$211301[ebp], eax
  000c7	3b 81 60 ea 0c
	00		 cmp	 eax, DWORD PTR [ecx+846432]
  000cd	7c a1		 jl	 SHORT $LL18@NewDrop
$LN16@NewDrop:
  000cf	5e		 pop	 esi
  000d0	5f		 pop	 edi

; 942  : 					}
; 943  : 				}
; 944  : 			}
; 945  : 		}
; 946  : 	}
; 947  : 
; 948  : 	return false;

  000d1	32 c0		 xor	 al, al
  000d3	5b		 pop	 ebx

; 949  : }

  000d4	8b e5		 mov	 esp, ebp
  000d6	5d		 pop	 ebp
  000d7	c2 08 00	 ret	 8
$LN24@NewDrop:

; 858  : 
; 859  : 	switch(lpMonster->Class)

  000da	05 13 fe ff ff	 add	 eax, -493		; fffffe13H
  000df	83 f8 09	 cmp	 eax, 9
  000e2	0f 87 6e ff ff
	ff		 ja	 $LN20@NewDrop
$LN19@NewDrop:
  000e8	5f		 pop	 edi

; 860  : 	{
; 861  : 	case 78:
; 862  : 	case 53:
; 863  : 	case 79:
; 864  : 	case 80:
; 865  : 	case 82:
; 866  : 	case 502:
; 867  : 	case 493:
; 868  : 	case 494:
; 869  : 	case 495:
; 870  : 	case 496:
; 871  : 	case 497:
; 872  : 	case 498:
; 873  : 	case 499:
; 874  : 	case 500:
; 875  : 	case 501:
; 876  : 		{
; 877  : 			return false;

  000e9	32 c0		 xor	 al, al
  000eb	5b		 pop	 ebx

; 949  : }

  000ec	8b e5		 mov	 esp, ebp
  000ee	5d		 pop	 ebp
  000ef	c2 08 00	 ret	 8
$LN26@NewDrop:

; 898  : 					{
; 899  : 						int iLuck	= 0;
; 900  : 						int iSkill	= 0;
; 901  : 						int iOption	= 0;
; 902  : 						int iLevel	= 0;
; 903  : 
; 904  : 						// ----
; 905  : 						if( this->m_Drop[i].ItemMaxLevel == this->m_Drop[i].ItemMinLevel )

  000f2	8b 75 0c	 mov	 esi, DWORD PTR _i$211301[ebp]
  000f5	c1 e6 06	 shl	 esi, 6
  000f8	03 75 fc	 add	 esi, DWORD PTR _this$[ebp]
  000fb	33 db		 xor	 ebx, ebx
  000fd	8b 86 64 d1 0c
	00		 mov	 eax, DWORD PTR [esi+840036]
  00103	89 5d f4	 mov	 DWORD PTR _iLuck$211313[ebp], ebx
  00106	89 5d f8	 mov	 DWORD PTR _iSkill$211314[ebp], ebx
  00109	39 86 68 d1 0c
	00		 cmp	 DWORD PTR [esi+840040], eax
  0010f	75 05		 jne	 SHORT $LN8@NewDrop

; 906  : 						{
; 907  : 							iLevel = this->m_Drop[i].ItemMinLevel;

  00111	89 45 08	 mov	 DWORD PTR _iLevel$211316[ebp], eax

; 908  : 						}
; 909  : 						else

  00114	eb 1b		 jmp	 SHORT $LN7@NewDrop
$LN8@NewDrop:

; 910  : 						{
; 911  : 							iLevel = this->m_Drop[i].ItemMinLevel + (rand() % (this->m_Drop[i].ItemMaxLevel - this->m_Drop[i].ItemMinLevel + 1));

  00116	89 45 08	 mov	 DWORD PTR tv389[ebp], eax
  00119	e8 00 00 00 00	 call	 _rand
  0011e	8b 8e 68 d1 0c
	00		 mov	 ecx, DWORD PTR [esi+840040]
  00124	2b 4d 08	 sub	 ecx, DWORD PTR tv389[ebp]
  00127	99		 cdq
  00128	41		 inc	 ecx
  00129	f7 f9		 idiv	 ecx
  0012b	03 55 08	 add	 edx, DWORD PTR tv389[ebp]
  0012e	89 55 08	 mov	 DWORD PTR _iLevel$211316[ebp], edx
$LN7@NewDrop:

; 912  : 						}
; 913  : 
; 914  : 						// ----
; 915  : 						if( this->m_Drop[i].ItemLuck == 1 )

  00131	83 be 70 d1 0c
	00 01		 cmp	 DWORD PTR [esi+840048], 1
  00138	75 19		 jne	 SHORT $LN28@NewDrop

; 916  : 						{
; 917  : 							if( rand() % 100 < 50 )

  0013a	e8 00 00 00 00	 call	 _rand
  0013f	99		 cdq
  00140	b9 64 00 00 00	 mov	 ecx, 100		; 00000064H
  00145	f7 f9		 idiv	 ecx
  00147	83 fa 32	 cmp	 edx, 50			; 00000032H
  0014a	7d 07		 jge	 SHORT $LN28@NewDrop

; 918  : 							{
; 919  : 								iLuck = 1;

  0014c	c7 45 f4 01 00
	00 00		 mov	 DWORD PTR _iLuck$211313[ebp], 1
$LN28@NewDrop:

; 920  : 							}
; 921  : 						}
; 922  : 						// ----
; 923  : 						if( this->m_Drop[i].ItemSkill == 1 )

  00153	83 be 74 d1 0c
	00 01		 cmp	 DWORD PTR [esi+840052], 1
  0015a	75 19		 jne	 SHORT $LN3@NewDrop

; 924  : 						{
; 925  : 							if( rand() % 100 < 50 )

  0015c	e8 00 00 00 00	 call	 _rand
  00161	99		 cdq
  00162	b9 64 00 00 00	 mov	 ecx, 100		; 00000064H
  00167	f7 f9		 idiv	 ecx
  00169	83 fa 32	 cmp	 edx, 50			; 00000032H
  0016c	7d 07		 jge	 SHORT $LN3@NewDrop

; 926  : 							{
; 927  : 								iSkill = 1;

  0016e	c7 45 f8 01 00
	00 00		 mov	 DWORD PTR _iSkill$211314[ebp], 1
$LN3@NewDrop:

; 928  : 							}
; 929  : 						}
; 930  : 						// ----
; 931  : 						if( this->m_Drop[i].ItemMaxOption != 0 )

  00175	39 9e 6c d1 0c
	00		 cmp	 DWORD PTR [esi+840044], ebx
  0017b	74 21		 je	 SHORT $LN29@NewDrop

; 932  : 						{
; 933  : 							if( rand() % 100 < 50 )

  0017d	e8 00 00 00 00	 call	 _rand
  00182	99		 cdq
  00183	b9 64 00 00 00	 mov	 ecx, 100		; 00000064H
  00188	f7 f9		 idiv	 ecx
  0018a	83 fa 32	 cmp	 edx, 50			; 00000032H
  0018d	7d 0f		 jge	 SHORT $LN29@NewDrop

; 934  : 							{
; 935  : 								iOption = rand() % this->m_Drop[i].ItemMaxOption + 1;

  0018f	e8 00 00 00 00	 call	 _rand
  00194	99		 cdq
  00195	f7 be 6c d1 0c
	00		 idiv	 DWORD PTR [esi+840044]
  0019b	8d 5a 01	 lea	 ebx, DWORD PTR [edx+1]
$LN29@NewDrop:

; 936  : 							}
; 937  : 						}
; 938  : 
; 939  : 						ItemSerialCreateSend(lpUser->m_Index, lpMonster->MapNumber, lpMonster->X, lpMonster->Y, ITEMGET(this->m_Drop[i].ItemType, this->m_Drop[i].ItemIndex), iLevel, this->m_Drop[i].ItemDur, iOption, iLuck, iSkill, gObjMonsterTopHitDamageUser(lpMonster), this->m_Drop[i].ItemExcellent, 0);

  0019e	0f b6 96 78 d1
	0c 00		 movzx	 edx, BYTE PTR [esi+840056]
  001a5	6a 00		 push	 0
  001a7	52		 push	 edx
  001a8	57		 push	 edi
  001a9	e8 00 00 00 00	 call	 ?gObjMonsterTopHitDamageUser@@YAHPAUOBJECTSTRUCT@@@Z ; gObjMonsterTopHitDamageUser
  001ae	8b 55 0c	 mov	 edx, DWORD PTR _i$211301[ebp]
  001b1	8b 4d f4	 mov	 ecx, DWORD PTR _iLuck$211313[ebp]
  001b4	83 c4 04	 add	 esp, 4
  001b7	50		 push	 eax
  001b8	8b 45 f8	 mov	 eax, DWORD PTR _iSkill$211314[ebp]
  001bb	50		 push	 eax
  001bc	8b 45 fc	 mov	 eax, DWORD PTR _this$[ebp]
  001bf	51		 push	 ecx
  001c0	81 c2 46 33 00
	00		 add	 edx, 13126		; 00003346H
  001c6	c1 e2 06	 shl	 edx, 6
  001c9	0f b6 0c 02	 movzx	 ecx, BYTE PTR [edx+eax]
  001cd	8b 86 5c d1 0c
	00		 mov	 eax, DWORD PTR [esi+840028]
  001d3	8b 55 08	 mov	 edx, DWORD PTR _iLevel$211316[ebp]
  001d6	53		 push	 ebx
  001d7	51		 push	 ecx
  001d8	0f b6 8f 46 01
	00 00		 movzx	 ecx, BYTE PTR [edi+326]
  001df	52		 push	 edx
  001e0	0f b6 97 44 01
	00 00		 movzx	 edx, BYTE PTR [edi+324]
  001e7	c1 e0 09	 shl	 eax, 9
  001ea	03 86 60 d1 0c
	00		 add	 eax, DWORD PTR [esi+840032]
  001f0	50		 push	 eax
  001f1	0f b6 87 49 01
	00 00		 movzx	 eax, BYTE PTR [edi+329]
  001f8	51		 push	 ecx
  001f9	8b 4d f0	 mov	 ecx, DWORD PTR _lpUser$[ebp]
  001fc	52		 push	 edx
  001fd	8b 11		 mov	 edx, DWORD PTR [ecx]
  001ff	50		 push	 eax
  00200	52		 push	 edx
  00201	e8 00 00 00 00	 call	 ?ItemSerialCreateSend@@YAXHEEEHEEEEEHEE@Z ; ItemSerialCreateSend
  00206	83 c4 34	 add	 esp, 52			; 00000034H
  00209	5e		 pop	 esi
  0020a	5f		 pop	 edi

; 940  : 					
; 941  : 						return true;

  0020b	b0 01		 mov	 al, 1
  0020d	5b		 pop	 ebx

; 949  : }

  0020e	8b e5		 mov	 esp, ebp
  00210	5d		 pop	 ebp
  00211	c2 08 00	 ret	 8
?NewDrop@ZtWinQuestSystem@@QAE_NHH@Z ENDP		; ZtWinQuestSystem::NewDrop
_TEXT	ENDS
PUBLIC	?SaveQuest@ZtWinQuestSystem@@QAEXHPAE@Z		; ZtWinQuestSystem::SaveQuest
; Function compile flags: /Ogtp
;	COMDAT ?SaveQuest@ZtWinQuestSystem@@QAEXHPAE@Z
_TEXT	SEGMENT
_aIndex$ = 8						; size = 4
_buf$ = 12						; size = 4
?SaveQuest@ZtWinQuestSystem@@QAEXHPAE@Z PROC		; ZtWinQuestSystem::SaveQuest, COMDAT
; _this$ = ecx

; 954  : 	return;
; 955  : 	LPOBJ lpUser = &gObj[aIndex];
; 956  : 
; 957  : 	int n = 0;
; 958  : 	BYTE Start = 0;
; 959  : 	WORD Number = 0;
; 960  : 	WORD Count = 0;
; 961  : 
; 962  : 	for(int a = 0; a < EW_MAX_ACT; a++)
; 963  : 	{
; 964  : 		Start = lpUser->ZtWQuestStart[a];
; 965  : 		buf[n] = Start;
; 966  : 		n++;
; 967  : 		WORD Number = lpUser->ZtWQuestNum[a];
; 968  : 		buf[n] = SET_NUMBERH(Number);
; 969  : 		n++;
; 970  : 		buf[n] = SET_NUMBERL(Number);
; 971  : 		n++;
; 972  : 		for(int m = 0; m < EW_MAX_MISSION; m++)
; 973  : 		{
; 974  : 			Count = lpUser->ZtWQuestCount[a][m];
; 975  : 			buf[n] = SET_NUMBERH(Count);
; 976  : 			n++;
; 977  : 			buf[n] = SET_NUMBERL(Count);
; 978  : 			n++;
; 979  : 		}
; 980  : 	}
; 981  : 
; 982  : #if(EW_DEBUG==TRUE)
; 983  : 	LogAddC(2, "SaveQuest: %d", n);
; 984  : #endif
; 985  : }

  00000	c2 08 00	 ret	 8
?SaveQuest@ZtWinQuestSystem@@QAEXHPAE@Z ENDP		; ZtWinQuestSystem::SaveQuest
_TEXT	ENDS
PUBLIC	?LoadQuest@ZtWinQuestSystem@@QAEXHPAE@Z		; ZtWinQuestSystem::LoadQuest
; Function compile flags: /Ogtp
;	COMDAT ?LoadQuest@ZtWinQuestSystem@@QAEXHPAE@Z
_TEXT	SEGMENT
_aIndex$ = 8						; size = 4
_buf$ = 12						; size = 4
?LoadQuest@ZtWinQuestSystem@@QAEXHPAE@Z PROC		; ZtWinQuestSystem::LoadQuest, COMDAT
; _this$ = ecx

; 990  : 	return;
; 991  : 	LPOBJ lpUser = &gObj[aIndex];
; 992  : 	int n = 0;
; 993  : 
; 994  : 	for(int a = 0; a < EW_MAX_ACT; a++)
; 995  : 	{
; 996  : 		lpUser->ZtWQuestStart[a] = buf[n];
; 997  : 		n++;
; 998  : 		lpUser->ZtWQuestNum[a] = MAKE_NUMBERW(buf[n], buf[n+1]);
; 999  : 		n+=2;
; 1000 : 		for(int m = 0; m < EW_MAX_MISSION; m++)
; 1001 : 		{
; 1002 : 			lpUser->ZtWQuestCount[a][m] = MAKE_NUMBERW(buf[n], buf[n+1]);
; 1003 : 			n+=2;
; 1004 : 		}
; 1005 : 	}
; 1006 : 
; 1007 : #if(EW_DEBUG==TRUE)
; 1008 : 	LogAddC(2, "LoadQuest: %d", n);
; 1009 : #endif
; 1010 : }

  00000	c2 08 00	 ret	 8
?LoadQuest@ZtWinQuestSystem@@QAEXHPAE@Z ENDP		; ZtWinQuestSystem::LoadQuest
_TEXT	ENDS
PUBLIC	??0ZtWinQuestSystem@@QAE@XZ			; ZtWinQuestSystem::ZtWinQuestSystem
; Function compile flags: /Ogtp
;	COMDAT ??0ZtWinQuestSystem@@QAE@XZ
_TEXT	SEGMENT
??0ZtWinQuestSystem@@QAE@XZ PROC			; ZtWinQuestSystem::ZtWinQuestSystem, COMDAT
; _this$ = ecx

; 21   : {

  00000	56		 push	 esi
  00001	8b f1		 mov	 esi, ecx

; 22   : 	this->Init();

  00003	e8 00 00 00 00	 call	 ?Init@ZtWinQuestSystem@@QAEXXZ ; ZtWinQuestSystem::Init

; 23   : }

  00008	8b c6		 mov	 eax, esi
  0000a	5e		 pop	 esi
  0000b	c3		 ret	 0
??0ZtWinQuestSystem@@QAE@XZ ENDP			; ZtWinQuestSystem::ZtWinQuestSystem
_TEXT	ENDS
PUBLIC	??_C@_0CF@MBEBPFLF@ZtData?2ZtWinQuest?2ZtWinQuestDrop@ ; `string'
PUBLIC	??_C@_0CH@EPPHNEFO@ZtData?2ZtWinQuest?2ZtWinQuestData@ ; `string'
PUBLIC	??_C@_0CH@IEKLAHPL@ZtData?2ZtWinQuest?2ZtWinQuestData@ ; `string'
PUBLIC	??_C@_0CH@CDPHFFF@ZtData?2ZtWinQuest?2ZtWinQuestData@ ; `string'
PUBLIC	??_C@_0CH@JGOOAFBH@ZtData?2ZtWinQuest?2ZtWinQuestSyst@ ; `string'
PUBLIC	?Load@ZtWinQuestSystem@@QAEXXZ			; ZtWinQuestSystem::Load
EXTRN	?GetNewPath@CDirPath@@QAEPADPAD@Z:PROC		; CDirPath::GetNewPath
EXTRN	?gDirPath@@3VCDirPath@@A:BYTE			; gDirPath
EXTRN	?g_ZtLicense@@3VCZtLicense@@A:BYTE		; g_ZtLicense
;	COMDAT ??_C@_0CF@MBEBPFLF@ZtData?2ZtWinQuest?2ZtWinQuestDrop@
CONST	SEGMENT
??_C@_0CF@MBEBPFLF@ZtData?2ZtWinQuest?2ZtWinQuestDrop@ DB 'ZtData\ZtWinQu'
	DB	'est\ZtWinQuestDrop.ini', 00H		; `string'
CONST	ENDS
;	COMDAT ??_C@_0CH@EPPHNEFO@ZtData?2ZtWinQuest?2ZtWinQuestData@
CONST	SEGMENT
??_C@_0CH@EPPHNEFO@ZtData?2ZtWinQuest?2ZtWinQuestData@ DB 'ZtData\ZtWinQu'
	DB	'est\ZtWinQuestData_3.ini', 00H		; `string'
CONST	ENDS
;	COMDAT ??_C@_0CH@IEKLAHPL@ZtData?2ZtWinQuest?2ZtWinQuestData@
CONST	SEGMENT
??_C@_0CH@IEKLAHPL@ZtData?2ZtWinQuest?2ZtWinQuestData@ DB 'ZtData\ZtWinQu'
	DB	'est\ZtWinQuestData_2.ini', 00H		; `string'
CONST	ENDS
;	COMDAT ??_C@_0CH@CDPHFFF@ZtData?2ZtWinQuest?2ZtWinQuestData@
CONST	SEGMENT
??_C@_0CH@CDPHFFF@ZtData?2ZtWinQuest?2ZtWinQuestData@ DB 'ZtData\ZtWinQue'
	DB	'st\ZtWinQuestData_1.ini', 00H		; `string'
CONST	ENDS
;	COMDAT ??_C@_0CH@JGOOAFBH@ZtData?2ZtWinQuest?2ZtWinQuestSyst@
CONST	SEGMENT
??_C@_0CH@JGOOAFBH@ZtData?2ZtWinQuest?2ZtWinQuestSyst@ DB 'ZtData\ZtWinQu'
	DB	'est\ZtWinQuestSystem.ini', 00H		; `string'
; Function compile flags: /Ogtp
CONST	ENDS
;	COMDAT ?Load@ZtWinQuestSystem@@QAEXXZ
_TEXT	SEGMENT
?Load@ZtWinQuestSystem@@QAEXXZ PROC			; ZtWinQuestSystem::Load, COMDAT
; _this$ = ecx

; 46   : {

  00000	56		 push	 esi
  00001	8b f1		 mov	 esi, ecx

; 47   : 	this->Init();

  00003	e8 00 00 00 00	 call	 ?Init@ZtWinQuestSystem@@QAEXXZ ; ZtWinQuestSystem::Init

; 48   : 
; 49   : 	if(!g_ZtLicense.user.CraftQuestSystem)

  00008	80 3d f0 00 00
	00 00		 cmp	 BYTE PTR ?g_ZtLicense@@3VCZtLicense@@A+240, 0
  0000f	74 79		 je	 SHORT $LN2@Load

; 50   : 	{
; 51   : 		return;
; 52   : 	}
; 53   : 
; 54   : 	this->Read(gDirPath.GetNewPath("ZtData\\ZtWinQuest\\ZtWinQuestSystem.ini"));

  00011	68 00 00 00 00	 push	 OFFSET ??_C@_0CH@JGOOAFBH@ZtData?2ZtWinQuest?2ZtWinQuestSyst@
  00016	b9 00 00 00 00	 mov	 ecx, OFFSET ?gDirPath@@3VCDirPath@@A ; gDirPath
  0001b	e8 00 00 00 00	 call	 ?GetNewPath@CDirPath@@QAEPADPAD@Z ; CDirPath::GetNewPath
  00020	50		 push	 eax
  00021	8b ce		 mov	 ecx, esi
  00023	e8 00 00 00 00	 call	 ?Read@ZtWinQuestSystem@@QAEXPAD@Z ; ZtWinQuestSystem::Read

; 55   : 	this->ReadQuest(0, gDirPath.GetNewPath("ZtData\\ZtWinQuest\\ZtWinQuestData_1.ini"));

  00028	68 00 00 00 00	 push	 OFFSET ??_C@_0CH@CDPHFFF@ZtData?2ZtWinQuest?2ZtWinQuestData@
  0002d	b9 00 00 00 00	 mov	 ecx, OFFSET ?gDirPath@@3VCDirPath@@A ; gDirPath
  00032	e8 00 00 00 00	 call	 ?GetNewPath@CDirPath@@QAEPADPAD@Z ; CDirPath::GetNewPath
  00037	50		 push	 eax
  00038	6a 00		 push	 0
  0003a	8b ce		 mov	 ecx, esi
  0003c	e8 00 00 00 00	 call	 ?ReadQuest@ZtWinQuestSystem@@QAEXHPAD@Z ; ZtWinQuestSystem::ReadQuest

; 56   : 	this->ReadQuest(1, gDirPath.GetNewPath("ZtData\\ZtWinQuest\\ZtWinQuestData_2.ini"));

  00041	68 00 00 00 00	 push	 OFFSET ??_C@_0CH@IEKLAHPL@ZtData?2ZtWinQuest?2ZtWinQuestData@
  00046	b9 00 00 00 00	 mov	 ecx, OFFSET ?gDirPath@@3VCDirPath@@A ; gDirPath
  0004b	e8 00 00 00 00	 call	 ?GetNewPath@CDirPath@@QAEPADPAD@Z ; CDirPath::GetNewPath
  00050	50		 push	 eax
  00051	6a 01		 push	 1
  00053	8b ce		 mov	 ecx, esi
  00055	e8 00 00 00 00	 call	 ?ReadQuest@ZtWinQuestSystem@@QAEXHPAD@Z ; ZtWinQuestSystem::ReadQuest

; 57   : 	this->ReadQuest(2, gDirPath.GetNewPath("ZtData\\ZtWinQuest\\ZtWinQuestData_3.ini"));

  0005a	68 00 00 00 00	 push	 OFFSET ??_C@_0CH@EPPHNEFO@ZtData?2ZtWinQuest?2ZtWinQuestData@
  0005f	b9 00 00 00 00	 mov	 ecx, OFFSET ?gDirPath@@3VCDirPath@@A ; gDirPath
  00064	e8 00 00 00 00	 call	 ?GetNewPath@CDirPath@@QAEPADPAD@Z ; CDirPath::GetNewPath
  00069	50		 push	 eax
  0006a	6a 02		 push	 2
  0006c	8b ce		 mov	 ecx, esi
  0006e	e8 00 00 00 00	 call	 ?ReadQuest@ZtWinQuestSystem@@QAEXHPAD@Z ; ZtWinQuestSystem::ReadQuest

; 58   : 	this->ReadDrop(gDirPath.GetNewPath("ZtData\\ZtWinQuest\\ZtWinQuestDrop.ini"));

  00073	68 00 00 00 00	 push	 OFFSET ??_C@_0CF@MBEBPFLF@ZtData?2ZtWinQuest?2ZtWinQuestDrop@
  00078	b9 00 00 00 00	 mov	 ecx, OFFSET ?gDirPath@@3VCDirPath@@A ; gDirPath
  0007d	e8 00 00 00 00	 call	 ?GetNewPath@CDirPath@@QAEPADPAD@Z ; CDirPath::GetNewPath
  00082	50		 push	 eax
  00083	8b ce		 mov	 ecx, esi
  00085	e8 00 00 00 00	 call	 ?ReadDrop@ZtWinQuestSystem@@QAEXPAD@Z ; ZtWinQuestSystem::ReadDrop
$LN2@Load:
  0008a	5e		 pop	 esi

; 59   : }

  0008b	c3		 ret	 0
?Load@ZtWinQuestSystem@@QAEXXZ ENDP			; ZtWinQuestSystem::Load
_TEXT	ENDS
PUBLIC	_this$GSCopy$
PUBLIC	_aIndex$GSCopy$
PUBLIC	__$ArrayPad$
PUBLIC	?GC_MainInfo@ZtWinQuestSystem@@QAEXH@Z		; ZtWinQuestSystem::GC_MainInfo
; Function compile flags: /Ogtp
;	COMDAT ?GC_MainInfo@ZtWinQuestSystem@@QAEXH@Z
_TEXT	SEGMENT
tv3179 = -552						; size = 4
tv3490 = -548						; size = 4
tv3103 = -544						; size = 4
_aIndex$GSCopy$ = -540					; size = 4
tv3488 = -536						; size = 4
tv3327 = -532						; size = 4
tv1199 = -528						; size = 4
_this$GSCopy$ = -524					; size = 4
_lpUser$ = -520						; size = 4
_a$211021 = -516					; size = 4
tv1531 = -512						; size = 4
tv1201 = -512						; size = 4
_sb_accept$211025 = -505				; size = 1
_sb_done$211026 = -504					; size = 1
_sb_grand$211029 = -503					; size = 1
_sb_level$211027 = -502					; size = 1
_sb_reset$211028 = -501					; size = 1
_pReq$ = -500						; size = 488
_b_mission$211030 = -12					; size = 5
__$ArrayPad$ = -4					; size = 4
_aIndex$ = 8						; size = 4
?GC_MainInfo@ZtWinQuestSystem@@QAEXH@Z PROC		; ZtWinQuestSystem::GC_MainInfo, COMDAT
; _this$ = ecx

; 267  : {

  00000	55		 push	 ebp
  00001	8b ec		 mov	 ebp, esp
  00003	81 ec 28 02 00
	00		 sub	 esp, 552		; 00000228H
  00009	a1 00 00 00 00	 mov	 eax, DWORD PTR ___security_cookie
  0000e	33 c5		 xor	 eax, ebp
  00010	89 45 fc	 mov	 DWORD PTR __$ArrayPad$[ebp], eax
  00013	53		 push	 ebx
  00014	8b 5d 08	 mov	 ebx, DWORD PTR _aIndex$[ebp]

; 268  : 	LPOBJ lpUser = &gObj[aIndex];

  00017	89 9d e4 fd ff
	ff		 mov	 DWORD PTR _aIndex$GSCopy$[ebp], ebx
  0001d	69 db 50 2b 00
	00		 imul	 ebx, 11088		; 00002b50H
  00023	03 1d 00 00 00
	00		 add	 ebx, DWORD PTR ?gObj@@3PAUOBJECTSTRUCT@@A ; gObj

; 269  : 
; 270  : 	int n = 0;
; 271  : 
; 272  : 	GC_MainPacket pReq;
; 273  : 	pReq.h.set((LPBYTE)&pReq, 0xFA, 0xCC, sizeof(pReq));
; 274  : 
; 275  : 	for(int a = 0; a < EW_MAX_ACT; a++)

  00029	33 c0		 xor	 eax, eax
  0002b	56		 push	 esi
  0002c	89 85 fc fd ff
	ff		 mov	 DWORD PTR _a$211021[ebp], eax
  00032	89 85 e0 fd ff
	ff		 mov	 DWORD PTR tv3103[ebp], eax

; 276  : 	{
; 277  : 		bool sb_accept = true;
; 278  : 		bool sb_done = true;
; 279  : 
; 280  : 		bool sb_level = true;
; 281  : 		bool sb_reset = true;
; 282  : 		bool sb_grand = true;
; 283  : 
; 284  : 		bool b_mission[EW_MAX_MISSION];
; 285  : 
; 286  : 		for(int i = 0; i < EW_MAX_MISSION; i++)
; 287  : 		{
; 288  : 			b_mission[i] = true;
; 289  : 		}
; 290  : 
; 291  : 		n = lpUser->ZtWQuestNum[a];

  00038	8d 83 f0 2a 00
	00		 lea	 eax, DWORD PTR [ebx+10992]
  0003e	8d 91 54 ea 0c
	00		 lea	 edx, DWORD PTR [ecx+846420]
  00044	57		 push	 edi
  00045	89 8d f4 fd ff
	ff		 mov	 DWORD PTR _this$GSCopy$[ebp], ecx
  0004b	89 9d f8 fd ff
	ff		 mov	 DWORD PTR _lpUser$[ebp], ebx
  00051	c7 85 0c fe ff
	ff c2 01 e8 fa	 mov	 DWORD PTR _pReq$[ebp], -85458494 ; fae801c2H
  0005b	c6 85 10 fe ff
	ff cc		 mov	 BYTE PTR _pReq$[ebp+4], 204 ; 000000ccH
  00062	c7 85 ec fd ff
	ff 7b 15 00 00	 mov	 DWORD PTR tv3327[ebp], 5499 ; 0000157bH
  0006c	8d b5 2f fe ff
	ff		 lea	 esi, DWORD PTR _pReq$[ebp+35]
  00072	89 85 e8 fd ff
	ff		 mov	 DWORD PTR tv3488[ebp], eax
  00078	89 95 dc fd ff
	ff		 mov	 DWORD PTR tv3490[ebp], edx
  0007e	eb 0c		 jmp	 SHORT $LN32@GC_MainInf
$LL47@GC_MainInf:

; 269  : 
; 270  : 	int n = 0;
; 271  : 
; 272  : 	GC_MainPacket pReq;
; 273  : 	pReq.h.set((LPBYTE)&pReq, 0xFA, 0xCC, sizeof(pReq));
; 274  : 
; 275  : 	for(int a = 0; a < EW_MAX_ACT; a++)

  00080	8b 8d f4 fd ff
	ff		 mov	 ecx, DWORD PTR _this$GSCopy$[ebp]
  00086	8b 9d f8 fd ff
	ff		 mov	 ebx, DWORD PTR _lpUser$[ebp]
$LN32@GC_MainInf:

; 292  : 
; 293  : 		if(n >= this->iLoaded[a])

  0008c	8b 95 dc fd ff
	ff		 mov	 edx, DWORD PTR tv3490[ebp]

; 294  : 		{
; 295  : 			pReq.ztQuest[a].b_End = true;
; 296  : 		}
; 297  : 		else
; 298  : 		{
; 299  : 			pReq.ztQuest[a].b_End = false;
; 300  : 		}
; 301  : 		// -> user send
; 302  : 		strncpy(pReq.ztQuest[a].NameQuest, this->ewdata[a][n].NameQuest, 25);

  00092	8b bd e0 fd ff
	ff		 mov	 edi, DWORD PTR tv3103[ebp]
  00098	b8 01 01 01 01	 mov	 eax, 16843009		; 01010101H
  0009d	89 45 f4	 mov	 DWORD PTR _b_mission$211030[ebp], eax
  000a0	88 45 f8	 mov	 BYTE PTR _b_mission$211030[ebp+4], al
  000a3	8b 85 e8 fd ff
	ff		 mov	 eax, DWORD PTR tv3488[ebp]
  000a9	0f b7 00	 movzx	 eax, WORD PTR [eax]
  000ac	3b 02		 cmp	 eax, DWORD PTR [edx]
  000ae	6a 19		 push	 25			; 00000019H
  000b0	0f 9d c2	 setge	 dl
  000b3	03 f8		 add	 edi, eax
  000b5	8b c7		 mov	 eax, edi
  000b7	69 c0 18 01 00
	00		 imul	 eax, 280		; 00000118H
  000bd	03 c1		 add	 eax, ecx
  000bf	89 85 d8 fd ff
	ff		 mov	 DWORD PTR tv3179[ebp], eax
  000c5	83 c0 14	 add	 eax, 20			; 00000014H
  000c8	50		 push	 eax
  000c9	8d 4e e5	 lea	 ecx, DWORD PTR [esi-27]
  000cc	51		 push	 ecx
  000cd	c6 85 07 fe ff
	ff 01		 mov	 BYTE PTR _sb_accept$211025[ebp], 1
  000d4	c6 85 08 fe ff
	ff 01		 mov	 BYTE PTR _sb_done$211026[ebp], 1
  000db	c6 85 0a fe ff
	ff 01		 mov	 BYTE PTR _sb_level$211027[ebp], 1
  000e2	c6 85 0b fe ff
	ff 01		 mov	 BYTE PTR _sb_reset$211028[ebp], 1
  000e9	c6 85 09 fe ff
	ff 01		 mov	 BYTE PTR _sb_grand$211029[ebp], 1
  000f0	88 16		 mov	 BYTE PTR [esi], dl
  000f2	e8 00 00 00 00	 call	 _strncpy

; 303  : 		pReq.ztQuest[a].Start = lpUser->ZtWQuestStart[a];

  000f7	8b 95 fc fd ff
	ff		 mov	 edx, DWORD PTR _a$211021[ebp]
  000fd	8a 84 13 ec 2a
	00 00		 mov	 al, BYTE PTR [ebx+edx+10988]

; 304  : 		pReq.ztQuest[a].Number = lpUser->ZtWQuestNum[a];

  00104	8b 8d e8 fd ff
	ff		 mov	 ecx, DWORD PTR tv3488[ebp]
  0010a	83 c4 0c	 add	 esp, 12			; 0000000cH

; 305  : 		for(int m = 0; m < EW_MAX_MISSION; m++)

  0010d	33 db		 xor	 ebx, ebx
  0010f	6b ff 46	 imul	 edi, 70			; 00000046H
  00112	88 46 01	 mov	 BYTE PTR [esi+1], al
  00115	66 8b 11	 mov	 dx, WORD PTR [ecx]
  00118	8b 8d f4 fd ff
	ff		 mov	 ecx, DWORD PTR _this$GSCopy$[ebp]
  0011e	66 89 56 03	 mov	 WORD PTR [esi+3], dx
  00122	8d 46 05	 lea	 eax, DWORD PTR [esi+5]
  00125	8d 54 b9 3c	 lea	 edx, DWORD PTR [ecx+edi*4+60]
  00129	89 85 f0 fd ff
	ff		 mov	 DWORD PTR tv1199[ebp], eax
  0012f	89 95 00 fe ff
	ff		 mov	 DWORD PTR tv1201[ebp], edx
  00135	eb 0f		 jmp	 SHORT $LN24@GC_MainInf
  00137	eb 07 8d a4 24
	00 00 00 00	 npad	 9
$LL55@GC_MainInf:

; 294  : 		{
; 295  : 			pReq.ztQuest[a].b_End = true;
; 296  : 		}
; 297  : 		else
; 298  : 		{
; 299  : 			pReq.ztQuest[a].b_End = false;
; 300  : 		}
; 301  : 		// -> user send
; 302  : 		strncpy(pReq.ztQuest[a].NameQuest, this->ewdata[a][n].NameQuest, 25);

  00140	8b 8d f4 fd ff
	ff		 mov	 ecx, DWORD PTR _this$GSCopy$[ebp]
$LN24@GC_MainInf:

; 306  : 		{
; 307  : 			if(this->ewdata[a][n].MissionType[m] == Searching)

  00146	8b 85 00 fe ff
	ff		 mov	 eax, DWORD PTR tv1201[ebp]
  0014c	83 38 03	 cmp	 DWORD PTR [eax], 3
  0014f	75 22		 jne	 SHORT $LN21@GC_MainInf

; 308  : 			{
; 309  : 				pReq.ztQuest[a].Count[m] = this->SearchItem(aIndex, a, m);

  00151	8b 95 fc fd ff
	ff		 mov	 edx, DWORD PTR _a$211021[ebp]
  00157	8b 85 e4 fd ff
	ff		 mov	 eax, DWORD PTR _aIndex$GSCopy$[ebp]
  0015d	53		 push	 ebx
  0015e	52		 push	 edx
  0015f	50		 push	 eax
  00160	e8 00 00 00 00	 call	 ?SearchItem@ZtWinQuestSystem@@QAE_NHHH@Z ; ZtWinQuestSystem::SearchItem
  00165	8b 95 f0 fd ff
	ff		 mov	 edx, DWORD PTR tv1199[ebp]
  0016b	0f b6 c8	 movzx	 ecx, al
  0016e	66 89 0a	 mov	 WORD PTR [edx], cx

; 310  : 			}
; 311  : 			else

  00171	eb 34		 jmp	 SHORT $LN23@GC_MainInf
$LN21@GC_MainInf:

; 312  : 			{
; 313  : 				if(lpUser->ZtWQuestCount[a][m] > this->ewdata[a][n].MissionCount[m])

  00173	8b 95 ec fd ff
	ff		 mov	 edx, DWORD PTR tv3327[ebp]
  00179	8d 04 1f	 lea	 eax, DWORD PTR [edi+ebx]
  0017c	8d 8c 81 c8 00
	00 00		 lea	 ecx, DWORD PTR [ecx+eax*4+200]
  00183	8b 85 f8 fd ff
	ff		 mov	 eax, DWORD PTR _lpUser$[ebp]
  00189	03 d3		 add	 edx, ebx
  0018b	8d 04 50	 lea	 eax, DWORD PTR [eax+edx*2]
  0018e	0f b7 10	 movzx	 edx, WORD PTR [eax]
  00191	3b 11		 cmp	 edx, DWORD PTR [ecx]
  00193	7e 06		 jle	 SHORT $LN19@GC_MainInf

; 314  : 				{
; 315  : 					lpUser->ZtWQuestCount[a][m] = this->ewdata[a][n].MissionCount[m];

  00195	66 8b 09	 mov	 cx, WORD PTR [ecx]
  00198	66 89 08	 mov	 WORD PTR [eax], cx
$LN19@GC_MainInf:

; 316  : 				}
; 317  : 
; 318  : 				pReq.ztQuest[a].Count[m] = lpUser->ZtWQuestCount[a][m];

  0019b	66 8b 10	 mov	 dx, WORD PTR [eax]
  0019e	8b 85 f0 fd ff
	ff		 mov	 eax, DWORD PTR tv1199[ebp]
  001a4	66 89 10	 mov	 WORD PTR [eax], dx
$LN23@GC_MainInf:

; 305  : 		for(int m = 0; m < EW_MAX_MISSION; m++)

  001a7	83 85 00 fe ff
	ff 04		 add	 DWORD PTR tv1201[ebp], 4
  001ae	83 85 f0 fd ff
	ff 02		 add	 DWORD PTR tv1199[ebp], 2
  001b5	43		 inc	 ebx
  001b6	83 fb 05	 cmp	 ebx, 5
  001b9	7c 85		 jl	 SHORT $LL55@GC_MainInf

; 319  : 			}
; 320  : 		}	
; 321  : 		// -> need send
; 322  : 		if(this->ewdata[a][n].NeedLevel > lpUser->Level)

  001bb	8b 85 f8 fd ff
	ff		 mov	 eax, DWORD PTR _lpUser$[ebp]
  001c1	0f bf 88 be 00
	00 00		 movsx	 ecx, WORD PTR [eax+190]
  001c8	8b 9d d8 fd ff
	ff		 mov	 ebx, DWORD PTR tv3179[ebp]
  001ce	39 4b 30	 cmp	 DWORD PTR [ebx+48], ecx
  001d1	7e 07		 jle	 SHORT $LN18@GC_MainInf

; 323  : 		{
; 324  : 			sb_level = false;

  001d3	c6 85 0a fe ff
	ff 00		 mov	 BYTE PTR _sb_level$211027[ebp], 0
$LN18@GC_MainInf:

; 325  : 		}
; 326  : 		pReq.ztQuest[a].NeedLevel = this->ewdata[a][n].NeedLevel;

  001da	66 8b 53 30	 mov	 dx, WORD PTR [ebx+48]

; 327  : 		if(this->ewdata[a][n].NeedReset > lpUser->Reset)

  001de	8b 4b 34	 mov	 ecx, DWORD PTR [ebx+52]
  001e1	66 89 56 11	 mov	 WORD PTR [esi+17], dx
  001e5	3b 88 90 22 00
	00		 cmp	 ecx, DWORD PTR [eax+8848]
  001eb	7e 07		 jle	 SHORT $LN17@GC_MainInf

; 328  : 		{
; 329  : 			sb_reset = false;

  001ed	c6 85 0b fe ff
	ff 00		 mov	 BYTE PTR _sb_reset$211028[ebp], 0
$LN17@GC_MainInf:

; 330  : 		}
; 331  : 		pReq.ztQuest[a].NeedReset = this->ewdata[a][n].NeedReset;

  001f4	66 8b d1	 mov	 dx, cx

; 332  : 		if(this->ewdata[a][n].NeedGrand > lpUser->GReset)

  001f7	8b 4b 38	 mov	 ecx, DWORD PTR [ebx+56]
  001fa	66 89 56 15	 mov	 WORD PTR [esi+21], dx
  001fe	3b 88 94 22 00
	00		 cmp	 ecx, DWORD PTR [eax+8852]
  00204	7e 07		 jle	 SHORT $LN16@GC_MainInf

; 333  : 		{
; 334  : 			sb_grand = false;

  00206	c6 85 09 fe ff
	ff 00		 mov	 BYTE PTR _sb_grand$211029[ebp], 0
$LN16@GC_MainInf:

; 335  : 		}
; 336  : 		pReq.ztQuest[a].NeedGrand = this->ewdata[a][n].NeedGrand;

  0020d	66 8b d1	 mov	 dx, cx
  00210	8d 46 2f	 lea	 eax, DWORD PTR [esi+47]

; 337  : 		// -> mission send
; 338  : 		for(int m = 0; m < EW_MAX_MISSION; m++)

  00213	33 ff		 xor	 edi, edi
  00215	66 89 56 19	 mov	 WORD PTR [esi+25], dx
  00219	89 85 00 fe ff
	ff		 mov	 DWORD PTR tv1531[ebp], eax
  0021f	83 c3 3c	 add	 ebx, 60			; 0000003cH
$LL15@GC_MainInf:

; 339  : 		{
; 340  : 			if(this->ewdata[a][n].MissionType[m] == Hunting || this->ewdata[a][n].MissionType[m] == Droping)

  00222	8b 0b		 mov	 ecx, DWORD PTR [ebx]
  00224	83 f9 01	 cmp	 ecx, 1
  00227	74 30		 je	 SHORT $LN48@GC_MainInf
  00229	83 f9 02	 cmp	 ecx, 2
  0022c	74 2b		 je	 SHORT $LN48@GC_MainInf

; 346  : 				}
; 347  : 			}
; 348  : 			else if(this->ewdata[a][n].MissionType[m] == Searching)

  0022e	83 f9 03	 cmp	 ecx, 3
  00231	75 4c		 jne	 SHORT $LN54@GC_MainInf

; 349  : 			{
; 350  : 				if(!this->SearchItem(aIndex, a, m))

  00233	8b 85 fc fd ff
	ff		 mov	 eax, DWORD PTR _a$211021[ebp]
  00239	8b 8d e4 fd ff
	ff		 mov	 ecx, DWORD PTR _aIndex$GSCopy$[ebp]
  0023f	57		 push	 edi
  00240	50		 push	 eax
  00241	51		 push	 ecx
  00242	8b 8d f4 fd ff
	ff		 mov	 ecx, DWORD PTR _this$GSCopy$[ebp]
  00248	e8 00 00 00 00	 call	 ?SearchItem@ZtWinQuestSystem@@QAE_NHHH@Z ; ZtWinQuestSystem::SearchItem
  0024d	84 c0		 test	 al, al

; 351  : 				{
; 352  : 					b_mission[m] = false;
; 353  : 					sb_done = false;

  0024f	8b 85 00 fe ff
	ff		 mov	 eax, DWORD PTR tv1531[ebp]
  00255	75 28		 jne	 SHORT $LN54@GC_MainInf
  00257	eb 1a		 jmp	 SHORT $LN56@GC_MainInf
$LN48@GC_MainInf:

; 341  : 			{
; 342  : 				if(this->ewdata[a][n].MissionCount[m] > lpUser->ZtWQuestCount[a][m])

  00259	8b 95 ec fd ff
	ff		 mov	 edx, DWORD PTR tv3327[ebp]
  0025f	8b 8d f8 fd ff
	ff		 mov	 ecx, DWORD PTR _lpUser$[ebp]
  00265	03 d7		 add	 edx, edi
  00267	0f b7 14 51	 movzx	 edx, WORD PTR [ecx+edx*2]
  0026b	39 93 8c 00 00
	00		 cmp	 DWORD PTR [ebx+140], edx
  00271	7e 0c		 jle	 SHORT $LN54@GC_MainInf
$LN56@GC_MainInf:

; 343  : 				{
; 344  : 					b_mission[m] = false;
; 345  : 					sb_done = false;

  00273	c6 85 08 fe ff
	ff 00		 mov	 BYTE PTR _sb_done$211026[ebp], 0
  0027a	c6 44 3d f4 00	 mov	 BYTE PTR _b_mission$211030[ebp+edi], 0
$LN54@GC_MainInf:

; 354  : 				}
; 355  : 			}
; 356  : 			pReq.ztQuest[a].b_Mission[m] = b_mission[m];

  0027f	0f b6 4c 3d f4	 movzx	 ecx, BYTE PTR _b_mission$211030[ebp+edi]

; 357  : 
; 358  : 			pReq.ztQuest[a].MissionType[m] = this->ewdata[a][n].MissionType[m];

  00284	0f b6 13	 movzx	 edx, BYTE PTR [ebx]
  00287	88 4c 3e 1b	 mov	 BYTE PTR [esi+edi+27], cl

; 359  : 			pReq.ztQuest[a].MissionID[m] = this->ewdata[a][n].MissionID[m];

  0028b	0f b7 4b 14	 movzx	 ecx, WORD PTR [ebx+20]
  0028f	88 54 3e 20	 mov	 BYTE PTR [esi+edi+32], dl

; 360  : 			pReq.ztQuest[a].MissionIndex[m] = this->ewdata[a][n].MissionIndex[m];

  00293	66 8b 53 28	 mov	 dx, WORD PTR [ebx+40]
  00297	66 89 48 f6	 mov	 WORD PTR [eax-10], cx

; 361  : 			pReq.ztQuest[a].MissionLevel[m] = this->ewdata[a][n].MissionLevel[m];

  0029b	0f b6 4b 3c	 movzx	 ecx, BYTE PTR [ebx+60]
  0029f	66 89 10	 mov	 WORD PTR [eax], dx

; 362  : 			pReq.ztQuest[a].MissionLuck[m] = this->ewdata[a][n].MissionLuck[m];

  002a2	0f b6 53 50	 movzx	 edx, BYTE PTR [ebx+80]
  002a6	88 4c 3e 39	 mov	 BYTE PTR [esi+edi+57], cl

; 363  : 			pReq.ztQuest[a].MissionOpt[m] = this->ewdata[a][n].MissionOpt[m];

  002aa	0f b6 4b 64	 movzx	 ecx, BYTE PTR [ebx+100]
  002ae	88 54 3e 3e	 mov	 BYTE PTR [esi+edi+62], dl

; 364  : 			pReq.ztQuest[a].MissionExl[m] = this->ewdata[a][n].MissionExl[m];

  002b2	0f b6 53 78	 movzx	 edx, BYTE PTR [ebx+120]
  002b6	88 4c 3e 43	 mov	 BYTE PTR [esi+edi+67], cl

; 365  : 			pReq.ztQuest[a].MissionCount[m] = this->ewdata[a][n].MissionCount[m];

  002ba	0f b7 8b 8c 00
	00 00		 movzx	 ecx, WORD PTR [ebx+140]
  002c1	88 54 3e 48	 mov	 BYTE PTR [esi+edi+72], dl

; 366  : 			pReq.ztQuest[a].MissionProcent[m] = this->ewdata[a][n].MissionProcent[m];

  002c5	0f b6 93 a0 00
	00 00		 movzx	 edx, BYTE PTR [ebx+160]
  002cc	66 89 48 1e	 mov	 WORD PTR [eax+30], cx
  002d0	88 54 3e 57	 mov	 BYTE PTR [esi+edi+87], dl
  002d4	47		 inc	 edi
  002d5	83 c0 02	 add	 eax, 2
  002d8	83 c3 04	 add	 ebx, 4
  002db	89 85 00 fe ff
	ff		 mov	 DWORD PTR tv1531[ebp], eax
  002e1	83 ff 05	 cmp	 edi, 5
  002e4	0f 8c 38 ff ff
	ff		 jl	 $LL15@GC_MainInf

; 367  : 		}
; 368  : 		// -> reward send
; 369  : 		for(int r = 0; r < EW_MAX_REWARD; r++)

  002ea	8b 85 d8 fd ff
	ff		 mov	 eax, DWORD PTR tv3179[ebp]
  002f0	8d 4e 71	 lea	 ecx, DWORD PTR [esi+113]
  002f3	8d 56 65	 lea	 edx, DWORD PTR [esi+101]
  002f6	05 fc 00 00 00	 add	 eax, 252		; 000000fcH
  002fb	bf 03 00 00 00	 mov	 edi, 3
$LL6@GC_MainInf:

; 370  : 		{
; 371  : 			pReq.ztQuest[a].RewardType[r] = this->ewdata[a][n].RewardType[r];

  00300	0f b7 58 f4	 movzx	 ebx, WORD PTR [eax-12]
  00304	66 89 59 ec	 mov	 WORD PTR [ecx-20], bx

; 372  : 			pReq.ztQuest[a].RewardCount[r] = this->ewdata[a][n].RewardCount[r];

  00308	8b 18		 mov	 ebx, DWORD PTR [eax]
  0030a	89 1a		 mov	 DWORD PTR [edx], ebx

; 373  : 			pReq.ztQuest[a].RewardItemType[r] = this->ewdata[a][n].RewardItemType[r];

  0030c	0f b7 58 0c	 movzx	 ebx, WORD PTR [eax+12]
  00310	66 89 19	 mov	 WORD PTR [ecx], bx

; 374  : 			pReq.ztQuest[a].RewardItemIndex[r] = this->ewdata[a][n].RewardItemIndex[r];

  00313	0f b7 58 18	 movzx	 ebx, WORD PTR [eax+24]
  00317	66 89 59 06	 mov	 WORD PTR [ecx+6], bx

; 375  : 			pReq.ztQuest[a].RewardItemLevel[r] = this->ewdata[a][n].RewardItemLevel[r];

  0031b	0f b7 58 24	 movzx	 ebx, WORD PTR [eax+36]
  0031f	66 89 59 0c	 mov	 WORD PTR [ecx+12], bx
  00323	83 c0 04	 add	 eax, 4
  00326	83 c2 04	 add	 edx, 4
  00329	83 c1 02	 add	 ecx, 2
  0032c	4f		 dec	 edi
  0032d	75 d1		 jne	 SHORT $LL6@GC_MainInf

; 376  : 		}
; 377  : 		if(lpUser->ZtWQuestStart[a] == FALSE)

  0032f	8b 85 f8 fd ff
	ff		 mov	 eax, DWORD PTR _lpUser$[ebp]
  00335	8b 8d fc fd ff
	ff		 mov	 ecx, DWORD PTR _a$211021[ebp]
  0033b	80 bc 08 ec 2a
	00 00 00	 cmp	 BYTE PTR [eax+ecx+10988], 0
  00343	75 22		 jne	 SHORT $LN52@GC_MainInf

; 378  : 		{
; 379  : 			if( sb_level == false || sb_reset == false || sb_grand == false )

  00345	80 bd 0a fe ff
	ff 00		 cmp	 BYTE PTR _sb_level$211027[ebp], 0
  0034c	74 12		 je	 SHORT $LN50@GC_MainInf
  0034e	80 bd 0b fe ff
	ff 00		 cmp	 BYTE PTR _sb_reset$211028[ebp], 0
  00355	74 09		 je	 SHORT $LN50@GC_MainInf
  00357	80 bd 09 fe ff
	ff 00		 cmp	 BYTE PTR _sb_grand$211029[ebp], 0
  0035e	75 07		 jne	 SHORT $LN52@GC_MainInf
$LN50@GC_MainInf:

; 380  : 			{
; 381  : 				 sb_accept = false;

  00360	c6 85 07 fe ff
	ff 00		 mov	 BYTE PTR _sb_accept$211025[ebp], 0
$LN52@GC_MainInf:

; 382  : 			}
; 383  : 		}
; 384  : 
; 385  : 		pReq.ztQuest[a].b_done = sb_done;
; 386  : 		pReq.ztQuest[a].b_accept = sb_accept;

  00367	0f b6 85 07 fe
	ff ff		 movzx	 eax, BYTE PTR _sb_accept$211025[ebp]
  0036e	0f b6 95 08 fe
	ff ff		 movzx	 edx, BYTE PTR _sb_done$211026[ebp]

; 387  : 
; 388  : 		pReq.ztQuest[a].b_Level = sb_level;

  00375	8a 8d 0a fe ff
	ff		 mov	 cl, BYTE PTR _sb_level$211027[ebp]
  0037b	ff 85 fc fd ff
	ff		 inc	 DWORD PTR _a$211021[ebp]
  00381	83 85 dc fd ff
	ff 04		 add	 DWORD PTR tv3490[ebp], 4
  00388	83 85 e8 fd ff
	ff 02		 add	 DWORD PTR tv3488[ebp], 2
  0038f	81 85 e0 fd ff
	ff e8 03 00 00	 add	 DWORD PTR tv3103[ebp], 1000 ; 000003e8H
  00399	88 46 fe	 mov	 BYTE PTR [esi-2], al

; 389  : 		pReq.ztQuest[a].b_Reset = sb_reset;
; 390  : 		pReq.ztQuest[a].b_Grand = sb_grand;

  0039c	0f b6 85 09 fe
	ff ff		 movzx	 eax, BYTE PTR _sb_grand$211029[ebp]
  003a3	88 56 ff	 mov	 BYTE PTR [esi-1], dl
  003a6	0f b6 95 0b fe
	ff ff		 movzx	 edx, BYTE PTR _sb_reset$211028[ebp]
  003ad	88 46 17	 mov	 BYTE PTR [esi+23], al
  003b0	8b 85 ec fd ff
	ff		 mov	 eax, DWORD PTR tv3327[ebp]
  003b6	83 c0 05	 add	 eax, 5
  003b9	88 4e 0f	 mov	 BYTE PTR [esi+15], cl
  003bc	88 56 13	 mov	 BYTE PTR [esi+19], dl
  003bf	81 c6 a0 00 00
	00		 add	 esi, 160		; 000000a0H
  003c5	89 85 ec fd ff
	ff		 mov	 DWORD PTR tv3327[ebp], eax
  003cb	3d 8a 15 00 00	 cmp	 eax, 5514		; 0000158aH
  003d0	0f 8c aa fc ff
	ff		 jl	 $LL47@GC_MainInf

; 391  : 	}
; 392  : 
; 393  : 	DataSend(aIndex, (LPBYTE)&pReq, sizeof(pReq));

  003d6	8b 95 e4 fd ff
	ff		 mov	 edx, DWORD PTR _aIndex$GSCopy$[ebp]
  003dc	68 e8 01 00 00	 push	 488			; 000001e8H
  003e1	8d 8d 0c fe ff
	ff		 lea	 ecx, DWORD PTR _pReq$[ebp]
  003e7	51		 push	 ecx
  003e8	52		 push	 edx
  003e9	e8 00 00 00 00	 call	 ?DataSend@@YAHHPAEK@Z	; DataSend

; 394  : }

  003ee	8b 4d fc	 mov	 ecx, DWORD PTR __$ArrayPad$[ebp]
  003f1	83 c4 0c	 add	 esp, 12			; 0000000cH
  003f4	5f		 pop	 edi
  003f5	5e		 pop	 esi
  003f6	33 cd		 xor	 ecx, ebp
  003f8	5b		 pop	 ebx
  003f9	e8 00 00 00 00	 call	 @__security_check_cookie@4
  003fe	8b e5		 mov	 esp, ebp
  00400	5d		 pop	 ebp
  00401	c2 04 00	 ret	 4
?GC_MainInfo@ZtWinQuestSystem@@QAEXH@Z ENDP		; ZtWinQuestSystem::GC_MainInfo
_TEXT	ENDS
PUBLIC	?GC_OpenWindow@ZtWinQuestSystem@@QAEXH@Z	; ZtWinQuestSystem::GC_OpenWindow
; Function compile flags: /Ogtp
;	COMDAT ?GC_OpenWindow@ZtWinQuestSystem@@QAEXH@Z
_TEXT	SEGMENT
_aIndex$ = 8						; size = 4
?GC_OpenWindow@ZtWinQuestSystem@@QAEXH@Z PROC		; ZtWinQuestSystem::GC_OpenWindow, COMDAT
; _this$ = ecx

; 398  : {

  00000	55		 push	 ebp
  00001	8b ec		 mov	 ebp, esp
  00003	56		 push	 esi
  00004	57		 push	 edi

; 399  : 	if(!gObjIsConnectedZt(aIndex))

  00005	8b 7d 08	 mov	 edi, DWORD PTR _aIndex$[ebp]
  00008	57		 push	 edi
  00009	8b f1		 mov	 esi, ecx
  0000b	e8 00 00 00 00	 call	 ?gObjIsConnectedZt@@YA_NH@Z ; gObjIsConnectedZt
  00010	83 c4 04	 add	 esp, 4
  00013	84 c0		 test	 al, al
  00015	74 08		 je	 SHORT $LN2@GC_OpenWin

; 400  : 	{
; 401  : 		return;
; 402  : 	}
; 403  : 
; 404  : 	this->GC_MainInfo(aIndex);

  00017	57		 push	 edi
  00018	8b ce		 mov	 ecx, esi
  0001a	e8 00 00 00 00	 call	 ?GC_MainInfo@ZtWinQuestSystem@@QAEXH@Z ; ZtWinQuestSystem::GC_MainInfo
$LN2@GC_OpenWin:
  0001f	5f		 pop	 edi
  00020	5e		 pop	 esi

; 405  : }

  00021	5d		 pop	 ebp
  00022	c2 04 00	 ret	 4
?GC_OpenWindow@ZtWinQuestSystem@@QAEXH@Z ENDP		; ZtWinQuestSystem::GC_OpenWindow
_TEXT	ENDS
PUBLIC	_this$GSCopy$
PUBLIC	_aIndex$GSCopy$
PUBLIC	__$ArrayPad$
PUBLIC	?GC_MiniInfo@ZtWinQuestSystem@@QAEXH@Z		; ZtWinQuestSystem::GC_MiniInfo
; Function compile flags: /Ogtp
;	COMDAT ?GC_MiniInfo@ZtWinQuestSystem@@QAEXH@Z
_TEXT	SEGMENT
_lpUser$ = -320						; size = 4
_aIndex$GSCopy$ = -316					; size = 4
_this$GSCopy$ = -312					; size = 4
tv1465 = -308						; size = 4
tv1591 = -304						; size = 4
tv815 = -300						; size = 4
tv1556 = -296						; size = 4
_a$211078 = -292					; size = 4
_pReq$ = -288						; size = 282
__$ArrayPad$ = -4					; size = 4
_aIndex$ = 8						; size = 4
?GC_MiniInfo@ZtWinQuestSystem@@QAEXH@Z PROC		; ZtWinQuestSystem::GC_MiniInfo, COMDAT
; _this$ = ecx

; 409  : {

  00000	55		 push	 ebp
  00001	8b ec		 mov	 ebp, esp
  00003	81 ec 40 01 00
	00		 sub	 esp, 320		; 00000140H
  00009	a1 00 00 00 00	 mov	 eax, DWORD PTR ___security_cookie
  0000e	33 c5		 xor	 eax, ebp
  00010	89 45 fc	 mov	 DWORD PTR __$ArrayPad$[ebp], eax
  00013	53		 push	 ebx
  00014	56		 push	 esi
  00015	57		 push	 edi
  00016	8b 7d 08	 mov	 edi, DWORD PTR _aIndex$[ebp]

; 410  : 	LPOBJ lpUser = &gObj[aIndex];

  00019	89 bd c4 fe ff
	ff		 mov	 DWORD PTR _aIndex$GSCopy$[ebp], edi
  0001f	69 ff 50 2b 00
	00		 imul	 edi, 11088		; 00002b50H
  00025	03 3d 00 00 00
	00		 add	 edi, DWORD PTR ?gObj@@3PAUOBJECTSTRUCT@@A ; gObj

; 411  : 
; 412  : 	GC_ZtWinMiniInfo pReq = { 0 };

  0002b	68 19 01 00 00	 push	 281			; 00000119H
  00030	33 f6		 xor	 esi, esi
  00032	8d 85 e1 fe ff
	ff		 lea	 eax, DWORD PTR _pReq$[ebp+1]
  00038	56		 push	 esi
  00039	50		 push	 eax
  0003a	89 8d c8 fe ff
	ff		 mov	 DWORD PTR _this$GSCopy$[ebp], ecx
  00040	89 bd c0 fe ff
	ff		 mov	 DWORD PTR _lpUser$[ebp], edi
  00046	e8 00 00 00 00	 call	 _memset

; 418  : 	{
; 419  : 		n = lpUser->ZtWQuestNum[a];

  0004b	8d 8f f0 2a 00
	00		 lea	 ecx, DWORD PTR [edi+10992]
  00051	83 c4 0c	 add	 esp, 12			; 0000000cH
  00054	c7 85 e0 fe ff
	ff c2 01 1a fa	 mov	 DWORD PTR _pReq$[ebp], -98958910 ; fa1a01c2H
  0005e	c6 85 e4 fe ff
	ff cd		 mov	 BYTE PTR _pReq$[ebp+4], 205 ; 000000cdH
  00065	89 b5 dc fe ff
	ff		 mov	 DWORD PTR _a$211078[ebp], esi
  0006b	89 b5 cc fe ff
	ff		 mov	 DWORD PTR tv1465[ebp], esi
  00071	c7 85 d8 fe ff
	ff 7b 15 00 00	 mov	 DWORD PTR tv1556[ebp], 5499 ; 0000157bH
  0007b	8d 9d ff fe ff
	ff		 lea	 ebx, DWORD PTR _pReq$[ebp+31]
  00081	89 8d d0 fe ff
	ff		 mov	 DWORD PTR tv1591[ebp], ecx
  00087	eb 0d		 jmp	 SHORT $LN10@GC_MiniInf@2
  00089	8d a4 24 00 00
	00 00		 npad	 7
$LL19@GC_MiniInf@2:
  00090	8b bd c0 fe ff
	ff		 mov	 edi, DWORD PTR _lpUser$[ebp]
$LN10@GC_MiniInf@2:
  00096	8b 95 d0 fe ff
	ff		 mov	 edx, DWORD PTR tv1591[ebp]
  0009c	0f b7 02	 movzx	 eax, WORD PTR [edx]

; 420  : 		strncpy(pReq.ztQuest[a].NameQuest, this->ewdata[a][n].NameQuest, 25);

  0009f	8b b5 cc fe ff
	ff		 mov	 esi, DWORD PTR tv1465[ebp]
  000a5	03 f0		 add	 esi, eax
  000a7	69 f6 18 01 00
	00		 imul	 esi, 280		; 00000118H
  000ad	03 b5 c8 fe ff
	ff		 add	 esi, DWORD PTR _this$GSCopy$[ebp]
  000b3	6a 19		 push	 25			; 00000019H
  000b5	8d 46 14	 lea	 eax, DWORD PTR [esi+20]
  000b8	50		 push	 eax
  000b9	8d 4b e7	 lea	 ecx, DWORD PTR [ebx-25]
  000bc	51		 push	 ecx
  000bd	e8 00 00 00 00	 call	 _strncpy

; 421  : 		pReq.ztQuest[a].Start = lpUser->ZtWQuestStart[a];

  000c2	8b 95 dc fe ff
	ff		 mov	 edx, DWORD PTR _a$211078[ebp]
  000c8	8a 84 17 ec 2a
	00 00		 mov	 al, BYTE PTR [edi+edx+10988]
  000cf	88 03		 mov	 BYTE PTR [ebx], al
  000d1	8d 43 01	 lea	 eax, DWORD PTR [ebx+1]
  000d4	83 c4 0c	 add	 esp, 12			; 0000000cH

; 422  : 
; 423  : 		for(int m = 0; m < EW_MAX_MISSION; m++)

  000d7	33 ff		 xor	 edi, edi
  000d9	83 c6 3c	 add	 esi, 60			; 0000003cH
  000dc	89 85 d4 fe ff
	ff		 mov	 DWORD PTR tv815[ebp], eax
$LL7@GC_MiniInf@2:

; 424  : 		{
; 425  : 			if(this->ewdata[a][n].MissionType[m] == Hunting || this->ewdata[a][n].MissionType[m] == Droping)

  000e2	8b 0e		 mov	 ecx, DWORD PTR [esi]
  000e4	83 f9 01	 cmp	 ecx, 1
  000e7	74 34		 je	 SHORT $LN20@GC_MiniInf@2
  000e9	83 f9 02	 cmp	 ecx, 2
  000ec	74 2f		 je	 SHORT $LN20@GC_MiniInf@2

; 428  : 			}
; 429  : 			else if(this->ewdata[a][n].MissionType[m] == Searching)

  000ee	83 f9 03	 cmp	 ecx, 3
  000f1	75 3f		 jne	 SHORT $LN1@GC_MiniInf@2

; 430  : 			{
; 431  : 				pReq.ztQuest[a].ZtWQuestCount[m] = this->SearchItem(aIndex, a, m);

  000f3	8b 8d dc fe ff
	ff		 mov	 ecx, DWORD PTR _a$211078[ebp]
  000f9	8b 95 c4 fe ff
	ff		 mov	 edx, DWORD PTR _aIndex$GSCopy$[ebp]
  000ff	57		 push	 edi
  00100	51		 push	 ecx
  00101	8b 8d c8 fe ff
	ff		 mov	 ecx, DWORD PTR _this$GSCopy$[ebp]
  00107	52		 push	 edx
  00108	e8 00 00 00 00	 call	 ?SearchItem@ZtWinQuestSystem@@QAE_NHHH@Z ; ZtWinQuestSystem::SearchItem
  0010d	8b 8d d4 fe ff
	ff		 mov	 ecx, DWORD PTR tv815[ebp]
  00113	0f b6 c0	 movzx	 eax, al
  00116	66 89 01	 mov	 WORD PTR [ecx], ax
  00119	8b c1		 mov	 eax, ecx
  0011b	eb 15		 jmp	 SHORT $LN1@GC_MiniInf@2
$LN20@GC_MiniInf@2:

; 426  : 			{
; 427  : 				pReq.ztQuest[a].ZtWQuestCount[m] = lpUser->ZtWQuestCount[a][m];

  0011d	8b 95 d8 fe ff
	ff		 mov	 edx, DWORD PTR tv1556[ebp]
  00123	8b 8d c0 fe ff
	ff		 mov	 ecx, DWORD PTR _lpUser$[ebp]
  00129	03 d7		 add	 edx, edi
  0012b	66 8b 14 51	 mov	 dx, WORD PTR [ecx+edx*2]
  0012f	66 89 10	 mov	 WORD PTR [eax], dx
$LN1@GC_MiniInf@2:

; 432  : 			}
; 433  : 
; 434  : 			pReq.ztQuest[a].MissionType[m] = this->ewdata[a][n].MissionType[m];

  00132	0f b6 0e	 movzx	 ecx, BYTE PTR [esi]

; 435  : 			pReq.ztQuest[a].MissionID[m] = this->ewdata[a][n].MissionID[m];

  00135	0f b7 56 14	 movzx	 edx, WORD PTR [esi+20]
  00139	88 4c 3b 0b	 mov	 BYTE PTR [ebx+edi+11], cl

; 436  : 			pReq.ztQuest[a].MissionIndex[m] = this->ewdata[a][n].MissionIndex[m];

  0013d	66 8b 4e 28	 mov	 cx, WORD PTR [esi+40]
  00141	66 89 50 10	 mov	 WORD PTR [eax+16], dx

; 437  : 			pReq.ztQuest[a].MissionLevel[m] = this->ewdata[a][n].MissionLevel[m];

  00145	0f b6 56 3c	 movzx	 edx, BYTE PTR [esi+60]
  00149	66 89 48 1a	 mov	 WORD PTR [eax+26], cx

; 438  : 			pReq.ztQuest[a].MissionLuck[m] = this->ewdata[a][n].MissionLuck[m];

  0014d	0f b6 4e 50	 movzx	 ecx, BYTE PTR [esi+80]
  00151	88 54 3b 25	 mov	 BYTE PTR [ebx+edi+37], dl

; 439  : 			pReq.ztQuest[a].MissionOpt[m] = this->ewdata[a][n].MissionOpt[m];

  00155	0f b6 56 64	 movzx	 edx, BYTE PTR [esi+100]
  00159	88 4c 3b 2a	 mov	 BYTE PTR [ebx+edi+42], cl

; 440  : 			pReq.ztQuest[a].MissionExl[m] = this->ewdata[a][n].MissionExl[m];

  0015d	0f b6 4e 78	 movzx	 ecx, BYTE PTR [esi+120]
  00161	88 54 3b 2f	 mov	 BYTE PTR [ebx+edi+47], dl

; 441  : 			pReq.ztQuest[a].MissionCount[m] = this->ewdata[a][n].MissionCount[m];

  00165	0f b7 96 8c 00
	00 00		 movzx	 edx, WORD PTR [esi+140]
  0016c	88 4c 3b 34	 mov	 BYTE PTR [ebx+edi+52], cl
  00170	66 89 50 38	 mov	 WORD PTR [eax+56], dx
  00174	47		 inc	 edi
  00175	83 c0 02	 add	 eax, 2
  00178	83 c6 04	 add	 esi, 4
  0017b	89 85 d4 fe ff
	ff		 mov	 DWORD PTR tv815[ebp], eax
  00181	83 ff 05	 cmp	 edi, 5
  00184	0f 8c 58 ff ff
	ff		 jl	 $LL7@GC_MiniInf@2

; 413  : 	pReq.h.set((LPBYTE)&pReq, 0xFA, 0xCD, sizeof(pReq));
; 414  : 
; 415  : 	int n = 0;
; 416  : 
; 417  : 	for(int a = 0; a < EW_MAX_ACT; a++)

  0018a	8b 85 d8 fe ff
	ff		 mov	 eax, DWORD PTR tv1556[ebp]
  00190	ff 85 dc fe ff
	ff		 inc	 DWORD PTR _a$211078[ebp]
  00196	83 85 d0 fe ff
	ff 02		 add	 DWORD PTR tv1591[ebp], 2
  0019d	81 85 cc fe ff
	ff e8 03 00 00	 add	 DWORD PTR tv1465[ebp], 1000 ; 000003e8H
  001a7	83 c0 05	 add	 eax, 5
  001aa	83 c3 5c	 add	 ebx, 92			; 0000005cH
  001ad	89 85 d8 fe ff
	ff		 mov	 DWORD PTR tv1556[ebp], eax
  001b3	3d 8a 15 00 00	 cmp	 eax, 5514		; 0000158aH
  001b8	0f 8c d2 fe ff
	ff		 jl	 $LL19@GC_MiniInf@2

; 442  : 		}
; 443  : 	}
; 444  : 
; 445  : 	DataSend(aIndex, (LPBYTE)&pReq, sizeof(pReq));

  001be	8b 8d c4 fe ff
	ff		 mov	 ecx, DWORD PTR _aIndex$GSCopy$[ebp]
  001c4	68 1a 01 00 00	 push	 282			; 0000011aH
  001c9	8d 85 e0 fe ff
	ff		 lea	 eax, DWORD PTR _pReq$[ebp]
  001cf	50		 push	 eax
  001d0	51		 push	 ecx
  001d1	e8 00 00 00 00	 call	 ?DataSend@@YAHHPAEK@Z	; DataSend

; 446  : }

  001d6	8b 4d fc	 mov	 ecx, DWORD PTR __$ArrayPad$[ebp]
  001d9	83 c4 0c	 add	 esp, 12			; 0000000cH
  001dc	5f		 pop	 edi
  001dd	5e		 pop	 esi
  001de	33 cd		 xor	 ecx, ebp
  001e0	5b		 pop	 ebx
  001e1	e8 00 00 00 00	 call	 @__security_check_cookie@4
  001e6	8b e5		 mov	 esp, ebp
  001e8	5d		 pop	 ebp
  001e9	c2 04 00	 ret	 4
?GC_MiniInfo@ZtWinQuestSystem@@QAEXH@Z ENDP		; ZtWinQuestSystem::GC_MiniInfo
_TEXT	ENDS
PUBLIC	?MonsterKiller@ZtWinQuestSystem@@QAE_NHH@Z	; ZtWinQuestSystem::MonsterKiller
; Function compile flags: /Ogtp
;	COMDAT ?MonsterKiller@ZtWinQuestSystem@@QAE_NHH@Z
_TEXT	SEGMENT
tv664 = -36						; size = 4
tv734 = -32						; size = 4
tv747 = -28						; size = 4
_lpUser$ = -24						; size = 4
tv717 = -20						; size = 4
tv649 = -16						; size = 4
_a$211135 = -12						; size = 4
_lpMonster$ = -8					; size = 4
_Result$ = -1						; size = 1
_aIndexMonster$ = 8					; size = 4
_aIndexUser$ = 12					; size = 4
?MonsterKiller@ZtWinQuestSystem@@QAE_NHH@Z PROC		; ZtWinQuestSystem::MonsterKiller, COMDAT
; _this$ = ecx

; 514  : {

  00000	55		 push	 ebp
  00001	8b ec		 mov	 ebp, esp
  00003	83 ec 24	 sub	 esp, 36			; 00000024H
  00006	57		 push	 edi
  00007	8b f9		 mov	 edi, ecx

; 515  : 	bool Result = false;
; 516  : 
; 517  : 	if(!this->Enable)

  00009	80 3f 00	 cmp	 BYTE PTR [edi], 0
  0000c	c6 45 ff 00	 mov	 BYTE PTR _Result$[ebp], 0
  00010	75 09		 jne	 SHORT $LN23@MonsterKil

; 518  : 	{
; 519  :  		return Result;

  00012	32 c0		 xor	 al, al
  00014	5f		 pop	 edi

; 585  : 	}
; 586  : #endif
; 587  : 
; 588  : 	return Result;
; 589  : }

  00015	8b e5		 mov	 esp, ebp
  00017	5d		 pop	 ebp
  00018	c2 08 00	 ret	 8
$LN23@MonsterKil:

; 520  : 	}
; 521  : 
; 522  : 	LPOBJ lpUser = &gObj[aIndexUser];

  0001b	8b 55 0c	 mov	 edx, DWORD PTR _aIndexUser$[ebp]

; 523  : 	LPOBJ lpMonster = &gObj[aIndexMonster];

  0001e	8b 45 08	 mov	 eax, DWORD PTR _aIndexMonster$[ebp]
  00021	69 d2 50 2b 00
	00		 imul	 edx, 11088		; 00002b50H
  00027	8b 0d 00 00 00
	00		 mov	 ecx, DWORD PTR ?gObj@@3PAUOBJECTSTRUCT@@A ; gObj
  0002d	69 c0 50 2b 00
	00		 imul	 eax, 11088		; 00002b50H
  00033	03 d1		 add	 edx, ecx
  00035	03 c1		 add	 eax, ecx
  00037	53		 push	 ebx

; 524  : 
; 525  : 	int n = 0;
; 526  : 
; 527  : 	for(int a = 0; a < EW_MAX_ACT; a++)

  00038	33 db		 xor	 ebx, ebx
  0003a	8d 8a f0 2a 00
	00		 lea	 ecx, DWORD PTR [edx+10992]
  00040	56		 push	 esi
  00041	89 55 e8	 mov	 DWORD PTR _lpUser$[ebp], edx
  00044	89 45 f8	 mov	 DWORD PTR _lpMonster$[ebp], eax
  00047	89 5d f4	 mov	 DWORD PTR _a$211135[ebp], ebx
  0004a	89 5d dc	 mov	 DWORD PTR tv664[ebp], ebx
  0004d	c7 45 ec 7b 15
	00 00		 mov	 DWORD PTR tv717[ebp], 5499 ; 0000157bH
  00054	89 4d e4	 mov	 DWORD PTR tv747[ebp], ecx
  00057	eb 07 8d a4 24
	00 00 00 00	 npad	 9
$LL22@MonsterKil:

; 528  : 	{
; 529  : 		n = lpUser->ZtWQuestNum[a];
; 530  : 
; 531  : 		if(lpUser->ZtWQuestStart[a] == TRUE)

  00060	8b 75 f4	 mov	 esi, DWORD PTR _a$211135[ebp]
  00063	80 bc 32 ec 2a
	00 00 01	 cmp	 BYTE PTR [edx+esi+10988], 1
  0006b	8b 4d e4	 mov	 ecx, DWORD PTR tv747[ebp]
  0006e	0f b7 09	 movzx	 ecx, WORD PTR [ecx]
  00071	0f 85 8a 01 00
	00		 jne	 $LN21@MonsterKil

; 532  : 		{
; 533  : 			for(int m = 0; m < EW_MAX_MISSION; m++)

  00077	03 d9		 add	 ebx, ecx
  00079	33 f6		 xor	 esi, esi
  0007b	6b db 46	 imul	 ebx, 70			; 00000046H
  0007e	8d 4c 9f 3c	 lea	 ecx, DWORD PTR [edi+ebx*4+60]
  00082	89 4d f0	 mov	 DWORD PTR tv649[ebp], ecx
  00085	eb 09 8d a4 24
	00 00 00 00 8b
	ff		 npad	 11
$LL18@MonsterKil:

; 534  : 			{
; 535  : 				// -> Monsterr Mission
; 536  : 				if(this->ewdata[a][n].MissionType[m] == Hunting)

  00090	8b 4d f0	 mov	 ecx, DWORD PTR tv649[ebp]
  00093	83 39 01	 cmp	 DWORD PTR [ecx], 1
  00096	0f 85 87 00 00
	00		 jne	 $LN35@MonsterKil

; 537  : 				{
; 538  : 					if(this->ewdata[a][n].MissionCount[m] > lpUser->ZtWQuestCount[a][m])

  0009c	8b 4d ec	 mov	 ecx, DWORD PTR tv717[ebp]
  0009f	03 ce		 add	 ecx, esi
  000a1	8d 0c 4a	 lea	 ecx, DWORD PTR [edx+ecx*2]
  000a4	89 4d e0	 mov	 DWORD PTR tv734[ebp], ecx
  000a7	0f b7 09	 movzx	 ecx, WORD PTR [ecx]
  000aa	8d 14 33	 lea	 edx, DWORD PTR [ebx+esi]
  000ad	39 8c 97 c8 00
	00 00		 cmp	 DWORD PTR [edi+edx*4+200], ecx
  000b4	7e 6d		 jle	 SHORT $LN35@MonsterKil

; 539  : 					{
; 540  : 						if( this->ewdata[a][n].MissionLuck[m] == lpMonster->MapNumber ||  this->ewdata[a][n].MissionLuck[m] == -1 )

  000b6	8d 14 33	 lea	 edx, DWORD PTR [ebx+esi]
  000b9	8b 8c 97 8c 00
	00 00		 mov	 ecx, DWORD PTR [edi+edx*4+140]
  000c0	0f b6 90 49 01
	00 00		 movzx	 edx, BYTE PTR [eax+329]
  000c7	3b ca		 cmp	 ecx, edx
  000c9	74 05		 je	 SHORT $LN30@MonsterKil
  000cb	83 f9 ff	 cmp	 ecx, -1
  000ce	75 53		 jne	 SHORT $LN35@MonsterKil
$LN30@MonsterKil:

; 541  : 						{
; 542  : 							if(this->ewdata[a][n].MissionID[m] == lpMonster->Class)	// ? ? 

  000d0	0f b7 90 b8 00
	00 00		 movzx	 edx, WORD PTR [eax+184]
  000d7	8d 0c 33	 lea	 ecx, DWORD PTR [ebx+esi]
  000da	8b 4c 8f 50	 mov	 ecx, DWORD PTR [edi+ecx*4+80]
  000de	3b ca		 cmp	 ecx, edx

; 543  : 							{
; 544  : 								lpUser->ZtWQuestCount[a][m]++;
; 545  : 								this->GC_MiniInfoZt(aIndexUser, a, m);

  000e0	74 24		 je	 SHORT $LN40@MonsterKil

; 546  : 							}
; 547  : 							else if(this->ewdata[a][n].MissionID[m] == -1)	// ? ? 

  000e2	83 f9 ff	 cmp	 ecx, -1
  000e5	75 3c		 jne	 SHORT $LN35@MonsterKil

; 548  : 							{
; 549  : 								if(lpMonster->Level >= this->ewdata[a][n].MissionOpt[m] && lpMonster->Level <= this->ewdata[a][n].MissionExl[m])

  000e7	0f bf 88 be 00
	00 00		 movsx	 ecx, WORD PTR [eax+190]
  000ee	8d 14 33	 lea	 edx, DWORD PTR [ebx+esi]
  000f1	3b 8c 97 a0 00
	00 00		 cmp	 ecx, DWORD PTR [edi+edx*4+160]
  000f8	7c 29		 jl	 SHORT $LN35@MonsterKil
  000fa	8d 14 33	 lea	 edx, DWORD PTR [ebx+esi]
  000fd	3b 8c 97 b4 00
	00 00		 cmp	 ecx, DWORD PTR [edi+edx*4+180]
  00104	7f 1d		 jg	 SHORT $LN35@MonsterKil
$LN40@MonsterKil:

; 550  : 								{
; 551  : 									lpUser->ZtWQuestCount[a][m]++;

  00106	8b 45 e0	 mov	 eax, DWORD PTR tv734[ebp]
  00109	0f b7 08	 movzx	 ecx, WORD PTR [eax]
  0010c	41		 inc	 ecx
  0010d	66 89 08	 mov	 WORD PTR [eax], cx

; 552  : 									this->GC_MiniInfoZt(aIndexUser, a, m);

  00110	8b 45 f4	 mov	 eax, DWORD PTR _a$211135[ebp]
  00113	8b 4d 0c	 mov	 ecx, DWORD PTR _aIndexUser$[ebp]
  00116	56		 push	 esi
  00117	50		 push	 eax
  00118	51		 push	 ecx
  00119	8b cf		 mov	 ecx, edi
  0011b	e8 00 00 00 00	 call	 ?GC_MiniInfoZt@ZtWinQuestSystem@@QAEXHHH@Z ; ZtWinQuestSystem::GC_MiniInfoZt
  00120	8b 45 f8	 mov	 eax, DWORD PTR _lpMonster$[ebp]
$LN35@MonsterKil:

; 553  : 								}
; 554  : 							}
; 555  : 						}
; 556  : 					}
; 557  : 				}
; 558  : 				// -> Drop Mission
; 559  : 				if( this->ewdata[a][n].MissionType[m] == Droping )

  00123	8b 55 f0	 mov	 edx, DWORD PTR tv649[ebp]
  00126	83 3a 02	 cmp	 DWORD PTR [edx], 2
  00129	0f 85 c1 00 00
	00		 jne	 $LN17@MonsterKil

; 560  : 				{
; 561  : 					if( this->ewdata[a][n].MissionCount[m] > lpUser->ZtWQuestCount[a][m] )

  0012f	8b 4d ec	 mov	 ecx, DWORD PTR tv717[ebp]
  00132	8b 55 e8	 mov	 edx, DWORD PTR _lpUser$[ebp]
  00135	03 ce		 add	 ecx, esi
  00137	0f b7 0c 4a	 movzx	 ecx, WORD PTR [edx+ecx*2]
  0013b	8d 14 33	 lea	 edx, DWORD PTR [ebx+esi]
  0013e	39 8c 97 c8 00
	00 00		 cmp	 DWORD PTR [edi+edx*4+200], ecx
  00145	0f 8e a5 00 00
	00		 jle	 $LN17@MonsterKil

; 562  : 					{
; 563  : 						if( this->ewdata[a][n].MissionLuck[m] == lpMonster->MapNumber ||  this->ewdata[a][n].MissionLuck[m] == -1 )

  0014b	0f b6 90 49 01
	00 00		 movzx	 edx, BYTE PTR [eax+329]
  00152	8d 0c 33	 lea	 ecx, DWORD PTR [ebx+esi]
  00155	8b 8c 8f 8c 00
	00 00		 mov	 ecx, DWORD PTR [edi+ecx*4+140]
  0015c	3b ca		 cmp	 ecx, edx
  0015e	74 09		 je	 SHORT $LN4@MonsterKil
  00160	83 f9 ff	 cmp	 ecx, -1
  00163	0f 85 87 00 00
	00		 jne	 $LN17@MonsterKil
$LN4@MonsterKil:

; 564  : 						{
; 565  : 							if(lpMonster->Level >= this->ewdata[a][n].MissionOpt[m] && lpMonster->Level <= this->ewdata[a][n].MissionExl[m])

  00169	0f bf 88 be 00
	00 00		 movsx	 ecx, WORD PTR [eax+190]
  00170	8d 14 33	 lea	 edx, DWORD PTR [ebx+esi]
  00173	3b 8c 97 a0 00
	00 00		 cmp	 ecx, DWORD PTR [edi+edx*4+160]
  0017a	7c 74		 jl	 SHORT $LN17@MonsterKil
  0017c	8d 14 33	 lea	 edx, DWORD PTR [ebx+esi]
  0017f	3b 8c 97 b4 00
	00 00		 cmp	 ecx, DWORD PTR [edi+edx*4+180]
  00186	7f 68		 jg	 SHORT $LN17@MonsterKil

; 566  : 							{
; 567  : 								if ( (rand()%100) < this->ewdata[a][n].MissionProcent[m] )

  00188	e8 00 00 00 00	 call	 _rand
  0018d	99		 cdq
  0018e	b9 64 00 00 00	 mov	 ecx, 100		; 00000064H
  00193	f7 f9		 idiv	 ecx
  00195	8d 04 33	 lea	 eax, DWORD PTR [ebx+esi]
  00198	3b 94 87 dc 00
	00 00		 cmp	 edx, DWORD PTR [edi+eax*4+220]
  0019f	7d 4c		 jge	 SHORT $LN32@MonsterKil

; 568  : 								{
; 569  : 									int ItemType = ITEMGET(this->ewdata[a][n].MissionID[m], this->ewdata[a][n].MissionIndex[m]);
; 570  : 									ItemSerialCreateSend(aIndexUser,lpMonster->MapNumber,lpMonster->X,lpMonster->Y,ItemType,0,0,0,0,0,aIndexUser,0,0);

  001a1	8b 4d 0c	 mov	 ecx, DWORD PTR _aIndexUser$[ebp]
  001a4	6a 00		 push	 0
  001a6	6a 00		 push	 0
  001a8	51		 push	 ecx
  001a9	6a 00		 push	 0
  001ab	6a 00		 push	 0
  001ad	6a 00		 push	 0
  001af	8d 14 33	 lea	 edx, DWORD PTR [ebx+esi]
  001b2	8b 44 97 50	 mov	 eax, DWORD PTR [edi+edx*4+80]
  001b6	6a 00		 push	 0
  001b8	c1 e0 09	 shl	 eax, 9
  001bb	6a 00		 push	 0
  001bd	8d 14 33	 lea	 edx, DWORD PTR [ebx+esi]
  001c0	03 44 97 64	 add	 eax, DWORD PTR [edi+edx*4+100]
  001c4	50		 push	 eax
  001c5	8b 45 f8	 mov	 eax, DWORD PTR _lpMonster$[ebp]
  001c8	0f b6 90 46 01
	00 00		 movzx	 edx, BYTE PTR [eax+326]
  001cf	52		 push	 edx
  001d0	0f b6 90 44 01
	00 00		 movzx	 edx, BYTE PTR [eax+324]
  001d7	0f b6 80 49 01
	00 00		 movzx	 eax, BYTE PTR [eax+329]
  001de	52		 push	 edx
  001df	50		 push	 eax
  001e0	51		 push	 ecx
  001e1	e8 00 00 00 00	 call	 ?ItemSerialCreateSend@@YAXHEEEHEEEEEHEE@Z ; ItemSerialCreateSend
  001e6	83 c4 34	 add	 esp, 52			; 00000034H

; 571  : 									Result = true;

  001e9	c6 45 ff 01	 mov	 BYTE PTR _Result$[ebp], 1
$LN32@MonsterKil:
  001ed	8b 45 f8	 mov	 eax, DWORD PTR _lpMonster$[ebp]
$LN17@MonsterKil:

; 532  : 		{
; 533  : 			for(int m = 0; m < EW_MAX_MISSION; m++)

  001f0	83 45 f0 04	 add	 DWORD PTR tv649[ebp], 4
  001f4	8b 55 e8	 mov	 edx, DWORD PTR _lpUser$[ebp]
  001f7	46		 inc	 esi
  001f8	83 fe 05	 cmp	 esi, 5
  001fb	0f 8c 8f fe ff
	ff		 jl	 $LL18@MonsterKil
$LN21@MonsterKil:

; 524  : 
; 525  : 	int n = 0;
; 526  : 
; 527  : 	for(int a = 0; a < EW_MAX_ACT; a++)

  00201	8b 4d ec	 mov	 ecx, DWORD PTR tv717[ebp]
  00204	8b 5d dc	 mov	 ebx, DWORD PTR tv664[ebp]
  00207	ff 45 f4	 inc	 DWORD PTR _a$211135[ebp]
  0020a	83 45 e4 02	 add	 DWORD PTR tv747[ebp], 2
  0020e	83 c1 05	 add	 ecx, 5
  00211	81 c3 e8 03 00
	00		 add	 ebx, 1000		; 000003e8H
  00217	89 5d dc	 mov	 DWORD PTR tv664[ebp], ebx
  0021a	89 4d ec	 mov	 DWORD PTR tv717[ebp], ecx
  0021d	81 f9 8a 15 00
	00		 cmp	 ecx, 5514		; 0000158aH
  00223	0f 8c 37 fe ff
	ff		 jl	 $LL22@MonsterKil

; 572  : 								}
; 573  : 							}
; 574  : 						}
; 575  : 					}
; 576  : 				}
; 577  : 			}
; 578  : 		}
; 579  : 	}
; 580  : 
; 581  : #if(EW_NEW_DROP==TRUE)
; 582  : 	if(this->NewDrop(aIndexUser, aIndexMonster))

  00229	8b 4d 08	 mov	 ecx, DWORD PTR _aIndexMonster$[ebp]
  0022c	8b 55 0c	 mov	 edx, DWORD PTR _aIndexUser$[ebp]
  0022f	51		 push	 ecx
  00230	52		 push	 edx
  00231	8b cf		 mov	 ecx, edi
  00233	e8 00 00 00 00	 call	 ?NewDrop@ZtWinQuestSystem@@QAE_NHH@Z ; ZtWinQuestSystem::NewDrop
  00238	5e		 pop	 esi
  00239	84 c0		 test	 al, al
  0023b	5b		 pop	 ebx

; 583  : 	{
; 584  : 		Result = true;

  0023c	b0 01		 mov	 al, 1
  0023e	75 03		 jne	 SHORT $LN24@MonsterKil
  00240	8a 45 ff	 mov	 al, BYTE PTR _Result$[ebp]
$LN24@MonsterKil:
  00243	5f		 pop	 edi

; 585  : 	}
; 586  : #endif
; 587  : 
; 588  : 	return Result;
; 589  : }

  00244	8b e5		 mov	 esp, ebp
  00246	5d		 pop	 ebp
  00247	c2 08 00	 ret	 8
?MonsterKiller@ZtWinQuestSystem@@QAE_NHH@Z ENDP		; ZtWinQuestSystem::MonsterKiller
_TEXT	ENDS
PUBLIC	?UserConnect@ZtWinQuestSystem@@QAEXH@Z		; ZtWinQuestSystem::UserConnect
; Function compile flags: /Ogtp
;	COMDAT ?UserConnect@ZtWinQuestSystem@@QAEXH@Z
_TEXT	SEGMENT
_aIndex$ = 8						; size = 4
?UserConnect@ZtWinQuestSystem@@QAEXH@Z PROC		; ZtWinQuestSystem::UserConnect, COMDAT
; _this$ = ecx

; 716  : {

  00000	55		 push	 ebp
  00001	8b ec		 mov	 ebp, esp

; 717  : 	LPOBJ lpUser = &gObj[aIndex];

  00003	8b 45 08	 mov	 eax, DWORD PTR _aIndex$[ebp]
  00006	56		 push	 esi
  00007	8b f0		 mov	 esi, eax
  00009	69 f6 50 2b 00
	00		 imul	 esi, 11088		; 00002b50H
  0000f	03 35 00 00 00
	00		 add	 esi, DWORD PTR ?gObj@@3PAUOBJECTSTRUCT@@A ; gObj

; 718  : 
; 719  : 	this->GC_MiniInfo(aIndex);

  00015	50		 push	 eax
  00016	e8 00 00 00 00	 call	 ?GC_MiniInfo@ZtWinQuestSystem@@QAEXH@Z ; ZtWinQuestSystem::GC_MiniInfo

; 720  : 
; 721  : 	for(int a = 0; a < EW_MAX_ACT; a++)

  0001b	33 c0		 xor	 eax, eax
  0001d	b9 01 00 00 00	 mov	 ecx, 1
$LL4@UserConnec:

; 722  : 	{
; 723  : 		if(lpUser->ZtWQuestNum[a] >= 0 && lpUser->ZtWQuestStart[a] == true)

  00022	38 8c 06 ec 2a
	00 00		 cmp	 BYTE PTR [esi+eax+10988], cl
  00029	74 07		 je	 SHORT $LN8@UserConnec

; 720  : 
; 721  : 	for(int a = 0; a < EW_MAX_ACT; a++)

  0002b	03 c1		 add	 eax, ecx
  0002d	83 f8 03	 cmp	 eax, 3
  00030	7c f0		 jl	 SHORT $LL4@UserConnec
$LN8@UserConnec:
  00032	5e		 pop	 esi

; 724  : 		{
; 725  : 			return;
; 726  : 		}
; 727  : 	}
; 728  : }

  00033	5d		 pop	 ebp
  00034	c2 04 00	 ret	 4
?UserConnect@ZtWinQuestSystem@@QAEXH@Z ENDP		; ZtWinQuestSystem::UserConnect
_TEXT	ENDS
PUBLIC	??_C@_0CF@BJDGHMLE@?$FLZtWinQuestSystem?$FN?5RewardQuest?5E@ ; `string'
PUBLIC	?RewardQuest@ZtWinQuestSystem@@QAEXHH@Z		; ZtWinQuestSystem::RewardQuest
EXTRN	?gObjApplyBuffEffectDuration@@YAEPAUOBJECTSTRUCT@@HEHEHH@Z:PROC ; gObjApplyBuffEffectDuration
EXTRN	?GDSaveUserInfo@GameShop@@QAEXH@Z:PROC		; GameShop::GDSaveUserInfo
EXTRN	?gGameShop@@3VGameShop@@A:BYTE			; gGameShop
EXTRN	?ZtUserDataSend@@YAXH@Z:PROC			; ZtUserDataSend
EXTRN	?MoneyItemDrop@MapClass@@QAEHHHH@Z:PROC		; MapClass::MoneyItemDrop
EXTRN	?MapC@@3PAVMapClass@@A:BYTE			; MapC
EXTRN	?LogAddC@@3P6AXEPADZZA:DWORD			; LogAddC
;	COMDAT ??_C@_0CF@BJDGHMLE@?$FLZtWinQuestSystem?$FN?5RewardQuest?5E@
CONST	SEGMENT
??_C@_0CF@BJDGHMLE@?$FLZtWinQuestSystem?$FN?5RewardQuest?5E@ DB '[ZtWinQu'
	DB	'estSystem] RewardQuest ERROR', 00H		; `string'
; Function compile flags: /Ogtp
CONST	ENDS
;	COMDAT ?RewardQuest@ZtWinQuestSystem@@QAEXHH@Z
_TEXT	SEGMENT
_rCount$ = -32						; size = 4
_rItemLevel$ = -28					; size = 4
tv935 = -24						; size = 4
tv716 = -24						; size = 4
_UserMap$ = -20						; size = 4
_UserX$ = -16						; size = 4
_UserY$ = -12						; size = 4
tv703 = -8						; size = 4
_r$211268 = -8						; size = 4
_this$ = -4						; size = 4
_aIndex$ = 8						; size = 4
_Act$ = 12						; size = 4
?RewardQuest@ZtWinQuestSystem@@QAEXHH@Z PROC		; ZtWinQuestSystem::RewardQuest, COMDAT
; _this$ = ecx

; 732  : {

  00000	55		 push	 ebp
  00001	8b ec		 mov	 ebp, esp
  00003	83 ec 20	 sub	 esp, 32			; 00000020H
  00006	57		 push	 edi

; 733  : 	if(!gObjIsConnectedZt(aIndex))

  00007	8b 7d 08	 mov	 edi, DWORD PTR _aIndex$[ebp]
  0000a	57		 push	 edi
  0000b	89 4d fc	 mov	 DWORD PTR _this$[ebp], ecx
  0000e	e8 00 00 00 00	 call	 ?gObjIsConnectedZt@@YA_NH@Z ; gObjIsConnectedZt
  00013	83 c4 04	 add	 esp, 4
  00016	84 c0		 test	 al, al
  00018	0f 84 7e 02 00
	00		 je	 $LN25@RewardQues

; 734  : 	{
; 735  : 		return;
; 736  : 	}	
; 737  : 
; 738  : 	LPOBJ lpUser = &gObj[aIndex];
; 739  : 
; 740  : 	int a = Act;
; 741  : 
; 742  : 	if(!this->CheckMission(aIndex, a))

  0001e	8b 4d fc	 mov	 ecx, DWORD PTR _this$[ebp]
  00021	53		 push	 ebx
  00022	8b 5d 0c	 mov	 ebx, DWORD PTR _Act$[ebp]
  00025	56		 push	 esi
  00026	8b f7		 mov	 esi, edi
  00028	69 f6 50 2b 00
	00		 imul	 esi, 11088		; 00002b50H
  0002e	03 35 00 00 00
	00		 add	 esi, DWORD PTR ?gObj@@3PAUOBJECTSTRUCT@@A ; gObj
  00034	53		 push	 ebx
  00035	57		 push	 edi
  00036	e8 00 00 00 00	 call	 ?CheckMission@ZtWinQuestSystem@@QAE_NHH@Z ; ZtWinQuestSystem::CheckMission
  0003b	84 c0		 test	 al, al
  0003d	75 19		 jne	 SHORT $LN23@RewardQues

; 743  : 	{
; 744  : 		LogAddC(2, "[ZtWinQuestSystem] RewardQuest ERROR");

  0003f	68 00 00 00 00	 push	 OFFSET ??_C@_0CF@BJDGHMLE@?$FLZtWinQuestSystem?$FN?5RewardQuest?5E@
  00044	6a 02		 push	 2
  00046	ff 15 00 00 00
	00		 call	 DWORD PTR ?LogAddC@@3P6AXEPADZZA ; LogAddC
  0004c	83 c4 08	 add	 esp, 8
  0004f	5e		 pop	 esi
  00050	5b		 pop	 ebx
  00051	5f		 pop	 edi

; 851  : }

  00052	8b e5		 mov	 esp, ebp
  00054	5d		 pop	 ebp
  00055	c2 08 00	 ret	 8
$LN23@RewardQues:

; 745  : 		return;
; 746  : 	}
; 747  : 	
; 748  : 	int n = lpUser->ZtWQuestNum[a];
; 749  : 	int UserMap = lpUser->MapNumber;
; 750  : 	int UserX = lpUser->X;

  00058	0f bf 96 44 01
	00 00		 movsx	 edx, WORD PTR [esi+324]
  0005f	0f b7 84 5e f0
	2a 00 00	 movzx	 eax, WORD PTR [esi+ebx*2+10992]
  00067	0f b6 8e 49 01
	00 00		 movzx	 ecx, BYTE PTR [esi+329]
  0006e	89 55 f0	 mov	 DWORD PTR _UserX$[ebp], edx
  00071	8b d3		 mov	 edx, ebx
  00073	69 d2 e8 03 00
	00		 imul	 edx, 1000		; 000003e8H
  00079	03 d0		 add	 edx, eax
  0007b	8b 45 fc	 mov	 eax, DWORD PTR _this$[ebp]
  0007e	69 d2 18 01 00
	00		 imul	 edx, 280		; 00000118H
  00084	89 4d ec	 mov	 DWORD PTR _UserMap$[ebp], ecx

; 751  : 	int UserY = lpUser->Y;

  00087	0f bf 8e 46 01
	00 00		 movsx	 ecx, WORD PTR [esi+326]
  0008e	03 c2		 add	 eax, edx
  00090	89 4d f4	 mov	 DWORD PTR _UserY$[ebp], ecx

; 752  : 
; 753  : 	int rType = 0;
; 754  : 	int rItemType = 0;
; 755  : 	int rItemIndex = 0;
; 756  : 	int rItemLevel = 0;
; 757  : 	int rCount = 0;
; 758  : 
; 759  : 	for(int m = 0; m < EW_MAX_MISSION; m++)

  00093	33 ff		 xor	 edi, edi
  00095	89 45 e8	 mov	 DWORD PTR tv716[ebp], eax
  00098	83 c0 3c	 add	 eax, 60			; 0000003cH
  0009b	8d 0c 9b	 lea	 ecx, DWORD PTR [ebx+ebx*4]
  0009e	89 45 f8	 mov	 DWORD PTR tv703[ebp], eax
  000a1	8d 9c 4e f6 2a
	00 00		 lea	 ebx, DWORD PTR [esi+ecx*2+10998]
$LL22@RewardQues:

; 760  : 	{
; 761  : 		lpUser->ZtWQuestCount[a][m] = 0;
; 762  : 		if(this->ewdata[a][n].MissionType[m] == Searching)

  000a8	8b 45 f8	 mov	 eax, DWORD PTR tv703[ebp]
  000ab	33 d2		 xor	 edx, edx
  000ad	66 89 13	 mov	 WORD PTR [ebx], dx
  000b0	83 38 03	 cmp	 DWORD PTR [eax], 3
  000b3	75 11		 jne	 SHORT $LN21@RewardQues

; 763  : 		{
; 764  : 			this->DeleteItem(aIndex, a, m);

  000b5	8b 4d 0c	 mov	 ecx, DWORD PTR _Act$[ebp]
  000b8	8b 55 08	 mov	 edx, DWORD PTR _aIndex$[ebp]
  000bb	57		 push	 edi
  000bc	51		 push	 ecx
  000bd	8b 4d fc	 mov	 ecx, DWORD PTR _this$[ebp]
  000c0	52		 push	 edx
  000c1	e8 00 00 00 00	 call	 ?DeleteItem@ZtWinQuestSystem@@QAEXHHH@Z ; ZtWinQuestSystem::DeleteItem
$LN21@RewardQues:

; 752  : 
; 753  : 	int rType = 0;
; 754  : 	int rItemType = 0;
; 755  : 	int rItemIndex = 0;
; 756  : 	int rItemLevel = 0;
; 757  : 	int rCount = 0;
; 758  : 
; 759  : 	for(int m = 0; m < EW_MAX_MISSION; m++)

  000c6	83 45 f8 04	 add	 DWORD PTR tv703[ebp], 4
  000ca	47		 inc	 edi
  000cb	83 c3 02	 add	 ebx, 2
  000ce	83 ff 05	 cmp	 edi, 5
  000d1	7c d5		 jl	 SHORT $LL22@RewardQues

; 765  : 		}
; 766  : 	}
; 767  : 
; 768  : 	for(int r = 0; r < EW_MAX_REWARD; r++)

  000d3	8b 7d e8	 mov	 edi, DWORD PTR tv716[ebp]
  000d6	81 c7 08 01 00
	00		 add	 edi, 264		; 00000108H
  000dc	c7 45 f8 00 00
	00 00		 mov	 DWORD PTR _r$211268[ebp], 0
  000e3	89 7d e8	 mov	 DWORD PTR tv935[ebp], edi
$LL18@RewardQues:

; 769  : 	{
; 770  : 		rType = this->ewdata[a][n].RewardType[r];
; 771  : 		rItemType = this->ewdata[a][n].RewardItemType[r];
; 772  : 		rItemIndex = this->ewdata[a][n].RewardItemIndex[r];
; 773  : 		rItemLevel = this->ewdata[a][n].RewardItemLevel[r];

  000e6	8b 47 18	 mov	 eax, DWORD PTR [edi+24]
  000e9	8b 57 e8	 mov	 edx, DWORD PTR [edi-24]
  000ec	8b 0f		 mov	 ecx, DWORD PTR [edi]
  000ee	8b 5f 0c	 mov	 ebx, DWORD PTR [edi+12]
  000f1	89 45 e4	 mov	 DWORD PTR _rItemLevel$[ebp], eax

; 774  : 		rCount = this->ewdata[a][n].RewardCount[r];

  000f4	8b 47 f4	 mov	 eax, DWORD PTR [edi-12]
  000f7	89 45 e0	 mov	 DWORD PTR _rCount$[ebp], eax

; 775  : 
; 776  : 		if(rType == ewZen)

  000fa	83 fa 01	 cmp	 edx, 1
  000fd	75 3a		 jne	 SHORT $LN15@RewardQues

; 777  : 		{	
; 778  : 			if(!MAX_MAP_RANGE(UserMap))

  000ff	8b 4d ec	 mov	 ecx, DWORD PTR _UserMap$[ebp]
  00102	85 c9		 test	 ecx, ecx
  00104	0f 88 90 01 00
	00		 js	 $LN41@RewardQues
  0010a	33 d2		 xor	 edx, edx
  0010c	83 f9 52	 cmp	 ecx, 82			; 00000052H
  0010f	0f 9e c2	 setle	 dl
  00112	85 d2		 test	 edx, edx
  00114	0f 84 80 01 00
	00		 je	 $LN41@RewardQues

; 779  : 			{
; 780  : 				return;
; 781  : 			}
; 782  : 			MapC[UserMap].MoneyItemDrop(rCount, UserX, UserY);

  0011a	8b 55 f4	 mov	 edx, DWORD PTR _UserY$[ebp]
  0011d	69 c9 48 3d 05
	00		 imul	 ecx, 343368		; 00053d48H
  00123	52		 push	 edx
  00124	8b 55 f0	 mov	 edx, DWORD PTR _UserX$[ebp]
  00127	52		 push	 edx
  00128	50		 push	 eax
  00129	81 c1 00 00 00
	00		 add	 ecx, OFFSET ?MapC@@3PAVMapClass@@A ; MapC
  0012f	e8 00 00 00 00	 call	 ?MoneyItemDrop@MapClass@@QAEHHHH@Z ; MapClass::MoneyItemDrop

; 783  : 		}
; 784  : 		if(rType == ewFreePoint)

  00134	e9 2c 01 00 00	 jmp	 $LN17@RewardQues
$LN15@RewardQues:
  00139	83 fa 02	 cmp	 edx, 2
  0013c	75 1d		 jne	 SHORT $LN13@RewardQues

; 785  : 		{
; 786  : 			lpUser->ZtFreePoints += rCount;

  0013e	01 86 8c 22 00
	00		 add	 DWORD PTR [esi+8844], eax

; 787  : 			lpUser->LevelUpPoint += rCount;

  00144	01 86 c0 00 00
	00		 add	 DWORD PTR [esi+192], eax

; 788  : 			//g_ZtUser.UpdateCharInfo(aIndex);
; 789  : 			ZtUserDataSend(aIndex);

  0014a	8b 45 08	 mov	 eax, DWORD PTR _aIndex$[ebp]
  0014d	50		 push	 eax
  0014e	e8 00 00 00 00	 call	 ?ZtUserDataSend@@YAXH@Z	; ZtUserDataSend
  00153	83 c4 04	 add	 esp, 4

; 790  : 		}
; 791  : 		if(rType == ewItem)

  00156	e9 0a 01 00 00	 jmp	 $LN17@RewardQues
$LN13@RewardQues:
  0015b	83 fa 03	 cmp	 edx, 3
  0015e	75 47		 jne	 SHORT $LN9@RewardQues

; 792  : 		{
; 793  : 			for(int d = 0; d < rCount; d++ )

  00160	85 c0		 test	 eax, eax
  00162	0f 8e fd 00 00
	00		 jle	 $LN17@RewardQues
  00168	c1 e1 09	 shl	 ecx, 9
  0016b	03 d9		 add	 ebx, ecx
  0016d	8b f8		 mov	 edi, eax
  0016f	90		 npad	 1
$LL38@RewardQues:

; 794  : 			{
; 795  : 				ItemSerialCreateSend(aIndex, UserMap, UserX, UserY, ITEMGET(rItemType, rItemIndex), rItemLevel, 0, 0, 0, 0, lpUser->m_Index, 0, 0);

  00170	8b 0e		 mov	 ecx, DWORD PTR [esi]
  00172	8b 55 e4	 mov	 edx, DWORD PTR _rItemLevel$[ebp]
  00175	8b 45 f4	 mov	 eax, DWORD PTR _UserY$[ebp]
  00178	6a 00		 push	 0
  0017a	6a 00		 push	 0
  0017c	51		 push	 ecx
  0017d	8b 4d f0	 mov	 ecx, DWORD PTR _UserX$[ebp]
  00180	6a 00		 push	 0
  00182	6a 00		 push	 0
  00184	6a 00		 push	 0
  00186	6a 00		 push	 0
  00188	52		 push	 edx
  00189	8b 55 ec	 mov	 edx, DWORD PTR _UserMap$[ebp]
  0018c	53		 push	 ebx
  0018d	50		 push	 eax
  0018e	8b 45 08	 mov	 eax, DWORD PTR _aIndex$[ebp]
  00191	51		 push	 ecx
  00192	52		 push	 edx
  00193	50		 push	 eax
  00194	e8 00 00 00 00	 call	 ?ItemSerialCreateSend@@YAXHEEEHEEEEEHEE@Z ; ItemSerialCreateSend
  00199	83 c4 34	 add	 esp, 52			; 00000034H
  0019c	4f		 dec	 edi
  0019d	75 d1		 jne	 SHORT $LL38@RewardQues
  0019f	8b 7d e8	 mov	 edi, DWORD PTR tv935[ebp]
  001a2	e9 be 00 00 00	 jmp	 $LN17@RewardQues
$LN9@RewardQues:

; 796  : 			}
; 797  : 		}
; 798  : 		if(rType == ewBonus)

  001a7	83 fa 04	 cmp	 edx, 4
  001aa	75 2d		 jne	 SHORT $LN8@RewardQues

; 799  : 		{
; 800  : 
; 801  : 
; 802  : 			lpUser->GameShop.WCoinC += rCount;

  001ac	db 45 e0	 fild	 DWORD PTR _rCount$[ebp]

; 803  : 			gGameShop.GDSaveUserInfo(lpUser->m_Index);

  001af	8b 0e		 mov	 ecx, DWORD PTR [esi]
  001b1	51		 push	 ecx
  001b2	b9 00 00 00 00	 mov	 ecx, OFFSET ?gGameShop@@3VGameShop@@A ; gGameShop
  001b7	dc 86 00 23 00
	00		 fadd	 QWORD PTR [esi+8960]
  001bd	dd 9e 00 23 00
	00		 fstp	 QWORD PTR [esi+8960]
  001c3	e8 00 00 00 00	 call	 ?GDSaveUserInfo@GameShop@@QAEXH@Z ; GameShop::GDSaveUserInfo

; 804  : 
; 805  : 			//g_ZtUser.UpdateCharInfo(aIndex);
; 806  : 			ZtUserDataSend(aIndex);

  001c8	8b 55 08	 mov	 edx, DWORD PTR _aIndex$[ebp]
  001cb	52		 push	 edx
  001cc	e8 00 00 00 00	 call	 ?ZtUserDataSend@@YAXH@Z	; ZtUserDataSend
  001d1	83 c4 04	 add	 esp, 4

; 807  : 		}
; 808  : 		if(rType == ewBuff)

  001d4	e9 8c 00 00 00	 jmp	 $LN17@RewardQues
$LN8@RewardQues:
  001d9	83 fa 05	 cmp	 edx, 5
  001dc	0f 85 83 00 00
	00		 jne	 $LN17@RewardQues

; 809  : 		{
; 810  : 			int idBuffer = AT_NPC_BUFF_EXP;

  001e2	ba b0 00 00 00	 mov	 edx, 176		; 000000b0H

; 811  : 			lpUser->ExpBuffTime = rCount;

  001e7	89 86 90 28 00
	00		 mov	 DWORD PTR [esi+10384], eax

; 812  : 
; 813  : 			if(rItemType == 1)

  001ed	83 f9 01	 cmp	 ecx, 1
  001f0	75 08		 jne	 SHORT $LN6@RewardQues

; 814  : 			{
; 815  : 				idBuffer = AT_NPC_BUFF_EXP;
; 816  : 				lpUser->ExpBuffTime = rCount;

  001f2	89 86 90 28 00
	00		 mov	 DWORD PTR [esi+10384], eax

; 817  : 			}
; 818  : 			if(rItemType == 2)

  001f8	eb 58		 jmp	 SHORT $LN1@RewardQues
$LN6@RewardQues:
  001fa	83 f9 02	 cmp	 ecx, 2
  001fd	75 0d		 jne	 SHORT $LN5@RewardQues

; 819  : 			{
; 820  : 				idBuffer = AT_NPC_BUFF_DAMAGE;

  001ff	ba b1 00 00 00	 mov	 edx, 177		; 000000b1H

; 821  : 				lpUser->DamageBuffTime = rCount;

  00204	89 86 94 28 00
	00		 mov	 DWORD PTR [esi+10388], eax

; 822  : 			}
; 823  : 			if(rItemType == 3)

  0020a	eb 46		 jmp	 SHORT $LN1@RewardQues
$LN5@RewardQues:
  0020c	83 f9 03	 cmp	 ecx, 3
  0020f	75 0d		 jne	 SHORT $LN4@RewardQues

; 824  : 			{
; 825  : 				idBuffer = AT_NPC_BUFF_DEFENCE;

  00211	ba b2 00 00 00	 mov	 edx, 178		; 000000b2H

; 826  : 				lpUser->DefenceBuffTime = rCount;

  00216	89 86 98 28 00
	00		 mov	 DWORD PTR [esi+10392], eax

; 827  : 			}
; 828  : 			if(rItemType == 4)

  0021c	eb 34		 jmp	 SHORT $LN1@RewardQues
$LN4@RewardQues:
  0021e	83 f9 04	 cmp	 ecx, 4
  00221	75 0d		 jne	 SHORT $LN3@RewardQues

; 829  : 			{
; 830  : 				idBuffer = AT_NPC_BUFF_EXL_CRIT;

  00223	ba b3 00 00 00	 mov	 edx, 179		; 000000b3H

; 831  : 				lpUser->BattleBuffTime = rCount;

  00228	89 86 9c 28 00
	00		 mov	 DWORD PTR [esi+10396], eax

; 832  : 			}
; 833  : 			if(rItemType == 5)

  0022e	eb 22		 jmp	 SHORT $LN1@RewardQues
$LN3@RewardQues:
  00230	83 f9 05	 cmp	 ecx, 5
  00233	75 0d		 jne	 SHORT $LN2@RewardQues

; 834  : 			{
; 835  : 				idBuffer = AT_NPC_BUFF_DROP;

  00235	ba b4 00 00 00	 mov	 edx, 180		; 000000b4H

; 836  : 				lpUser->DropBuffTime = rCount;

  0023a	89 86 a0 28 00
	00		 mov	 DWORD PTR [esi+10400], eax

; 837  : 			}
; 838  : 			if(rItemType == 6)

  00240	eb 10		 jmp	 SHORT $LN1@RewardQues
$LN2@RewardQues:
  00242	83 f9 06	 cmp	 ecx, 6
  00245	75 0b		 jne	 SHORT $LN1@RewardQues

; 839  : 			{
; 840  : 				idBuffer = AT_NPC_BUFF_DOUBLE;

  00247	ba b5 00 00 00	 mov	 edx, 181		; 000000b5H

; 841  : 				lpUser->DoubleBuffTime = rCount;

  0024c	89 86 a4 28 00
	00		 mov	 DWORD PTR [esi+10404], eax
$LN1@RewardQues:

; 842  : 			}
; 843  : 
; 844  : 			gObjApplyBuffEffectDuration(lpUser, idBuffer, 0, 0, 0, 0, rCount);

  00252	50		 push	 eax
  00253	6a 00		 push	 0
  00255	6a 00		 push	 0
  00257	6a 00		 push	 0
  00259	6a 00		 push	 0
  0025b	52		 push	 edx
  0025c	56		 push	 esi
  0025d	e8 00 00 00 00	 call	 ?gObjApplyBuffEffectDuration@@YAEPAUOBJECTSTRUCT@@HEHEHH@Z ; gObjApplyBuffEffectDuration
  00262	83 c4 1c	 add	 esp, 28			; 0000001cH
$LN17@RewardQues:

; 765  : 		}
; 766  : 	}
; 767  : 
; 768  : 	for(int r = 0; r < EW_MAX_REWARD; r++)

  00265	8b 45 f8	 mov	 eax, DWORD PTR _r$211268[ebp]
  00268	40		 inc	 eax
  00269	83 c7 04	 add	 edi, 4
  0026c	89 45 f8	 mov	 DWORD PTR _r$211268[ebp], eax
  0026f	89 7d e8	 mov	 DWORD PTR tv935[ebp], edi
  00272	83 f8 03	 cmp	 eax, 3
  00275	0f 8c 6b fe ff
	ff		 jl	 $LL18@RewardQues

; 845  : 		}
; 846  : 	}
; 847  : 
; 848  : 	lpUser->ZtWQuestNum[a]++;

  0027b	8b 45 0c	 mov	 eax, DWORD PTR _Act$[ebp]
  0027e	66 ff 84 46 f0
	2a 00 00	 inc	 WORD PTR [esi+eax*2+10992]

; 849  : 	lpUser->ZtWQuestStart[a] = false;
; 850  : 	this->GC_MainInfo(aIndex);

  00286	8b 4d fc	 mov	 ecx, DWORD PTR _this$[ebp]
  00289	c6 84 06 ec 2a
	00 00 00	 mov	 BYTE PTR [esi+eax+10988], 0
  00291	8b 45 08	 mov	 eax, DWORD PTR _aIndex$[ebp]
  00294	50		 push	 eax
  00295	e8 00 00 00 00	 call	 ?GC_MainInfo@ZtWinQuestSystem@@QAEXH@Z ; ZtWinQuestSystem::GC_MainInfo
$LN41@RewardQues:
  0029a	5e		 pop	 esi
  0029b	5b		 pop	 ebx
$LN25@RewardQues:
  0029c	5f		 pop	 edi

; 851  : }

  0029d	8b e5		 mov	 esp, ebp
  0029f	5d		 pop	 ebp
  002a0	c2 08 00	 ret	 8
?RewardQuest@ZtWinQuestSystem@@QAEXHH@Z ENDP		; ZtWinQuestSystem::RewardQuest
_TEXT	ENDS
PUBLIC	?Dialog@ZtWinQuestSystem@@QAE_NHH@Z		; ZtWinQuestSystem::Dialog
; Function compile flags: /Ogtp
;	COMDAT ?Dialog@ZtWinQuestSystem@@QAE_NHH@Z
_TEXT	SEGMENT
_aIndex$ = 8						; size = 4
_aNpcIndex$ = 12					; size = 4
?Dialog@ZtWinQuestSystem@@QAE_NHH@Z PROC		; ZtWinQuestSystem::Dialog, COMDAT
; _this$ = ecx

; 238  : {

  00000	55		 push	 ebp
  00001	8b ec		 mov	 ebp, esp
  00003	56		 push	 esi
  00004	8b f1		 mov	 esi, ecx

; 239  : 	if(!this->Enable)

  00006	80 3e 00	 cmp	 BYTE PTR [esi], 0
  00009	75 07		 jne	 SHORT $LN3@Dialog

; 240  : 	{
; 241  :  		return false;

  0000b	32 c0		 xor	 al, al
  0000d	5e		 pop	 esi

; 263  : }

  0000e	5d		 pop	 ebp
  0000f	c2 08 00	 ret	 8
$LN3@Dialog:
  00012	57		 push	 edi

; 242  : 	}
; 243  : 
; 244  : 	if(!gObjIsConnectedZt(aIndex))

  00013	8b 7d 08	 mov	 edi, DWORD PTR _aIndex$[ebp]
  00016	57		 push	 edi
  00017	e8 00 00 00 00	 call	 ?gObjIsConnectedZt@@YA_NH@Z ; gObjIsConnectedZt
  0001c	83 c4 04	 add	 esp, 4
  0001f	84 c0		 test	 al, al

; 245  : 	{
; 246  : 		return false;

  00021	74 4f		 je	 SHORT $LN1@Dialog

; 247  : 	}
; 248  : 
; 249  : 	LPOBJ lpUser = &gObj[aIndex];
; 250  : 	LPOBJ lpNpc = &gObj[aNpcIndex];

  00023	8b 45 0c	 mov	 eax, DWORD PTR _aNpcIndex$[ebp]
  00026	69 c0 50 2b 00
	00		 imul	 eax, 11088		; 00002b50H
  0002c	03 05 00 00 00
	00		 add	 eax, DWORD PTR ?gObj@@3PAUOBJECTSTRUCT@@A ; gObj

; 251  : 
; 252  : 	if(		lpNpc->Class		== this->NPC_Class 
; 253  : 		&&	lpNpc->MapNumber	== this->NPC_Map
; 254  : 		&&	lpNpc->X			== this->NPC_X
; 255  : 		&&	lpNpc->Y			== this->NPC_Y )

  00032	0f b7 88 b8 00
	00 00		 movzx	 ecx, WORD PTR [eax+184]
  00039	3b 4e 04	 cmp	 ecx, DWORD PTR [esi+4]
  0003c	75 34		 jne	 SHORT $LN1@Dialog
  0003e	0f b6 90 49 01
	00 00		 movzx	 edx, BYTE PTR [eax+329]
  00045	3b 56 08	 cmp	 edx, DWORD PTR [esi+8]
  00048	75 28		 jne	 SHORT $LN1@Dialog
  0004a	0f bf 88 44 01
	00 00		 movsx	 ecx, WORD PTR [eax+324]
  00051	3b 4e 0c	 cmp	 ecx, DWORD PTR [esi+12]
  00054	75 1c		 jne	 SHORT $LN1@Dialog
  00056	0f bf 90 46 01
	00 00		 movsx	 edx, WORD PTR [eax+326]
  0005d	3b 56 10	 cmp	 edx, DWORD PTR [esi+16]
  00060	75 10		 jne	 SHORT $LN1@Dialog

; 256  : 	{
; 257  : 
; 258  : 		this->GC_OpenWindow(aIndex);

  00062	57		 push	 edi
  00063	8b ce		 mov	 ecx, esi
  00065	e8 00 00 00 00	 call	 ?GC_OpenWindow@ZtWinQuestSystem@@QAEXH@Z ; ZtWinQuestSystem::GC_OpenWindow
  0006a	5f		 pop	 edi

; 259  : 		return true;

  0006b	b0 01		 mov	 al, 1
  0006d	5e		 pop	 esi

; 263  : }

  0006e	5d		 pop	 ebp
  0006f	c2 08 00	 ret	 8
$LN1@Dialog:
  00072	5f		 pop	 edi

; 260  : 	}
; 261  : 	// ----
; 262  : 	return false;

  00073	32 c0		 xor	 al, al
  00075	5e		 pop	 esi

; 263  : }

  00076	5d		 pop	 ebp
  00077	c2 08 00	 ret	 8
?Dialog@ZtWinQuestSystem@@QAE_NHH@Z ENDP		; ZtWinQuestSystem::Dialog
_TEXT	ENDS
PUBLIC	??_C@_0CP@OCDNGEKK@?$FLZtWinQuestSystem?$FN?5Error?5CG_Acce@ ; `string'
PUBLIC	?CG_AcceptQuest@ZtWinQuestSystem@@QAEXHPAUCG_Accept_Done@@@Z ; ZtWinQuestSystem::CG_AcceptQuest
;	COMDAT ??_C@_0CP@OCDNGEKK@?$FLZtWinQuestSystem?$FN?5Error?5CG_Acce@
CONST	SEGMENT
??_C@_0CP@OCDNGEKK@?$FLZtWinQuestSystem?$FN?5Error?5CG_Acce@ DB '[ZtWinQu'
	DB	'estSystem] Error CG_AcceptQuest Result', 00H ; `string'
; Function compile flags: /Ogtp
CONST	ENDS
;	COMDAT ?CG_AcceptQuest@ZtWinQuestSystem@@QAEXHPAUCG_Accept_Done@@@Z
_TEXT	SEGMENT
_aIndex$ = 8						; size = 4
_aRecv$ = 12						; size = 4
?CG_AcceptQuest@ZtWinQuestSystem@@QAEXHPAUCG_Accept_Done@@@Z PROC ; ZtWinQuestSystem::CG_AcceptQuest, COMDAT
; _this$ = ecx

; 467  : {

  00000	55		 push	 ebp
  00001	8b ec		 mov	 ebp, esp
  00003	56		 push	 esi

; 468  : 	if(!gObjIsConnectedZt(aIndex))

  00004	8b 75 08	 mov	 esi, DWORD PTR _aIndex$[ebp]
  00007	57		 push	 edi
  00008	56		 push	 esi
  00009	8b f9		 mov	 edi, ecx
  0000b	e8 00 00 00 00	 call	 ?gObjIsConnectedZt@@YA_NH@Z ; gObjIsConnectedZt
  00010	83 c4 04	 add	 esp, 4
  00013	84 c0		 test	 al, al
  00015	0f 84 81 00 00
	00		 je	 $LN1@CG_AcceptQ

; 469  : 	{
; 470  : 		return;
; 471  : 	}	
; 472  : 
; 473  : 	if(aRecv->Result != 0 && aRecv->Result != 1 && aRecv->Result != 2)

  0001b	8b 45 0c	 mov	 eax, DWORD PTR _aRecv$[ebp]
  0001e	8a 48 04	 mov	 cl, BYTE PTR [eax+4]
  00021	84 c9		 test	 cl, cl
  00023	74 0a		 je	 SHORT $LN5@CG_AcceptQ
  00025	80 f9 01	 cmp	 cl, 1
  00028	74 05		 je	 SHORT $LN5@CG_AcceptQ
  0002a	80 f9 02	 cmp	 cl, 2
  0002d	75 6d		 jne	 SHORT $LN1@CG_AcceptQ
$LN5@CG_AcceptQ:

; 474  : 	{
; 475  : 		return;
; 476  : 	}
; 477  : 
; 478  : 	LPOBJ lpUser = &gObj[aIndex];

  0002f	8b c6		 mov	 eax, esi
  00031	69 c0 50 2b 00
	00		 imul	 eax, 11088		; 00002b50H
  00037	03 05 00 00 00
	00		 add	 eax, DWORD PTR ?gObj@@3PAUOBJECTSTRUCT@@A ; gObj

; 479  : 
; 480  : 	int a = aRecv->Result;

  0003d	0f b6 c9	 movzx	 ecx, cl

; 481  : 	int n = lpUser->ZtWQuestNum[a];
; 482  : 
; 483  : 	if(!lpUser->ZtWQuestStart[a])

  00040	80 bc 01 ec 2a
	00 00 00	 cmp	 BYTE PTR [ecx+eax+10988], 0
  00048	0f b7 94 48 f0
	2a 00 00	 movzx	 edx, WORD PTR [eax+ecx*2+10992]
  00050	75 67		 jne	 SHORT $LN4@CG_AcceptQ

; 484  : 	{
; 485  : 		if( this->ewdata[a][n].NeedLevel > lpUser->Level		||
; 486  : 			this->ewdata[a][n].NeedReset > lpUser->Reset		||
; 487  : 			this->ewdata[a][n].NeedGrand > lpUser->GReset )

  00052	53		 push	 ebx
  00053	8b d9		 mov	 ebx, ecx
  00055	69 db e8 03 00
	00		 imul	 ebx, 1000		; 000003e8H
  0005b	03 d3		 add	 edx, ebx
  0005d	0f bf 98 be 00
	00 00		 movsx	 ebx, WORD PTR [eax+190]
  00064	69 d2 18 01 00
	00		 imul	 edx, 280		; 00000118H
  0006a	39 5c 3a 30	 cmp	 DWORD PTR [edx+edi+48], ebx
  0006e	7f 32		 jg	 SHORT $LN2@CG_AcceptQ
  00070	8b 5c 3a 34	 mov	 ebx, DWORD PTR [edx+edi+52]
  00074	3b 98 90 22 00
	00		 cmp	 ebx, DWORD PTR [eax+8848]
  0007a	7f 26		 jg	 SHORT $LN2@CG_AcceptQ
  0007c	8b 54 3a 38	 mov	 edx, DWORD PTR [edx+edi+56]
  00080	3b 90 94 22 00
	00		 cmp	 edx, DWORD PTR [eax+8852]
  00086	7f 1a		 jg	 SHORT $LN2@CG_AcceptQ

; 490  : 			return;
; 491  : 		}
; 492  : 		lpUser->ZtWQuestStart[a] = true;
; 493  : 		this->GC_Start(aIndex, a, true);

  00088	6a 01		 push	 1
  0008a	51		 push	 ecx
  0008b	c6 84 01 ec 2a
	00 00 01	 mov	 BYTE PTR [ecx+eax+10988], 1
  00093	56		 push	 esi
  00094	8b cf		 mov	 ecx, edi
  00096	e8 00 00 00 00	 call	 ?GC_Start@ZtWinQuestSystem@@QAEXHHH@Z ; ZtWinQuestSystem::GC_Start
  0009b	5b		 pop	 ebx
$LN1@CG_AcceptQ:
  0009c	5f		 pop	 edi
  0009d	5e		 pop	 esi

; 498  : 	}
; 499  : }

  0009e	5d		 pop	 ebp
  0009f	c2 08 00	 ret	 8
$LN2@CG_AcceptQ:

; 488  : 		{
; 489  : 			LogAddC(2, "[ZtWinQuestSystem] Error CG_AcceptQuest Result");

  000a2	68 00 00 00 00	 push	 OFFSET ??_C@_0CP@OCDNGEKK@?$FLZtWinQuestSystem?$FN?5Error?5CG_Acce@
  000a7	6a 02		 push	 2
  000a9	ff 15 00 00 00
	00		 call	 DWORD PTR ?LogAddC@@3P6AXEPADZZA ; LogAddC
  000af	83 c4 08	 add	 esp, 8
  000b2	5b		 pop	 ebx
  000b3	5f		 pop	 edi
  000b4	5e		 pop	 esi

; 498  : 	}
; 499  : }

  000b5	5d		 pop	 ebp
  000b6	c2 08 00	 ret	 8
$LN4@CG_AcceptQ:

; 494  : 	}
; 495  : 	else
; 496  : 	{
; 497  : 		this->RewardQuest(aIndex, a);

  000b9	51		 push	 ecx
  000ba	56		 push	 esi
  000bb	8b cf		 mov	 ecx, edi
  000bd	e8 00 00 00 00	 call	 ?RewardQuest@ZtWinQuestSystem@@QAEXHH@Z ; ZtWinQuestSystem::RewardQuest
  000c2	5f		 pop	 edi
  000c3	5e		 pop	 esi

; 498  : 	}
; 499  : }

  000c4	5d		 pop	 ebp
  000c5	c2 08 00	 ret	 8
?CG_AcceptQuest@ZtWinQuestSystem@@QAEXHPAUCG_Accept_Done@@@Z ENDP ; ZtWinQuestSystem::CG_AcceptQuest
_TEXT	ENDS
EXTRN	_atexit:PROC
; Function compile flags: /Ogtp
;	COMDAT ??__Eg_ZtWinQuestSystem@@YAXXZ
text$yc	SEGMENT
??__Eg_ZtWinQuestSystem@@YAXXZ PROC			; `dynamic initializer for 'g_ZtWinQuestSystem'', COMDAT

; 17   : ZtWinQuestSystem g_ZtWinQuestSystem;

  00000	b9 00 00 00 00	 mov	 ecx, OFFSET ?g_ZtWinQuestSystem@@3VZtWinQuestSystem@@A ; g_ZtWinQuestSystem
  00005	e8 00 00 00 00	 call	 ??0ZtWinQuestSystem@@QAE@XZ ; ZtWinQuestSystem::ZtWinQuestSystem
  0000a	68 00 00 00 00	 push	 OFFSET ??__Fg_ZtWinQuestSystem@@YAXXZ ; `dynamic atexit destructor for 'g_ZtWinQuestSystem''
  0000f	e8 00 00 00 00	 call	 _atexit
  00014	59		 pop	 ecx
  00015	c3		 ret	 0
??__Eg_ZtWinQuestSystem@@YAXXZ ENDP			; `dynamic initializer for 'g_ZtWinQuestSystem''
; Function compile flags: /Ogtp
text$yc	ENDS
;	COMDAT ??__Fg_ZtWinQuestSystem@@YAXXZ
text$yd	SEGMENT
??__Fg_ZtWinQuestSystem@@YAXXZ PROC			; `dynamic atexit destructor for 'g_ZtWinQuestSystem'', COMDAT
  00000	c3		 ret	 0
??__Fg_ZtWinQuestSystem@@YAXXZ ENDP			; `dynamic atexit destructor for 'g_ZtWinQuestSystem''
text$yd	ENDS
PUBLIC	?g_ZtWinQuestSystem@@3VZtWinQuestSystem@@A	; g_ZtWinQuestSystem
_BSS	SEGMENT
?g_ZtWinQuestSystem@@3VZtWinQuestSystem@@A DB 0cea64H DUP (?) ; g_ZtWinQuestSystem
_BSS	ENDS
CRT$XCU	SEGMENT
_g_ZtWinQuestSystem$initializer$ DD FLAT:??__Eg_ZtWinQuestSystem@@YAXXZ
CRT$XCU	ENDS
END
