; Listing generated by Microsoft (R) Optimizing Compiler Version 16.00.30319.01 

	TITLE	E:\work\tranet_version\GS\common\zzzitem.cpp
	.686P
	.XMM
	include listing.inc
	.model	flat

INCLUDELIB LIBCMT
INCLUDELIB OLDNAMES

PUBLIC	?ItemAttribute@@3PAUITEM_ATTRIBUTE@@A		; ItemAttribute
PUBLIC	?g_MaxItemIndexOfEachItemType@@3PAHA		; g_MaxItemIndexOfEachItemType
_BSS	SEGMENT
?ItemAttribute@@3PAUITEM_ATTRIBUTE@@A DB 0e0000H DUP (?) ; ItemAttribute
?g_MaxItemIndexOfEachItemType@@3PAHA DD 010H DUP (?)	; g_MaxItemIndexOfEachItemType
_BSS	ENDS
_DATA	SEGMENT
_g_iNpcUpDfLevel_CGATE DD 01H
	DD	02H
	DD	02dc6c0H
	DD	02H
	DD	03H
	DD	02dc6c0H
	DD	03H
	DD	04H
	DD	02dc6c0H
_g_iNpcUpDfLevel_CSTATUE DD 01H
	DD	03H
	DD	02dc6c0H
	DD	02H
	DD	05H
	DD	02dc6c0H
	DD	03H
	DD	07H
	DD	02dc6c0H
_g_iNpcUpMaxHP_CGATE DD 02625a0H
	DD	02H
	DD	0f4240H
	DD	03567e0H
	DD	03H
	DD	0f4240H
	DD	04f5880H
	DD	04H
	DD	0f4240H
_g_iNpcUpMaxHP_CSTATUE DD 02191c0H
	DD	03H
	DD	0f4240H
	DD	033e140H
	DD	05H
	DD	0f4240H
	DD	04c4b40H
	DD	07H
	DD	0f4240H
_g_iNpcUpRgLevel_CSTATUE DD 01H
	DD	03H
	DD	04c4b40H
	DD	02H
	DD	05H
	DD	04c4b40H
	DD	03H
	DD	07H
	DD	04c4b40H
_g_iCsUserReSpawnArea DD 023H
	DD	011H
	DD	090H
	DD	030H
	DD	04aH
	DD	090H
	DD	073H
	DD	09aH
	DD	023H
	DD	011H
	DD	090H
	DD	030H
_g_iNpcDefense_CGATE DD 064H
	DD	0b4H
	DD	012cH
	DD	0208H
_g_iNpcDefense_CSTATUE DD 050H
	DD	0b4H
	DD	0154H
	DD	0226H
_g_iCastleWallStepAxisY DD 071H
	DD	0a0H
	DD	0cbH
_DATA	ENDS
PUBLIC	__$ArrayPad$
EXTRN	_isalnum:PROC
EXTRN	_isalpha:PROC
EXTRN	_atof:PROC
EXTRN	_isdigit:PROC
EXTRN	_getc:PROC
EXTRN	_ungetc:PROC
EXTRN	_isspace:PROC
EXTRN	_fgetc:PROC
EXTRN	___security_cookie:DWORD
EXTRN	__fltused:DWORD
EXTRN	@__security_check_cookie@4:PROC
_BSS	SEGMENT
_CurrentToken DD 01H DUP (?)
_TokenNumber DD	01H DUP (?)
_SMDFile DD	01H DUP (?)
_TokenString DB	064H DUP (?)
; Function compile flags: /Ogtp
; File e:\work\tranet_version\gs\include\readscript.h
_BSS	ENDS
;	COMDAT ?GetToken@@YA?AW4SMDToken@@XZ
_TEXT	SEGMENT
_TempString$ = -104					; size = 100
__$ArrayPad$ = -4					; size = 4
?GetToken@@YA?AW4SMDToken@@XZ PROC			; GetToken, COMDAT

; 24   : {

  00000	55		 push	 ebp
  00001	8b ec		 mov	 ebp, esp
  00003	83 ec 68	 sub	 esp, 104		; 00000068H
  00006	a1 00 00 00 00	 mov	 eax, DWORD PTR ___security_cookie
  0000b	33 c5		 xor	 eax, ebp
  0000d	89 45 fc	 mov	 DWORD PTR __$ArrayPad$[ebp], eax

; 25   : 	char ch;
; 26   : 	char* p;
; 27   : 	char TempString[100];
; 28   : 
; 29   : 	TokenString[0]=0;

  00010	c6 05 00 00 00
	00 00		 mov	 BYTE PTR _TokenString, 0
  00017	53		 push	 ebx
  00018	eb 06 8d 9b 00
	00 00 00	 npad	 8
$LL31@GetToken:

; 30   : 
; 31   : 	do
; 32   : 	{
; 33   : 		if ((ch=fgetc(SMDFile)) == -1)

  00020	a1 00 00 00 00	 mov	 eax, DWORD PTR _SMDFile
  00025	50		 push	 eax
  00026	e8 00 00 00 00	 call	 _fgetc
  0002b	8a d8		 mov	 bl, al
  0002d	83 c4 04	 add	 esp, 4
  00030	80 fb ff	 cmp	 bl, -1
  00033	74 64		 je	 SHORT $LN39@GetToken

; 36   : 		}
; 37   : 		else
; 38   : 		{	
; 39   : 			if (ch=='/')		// this is /

  00035	80 fb 2f	 cmp	 bl, 47			; 0000002fH
  00038	75 31		 jne	 SHORT $LN30@GetToken

; 40   : 			{
; 41   : 				if((ch=fgetc(SMDFile)) == '/')

  0003a	8b 0d 00 00 00
	00		 mov	 ecx, DWORD PTR _SMDFile
  00040	51		 push	 ecx
  00041	e8 00 00 00 00	 call	 _fgetc
  00046	8a d8		 mov	 bl, al
  00048	83 c4 04	 add	 esp, 4
  0004b	80 fb 2f	 cmp	 bl, 47			; 0000002fH
  0004e	75 1b		 jne	 SHORT $LN30@GetToken
$LL24@GetToken:

; 42   : 				{
; 43   : 					while ((ch != '\n') && (ch != -1))	// End of Line (EOL)

  00050	80 fb ff	 cmp	 bl, -1
  00053	74 44		 je	 SHORT $LN39@GetToken

; 44   : 					{
; 45   : 						ch=fgetc(SMDFile);

  00055	8b 15 00 00 00
	00		 mov	 edx, DWORD PTR _SMDFile
  0005b	52		 push	 edx
  0005c	e8 00 00 00 00	 call	 _fgetc
  00061	8a d8		 mov	 bl, al
  00063	83 c4 04	 add	 esp, 4
  00066	80 fb 0a	 cmp	 bl, 10			; 0000000aH
  00069	75 e5		 jne	 SHORT $LL24@GetToken
$LN30@GetToken:

; 46   : 					}
; 47   : 	
; 48   : 					if (ch == -1)
; 49   : 					{
; 50   : 						return END;	// End of FILE
; 51   : 					}
; 52   : 				}
; 53   : 			}
; 54   : 		}
; 55   : 	}
; 56   : 	while (isspace(ch) != 0);

  0006b	0f be c3	 movsx	 eax, bl
  0006e	50		 push	 eax
  0006f	e8 00 00 00 00	 call	 _isspace
  00074	83 c4 04	 add	 esp, 4
  00077	85 c0		 test	 eax, eax
  00079	75 a5		 jne	 SHORT $LL31@GetToken

; 57   : 
; 58   : 	
; 59   : 	switch(ch)

  0007b	0f be c3	 movsx	 eax, bl
  0007e	8d 48 de	 lea	 ecx, DWORD PTR [eax-34]
  00081	56		 push	 esi
  00082	83 f9 5b	 cmp	 ecx, 91			; 0000005bH
  00085	0f 87 2b 01 00
	00		 ja	 $LN6@GetToken
  0008b	0f b6 89 00 00
	00 00		 movzx	 ecx, BYTE PTR $LN46@GetToken[ecx]
  00092	ff 24 8d 00 00
	00 00		 jmp	 DWORD PTR $LN50@GetToken[ecx*4]
$LN39@GetToken:

; 34   : 		{
; 35   : 			return END;	// End of FILE (EOF)

  00099	b8 02 00 00 00	 mov	 eax, 2
  0009e	5b		 pop	 ebx

; 147  : 		}
; 148  : 		break;
; 149  : 
; 150  : 	}
; 151  : 
; 152  : 	return NAME;
; 153  : }

  0009f	8b 4d fc	 mov	 ecx, DWORD PTR __$ArrayPad$[ebp]
  000a2	33 cd		 xor	 ecx, ebp
  000a4	e8 00 00 00 00	 call	 @__security_check_cookie@4
  000a9	8b e5		 mov	 esp, ebp
  000ab	5d		 pop	 ebp
  000ac	c3		 ret	 0
$LN19@GetToken:

; 60   : 	{
; 61   : 
; 62   : 	case 0x23:	// #
; 63   : 		return CurrentToken=COMMAND;

  000ad	b8 23 00 00 00	 mov	 eax, 35			; 00000023H
  000b2	e9 99 01 00 00	 jmp	 $LN48@GetToken
$LN18@GetToken:

; 64   : 		break;
; 65   : 	
; 66   : 	case 0x3B:	// ;
; 67   : 		return CurrentToken=SEMICOLON;

  000b7	b8 3b 00 00 00	 mov	 eax, 59			; 0000003bH
  000bc	e9 8f 01 00 00	 jmp	 $LN48@GetToken
$LN17@GetToken:

; 68   : 		break;
; 69   : 	
; 70   : 	case 0x2C:	// ,
; 71   : 
; 72   : 		return CurrentToken=COMMA;

  000c1	b8 2c 00 00 00	 mov	 eax, 44			; 0000002cH
  000c6	e9 85 01 00 00	 jmp	 $LN48@GetToken
$LN16@GetToken:

; 73   : 		break;
; 74   : 	
; 75   : 	case 0x7B:	// {
; 76   : 		return CurrentToken = LP;

  000cb	b8 7b 00 00 00	 mov	 eax, 123		; 0000007bH
  000d0	e9 7b 01 00 00	 jmp	 $LN48@GetToken
$LN15@GetToken:

; 77   : 		break;
; 78   : 
; 79   : 	case 0x7D:	// }
; 80   : 		return CurrentToken = RP;

  000d5	b8 7d 00 00 00	 mov	 eax, 125		; 0000007dH
  000da	e9 71 01 00 00	 jmp	 $LN48@GetToken
$LN14@GetToken:

; 81   : 		break;
; 82   : 	// Nice Index Table :)	by Deathway
; 83   : 	// Numbers Case
; 84   : 	case 0x2D:	//-
; 85   : 	case 0x2E:	//.
; 86   : 	case '0':	//0
; 87   : 	case '1':	//1
; 88   : 	case '2':	//2
; 89   : 	case '3':	//3
; 90   : 	case '4':	//4		
; 91   : 	case '5':	//5
; 92   : 	case '6':	//6
; 93   : 	case '7':	//7
; 94   : 	case '8':	//8
; 95   : 	case '9':	//9
; 96   : 		ungetc(ch, SMDFile);

  000df	8b 15 00 00 00
	00		 mov	 edx, DWORD PTR _SMDFile
  000e5	52		 push	 edx
  000e6	50		 push	 eax
  000e7	e8 00 00 00 00	 call	 _ungetc

; 97   : 		p = TempString;
; 98   : 		
; 99   : 		while (((ch=getc(SMDFile)) != -1) && ((ch == 0x2E) || (isdigit(ch) != 0) || (ch == 0x2D)))  // 2e '.'  2D '-'

  000ec	a1 00 00 00 00	 mov	 eax, DWORD PTR _SMDFile
  000f1	50		 push	 eax
  000f2	8d 75 98	 lea	 esi, DWORD PTR _TempString$[ebp]
  000f5	e8 00 00 00 00	 call	 _getc
  000fa	8a d8		 mov	 bl, al
  000fc	83 c4 0c	 add	 esp, 12			; 0000000cH
  000ff	80 fb ff	 cmp	 bl, -1
  00102	74 33		 je	 SHORT $LN12@GetToken
$LL13@GetToken:
  00104	80 fb 2e	 cmp	 bl, 46			; 0000002eH
  00107	74 15		 je	 SHORT $LN11@GetToken
  00109	0f be cb	 movsx	 ecx, bl
  0010c	51		 push	 ecx
  0010d	e8 00 00 00 00	 call	 _isdigit
  00112	83 c4 04	 add	 esp, 4
  00115	85 c0		 test	 eax, eax
  00117	75 05		 jne	 SHORT $LN11@GetToken
  00119	80 fb 2d	 cmp	 bl, 45			; 0000002dH
  0011c	75 19		 jne	 SHORT $LN12@GetToken
$LN11@GetToken:
  0011e	8b 15 00 00 00
	00		 mov	 edx, DWORD PTR _SMDFile

; 100  : 		{
; 101  : 			*p = ch;	// Construct a String

  00124	88 1e		 mov	 BYTE PTR [esi], bl
  00126	52		 push	 edx

; 102  : 			p++;

  00127	46		 inc	 esi
  00128	e8 00 00 00 00	 call	 _getc
  0012d	8a d8		 mov	 bl, al
  0012f	83 c4 04	 add	 esp, 4
  00132	80 fb ff	 cmp	 bl, -1
  00135	75 cd		 jne	 SHORT $LL13@GetToken
$LN12@GetToken:

; 103  : 		}		
; 104  : 		*p = 0;
; 105  : 		TokenNumber = atof( TempString);	// Select the first Byte as Main ID

  00137	8d 45 98	 lea	 eax, DWORD PTR _TempString$[ebp]
  0013a	50		 push	 eax
  0013b	c6 06 00	 mov	 BYTE PTR [esi], 0
  0013e	e8 00 00 00 00	 call	 _atof
  00143	d9 1d 00 00 00
	00		 fstp	 DWORD PTR _TokenNumber
  00149	83 c4 04	 add	 esp, 4
  0014c	5e		 pop	 esi

; 106  : 		return CurrentToken  = NUMBER ;

  0014d	c7 05 00 00 00
	00 01 00 00 00	 mov	 DWORD PTR _CurrentToken, 1
  00157	b8 01 00 00 00	 mov	 eax, 1
  0015c	5b		 pop	 ebx

; 147  : 		}
; 148  : 		break;
; 149  : 
; 150  : 	}
; 151  : 
; 152  : 	return NAME;
; 153  : }

  0015d	8b 4d fc	 mov	 ecx, DWORD PTR __$ArrayPad$[ebp]
  00160	33 cd		 xor	 ecx, ebp
  00162	e8 00 00 00 00	 call	 @__security_check_cookie@4
  00167	8b e5		 mov	 esp, ebp
  00169	5d		 pop	 ebp
  0016a	c3		 ret	 0
$LN10@GetToken:

; 107  : 		break;
; 108  : 
; 109  : 	case '\"':	// "	String Case
; 110  : 		p=&TokenString[0];
; 111  : 		
; 112  : 		while (((ch=getc(SMDFile)) != -1 ) && (ch != 0x22))	// nice

  0016b	8b 0d 00 00 00
	00		 mov	 ecx, DWORD PTR _SMDFile
  00171	51		 push	 ecx
  00172	be 00 00 00 00	 mov	 esi, OFFSET _TokenString
  00177	e8 00 00 00 00	 call	 _getc
  0017c	83 c4 04	 add	 esp, 4
  0017f	3c ff		 cmp	 al, -1
  00181	74 1e		 je	 SHORT $LN8@GetToken
$LL9@GetToken:
  00183	3c 22		 cmp	 al, 34			; 00000022H
  00185	0f 84 a1 00 00
	00		 je	 $LN7@GetToken
  0018b	8b 15 00 00 00
	00		 mov	 edx, DWORD PTR _SMDFile

; 113  : 		{
; 114  : 			*p = ch;

  00191	88 06		 mov	 BYTE PTR [esi], al
  00193	52		 push	 edx

; 115  : 			p++;

  00194	46		 inc	 esi
  00195	e8 00 00 00 00	 call	 _getc
  0019a	83 c4 04	 add	 esp, 4
  0019d	3c ff		 cmp	 al, -1
  0019f	75 e2		 jne	 SHORT $LL9@GetToken
$LN8@GetToken:

; 116  : 		}
; 117  : 		if (ch != 0x22 )

  001a1	3c 22		 cmp	 al, 34			; 00000022H
  001a3	0f 84 83 00 00
	00		 je	 $LN7@GetToken

; 118  : 		{
; 119  : 			ungetc(ch, SMDFile);

  001a9	8b 0d 00 00 00
	00		 mov	 ecx, DWORD PTR _SMDFile
  001af	0f be d0	 movsx	 edx, al
  001b2	51		 push	 ecx
  001b3	52		 push	 edx

; 120  : 		}
; 121  : 		*p = 0;
; 122  : 		return CurrentToken = NAME;

  001b4	eb 6e		 jmp	 SHORT $LN49@GetToken
$LN6@GetToken:

; 123  : 		break;
; 124  : 
; 125  : 	default:	// Others
; 126  : 		if (isalpha(ch))

  001b6	50		 push	 eax
  001b7	e8 00 00 00 00	 call	 _isalpha
  001bc	83 c4 04	 add	 esp, 4
  001bf	85 c0		 test	 eax, eax
  001c1	0f 84 84 00 00
	00		 je	 $LN5@GetToken

; 127  : 		{
; 128  : 			p=&TokenString[0];
; 129  : 			*p=ch;
; 130  : 			p++;
; 131  : 
; 132  : 			while ( ((ch=getc(SMDFile)) != -1) && ( (ch == 0x2E) || (ch == 0x5F) || (isalnum(ch) != 0) ) )

  001c7	a1 00 00 00 00	 mov	 eax, DWORD PTR _SMDFile
  001cc	50		 push	 eax
  001cd	88 1d 00 00 00
	00		 mov	 BYTE PTR _TokenString, bl
  001d3	be 01 00 00 00	 mov	 esi, OFFSET _TokenString+1
  001d8	e8 00 00 00 00	 call	 _getc
  001dd	8a d8		 mov	 bl, al
  001df	83 c4 04	 add	 esp, 4
  001e2	80 fb ff	 cmp	 bl, -1
  001e5	74 33		 je	 SHORT $LN3@GetToken
$LL4@GetToken:
  001e7	80 fb 2e	 cmp	 bl, 46			; 0000002eH
  001ea	74 15		 je	 SHORT $LN2@GetToken
  001ec	80 fb 5f	 cmp	 bl, 95			; 0000005fH
  001ef	74 10		 je	 SHORT $LN2@GetToken
  001f1	0f be cb	 movsx	 ecx, bl
  001f4	51		 push	 ecx
  001f5	e8 00 00 00 00	 call	 _isalnum
  001fa	83 c4 04	 add	 esp, 4
  001fd	85 c0		 test	 eax, eax
  001ff	74 19		 je	 SHORT $LN3@GetToken
$LN2@GetToken:
  00201	8b 15 00 00 00
	00		 mov	 edx, DWORD PTR _SMDFile

; 133  : 			{
; 134  : 				*p=ch;

  00207	88 1e		 mov	 BYTE PTR [esi], bl
  00209	52		 push	 edx

; 135  : 				p++;

  0020a	46		 inc	 esi
  0020b	e8 00 00 00 00	 call	 _getc
  00210	8a d8		 mov	 bl, al
  00212	83 c4 04	 add	 esp, 4
  00215	80 fb ff	 cmp	 bl, -1
  00218	75 cd		 jne	 SHORT $LL4@GetToken
$LN3@GetToken:

; 136  : 				
; 137  : 			}
; 138  : 
; 139  : 			ungetc(ch, SMDFile);

  0021a	a1 00 00 00 00	 mov	 eax, DWORD PTR _SMDFile
  0021f	0f be cb	 movsx	 ecx, bl
  00222	50		 push	 eax
  00223	51		 push	 ecx
$LN49@GetToken:
  00224	e8 00 00 00 00	 call	 _ungetc
  00229	83 c4 08	 add	 esp, 8
$LN7@GetToken:

; 140  : 			*p=0;

  0022c	c6 06 00	 mov	 BYTE PTR [esi], 0
  0022f	5e		 pop	 esi

; 141  : 			CurrentToken=NAME;

  00230	c7 05 00 00 00
	00 00 00 00 00	 mov	 DWORD PTR _CurrentToken, 0

; 142  : 			return CurrentToken;

  0023a	33 c0		 xor	 eax, eax
  0023c	5b		 pop	 ebx

; 147  : 		}
; 148  : 		break;
; 149  : 
; 150  : 	}
; 151  : 
; 152  : 	return NAME;
; 153  : }

  0023d	8b 4d fc	 mov	 ecx, DWORD PTR __$ArrayPad$[ebp]
  00240	33 cd		 xor	 ecx, ebp
  00242	e8 00 00 00 00	 call	 @__security_check_cookie@4
  00247	8b e5		 mov	 esp, ebp
  00249	5d		 pop	 ebp
  0024a	c3		 ret	 0
$LN5@GetToken:

; 143  : 		}
; 144  : 		else
; 145  : 		{
; 146  : 			return CurrentToken = SMD_ERROR; // '<'

  0024b	b8 3c 00 00 00	 mov	 eax, 60			; 0000003cH
$LN48@GetToken:

; 147  : 		}
; 148  : 		break;
; 149  : 
; 150  : 	}
; 151  : 
; 152  : 	return NAME;
; 153  : }

  00250	8b 4d fc	 mov	 ecx, DWORD PTR __$ArrayPad$[ebp]
  00253	5e		 pop	 esi
  00254	33 cd		 xor	 ecx, ebp
  00256	a3 00 00 00 00	 mov	 DWORD PTR _CurrentToken, eax
  0025b	5b		 pop	 ebx
  0025c	e8 00 00 00 00	 call	 @__security_check_cookie@4
  00261	8b e5		 mov	 esp, ebp
  00263	5d		 pop	 ebp
  00264	c3		 ret	 0
  00265	8d 49 00	 npad	 3
$LN50@GetToken:
  00268	00 00 00 00	 DD	 $LN10@GetToken
  0026c	00 00 00 00	 DD	 $LN19@GetToken
  00270	00 00 00 00	 DD	 $LN17@GetToken
  00274	00 00 00 00	 DD	 $LN14@GetToken
  00278	00 00 00 00	 DD	 $LN18@GetToken
  0027c	00 00 00 00	 DD	 $LN16@GetToken
  00280	00 00 00 00	 DD	 $LN15@GetToken
  00284	00 00 00 00	 DD	 $LN6@GetToken
$LN46@GetToken:
  00288	00		 DB	 0
  00289	01		 DB	 1
  0028a	07		 DB	 7
  0028b	07		 DB	 7
  0028c	07		 DB	 7
  0028d	07		 DB	 7
  0028e	07		 DB	 7
  0028f	07		 DB	 7
  00290	07		 DB	 7
  00291	07		 DB	 7
  00292	02		 DB	 2
  00293	03		 DB	 3
  00294	03		 DB	 3
  00295	07		 DB	 7
  00296	03		 DB	 3
  00297	03		 DB	 3
  00298	03		 DB	 3
  00299	03		 DB	 3
  0029a	03		 DB	 3
  0029b	03		 DB	 3
  0029c	03		 DB	 3
  0029d	03		 DB	 3
  0029e	03		 DB	 3
  0029f	03		 DB	 3
  002a0	07		 DB	 7
  002a1	04		 DB	 4
  002a2	07		 DB	 7
  002a3	07		 DB	 7
  002a4	07		 DB	 7
  002a5	07		 DB	 7
  002a6	07		 DB	 7
  002a7	07		 DB	 7
  002a8	07		 DB	 7
  002a9	07		 DB	 7
  002aa	07		 DB	 7
  002ab	07		 DB	 7
  002ac	07		 DB	 7
  002ad	07		 DB	 7
  002ae	07		 DB	 7
  002af	07		 DB	 7
  002b0	07		 DB	 7
  002b1	07		 DB	 7
  002b2	07		 DB	 7
  002b3	07		 DB	 7
  002b4	07		 DB	 7
  002b5	07		 DB	 7
  002b6	07		 DB	 7
  002b7	07		 DB	 7
  002b8	07		 DB	 7
  002b9	07		 DB	 7
  002ba	07		 DB	 7
  002bb	07		 DB	 7
  002bc	07		 DB	 7
  002bd	07		 DB	 7
  002be	07		 DB	 7
  002bf	07		 DB	 7
  002c0	07		 DB	 7
  002c1	07		 DB	 7
  002c2	07		 DB	 7
  002c3	07		 DB	 7
  002c4	07		 DB	 7
  002c5	07		 DB	 7
  002c6	07		 DB	 7
  002c7	07		 DB	 7
  002c8	07		 DB	 7
  002c9	07		 DB	 7
  002ca	07		 DB	 7
  002cb	07		 DB	 7
  002cc	07		 DB	 7
  002cd	07		 DB	 7
  002ce	07		 DB	 7
  002cf	07		 DB	 7
  002d0	07		 DB	 7
  002d1	07		 DB	 7
  002d2	07		 DB	 7
  002d3	07		 DB	 7
  002d4	07		 DB	 7
  002d5	07		 DB	 7
  002d6	07		 DB	 7
  002d7	07		 DB	 7
  002d8	07		 DB	 7
  002d9	07		 DB	 7
  002da	07		 DB	 7
  002db	07		 DB	 7
  002dc	07		 DB	 7
  002dd	07		 DB	 7
  002de	07		 DB	 7
  002df	07		 DB	 7
  002e0	07		 DB	 7
  002e1	05		 DB	 5
  002e2	07		 DB	 7
  002e3	06		 DB	 6
?GetToken@@YA?AW4SMDToken@@XZ ENDP			; GetToken
_TEXT	ENDS
PUBLIC	??_H@YGXPAXIHP6EPAX0@Z@Z			; `vector constructor iterator'
; Function compile flags: /Ogtp
;	COMDAT ??_H@YGXPAXIHP6EPAX0@Z@Z
_TEXT	SEGMENT
___t$ = 8						; size = 4
___s$ = 12						; size = 4
___n$ = 16						; size = 4
___f$ = 20						; size = 4
??_H@YGXPAXIHP6EPAX0@Z@Z PROC				; `vector constructor iterator', COMDAT
  00000	55		 push	 ebp
  00001	8b ec		 mov	 ebp, esp
  00003	57		 push	 edi
  00004	8b 7d 10	 mov	 edi, DWORD PTR ___n$[ebp]
  00007	4f		 dec	 edi
  00008	78 14		 js	 SHORT $LN1@vector
  0000a	53		 push	 ebx
  0000b	8b 5d 14	 mov	 ebx, DWORD PTR ___f$[ebp]
  0000e	56		 push	 esi
  0000f	8b 75 08	 mov	 esi, DWORD PTR ___t$[ebp]
$LL2@vector:
  00012	8b ce		 mov	 ecx, esi
  00014	ff d3		 call	 ebx
  00016	03 75 0c	 add	 esi, DWORD PTR ___s$[ebp]
  00019	4f		 dec	 edi
  0001a	79 f6		 jns	 SHORT $LL2@vector
  0001c	5e		 pop	 esi
  0001d	5b		 pop	 ebx
$LN1@vector:
  0001e	5f		 pop	 edi
  0001f	5d		 pop	 ebp
  00020	c2 10 00	 ret	 16			; 00000010H
??_H@YGXPAXIHP6EPAX0@Z@Z ENDP				; `vector constructor iterator'
_TEXT	ENDS
PUBLIC	__real@bf800000
PUBLIC	__real@00000000
PUBLIC	?Clear@CItem@@QAEXXZ				; CItem::Clear
;	COMDAT __real@bf800000
; File e:\work\tranet_version\gs\common\zzzitem.cpp
CONST	SEGMENT
__real@bf800000 DD 0bf800000r			; -1
CONST	ENDS
;	COMDAT __real@00000000
CONST	SEGMENT
__real@00000000 DD 000000000r			; 0
; Function compile flags: /Ogtp
CONST	ENDS
;	COMDAT ?Clear@CItem@@QAEXXZ
_TEXT	SEGMENT
?Clear@CItem@@QAEXXZ PROC				; CItem::Clear, COMDAT
; _this$ = ecx

; 32   : 	this->m_Type =-1;
; 33   : 	this->m_Level =0;
; 34   : 	this->m_Part=0;
; 35   : 	this->m_Class=0;
; 36   : 	this->m_TwoHand=0;
; 37   : 	this->m_AttackSpeed=0;
; 38   : 	this->m_DamageMin=0;
; 39   : 	this->m_DamageMax=0;
; 40   : 	this->m_SuccessfulBlocking=0;
; 41   : 	this->m_Defense=0;
; 42   : 	this->m_MagicDefense =0;
; 43   : 	this->m_Durability=0;

  00000	d9 ee		 fldz
  00002	83 ca ff	 or	 edx, -1
  00005	d9 59 24	 fstp	 DWORD PTR [ecx+36]

; 44   : 	this->m_SpecialNum=0;
; 45   : 	this->m_Value=0;
; 46   : 	this->m_Option1 =0;
; 47   : 	this->m_Option2 =0;
; 48   : 	this->m_Option3 =0;
; 49   : 	this->m_NewOption =0;
; 50   : 	this->m_Number =0;
; 51   : 	this->m_DurabilitySmall =0;
; 52   : 	this->m_iPShopValue=-1;

  00008	89 51 74	 mov	 DWORD PTR [ecx+116], edx

; 53   : 
; 54   : #if(CUSTOM_PERSONAL_SHOP==TRUE)
; 55   : 	this->m_iPShopBonus=-1;
; 56   : 	this->m_PShopBlessValue=-1;
; 57   : 	this->m_PShopSoulValue=-1;
; 58   : 	this->m_PShopChaosValue=-1;
; 59   : 	this->m_PShopLifeValue=-1;
; 60   : 	//#if(DEV_PERSONAL_CREDIT)
; 61   : 	this->m_iPShopCredit=-1;
; 62   : 	//#endif
; 63   : #endif
; 64   : 
; 65   : 	this->m_bItemExist=true;
; 66   : 	this->m_CurrentDurabilityState=-1;

  0000b	d9 05 00 00 00
	00		 fld	 DWORD PTR __real@bf800000
  00011	89 51 78	 mov	 DWORD PTR [ecx+120], edx
  00014	d9 99 a8 00 00
	00		 fstp	 DWORD PTR [ecx+168]
  0001a	89 91 84 00 00
	00		 mov	 DWORD PTR [ecx+132], edx
  00020	c6 81 88 00 00
	00 01		 mov	 BYTE PTR [ecx+136], 1
  00027	56		 push	 esi
  00028	33 f6		 xor	 esi, esi
  0002a	66 89 71 10	 mov	 WORD PTR [ecx+16], si
  0002e	66 89 71 12	 mov	 WORD PTR [ecx+18], si
  00032	66 89 71 16	 mov	 WORD PTR [ecx+22], si
  00036	66 89 71 18	 mov	 WORD PTR [ecx+24], si
  0003a	66 89 71 28	 mov	 WORD PTR [ecx+40], si
  0003e	8b c2		 mov	 eax, edx
  00040	66 89 41 06	 mov	 WORD PTR [ecx+6], ax
  00044	33 c0		 xor	 eax, eax
  00046	66 89 41 08	 mov	 WORD PTR [ecx+8], ax
  0004a	89 41 0a	 mov	 DWORD PTR [ecx+10], eax
  0004d	88 41 14	 mov	 BYTE PTR [ecx+20], al
  00050	88 41 30	 mov	 BYTE PTR [ecx+48], al
  00053	89 41 68	 mov	 DWORD PTR [ecx+104], eax
  00056	89 81 94 00 00
	00		 mov	 DWORD PTR [ecx+148], eax
  0005c	89 01		 mov	 DWORD PTR [ecx], eax

; 67   : 	this->m_SetOption=0;

  0005e	66 89 81 ad 00
	00 00		 mov	 WORD PTR [ecx+173], ax
  00065	8b f2		 mov	 esi, edx
  00067	66 89 71 7c	 mov	 WORD PTR [ecx+124], si
  0006b	66 89 71 7e	 mov	 WORD PTR [ecx+126], si
  0006f	66 89 b1 80 00
	00 00		 mov	 WORD PTR [ecx+128], si
  00076	66 89 b1 82 00
	00 00		 mov	 WORD PTR [ecx+130], si

; 68   : 	this->m_QuestItem=false;
; 69   : 
; 70   : 	memset(this->m_Special, 0, sizeof(this->m_Special));

  0007d	89 41 32	 mov	 DWORD PTR [ecx+50], eax
  00080	89 41 36	 mov	 DWORD PTR [ecx+54], eax
  00083	89 41 3a	 mov	 DWORD PTR [ecx+58], eax
  00086	89 41 3e	 mov	 DWORD PTR [ecx+62], eax

; 71   : 	memset(this->m_SpecialValue, 0, sizeof(this->m_SpecialValue));

  00089	89 41 42	 mov	 DWORD PTR [ecx+66], eax
  0008c	89 41 46	 mov	 DWORD PTR [ecx+70], eax

; 72   : 	memset(this->m_Resistance, 0, sizeof(this->m_Resistance));

  0008f	89 41 5f	 mov	 DWORD PTR [ecx+95], eax
  00092	66 89 41 63	 mov	 WORD PTR [ecx+99], ax
  00096	88 41 65	 mov	 BYTE PTR [ecx+101], al

; 73   : 
; 74   : 	this->m_IsLoadPetItemInfo=0;
; 75   : 	this->m_PetItem_Level =1;
; 76   : 	this->m_PetItem_Exp =0;
; 77   : 	this->m_Leadership=0;

  00099	33 f6		 xor	 esi, esi
  0009b	66 89 71 56	 mov	 WORD PTR [ecx+86], si
  0009f	89 81 b8 00 00
	00		 mov	 DWORD PTR [ecx+184], eax
  000a5	c7 81 bc 00 00
	00 01 00 00 00	 mov	 DWORD PTR [ecx+188], 1
  000af	89 81 c0 00 00
	00		 mov	 DWORD PTR [ecx+192], eax

; 78   : 	this->m_JewelOfHarmonyOption = 0;

  000b5	88 81 c4 00 00
	00		 mov	 BYTE PTR [ecx+196], al

; 79   : 	this->m_ItemOptionEx = 0;
; 80   : #ifdef PERIOD
; 81   : 	m_PeriodItemOption = 0;

  000bb	88 81 d2 00 00
	00		 mov	 BYTE PTR [ecx+210], al
  000c1	66 c7 81 ca 00
	00 00 00 ff	 mov	 WORD PTR [ecx+202], 65280 ; 0000ff00H

; 82   : #endif
; 83   : 	//Season 4 add-on
; 84   : 	this->m_SocketOptionIndex = 0xFF;
; 85   : 
; 86   : 	memset(this->m_SocketOption, 0xFF, sizeof(this->m_SocketOption));

  000ca	89 91 cc 00 00
	00		 mov	 DWORD PTR [ecx+204], edx
  000d0	88 91 d0 00 00
	00		 mov	 BYTE PTR [ecx+208], dl

; 87   : 
; 88   : 	this->m_SocketBonus = 0;

  000d6	88 81 d1 00 00
	00		 mov	 BYTE PTR [ecx+209], al
  000dc	5e		 pop	 esi

; 89   : }

  000dd	c3		 ret	 0
?Clear@CItem@@QAEXXZ ENDP				; CItem::Clear
_TEXT	ENDS
PUBLIC	?IsItem@CItem@@QAEHXZ				; CItem::IsItem
; Function compile flags: /Ogtp
;	COMDAT ?IsItem@CItem@@QAEHXZ
_TEXT	SEGMENT
?IsItem@CItem@@QAEHXZ PROC				; CItem::IsItem, COMDAT
; _this$ = ecx

; 93   : 	if (this->m_Type < 0)

  00000	33 c0		 xor	 eax, eax
  00002	66 39 41 06	 cmp	 WORD PTR [ecx+6], ax
  00006	0f 9d c0	 setge	 al

; 94   : 	{
; 95   : 		return 0;
; 96   : 	}
; 97   : 	else
; 98   : 	{
; 99   : 		return 1;
; 100  : 	}
; 101  : }

  00009	c3		 ret	 0
?IsItem@CItem@@QAEHXZ ENDP				; CItem::IsItem
_TEXT	ENDS
PUBLIC	?IsSetItem@CItem@@QAEHXZ			; CItem::IsSetItem
; Function compile flags: /Ogtp
;	COMDAT ?IsSetItem@CItem@@QAEHXZ
_TEXT	SEGMENT
?IsSetItem@CItem@@QAEHXZ PROC				; CItem::IsSetItem, COMDAT
; _this$ = ecx

; 105  : 	if (this->m_Type < 0)

  00000	66 83 79 06 00	 cmp	 WORD PTR [ecx+6], 0
  00005	7d 03		 jge	 SHORT $LN2@IsSetItem

; 106  : 	{
; 107  : 		return 0;

  00007	33 c0		 xor	 eax, eax

; 112  : 	}
; 113  : }	

  00009	c3		 ret	 0
$LN2@IsSetItem:

; 108  : 	}
; 109  : 	else
; 110  : 	{
; 111  : 		return this->m_SetOption & 3;

  0000a	0f b6 81 ae 00
	00 00		 movzx	 eax, BYTE PTR [ecx+174]
  00011	83 e0 03	 and	 eax, 3

; 112  : 	}
; 113  : }	

  00014	c3		 ret	 0
?IsSetItem@CItem@@QAEHXZ ENDP				; CItem::IsSetItem
_TEXT	ENDS
PUBLIC	?GetLevel@CItem@@QAEHXZ				; CItem::GetLevel
; Function compile flags: /Ogtp
;	COMDAT ?GetLevel@CItem@@QAEHXZ
_TEXT	SEGMENT
?GetLevel@CItem@@QAEHXZ PROC				; CItem::GetLevel, COMDAT
; _this$ = ecx

; 1729 : 	return ItemAttribute[this->m_Type].Level;

  00000	0f bf 41 06	 movsx	 eax, WORD PTR [ecx+6]
  00004	6b c0 70	 imul	 eax, 112		; 00000070H
  00007	0f b6 80 22 00
	00 00		 movzx	 eax, BYTE PTR ?ItemAttribute@@3PAUITEM_ATTRIBUTE@@A[eax+34]

; 1730 : }

  0000e	c3		 ret	 0
?GetLevel@CItem@@QAEHXZ ENDP				; CItem::GetLevel
_TEXT	ENDS
PUBLIC	?GetNumber@CItem@@QAEKXZ			; CItem::GetNumber
; Function compile flags: /Ogtp
;	COMDAT ?GetNumber@CItem@@QAEKXZ
_TEXT	SEGMENT
?GetNumber@CItem@@QAEKXZ PROC				; CItem::GetNumber, COMDAT
; _this$ = ecx

; 1734 : 	return this->m_Number;

  00000	8b 01		 mov	 eax, DWORD PTR [ecx]

; 1735 : }

  00002	c3		 ret	 0
?GetNumber@CItem@@QAEKXZ ENDP				; CItem::GetNumber
_TEXT	ENDS
PUBLIC	?OldValue@CItem@@QAEXXZ				; CItem::OldValue
; Function compile flags: /Ogtp
;	COMDAT ?OldValue@CItem@@QAEXXZ
_TEXT	SEGMENT
?OldValue@CItem@@QAEXXZ PROC				; CItem::OldValue, COMDAT
; _this$ = ecx

; 2595 : 	if ( this->m_Type == -1 )

  00000	0f b7 41 06	 movzx	 eax, WORD PTR [ecx+6]
  00004	66 83 f8 ff	 cmp	 ax, -1
  00008	0f 84 a0 00 00
	00		 je	 $LN1@OldValue

; 2596 : 	{
; 2597 : 		return;
; 2598 : 	}
; 2599 : 
; 2600 : 	int Gold = 0;
; 2601 : 
; 2602 : 	if ( this->m_Type == ITEMGET(14,13) ) // Bless

  0000e	ba 0d 1c 00 00	 mov	 edx, 7181		; 00001c0dH
  00013	66 3b c2	 cmp	 ax, dx
  00016	75 07		 jne	 SHORT $LN13@OldValue

; 2603 : 	{
; 2604 : 		Gold = 100000;

  00018	ba a0 86 01 00	 mov	 edx, 100000		; 000186a0H
  0001d	eb 3b		 jmp	 SHORT $LN4@OldValue
$LN13@OldValue:

; 2605 : 	}
; 2606 : 	else if ( this->m_Type == ITEMGET(14,14) ) // Soul

  0001f	ba 0e 1c 00 00	 mov	 edx, 7182		; 00001c0eH
  00024	66 3b c2	 cmp	 ax, dx
  00027	75 07		 jne	 SHORT $LN11@OldValue

; 2607 : 	{
; 2608 : 		Gold = 70000;

  00029	ba 70 11 01 00	 mov	 edx, 70000		; 00011170H
  0002e	eb 2a		 jmp	 SHORT $LN4@OldValue
$LN11@OldValue:

; 2609 : 	}
; 2610 : 	else if ( this->m_Type == ITEMGET(12,15) ) // Chaos

  00030	ba 0f 18 00 00	 mov	 edx, 6159		; 0000180fH
  00035	66 3b c2	 cmp	 ax, dx
  00038	75 07		 jne	 SHORT $LN9@OldValue

; 2611 : 	{
; 2612 : 		Gold = 40000;

  0003a	ba 40 9c 00 00	 mov	 edx, 40000		; 00009c40H
  0003f	eb 19		 jmp	 SHORT $LN4@OldValue
$LN9@OldValue:

; 2613 : 	}
; 2614 : 	else if ( this->m_Type == ITEMGET(14,22) ) // Creation

  00041	ba 16 1c 00 00	 mov	 edx, 7190		; 00001c16H
  00046	66 3b c2	 cmp	 ax, dx

; 2615 : 	{
; 2616 : 		Gold = 450000;

  00049	74 0a		 je	 SHORT $LN17@OldValue

; 2617 : 	}
; 2618 : 	else if ( this->m_Type == ITEMGET(14,16) ) // Life

  0004b	ba 10 1c 00 00	 mov	 edx, 7184		; 00001c10H
  00050	66 3b c2	 cmp	 ax, dx
  00053	75 50		 jne	 SHORT $LN5@OldValue
$LN17@OldValue:

; 2619 : 	{
; 2620 : 		Gold = 450000;

  00055	ba d0 dd 06 00	 mov	 edx, 450000		; 0006ddd0H
$LN4@OldValue:

; 2625 : 		return;
; 2626 : 	}
; 2627 : 
; 2628 : 	this->m_OldBuyMoney = Gold;

  0005a	89 91 90 00 00
	00		 mov	 DWORD PTR [ecx+144], edx

; 2629 : 
; 2630 : 	if ( this->m_OldBuyMoney >= 1000 )

  00060	81 fa e8 03 00
	00		 cmp	 edx, 1000		; 000003e8H
  00066	7c 1b		 jl	 SHORT $LN3@OldValue

; 2631 : 	{
; 2632 : 		this->m_OldBuyMoney = this->m_OldBuyMoney /100*100;

  00068	b8 1f 85 eb 51	 mov	 eax, 1374389535		; 51eb851fH
  0006d	f7 ea		 imul	 edx
  0006f	c1 fa 05	 sar	 edx, 5
  00072	8b c2		 mov	 eax, edx
  00074	c1 e8 1f	 shr	 eax, 31			; 0000001fH
  00077	03 c2		 add	 eax, edx
  00079	6b c0 64	 imul	 eax, 100		; 00000064H
  0007c	89 81 90 00 00
	00		 mov	 DWORD PTR [ecx+144], eax

; 2637 : 	}
; 2638 : }

  00082	c3		 ret	 0
$LN3@OldValue:

; 2633 : 	}
; 2634 : 	else if ( this->m_OldBuyMoney >= 100 )

  00083	83 fa 64	 cmp	 edx, 100		; 00000064H
  00086	7c 26		 jl	 SHORT $LN1@OldValue

; 2635 : 	{
; 2636 : 		this->m_OldBuyMoney = this->m_OldBuyMoney / 10 * 10;

  00088	b8 67 66 66 66	 mov	 eax, 1717986919		; 66666667H
  0008d	f7 ea		 imul	 edx
  0008f	c1 fa 02	 sar	 edx, 2
  00092	8b c2		 mov	 eax, edx
  00094	c1 e8 1f	 shr	 eax, 31			; 0000001fH
  00097	03 c2		 add	 eax, edx
  00099	8d 14 80	 lea	 edx, DWORD PTR [eax+eax*4]
  0009c	03 d2		 add	 edx, edx
  0009e	89 91 90 00 00
	00		 mov	 DWORD PTR [ecx+144], edx

; 2637 : 	}
; 2638 : }

  000a4	c3		 ret	 0
$LN5@OldValue:

; 2621 : 	}
; 2622 : 	else
; 2623 : 	{
; 2624 : 		this->m_OldBuyMoney = this->m_BuyMoney;

  000a5	8b 41 70	 mov	 eax, DWORD PTR [ecx+112]
  000a8	89 81 90 00 00
	00		 mov	 DWORD PTR [ecx+144], eax
$LN1@OldValue:

; 2637 : 	}
; 2638 : }

  000ae	c3		 ret	 0
?OldValue@CItem@@QAEXXZ ENDP				; CItem::OldValue
_TEXT	ENDS
PUBLIC	??0CPetItemExp@@QAE@XZ				; CPetItemExp::CPetItemExp
; Function compile flags: /Ogtp
;	COMDAT ??0CPetItemExp@@QAE@XZ
_TEXT	SEGMENT
??0CPetItemExp@@QAE@XZ PROC				; CPetItemExp::CPetItemExp, COMDAT
; _this$ = ecx

; 2641 : {

  00000	8b c1		 mov	 eax, ecx

; 2642 : 	this->m_DarkSpiritExpTable[0] = 0;

  00002	33 c9		 xor	 ecx, ecx
  00004	89 08		 mov	 DWORD PTR [eax], ecx

; 2643 : 	this->m_DarkSpiritExpTable[1] = 0;

  00006	89 48 04	 mov	 DWORD PTR [eax+4], ecx

; 2644 : 
; 2645 : 	for ( int i = 2 ; i < MAX_PET_LEVEL+2 ; i++ )

  00009	ba 02 00 00 00	 mov	 edx, 2
  0000e	56		 push	 esi
  0000f	90		 npad	 1
$LL6@CPetItemEx:

; 2646 : 	{
; 2647 : 		this->m_DarkSpiritExpTable[i] = (i+10) * i * i * i * 100;

  00010	8d 72 0a	 lea	 esi, DWORD PTR [edx+10]
  00013	0f af f2	 imul	 esi, edx
  00016	0f af f2	 imul	 esi, edx
  00019	0f af f2	 imul	 esi, edx
  0001c	6b f6 64	 imul	 esi, 100		; 00000064H
  0001f	89 34 90	 mov	 DWORD PTR [eax+edx*4], esi
  00022	42		 inc	 edx
  00023	83 fa 34	 cmp	 edx, 52			; 00000034H
  00026	7c e8		 jl	 SHORT $LL6@CPetItemEx

; 2648 : 	}
; 2649 : 
; 2650 : 	this->m_DarkHorseExpTable[0] = 0;

  00028	89 88 d0 00 00
	00		 mov	 DWORD PTR [eax+208], ecx

; 2651 : 	this->m_DarkHorseExpTable[1] = 0;

  0002e	89 88 d4 00 00
	00		 mov	 DWORD PTR [eax+212], ecx

; 2652 : 
; 2653 : 	for (int i = 2 ; i < MAX_PET_LEVEL+2 ; i++ )

  00034	ba 02 00 00 00	 mov	 edx, 2
  00039	8d 88 d8 00 00
	00		 lea	 ecx, DWORD PTR [eax+216]
  0003f	90		 npad	 1
$LL3@CPetItemEx:

; 2654 : 	{
; 2655 : 		this->m_DarkHorseExpTable[i] = (i+10) * i * i * i * 100;

  00040	8d 72 0a	 lea	 esi, DWORD PTR [edx+10]
  00043	0f af f2	 imul	 esi, edx
  00046	0f af f2	 imul	 esi, edx
  00049	0f af f2	 imul	 esi, edx
  0004c	6b f6 64	 imul	 esi, 100		; 00000064H
  0004f	89 31		 mov	 DWORD PTR [ecx], esi
  00051	42		 inc	 edx
  00052	83 c1 04	 add	 ecx, 4
  00055	83 fa 34	 cmp	 edx, 52			; 00000034H
  00058	7c e6		 jl	 SHORT $LL3@CPetItemEx
  0005a	5e		 pop	 esi

; 2656 : 	}
; 2657 : }

  0005b	c3		 ret	 0
??0CPetItemExp@@QAE@XZ ENDP				; CPetItemExp::CPetItemExp
_TEXT	ENDS
PUBLIC	?GetSize@CItem@@QAEHAAH0@Z			; CItem::GetSize
; Function compile flags: /Ogtp
;	COMDAT ?GetSize@CItem@@QAEHAAH0@Z
_TEXT	SEGMENT
_w$ = 8							; size = 4
_h$ = 12						; size = 4
?GetSize@CItem@@QAEHAAH0@Z PROC				; CItem::GetSize, COMDAT
; _this$ = ecx

; 2660 : {

  00000	55		 push	 ebp
  00001	8b ec		 mov	 ebp, esp

; 2661 : 	w=ItemAttribute[this->m_Type].Width  ;

  00003	0f bf 41 06	 movsx	 eax, WORD PTR [ecx+6]
  00007	6b c0 70	 imul	 eax, 112		; 00000070H
  0000a	0f b6 90 23 00
	00 00		 movzx	 edx, BYTE PTR ?ItemAttribute@@3PAUITEM_ATTRIBUTE@@A[eax+35]
  00011	8b 45 08	 mov	 eax, DWORD PTR _w$[ebp]
  00014	89 10		 mov	 DWORD PTR [eax], edx

; 2662 : 	h=ItemAttribute[this->m_Type].Height  ;

  00016	0f bf 49 06	 movsx	 ecx, WORD PTR [ecx+6]
  0001a	8b 45 0c	 mov	 eax, DWORD PTR _h$[ebp]
  0001d	6b c9 70	 imul	 ecx, 112		; 00000070H
  00020	0f b6 91 24 00
	00 00		 movzx	 edx, BYTE PTR ?ItemAttribute@@3PAUITEM_ATTRIBUTE@@A[ecx+36]
  00027	89 10		 mov	 DWORD PTR [eax], edx

; 2663 : 
; 2664 : 	return 1;

  00029	b8 01 00 00 00	 mov	 eax, 1

; 2665 : }

  0002e	5d		 pop	 ebp
  0002f	c2 08 00	 ret	 8
?GetSize@CItem@@QAEHAAH0@Z ENDP				; CItem::GetSize
_TEXT	ENDS
PUBLIC	?BookSpellDmg@CItem@@QAEHXZ			; CItem::BookSpellDmg
; Function compile flags: /Ogtp
;	COMDAT ?BookSpellDmg@CItem@@QAEHXZ
_TEXT	SEGMENT
?BookSpellDmg@CItem@@QAEHXZ PROC			; CItem::BookSpellDmg, COMDAT
; _this$ = ecx

; 2708 : 	int Value;
; 2709 : 	
; 2710 : 	if (this->m_Type < 0)

  00000	66 83 79 06 00	 cmp	 WORD PTR [ecx+6], 0
  00005	7d 03		 jge	 SHORT $LN2@BookSpellD
$LN5@BookSpellD:

; 2711 : 	{
; 2712 : 		return 0;

  00007	33 c0		 xor	 eax, eax

; 2723 : }

  00009	c3		 ret	 0
$LN2@BookSpellD:

; 2713 : 	}
; 2714 : 
; 2715 : 	if(this->m_IsValidItem == false)

  0000a	80 b9 b0 00 00
	00 00		 cmp	 BYTE PTR [ecx+176], 0

; 2716 : 	{
; 2717 : 		return 0;

  00011	74 f4		 je	 SHORT $LN5@BookSpellD

; 2718 : 	}
; 2719 : 	
; 2720 : 	Value = this->m_BookSpell;
; 2721 : 
; 2722 : 	return Value;

  00013	0f b7 41 22	 movzx	 eax, WORD PTR [ecx+34]

; 2723 : }

  00017	c3		 ret	 0
?BookSpellDmg@CItem@@QAEHXZ ENDP			; CItem::BookSpellDmg
_TEXT	ENDS
PUBLIC	??_C@_0BJ@IGGPIOPD@?E?$KM?$LH?$KB?$LN?$LK?5?$LP?$KB?$LH?$KP?5?3?5?$CFd?5?$CI?$CFs?5?$CFd?$CJ?$AA@ ; `string'
PUBLIC	??_C@_0BG@LGADFPBA@?4?4?2common?2zzzitem?4cpp?$AA@ ; `string'
PUBLIC	?IsClass@CItem@@QAEHDHH@Z			; CItem::IsClass
EXTRN	?LogAdd@@3P6AXPADZZA:DWORD			; LogAdd
;	COMDAT ??_C@_0BJ@IGGPIOPD@?E?$KM?$LH?$KB?$LN?$LK?5?$LP?$KB?$LH?$KP?5?3?5?$CFd?5?$CI?$CFs?5?$CFd?$CJ?$AA@
CONST	SEGMENT
??_C@_0BJ@IGGPIOPD@?E?$KM?$LH?$KB?$LN?$LK?5?$LP?$KB?$LH?$KP?5?3?5?$CFd?5?$CI?$CFs?5?$CFd?$CJ?$AA@ DB 0c5H
	DB	0acH, 0b7H, 0a1H, 0bdH, 0baH, ' ', 0bfH, 0a1H, 0b7H, 0afH, ' :'
	DB	' %d (%s %d)', 00H				; `string'
CONST	ENDS
;	COMDAT ??_C@_0BG@LGADFPBA@?4?4?2common?2zzzitem?4cpp?$AA@
CONST	SEGMENT
??_C@_0BG@LGADFPBA@?4?4?2common?2zzzitem?4cpp?$AA@ DB '..\common\zzzitem.'
	DB	'cpp', 00H					; `string'
; Function compile flags: /Ogtp
CONST	ENDS
;	COMDAT ?IsClass@CItem@@QAEHDHH@Z
_TEXT	SEGMENT
_aClass$ = 8						; size = 1
_ChangeUP$ = 12						; size = 4
_ChangeUP3rd$ = 16					; size = 4
?IsClass@CItem@@QAEHDHH@Z PROC				; CItem::IsClass, COMDAT
; _this$ = ecx

; 2726 : {

  00000	55		 push	 ebp
  00001	8b ec		 mov	 ebp, esp

; 2727 : 	if ((aClass < 0) || (aClass >= MAX_TYPE_PLAYER ))

  00003	8a 45 08	 mov	 al, BYTE PTR _aClass$[ebp]
  00006	3c 06		 cmp	 al, 6

; 2731 : 	}
; 2732 : 	
; 2733 : 	int requireclass=this->m_RequireClass[aClass];

  00008	0f be c0	 movsx	 eax, al
  0000b	77 34		 ja	 SHORT $LN7@IsClass
  0000d	0f b6 44 08 58	 movzx	 eax, BYTE PTR [eax+ecx+88]

; 2734 : 	if (requireclass == 0)

  00012	85 c0		 test	 eax, eax

; 2735 : 	{
; 2736 : 		return 0;

  00014	74 44		 je	 SHORT $LN11@IsClass

; 2737 : 	}
; 2738 : 	if (requireclass >= 3)

  00016	83 f8 03	 cmp	 eax, 3
  00019	7c 10		 jl	 SHORT $LN5@IsClass

; 2739 : 	{
; 2740 : 		if (requireclass != (ChangeUP3rd+2))

  0001b	8b 4d 10	 mov	 ecx, DWORD PTR _ChangeUP3rd$[ebp]
  0001e	83 c1 02	 add	 ecx, 2
  00021	3b c1		 cmp	 eax, ecx
  00023	74 13		 je	 SHORT $LN1@IsClass

; 2730 : 		return 0;

  00025	33 c0		 xor	 eax, eax

; 2756 : }

  00027	5d		 pop	 ebp
  00028	c2 0c 00	 ret	 12			; 0000000cH
$LN5@IsClass:

; 2741 : 		{
; 2742 : 			return 0;
; 2743 : 		}
; 2744 : 	}
; 2745 : 	else
; 2746 : 	{
; 2747 : 		if (requireclass > 1)

  0002b	83 f8 01	 cmp	 eax, 1
  0002e	7e 08		 jle	 SHORT $LN1@IsClass

; 2748 : 		{
; 2749 : 			if ( requireclass  != (ChangeUP+1) )

  00030	8b 55 0c	 mov	 edx, DWORD PTR _ChangeUP$[ebp]
  00033	42		 inc	 edx
  00034	3b c2		 cmp	 eax, edx

; 2750 : 			{
; 2751 : 				return 0;

  00036	75 22		 jne	 SHORT $LN11@IsClass
$LN1@IsClass:

; 2752 : 			}
; 2753 : 		}
; 2754 : 	}
; 2755 : 	return 1;

  00038	b8 01 00 00 00	 mov	 eax, 1

; 2756 : }

  0003d	5d		 pop	 ebp
  0003e	c2 0c 00	 ret	 12			; 0000000cH
$LN7@IsClass:

; 2728 : 	{
; 2729 : 		LogAdd("클래스 에러 : %d (%s %d)", aClass, __FILE__, __LINE__);

  00041	68 a9 0a 00 00	 push	 2729			; 00000aa9H
  00046	68 00 00 00 00	 push	 OFFSET ??_C@_0BG@LGADFPBA@?4?4?2common?2zzzitem?4cpp?$AA@
  0004b	50		 push	 eax
  0004c	68 00 00 00 00	 push	 OFFSET ??_C@_0BJ@IGGPIOPD@?E?$KM?$LH?$KB?$LN?$LK?5?$LP?$KB?$LH?$KP?5?3?5?$CFd?5?$CI?$CFs?5?$CFd?$CJ?$AA@
  00051	ff 15 00 00 00
	00		 call	 DWORD PTR ?LogAdd@@3P6AXPADZZA ; LogAdd
  00057	83 c4 10	 add	 esp, 16			; 00000010H
$LN11@IsClass:

; 2730 : 		return 0;

  0005a	33 c0		 xor	 eax, eax

; 2756 : }

  0005c	5d		 pop	 ebp
  0005d	c2 0c 00	 ret	 12			; 0000000cH
?IsClass@CItem@@QAEHDHH@Z ENDP				; CItem::IsClass
_TEXT	ENDS
PUBLIC	?GetName@CItem@@QAEPADXZ			; CItem::GetName
; Function compile flags: /Ogtp
;	COMDAT ?GetName@CItem@@QAEPADXZ
_TEXT	SEGMENT
?GetName@CItem@@QAEPADXZ PROC				; CItem::GetName, COMDAT
; _this$ = ecx

; 2760 : 	return &ItemAttribute[this->m_Type].Name[0];

  00000	0f bf 41 06	 movsx	 eax, WORD PTR [ecx+6]
  00004	6b c0 70	 imul	 eax, 112		; 00000070H
  00007	05 00 00 00 00	 add	 eax, OFFSET ?ItemAttribute@@3PAUITEM_ATTRIBUTE@@A ; ItemAttribute

; 2761 : }

  0000c	c3		 ret	 0
?GetName@CItem@@QAEPADXZ ENDP				; CItem::GetName
_TEXT	ENDS
PUBLIC	__real@4014000000000000
PUBLIC	?PlusSpecialSetRing@CItem@@QAEXPAE@Z		; CItem::PlusSpecialSetRing
;	COMDAT __real@4014000000000000
CONST	SEGMENT
__real@4014000000000000 DQ 04014000000000000r	; 5
; Function compile flags: /Ogtp
CONST	ENDS
;	COMDAT ?PlusSpecialSetRing@CItem@@QAEXPAE@Z
_TEXT	SEGMENT
tv193 = -4						; size = 4
tv191 = -4						; size = 4
_Value$ = 8						; size = 4
tv196 = 10						; size = 2
?PlusSpecialSetRing@CItem@@QAEXPAE@Z PROC		; CItem::PlusSpecialSetRing, COMDAT
; _this$ = ecx

; 2764 : {

  00000	55		 push	 ebp
  00001	8b ec		 mov	 ebp, esp
  00003	51		 push	 ecx

; 2765 : 	if ( this->m_Type < 0 )

  00004	0f b7 51 06	 movzx	 edx, WORD PTR [ecx+6]
  00008	66 85 d2	 test	 dx, dx
  0000b	78 67		 js	 SHORT $LN6@PlusSpecia

; 2766 : 	{
; 2767 : 		return;
; 2768 : 	}
; 2769 : 
; 2770 : 	if ( this->IsSetItem() == FALSE )

  0000d	e8 00 00 00 00	 call	 ?IsSetItem@CItem@@QAEHXZ ; CItem::IsSetItem
  00012	85 c0		 test	 eax, eax
  00014	74 5e		 je	 SHORT $LN6@PlusSpecia

; 2771 : 	{
; 2772 : 		return;
; 2773 : 	}
; 2774 : 
; 2775 : 	if ( this->m_Durability == 0.0f)

  00016	d9 41 24	 fld	 DWORD PTR [ecx+36]
  00019	d9 ee		 fldz
  0001b	da e9		 fucompp
  0001d	df e0		 fnstsw	 ax
  0001f	f6 c4 44	 test	 ah, 68			; 00000044H
  00022	7b 50		 jnp	 SHORT $LN6@PlusSpecia

; 2776 : 	{
; 2777 : 		return;
; 2778 : 	}
; 2779 : 
; 2780 : 	if ( this->m_IsValidItem == false )

  00024	80 b9 b0 00 00
	00 00		 cmp	 BYTE PTR [ecx+176], 0
  0002b	74 47		 je	 SHORT $LN6@PlusSpecia

; 2781 : 	{
; 2782 : 		return;
; 2783 : 	}
; 2784 : 
; 2785 : 	LPITEM_ATTRIBUTE p = &ItemAttribute[this->m_Type];

  0002d	0f bf c2	 movsx	 eax, dx
  00030	6b c0 70	 imul	 eax, 112		; 00000070H
  00033	05 00 00 00 00	 add	 eax, OFFSET ?ItemAttribute@@3PAUITEM_ATTRIBUTE@@A ; ItemAttribute

; 2786 : 
; 2787 : 	if ( p->ResistanceType == -1 )

  00038	0f b6 50 62	 movzx	 edx, BYTE PTR [eax+98]
  0003c	83 fa ff	 cmp	 edx, -1
  0003f	74 33		 je	 SHORT $LN6@PlusSpecia

; 2788 : 	{
; 2789 : 		return;
; 2790 : 	}
; 2791 : 
; 2792 : 	BYTE iValue = 5;
; 2793 : 	Value[p->ResistanceType] += iValue - (BYTE)( iValue * this->m_CurrentDurabilityState);

  00041	d9 81 a8 00 00
	00		 fld	 DWORD PTR [ecx+168]
  00047	56		 push	 esi
  00048	8b 75 08	 mov	 esi, DWORD PTR _Value$[ebp]
  0004b	dc 0d 00 00 00
	00		 fmul	 QWORD PTR __real@4014000000000000
  00051	d9 7d 0a	 fnstcw	 WORD PTR tv196[ebp]
  00054	b1 05		 mov	 cl, 5
  00056	0f b7 45 0a	 movzx	 eax, WORD PTR tv196[ebp]
  0005a	0d 00 0c 00 00	 or	 eax, 3072		; 00000c00H
  0005f	89 45 fc	 mov	 DWORD PTR tv193[ebp], eax
  00062	d9 6d fc	 fldcw	 WORD PTR tv193[ebp]
  00065	db 5d fc	 fistp	 DWORD PTR tv191[ebp]
  00068	8a 45 fc	 mov	 al, BYTE PTR tv191[ebp]
  0006b	2a c8		 sub	 cl, al
  0006d	00 0c 32	 add	 BYTE PTR [edx+esi], cl
  00070	d9 6d 0a	 fldcw	 WORD PTR tv196[ebp]
  00073	5e		 pop	 esi
$LN6@PlusSpecia:

; 2794 : }

  00074	8b e5		 mov	 esp, ebp
  00076	5d		 pop	 ebp
  00077	c2 04 00	 ret	 4
?PlusSpecialSetRing@CItem@@QAEXPAE@Z ENDP		; CItem::PlusSpecialSetRing
_TEXT	ENDS
PUBLIC	?PlusSpecial@CItem@@QAEXPAHH@Z			; CItem::PlusSpecial
EXTRN	__ftol2_sse:PROC
; Function compile flags: /Ogtp
;	COMDAT ?PlusSpecial@CItem@@QAEXPAHH@Z
_TEXT	SEGMENT
_i$213424 = -8						; size = 4
tv321 = -4						; size = 4
_lc3$213434 = 8						; size = 4
_Value$ = 8						; size = 4
_Special$ = 12						; size = 4
?PlusSpecial@CItem@@QAEXPAHH@Z PROC			; CItem::PlusSpecial, COMDAT
; _this$ = ecx

; 2797 : {

  00000	55		 push	 ebp
  00001	8b ec		 mov	 ebp, esp
  00003	83 ec 08	 sub	 esp, 8
  00006	57		 push	 edi
  00007	8b f9		 mov	 edi, ecx

; 2798 : 	if ( this->m_Type < 0 )

  00009	66 83 7f 06 00	 cmp	 WORD PTR [edi+6], 0
  0000e	0f 8c d5 00 00
	00		 jl	 $LN11@PlusSpecia@2

; 2799 : 	{
; 2800 : 		return;
; 2801 : 	}
; 2802 : 
; 2803 : 	if ( this->m_Durability == 0.0f)

  00014	d9 47 24	 fld	 DWORD PTR [edi+36]
  00017	d9 ee		 fldz
  00019	da e9		 fucompp
  0001b	df e0		 fnstsw	 ax
  0001d	f6 c4 44	 test	 ah, 68			; 00000044H
  00020	0f 8b c3 00 00
	00		 jnp	 $LN11@PlusSpecia@2

; 2804 : 	{
; 2805 : 		return;
; 2806 : 	}
; 2807 : 
; 2808 : 	if ( this->m_IsValidItem == false )

  00026	80 bf b0 00 00
	00 00		 cmp	 BYTE PTR [edi+176], 0
  0002d	0f 84 b6 00 00
	00		 je	 $LN11@PlusSpecia@2

; 2809 : 	{
; 2810 : 		return;
; 2811 : 	}
; 2812 : 
; 2813 : 	for (int i =0;i<this->m_SpecialNum;i++)

  00033	80 7f 30 00	 cmp	 BYTE PTR [edi+48], 0
  00037	c7 45 f8 00 00
	00 00		 mov	 DWORD PTR _i$213424[ebp], 0
  0003e	0f 86 a5 00 00
	00		 jbe	 $LN11@PlusSpecia@2
  00044	53		 push	 ebx
  00045	8d 47 32	 lea	 eax, DWORD PTR [edi+50]
  00048	56		 push	 esi
  00049	8b 75 08	 mov	 esi, DWORD PTR _Value$[ebp]
  0004c	89 45 fc	 mov	 DWORD PTR tv321[ebp], eax
  0004f	90		 npad	 1
$LL13@PlusSpecia@2:

; 2814 : 	{
; 2815 : 		if ( this->m_Special[i] == Special )

  00050	8b 4d fc	 mov	 ecx, DWORD PTR tv321[ebp]
  00053	0f b7 11	 movzx	 edx, WORD PTR [ecx]
  00056	8b 45 0c	 mov	 eax, DWORD PTR _Special$[ebp]
  00059	3b d0		 cmp	 edx, eax
  0005b	75 73		 jne	 SHORT $LN12@PlusSpecia@2

; 2816 : 		{
; 2817 : 			switch ( Special )

  0005d	83 c0 b0	 add	 eax, -80		; ffffffb0H
  00060	83 f8 21	 cmp	 eax, 33			; 00000021H
  00063	77 5e		 ja	 SHORT $LN1@PlusSpecia@2
  00065	0f b6 80 00 00
	00 00		 movzx	 eax, BYTE PTR $LN21@PlusSpecia@2[eax]
  0006c	ff 24 85 00 00
	00 00		 jmp	 DWORD PTR $LN24@PlusSpecia@2[eax*4]
$LN7@PlusSpecia@2:

; 2818 : 			{
; 2819 : 				case 82:
; 2820 : 					{
; 2821 : 						int lc3 = this->m_Option3*5;

  00073	0f b6 9f 96 00
	00 00		 movzx	 ebx, BYTE PTR [edi+150]
  0007a	8d 1c 9b	 lea	 ebx, DWORD PTR [ebx+ebx*4]
$LN23@PlusSpecia@2:

; 2822 : 						*Value += lc3 - (int)( lc3 * this->m_CurrentDurabilityState );

  0007d	d9 87 a8 00 00
	00		 fld	 DWORD PTR [edi+168]
  00083	89 5d 08	 mov	 DWORD PTR _lc3$213434[ebp], ebx
  00086	da 4d 08	 fimul	 DWORD PTR _lc3$213434[ebp]
  00089	e8 00 00 00 00	 call	 __ftol2_sse
  0008e	2b d8		 sub	 ebx, eax
  00090	01 1e		 add	 DWORD PTR [esi], ebx

; 2823 : 					}
; 2824 : 					break;

  00092	eb 3c		 jmp	 SHORT $LN12@PlusSpecia@2
$LN6@PlusSpecia@2:

; 2825 : 
; 2826 : 				case 84:
; 2827 : 					* Value += 4;

  00094	83 06 04	 add	 DWORD PTR [esi], 4

; 2828 : 					break;

  00097	eb 37		 jmp	 SHORT $LN12@PlusSpecia@2
$LN5@PlusSpecia@2:

; 2829 : 
; 2830 : 				case 81:
; 2831 : 				case 80:
; 2832 : 				case 83:
; 2833 : 				case 113: //Summoner
; 2834 : 					{
; 2835 : 						int lc4 = this->m_Option3*4;

  00099	0f b6 9f 96 00
	00 00		 movzx	 ebx, BYTE PTR [edi+150]
  000a0	03 db		 add	 ebx, ebx
  000a2	03 db		 add	 ebx, ebx

; 2836 : 						*Value += lc4 - (int)( lc4 * this->m_CurrentDurabilityState );
; 2837 : 					}
; 2838 : 					break;

  000a4	eb d7		 jmp	 SHORT $LN23@PlusSpecia@2
$LN4@PlusSpecia@2:

; 2839 : 
; 2840 : 				case 100:
; 2841 : 				case 101:
; 2842 : 					*Value =  *Value + this->m_Level * 5 + 50;

  000a6	0f bf 47 08	 movsx	 eax, WORD PTR [edi+8]
  000aa	8d 4c 80 32	 lea	 ecx, DWORD PTR [eax+eax*4+50]
  000ae	01 0e		 add	 DWORD PTR [esi], ecx

; 2843 : 					break;

  000b0	eb 1e		 jmp	 SHORT $LN12@PlusSpecia@2
$LN3@PlusSpecia@2:

; 2844 : 
; 2845 : 				case 103:
; 2846 : 					*Value += 50;

  000b2	83 06 32	 add	 DWORD PTR [esi], 50	; 00000032H

; 2847 : 					break;

  000b5	eb 19		 jmp	 SHORT $LN12@PlusSpecia@2
$LN2@PlusSpecia@2:

; 2848 : 
; 2849 : 				case 105:
; 2850 : 					*Value =  *Value + this->m_Level * 5 + 10;

  000b7	0f bf 47 08	 movsx	 eax, WORD PTR [edi+8]
  000bb	8d 54 80 0a	 lea	 edx, DWORD PTR [eax+eax*4+10]
  000bf	01 16		 add	 DWORD PTR [esi], edx

; 2851 : 
; 2852 : 					break;

  000c1	eb 0d		 jmp	 SHORT $LN12@PlusSpecia@2
$LN1@PlusSpecia@2:

; 2853 : 
; 2854 : 				default:
; 2855 : 					*Value = *Value + (this->m_Option3*4);

  000c3	0f b6 87 96 00
	00 00		 movzx	 eax, BYTE PTR [edi+150]
  000ca	03 c0		 add	 eax, eax
  000cc	03 c0		 add	 eax, eax
  000ce	01 06		 add	 DWORD PTR [esi], eax
$LN12@PlusSpecia@2:

; 2809 : 	{
; 2810 : 		return;
; 2811 : 	}
; 2812 : 
; 2813 : 	for (int i =0;i<this->m_SpecialNum;i++)

  000d0	8b 45 f8	 mov	 eax, DWORD PTR _i$213424[ebp]
  000d3	0f b6 4f 30	 movzx	 ecx, BYTE PTR [edi+48]
  000d7	83 45 fc 02	 add	 DWORD PTR tv321[ebp], 2
  000db	40		 inc	 eax
  000dc	89 45 f8	 mov	 DWORD PTR _i$213424[ebp], eax
  000df	3b c1		 cmp	 eax, ecx
  000e1	0f 8c 69 ff ff
	ff		 jl	 $LL13@PlusSpecia@2
  000e7	5e		 pop	 esi
  000e8	5b		 pop	 ebx
$LN11@PlusSpecia@2:
  000e9	5f		 pop	 edi

; 2856 : 					break;
; 2857 : 			}
; 2858 : 		}
; 2859 : 	}
; 2860 : }

  000ea	8b e5		 mov	 esp, ebp
  000ec	5d		 pop	 ebp
  000ed	c2 08 00	 ret	 8
$LN24@PlusSpecia@2:
  000f0	00 00 00 00	 DD	 $LN5@PlusSpecia@2
  000f4	00 00 00 00	 DD	 $LN7@PlusSpecia@2
  000f8	00 00 00 00	 DD	 $LN6@PlusSpecia@2
  000fc	00 00 00 00	 DD	 $LN4@PlusSpecia@2
  00100	00 00 00 00	 DD	 $LN3@PlusSpecia@2
  00104	00 00 00 00	 DD	 $LN2@PlusSpecia@2
  00108	00 00 00 00	 DD	 $LN1@PlusSpecia@2
$LN21@PlusSpecia@2:
  0010c	00		 DB	 0
  0010d	00		 DB	 0
  0010e	01		 DB	 1
  0010f	00		 DB	 0
  00110	02		 DB	 2
  00111	06		 DB	 6
  00112	06		 DB	 6
  00113	06		 DB	 6
  00114	06		 DB	 6
  00115	06		 DB	 6
  00116	06		 DB	 6
  00117	06		 DB	 6
  00118	06		 DB	 6
  00119	06		 DB	 6
  0011a	06		 DB	 6
  0011b	06		 DB	 6
  0011c	06		 DB	 6
  0011d	06		 DB	 6
  0011e	06		 DB	 6
  0011f	06		 DB	 6
  00120	03		 DB	 3
  00121	03		 DB	 3
  00122	06		 DB	 6
  00123	04		 DB	 4
  00124	06		 DB	 6
  00125	05		 DB	 5
  00126	06		 DB	 6
  00127	06		 DB	 6
  00128	06		 DB	 6
  00129	06		 DB	 6
  0012a	06		 DB	 6
  0012b	06		 DB	 6
  0012c	06		 DB	 6
  0012d	00		 DB	 0
?PlusSpecial@CItem@@QAEXPAHH@Z ENDP			; CItem::PlusSpecial
_TEXT	ENDS
PUBLIC	?PlusSpecialPercent@CItem@@QAEXPAHHG@Z		; CItem::PlusSpecialPercent
; Function compile flags: /Ogtp
;	COMDAT ?PlusSpecialPercent@CItem@@QAEXPAHHG@Z
_TEXT	SEGMENT
tv188 = -4						; size = 4
_Value$ = 8						; size = 4
_Special$ = 12						; size = 4
_Percent$ = 16						; size = 2
?PlusSpecialPercent@CItem@@QAEXPAHHG@Z PROC		; CItem::PlusSpecialPercent, COMDAT
; _this$ = ecx

; 2863 : {

  00000	55		 push	 ebp
  00001	8b ec		 mov	 ebp, esp
  00003	51		 push	 ecx

; 2864 : 	if ( this->m_Type < 0 )

  00004	66 83 79 06 00	 cmp	 WORD PTR [ecx+6], 0
  00009	7c 4e		 jl	 SHORT $LN2@PlusSpecia@3

; 2865 : 	{
; 2866 : 		return;
; 2867 : 	}
; 2868 : 
; 2869 : 	for (int i=0;i<this->m_SpecialNum;i++)

  0000b	53		 push	 ebx
  0000c	33 db		 xor	 ebx, ebx
  0000e	38 59 30	 cmp	 BYTE PTR [ecx+48], bl
  00011	76 45		 jbe	 SHORT $LN10@PlusSpecia@3
  00013	56		 push	 esi
  00014	8d 41 32	 lea	 eax, DWORD PTR [ecx+50]
  00017	57		 push	 edi
  00018	8b 7d 08	 mov	 edi, DWORD PTR _Value$[ebp]
  0001b	89 45 fc	 mov	 DWORD PTR tv188[ebp], eax
  0001e	8b ff		 npad	 2
$LL4@PlusSpecia@3:

; 2870 : 	{
; 2871 : 		if ( this->m_Special[i] == Special )

  00020	8b 55 fc	 mov	 edx, DWORD PTR tv188[ebp]
  00023	0f b7 02	 movzx	 eax, WORD PTR [edx]
  00026	3b 45 0c	 cmp	 eax, DWORD PTR _Special$[ebp]
  00029	75 1e		 jne	 SHORT $LN3@PlusSpecia@3

; 2872 : 		{
; 2873 : 			*Value += (*Value * Percent)/ 100;

  0002b	8b 37		 mov	 esi, DWORD PTR [edi]
  0002d	0f b7 55 10	 movzx	 edx, WORD PTR _Percent$[ebp]
  00031	0f af d6	 imul	 edx, esi
  00034	b8 1f 85 eb 51	 mov	 eax, 1374389535		; 51eb851fH
  00039	f7 ea		 imul	 edx
  0003b	c1 fa 05	 sar	 edx, 5
  0003e	8b c2		 mov	 eax, edx
  00040	c1 e8 1f	 shr	 eax, 31			; 0000001fH
  00043	03 c2		 add	 eax, edx
  00045	03 c6		 add	 eax, esi
  00047	89 07		 mov	 DWORD PTR [edi], eax
$LN3@PlusSpecia@3:

; 2865 : 	{
; 2866 : 		return;
; 2867 : 	}
; 2868 : 
; 2869 : 	for (int i=0;i<this->m_SpecialNum;i++)

  00049	0f b6 51 30	 movzx	 edx, BYTE PTR [ecx+48]
  0004d	83 45 fc 02	 add	 DWORD PTR tv188[ebp], 2
  00051	43		 inc	 ebx
  00052	3b da		 cmp	 ebx, edx
  00054	7c ca		 jl	 SHORT $LL4@PlusSpecia@3
  00056	5f		 pop	 edi
  00057	5e		 pop	 esi
$LN10@PlusSpecia@3:
  00058	5b		 pop	 ebx
$LN2@PlusSpecia@3:

; 2874 : 		}
; 2875 : 	}
; 2876 : }

  00059	8b e5		 mov	 esp, ebp
  0005b	5d		 pop	 ebp
  0005c	c2 0c 00	 ret	 12			; 0000000cH
?PlusSpecialPercent@CItem@@QAEXPAHHG@Z ENDP		; CItem::PlusSpecialPercent
_TEXT	ENDS
PUBLIC	?PlusSpecialPercentEx@CItem@@QAEXPAHHH@Z	; CItem::PlusSpecialPercentEx
; Function compile flags: /Ogtp
;	COMDAT ?PlusSpecialPercentEx@CItem@@QAEXPAHHH@Z
_TEXT	SEGMENT
_i$213465 = -8						; size = 4
tv243 = -4						; size = 4
_lc3$213470 = 8						; size = 4
_Value$ = 8						; size = 4
_SourceValue$ = 12					; size = 4
_Special$ = 16						; size = 4
?PlusSpecialPercentEx@CItem@@QAEXPAHHH@Z PROC		; CItem::PlusSpecialPercentEx, COMDAT
; _this$ = ecx

; 2879 : {

  00000	55		 push	 ebp
  00001	8b ec		 mov	 ebp, esp
  00003	83 ec 08	 sub	 esp, 8
  00006	57		 push	 edi
  00007	8b f9		 mov	 edi, ecx

; 2880 : 	if ( this->m_Type < 0 )

  00009	66 83 7f 06 00	 cmp	 WORD PTR [edi+6], 0
  0000e	0f 8c 80 00 00
	00		 jl	 $LN2@PlusSpecia@4

; 2881 : 	{
; 2882 : 		return;
; 2883 : 	}
; 2884 : 
; 2885 : 	if ( this->m_Durability == 0.0f )

  00014	d9 47 24	 fld	 DWORD PTR [edi+36]
  00017	d9 ee		 fldz
  00019	da e9		 fucompp
  0001b	df e0		 fnstsw	 ax
  0001d	f6 c4 44	 test	 ah, 68			; 00000044H
  00020	7b 72		 jnp	 SHORT $LN2@PlusSpecia@4

; 2886 : 	{
; 2887 : 		return;
; 2888 : 	}
; 2889 : 
; 2890 : 	if ( this->m_IsValidItem == false  )

  00022	80 bf b0 00 00
	00 00		 cmp	 BYTE PTR [edi+176], 0
  00029	74 69		 je	 SHORT $LN2@PlusSpecia@4

; 2891 : 	{
; 2892 : 		return;
; 2893 : 	}
; 2894 : 
; 2895 : 	for ( int i =0;i<this->m_SpecialNum;i++)

  0002b	80 7f 30 00	 cmp	 BYTE PTR [edi+48], 0
  0002f	c7 45 f8 00 00
	00 00		 mov	 DWORD PTR _i$213465[ebp], 0
  00036	76 5c		 jbe	 SHORT $LN2@PlusSpecia@4
  00038	53		 push	 ebx
  00039	8b 5d 08	 mov	 ebx, DWORD PTR _Value$[ebp]
  0003c	8d 47 32	 lea	 eax, DWORD PTR [edi+50]
  0003f	56		 push	 esi
  00040	89 45 fc	 mov	 DWORD PTR tv243[ebp], eax
$LL4@PlusSpecia@4:

; 2896 : 	{
; 2897 : 		if ( this->m_Special[i] == Special )

  00043	8b 4d fc	 mov	 ecx, DWORD PTR tv243[ebp]
  00046	0f b7 11	 movzx	 edx, WORD PTR [ecx]
  00049	3b 55 10	 cmp	 edx, DWORD PTR _Special$[ebp]
  0004c	75 31		 jne	 SHORT $LN3@PlusSpecia@4

; 2898 : 		{
; 2899 : 			int lc3 = SourceValue * this->m_Option3/100;

  0004e	0f b6 8f 96 00
	00 00		 movzx	 ecx, BYTE PTR [edi+150]

; 2900 : 			*Value += lc3 - (int)(lc3 * this->m_CurrentDurabilityState );

  00055	d9 87 a8 00 00
	00		 fld	 DWORD PTR [edi+168]
  0005b	0f af 4d 0c	 imul	 ecx, DWORD PTR _SourceValue$[ebp]
  0005f	b8 1f 85 eb 51	 mov	 eax, 1374389535		; 51eb851fH
  00064	f7 e9		 imul	 ecx
  00066	c1 fa 05	 sar	 edx, 5
  00069	8b f2		 mov	 esi, edx
  0006b	c1 ee 1f	 shr	 esi, 31			; 0000001fH
  0006e	03 f2		 add	 esi, edx
  00070	89 75 08	 mov	 DWORD PTR _lc3$213470[ebp], esi
  00073	da 4d 08	 fimul	 DWORD PTR _lc3$213470[ebp]
  00076	e8 00 00 00 00	 call	 __ftol2_sse
  0007b	2b f0		 sub	 esi, eax
  0007d	01 33		 add	 DWORD PTR [ebx], esi
$LN3@PlusSpecia@4:

; 2891 : 	{
; 2892 : 		return;
; 2893 : 	}
; 2894 : 
; 2895 : 	for ( int i =0;i<this->m_SpecialNum;i++)

  0007f	8b 45 f8	 mov	 eax, DWORD PTR _i$213465[ebp]
  00082	0f b6 4f 30	 movzx	 ecx, BYTE PTR [edi+48]
  00086	83 45 fc 02	 add	 DWORD PTR tv243[ebp], 2
  0008a	40		 inc	 eax
  0008b	89 45 f8	 mov	 DWORD PTR _i$213465[ebp], eax
  0008e	3b c1		 cmp	 eax, ecx
  00090	7c b1		 jl	 SHORT $LL4@PlusSpecia@4
  00092	5e		 pop	 esi
  00093	5b		 pop	 ebx
$LN2@PlusSpecia@4:
  00094	5f		 pop	 edi

; 2901 : 		}
; 2902 : 	}
; 2903 : }

  00095	8b e5		 mov	 esp, ebp
  00097	5d		 pop	 ebp
  00098	c2 0c 00	 ret	 12			; 0000000cH
?PlusSpecialPercentEx@CItem@@QAEXPAHHH@Z ENDP		; CItem::PlusSpecialPercentEx
_TEXT	ENDS
PUBLIC	?SetItemPlusSpecialStat@CItem@@QAEXPAFH@Z	; CItem::SetItemPlusSpecialStat
; Function compile flags: /Ogtp
;	COMDAT ?SetItemPlusSpecialStat@CItem@@QAEXPAFH@Z
_TEXT	SEGMENT
_i$213479 = -8						; size = 4
tv255 = -4						; size = 4
_lc3$213489 = 8						; size = 4
_Value$ = 8						; size = 4
_Special$ = 12						; size = 4
?SetItemPlusSpecialStat@CItem@@QAEXPAFH@Z PROC		; CItem::SetItemPlusSpecialStat, COMDAT
; _this$ = ecx

; 2906 : {

  00000	55		 push	 ebp
  00001	8b ec		 mov	 ebp, esp
  00003	83 ec 08	 sub	 esp, 8
  00006	56		 push	 esi
  00007	8b f1		 mov	 esi, ecx

; 2907 : 	if ( this->m_Type < 0 )

  00009	66 83 7e 06 00	 cmp	 WORD PTR [esi+6], 0
  0000e	0f 8c 8b 00 00
	00		 jl	 $LN6@SetItemPlu

; 2908 : 	{
; 2909 : 		return;
; 2910 : 	}
; 2911 : 
; 2912 : 	if ( this->m_Durability == 0.0f )

  00014	d9 46 24	 fld	 DWORD PTR [esi+36]
  00017	d9 ee		 fldz
  00019	da e9		 fucompp
  0001b	df e0		 fnstsw	 ax
  0001d	f6 c4 44	 test	 ah, 68			; 00000044H
  00020	7b 7d		 jnp	 SHORT $LN6@SetItemPlu

; 2913 : 	{
; 2914 : 		return;
; 2915 : 	}
; 2916 : 
; 2917 : 	for ( int i =0;i<this->m_SpecialNum;i++)

  00022	80 7e 30 00	 cmp	 BYTE PTR [esi+48], 0
  00026	c7 45 f8 00 00
	00 00		 mov	 DWORD PTR _i$213479[ebp], 0
  0002d	76 70		 jbe	 SHORT $LN6@SetItemPlu
  0002f	53		 push	 ebx
  00030	8b 5d 08	 mov	 ebx, DWORD PTR _Value$[ebp]
  00033	8d 46 32	 lea	 eax, DWORD PTR [esi+50]
  00036	57		 push	 edi
  00037	89 45 fc	 mov	 DWORD PTR tv255[ebp], eax
  0003a	8d 9b 00 00 00
	00		 npad	 6
$LL8@SetItemPlu:

; 2918 : 	{
; 2919 : 		if ( this->m_Special[i] == Special )

  00040	8b 4d fc	 mov	 ecx, DWORD PTR tv255[ebp]
  00043	0f b7 11	 movzx	 edx, WORD PTR [ecx]
  00046	8b 45 0c	 mov	 eax, DWORD PTR _Special$[ebp]
  00049	3b d0		 cmp	 edx, eax
  0004b	75 3d		 jne	 SHORT $LN7@SetItemPlu

; 2920 : 		{
; 2921 : 			switch ( Special )

  0004d	05 3c ff ff ff	 add	 eax, -196		; ffffff3cH
  00052	83 f8 03	 cmp	 eax, 3
  00055	77 20		 ja	 SHORT $LN1@SetItemPlu

; 2922 : 			{
; 2923 : 				case 0xC4:
; 2924 : 				case 0xC5:
; 2925 : 				case 0xC6:
; 2926 : 				case 0xC7:
; 2927 : 					{
; 2928 : 						int lc3 = this->m_SetAddStat;

  00057	0f b6 be af 00
	00 00		 movzx	 edi, BYTE PTR [esi+175]

; 2929 : 						*Value += lc3 - (int)(lc3 * this->m_CurrentDurabilityState);

  0005e	d9 86 a8 00 00
	00		 fld	 DWORD PTR [esi+168]
  00064	89 7d 08	 mov	 DWORD PTR _lc3$213489[ebp], edi
  00067	da 4d 08	 fimul	 DWORD PTR _lc3$213489[ebp]
  0006a	e8 00 00 00 00	 call	 __ftol2_sse
  0006f	66 2b f8	 sub	 di, ax
  00072	66 01 3b	 add	 WORD PTR [ebx], di

; 2930 : 					}
; 2931 : 					break;

  00075	eb 13		 jmp	 SHORT $LN7@SetItemPlu
$LN1@SetItemPlu:

; 2932 : 
; 2933 : 				default:
; 2934 : 					*Value += this->m_Option3*3;

  00077	0f b6 86 96 00
	00 00		 movzx	 eax, BYTE PTR [esi+150]
  0007e	66 8b c8	 mov	 cx, ax
  00081	66 03 c9	 add	 cx, cx
  00084	66 03 c1	 add	 ax, cx
  00087	66 01 03	 add	 WORD PTR [ebx], ax
$LN7@SetItemPlu:

; 2913 : 	{
; 2914 : 		return;
; 2915 : 	}
; 2916 : 
; 2917 : 	for ( int i =0;i<this->m_SpecialNum;i++)

  0008a	8b 45 f8	 mov	 eax, DWORD PTR _i$213479[ebp]
  0008d	0f b6 56 30	 movzx	 edx, BYTE PTR [esi+48]
  00091	83 45 fc 02	 add	 DWORD PTR tv255[ebp], 2
  00095	40		 inc	 eax
  00096	89 45 f8	 mov	 DWORD PTR _i$213479[ebp], eax
  00099	3b c2		 cmp	 eax, edx
  0009b	7c a3		 jl	 SHORT $LL8@SetItemPlu
  0009d	5f		 pop	 edi
  0009e	5b		 pop	 ebx
$LN6@SetItemPlu:
  0009f	5e		 pop	 esi

; 2935 : 			}
; 2936 : 		}
; 2937 : 	}
; 2938 : }

  000a0	8b e5		 mov	 esp, ebp
  000a2	5d		 pop	 ebp
  000a3	c2 08 00	 ret	 8
?SetItemPlusSpecialStat@CItem@@QAEXPAFH@Z ENDP		; CItem::SetItemPlusSpecialStat
_TEXT	ENDS
PUBLIC	?GetAddStatType@CItem@@QAEHXZ			; CItem::GetAddStatType
; Function compile flags: /Ogtp
;	COMDAT ?GetAddStatType@CItem@@QAEHXZ
_TEXT	SEGMENT
?GetAddStatType@CItem@@QAEHXZ PROC			; CItem::GetAddStatType, COMDAT
; _this$ = ecx

; 2942 : 	LPITEM_ATTRIBUTE p;
; 2943 : 	p = &ItemAttribute[this->m_Type];
; 2944 : 	return p->SetAttr;

  00000	0f bf 41 06	 movsx	 eax, WORD PTR [ecx+6]
  00004	6b c0 70	 imul	 eax, 112		; 00000070H
  00007	0f b6 80 61 00
	00 00		 movzx	 eax, BYTE PTR ?ItemAttribute@@3PAUITEM_ATTRIBUTE@@A[eax+97]

; 2945 : }

  0000e	c3		 ret	 0
?GetAddStatType@CItem@@QAEHXZ ENDP			; CItem::GetAddStatType
_TEXT	ENDS
PUBLIC	?GetWeaponType@CItem@@QAEHXZ			; CItem::GetWeaponType
; Function compile flags: /Ogtp
;	COMDAT ?GetWeaponType@CItem@@QAEHXZ
_TEXT	SEGMENT
?GetWeaponType@CItem@@QAEHXZ PROC			; CItem::GetWeaponType, COMDAT
; _this$ = ecx

; 2949 : 	if ( this->m_Type <= ITEMGET(5,0) )

  00000	0f b7 41 06	 movzx	 eax, WORD PTR [ecx+6]
  00004	b9 00 0a 00 00	 mov	 ecx, 2560		; 00000a00H
  00009	66 3b c1	 cmp	 ax, cx
  0000c	7f 06		 jg	 SHORT $LN2@GetWeaponT

; 2950 : 	{
; 2951 : 		return 1;

  0000e	b8 01 00 00 00	 mov	 eax, 1

; 2955 : 	{
; 2956 : 		return 2;
; 2957 : 	}
; 2958 : 	return 0;
; 2959 : }

  00013	c3		 ret	 0
$LN2@GetWeaponT:

; 2952 : 	}
; 2953 : 
; 2954 : 	if ( this->m_Type <= ITEMGET(6,0) )

  00014	33 c9		 xor	 ecx, ecx
  00016	ba 00 0c 00 00	 mov	 edx, 3072		; 00000c00H
  0001b	66 3b c2	 cmp	 ax, dx
  0001e	0f 9f c1	 setg	 cl
  00021	8d 41 ff	 lea	 eax, DWORD PTR [ecx-1]
  00024	83 e0 02	 and	 eax, 2

; 2955 : 	{
; 2956 : 		return 2;
; 2957 : 	}
; 2958 : 	return 0;
; 2959 : }

  00027	c3		 ret	 0
?GetWeaponType@CItem@@QAEHXZ ENDP			; CItem::GetWeaponType
_TEXT	ENDS
PUBLIC	?GetDetailItemType@CItem@@QAEHXZ		; CItem::GetDetailItemType
; Function compile flags: /Ogtp
;	COMDAT ?GetDetailItemType@CItem@@QAEHXZ
_TEXT	SEGMENT
?GetDetailItemType@CItem@@QAEHXZ PROC			; CItem::GetDetailItemType, COMDAT
; _this$ = ecx

; 2964 : 	signed int i; // [sp+4Ch] [bp-10h]@26
; 2965 : 	int nSum; // [sp+50h] [bp-Ch]@26
; 2966 : 	ITEM_ATTRIBUTE *p; // [sp+54h] [bp-8h]@1
; 2967 : 
; 2968 : 	p = &ItemAttribute[m_Type];

  00000	0f b7 41 06	 movzx	 eax, WORD PTR [ecx+6]
  00004	56		 push	 esi
  00005	0f bf f0	 movsx	 esi, ax
  00008	6b f6 70	 imul	 esi, 112		; 00000070H
  0000b	81 c6 00 00 00
	00		 add	 esi, OFFSET ?ItemAttribute@@3PAUITEM_ATTRIBUTE@@A ; ItemAttribute

; 2969 : 
; 2970 : 	if ( this->m_Type < 0 )

  00011	66 85 c0	 test	 ax, ax

; 2971 : 		return MuItemType::mitNONE;

  00014	0f 88 5e 01 00
	00		 js	 $LN1@GetDetailI

; 2972 : 
; 2973 : 	if( this->m_Type >= MuItem::miGROUP_SWORD_START+32 && this->m_Type <= MuItem::miGROUP_SWORD_START+35 )

  0001a	0f b7 51 06	 movzx	 edx, WORD PTR [ecx+6]
  0001e	66 83 fa 20	 cmp	 dx, 32			; 00000020H
  00022	7c 0d		 jl	 SHORT $LN26@GetDetailI
  00024	66 83 fa 23	 cmp	 dx, 35			; 00000023H
  00028	7f 07		 jg	 SHORT $LN26@GetDetailI

; 2974 : 	{
; 2975 : 		return MuItemType::mitGloves;

  0002a	b8 0c 00 00 00	 mov	 eax, 12			; 0000000cH
  0002f	5e		 pop	 esi

; 3052 : }

  00030	c3		 ret	 0
$LN26@GetDetailI:

; 2976 : 	}
; 2977 : 
; 2978 : 	if ( this->m_Type < MuItem::miGROUP_SWORD_END )

  00031	b8 ff 01 00 00	 mov	 eax, 511		; 000001ffH
  00036	66 3b d0	 cmp	 dx, ax
  00039	7d 0b		 jge	 SHORT $LN23@GetDetailI

; 2979 : 	{
; 2980 : 		if(this->m_TwoHand != 1)

  0003b	33 c0		 xor	 eax, eax
  0003d	80 79 0c 01	 cmp	 BYTE PTR [ecx+12], 1
  00041	5e		 pop	 esi
  00042	0f 95 c0	 setne	 al

; 3052 : }

  00045	c3		 ret	 0
$LN23@GetDetailI:

; 2981 : 			return MuItemType::mitSWORD_ONE_HAND;
; 2982 : 		else
; 2983 : 			return MuItemType::mitSWORD_TWO_HAND;
; 2984 : 	}
; 2985 : 
; 2986 : 	if(m_Type >= MuItem::miGROUP_MACE_SCEPTER_START && m_Type <= MuItem::miGROUP_MACE_SCEPTER_END)

  00046	b8 00 04 00 00	 mov	 eax, 1024		; 00000400H
  0004b	66 3b d0	 cmp	 dx, ax
  0004e	7c 38		 jl	 SHORT $LN18@GetDetailI
  00050	b8 ff 05 00 00	 mov	 eax, 1535		; 000005ffH
  00055	66 3b d0	 cmp	 dx, ax
  00058	7f 2e		 jg	 SHORT $LN18@GetDetailI

; 2987 : 	{
; 2988 : 
; 2989 : 		if ( this->m_Type == MuItem::miSWORD_CRYSTAL )

  0005a	b9 05 04 00 00	 mov	 ecx, 1029		; 00000405H
  0005f	66 3b d1	 cmp	 dx, cx
  00062	75 04		 jne	 SHORT $LN21@GetDetailI

; 2990 : 			return MuItemType::mitSWORD_TWO_HAND;

  00064	33 c0		 xor	 eax, eax
  00066	5e		 pop	 esi

; 3052 : }

  00067	c3		 ret	 0
$LN21@GetDetailI:

; 2991 : 
; 2992 : 		if ( this->m_Type == MuItem::miCHAOS_WEAPON_AXE_DRAGON )

  00068	b8 06 04 00 00	 mov	 eax, 1030		; 00000406H
  0006d	66 3b d0	 cmp	 dx, ax

; 2993 : 			return MuItemType::mitNONE;

  00070	0f 84 02 01 00
	00		 je	 $LN1@GetDetailI

; 2994 : 
; 2995 : 		// force wave skill
; 2996 : 		if ( p->SkillType == 66 )

  00076	8b 46 68	 mov	 eax, DWORD PTR [esi+104]
  00079	83 e8 42	 sub	 eax, 66			; 00000042H
  0007c	f7 d8		 neg	 eax
  0007e	1b c0		 sbb	 eax, eax
  00080	83 e0 f7	 and	 eax, -9			; fffffff7H
  00083	83 c0 0b	 add	 eax, 11			; 0000000bH
  00086	5e		 pop	 esi

; 3052 : }

  00087	c3		 ret	 0
$LN18@GetDetailI:

; 2997 : 			return MuItemType::mitSCEPTER;
; 2998 : 		else
; 2999 : 			return MuItemType::mitMACE;
; 3000 : 
; 3001 : 	}
; 3002 : 
; 3003 : 	if(m_Type >= MuItem::miGROUP_SPEAR_START && m_Type <= MuItem::miGROUP_SPEAR_END)

  00088	b8 00 06 00 00	 mov	 eax, 1536		; 00000600H
  0008d	66 3b d0	 cmp	 dx, ax
  00090	7c 11		 jl	 SHORT $LN17@GetDetailI
  00092	b8 ff 07 00 00	 mov	 eax, 2047		; 000007ffH
  00097	66 3b d0	 cmp	 dx, ax
  0009a	7f 07		 jg	 SHORT $LN17@GetDetailI

; 3004 : 		return MuItemType::mitSPEAR;

  0009c	b8 03 00 00 00	 mov	 eax, 3
  000a1	5e		 pop	 esi

; 3052 : }

  000a2	c3		 ret	 0
$LN17@GetDetailI:

; 3005 : 
; 3006 : 
; 3007 : 	if(m_Type >= MuItem::miGROUP_BOW_CROSSBOW_START && m_Type <= MuItem::miGROUP_BOW_CROSSBOW_END)

  000a3	b8 00 08 00 00	 mov	 eax, 2048		; 00000800H
  000a8	66 3b d0	 cmp	 dx, ax
  000ab	7c 22		 jl	 SHORT $LN13@GetDetailI
  000ad	b8 ff 09 00 00	 mov	 eax, 2559		; 000009ffH
  000b2	66 3b d0	 cmp	 dx, ax
  000b5	7f 18		 jg	 SHORT $LN13@GetDetailI

; 3008 : 	{
; 3009 : 		if ( m_TwoHand != 1 )

  000b7	80 79 0c 01	 cmp	 BYTE PTR [ecx+12], 1

; 3010 : 			return MuItemType::mitNONE;

  000bb	0f 85 b7 00 00
	00		 jne	 $LN1@GetDetailI

; 3011 : 
; 3012 : 		if ( p->ItemSlot == 1)

  000c1	33 c0		 xor	 eax, eax
  000c3	83 7e 64 01	 cmp	 DWORD PTR [esi+100], 1
  000c7	5e		 pop	 esi
  000c8	0f 95 c0	 setne	 al
  000cb	83 c0 07	 add	 eax, 7

; 3052 : }

  000ce	c3		 ret	 0
$LN13@GetDetailI:

; 3013 : 			return MuItemType::mitBOW;
; 3014 : 		else
; 3015 : 			return MuItemType::mitCROSSBOW;
; 3016 : 	}
; 3017 : 
; 3018 : 	if (m_Type >= MuItem::miGROUP_SHIELD_START && m_Type <= MuItem::miGROUP_SHIELD_END)

  000cf	b8 00 0c 00 00	 mov	 eax, 3072		; 00000c00H
  000d4	66 3b d0	 cmp	 dx, ax
  000d7	7c 11		 jl	 SHORT $LN12@GetDetailI
  000d9	b8 ff 0d 00 00	 mov	 eax, 3583		; 00000dffH
  000de	66 3b d0	 cmp	 dx, ax
  000e1	7f 07		 jg	 SHORT $LN12@GetDetailI

; 3019 : 		return MuItemType::mitSHIELD;

  000e3	b8 06 00 00 00	 mov	 eax, 6
  000e8	5e		 pop	 esi

; 3052 : }

  000e9	c3		 ret	 0
$LN12@GetDetailI:

; 3020 : 
; 3021 : 
; 3022 : 	if ( m_Type >= MuItem::miGROUP_STAFF_STICK_START && m_Type <= MuItem::miGROUP_STAFF_STICK_END)

  000ea	b8 00 0a 00 00	 mov	 eax, 2560		; 00000a00H
  000ef	66 3b d0	 cmp	 dx, ax
  000f2	0f 8c 80 00 00
	00		 jl	 $LN1@GetDetailI
  000f8	b8 ff 0b 00 00	 mov	 eax, 3071		; 00000bffH
  000fd	66 3b d0	 cmp	 dx, ax
  00100	7f 76		 jg	 SHORT $LN1@GetDetailI

; 3023 : 	{
; 3024 : 		nSum = 0;

  00102	33 c0		 xor	 eax, eax

; 3025 : 		for ( i = 0; i < MAX_TYPE_PLAYER; ++i )
; 3026 : 		{
; 3027 : 			if ( this->m_RequireClass[i] > 0 )

  00104	38 41 58	 cmp	 BYTE PTR [ecx+88], al
  00107	76 00		 jbe	 SHORT $LN9@GetDetailI
$LN9@GetDetailI:
  00109	80 79 59 00	 cmp	 BYTE PTR [ecx+89], 0
  0010d	76 05		 jbe	 SHORT $LN36@GetDetailI

; 3028 : 				nSum += i;

  0010f	b8 01 00 00 00	 mov	 eax, 1
$LN36@GetDetailI:

; 3025 : 		for ( i = 0; i < MAX_TYPE_PLAYER; ++i )
; 3026 : 		{
; 3027 : 			if ( this->m_RequireClass[i] > 0 )

  00114	80 79 5a 00	 cmp	 BYTE PTR [ecx+90], 0
  00118	76 03		 jbe	 SHORT $LN38@GetDetailI

; 3028 : 				nSum += i;

  0011a	83 c0 02	 add	 eax, 2
$LN38@GetDetailI:

; 3025 : 		for ( i = 0; i < MAX_TYPE_PLAYER; ++i )
; 3026 : 		{
; 3027 : 			if ( this->m_RequireClass[i] > 0 )

  0011d	80 79 5b 00	 cmp	 BYTE PTR [ecx+91], 0
  00121	76 03		 jbe	 SHORT $LN40@GetDetailI

; 3028 : 				nSum += i;

  00123	83 c0 03	 add	 eax, 3
$LN40@GetDetailI:

; 3025 : 		for ( i = 0; i < MAX_TYPE_PLAYER; ++i )
; 3026 : 		{
; 3027 : 			if ( this->m_RequireClass[i] > 0 )

  00126	80 79 5c 00	 cmp	 BYTE PTR [ecx+92], 0
  0012a	76 03		 jbe	 SHORT $LN42@GetDetailI

; 3028 : 				nSum += i;

  0012c	83 c0 04	 add	 eax, 4
$LN42@GetDetailI:

; 3025 : 		for ( i = 0; i < MAX_TYPE_PLAYER; ++i )
; 3026 : 		{
; 3027 : 			if ( this->m_RequireClass[i] > 0 )

  0012f	80 79 5d 00	 cmp	 BYTE PTR [ecx+93], 0
  00133	76 03		 jbe	 SHORT $LN44@GetDetailI

; 3028 : 				nSum += i;

  00135	83 c0 05	 add	 eax, 5
$LN44@GetDetailI:

; 3025 : 		for ( i = 0; i < MAX_TYPE_PLAYER; ++i )
; 3026 : 		{
; 3027 : 			if ( this->m_RequireClass[i] > 0 )

  00138	80 79 5e 00	 cmp	 BYTE PTR [ecx+94], 0
  0013c	76 03		 jbe	 SHORT $LN46@GetDetailI

; 3028 : 				nSum += i;

  0013e	83 c0 06	 add	 eax, 6
$LN46@GetDetailI:

; 3029 : 		}
; 3030 : 
; 3031 : 		if ( nSum == 5 )

  00141	83 f8 05	 cmp	 eax, 5
  00144	75 24		 jne	 SHORT $LN6@GetDetailI

; 3032 : 		{
; 3033 : 			if ( this->m_Type != MuItem::miGROUP_STAFF_STICK_START )

  00146	b9 00 0a 00 00	 mov	 ecx, 2560		; 00000a00H
  0014b	66 3b d1	 cmp	 dx, cx
  0014e	74 28		 je	 SHORT $LN1@GetDetailI

; 3034 : 			{
; 3035 : 				if ( p->ItemSlot == 0 )

  00150	8b 46 64	 mov	 eax, DWORD PTR [esi+100]
  00153	85 c0		 test	 eax, eax
  00155	75 07		 jne	 SHORT $LN4@GetDetailI

; 3036 : 					return MuItemType::mitSTICK;

  00157	b8 09 00 00 00	 mov	 eax, 9
  0015c	5e		 pop	 esi

; 3052 : }

  0015d	c3		 ret	 0
$LN4@GetDetailI:

; 3037 : 
; 3038 : 				if ( p->ItemSlot == 1 )

  0015e	83 f8 01	 cmp	 eax, 1
  00161	75 15		 jne	 SHORT $LN1@GetDetailI

; 3039 : 					return MuItemType::mitBOOK;

  00163	b8 0a 00 00 00	 mov	 eax, 10			; 0000000aH
  00168	5e		 pop	 esi

; 3052 : }

  00169	c3		 ret	 0
$LN6@GetDetailI:

; 3040 : 			}
; 3041 : 
; 3042 : 			return -1;
; 3043 : 		}
; 3044 : 
; 3045 : 		if ( this->m_TwoHand == 1 )

  0016a	33 c0		 xor	 eax, eax
  0016c	80 79 0c 01	 cmp	 BYTE PTR [ecx+12], 1
  00170	5e		 pop	 esi
  00171	0f 94 c0	 sete	 al
  00174	83 c0 04	 add	 eax, 4

; 3052 : }

  00177	c3		 ret	 0
$LN1@GetDetailI:

; 3046 : 			return MuItemType::mitSTAFF_TWO_HAND;
; 3047 : 		else
; 3048 : 			return MuItemType::mitSTAFF_ONE_HAND;
; 3049 : 	}
; 3050 : 
; 3051 : 	return MuItemType::mitNONE;

  00178	83 c8 ff	 or	 eax, -1
  0017b	5e		 pop	 esi

; 3052 : }

  0017c	c3		 ret	 0
?GetDetailItemType@CItem@@QAEHXZ ENDP			; CItem::GetDetailItemType
_TEXT	ENDS
PUBLIC	?PetValue@CItem@@QAEXXZ				; CItem::PetValue
; Function compile flags: /Ogtp
;	COMDAT ?PetValue@CItem@@QAEXXZ
_TEXT	SEGMENT
?PetValue@CItem@@QAEXXZ PROC				; CItem::PetValue, COMDAT
; _this$ = ecx

; 3301 : 	if ( this->m_Type == ITEMGET(13,4) )

  00000	0f b7 41 06	 movzx	 eax, WORD PTR [ecx+6]
  00004	ba 04 1a 00 00	 mov	 edx, 6660		; 00001a04H
  00009	66 3b c2	 cmp	 ax, dx
  0000c	75 0e		 jne	 SHORT $LN9@PetValue

; 3302 : 	{
; 3303 : 		this->m_SellMoney = this->m_PetItem_Level * 2000000;

  0000e	8b 81 bc 00 00
	00		 mov	 eax, DWORD PTR [ecx+188]
  00014	69 c0 80 84 1e
	00		 imul	 eax, 2000000		; 001e8480H
  0001a	eb 16		 jmp	 SHORT $LN12@PetValue
$LN9@PetValue:

; 3304 : 	}
; 3305 : 	else if ( this->m_Type == ITEMGET(13,5) )

  0001c	ba 05 1a 00 00	 mov	 edx, 6661		; 00001a05H
  00021	66 3b c2	 cmp	 ax, dx
  00024	75 0f		 jne	 SHORT $LN7@PetValue

; 3306 : 	{
; 3307 : 		this->m_SellMoney = this->m_PetItem_Level * 1000000;

  00026	8b 81 bc 00 00
	00		 mov	 eax, DWORD PTR [ecx+188]
  0002c	69 c0 40 42 0f
	00		 imul	 eax, 1000000		; 000f4240H
$LN12@PetValue:
  00032	89 41 6c	 mov	 DWORD PTR [ecx+108], eax
$LN7@PetValue:

; 3308 : 	}	
; 3309 : 
; 3310 : 	this->m_BuyMoney = this->m_SellMoney;

  00035	8b 51 6c	 mov	 edx, DWORD PTR [ecx+108]
  00038	89 51 70	 mov	 DWORD PTR [ecx+112], edx

; 3311 : 	this->m_SellMoney /= 3;

  0003b	b8 ab aa aa aa	 mov	 eax, -1431655765	; aaaaaaabH
  00040	f7 e2		 mul	 edx
  00042	d1 ea		 shr	 edx, 1
  00044	89 51 6c	 mov	 DWORD PTR [ecx+108], edx

; 3312 : 
; 3313 : 	if ( this->m_SellMoney >= 1000 )

  00047	81 fa e8 03 00
	00		 cmp	 edx, 1000		; 000003e8H
  0004d	72 0f		 jb	 SHORT $LN6@PetValue

; 3314 : 	{
; 3315 : 		this->m_SellMoney = this->m_SellMoney / 100 * 100;

  0004f	b8 1f 85 eb 51	 mov	 eax, 1374389535		; 51eb851fH
  00054	f7 e2		 mul	 edx
  00056	c1 ea 05	 shr	 edx, 5
  00059	6b d2 64	 imul	 edx, 100		; 00000064H
  0005c	eb 14		 jmp	 SHORT $LN13@PetValue
$LN6@PetValue:

; 3316 : 	}
; 3317 : 	else if ( this->m_SellMoney >= 100 )

  0005e	83 fa 64	 cmp	 edx, 100		; 00000064H
  00061	72 12		 jb	 SHORT $LN4@PetValue

; 3318 : 	{
; 3319 : 		this->m_SellMoney = this->m_SellMoney / 10 * 10;

  00063	b8 cd cc cc cc	 mov	 eax, -858993459		; cccccccdH
  00068	f7 e2		 mul	 edx
  0006a	c1 ea 03	 shr	 edx, 3
  0006d	8d 14 92	 lea	 edx, DWORD PTR [edx+edx*4]
  00070	03 d2		 add	 edx, edx
$LN13@PetValue:
  00072	89 51 6c	 mov	 DWORD PTR [ecx+108], edx
$LN4@PetValue:

; 3320 : 	}
; 3321 : 
; 3322 : 	if ( this->m_BuyMoney >= 1000 )

  00075	8b 51 70	 mov	 edx, DWORD PTR [ecx+112]
  00078	81 fa e8 03 00
	00		 cmp	 edx, 1000		; 000003e8H
  0007e	72 11		 jb	 SHORT $LN3@PetValue

; 3323 : 	{
; 3324 : 		this->m_BuyMoney = this->m_BuyMoney / 100 * 100;

  00080	b8 1f 85 eb 51	 mov	 eax, 1374389535		; 51eb851fH
  00085	f7 e2		 mul	 edx
  00087	c1 ea 05	 shr	 edx, 5
  0008a	6b d2 64	 imul	 edx, 100		; 00000064H
  0008d	89 51 70	 mov	 DWORD PTR [ecx+112], edx

; 3329 : 	}
; 3330 : }

  00090	c3		 ret	 0
$LN3@PetValue:

; 3325 : 	}
; 3326 : 	else if ( this->m_BuyMoney >= 100 )

  00091	83 fa 64	 cmp	 edx, 100		; 00000064H
  00094	72 12		 jb	 SHORT $LN1@PetValue

; 3327 : 	{
; 3328 : 		this->m_BuyMoney = this->m_BuyMoney / 10 * 10;

  00096	b8 cd cc cc cc	 mov	 eax, -858993459		; cccccccdH
  0009b	f7 e2		 mul	 edx
  0009d	c1 ea 03	 shr	 edx, 3
  000a0	8d 04 92	 lea	 eax, DWORD PTR [edx+edx*4]
  000a3	03 c0		 add	 eax, eax
  000a5	89 41 70	 mov	 DWORD PTR [ecx+112], eax
$LN1@PetValue:

; 3329 : 	}
; 3330 : }

  000a8	c3		 ret	 0
?PetValue@CItem@@QAEXXZ ENDP				; CItem::PetValue
_TEXT	ENDS
PUBLIC	?IsExtItem@CItem@@QAEHXZ			; CItem::IsExtItem
; Function compile flags: /Ogtp
;	COMDAT ?IsExtItem@CItem@@QAEHXZ
_TEXT	SEGMENT
?IsExtItem@CItem@@QAEHXZ PROC				; CItem::IsExtItem, COMDAT
; _this$ = ecx

; 3334 : 	if ( this->m_Type == ITEMGET(13,37) )

  00000	b8 25 1a 00 00	 mov	 eax, 6693		; 00001a25H
  00005	66 39 41 06	 cmp	 WORD PTR [ecx+6], ax
  00009	75 03		 jne	 SHORT $LN2@IsExtItem

; 3335 : 	{
; 3336 : 		return FALSE;

  0000b	33 c0		 xor	 eax, eax

; 3340 : 	{
; 3341 : 		return TRUE;
; 3342 : 	}
; 3343 : 
; 3344 : 	return FALSE;
; 3345 : }

  0000d	c3		 ret	 0
$LN2@IsExtItem:

; 3337 : 	}
; 3338 : 
; 3339 : 	if ( (this->m_NewOption & 0x7F)!= 0 )

  0000e	f6 81 97 00 00
	00 7f		 test	 BYTE PTR [ecx+151], 127	; 0000007fH
  00015	b8 00 00 00 00	 mov	 eax, 0
  0001a	0f 95 c0	 setne	 al

; 3340 : 	{
; 3341 : 		return TRUE;
; 3342 : 	}
; 3343 : 
; 3344 : 	return FALSE;
; 3345 : }

  0001d	c3		 ret	 0
?IsExtItem@CItem@@QAEHXZ ENDP				; CItem::IsExtItem
_TEXT	ENDS
PUBLIC	?IsExtLifeAdd@CItem@@QAEHXZ			; CItem::IsExtLifeAdd
EXTRN	?GetRankValueOption@ItemRank@@QAEHHE@Z:PROC	; ItemRank::GetRankValueOption
EXTRN	?IsRankItem@ItemRank@@QAEHGE@Z:PROC		; ItemRank::IsRankItem
EXTRN	?g_ItemRank@@3VItemRank@@A:BYTE			; g_ItemRank
; Function compile flags: /Ogtp
;	COMDAT ?IsExtLifeAdd@CItem@@QAEHXZ
_TEXT	SEGMENT
?IsExtLifeAdd@CItem@@QAEHXZ PROC			; CItem::IsExtLifeAdd, COMDAT
; _this$ = ecx

; 3349 : 	if ( (this->m_NewOption & 0x20) == 32 )

  00000	f6 81 97 00 00
	00 20		 test	 BYTE PTR [ecx+151], 32	; 00000020H
  00007	74 30		 je	 SHORT $LN3@IsExtLifeA

; 3350 : 	{
; 3351 : #if(CUSTOM_ITEM_RANK==TRUE)
; 3352 : 		int iRankID = g_ItemRank.IsRankItem(this->m_Type, this->m_Level);

  00009	0f b6 41 08	 movzx	 eax, BYTE PTR [ecx+8]
  0000d	0f b7 49 06	 movzx	 ecx, WORD PTR [ecx+6]
  00011	50		 push	 eax
  00012	51		 push	 ecx
  00013	b9 00 00 00 00	 mov	 ecx, OFFSET ?g_ItemRank@@3VItemRank@@A ; g_ItemRank
  00018	e8 00 00 00 00	 call	 ?IsRankItem@ItemRank@@QAEHGE@Z ; ItemRank::IsRankItem

; 3353 : 		if(iRankID >= 0)

  0001d	85 c0		 test	 eax, eax
  0001f	78 12		 js	 SHORT $LN1@IsExtLifeA

; 3354 : 		{
; 3355 : 			int iRankValue = g_ItemRank.GetRankValueOption(iRankID, 0);

  00021	6a 00		 push	 0
  00023	50		 push	 eax
  00024	b9 00 00 00 00	 mov	 ecx, OFFSET ?g_ItemRank@@3VItemRank@@A ; g_ItemRank
  00029	e8 00 00 00 00	 call	 ?GetRankValueOption@ItemRank@@QAEHHE@Z ; ItemRank::GetRankValueOption

; 3356 : 			if(iRankValue != -1)

  0002e	83 f8 ff	 cmp	 eax, -1

; 3357 : 			{
; 3358 : 				return iRankValue;

  00031	75 08		 jne	 SHORT $LN4@IsExtLifeA
$LN1@IsExtLifeA:

; 3359 : 			}
; 3360 : 		}
; 3361 : #endif
; 3362 : 		return 4;

  00033	b8 04 00 00 00	 mov	 eax, 4

; 3366 : }

  00038	c3		 ret	 0
$LN3@IsExtLifeA:

; 3363 : 	}
; 3364 : 
; 3365 : 	return 0;

  00039	33 c0		 xor	 eax, eax
$LN4@IsExtLifeA:

; 3366 : }

  0003b	c3		 ret	 0
?IsExtLifeAdd@CItem@@QAEHXZ ENDP			; CItem::IsExtLifeAdd
_TEXT	ENDS
PUBLIC	?IsExtManaAdd@CItem@@QAEHXZ			; CItem::IsExtManaAdd
; Function compile flags: /Ogtp
;	COMDAT ?IsExtManaAdd@CItem@@QAEHXZ
_TEXT	SEGMENT
?IsExtManaAdd@CItem@@QAEHXZ PROC			; CItem::IsExtManaAdd, COMDAT
; _this$ = ecx

; 3370 : 	if ( (this->m_NewOption & 0x10) == 16 )

  00000	f6 81 97 00 00
	00 10		 test	 BYTE PTR [ecx+151], 16	; 00000010H
  00007	74 30		 je	 SHORT $LN3@IsExtManaA

; 3371 : 	{
; 3372 : #if(CUSTOM_ITEM_RANK==TRUE)
; 3373 : 		int iRankID = g_ItemRank.IsRankItem(this->m_Type, this->m_Level);

  00009	0f b6 41 08	 movzx	 eax, BYTE PTR [ecx+8]
  0000d	0f b7 49 06	 movzx	 ecx, WORD PTR [ecx+6]
  00011	50		 push	 eax
  00012	51		 push	 ecx
  00013	b9 00 00 00 00	 mov	 ecx, OFFSET ?g_ItemRank@@3VItemRank@@A ; g_ItemRank
  00018	e8 00 00 00 00	 call	 ?IsRankItem@ItemRank@@QAEHGE@Z ; ItemRank::IsRankItem

; 3374 : 		if(iRankID >= 0)

  0001d	85 c0		 test	 eax, eax
  0001f	78 12		 js	 SHORT $LN1@IsExtManaA

; 3375 : 		{
; 3376 : 			int iRankValue = g_ItemRank.GetRankValueOption(iRankID, 1);

  00021	6a 01		 push	 1
  00023	50		 push	 eax
  00024	b9 00 00 00 00	 mov	 ecx, OFFSET ?g_ItemRank@@3VItemRank@@A ; g_ItemRank
  00029	e8 00 00 00 00	 call	 ?GetRankValueOption@ItemRank@@QAEHHE@Z ; ItemRank::GetRankValueOption

; 3377 : 			if(iRankValue != -1)

  0002e	83 f8 ff	 cmp	 eax, -1

; 3378 : 			{
; 3379 : 				return iRankValue;

  00031	75 08		 jne	 SHORT $LN4@IsExtManaA
$LN1@IsExtManaA:

; 3380 : 			}
; 3381 : 		}
; 3382 : #endif
; 3383 : 		return 4;

  00033	b8 04 00 00 00	 mov	 eax, 4

; 3387 : }

  00038	c3		 ret	 0
$LN3@IsExtManaA:

; 3384 : 	}
; 3385 : 
; 3386 : 	return 0;

  00039	33 c0		 xor	 eax, eax
$LN4@IsExtManaA:

; 3387 : }

  0003b	c3		 ret	 0
?IsExtManaAdd@CItem@@QAEHXZ ENDP			; CItem::IsExtManaAdd
_TEXT	ENDS
PUBLIC	?IsExtDamageMinus@CItem@@QAEHXZ			; CItem::IsExtDamageMinus
; Function compile flags: /Ogtp
;	COMDAT ?IsExtDamageMinus@CItem@@QAEHXZ
_TEXT	SEGMENT
?IsExtDamageMinus@CItem@@QAEHXZ PROC			; CItem::IsExtDamageMinus, COMDAT
; _this$ = ecx

; 3391 : 	if ( (this->m_NewOption & 8) == 8 )

  00000	f6 81 97 00 00
	00 08		 test	 BYTE PTR [ecx+151], 8
  00007	74 30		 je	 SHORT $LN3@IsExtDamag

; 3392 : 	{
; 3393 : #if(CUSTOM_ITEM_RANK==TRUE)
; 3394 : 		int iRankID = g_ItemRank.IsRankItem(this->m_Type, this->m_Level);

  00009	0f b6 41 08	 movzx	 eax, BYTE PTR [ecx+8]
  0000d	0f b7 49 06	 movzx	 ecx, WORD PTR [ecx+6]
  00011	50		 push	 eax
  00012	51		 push	 ecx
  00013	b9 00 00 00 00	 mov	 ecx, OFFSET ?g_ItemRank@@3VItemRank@@A ; g_ItemRank
  00018	e8 00 00 00 00	 call	 ?IsRankItem@ItemRank@@QAEHGE@Z ; ItemRank::IsRankItem

; 3395 : 		if(iRankID >= 0)

  0001d	85 c0		 test	 eax, eax
  0001f	78 12		 js	 SHORT $LN1@IsExtDamag

; 3396 : 		{
; 3397 : 			int iRankValue = g_ItemRank.GetRankValueOption(iRankID, 2);

  00021	6a 02		 push	 2
  00023	50		 push	 eax
  00024	b9 00 00 00 00	 mov	 ecx, OFFSET ?g_ItemRank@@3VItemRank@@A ; g_ItemRank
  00029	e8 00 00 00 00	 call	 ?GetRankValueOption@ItemRank@@QAEHHE@Z ; ItemRank::GetRankValueOption

; 3398 : 			if(iRankValue != -1)

  0002e	83 f8 ff	 cmp	 eax, -1

; 3399 : 			{
; 3400 : 				return iRankValue;

  00031	75 08		 jne	 SHORT $LN4@IsExtDamag
$LN1@IsExtDamag:

; 3401 : 			}
; 3402 : 		}
; 3403 : #endif
; 3404 : 		return 4;

  00033	b8 04 00 00 00	 mov	 eax, 4

; 3408 : }

  00038	c3		 ret	 0
$LN3@IsExtDamag:

; 3405 : 	}
; 3406 : 
; 3407 : 	return 0;

  00039	33 c0		 xor	 eax, eax
$LN4@IsExtDamag:

; 3408 : }

  0003b	c3		 ret	 0
?IsExtDamageMinus@CItem@@QAEHXZ ENDP			; CItem::IsExtDamageMinus
_TEXT	ENDS
PUBLIC	?IsExtDamageReflect@CItem@@QAEHXZ		; CItem::IsExtDamageReflect
; Function compile flags: /Ogtp
;	COMDAT ?IsExtDamageReflect@CItem@@QAEHXZ
_TEXT	SEGMENT
?IsExtDamageReflect@CItem@@QAEHXZ PROC			; CItem::IsExtDamageReflect, COMDAT
; _this$ = ecx

; 3412 : 	if ( (this->m_NewOption & 4) == 4 )

  00000	f6 81 97 00 00
	00 04		 test	 BYTE PTR [ecx+151], 4
  00007	74 30		 je	 SHORT $LN3@IsExtDamag@2

; 3413 : 	{
; 3414 : #if(CUSTOM_ITEM_RANK==TRUE)
; 3415 : 		int iRankID = g_ItemRank.IsRankItem(this->m_Type, this->m_Level);

  00009	0f b6 41 08	 movzx	 eax, BYTE PTR [ecx+8]
  0000d	0f b7 49 06	 movzx	 ecx, WORD PTR [ecx+6]
  00011	50		 push	 eax
  00012	51		 push	 ecx
  00013	b9 00 00 00 00	 mov	 ecx, OFFSET ?g_ItemRank@@3VItemRank@@A ; g_ItemRank
  00018	e8 00 00 00 00	 call	 ?IsRankItem@ItemRank@@QAEHGE@Z ; ItemRank::IsRankItem

; 3416 : 		if(iRankID >= 0)

  0001d	85 c0		 test	 eax, eax
  0001f	78 12		 js	 SHORT $LN1@IsExtDamag@2

; 3417 : 		{
; 3418 : 			int iRankValue = g_ItemRank.GetRankValueOption(iRankID, 3);

  00021	6a 03		 push	 3
  00023	50		 push	 eax
  00024	b9 00 00 00 00	 mov	 ecx, OFFSET ?g_ItemRank@@3VItemRank@@A ; g_ItemRank
  00029	e8 00 00 00 00	 call	 ?GetRankValueOption@ItemRank@@QAEHHE@Z ; ItemRank::GetRankValueOption

; 3419 : 			if(iRankValue != -1)

  0002e	83 f8 ff	 cmp	 eax, -1

; 3420 : 			{
; 3421 : 				return iRankValue;

  00031	75 08		 jne	 SHORT $LN4@IsExtDamag@2
$LN1@IsExtDamag@2:

; 3422 : 			}
; 3423 : 		}
; 3424 : #endif
; 3425 : 		return 5;

  00033	b8 05 00 00 00	 mov	 eax, 5

; 3429 : }

  00038	c3		 ret	 0
$LN3@IsExtDamag@2:

; 3426 : 	}
; 3427 : 
; 3428 : 	return 0;

  00039	33 c0		 xor	 eax, eax
$LN4@IsExtDamag@2:

; 3429 : }

  0003b	c3		 ret	 0
?IsExtDamageReflect@CItem@@QAEHXZ ENDP			; CItem::IsExtDamageReflect
_TEXT	ENDS
PUBLIC	?IsExtDefenseSuccessfull@CItem@@QAEHXZ		; CItem::IsExtDefenseSuccessfull
; Function compile flags: /Ogtp
;	COMDAT ?IsExtDefenseSuccessfull@CItem@@QAEHXZ
_TEXT	SEGMENT
?IsExtDefenseSuccessfull@CItem@@QAEHXZ PROC		; CItem::IsExtDefenseSuccessfull, COMDAT
; _this$ = ecx

; 3434 : 	if ( (this->m_NewOption & 2) == 2 )

  00000	f6 81 97 00 00
	00 02		 test	 BYTE PTR [ecx+151], 2
  00007	74 30		 je	 SHORT $LN3@IsExtDefen

; 3435 : 	{
; 3436 : #if(CUSTOM_ITEM_RANK==TRUE)
; 3437 : 		int iRankID = g_ItemRank.IsRankItem(this->m_Type, this->m_Level);

  00009	0f b6 41 08	 movzx	 eax, BYTE PTR [ecx+8]
  0000d	0f b7 49 06	 movzx	 ecx, WORD PTR [ecx+6]
  00011	50		 push	 eax
  00012	51		 push	 ecx
  00013	b9 00 00 00 00	 mov	 ecx, OFFSET ?g_ItemRank@@3VItemRank@@A ; g_ItemRank
  00018	e8 00 00 00 00	 call	 ?IsRankItem@ItemRank@@QAEHGE@Z ; ItemRank::IsRankItem

; 3438 : 		if(iRankID >= 0)

  0001d	85 c0		 test	 eax, eax
  0001f	78 12		 js	 SHORT $LN1@IsExtDefen

; 3439 : 		{
; 3440 : 			int iRankValue = g_ItemRank.GetRankValueOption(iRankID, 4);

  00021	6a 04		 push	 4
  00023	50		 push	 eax
  00024	b9 00 00 00 00	 mov	 ecx, OFFSET ?g_ItemRank@@3VItemRank@@A ; g_ItemRank
  00029	e8 00 00 00 00	 call	 ?GetRankValueOption@ItemRank@@QAEHHE@Z ; ItemRank::GetRankValueOption

; 3441 : 			if(iRankValue != -1)

  0002e	83 f8 ff	 cmp	 eax, -1

; 3442 : 			{
; 3443 : 				return iRankValue;

  00031	75 08		 jne	 SHORT $LN4@IsExtDefen
$LN1@IsExtDefen:

; 3444 : 			}
; 3445 : 		}
; 3446 : #endif
; 3447 : 		return 10;

  00033	b8 0a 00 00 00	 mov	 eax, 10			; 0000000aH

; 3451 : }

  00038	c3		 ret	 0
$LN3@IsExtDefen:

; 3448 : 	}
; 3449 : 
; 3450 : 	return 0;

  00039	33 c0		 xor	 eax, eax
$LN4@IsExtDefen:

; 3451 : }

  0003b	c3		 ret	 0
?IsExtDefenseSuccessfull@CItem@@QAEHXZ ENDP		; CItem::IsExtDefenseSuccessfull
_TEXT	ENDS
PUBLIC	?IsExtMonsterMoney@CItem@@QAEHXZ		; CItem::IsExtMonsterMoney
; Function compile flags: /Ogtp
;	COMDAT ?IsExtMonsterMoney@CItem@@QAEHXZ
_TEXT	SEGMENT
?IsExtMonsterMoney@CItem@@QAEHXZ PROC			; CItem::IsExtMonsterMoney, COMDAT
; _this$ = ecx

; 3455 : 	if ( (this->m_NewOption & 1) == 1 )

  00000	f6 81 97 00 00
	00 01		 test	 BYTE PTR [ecx+151], 1
  00007	74 30		 je	 SHORT $LN3@IsExtMonst

; 3456 : 	{
; 3457 : #if(CUSTOM_ITEM_RANK==TRUE)
; 3458 : 		int iRankID = g_ItemRank.IsRankItem(this->m_Type, this->m_Level);

  00009	0f b6 41 08	 movzx	 eax, BYTE PTR [ecx+8]
  0000d	0f b7 49 06	 movzx	 ecx, WORD PTR [ecx+6]
  00011	50		 push	 eax
  00012	51		 push	 ecx
  00013	b9 00 00 00 00	 mov	 ecx, OFFSET ?g_ItemRank@@3VItemRank@@A ; g_ItemRank
  00018	e8 00 00 00 00	 call	 ?IsRankItem@ItemRank@@QAEHGE@Z ; ItemRank::IsRankItem

; 3459 : 		if(iRankID >= 0)

  0001d	85 c0		 test	 eax, eax
  0001f	78 12		 js	 SHORT $LN1@IsExtMonst

; 3460 : 		{
; 3461 : 			int iRankValue = g_ItemRank.GetRankValueOption(iRankID, 5);

  00021	6a 05		 push	 5
  00023	50		 push	 eax
  00024	b9 00 00 00 00	 mov	 ecx, OFFSET ?g_ItemRank@@3VItemRank@@A ; g_ItemRank
  00029	e8 00 00 00 00	 call	 ?GetRankValueOption@ItemRank@@QAEHHE@Z ; ItemRank::GetRankValueOption

; 3462 : 			if(iRankValue != -1)

  0002e	83 f8 ff	 cmp	 eax, -1

; 3463 : 			{
; 3464 : 				return iRankValue;

  00031	75 08		 jne	 SHORT $LN4@IsExtMonst
$LN1@IsExtMonst:

; 3465 : 			}
; 3466 : 		}
; 3467 : #endif
; 3468 : 		return 30; //season4 changed

  00033	b8 1e 00 00 00	 mov	 eax, 30			; 0000001eH

; 3472 : }

  00038	c3		 ret	 0
$LN3@IsExtMonst:

; 3469 : 	}
; 3470 : 
; 3471 : 	return 0;

  00039	33 c0		 xor	 eax, eax
$LN4@IsExtMonst:

; 3472 : }

  0003b	c3		 ret	 0
?IsExtMonsterMoney@CItem@@QAEHXZ ENDP			; CItem::IsExtMonsterMoney
_TEXT	ENDS
PUBLIC	?IsExtExcellentDamage@CItem@@QAEHXZ		; CItem::IsExtExcellentDamage
; Function compile flags: /Ogtp
;	COMDAT ?IsExtExcellentDamage@CItem@@QAEHXZ
_TEXT	SEGMENT
?IsExtExcellentDamage@CItem@@QAEHXZ PROC		; CItem::IsExtExcellentDamage, COMDAT
; _this$ = ecx

; 3476 : 	if ( (this->m_Type >= ITEMGET(6,0) ) && (this->m_Type < ITEMGET(7,0) ) )

  00000	0f b7 41 06	 movzx	 eax, WORD PTR [ecx+6]
  00004	ba 00 0c 00 00	 mov	 edx, 3072		; 00000c00H
  00009	66 3b c2	 cmp	 ax, dx
  0000c	7c 0a		 jl	 SHORT $LN4@IsExtExcel
  0000e	ba 00 0e 00 00	 mov	 edx, 3584		; 00000e00H
  00013	66 3b c2	 cmp	 ax, dx

; 3477 : 	{
; 3478 : 		return 0;

  00016	7c 35		 jl	 SHORT $LN3@IsExtExcel
$LN4@IsExtExcel:

; 3479 : 	}
; 3480 : 
; 3481 : 	if ( ( this->m_NewOption & 0x20 ) == 0x20 )

  00018	f6 81 97 00 00
	00 20		 test	 BYTE PTR [ecx+151], 32	; 00000020H
  0001f	74 2c		 je	 SHORT $LN3@IsExtExcel

; 3482 : 	{
; 3483 : #if(CUSTOM_ITEM_RANK==TRUE)
; 3484 : 		int iRankID = g_ItemRank.IsRankItem(this->m_Type, this->m_Level);

  00021	0f b6 49 08	 movzx	 ecx, BYTE PTR [ecx+8]
  00025	51		 push	 ecx
  00026	50		 push	 eax
  00027	b9 00 00 00 00	 mov	 ecx, OFFSET ?g_ItemRank@@3VItemRank@@A ; g_ItemRank
  0002c	e8 00 00 00 00	 call	 ?IsRankItem@ItemRank@@QAEHGE@Z ; ItemRank::IsRankItem

; 3485 : 		if(iRankID >= 0)

  00031	85 c0		 test	 eax, eax
  00033	78 12		 js	 SHORT $LN1@IsExtExcel

; 3486 : 		{
; 3487 : 			int iRankValue = g_ItemRank.GetRankValueOption(iRankID, 0);

  00035	6a 00		 push	 0
  00037	50		 push	 eax
  00038	b9 00 00 00 00	 mov	 ecx, OFFSET ?g_ItemRank@@3VItemRank@@A ; g_ItemRank
  0003d	e8 00 00 00 00	 call	 ?GetRankValueOption@ItemRank@@QAEHHE@Z ; ItemRank::GetRankValueOption

; 3488 : 			if(iRankValue != -1)

  00042	83 f8 ff	 cmp	 eax, -1

; 3489 : 			{
; 3490 : 				return iRankValue;

  00045	75 08		 jne	 SHORT $LN5@IsExtExcel
$LN1@IsExtExcel:

; 3491 : 			}
; 3492 : 		}
; 3493 : #endif
; 3494 : 		return 10;

  00047	b8 0a 00 00 00	 mov	 eax, 10			; 0000000aH

; 3497 : }

  0004c	c3		 ret	 0
$LN3@IsExtExcel:

; 3495 : 	}
; 3496 : 	return 0;

  0004d	33 c0		 xor	 eax, eax
$LN5@IsExtExcel:

; 3497 : }

  0004f	c3		 ret	 0
?IsExtExcellentDamage@CItem@@QAEHXZ ENDP		; CItem::IsExtExcellentDamage
_TEXT	ENDS
PUBLIC	?IsExtAttackRate@CItem@@QAEHXZ			; CItem::IsExtAttackRate
; Function compile flags: /Ogtp
;	COMDAT ?IsExtAttackRate@CItem@@QAEHXZ
_TEXT	SEGMENT
?IsExtAttackRate@CItem@@QAEHXZ PROC			; CItem::IsExtAttackRate, COMDAT
; _this$ = ecx

; 3501 : 	if ( (this->m_NewOption & 0x10) == 16 )

  00000	f6 81 97 00 00
	00 10		 test	 BYTE PTR [ecx+151], 16	; 00000010H
  00007	74 30		 je	 SHORT $LN3@IsExtAttac

; 3502 : 	{
; 3503 : #if(CUSTOM_ITEM_RANK==TRUE)
; 3504 : 		int iRankID = g_ItemRank.IsRankItem(this->m_Type, this->m_Level);

  00009	0f b6 41 08	 movzx	 eax, BYTE PTR [ecx+8]
  0000d	0f b7 49 06	 movzx	 ecx, WORD PTR [ecx+6]
  00011	50		 push	 eax
  00012	51		 push	 ecx
  00013	b9 00 00 00 00	 mov	 ecx, OFFSET ?g_ItemRank@@3VItemRank@@A ; g_ItemRank
  00018	e8 00 00 00 00	 call	 ?IsRankItem@ItemRank@@QAEHGE@Z ; ItemRank::IsRankItem

; 3505 : 		if(iRankID >= 0)

  0001d	85 c0		 test	 eax, eax
  0001f	78 12		 js	 SHORT $LN1@IsExtAttac

; 3506 : 		{
; 3507 : 			int iRankValue = g_ItemRank.GetRankValueOption(iRankID, 1);

  00021	6a 01		 push	 1
  00023	50		 push	 eax
  00024	b9 00 00 00 00	 mov	 ecx, OFFSET ?g_ItemRank@@3VItemRank@@A ; g_ItemRank
  00029	e8 00 00 00 00	 call	 ?GetRankValueOption@ItemRank@@QAEHHE@Z ; ItemRank::GetRankValueOption

; 3508 : 			if(iRankValue != -1)

  0002e	83 f8 ff	 cmp	 eax, -1

; 3509 : 			{
; 3510 : 				return iRankValue;

  00031	75 08		 jne	 SHORT $LN4@IsExtAttac
$LN1@IsExtAttac:

; 3511 : 			}
; 3512 : 		}
; 3513 : #endif
; 3514 : 		//return 1;
; 3515 : 		return 20;

  00033	b8 14 00 00 00	 mov	 eax, 20			; 00000014H

; 3519 : }

  00038	c3		 ret	 0
$LN3@IsExtAttac:

; 3516 : 	}
; 3517 : 
; 3518 : 	return 0;

  00039	33 c0		 xor	 eax, eax
$LN4@IsExtAttac:

; 3519 : }

  0003b	c3		 ret	 0
?IsExtAttackRate@CItem@@QAEHXZ ENDP			; CItem::IsExtAttackRate
_TEXT	ENDS
PUBLIC	?IsExtAttackRate2@CItem@@QAEHXZ			; CItem::IsExtAttackRate2
; Function compile flags: /Ogtp
;	COMDAT ?IsExtAttackRate2@CItem@@QAEHXZ
_TEXT	SEGMENT
?IsExtAttackRate2@CItem@@QAEHXZ PROC			; CItem::IsExtAttackRate2, COMDAT
; _this$ = ecx

; 3523 : 	if ( (this->m_NewOption & 8) == 8 )

  00000	f6 81 97 00 00
	00 08		 test	 BYTE PTR [ecx+151], 8
  00007	74 30		 je	 SHORT $LN3@IsExtAttac@2

; 3524 : 	{
; 3525 : #if(CUSTOM_ITEM_RANK==TRUE)
; 3526 : 		int iRankID = g_ItemRank.IsRankItem(this->m_Type, this->m_Level);

  00009	0f b6 41 08	 movzx	 eax, BYTE PTR [ecx+8]
  0000d	0f b7 49 06	 movzx	 ecx, WORD PTR [ecx+6]
  00011	50		 push	 eax
  00012	51		 push	 ecx
  00013	b9 00 00 00 00	 mov	 ecx, OFFSET ?g_ItemRank@@3VItemRank@@A ; g_ItemRank
  00018	e8 00 00 00 00	 call	 ?IsRankItem@ItemRank@@QAEHGE@Z ; ItemRank::IsRankItem

; 3527 : 		if(iRankID >= 0)

  0001d	85 c0		 test	 eax, eax
  0001f	78 12		 js	 SHORT $LN1@IsExtAttac@2

; 3528 : 		{
; 3529 : 			int iRankValue = g_ItemRank.GetRankValueOption(iRankID, 2);

  00021	6a 02		 push	 2
  00023	50		 push	 eax
  00024	b9 00 00 00 00	 mov	 ecx, OFFSET ?g_ItemRank@@3VItemRank@@A ; g_ItemRank
  00029	e8 00 00 00 00	 call	 ?GetRankValueOption@ItemRank@@QAEHHE@Z ; ItemRank::GetRankValueOption

; 3530 : 			if(iRankValue != -1)

  0002e	83 f8 ff	 cmp	 eax, -1

; 3531 : 			{
; 3532 : 				return iRankValue;

  00031	75 08		 jne	 SHORT $LN4@IsExtAttac@2
$LN1@IsExtAttac@2:

; 3533 : 			}
; 3534 : 		}
; 3535 : #endif
; 3536 : 		return 2;

  00033	b8 02 00 00 00	 mov	 eax, 2

; 3540 : }

  00038	c3		 ret	 0
$LN3@IsExtAttac@2:

; 3537 : 	}
; 3538 : 
; 3539 : 	return 0;

  00039	33 c0		 xor	 eax, eax
$LN4@IsExtAttac@2:

; 3540 : }

  0003b	c3		 ret	 0
?IsExtAttackRate2@CItem@@QAEHXZ ENDP			; CItem::IsExtAttackRate2
_TEXT	ENDS
PUBLIC	?IsExtAttackSpeed@CItem@@QAEHXZ			; CItem::IsExtAttackSpeed
; Function compile flags: /Ogtp
;	COMDAT ?IsExtAttackSpeed@CItem@@QAEHXZ
_TEXT	SEGMENT
?IsExtAttackSpeed@CItem@@QAEHXZ PROC			; CItem::IsExtAttackSpeed, COMDAT
; _this$ = ecx

; 3544 : 	if ( (this->m_NewOption & 4) == 4 )

  00000	f6 81 97 00 00
	00 04		 test	 BYTE PTR [ecx+151], 4
  00007	74 30		 je	 SHORT $LN3@IsExtAttac@3

; 3545 : 	{
; 3546 : #if(CUSTOM_ITEM_RANK==TRUE)
; 3547 : 		int iRankID = g_ItemRank.IsRankItem(this->m_Type, this->m_Level);

  00009	0f b6 41 08	 movzx	 eax, BYTE PTR [ecx+8]
  0000d	0f b7 49 06	 movzx	 ecx, WORD PTR [ecx+6]
  00011	50		 push	 eax
  00012	51		 push	 ecx
  00013	b9 00 00 00 00	 mov	 ecx, OFFSET ?g_ItemRank@@3VItemRank@@A ; g_ItemRank
  00018	e8 00 00 00 00	 call	 ?IsRankItem@ItemRank@@QAEHGE@Z ; ItemRank::IsRankItem

; 3548 : 		if(iRankID >= 0)

  0001d	85 c0		 test	 eax, eax
  0001f	78 12		 js	 SHORT $LN1@IsExtAttac@3

; 3549 : 		{
; 3550 : 			int iRankValue = g_ItemRank.GetRankValueOption(iRankID, 3);

  00021	6a 03		 push	 3
  00023	50		 push	 eax
  00024	b9 00 00 00 00	 mov	 ecx, OFFSET ?g_ItemRank@@3VItemRank@@A ; g_ItemRank
  00029	e8 00 00 00 00	 call	 ?GetRankValueOption@ItemRank@@QAEHHE@Z ; ItemRank::GetRankValueOption

; 3551 : 			if(iRankValue != -1)

  0002e	83 f8 ff	 cmp	 eax, -1

; 3552 : 			{
; 3553 : 				return iRankValue;

  00031	75 08		 jne	 SHORT $LN4@IsExtAttac@3
$LN1@IsExtAttac@3:

; 3554 : 			}
; 3555 : 		}
; 3556 : #endif
; 3557 : 		return 7;

  00033	b8 07 00 00 00	 mov	 eax, 7

; 3561 : }

  00038	c3		 ret	 0
$LN3@IsExtAttac@3:

; 3558 : 	}
; 3559 : 
; 3560 : 	return 0;

  00039	33 c0		 xor	 eax, eax
$LN4@IsExtAttac@3:

; 3561 : }

  0003b	c3		 ret	 0
?IsExtAttackSpeed@CItem@@QAEHXZ ENDP			; CItem::IsExtAttackSpeed
_TEXT	ENDS
PUBLIC	?IsExtMonsterDieLife@CItem@@QAEHXZ		; CItem::IsExtMonsterDieLife
; Function compile flags: /Ogtp
;	COMDAT ?IsExtMonsterDieLife@CItem@@QAEHXZ
_TEXT	SEGMENT
?IsExtMonsterDieLife@CItem@@QAEHXZ PROC			; CItem::IsExtMonsterDieLife, COMDAT
; _this$ = ecx

; 3566 : 	if ( (this->m_NewOption & 2) == 2 )

  00000	f6 81 97 00 00
	00 02		 test	 BYTE PTR [ecx+151], 2
  00007	74 30		 je	 SHORT $LN3@IsExtMonst@2

; 3567 : 	{
; 3568 : #if(CUSTOM_ITEM_RANK==TRUE)
; 3569 : 		int iRankID = g_ItemRank.IsRankItem(this->m_Type, this->m_Level);

  00009	0f b6 41 08	 movzx	 eax, BYTE PTR [ecx+8]
  0000d	0f b7 49 06	 movzx	 ecx, WORD PTR [ecx+6]
  00011	50		 push	 eax
  00012	51		 push	 ecx
  00013	b9 00 00 00 00	 mov	 ecx, OFFSET ?g_ItemRank@@3VItemRank@@A ; g_ItemRank
  00018	e8 00 00 00 00	 call	 ?IsRankItem@ItemRank@@QAEHGE@Z ; ItemRank::IsRankItem

; 3570 : 		if(iRankID >= 0)

  0001d	85 c0		 test	 eax, eax
  0001f	78 12		 js	 SHORT $LN1@IsExtMonst@2

; 3571 : 		{
; 3572 : 			int iRankValue = g_ItemRank.GetRankValueOption(iRankID, 4);

  00021	6a 04		 push	 4
  00023	50		 push	 eax
  00024	b9 00 00 00 00	 mov	 ecx, OFFSET ?g_ItemRank@@3VItemRank@@A ; g_ItemRank
  00029	e8 00 00 00 00	 call	 ?GetRankValueOption@ItemRank@@QAEHHE@Z ; ItemRank::GetRankValueOption

; 3573 : 			if(iRankValue != -1)

  0002e	83 f8 ff	 cmp	 eax, -1

; 3574 : 			{
; 3575 : 				return iRankValue;

  00031	75 08		 jne	 SHORT $LN4@IsExtMonst@2
$LN1@IsExtMonst@2:

; 3576 : 			}
; 3577 : 		}
; 3578 : #endif
; 3579 : 		//return 1;
; 3580 : 		return 8;

  00033	b8 08 00 00 00	 mov	 eax, 8

; 3584 : }

  00038	c3		 ret	 0
$LN3@IsExtMonst@2:

; 3581 : 	}
; 3582 : 
; 3583 : 	return 0;

  00039	33 c0		 xor	 eax, eax
$LN4@IsExtMonst@2:

; 3584 : }

  0003b	c3		 ret	 0
?IsExtMonsterDieLife@CItem@@QAEHXZ ENDP			; CItem::IsExtMonsterDieLife
_TEXT	ENDS
PUBLIC	?IsExtMonsterDieMana@CItem@@QAEHXZ		; CItem::IsExtMonsterDieMana
; Function compile flags: /Ogtp
;	COMDAT ?IsExtMonsterDieMana@CItem@@QAEHXZ
_TEXT	SEGMENT
?IsExtMonsterDieMana@CItem@@QAEHXZ PROC			; CItem::IsExtMonsterDieMana, COMDAT
; _this$ = ecx

; 3589 : 	if ( this->m_Type >= ITEMGET(6,0) && this->m_Type < ITEMGET(7,0) )

  00000	0f b7 41 06	 movzx	 eax, WORD PTR [ecx+6]
  00004	ba 00 0c 00 00	 mov	 edx, 3072		; 00000c00H
  00009	66 3b c2	 cmp	 ax, dx
  0000c	7c 0a		 jl	 SHORT $LN4@IsExtMonst@3
  0000e	ba 00 0e 00 00	 mov	 edx, 3584		; 00000e00H
  00013	66 3b c2	 cmp	 ax, dx

; 3590 : 	{
; 3591 : 		return 0;

  00016	7c 35		 jl	 SHORT $LN3@IsExtMonst@3
$LN4@IsExtMonst@3:

; 3592 : 	}
; 3593 : 
; 3594 : 	if ( (this->m_NewOption & 1) == 1 )

  00018	f6 81 97 00 00
	00 01		 test	 BYTE PTR [ecx+151], 1
  0001f	74 2c		 je	 SHORT $LN3@IsExtMonst@3

; 3595 : 	{
; 3596 : #if(CUSTOM_ITEM_RANK==TRUE)
; 3597 : 		int iRankID = g_ItemRank.IsRankItem(this->m_Type, this->m_Level);

  00021	0f b6 49 08	 movzx	 ecx, BYTE PTR [ecx+8]
  00025	51		 push	 ecx
  00026	50		 push	 eax
  00027	b9 00 00 00 00	 mov	 ecx, OFFSET ?g_ItemRank@@3VItemRank@@A ; g_ItemRank
  0002c	e8 00 00 00 00	 call	 ?IsRankItem@ItemRank@@QAEHGE@Z ; ItemRank::IsRankItem

; 3598 : 		if(iRankID >= 0)

  00031	85 c0		 test	 eax, eax
  00033	78 12		 js	 SHORT $LN1@IsExtMonst@3

; 3599 : 		{
; 3600 : 			int iRankValue = g_ItemRank.GetRankValueOption(iRankID, 5);

  00035	6a 05		 push	 5
  00037	50		 push	 eax
  00038	b9 00 00 00 00	 mov	 ecx, OFFSET ?g_ItemRank@@3VItemRank@@A ; g_ItemRank
  0003d	e8 00 00 00 00	 call	 ?GetRankValueOption@ItemRank@@QAEHHE@Z ; ItemRank::GetRankValueOption

; 3601 : 			if(iRankValue != -1)

  00042	83 f8 ff	 cmp	 eax, -1

; 3602 : 			{
; 3603 : 				return iRankValue;

  00045	75 08		 jne	 SHORT $LN5@IsExtMonst@3
$LN1@IsExtMonst@3:

; 3604 : 			}
; 3605 : 		}
; 3606 : #endif
; 3607 : 		//return 1;
; 3608 : 		return 8;

  00047	b8 08 00 00 00	 mov	 eax, 8

; 3611 : }

  0004c	c3		 ret	 0
$LN3@IsExtMonst@3:

; 3609 : 	}
; 3610 : 	return 0;

  0004d	33 c0		 xor	 eax, eax
$LN5@IsExtMonst@3:

; 3611 : }

  0004f	c3		 ret	 0
?IsExtMonsterDieMana@CItem@@QAEHXZ ENDP			; CItem::IsExtMonsterDieMana
_TEXT	ENDS
PUBLIC	__real@3f800000
PUBLIC	?IsWingOpGetOnePercentDamage@CItem@@QAEHXZ	; CItem::IsWingOpGetOnePercentDamage
;	COMDAT __real@3f800000
CONST	SEGMENT
__real@3f800000 DD 03f800000r			; 1
; Function compile flags: /Ogtp
CONST	ENDS
;	COMDAT ?IsWingOpGetOnePercentDamage@CItem@@QAEHXZ
_TEXT	SEGMENT
?IsWingOpGetOnePercentDamage@CItem@@QAEHXZ PROC		; CItem::IsWingOpGetOnePercentDamage, COMDAT
; _this$ = ecx

; 3615 : 	if ( this->m_Durability  < 1.0f )

  00000	d9 e8		 fld1
  00002	d8 59 24	 fcomp	 DWORD PTR [ecx+36]
  00005	df e0		 fnstsw	 ax
  00007	f6 c4 41	 test	 ah, 65			; 00000041H

; 3616 : 	{
; 3617 : 		return 0;

  0000a	74 3b		 je	 SHORT $LN1@IsWingOpGe

; 3618 : 	}
; 3619 : 
; 3620 : 	if ( this->m_Type >= ITEMGET(12,3) && this->m_Type <= ITEMGET(12,6) || this->m_Type == ITEMGET(13,30) || this->m_Type == ITEMGET(12,42) )

  0000c	0f b7 41 06	 movzx	 eax, WORD PTR [ecx+6]
  00010	ba 03 18 00 00	 mov	 edx, 6147		; 00001803H
  00015	66 3b c2	 cmp	 ax, dx
  00018	7c 0a		 jl	 SHORT $LN2@IsWingOpGe
  0001a	ba 06 18 00 00	 mov	 edx, 6150		; 00001806H
  0001f	66 3b c2	 cmp	 ax, dx
  00022	7e 14		 jle	 SHORT $LN3@IsWingOpGe
$LN2@IsWingOpGe:
  00024	ba 1e 1a 00 00	 mov	 edx, 6686		; 00001a1eH
  00029	66 3b c2	 cmp	 ax, dx
  0002c	74 0a		 je	 SHORT $LN3@IsWingOpGe
  0002e	ba 2a 18 00 00	 mov	 edx, 6186		; 0000182aH
  00033	66 3b c2	 cmp	 ax, dx
  00036	75 0f		 jne	 SHORT $LN1@IsWingOpGe
$LN3@IsWingOpGe:

; 3621 : 	{
; 3622 : 		if ( (this->m_NewOption & 4)!= 0 )

  00038	f6 81 97 00 00
	00 04		 test	 BYTE PTR [ecx+151], 4
  0003f	74 06		 je	 SHORT $LN1@IsWingOpGe

; 3623 : 		{
; 3624 : 			return 3;

  00041	b8 03 00 00 00	 mov	 eax, 3

; 3628 : }

  00046	c3		 ret	 0
$LN1@IsWingOpGe:

; 3625 : 		}
; 3626 : 	}
; 3627 : 	return 0;

  00047	33 c0		 xor	 eax, eax

; 3628 : }

  00049	c3		 ret	 0
?IsWingOpGetOnePercentDamage@CItem@@QAEHXZ ENDP		; CItem::IsWingOpGetOnePercentDamage
_TEXT	ENDS
PUBLIC	?IsWingOpGetManaToMoster@CItem@@QAEHXZ		; CItem::IsWingOpGetManaToMoster
; Function compile flags: /Ogtp
;	COMDAT ?IsWingOpGetManaToMoster@CItem@@QAEHXZ
_TEXT	SEGMENT
?IsWingOpGetManaToMoster@CItem@@QAEHXZ PROC		; CItem::IsWingOpGetManaToMoster, COMDAT
; _this$ = ecx

; 3632 : 	if ( this->m_Durability < 1.0f )

  00000	d9 e8		 fld1
  00002	d8 59 24	 fcomp	 DWORD PTR [ecx+36]
  00005	df e0		 fnstsw	 ax
  00007	f6 c4 41	 test	 ah, 65			; 00000041H

; 3633 : 	{
; 3634 : 		return 0;

  0000a	74 3e		 je	 SHORT $LN1@IsWingOpGe@2

; 3635 : 	}
; 3636 : 
; 3637 : 	if ( this->m_Type >= ITEMGET(12,3) && this->m_Type <= ITEMGET(12,6) || this->m_Type == ITEMGET(13,30) || this->m_Type == ITEMGET(12,42) )

  0000c	0f b7 41 06	 movzx	 eax, WORD PTR [ecx+6]
  00010	ba 03 18 00 00	 mov	 edx, 6147		; 00001803H
  00015	66 3b c2	 cmp	 ax, dx
  00018	7c 0a		 jl	 SHORT $LN2@IsWingOpGe@2
  0001a	ba 06 18 00 00	 mov	 edx, 6150		; 00001806H
  0001f	66 3b c2	 cmp	 ax, dx
  00022	7e 14		 jle	 SHORT $LN3@IsWingOpGe@2
$LN2@IsWingOpGe@2:
  00024	ba 1e 1a 00 00	 mov	 edx, 6686		; 00001a1eH
  00029	66 3b c2	 cmp	 ax, dx
  0002c	74 0a		 je	 SHORT $LN3@IsWingOpGe@2
  0002e	ba 2a 18 00 00	 mov	 edx, 6186		; 0000182aH
  00033	66 3b c2	 cmp	 ax, dx
  00036	75 12		 jne	 SHORT $LN1@IsWingOpGe@2
$LN3@IsWingOpGe@2:

; 3638 : 	{
; 3639 : 		if ( (this->m_NewOption & 16 ) == 1 )

  00038	8a 81 97 00 00
	00		 mov	 al, BYTE PTR [ecx+151]
  0003e	24 10		 and	 al, 16			; 00000010H
  00040	3c 01		 cmp	 al, 1
  00042	75 06		 jne	 SHORT $LN1@IsWingOpGe@2

; 3640 : 		{
; 3641 : 			return 10;

  00044	b8 0a 00 00 00	 mov	 eax, 10			; 0000000aH

; 3645 : }

  00049	c3		 ret	 0
$LN1@IsWingOpGe@2:

; 3642 : 		}
; 3643 : 	}
; 3644 : 	return 0;

  0004a	33 c0		 xor	 eax, eax

; 3645 : }

  0004c	c3		 ret	 0
?IsWingOpGetManaToMoster@CItem@@QAEHXZ ENDP		; CItem::IsWingOpGetManaToMoster
_TEXT	ENDS
PUBLIC	?IsDinorantReduceAttackDamaege@CItem@@QAEHXZ	; CItem::IsDinorantReduceAttackDamaege
; Function compile flags: /Ogtp
;	COMDAT ?IsDinorantReduceAttackDamaege@CItem@@QAEHXZ
_TEXT	SEGMENT
?IsDinorantReduceAttackDamaege@CItem@@QAEHXZ PROC	; CItem::IsDinorantReduceAttackDamaege, COMDAT
; _this$ = ecx

; 3649 : 	if ( this->m_Durability  < 1.0f )

  00000	d9 e8		 fld1
  00002	d8 59 24	 fcomp	 DWORD PTR [ecx+36]
  00005	df e0		 fnstsw	 ax
  00007	f6 c4 41	 test	 ah, 65			; 00000041H
  0000a	75 03		 jne	 SHORT $LN2@IsDinorant

; 3650 : 	{
; 3651 : 		return 0;

  0000c	33 c0		 xor	 eax, eax

; 3655 : 	{
; 3656 : 		return 5;
; 3657 : 	}
; 3658 : 	return 0;
; 3659 : }

  0000e	c3		 ret	 0
$LN2@IsDinorant:

; 3652 : 	}
; 3653 : 
; 3654 : 	if ( (this->m_NewOption & 1 ) == 1 )

  0000f	8a 81 97 00 00
	00		 mov	 al, BYTE PTR [ecx+151]
  00015	24 01		 and	 al, 1
  00017	fe c8		 dec	 al
  00019	0f b6 c0	 movzx	 eax, al
  0001c	f7 d8		 neg	 eax
  0001e	1b c0		 sbb	 eax, eax
  00020	83 e0 fb	 and	 eax, -5			; fffffffbH
  00023	83 c0 05	 add	 eax, 5

; 3655 : 	{
; 3656 : 		return 5;
; 3657 : 	}
; 3658 : 	return 0;
; 3659 : }

  00026	c3		 ret	 0
?IsDinorantReduceAttackDamaege@CItem@@QAEHXZ ENDP	; CItem::IsDinorantReduceAttackDamaege
_TEXT	ENDS
PUBLIC	?IsFenrirIncLastAttackDamage@CItem@@QAEHXZ	; CItem::IsFenrirIncLastAttackDamage
; Function compile flags: /Ogtp
;	COMDAT ?IsFenrirIncLastAttackDamage@CItem@@QAEHXZ
_TEXT	SEGMENT
?IsFenrirIncLastAttackDamage@CItem@@QAEHXZ PROC		; CItem::IsFenrirIncLastAttackDamage, COMDAT
; _this$ = ecx

; 3664 : 	if ( this->m_Durability < 1.0f )

  00000	d9 e8		 fld1
  00002	d8 59 24	 fcomp	 DWORD PTR [ecx+36]
  00005	df e0		 fnstsw	 ax
  00007	f6 c4 41	 test	 ah, 65			; 00000041H
  0000a	75 03		 jne	 SHORT $LN2@IsFenrirIn

; 3665 : 	{
; 3666 : 		return 0;

  0000c	33 c0		 xor	 eax, eax

; 3670 : 	{
; 3671 : 		return 10;
; 3672 : 	}
; 3673 : 
; 3674 : 	return 0;
; 3675 : }

  0000e	c3		 ret	 0
$LN2@IsFenrirIn:

; 3667 : 	}
; 3668 : 
; 3669 : 	if ( (this->m_NewOption&1) == 1 )

  0000f	8a 81 97 00 00
	00		 mov	 al, BYTE PTR [ecx+151]
  00015	24 01		 and	 al, 1
  00017	fe c8		 dec	 al
  00019	0f b6 c0	 movzx	 eax, al
  0001c	f7 d8		 neg	 eax
  0001e	1b c0		 sbb	 eax, eax
  00020	83 e0 f6	 and	 eax, -10		; fffffff6H
  00023	83 c0 0a	 add	 eax, 10			; 0000000aH

; 3670 : 	{
; 3671 : 		return 10;
; 3672 : 	}
; 3673 : 
; 3674 : 	return 0;
; 3675 : }

  00026	c3		 ret	 0
?IsFenrirIncLastAttackDamage@CItem@@QAEHXZ ENDP		; CItem::IsFenrirIncLastAttackDamage
_TEXT	ENDS
PUBLIC	?IsFenrirDecLastAttackDamage@CItem@@QAEHXZ	; CItem::IsFenrirDecLastAttackDamage
; Function compile flags: /Ogtp
;	COMDAT ?IsFenrirDecLastAttackDamage@CItem@@QAEHXZ
_TEXT	SEGMENT
?IsFenrirDecLastAttackDamage@CItem@@QAEHXZ PROC		; CItem::IsFenrirDecLastAttackDamage, COMDAT
; _this$ = ecx

; 3679 : 	if ( this->m_Durability < 1.0f )

  00000	d9 e8		 fld1
  00002	d8 59 24	 fcomp	 DWORD PTR [ecx+36]
  00005	df e0		 fnstsw	 ax
  00007	f6 c4 41	 test	 ah, 65			; 00000041H
  0000a	75 03		 jne	 SHORT $LN2@IsFenrirDe

; 3680 : 	{
; 3681 : 		return 0;

  0000c	33 c0		 xor	 eax, eax

; 3685 : 	{
; 3686 : 		return 10;
; 3687 : 	}
; 3688 : 
; 3689 : 	return 0;
; 3690 : }

  0000e	c3		 ret	 0
$LN2@IsFenrirDe:

; 3682 : 	}
; 3683 : 
; 3684 : 	if ( (this->m_NewOption&2) == 2 )

  0000f	8a 81 97 00 00
	00		 mov	 al, BYTE PTR [ecx+151]
  00015	24 02		 and	 al, 2
  00017	33 c9		 xor	 ecx, ecx
  00019	3c 02		 cmp	 al, 2
  0001b	0f 95 c1	 setne	 cl
  0001e	8d 41 ff	 lea	 eax, DWORD PTR [ecx-1]
  00021	83 e0 0a	 and	 eax, 10			; 0000000aH

; 3685 : 	{
; 3686 : 		return 10;
; 3687 : 	}
; 3688 : 
; 3689 : 	return 0;
; 3690 : }

  00024	c3		 ret	 0
?IsFenrirDecLastAttackDamage@CItem@@QAEHXZ ENDP		; CItem::IsFenrirDecLastAttackDamage
_TEXT	ENDS
PUBLIC	?IsFenrirSpecial@CItem@@QAEHXZ			; CItem::IsFenrirSpecial
; Function compile flags: /Ogtp
;	COMDAT ?IsFenrirSpecial@CItem@@QAEHXZ
_TEXT	SEGMENT
?IsFenrirSpecial@CItem@@QAEHXZ PROC			; CItem::IsFenrirSpecial, COMDAT
; _this$ = ecx

; 3694 : 	if ( this->m_Durability < 1.0f )

  00000	d9 e8		 fld1
  00002	d8 59 24	 fcomp	 DWORD PTR [ecx+36]
  00005	df e0		 fnstsw	 ax
  00007	f6 c4 41	 test	 ah, 65			; 00000041H
  0000a	75 03		 jne	 SHORT $LN2@IsFenrirSp

; 3695 : 	{
; 3696 : 		return 0;

  0000c	33 c0		 xor	 eax, eax

; 3700 : 	{
; 3701 : 		return 1;
; 3702 : 	}
; 3703 : 
; 3704 : 	return 0;
; 3705 : }

  0000e	c3		 ret	 0
$LN2@IsFenrirSp:

; 3697 : 	}
; 3698 : 
; 3699 : 	if ( (this->m_NewOption&4) == 4 )

  0000f	8a 81 97 00 00
	00		 mov	 al, BYTE PTR [ecx+151]
  00015	24 04		 and	 al, 4
  00017	33 c9		 xor	 ecx, ecx
  00019	3c 04		 cmp	 al, 4
  0001b	0f 94 c1	 sete	 cl
  0001e	8b c1		 mov	 eax, ecx

; 3700 : 	{
; 3701 : 		return 1;
; 3702 : 	}
; 3703 : 
; 3704 : 	return 0;
; 3705 : }

  00020	c3		 ret	 0
?IsFenrirSpecial@CItem@@QAEHXZ ENDP			; CItem::IsFenrirSpecial
_TEXT	ENDS
PUBLIC	?IsWhiteTiger@CItem@@QAEHXZ			; CItem::IsWhiteTiger
; Function compile flags: /Ogtp
;	COMDAT ?IsWhiteTiger@CItem@@QAEHXZ
_TEXT	SEGMENT
?IsWhiteTiger@CItem@@QAEHXZ PROC			; CItem::IsWhiteTiger, COMDAT
; _this$ = ecx

; 3710 : 	if (this->m_Durability < 1.0f) {

  00000	d9 e8		 fld1
  00002	d8 59 24	 fcomp	 DWORD PTR [ecx+36]
  00005	df e0		 fnstsw	 ax
  00007	f6 c4 41	 test	 ah, 65			; 00000041H
  0000a	75 03		 jne	 SHORT $LN2@IsWhiteTig

; 3711 : 		return 0;

  0000c	33 c0		 xor	 eax, eax

; 3715 : 		return 20;//LeeHenry.Fenrir_DecDamagePercent;
; 3716 : 	}
; 3717 : 	/*else if ((this->m_NewOption & 4) == 4) {
; 3718 : 		if (LeeHenry.Fenrir_FixGold != 0) {
; 3719 : 			return LeeHenry.Fenrir_DecDamagePercent;
; 3720 : 		}
; 3721 : 	}*/
; 3722 : 
; 3723 : 	return 0;
; 3724 : }

  0000e	c3		 ret	 0
$LN2@IsWhiteTig:

; 3712 : 	}
; 3713 : 
; 3714 : 	if ((this->m_NewOption & 8) == 8) {

  0000f	8a 81 97 00 00
	00		 mov	 al, BYTE PTR [ecx+151]
  00015	24 08		 and	 al, 8
  00017	33 c9		 xor	 ecx, ecx
  00019	3c 08		 cmp	 al, 8
  0001b	0f 95 c1	 setne	 cl
  0001e	8d 41 ff	 lea	 eax, DWORD PTR [ecx-1]
  00021	83 e0 14	 and	 eax, 20			; 00000014H

; 3715 : 		return 20;//LeeHenry.Fenrir_DecDamagePercent;
; 3716 : 	}
; 3717 : 	/*else if ((this->m_NewOption & 4) == 4) {
; 3718 : 		if (LeeHenry.Fenrir_FixGold != 0) {
; 3719 : 			return LeeHenry.Fenrir_DecDamagePercent;
; 3720 : 		}
; 3721 : 	}*/
; 3722 : 
; 3723 : 	return 0;
; 3724 : }

  00024	c3		 ret	 0
?IsWhiteTiger@CItem@@QAEHXZ ENDP			; CItem::IsWhiteTiger
_TEXT	ENDS
PUBLIC	?IsHullWolf@CItem@@QAEHXZ			; CItem::IsHullWolf
; Function compile flags: /Ogtp
;	COMDAT ?IsHullWolf@CItem@@QAEHXZ
_TEXT	SEGMENT
?IsHullWolf@CItem@@QAEHXZ PROC				; CItem::IsHullWolf, COMDAT
; _this$ = ecx

; 3728 : 	if (this->m_Durability < 1.0f) {

  00000	d9 e8		 fld1
  00002	d8 59 24	 fcomp	 DWORD PTR [ecx+36]
  00005	df e0		 fnstsw	 ax
  00007	f6 c4 41	 test	 ah, 65			; 00000041H
  0000a	75 03		 jne	 SHORT $LN2@IsHullWolf

; 3729 : 		return 0;

  0000c	33 c0		 xor	 eax, eax

; 3733 : 		return 20;//LeeHenry.Fenrir_DecDamagePercent;
; 3734 : 	}
; 3735 : 	/*else if ((this->m_NewOption & 4) == 4) {
; 3736 : 		if (LeeHenry.Fenrir_FixGold != 0) {
; 3737 : 			return LeeHenry.Fenrir_DecDamagePercent;
; 3738 : 		}
; 3739 : 	}*/
; 3740 : 
; 3741 : 	return 0;
; 3742 : }

  0000e	c3		 ret	 0
$LN2@IsHullWolf:

; 3730 : 	}
; 3731 : 
; 3732 : 	if ((this->m_NewOption & 16) == 16) {

  0000f	8a 81 97 00 00
	00		 mov	 al, BYTE PTR [ecx+151]
  00015	24 10		 and	 al, 16			; 00000010H
  00017	33 c9		 xor	 ecx, ecx
  00019	3c 10		 cmp	 al, 16			; 00000010H
  0001b	0f 95 c1	 setne	 cl
  0001e	8d 41 ff	 lea	 eax, DWORD PTR [ecx-1]
  00021	83 e0 14	 and	 eax, 20			; 00000014H

; 3733 : 		return 20;//LeeHenry.Fenrir_DecDamagePercent;
; 3734 : 	}
; 3735 : 	/*else if ((this->m_NewOption & 4) == 4) {
; 3736 : 		if (LeeHenry.Fenrir_FixGold != 0) {
; 3737 : 			return LeeHenry.Fenrir_DecDamagePercent;
; 3738 : 		}
; 3739 : 	}*/
; 3740 : 
; 3741 : 	return 0;
; 3742 : }

  00024	c3		 ret	 0
?IsHullWolf@CItem@@QAEHXZ ENDP				; CItem::IsHullWolf
_TEXT	ENDS
PUBLIC	?IsBeast@CItem@@QAEHXZ				; CItem::IsBeast
; Function compile flags: /Ogtp
;	COMDAT ?IsBeast@CItem@@QAEHXZ
_TEXT	SEGMENT
?IsBeast@CItem@@QAEHXZ PROC				; CItem::IsBeast, COMDAT
; _this$ = ecx

; 3746 : 	if (this->m_Durability < 1.0f) {

  00000	d9 e8		 fld1
  00002	d8 59 24	 fcomp	 DWORD PTR [ecx+36]
  00005	df e0		 fnstsw	 ax
  00007	f6 c4 41	 test	 ah, 65			; 00000041H
  0000a	75 03		 jne	 SHORT $LN2@IsBeast

; 3747 : 		return 0;

  0000c	33 c0		 xor	 eax, eax

; 3751 : 		return 20;//LeeHenry.Fenrir_DecDamagePercent;
; 3752 : 	}
; 3753 : 	/*else if ((this->m_NewOption & 4) == 4) {
; 3754 : 		if (LeeHenry.Fenrir_FixGold != 0) {
; 3755 : 			return LeeHenry.Fenrir_DecDamagePercent;
; 3756 : 		}
; 3757 : 	}*/
; 3758 : 
; 3759 : 	return 0;
; 3760 : }

  0000e	c3		 ret	 0
$LN2@IsBeast:

; 3748 : 	}
; 3749 : 
; 3750 : 	if ((this->m_NewOption & 32) == 32) {

  0000f	8a 81 97 00 00
	00		 mov	 al, BYTE PTR [ecx+151]
  00015	24 20		 and	 al, 32			; 00000020H
  00017	33 c9		 xor	 ecx, ecx
  00019	3c 20		 cmp	 al, 32			; 00000020H
  0001b	0f 95 c1	 setne	 cl
  0001e	8d 41 ff	 lea	 eax, DWORD PTR [ecx-1]
  00021	83 e0 14	 and	 eax, 20			; 00000014H

; 3751 : 		return 20;//LeeHenry.Fenrir_DecDamagePercent;
; 3752 : 	}
; 3753 : 	/*else if ((this->m_NewOption & 4) == 4) {
; 3754 : 		if (LeeHenry.Fenrir_FixGold != 0) {
; 3755 : 			return LeeHenry.Fenrir_DecDamagePercent;
; 3756 : 		}
; 3757 : 	}*/
; 3758 : 
; 3759 : 	return 0;
; 3760 : }

  00024	c3		 ret	 0
?IsBeast@CItem@@QAEHXZ ENDP				; CItem::IsBeast
_TEXT	ENDS
PUBLIC	?IsThirdWingOpGetOnePercentDamage@CItem@@QAEHXZ	; CItem::IsThirdWingOpGetOnePercentDamage
; Function compile flags: /Ogtp
;	COMDAT ?IsThirdWingOpGetOnePercentDamage@CItem@@QAEHXZ
_TEXT	SEGMENT
?IsThirdWingOpGetOnePercentDamage@CItem@@QAEHXZ PROC	; CItem::IsThirdWingOpGetOnePercentDamage, COMDAT
; _this$ = ecx

; 3765 : 
; 3766 : 	if ( this->m_Type >= ITEMGET(12,36) && this->m_Type <= ITEMGET(12,40) ||
; 3767 : #ifdef NEWWINGS_2_5
; 3768 : 		IS_NEWWINGS_2_5(this->m_Type) ||
; 3769 : #endif
; 3770 : #ifdef NEWWINGS_4
; 3771 : 		IS_NEWWINGS_4(this->m_Type) ||
; 3772 : #endif
; 3773 : #ifdef NEWWINGS_5
; 3774 : 		IS_NEWWINGS_5(this->m_Type) ||
; 3775 : #endif
; 3776 : #ifdef NEWWINGS_6
; 3777 : 		IS_NEWWINGS_6(this->m_Type) ||
; 3778 : #endif
; 3779 : 		this->m_Type == ITEMGET(12,43))	//Custom Wings4

  00000	0f b7 41 06	 movzx	 eax, WORD PTR [ecx+6]
  00004	ba 24 18 00 00	 mov	 edx, 6180		; 00001824H
  00009	53		 push	 ebx
  0000a	66 3b c2	 cmp	 ax, dx
  0000d	7c 0a		 jl	 SHORT $LN4@IsThirdWin
  0000f	ba 28 18 00 00	 mov	 edx, 6184		; 00001828H
  00014	66 3b c2	 cmp	 ax, dx
  00017	7e 7e		 jle	 SHORT $LN5@IsThirdWin
$LN4@IsThirdWin:
  00019	ba ba 18 00 00	 mov	 edx, 6330		; 000018baH
  0001e	66 3b c2	 cmp	 ax, dx
  00021	7c 13		 jl	 SHORT $LN17@IsThirdWin
  00023	33 db		 xor	 ebx, ebx
  00025	ba bc 18 00 00	 mov	 edx, 6332		; 000018bcH
  0002a	66 3b c2	 cmp	 ax, dx
  0002d	0f 9e c3	 setle	 bl
  00030	8b d3		 mov	 edx, ebx
  00032	85 d2		 test	 edx, edx
  00034	75 61		 jne	 SHORT $LN5@IsThirdWin
$LN17@IsThirdWin:
  00036	ba b4 18 00 00	 mov	 edx, 6324		; 000018b4H
  0003b	66 3b c2	 cmp	 ax, dx
  0003e	7c 13		 jl	 SHORT $LN18@IsThirdWin
  00040	33 db		 xor	 ebx, ebx
  00042	ba b9 18 00 00	 mov	 edx, 6329		; 000018b9H
  00047	66 3b c2	 cmp	 ax, dx
  0004a	0f 9e c3	 setle	 bl
  0004d	8b d3		 mov	 edx, ebx
  0004f	85 d2		 test	 edx, edx
  00051	75 44		 jne	 SHORT $LN5@IsThirdWin
$LN18@IsThirdWin:
  00053	ba bd 18 00 00	 mov	 edx, 6333		; 000018bdH
  00058	66 3b c2	 cmp	 ax, dx
  0005b	7c 13		 jl	 SHORT $LN19@IsThirdWin
  0005d	33 db		 xor	 ebx, ebx
  0005f	ba c2 18 00 00	 mov	 edx, 6338		; 000018c2H
  00064	66 3b c2	 cmp	 ax, dx
  00067	0f 9e c3	 setle	 bl
  0006a	8b d3		 mov	 edx, ebx
  0006c	85 d2		 test	 edx, edx
  0006e	75 27		 jne	 SHORT $LN5@IsThirdWin
$LN19@IsThirdWin:
  00070	ba c3 18 00 00	 mov	 edx, 6339		; 000018c3H
  00075	66 3b c2	 cmp	 ax, dx
  00078	7c 13		 jl	 SHORT $LN20@IsThirdWin
  0007a	33 db		 xor	 ebx, ebx
  0007c	ba dc 18 00 00	 mov	 edx, 6364		; 000018dcH
  00081	66 3b c2	 cmp	 ax, dx
  00084	0f 9e c3	 setle	 bl
  00087	8b d3		 mov	 edx, ebx
  00089	85 d2		 test	 edx, edx
  0008b	75 0a		 jne	 SHORT $LN5@IsThirdWin
$LN20@IsThirdWin:
  0008d	ba 2b 18 00 00	 mov	 edx, 6187		; 0000182bH
  00092	66 3b c2	 cmp	 ax, dx
  00095	75 1c		 jne	 SHORT $LN1@IsThirdWin
$LN5@IsThirdWin:

; 3780 : 	
; 3781 : 	{
; 3782 : 		if ( this->m_Durability < 1.0f )

  00097	d9 e8		 fld1
  00099	d8 59 24	 fcomp	 DWORD PTR [ecx+36]
  0009c	df e0		 fnstsw	 ax
  0009e	f6 c4 41	 test	 ah, 65			; 00000041H

; 3783 : 		{
; 3784 : 			return 0;

  000a1	74 10		 je	 SHORT $LN1@IsThirdWin

; 3785 : 		}
; 3786 : 		else if ( (this->m_NewOption&1) == 1 )

  000a3	f6 81 97 00 00
	00 01		 test	 BYTE PTR [ecx+151], 1
  000aa	74 07		 je	 SHORT $LN1@IsThirdWin

; 3787 : 		{
; 3788 : 			return 5;

  000ac	b8 05 00 00 00	 mov	 eax, 5
  000b1	5b		 pop	 ebx

; 3793 : }

  000b2	c3		 ret	 0
$LN1@IsThirdWin:

; 3789 : 		}
; 3790 : 	}
; 3791 : 
; 3792 : 	return 0;

  000b3	33 c0		 xor	 eax, eax
  000b5	5b		 pop	 ebx

; 3793 : }

  000b6	c3		 ret	 0
?IsThirdWingOpGetOnePercentDamage@CItem@@QAEHXZ ENDP	; CItem::IsThirdWingOpGetOnePercentDamage
_TEXT	ENDS
PUBLIC	?SearchEmptySocketSlot@CItem@@QAEEXZ		; CItem::SearchEmptySocketSlot
; Function compile flags: /Ogtp
;	COMDAT ?SearchEmptySocketSlot@CItem@@QAEEXZ
_TEXT	SEGMENT
?SearchEmptySocketSlot@CItem@@QAEEXZ PROC		; CItem::SearchEmptySocketSlot, COMDAT
; _this$ = ecx

; 4312 : 	for (int i = 0; i < 5; i++)

  00000	33 c0		 xor	 eax, eax
  00002	b2 fe		 mov	 dl, 254			; 000000feH
$LL4@SearchEmpt:

; 4313 : 	{
; 4314 : 		if(this->m_SocketOption[i] == 0xFE)

  00004	38 94 01 cc 00
	00 00		 cmp	 BYTE PTR [ecx+eax+204], dl
  0000b	74 09		 je	 SHORT $LN8@SearchEmpt

; 4312 : 	for (int i = 0; i < 5; i++)

  0000d	40		 inc	 eax
  0000e	83 f8 05	 cmp	 eax, 5
  00011	7c f1		 jl	 SHORT $LL4@SearchEmpt

; 4317 : 		}
; 4318 : 	}
; 4319 : 	return 0;

  00013	32 c0		 xor	 al, al

; 4320 : }

  00015	c3		 ret	 0
$LN8@SearchEmpt:

; 4315 : 		{
; 4316 : 			return 1;

  00016	b0 01		 mov	 al, 1

; 4320 : }

  00018	c3		 ret	 0
?SearchEmptySocketSlot@CItem@@QAEEXZ ENDP		; CItem::SearchEmptySocketSlot
_TEXT	ENDS
PUBLIC	?SetSocketOptionSlot@CItem@@QAEEEEE@Z		; CItem::SetSocketOptionSlot
; Function compile flags: /Ogtp
;	COMDAT ?SetSocketOptionSlot@CItem@@QAEEEEE@Z
_TEXT	SEGMENT
_SocketSlot$ = 8					; size = 1
_arg2$ = 12						; size = 1
_arg3$ = 16						; size = 1
?SetSocketOptionSlot@CItem@@QAEEEEE@Z PROC		; CItem::SetSocketOptionSlot, COMDAT
; _this$ = ecx

; 4324 : {

  00000	55		 push	 ebp
  00001	8b ec		 mov	 ebp, esp

; 4325 : 	BYTE loc2 = 0;
; 4326 : 
; 4327 : 	if( SocketSlot < 0 || SocketSlot >= 5)

  00003	8a 45 08	 mov	 al, BYTE PTR _SocketSlot$[ebp]
  00006	3c 05		 cmp	 al, 5
  00008	73 26		 jae	 SHORT $LN2@SetSocketO

; 4333 : 
; 4334 : 	if( this->m_SocketOption[SocketSlot] != 0xFF &&
; 4335 : 		this->m_SocketOption[SocketSlot] == 0xFE)

  0000a	0f b6 c0	 movzx	 eax, al
  0000d	8d 8c 08 cc 00
	00 00		 lea	 ecx, DWORD PTR [eax+ecx+204]
  00014	8a 01		 mov	 al, BYTE PTR [ecx]
  00016	3c ff		 cmp	 al, 255			; 000000ffH
  00018	74 16		 je	 SHORT $LN2@SetSocketO
  0001a	3c fe		 cmp	 al, 254			; 000000feH
  0001c	75 12		 jne	 SHORT $LN2@SetSocketO

; 4330 : 	}
; 4331 : 
; 4332 : 	loc2 = arg3 * 50 + arg2;

  0001e	8a 45 10	 mov	 al, BYTE PTR _arg3$[ebp]
  00021	b2 32		 mov	 dl, 50			; 00000032H
  00023	f6 ea		 imul	 dl
  00025	02 45 0c	 add	 al, BYTE PTR _arg2$[ebp]

; 4336 : 	{
; 4337 : 		this->m_SocketOption[SocketSlot] = loc2;

  00028	88 01		 mov	 BYTE PTR [ecx], al

; 4338 : 		return 1;

  0002a	b0 01		 mov	 al, 1

; 4339 : 	}
; 4340 : 
; 4341 : 	return 0;
; 4342 : }

  0002c	5d		 pop	 ebp
  0002d	c2 0c 00	 ret	 12			; 0000000cH
$LN2@SetSocketO:

; 4328 : 	{
; 4329 : 		return 0;

  00030	32 c0		 xor	 al, al

; 4339 : 	}
; 4340 : 
; 4341 : 	return 0;
; 4342 : }

  00032	5d		 pop	 ebp
  00033	c2 0c 00	 ret	 12			; 0000000cH
?SetSocketOptionSlot@CItem@@QAEEEEE@Z ENDP		; CItem::SetSocketOptionSlot
_TEXT	ENDS
PUBLIC	?DeleteSocketOptionSlot@CItem@@QAEEE@Z		; CItem::DeleteSocketOptionSlot
; Function compile flags: /Ogtp
;	COMDAT ?DeleteSocketOptionSlot@CItem@@QAEEE@Z
_TEXT	SEGMENT
_SocketSlot$ = 8					; size = 1
?DeleteSocketOptionSlot@CItem@@QAEEE@Z PROC		; CItem::DeleteSocketOptionSlot, COMDAT
; _this$ = ecx

; 4346 : {

  00000	55		 push	 ebp
  00001	8b ec		 mov	 ebp, esp

; 4347 : 	if( SocketSlot <= 0 || SocketSlot >= 5)

  00003	8a 45 08	 mov	 al, BYTE PTR _SocketSlot$[ebp]
  00006	8d 50 ff	 lea	 edx, DWORD PTR [eax-1]
  00009	80 fa 03	 cmp	 dl, 3
  0000c	77 1f		 ja	 SHORT $LN2@DeleteSock

; 4350 : 	}
; 4351 : 
; 4352 : 	if( this->m_SocketOption[SocketSlot] != 0xFF &&
; 4353 : 		this->m_SocketOption[SocketSlot] != 0xFE)

  0000e	0f b6 c0	 movzx	 eax, al
  00011	8d 84 08 cc 00
	00 00		 lea	 eax, DWORD PTR [eax+ecx+204]
  00018	8a 08		 mov	 cl, BYTE PTR [eax]
  0001a	80 f9 ff	 cmp	 cl, 255			; 000000ffH
  0001d	74 0e		 je	 SHORT $LN2@DeleteSock
  0001f	80 f9 fe	 cmp	 cl, 254			; 000000feH
  00022	74 09		 je	 SHORT $LN2@DeleteSock

; 4354 : 	{
; 4355 : 		this->m_SocketOption[SocketSlot] = 0xFE;

  00024	c6 00 fe	 mov	 BYTE PTR [eax], 254	; 000000feH

; 4356 : 		return 1;

  00027	b0 01		 mov	 al, 1

; 4357 : 	}
; 4358 : 
; 4359 : 	return 0;
; 4360 : }

  00029	5d		 pop	 ebp
  0002a	c2 04 00	 ret	 4
$LN2@DeleteSock:

; 4348 : 	{
; 4349 : 		return 0;

  0002d	32 c0		 xor	 al, al

; 4357 : 	}
; 4358 : 
; 4359 : 	return 0;
; 4360 : }

  0002f	5d		 pop	 ebp
  00030	c2 04 00	 ret	 4
?DeleteSocketOptionSlot@CItem@@QAEEE@Z ENDP		; CItem::DeleteSocketOptionSlot
_TEXT	ENDS
PUBLIC	?ClearSocketOption@CItem@@QAEXE@Z		; CItem::ClearSocketOption
EXTRN	?IsActive@CSocketOption@@QAEEPAVCItem@@@Z:PROC	; CSocketOption::IsActive
EXTRN	?g_SocketOption@@3VCSocketOption@@A:BYTE	; g_SocketOption
EXTRN	_memset:PROC
; Function compile flags: /Ogtp
;	COMDAT ?ClearSocketOption@CItem@@QAEXE@Z
_TEXT	SEGMENT
_btSocketSlotCount$ = 8					; size = 1
?ClearSocketOption@CItem@@QAEXE@Z PROC			; CItem::ClearSocketOption, COMDAT
; _this$ = ecx

; 4364 : {

  00000	55		 push	 ebp
  00001	8b ec		 mov	 ebp, esp
  00003	56		 push	 esi
  00004	8b f1		 mov	 esi, ecx

; 4365 : 	if(g_SocketOption.IsActive(this) == FALSE)

  00006	56		 push	 esi
  00007	b9 00 00 00 00	 mov	 ecx, OFFSET ?g_SocketOption@@3VCSocketOption@@A ; g_SocketOption
  0000c	e8 00 00 00 00	 call	 ?IsActive@CSocketOption@@QAEEPAVCItem@@@Z ; CSocketOption::IsActive
  00011	84 c0		 test	 al, al
  00013	74 24		 je	 SHORT $LN5@ClearSocke

; 4366 : 	{
; 4367 : 		return;
; 4368 : 	}
; 4369 : 
; 4370 : 	for(int i = 0;i< btSocketSlotCount;i++)

  00015	0f b6 4d 08	 movzx	 ecx, BYTE PTR _btSocketSlotCount$[ebp]
  00019	85 c9		 test	 ecx, ecx
  0001b	7e 15		 jle	 SHORT $LN3@ClearSocke
  0001d	51		 push	 ecx
  0001e	8d 86 cc 00 00
	00		 lea	 eax, DWORD PTR [esi+204]
  00024	68 fe 00 00 00	 push	 254			; 000000feH
  00029	50		 push	 eax
  0002a	e8 00 00 00 00	 call	 _memset
  0002f	83 c4 0c	 add	 esp, 12			; 0000000cH
$LN3@ClearSocke:

; 4371 : 	{
; 4372 : 		this->m_SocketOption[i] = 0xFE;
; 4373 : 	}
; 4374 : 
; 4375 : 	this->m_SocketOptionIndex = 0xFF;

  00032	c6 86 cb 00 00
	00 ff		 mov	 BYTE PTR [esi+203], 255	; 000000ffH
$LN5@ClearSocke:
  00039	5e		 pop	 esi

; 4376 : }

  0003a	5d		 pop	 ebp
  0003b	c2 04 00	 ret	 4
?ClearSocketOption@CItem@@QAEXE@Z ENDP			; CItem::ClearSocketOption
_TEXT	ENDS
PUBLIC	?IsPeriodItem@CItem@@QAE_NXZ			; CItem::IsPeriodItem
; Function compile flags: /Ogtp
;	COMDAT ?IsPeriodItem@CItem@@QAE_NXZ
_TEXT	SEGMENT
?IsPeriodItem@CItem@@QAE_NXZ PROC			; CItem::IsPeriodItem, COMDAT
; _this$ = ecx

; 4381 : #ifdef DEBUG_CODE
; 4382 : 	LogAddC(2,"m_PeriodItemOption: %d",m_PeriodItemOption);
; 4383 : #endif
; 4384 : 	return ((this->m_PeriodItemOption & 1) == 1);

  00000	8a 81 d2 00 00
	00		 mov	 al, BYTE PTR [ecx+210]
  00006	24 01		 and	 al, 1
  00008	33 c9		 xor	 ecx, ecx
  0000a	3c 01		 cmp	 al, 1
  0000c	0f 94 c0	 sete	 al

; 4385 : }

  0000f	c3		 ret	 0
?IsPeriodItem@CItem@@QAE_NXZ ENDP			; CItem::IsPeriodItem
_TEXT	ENDS
PUBLIC	?IsPeriodItemZtpire@CItem@@QAE_NXZ		; CItem::IsPeriodItemZtpire
; Function compile flags: /Ogtp
;	COMDAT ?IsPeriodItemZtpire@CItem@@QAE_NXZ
_TEXT	SEGMENT
?IsPeriodItemZtpire@CItem@@QAE_NXZ PROC			; CItem::IsPeriodItemZtpire, COMDAT
; _this$ = ecx

; 4390 : 	return ((this->m_PeriodItemOption & 2) == 2);

  00000	8a 81 d2 00 00
	00		 mov	 al, BYTE PTR [ecx+210]
  00006	24 02		 and	 al, 2
  00008	33 c9		 xor	 ecx, ecx
  0000a	3c 02		 cmp	 al, 2
  0000c	0f 94 c0	 sete	 al

; 4391 : }

  0000f	c3		 ret	 0
?IsPeriodItemZtpire@CItem@@QAE_NXZ ENDP			; CItem::IsPeriodItemZtpire
_TEXT	ENDS
PUBLIC	?SetPeriodItem@CItem@@QAEXXZ			; CItem::SetPeriodItem
; Function compile flags: /Ogtp
;	COMDAT ?SetPeriodItem@CItem@@QAEXXZ
_TEXT	SEGMENT
?SetPeriodItem@CItem@@QAEXXZ PROC			; CItem::SetPeriodItem, COMDAT
; _this$ = ecx

; 4396 : 	this->m_PeriodItemOption = 1;

  00000	c6 81 d2 00 00
	00 01		 mov	 BYTE PTR [ecx+210], 1

; 4397 : }

  00007	c3		 ret	 0
?SetPeriodItem@CItem@@QAEXXZ ENDP			; CItem::SetPeriodItem
_TEXT	ENDS
PUBLIC	?SetPeriodItemZtpire@CItem@@QAEXXZ		; CItem::SetPeriodItemZtpire
; Function compile flags: /Ogtp
;	COMDAT ?SetPeriodItemZtpire@CItem@@QAEXXZ
_TEXT	SEGMENT
?SetPeriodItemZtpire@CItem@@QAEXXZ PROC			; CItem::SetPeriodItemZtpire, COMDAT
; _this$ = ecx

; 4402 : 	this->m_PeriodItemOption |= 2;
; 4403 : 	this->m_Durability = 0;

  00000	d9 ee		 fldz
  00002	80 89 d2 00 00
	00 02		 or	 BYTE PTR [ecx+210], 2
  00009	d9 59 24	 fstp	 DWORD PTR [ecx+36]

; 4404 : }

  0000c	c3		 ret	 0
?SetPeriodItemZtpire@CItem@@QAEXXZ ENDP			; CItem::SetPeriodItemZtpire
_TEXT	ENDS
PUBLIC	?GetSlot@CItem@@QAEEXZ				; CItem::GetSlot
; Function compile flags: /Ogtp
;	COMDAT ?GetSlot@CItem@@QAEEXZ
_TEXT	SEGMENT
?GetSlot@CItem@@QAEEXZ PROC				; CItem::GetSlot, COMDAT
; _this$ = ecx

; 4462 : 	return ItemAttribute[this->m_Type].ItemSlot;

  00000	0f bf 41 06	 movsx	 eax, WORD PTR [ecx+6]
  00004	6b c0 70	 imul	 eax, 112		; 00000070H
  00007	8a 80 64 00 00
	00		 mov	 al, BYTE PTR ?ItemAttribute@@3PAUITEM_ATTRIBUTE@@A[eax+100]

; 4463 : }

  0000d	c3		 ret	 0
?GetSlot@CItem@@QAEEXZ ENDP				; CItem::GetSlot
_TEXT	ENDS
PUBLIC	?BufferItemtoConvert3@@YAXPAEAAHAAE2222@Z	; BufferItemtoConvert3
; Function compile flags: /Ogtp
;	COMDAT ?BufferItemtoConvert3@@YAXPAEAAHAAE2222@Z
_TEXT	SEGMENT
_buf$ = 8						; size = 4
_type$ = 12						; size = 4
_level$ = 16						; size = 4
_op1$ = 20						; size = 4
_op2$ = 24						; size = 4
_op3$ = 28						; size = 4
_dur$ = 32						; size = 4
?BufferItemtoConvert3@@YAXPAEAAHAAE2222@Z PROC		; BufferItemtoConvert3, COMDAT

; 4466 : {

  00000	55		 push	 ebp
  00001	8b ec		 mov	 ebp, esp

; 4472 : 	dur = buf[2];

  00003	56		 push	 esi

; 4467 : 	type = buf[0] + ((buf[3]&0x80)*2)+((buf[5]&0xF0)<<5);

  00004	8b 45 08	 mov	 eax, DWORD PTR _buf$[ebp]
  00007	0f b6 48 05	 movzx	 ecx, BYTE PTR [eax+5]
  0000b	0f b6 50 03	 movzx	 edx, BYTE PTR [eax+3]
  0000f	81 e1 f0 00 00
	00		 and	 ecx, 240		; 000000f0H
  00015	c1 e1 04	 shl	 ecx, 4
  00018	81 e2 80 00 00
	00		 and	 edx, 128		; 00000080H
  0001e	03 ca		 add	 ecx, edx
  00020	0f b6 10	 movzx	 edx, BYTE PTR [eax]
  00023	8d 0c 4a	 lea	 ecx, DWORD PTR [edx+ecx*2]
  00026	8b 55 0c	 mov	 edx, DWORD PTR _type$[ebp]
  00029	89 0a		 mov	 DWORD PTR [edx], ecx

; 4468 : 	level = (buf[1]>>3) & 15;

  0002b	0f b6 48 01	 movzx	 ecx, BYTE PTR [eax+1]
  0002f	8b 55 10	 mov	 edx, DWORD PTR _level$[ebp]
  00032	c0 e9 03	 shr	 cl, 3
  00035	80 e1 0f	 and	 cl, 15			; 0000000fH
  00038	88 0a		 mov	 BYTE PTR [edx], cl

; 4469 : 	op1 = (buf[1]>>7) & 1;

  0003a	0f b6 48 01	 movzx	 ecx, BYTE PTR [eax+1]
  0003e	8b 55 14	 mov	 edx, DWORD PTR _op1$[ebp]
  00041	c0 e9 07	 shr	 cl, 7
  00044	88 0a		 mov	 BYTE PTR [edx], cl

; 4470 : 	op2 = (buf[1]>>2) & 1;

  00046	0f b6 48 01	 movzx	 ecx, BYTE PTR [eax+1]
  0004a	8b 55 18	 mov	 edx, DWORD PTR _op2$[ebp]
  0004d	c0 e9 02	 shr	 cl, 2
  00050	80 e1 01	 and	 cl, 1
  00053	88 0a		 mov	 BYTE PTR [edx], cl

; 4471 : 	op3 = (buf[1] & 3 );

  00055	0f b6 50 01	 movzx	 edx, BYTE PTR [eax+1]
  00059	8b 4d 1c	 mov	 ecx, DWORD PTR _op3$[ebp]
  0005c	80 e2 03	 and	 dl, 3
  0005f	88 11		 mov	 BYTE PTR [ecx], dl

; 4472 : 	dur = buf[2];

  00061	0f b6 50 02	 movzx	 edx, BYTE PTR [eax+2]
  00065	8b 75 20	 mov	 esi, DWORD PTR _dur$[ebp]
  00068	88 16		 mov	 BYTE PTR [esi], dl

; 4473 : 
; 4474 : 	//if ( type == ITEMGET(13, 3) ) // Dinorant
; 4475 : 	//{
; 4476 : 		op3 |= (buf[3] & 0x40) >> 4;

  0006a	8a 40 03	 mov	 al, BYTE PTR [eax+3]
  0006d	c0 e8 04	 shr	 al, 4
  00070	24 04		 and	 al, 4
  00072	08 01		 or	 BYTE PTR [ecx], al
  00074	5e		 pop	 esi

; 4477 : 	//}
; 4478 : 	//else
; 4479 : 	//{
; 4480 : 	//	if ( (buf[3] & 0x40) == 0x40 )
; 4481 : 	//	{
; 4482 : 	//		op3 = 4;
; 4483 : 	//	}
; 4484 : 	//}
; 4485 : }

  00075	5d		 pop	 ebp
  00076	c3		 ret	 0
?BufferItemtoConvert3@@YAXPAEAAHAAE2222@Z ENDP		; BufferItemtoConvert3
_TEXT	ENDS
PUBLIC	?ItemByteConvert7@@YAXPAEQAVCItem@@H@Z		; ItemByteConvert7
; Function compile flags: /Ogtp
;	COMDAT ?ItemByteConvert7@@YAXPAEQAVCItem@@H@Z
_TEXT	SEGMENT
tv591 = -4						; size = 4
tv589 = -4						; size = 4
_buf$ = 8						; size = 4
_item$ = 12						; size = 4
_maxitem$ = 16						; size = 4
tv594 = 18						; size = 2
?ItemByteConvert7@@YAXPAEQAVCItem@@H@Z PROC		; ItemByteConvert7, COMDAT

; 4488 : {

  00000	55		 push	 ebp
  00001	8b ec		 mov	 ebp, esp
  00003	51		 push	 ecx
  00004	57		 push	 edi

; 4490 : 	WORD hiWord;
; 4491 : 	WORD loWord;
; 4492 : 
; 4493 : 	for ( int index = 0; index < maxitem ; index++ )

  00005	8b 7d 10	 mov	 edi, DWORD PTR _maxitem$[ebp]
  00008	85 ff		 test	 edi, edi
  0000a	0f 8e a6 00 00
	00		 jle	 $LN1@ItemByteCo

; 4489 : 	int n = 0;

  00010	8b 4d 08	 mov	 ecx, DWORD PTR _buf$[ebp]
  00013	53		 push	 ebx
  00014	56		 push	 esi
  00015	8b 75 0c	 mov	 esi, DWORD PTR _item$[ebp]
  00018	83 c6 08	 add	 esi, 8
  0001b	eb 03 8d 49 00	 npad	 5
$LL8@ItemByteCo:

; 4494 : 	{
; 4495 : 		buf[n] = item[index].m_Type;

  00020	0f b6 46 fe	 movzx	 eax, BYTE PTR [esi-2]

; 4496 : 		n++;
; 4497 : 		buf[n] = 0;
; 4498 : 		buf[n] |= item[index].m_Level * 8;
; 4499 : 		buf[n] |= item[index].m_Option1 * 128;
; 4500 : 		buf[n] |= item[index].m_Option2 * 4;
; 4501 : 		buf[n] |= item[index].m_Option3;
; 4502 : 		n++;
; 4503 : 		buf[n] = (BYTE)item[index].m_Durability;

  00024	d9 7d 12	 fnstcw	 WORD PTR tv594[ebp]
  00027	88 01		 mov	 BYTE PTR [ecx], al
  00029	c6 41 01 00	 mov	 BYTE PTR [ecx+1], 0
  0002d	8a 16		 mov	 dl, BYTE PTR [esi]
  0002f	02 d2		 add	 dl, dl
  00031	02 d2		 add	 dl, dl
  00033	02 d2		 add	 dl, dl
  00035	88 51 01	 mov	 BYTE PTR [ecx+1], dl
  00038	8a 86 8c 00 00
	00		 mov	 al, BYTE PTR [esi+140]
  0003e	c0 e0 07	 shl	 al, 7
  00041	0a c2		 or	 al, dl
  00043	88 41 01	 mov	 BYTE PTR [ecx+1], al
  00046	8a 96 8d 00 00
	00		 mov	 dl, BYTE PTR [esi+141]
  0004c	02 d2		 add	 dl, dl
  0004e	02 d2		 add	 dl, dl
  00050	0a d0		 or	 dl, al
  00052	88 51 01	 mov	 BYTE PTR [ecx+1], dl
  00055	0f b6 86 8e 00
	00 00		 movzx	 eax, BYTE PTR [esi+142]
  0005c	0a c2		 or	 al, dl
  0005e	88 41 01	 mov	 BYTE PTR [ecx+1], al
  00061	0f b7 45 12	 movzx	 eax, WORD PTR tv594[ebp]
  00065	d9 46 1c	 fld	 DWORD PTR [esi+28]
  00068	0d 00 0c 00 00	 or	 eax, 3072		; 00000c00H
  0006d	89 45 fc	 mov	 DWORD PTR tv591[ebp], eax

; 4504 : 		n++;
; 4505 : 		hiWord = item[index].m_Number >> 16;
; 4506 : 		loWord = item[index].m_Number & 0xFFFF;
; 4507 : 		buf[n] = SET_NUMBERH(hiWord);
; 4508 : 		n++;
; 4509 : 		buf[n] = SET_NUMBERL(hiWord);
; 4510 : 		n++;
; 4511 : 		buf[n] = SET_NUMBERH(loWord);
; 4512 : 		n++;
; 4513 : 		buf[n] = SET_NUMBERL(loWord);
; 4514 : 		n++;

  00070	83 c1 07	 add	 ecx, 7
  00073	81 c6 d4 00 00
	00		 add	 esi, 212		; 000000d4H
  00079	d9 6d fc	 fldcw	 WORD PTR tv591[ebp]
  0007c	db 5d fc	 fistp	 DWORD PTR tv589[ebp]
  0007f	0f b6 55 fc	 movzx	 edx, BYTE PTR tv589[ebp]
  00083	88 51 fb	 mov	 BYTE PTR [ecx-5], dl
  00086	0f b7 86 26 ff
	ff ff		 movzx	 eax, WORD PTR [esi-218]
  0008d	d9 6d 12	 fldcw	 WORD PTR tv594[ebp]
  00090	0f b7 96 24 ff
	ff ff		 movzx	 edx, WORD PTR [esi-220]
  00097	8b d8		 mov	 ebx, eax
  00099	c1 eb 08	 shr	 ebx, 8
  0009c	88 59 fc	 mov	 BYTE PTR [ecx-4], bl
  0009f	88 41 fd	 mov	 BYTE PTR [ecx-3], al
  000a2	8b c2		 mov	 eax, edx
  000a4	c1 e8 08	 shr	 eax, 8
  000a7	4f		 dec	 edi
  000a8	88 41 fe	 mov	 BYTE PTR [ecx-2], al
  000ab	88 51 ff	 mov	 BYTE PTR [ecx-1], dl
  000ae	0f 85 6c ff ff
	ff		 jne	 $LL8@ItemByteCo
  000b4	5e		 pop	 esi
  000b5	5b		 pop	 ebx
$LN1@ItemByteCo:
  000b6	5f		 pop	 edi

; 4515 : 	}
; 4516 : }

  000b7	8b e5		 mov	 esp, ebp
  000b9	5d		 pop	 ebp
  000ba	c3		 ret	 0
?ItemByteConvert7@@YAXPAEQAVCItem@@H@Z ENDP		; ItemByteConvert7
_TEXT	ENDS
PUBLIC	?ItemByteConvert10@@YAXPAEQAVCItem@@H@Z		; ItemByteConvert10
; Function compile flags: /Ogtp
;	COMDAT ?ItemByteConvert10@@YAXPAEQAVCItem@@H@Z
_TEXT	SEGMENT
tv918 = -8						; size = 4
tv916 = -8						; size = 4
tv232 = -4						; size = 4
_buf$ = 8						; size = 4
_item$ = 12						; size = 4
_maxitem$ = 16						; size = 4
tv922 = 18						; size = 2
?ItemByteConvert10@@YAXPAEQAVCItem@@H@Z PROC		; ItemByteConvert10, COMDAT

; 4519 : {

  00000	55		 push	 ebp
  00001	8b ec		 mov	 ebp, esp

; 4521 : 	WORD hiWord;
; 4522 : 	WORD loWord;
; 4523 : 	int index;
; 4524 : 
; 4525 : 	for (index = 0; index < maxitem ; index++ )

  00003	8b 45 10	 mov	 eax, DWORD PTR _maxitem$[ebp]
  00006	83 ec 08	 sub	 esp, 8
  00009	33 c9		 xor	 ecx, ecx
  0000b	85 c0		 test	 eax, eax
  0000d	0f 8e 50 01 00
	00		 jle	 $LN7@ItemByteCo@2

; 4520 : 	int n = 0;

  00013	53		 push	 ebx
  00014	56		 push	 esi
  00015	8b 75 08	 mov	 esi, DWORD PTR _buf$[ebp]
  00018	57		 push	 edi
  00019	8b 7d 0c	 mov	 edi, DWORD PTR _item$[ebp]
  0001c	89 45 fc	 mov	 DWORD PTR tv232[ebp], eax
  0001f	83 c7 08	 add	 edi, 8
  00022	b8 ff 00 00 00	 mov	 eax, 255		; 000000ffH
  00027	eb 07 8d a4 24
	00 00 00 00	 npad	 9
$LL9@ItemByteCo@2:

; 4526 : 	{
; 4527 : 		if ( item[index].m_Type == ITEMGET(13,19) )

  00030	0f b7 57 fe	 movzx	 edx, WORD PTR [edi-2]
  00034	bb 13 1a 00 00	 mov	 ebx, 6675		; 00001a13H
  00039	66 3b d3	 cmp	 dx, bx
  0003c	75 35		 jne	 SHORT $LN16@ItemByteCo@2

; 4528 : 		{
; 4529 : 			if ( (item[index].m_Level < 0)? FALSE : ( item[index].m_Level > 2)? FALSE : TRUE  )

  0003e	0f b7 17	 movzx	 edx, WORD PTR [edi]
  00041	66 85 d2	 test	 dx, dx
  00044	78 2d		 js	 SHORT $LN16@ItemByteCo@2
  00046	33 db		 xor	 ebx, ebx
  00048	66 83 fa 02	 cmp	 dx, 2
  0004c	0f 9e c3	 setle	 bl
  0004f	8b d3		 mov	 edx, ebx
  00051	85 d2		 test	 edx, edx
  00053	74 1e		 je	 SHORT $LN16@ItemByteCo@2
$LN18@ItemByteCo@2:

; 4530 : 			{
; 4531 : 				buf[n] = -1;

  00055	c7 04 31 ff ff
	ff ff		 mov	 DWORD PTR [ecx+esi], -1

; 4532 : 				buf[n+1] = -1;
; 4533 : 				buf[n+2] = -1;
; 4534 : 				buf[n+3] = -1;
; 4535 : 				buf[n+4] = -1;

  0005c	c7 44 31 04 ff
	ff ff ff	 mov	 DWORD PTR [ecx+esi+4], -1

; 4536 : 				buf[n+5] = -1;
; 4537 : 				buf[n+6] = -1;
; 4538 : 				buf[n+7] = -1;
; 4539 : 				buf[n+8] = -1;

  00064	66 c7 44 31 08
	ff ff		 mov	 WORD PTR [ecx+esi+8], 65535 ; 0000ffffH

; 4540 : 				buf[n+9] = -1;
; 4541 : 				n += 16;

  0006b	83 c1 10	 add	 ecx, 16			; 00000010H

; 4542 : 				continue;

  0006e	e9 de 00 00 00	 jmp	 $LN8@ItemByteCo@2
$LN16@ItemByteCo@2:

; 4543 : 			}
; 4544 : 		}
; 4545 : 		
; 4546 : 		if ( item[index].m_Type <  0 )

  00073	0f b7 57 fe	 movzx	 edx, WORD PTR [edi-2]
  00077	66 85 d2	 test	 dx, dx

; 4547 : 		{
; 4548 : 			buf[n] = -1;
; 4549 : 			buf[n+1] = -1;
; 4550 : 			buf[n+2] = -1;
; 4551 : 			buf[n+3] = -1;
; 4552 : 			buf[n+4] = -1;
; 4553 : 			buf[n+5] = -1;
; 4554 : 			buf[n+6] = -1;
; 4555 : 			buf[n+7] = -1;
; 4556 : 			buf[n+8] = -1;
; 4557 : 			buf[n+9] = -1;
; 4558 : 			n += 16;
; 4559 : 		}
; 4560 : 		else

  0007a	78 d9		 js	 SHORT $LN18@ItemByteCo@2

; 4561 : 		{
; 4562 : 			buf[n] = (BYTE)item[index].m_Type % 256 ;

  0007c	0f b6 47 fe	 movzx	 eax, BYTE PTR [edi-2]
  00080	25 ff 00 00 80	 and	 eax, -2147483393	; 800000ffH
  00085	79 07		 jns	 SHORT $LN17@ItemByteCo@2
  00087	48		 dec	 eax
  00088	0d 00 ff ff ff	 or	 eax, -256		; ffffff00H
  0008d	40		 inc	 eax
$LN17@ItemByteCo@2:
  0008e	88 04 31	 mov	 BYTE PTR [ecx+esi], al

; 4563 : 			n++;
; 4564 : 			buf[n] = 0;
; 4565 : 			buf[n] |= item[index].m_Level * 8;
; 4566 : 			buf[n] |= item[index].m_Option1 * 128;
; 4567 : 			buf[n] |= item[index].m_Option2 * 4;
; 4568 : 			buf[n] |= item[index].m_Option3 & 3;
; 4569 : 			n++;
; 4570 : 			buf[n] = (BYTE)item[index].m_Durability;

  00091	d9 7d 12	 fnstcw	 WORD PTR tv922[ebp]
  00094	c6 44 31 01 00	 mov	 BYTE PTR [ecx+esi+1], 0
  00099	8a 17		 mov	 dl, BYTE PTR [edi]
  0009b	02 d2		 add	 dl, dl
  0009d	02 d2		 add	 dl, dl
  0009f	02 d2		 add	 dl, dl
  000a1	88 54 31 01	 mov	 BYTE PTR [ecx+esi+1], dl
  000a5	8a 87 8c 00 00
	00		 mov	 al, BYTE PTR [edi+140]
  000ab	c0 e0 07	 shl	 al, 7
  000ae	0a c2		 or	 al, dl
  000b0	88 44 31 01	 mov	 BYTE PTR [ecx+esi+1], al
  000b4	8a 97 8d 00 00
	00		 mov	 dl, BYTE PTR [edi+141]
  000ba	02 d2		 add	 dl, dl
  000bc	02 d2		 add	 dl, dl
  000be	0a d0		 or	 dl, al
  000c0	88 54 31 01	 mov	 BYTE PTR [ecx+esi+1], dl
  000c4	0f b6 87 8e 00
	00 00		 movzx	 eax, BYTE PTR [edi+142]
  000cb	24 03		 and	 al, 3
  000cd	0a c2		 or	 al, dl
  000cf	88 44 31 01	 mov	 BYTE PTR [ecx+esi+1], al
  000d3	0f b7 45 12	 movzx	 eax, WORD PTR tv922[ebp]
  000d7	d9 47 1c	 fld	 DWORD PTR [edi+28]
  000da	0d 00 0c 00 00	 or	 eax, 3072		; 00000c00H
  000df	89 45 f8	 mov	 DWORD PTR tv918[ebp], eax
  000e2	d9 6d f8	 fldcw	 WORD PTR tv918[ebp]
  000e5	db 5d f8	 fistp	 DWORD PTR tv916[ebp]
  000e8	0f b6 55 f8	 movzx	 edx, BYTE PTR tv916[ebp]
  000ec	88 54 31 02	 mov	 BYTE PTR [ecx+esi+2], dl

; 4571 : 			n++;
; 4572 : 			hiWord = item[index].m_Number >> 16;

  000f0	0f b7 47 fa	 movzx	 eax, WORD PTR [edi-6]
  000f4	d9 6d 12	 fldcw	 WORD PTR tv922[ebp]

; 4573 : 			loWord = item[index].m_Number  & 0xFFFF;

  000f7	0f b7 57 f8	 movzx	 edx, WORD PTR [edi-8]

; 4574 : 			buf[n] = SET_NUMBERH(hiWord);

  000fb	8b d8		 mov	 ebx, eax
  000fd	c1 eb 08	 shr	 ebx, 8
  00100	88 5c 31 03	 mov	 BYTE PTR [ecx+esi+3], bl

; 4575 : 			n++;
; 4576 : 			buf[n] = SET_NUMBERL(hiWord);

  00104	88 44 31 04	 mov	 BYTE PTR [ecx+esi+4], al

; 4577 : 			n++;
; 4578 : 			buf[n] = SET_NUMBERH(loWord);

  00108	8b c2		 mov	 eax, edx
  0010a	c1 e8 08	 shr	 eax, 8
  0010d	88 44 31 05	 mov	 BYTE PTR [ecx+esi+5], al

; 4579 : 			n++;
; 4580 : 			buf[n] = SET_NUMBERL(loWord);

  00111	88 54 31 06	 mov	 BYTE PTR [ecx+esi+6], dl

; 4581 : 			n++;
; 4582 : 			buf[n] = 0;
; 4583 : 
; 4584 : 			if ( item[index].m_Type > 255 )

  00115	b8 ff 00 00 00	 mov	 eax, 255		; 000000ffH
  0011a	c6 44 31 07 00	 mov	 BYTE PTR [ecx+esi+7], 0
  0011f	66 39 47 fe	 cmp	 WORD PTR [edi-2], ax
  00123	7e 05		 jle	 SHORT $LN2@ItemByteCo@2

; 4585 : 			{
; 4586 : 				buf[n] = 0x80;	// Second Type of Item

  00125	c6 44 31 07 80	 mov	 BYTE PTR [ecx+esi+7], 128 ; 00000080H
$LN2@ItemByteCo@2:

; 4587 : 			}
; 4588 : 
; 4589 : 			if ( item[index].m_Option3 > 3 )

  0012a	80 bf 8e 00 00
	00 03		 cmp	 BYTE PTR [edi+142], 3
  00131	76 05		 jbe	 SHORT $LN1@ItemByteCo@2

; 4590 : 			{
; 4591 : 				buf[n] |= 0x40;	// Duration ???

  00133	80 4c 31 07 40	 or	 BYTE PTR [ecx+esi+7], 64 ; 00000040H
$LN1@ItemByteCo@2:

; 4592 : 			}
; 4593 : 
; 4594 : 			buf[n] |= item[index].m_NewOption;

  00138	0f b6 97 8f 00
	00 00		 movzx	 edx, BYTE PTR [edi+143]
  0013f	08 54 31 07	 or	 BYTE PTR [ecx+esi+7], dl

; 4595 : 			n++;
; 4596 : 			buf[n] = item[index].m_SetOption;

  00143	0f b6 97 a6 00
	00 00		 movzx	 edx, BYTE PTR [edi+166]
  0014a	88 54 31 08	 mov	 BYTE PTR [ecx+esi+8], dl

; 4597 : 			n++;
; 4598 : 			n++;

  0014e	83 c1 0a	 add	 ecx, 10			; 0000000aH
$LN8@ItemByteCo@2:

; 4521 : 	WORD hiWord;
; 4522 : 	WORD loWord;
; 4523 : 	int index;
; 4524 : 
; 4525 : 	for (index = 0; index < maxitem ; index++ )

  00151	81 c7 d4 00 00
	00		 add	 edi, 212		; 000000d4H
  00157	ff 4d fc	 dec	 DWORD PTR tv232[ebp]
  0015a	0f 85 d0 fe ff
	ff		 jne	 $LL9@ItemByteCo@2
  00160	5f		 pop	 edi
  00161	5e		 pop	 esi
  00162	5b		 pop	 ebx
$LN7@ItemByteCo@2:

; 4599 : 		}
; 4600 : 	}
; 4601 : }

  00163	8b e5		 mov	 esp, ebp
  00165	5d		 pop	 ebp
  00166	c3		 ret	 0
?ItemByteConvert10@@YAXPAEQAVCItem@@H@Z ENDP		; ItemByteConvert10
_TEXT	ENDS
PUBLIC	?ItemByteConvert@@YAXPAEVCItem@@@Z		; ItemByteConvert
EXTRN	?IsSocketOption@CSocketOption@@QAEEPAVCItem@@@Z:PROC ; CSocketOption::IsSocketOption
; Function compile flags: /Ogtp
;	COMDAT ?ItemByteConvert@@YAXPAEVCItem@@@Z
_TEXT	SEGMENT
tv496 = -8						; size = 4
tv494 = -8						; size = 4
tv499 = -2						; size = 2
_buf$ = 8						; size = 4
_item$ = 12						; size = 212
?ItemByteConvert@@YAXPAEVCItem@@@Z PROC			; ItemByteConvert, COMDAT

; 4677 : {

  00000	55		 push	 ebp
  00001	8b ec		 mov	 ebp, esp
  00003	83 ec 08	 sub	 esp, 8

; 4678 : 	int n=0;
; 4679 : 
; 4680 : 	memset(buf, 0, MAX_ITEM_INFO);
; 4681 : 	buf[n] = item.m_Type & 0xFF;
; 4682 : 	n++;	//1
; 4683 : 	buf[n] = 0;
; 4684 : 	buf[n] |= item.m_Level * 8;
; 4685 : 	buf[n] |= item.m_Option1 * 128;

  00006	8a 95 a0 00 00
	00		 mov	 dl, BYTE PTR _item$[ebp+148]

; 4686 : 	buf[n] |= item.m_Option2 * 4;
; 4687 : 	buf[n] |= item.m_Option3 & 3;
; 4688 : 	n++;	//2
; 4689 : 	buf[n] = (BYTE)item.m_Durability;

  0000c	d9 45 30	 fld	 DWORD PTR _item$[ebp+36]
  0000f	33 c0		 xor	 eax, eax
  00011	d9 7d fe	 fnstcw	 WORD PTR tv499[ebp]
  00014	53		 push	 ebx
  00015	8b 4d 10	 mov	 ecx, DWORD PTR _item$[ebp+4]
  00018	56		 push	 esi
  00019	8b 75 08	 mov	 esi, DWORD PTR _buf$[ebp]
  0001c	89 06		 mov	 DWORD PTR [esi], eax
  0001e	89 46 04	 mov	 DWORD PTR [esi+4], eax
  00021	89 46 08	 mov	 DWORD PTR [esi+8], eax
  00024	8a 45 14	 mov	 al, BYTE PTR _item$[ebp+8]
  00027	02 c0		 add	 al, al
  00029	02 c0		 add	 al, al
  0002b	02 c0		 add	 al, al
  0002d	c0 e2 07	 shl	 dl, 7
  00030	0a c2		 or	 al, dl
  00032	8a 95 a2 00 00
	00		 mov	 dl, BYTE PTR _item$[ebp+150]
  00038	8a da		 mov	 bl, dl
  0003a	80 e3 03	 and	 bl, 3
  0003d	0a c3		 or	 al, bl
  0003f	8a 9d a1 00 00
	00		 mov	 bl, BYTE PTR _item$[ebp+149]
  00045	02 db		 add	 bl, bl
  00047	c1 e9 10	 shr	 ecx, 16			; 00000010H
  0004a	02 db		 add	 bl, bl
  0004c	0a c3		 or	 al, bl
  0004e	88 0e		 mov	 BYTE PTR [esi], cl
  00050	88 46 01	 mov	 BYTE PTR [esi+1], al
  00053	0f b7 45 fe	 movzx	 eax, WORD PTR tv499[ebp]
  00057	0d 00 0c 00 00	 or	 eax, 3072		; 00000c00H
  0005c	89 45 f8	 mov	 DWORD PTR tv496[ebp], eax
  0005f	d9 6d f8	 fldcw	 WORD PTR tv496[ebp]
  00062	db 5d f8	 fistp	 DWORD PTR tv494[ebp]
  00065	0f b6 45 f8	 movzx	 eax, BYTE PTR tv494[ebp]
  00069	88 46 02	 mov	 BYTE PTR [esi+2], al

; 4690 : 	n++;	//3
; 4691 : 	buf[n] = 0;
; 4692 : 	buf[n] |= ((item.m_Type & 0x100) >> 1);

  0006c	8b c1		 mov	 eax, ecx
  0006e	d9 6d fe	 fldcw	 WORD PTR tv499[ebp]
  00071	d1 f8		 sar	 eax, 1
  00073	24 80		 and	 al, 128			; 00000080H
  00075	88 46 03	 mov	 BYTE PTR [esi+3], al

; 4693 : 
; 4694 : 	if ( item.m_Option3 > 3 )

  00078	80 fa 03	 cmp	 dl, 3
  0007b	76 05		 jbe	 SHORT $LN2@ItemByteCo@3

; 4695 : 	{
; 4696 : 		buf[n] |= 0x40; // item +16 option

  0007d	0c 40		 or	 al, 64			; 00000040H
  0007f	88 46 03	 mov	 BYTE PTR [esi+3], al
$LN2@ItemByteCo@3:

; 4697 : 	}
; 4698 : 
; 4699 : 	buf[n] |= item.m_NewOption;

  00082	8a 95 a3 00 00
	00		 mov	 dl, BYTE PTR _item$[ebp+151]
  00088	08 56 03	 or	 BYTE PTR [esi+3], dl

; 4700 : 	n++;	//4
; 4701 : 	buf[n] = item.m_SetOption;
; 4702 : 	n++;	//5
; 4703 : 	buf[n] |= (item.m_Type & 0x1E00 ) >> 5;
; 4704 : 
; 4705 : 	BYTE btItemEffectFor380 = 0;
; 4706 : 	btItemEffectFor380 = (item.m_ItemOptionEx & 0x80 ) >> 4;
; 4707 : 	buf[n] |= btItemEffectFor380;
; 4708 : 	
; 4709 : #ifdef PERIOD
; 4710 : 	BYTE btPartialyChargeOption = 0;
; 4711 : 	btPartialyChargeOption = item.m_PeriodItemOption << 1;
; 4712 : 	buf[n] |= btPartialyChargeOption;

  0008b	8a 95 d6 00 00
	00		 mov	 dl, BYTE PTR _item$[ebp+202]
  00091	8a 85 ba 00 00
	00		 mov	 al, BYTE PTR _item$[ebp+174]
  00097	c1 f9 05	 sar	 ecx, 5
  0009a	88 46 04	 mov	 BYTE PTR [esi+4], al
  0009d	8a 85 de 00 00
	00		 mov	 al, BYTE PTR _item$[ebp+210]
  000a3	80 e1 f0	 and	 cl, 240			; 000000f0H
  000a6	c0 ea 04	 shr	 dl, 4
  000a9	80 e2 08	 and	 dl, 8
  000ac	0a ca		 or	 cl, dl
  000ae	02 c0		 add	 al, al
  000b0	0a c8		 or	 cl, al
  000b2	08 4e 05	 or	 BYTE PTR [esi+5], cl

; 4713 : #endif
; 4714 : 	n++; //6
; 4715 : 	buf[n] = item.m_JewelOfHarmonyOption;

  000b5	8a 8d d0 00 00
	00		 mov	 cl, BYTE PTR _item$[ebp+196]

; 4716 : 
; 4717 : 	//Season4 Socket add-on
; 4718 : 	if(g_SocketOption.IsSocketOption(&item) == 1){buf[n] = item.m_SocketOptionIndex;}

  000bb	8d 55 0c	 lea	 edx, DWORD PTR _item$[ebp]
  000be	88 4e 06	 mov	 BYTE PTR [esi+6], cl
  000c1	52		 push	 edx
  000c2	b9 00 00 00 00	 mov	 ecx, OFFSET ?g_SocketOption@@3VCSocketOption@@A ; g_SocketOption
  000c7	e8 00 00 00 00	 call	 ?IsSocketOption@CSocketOption@@QAEEPAVCItem@@@Z ; CSocketOption::IsSocketOption
  000cc	3c 01		 cmp	 al, 1
  000ce	75 09		 jne	 SHORT $LN1@ItemByteCo@3
  000d0	8a 85 d7 00 00
	00		 mov	 al, BYTE PTR _item$[ebp+203]
  000d6	88 46 06	 mov	 BYTE PTR [esi+6], al
$LN1@ItemByteCo@3:

; 4719 : 	n++;	//7
; 4720 : 
; 4721 : 	buf[n] = item.m_SocketOption[0];

  000d9	8a 8d d8 00 00
	00		 mov	 cl, BYTE PTR _item$[ebp+204]

; 4722 : 	n++;
; 4723 : 
; 4724 : 	buf[n] = item.m_SocketOption[1];

  000df	8a 95 d9 00 00
	00		 mov	 dl, BYTE PTR _item$[ebp+205]

; 4725 : 	n++;
; 4726 : 
; 4727 : 	buf[n] = item.m_SocketOption[2];

  000e5	8a 85 da 00 00
	00		 mov	 al, BYTE PTR _item$[ebp+206]
  000eb	88 4e 07	 mov	 BYTE PTR [esi+7], cl

; 4728 : 	n++;
; 4729 : 
; 4730 : 	buf[n] = item.m_SocketOption[3];

  000ee	8a 8d db 00 00
	00		 mov	 cl, BYTE PTR _item$[ebp+207]
  000f4	88 56 08	 mov	 BYTE PTR [esi+8], dl

; 4731 : 	n++;
; 4732 : 
; 4733 : 	buf[n] = item.m_SocketOption[4];

  000f7	8a 95 dc 00 00
	00		 mov	 dl, BYTE PTR _item$[ebp+208]
  000fd	88 46 09	 mov	 BYTE PTR [esi+9], al
  00100	88 4e 0a	 mov	 BYTE PTR [esi+10], cl
  00103	88 56 0b	 mov	 BYTE PTR [esi+11], dl
  00106	5e		 pop	 esi
  00107	5b		 pop	 ebx

; 4734 : }

  00108	8b e5		 mov	 esp, ebp
  0010a	5d		 pop	 ebp
  0010b	c3		 ret	 0
?ItemByteConvert@@YAXPAEVCItem@@@Z ENDP			; ItemByteConvert
_TEXT	ENDS
PUBLIC	?ItemByteConvertEx@@YAXPAEVCItem@@@Z		; ItemByteConvertEx
; Function compile flags: /Ogtp
;	COMDAT ?ItemByteConvertEx@@YAXPAEVCItem@@@Z
_TEXT	SEGMENT
tv496 = -8						; size = 4
tv494 = -8						; size = 4
tv499 = -2						; size = 2
_buf$ = 8						; size = 4
_item$ = 12						; size = 212
?ItemByteConvertEx@@YAXPAEVCItem@@@Z PROC		; ItemByteConvertEx, COMDAT

; 4740 : {

  00000	55		 push	 ebp
  00001	8b ec		 mov	 ebp, esp
  00003	83 ec 08	 sub	 esp, 8

; 4741 : 	int n=0;
; 4742 : 
; 4743 : 	memset(buf, 0, MAX_ITEM_INFO);
; 4744 : 	buf[n] = item.m_Type & 0xFF;
; 4745 : 	n++;	//1
; 4746 : 	buf[n] = 0;
; 4747 : 	buf[n] |= item.m_Level * 8;
; 4748 : 	buf[n] |= item.m_Option1 * 128;

  00006	8a 95 a0 00 00
	00		 mov	 dl, BYTE PTR _item$[ebp+148]

; 4749 : 	buf[n] |= item.m_Option2 * 4;
; 4750 : 	buf[n] |= item.m_Option3 & 3;
; 4751 : 	n++;	//2
; 4752 : 	buf[n] = (BYTE)item.m_Durability;

  0000c	d9 45 30	 fld	 DWORD PTR _item$[ebp+36]
  0000f	33 c0		 xor	 eax, eax
  00011	d9 7d fe	 fnstcw	 WORD PTR tv499[ebp]
  00014	53		 push	 ebx
  00015	8b 4d 10	 mov	 ecx, DWORD PTR _item$[ebp+4]
  00018	56		 push	 esi
  00019	8b 75 08	 mov	 esi, DWORD PTR _buf$[ebp]
  0001c	89 06		 mov	 DWORD PTR [esi], eax
  0001e	89 46 04	 mov	 DWORD PTR [esi+4], eax
  00021	89 46 08	 mov	 DWORD PTR [esi+8], eax
  00024	8a 45 14	 mov	 al, BYTE PTR _item$[ebp+8]
  00027	02 c0		 add	 al, al
  00029	02 c0		 add	 al, al
  0002b	02 c0		 add	 al, al
  0002d	c0 e2 07	 shl	 dl, 7
  00030	0a c2		 or	 al, dl
  00032	8a 95 a2 00 00
	00		 mov	 dl, BYTE PTR _item$[ebp+150]
  00038	8a da		 mov	 bl, dl
  0003a	80 e3 03	 and	 bl, 3
  0003d	0a c3		 or	 al, bl
  0003f	8a 9d a1 00 00
	00		 mov	 bl, BYTE PTR _item$[ebp+149]
  00045	02 db		 add	 bl, bl
  00047	c1 e9 10	 shr	 ecx, 16			; 00000010H
  0004a	02 db		 add	 bl, bl
  0004c	0a c3		 or	 al, bl
  0004e	88 0e		 mov	 BYTE PTR [esi], cl
  00050	88 46 01	 mov	 BYTE PTR [esi+1], al
  00053	0f b7 45 fe	 movzx	 eax, WORD PTR tv499[ebp]
  00057	0d 00 0c 00 00	 or	 eax, 3072		; 00000c00H
  0005c	89 45 f8	 mov	 DWORD PTR tv496[ebp], eax
  0005f	d9 6d f8	 fldcw	 WORD PTR tv496[ebp]
  00062	db 5d f8	 fistp	 DWORD PTR tv494[ebp]
  00065	0f b6 45 f8	 movzx	 eax, BYTE PTR tv494[ebp]
  00069	88 46 02	 mov	 BYTE PTR [esi+2], al

; 4753 : 	n++;	//3
; 4754 : 	buf[n] = 0;
; 4755 : 	buf[n] |= ((item.m_Type & 0x100) >> 1);

  0006c	8b c1		 mov	 eax, ecx
  0006e	d9 6d fe	 fldcw	 WORD PTR tv499[ebp]
  00071	d1 f8		 sar	 eax, 1
  00073	24 80		 and	 al, 128			; 00000080H
  00075	88 46 03	 mov	 BYTE PTR [esi+3], al

; 4756 : 
; 4757 : 	if ( item.m_Option3 > 3 )

  00078	80 fa 03	 cmp	 dl, 3
  0007b	76 05		 jbe	 SHORT $LN2@ItemByteCo@4

; 4758 : 	{
; 4759 : 		buf[n] |= 0x40; // item +16 option

  0007d	0c 40		 or	 al, 64			; 00000040H
  0007f	88 46 03	 mov	 BYTE PTR [esi+3], al
$LN2@ItemByteCo@4:

; 4760 : 	}
; 4761 : 
; 4762 : 	buf[n] |= item.m_NewOption;

  00082	8a 95 a3 00 00
	00		 mov	 dl, BYTE PTR _item$[ebp+151]
  00088	08 56 03	 or	 BYTE PTR [esi+3], dl

; 4763 : 	n++;	//4
; 4764 : 	buf[n] = item.m_SetOption;
; 4765 : 	n++;	//5
; 4766 : 	buf[n] |= (item.m_Type & 0x1E00 ) >> 5;
; 4767 : 
; 4768 : 	BYTE btItemEffectFor380 = 0;
; 4769 : 	btItemEffectFor380 = (item.m_ItemOptionEx & 0x80 ) >> 4;
; 4770 : 	buf[n] |= btItemEffectFor380;
; 4771 : 	
; 4772 : #ifdef PERIOD
; 4773 : 	BYTE btPartialyChargeOption = 0;
; 4774 : 	btPartialyChargeOption = item.m_PeriodItemOption << 1;
; 4775 : 	buf[n] |= btPartialyChargeOption;

  0008b	8a 95 d6 00 00
	00		 mov	 dl, BYTE PTR _item$[ebp+202]
  00091	8a 85 ba 00 00
	00		 mov	 al, BYTE PTR _item$[ebp+174]
  00097	c1 f9 05	 sar	 ecx, 5
  0009a	88 46 04	 mov	 BYTE PTR [esi+4], al
  0009d	8a 85 de 00 00
	00		 mov	 al, BYTE PTR _item$[ebp+210]
  000a3	80 e1 f0	 and	 cl, 240			; 000000f0H
  000a6	c0 ea 04	 shr	 dl, 4
  000a9	80 e2 08	 and	 dl, 8
  000ac	0a ca		 or	 cl, dl
  000ae	02 c0		 add	 al, al
  000b0	0a c8		 or	 cl, al
  000b2	08 4e 05	 or	 BYTE PTR [esi+5], cl

; 4776 : #endif
; 4777 : 	n++; //6
; 4778 : 	buf[n] = item.m_JewelOfHarmonyOption;

  000b5	8a 8d d0 00 00
	00		 mov	 cl, BYTE PTR _item$[ebp+196]

; 4779 : 
; 4780 : 	//Season4 Socket add-on
; 4781 : 	if(g_SocketOption.IsSocketOption(&item) == 1){buf[n] = item.m_SocketOptionIndex;}

  000bb	8d 55 0c	 lea	 edx, DWORD PTR _item$[ebp]
  000be	88 4e 06	 mov	 BYTE PTR [esi+6], cl
  000c1	52		 push	 edx
  000c2	b9 00 00 00 00	 mov	 ecx, OFFSET ?g_SocketOption@@3VCSocketOption@@A ; g_SocketOption
  000c7	e8 00 00 00 00	 call	 ?IsSocketOption@CSocketOption@@QAEEPAVCItem@@@Z ; CSocketOption::IsSocketOption
  000cc	3c 01		 cmp	 al, 1
  000ce	75 09		 jne	 SHORT $LN1@ItemByteCo@4
  000d0	8a 85 d7 00 00
	00		 mov	 al, BYTE PTR _item$[ebp+203]
  000d6	88 46 06	 mov	 BYTE PTR [esi+6], al
$LN1@ItemByteCo@4:

; 4782 : 	n++;	//7
; 4783 : 
; 4784 : 	buf[n] = item.m_SocketOption[0];

  000d9	8a 8d d8 00 00
	00		 mov	 cl, BYTE PTR _item$[ebp+204]

; 4785 : 	n++;
; 4786 : 
; 4787 : 	buf[n] = item.m_SocketOption[1];

  000df	8a 95 d9 00 00
	00		 mov	 dl, BYTE PTR _item$[ebp+205]

; 4788 : 	n++;
; 4789 : 
; 4790 : 	buf[n] = item.m_SocketOption[2];

  000e5	8a 85 da 00 00
	00		 mov	 al, BYTE PTR _item$[ebp+206]
  000eb	88 4e 07	 mov	 BYTE PTR [esi+7], cl

; 4791 : 	n++;
; 4792 : 
; 4793 : 	buf[n] = item.m_SocketOption[3];

  000ee	8a 8d db 00 00
	00		 mov	 cl, BYTE PTR _item$[ebp+207]
  000f4	88 56 08	 mov	 BYTE PTR [esi+8], dl

; 4794 : 	n++;
; 4795 : 
; 4796 : 	buf[n] = item.m_SocketOption[4];

  000f7	8a 95 dc 00 00
	00		 mov	 dl, BYTE PTR _item$[ebp+208]
  000fd	88 46 09	 mov	 BYTE PTR [esi+9], al
  00100	88 4e 0a	 mov	 BYTE PTR [esi+10], cl
  00103	88 56 0b	 mov	 BYTE PTR [esi+11], dl
  00106	5e		 pop	 esi
  00107	5b		 pop	 ebx

; 4797 : }

  00108	8b e5		 mov	 esp, ebp
  0010a	5d		 pop	 ebp
  0010b	c3		 ret	 0
?ItemByteConvertEx@@YAXPAEVCItem@@@Z ENDP		; ItemByteConvertEx
_TEXT	ENDS
PUBLIC	?ItemByteConvert@@YAXPAEHEEEEEEEEEQAEEE@Z	; ItemByteConvert
; Function compile flags: /Ogtp
;	COMDAT ?ItemByteConvert@@YAXPAEHEEEEEEEEEQAEEE@Z
_TEXT	SEGMENT
_buf$ = 8						; size = 4
_type$ = 12						; size = 4
_Option1$ = 16						; size = 1
_Option2$ = 20						; size = 1
_Option3$ = 24						; size = 1
_level$ = 28						; size = 1
_dur$ = 32						; size = 1
_Noption$ = 36						; size = 1
_SetOption$ = 40					; size = 1
_JewelOfHarmonyOption$ = 44				; size = 1
_ItemEffectEx$ = 48					; size = 1
_SocketOption$ = 52					; size = 4
_SocketIndex$ = 56					; size = 1
_PeriodItemOption$ = 60					; size = 1
?ItemByteConvert@@YAXPAEHEEEEEEEEEQAEEE@Z PROC		; ItemByteConvert, COMDAT

; 4800 : {

  00000	55		 push	 ebp
  00001	8b ec		 mov	 ebp, esp

; 4801 : 
; 4802 : 	memset(buf, 0, MAX_ITEM_INFO);
; 4803 : 	int n = 0;
; 4804 : 
; 4805 : 	buf[n] = type & 0xFF;
; 4806 : 	n++;
; 4807 : 	buf[n] = 0;
; 4808 : 	buf[n] |= level * 8;
; 4809 : 	buf[n] |= Option1 * 128;

  00003	8a 55 10	 mov	 dl, BYTE PTR _Option1$[ebp]
  00006	8b 45 08	 mov	 eax, DWORD PTR _buf$[ebp]
  00009	53		 push	 ebx

; 4810 : 	buf[n] |= Option2 * 4;

  0000a	8a 5d 14	 mov	 bl, BYTE PTR _Option2$[ebp]
  0000d	02 db		 add	 bl, bl
  0000f	02 db		 add	 bl, bl
  00011	c0 e2 07	 shl	 dl, 7

; 4811 : 	buf[n] |= Option3 & 3;

  00014	0a d3		 or	 dl, bl
  00016	8a 5d 18	 mov	 bl, BYTE PTR _Option3$[ebp]
  00019	80 e3 03	 and	 bl, 3
  0001c	0a d3		 or	 dl, bl
  0001e	8a 5d 1c	 mov	 bl, BYTE PTR _level$[ebp]
  00021	33 c9		 xor	 ecx, ecx
  00023	89 08		 mov	 DWORD PTR [eax], ecx
  00025	02 db		 add	 bl, bl
  00027	89 48 04	 mov	 DWORD PTR [eax+4], ecx
  0002a	89 48 08	 mov	 DWORD PTR [eax+8], ecx
  0002d	8b 4d 0c	 mov	 ecx, DWORD PTR _type$[ebp]
  00030	02 db		 add	 bl, bl
  00032	02 db		 add	 bl, bl
  00034	0a d3		 or	 dl, bl
  00036	88 08		 mov	 BYTE PTR [eax], cl
  00038	88 50 01	 mov	 BYTE PTR [eax+1], dl

; 4812 : 	n++;
; 4813 : 	buf[n] = dur;

  0003b	8a 55 20	 mov	 dl, BYTE PTR _dur$[ebp]
  0003e	88 50 02	 mov	 BYTE PTR [eax+2], dl

; 4814 : 	n++;
; 4815 : 	buf[n] = 0;
; 4816 : 	buf[n] |= ((type& 0x100) >> 1);

  00041	8b d1		 mov	 edx, ecx
  00043	d1 fa		 sar	 edx, 1
  00045	80 e2 80	 and	 dl, 128			; 00000080H

; 4817 : 
; 4818 : 	if ( Option3 > 3 )

  00048	80 7d 18 03	 cmp	 BYTE PTR _Option3$[ebp], 3
  0004c	88 50 03	 mov	 BYTE PTR [eax+3], dl
  0004f	5b		 pop	 ebx
  00050	76 06		 jbe	 SHORT $LN3@ItemByteCo@5

; 4819 : 	{
; 4820 : 		buf[n] |= 0x40;

  00052	80 ca 40	 or	 dl, 64			; 00000040H
  00055	88 50 03	 mov	 BYTE PTR [eax+3], dl
$LN3@ItemByteCo@5:

; 4821 : 	}
; 4822 : 
; 4823 : 	buf[n] |= Noption;

  00058	8a 55 24	 mov	 dl, BYTE PTR _Noption$[ebp]
  0005b	08 50 03	 or	 BYTE PTR [eax+3], dl

; 4824 : 	n++;
; 4825 : 	buf[n] = SetOption;

  0005e	8a 55 28	 mov	 dl, BYTE PTR _SetOption$[ebp]
  00061	88 50 04	 mov	 BYTE PTR [eax+4], dl

; 4826 : 	n++;
; 4827 : 	buf[n] |= (type & 0x1E00 ) >> 5;
; 4828 : 
; 4829 : 	BYTE btItemEffectFor380 = 0;
; 4830 : 	btItemEffectFor380 = (ItemEffectEx  & 0x80 ) >> 4;
; 4831 : 	buf[n] |= btItemEffectFor380;
; 4832 : #ifdef PERIOD
; 4833 : 	BYTE btPartialyChargeOption = 0;
; 4834 : 	btPartialyChargeOption = PeriodItemOption << 1;
; 4835 : 	buf[n] |= btPartialyChargeOption;

  00064	8a 55 30	 mov	 dl, BYTE PTR _ItemEffectEx$[ebp]
  00067	c1 f9 05	 sar	 ecx, 5
  0006a	c0 ea 04	 shr	 dl, 4
  0006d	80 e1 f0	 and	 cl, 240			; 000000f0H
  00070	80 e2 08	 and	 dl, 8
  00073	0a ca		 or	 cl, dl
  00075	8a 55 3c	 mov	 dl, BYTE PTR _PeriodItemOption$[ebp]
  00078	02 d2		 add	 dl, dl
  0007a	0a ca		 or	 cl, dl
  0007c	08 48 05	 or	 BYTE PTR [eax+5], cl

; 4836 : #endif
; 4837 : 	n++;
; 4838 : 	buf[n] = JewelOfHarmonyOption;

  0007f	8a 4d 2c	 mov	 cl, BYTE PTR _JewelOfHarmonyOption$[ebp]
  00082	88 48 06	 mov	 BYTE PTR [eax+6], cl

; 4839 : 
; 4840 : 	//Season4 add-on (wz bugged -.-)
; 4841 : 	if(SocketOption != NULL)

  00085	8b 4d 34	 mov	 ecx, DWORD PTR _SocketOption$[ebp]
  00088	85 c9		 test	 ecx, ecx
  0008a	74 29		 je	 SHORT $LN2@ItemByteCo@5

; 4842 : 	{
; 4843 : 		buf[n] = SocketIndex;

  0008c	8a 55 38	 mov	 dl, BYTE PTR _SocketIndex$[ebp]
  0008f	88 50 06	 mov	 BYTE PTR [eax+6], dl

; 4844 : 		n++;
; 4845 : 		buf[n] = SocketOption[0];

  00092	0f b6 11	 movzx	 edx, BYTE PTR [ecx]
  00095	88 50 07	 mov	 BYTE PTR [eax+7], dl

; 4846 : 		n++;
; 4847 : 		buf[n] = SocketOption[1];

  00098	0f b6 51 01	 movzx	 edx, BYTE PTR [ecx+1]
  0009c	88 50 08	 mov	 BYTE PTR [eax+8], dl

; 4848 : 		n++;
; 4849 : 		buf[n] = SocketOption[2];

  0009f	0f b6 51 02	 movzx	 edx, BYTE PTR [ecx+2]
  000a3	88 50 09	 mov	 BYTE PTR [eax+9], dl

; 4850 : 		n++;
; 4851 : 		buf[n] = SocketOption[3];

  000a6	0f b6 51 03	 movzx	 edx, BYTE PTR [ecx+3]
  000aa	88 50 0a	 mov	 BYTE PTR [eax+10], dl

; 4852 : 		n++;
; 4853 : 		buf[n] = SocketOption[4];

  000ad	8a 49 04	 mov	 cl, BYTE PTR [ecx+4]

; 4863 : 		n++;
; 4864 : 		buf[n] = 0xFF;
; 4865 : 		n++;
; 4866 : 		buf[n] = 0xFF;

  000b0	88 48 0b	 mov	 BYTE PTR [eax+11], cl

; 4867 : 	}
; 4868 : }

  000b3	5d		 pop	 ebp
  000b4	c3		 ret	 0
$LN2@ItemByteCo@5:

; 4854 : 	}
; 4855 : 	else
; 4856 : 	{
; 4857 : 		n++; //wz fixed here -.-
; 4858 : 		buf[n] = 0xFF;

  000b5	66 c7 40 07 ff
	ff		 mov	 WORD PTR [eax+7], 65535	; 0000ffffH
  000bb	b1 ff		 mov	 cl, 255			; 000000ffH

; 4859 : 		n++;
; 4860 : 		buf[n] = 0xFF;
; 4861 : 		n++;
; 4862 : 		buf[n] = 0xFF;

  000bd	66 c7 40 09 ff
	ff		 mov	 WORD PTR [eax+9], 65535	; 0000ffffH

; 4863 : 		n++;
; 4864 : 		buf[n] = 0xFF;
; 4865 : 		n++;
; 4866 : 		buf[n] = 0xFF;

  000c3	88 48 0b	 mov	 BYTE PTR [eax+11], cl

; 4867 : 	}
; 4868 : }

  000c6	5d		 pop	 ebp
  000c7	c3		 ret	 0
?ItemByteConvert@@YAXPAEHEEEEEEEEEQAEEE@Z ENDP		; ItemByteConvert
_TEXT	ENDS
PUBLIC	?ItemByteConvert16@@YAXPAEQAVCItem@@H@Z		; ItemByteConvert16
; Function compile flags: /Ogtp
;	COMDAT ?ItemByteConvert16@@YAXPAEQAVCItem@@H@Z
_TEXT	SEGMENT
tv1604 = -8						; size = 4
tv1602 = -8						; size = 4
tv301 = -4						; size = 4
_buf$ = 8						; size = 4
_item$ = 12						; size = 4
_maxitem$ = 16						; size = 4
tv1607 = 18						; size = 2
?ItemByteConvert16@@YAXPAEQAVCItem@@H@Z PROC		; ItemByteConvert16, COMDAT

; 4873 : {

  00000	55		 push	 ebp
  00001	8b ec		 mov	 ebp, esp

; 4875 : 	WORD hiWord, loWord;
; 4876 : 
; 4877 : 	for (int index=0; index < maxitem ;index++)

  00003	8b 45 10	 mov	 eax, DWORD PTR _maxitem$[ebp]
  00006	83 ec 08	 sub	 esp, 8
  00009	56		 push	 esi
  0000a	33 f6		 xor	 esi, esi
  0000c	85 c0		 test	 eax, eax
  0000e	0f 8e f0 01 00
	00		 jle	 $LN9@ItemByteCo@6

; 4874 : 	int n=0;

  00014	53		 push	 ebx
  00015	8b 5d 0c	 mov	 ebx, DWORD PTR _item$[ebp]
  00018	57		 push	 edi
  00019	8b 7d 08	 mov	 edi, DWORD PTR _buf$[ebp]
  0001c	83 c3 06	 add	 ebx, 6
  0001f	89 45 fc	 mov	 DWORD PTR tv301[ebp], eax
$LL19@ItemByteCo@6:

; 4878 : 	{
; 4879 : 		if ( item[index].m_Type == ITEMGET(13,19) )

  00022	0f b7 0b	 movzx	 ecx, WORD PTR [ebx]
  00025	b8 13 1a 00 00	 mov	 eax, 6675		; 00001a13H
  0002a	66 3b c8	 cmp	 cx, ax
  0002d	75 3c		 jne	 SHORT $LN18@ItemByteCo@6

; 4880 : 		{
; 4881 : 			if ( CHECK_LIMIT(item[index].m_Level, 3) != FALSE )

  0002f	0f b7 43 02	 movzx	 eax, WORD PTR [ebx+2]
  00033	66 85 c0	 test	 ax, ax
  00036	78 33		 js	 SHORT $LN18@ItemByteCo@6
  00038	33 d2		 xor	 edx, edx
  0003a	66 83 f8 02	 cmp	 ax, 2
  0003e	0f 9e c2	 setle	 dl
  00041	8b c2		 mov	 eax, edx
  00043	85 c0		 test	 eax, eax
  00045	74 24		 je	 SHORT $LN18@ItemByteCo@6
$LN23@ItemByteCo@6:

; 4882 : 			{
; 4883 : 				buf[n+0]=-1;

  00047	c7 04 3e ff ff
	ff ff		 mov	 DWORD PTR [esi+edi], -1

; 4884 : 				buf[n+1]=-1;
; 4885 : 				buf[n+2]=-1;
; 4886 : 				buf[n+3]=-1;
; 4887 : 				buf[n+4]=-1;

  0004e	c7 44 3e 04 ff
	ff ff ff	 mov	 DWORD PTR [esi+edi+4], -1

; 4888 : 				buf[n+5]=-1;
; 4889 : 				buf[n+6]=-1;
; 4890 : 				buf[n+7]=-1;
; 4891 : 				buf[n+8]=-1;

  00056	c7 44 3e 08 ff
	ff ff ff	 mov	 DWORD PTR [esi+edi+8], -1

; 4892 : 				buf[n+9]=-1;
; 4893 : 				buf[n+10]=-1;
; 4894 : 				buf[n+11]=-1;
; 4895 : 				buf[n+12]=-1;

  0005e	c7 44 3e 0c ff
	ff ff ff	 mov	 DWORD PTR [esi+edi+12], -1

; 4896 : 				buf[n+13]=-1;
; 4897 : 				buf[n+14]=-1;
; 4898 : 				buf[n+15]=-1;
; 4899 : 				n+=16;
; 4900 : 
; 4901 : 				continue;

  00066	e9 85 01 00 00	 jmp	 $LN22@ItemByteCo@6
$LN18@ItemByteCo@6:

; 4902 : 			}
; 4903 : 		}
; 4904 : 
; 4905 : 		if ( item[index].m_Type == ITEMGET(14,64) ) //Season 2.5 Illusion Torch add-on

  0006b	b8 40 1c 00 00	 mov	 eax, 7232		; 00001c40H
  00070	66 3b c8	 cmp	 cx, ax

; 4906 : 		{
; 4907 : 			buf[n] = -1;
; 4908 : 			buf[n+1]= -1;
; 4909 : 			buf[n+2]= -1;
; 4910 : 			buf[n+3]= -1;
; 4911 : 			buf[n+4]= -1;
; 4912 : 			buf[n+5]= -1;
; 4913 : 			buf[n+6]= -1;
; 4914 : 			buf[n+7]= -1;
; 4915 : 			buf[n+8]= -1;
; 4916 : 			buf[n+9]= -1;
; 4917 : 			buf[n+10]=-1;
; 4918 : 			buf[n+11]=-1;
; 4919 : 			buf[n+12]=-1;
; 4920 : 			buf[n+13]=-1;
; 4921 : 			buf[n+14]=-1;
; 4922 : 			buf[n+15]=-1;
; 4923 : 			n += 16;
; 4924 : 			continue;

  00073	74 d2		 je	 SHORT $LN23@ItemByteCo@6

; 4925 : 		}
; 4926 : 
; 4927 : 		if ( item[index].m_Type < ITEMGET(0,0) )

  00075	66 85 c9	 test	 cx, cx

; 4928 : 		{
; 4929 : 			buf[n+0]=-1;
; 4930 : 			buf[n+1]=-1;
; 4931 : 			buf[n+2]=-1;
; 4932 : 			buf[n+3]=-1;
; 4933 : 			buf[n+4]=-1;
; 4934 : 			buf[n+5]=-1;
; 4935 : 			buf[n+6]=-1;
; 4936 : 			buf[n+7]=-1;
; 4937 : 			buf[n+8]=-1;
; 4938 : 			buf[n+9]=-1;
; 4939 : 			buf[n+10]=-1;
; 4940 : 			buf[n+11]=-1;
; 4941 : 			buf[n+12]=-1;
; 4942 : 			buf[n+13]=-1;
; 4943 : 			buf[n+14]=-1;
; 4944 : 			buf[n+15]=-1;
; 4945 : 			n+=16;
; 4946 : 		}
; 4947 : 		else

  00078	78 cd		 js	 SHORT $LN23@ItemByteCo@6

; 4948 : 		{
; 4949 : 			memset(buf+n, 0, 16);

  0007a	33 c0		 xor	 eax, eax
  0007c	89 04 3e	 mov	 DWORD PTR [esi+edi], eax
  0007f	89 44 3e 04	 mov	 DWORD PTR [esi+edi+4], eax
  00083	89 44 3e 08	 mov	 DWORD PTR [esi+edi+8], eax
  00087	89 44 3e 0c	 mov	 DWORD PTR [esi+edi+12], eax

; 4950 : 			buf[n] = (BYTE)item[index].m_Type % 256;

  0008b	0f b6 0b	 movzx	 ecx, BYTE PTR [ebx]
  0008e	81 e1 ff 00 00
	80		 and	 ecx, -2147483393	; 800000ffH
  00094	79 08		 jns	 SHORT $LN21@ItemByteCo@6
  00096	49		 dec	 ecx
  00097	81 c9 00 ff ff
	ff		 or	 ecx, -256		; ffffff00H
  0009d	41		 inc	 ecx
$LN21@ItemByteCo@6:
  0009e	88 0c 3e	 mov	 BYTE PTR [esi+edi], cl

; 4951 : 			n++;
; 4952 : 			buf[n]=0;
; 4953 : 			buf[n] |= item[index].m_Level * 8;
; 4954 : 			buf[n] |= item[index].m_Option1 * 128;
; 4955 : 			buf[n] |= item[index].m_Option2 * 4;
; 4956 : 			buf[n] |= item[index].m_Option3 & 3;
; 4957 : 			n++;
; 4958 : 			buf[n] = (BYTE)item[index].m_Durability;

  000a1	d9 7d 12	 fnstcw	 WORD PTR tv1607[ebp]
  000a4	88 44 3e 01	 mov	 BYTE PTR [esi+edi+1], al
  000a8	8a 4b 02	 mov	 cl, BYTE PTR [ebx+2]
  000ab	02 c9		 add	 cl, cl
  000ad	02 c9		 add	 cl, cl
  000af	02 c9		 add	 cl, cl
  000b1	88 4c 3e 01	 mov	 BYTE PTR [esi+edi+1], cl
  000b5	8a 83 8e 00 00
	00		 mov	 al, BYTE PTR [ebx+142]
  000bb	c0 e0 07	 shl	 al, 7
  000be	0a c1		 or	 al, cl
  000c0	88 44 3e 01	 mov	 BYTE PTR [esi+edi+1], al
  000c4	8a 8b 8f 00 00
	00		 mov	 cl, BYTE PTR [ebx+143]
  000ca	02 c9		 add	 cl, cl
  000cc	02 c9		 add	 cl, cl
  000ce	0a c8		 or	 cl, al
  000d0	0f b7 45 12	 movzx	 eax, WORD PTR tv1607[ebp]
  000d4	88 4c 3e 01	 mov	 BYTE PTR [esi+edi+1], cl
  000d8	8a 93 90 00 00
	00		 mov	 dl, BYTE PTR [ebx+144]
  000de	0d 00 0c 00 00	 or	 eax, 3072		; 00000c00H
  000e3	89 45 f8	 mov	 DWORD PTR tv1604[ebp], eax
  000e6	80 e2 03	 and	 dl, 3
  000e9	0a d1		 or	 dl, cl
  000eb	88 54 3e 01	 mov	 BYTE PTR [esi+edi+1], dl
  000ef	d9 43 1e	 fld	 DWORD PTR [ebx+30]
  000f2	d9 6d f8	 fldcw	 WORD PTR tv1604[ebp]
  000f5	db 5d f8	 fistp	 DWORD PTR tv1602[ebp]
  000f8	0f b6 45 f8	 movzx	 eax, BYTE PTR tv1602[ebp]
  000fc	88 44 3e 02	 mov	 BYTE PTR [esi+edi+2], al

; 4959 : 			n++;
; 4960 : 			hiWord = item[index].m_Number >> 16;

  00100	0f b7 43 fc	 movzx	 eax, WORD PTR [ebx-4]
  00104	d9 6d 12	 fldcw	 WORD PTR tv1607[ebp]

; 4961 : 			loWord = item[index].m_Number  & 0xFFFF;

  00107	0f b7 4b fa	 movzx	 ecx, WORD PTR [ebx-6]

; 4962 : 			buf[n] = SET_NUMBERH(hiWord);

  0010b	8b d0		 mov	 edx, eax
  0010d	c1 ea 08	 shr	 edx, 8
  00110	88 54 3e 03	 mov	 BYTE PTR [esi+edi+3], dl

; 4963 : 			n++;
; 4964 : 			buf[n] = SET_NUMBERL(hiWord);

  00114	88 44 3e 04	 mov	 BYTE PTR [esi+edi+4], al

; 4965 : 			n++;
; 4966 : 			buf[n] = SET_NUMBERH(loWord);

  00118	8b c1		 mov	 eax, ecx
  0011a	c1 e8 08	 shr	 eax, 8
  0011d	88 44 3e 05	 mov	 BYTE PTR [esi+edi+5], al

; 4967 : 			n++;
; 4968 : 			buf[n] = SET_NUMBERL(loWord);

  00121	88 4c 3e 06	 mov	 BYTE PTR [esi+edi+6], cl

; 4969 : 			n++;
; 4970 : 			buf[n] = 0;

  00125	c6 44 3e 07 00	 mov	 BYTE PTR [esi+edi+7], 0

; 4971 : 			BYTE btItemType=0;
; 4972 : 			btItemType |= (item[index].m_Type & 0x1E00 ) >> 5;

  0012a	0f b7 03	 movzx	 eax, WORD PTR [ebx]
  0012d	8b c8		 mov	 ecx, eax

; 4973 : 			buf[n] |= ((item[index].m_Type & 0x100) >> 1);

  0012f	d1 f8		 sar	 eax, 1
  00131	c1 f9 05	 sar	 ecx, 5
  00134	24 80		 and	 al, 128			; 00000080H
  00136	80 e1 f0	 and	 cl, 240			; 000000f0H
  00139	88 44 3e 07	 mov	 BYTE PTR [esi+edi+7], al

; 4974 : 
; 4975 : 			if ( item[index].m_Option3 > 3 )

  0013d	80 bb 90 00 00
	00 03		 cmp	 BYTE PTR [ebx+144], 3
  00144	76 06		 jbe	 SHORT $LN3@ItemByteCo@6

; 4976 : 			{
; 4977 : 				buf[n] |= 0x40; // item +16 option

  00146	0c 40		 or	 al, 64			; 00000040H
  00148	88 44 3e 07	 mov	 BYTE PTR [esi+edi+7], al
$LN3@ItemByteCo@6:

; 4978 : 			}
; 4979 : 
; 4980 : 			buf[n] |= item[index].m_NewOption;

  0014c	8a 93 91 00 00
	00		 mov	 dl, BYTE PTR [ebx+145]
  00152	08 54 3e 07	 or	 BYTE PTR [esi+edi+7], dl

; 4981 : 			n++;
; 4982 : 			buf[n] = item[index].m_SetOption;

  00156	0f b6 83 a8 00
	00 00		 movzx	 eax, BYTE PTR [ebx+168]
  0015d	88 44 3e 08	 mov	 BYTE PTR [esi+edi+8], al

; 4983 : 			n++;
; 4984 : 			buf[n] = 0;
; 4985 : 			buf[n] |= btItemType;

  00161	88 4c 3e 09	 mov	 BYTE PTR [esi+edi+9], cl

; 4986 : 			BYTE btItemEffectFor380 = 0;
; 4987 : 			btItemEffectFor380 = (item[index].m_ItemOptionEx & 0x80 ) >> 4;
; 4988 : 			buf[n] |= btItemEffectFor380;

  00165	8a 83 c4 00 00
	00		 mov	 al, BYTE PTR [ebx+196]
  0016b	c0 e8 04	 shr	 al, 4
  0016e	24 08		 and	 al, 8
  00170	0a c1		 or	 al, cl
  00172	88 44 3e 09	 mov	 BYTE PTR [esi+edi+9], al

; 4989 : 
; 4990 : #ifdef PERIOD
; 4991 : 			BYTE btPartialyChargeOption = 0;
; 4992 : 			btPartialyChargeOption = item[index].m_PeriodItemOption << 1;

  00176	8a 8b cc 00 00
	00		 mov	 cl, BYTE PTR [ebx+204]
  0017c	02 c9		 add	 cl, cl

; 4993 : 			buf[n] |= btPartialyChargeOption;

  0017e	0a c8		 or	 cl, al
  00180	88 4c 3e 09	 mov	 BYTE PTR [esi+edi+9], cl

; 4994 : #endif
; 4995 : 
; 4996 : 			n++;
; 4997 : 			
; 4998 : 			if ( item[index].m_JewelOfHarmonyOption == 0xFF )

  00184	80 bb be 00 00
	00 ff		 cmp	 BYTE PTR [ebx+190], 255	; 000000ffH
  0018b	75 07		 jne	 SHORT $LN2@ItemByteCo@6

; 4999 : 				item[index].m_JewelOfHarmonyOption = 0;

  0018d	c6 83 be 00 00
	00 00		 mov	 BYTE PTR [ebx+190], 0
$LN2@ItemByteCo@6:

; 5000 : 
; 5001 : 			buf[n] = item[index].m_JewelOfHarmonyOption;

  00194	8a 93 be 00 00
	00		 mov	 dl, BYTE PTR [ebx+190]

; 5002 : 
; 5003 : 			//Season4 add-on
; 5004 : 			if(g_SocketOption.IsSocketOption(&item[index]) == 1){buf[n] = item[index].m_SocketOptionIndex;}

  0019a	8d 43 fa	 lea	 eax, DWORD PTR [ebx-6]
  0019d	50		 push	 eax
  0019e	b9 00 00 00 00	 mov	 ecx, OFFSET ?g_SocketOption@@3VCSocketOption@@A ; g_SocketOption
  001a3	88 54 3e 0a	 mov	 BYTE PTR [esi+edi+10], dl
  001a7	e8 00 00 00 00	 call	 ?IsSocketOption@CSocketOption@@QAEEPAVCItem@@@Z ; CSocketOption::IsSocketOption
  001ac	3c 01		 cmp	 al, 1
  001ae	75 0a		 jne	 SHORT $LN1@ItemByteCo@6
  001b0	8a 83 c5 00 00
	00		 mov	 al, BYTE PTR [ebx+197]
  001b6	88 44 3e 0a	 mov	 BYTE PTR [esi+edi+10], al
$LN1@ItemByteCo@6:

; 5005 : 			n++;
; 5006 : 			buf[n] = item[index].m_SocketOption[0];

  001ba	0f b6 8b c6 00
	00 00		 movzx	 ecx, BYTE PTR [ebx+198]
  001c1	88 4c 3e 0b	 mov	 BYTE PTR [esi+edi+11], cl

; 5007 : 			n++;
; 5008 : 			buf[n] = item[index].m_SocketOption[1];

  001c5	0f b6 93 c7 00
	00 00		 movzx	 edx, BYTE PTR [ebx+199]
  001cc	88 54 3e 0c	 mov	 BYTE PTR [esi+edi+12], dl

; 5009 : 			n++;
; 5010 : 			buf[n] = item[index].m_SocketOption[2];

  001d0	8a 83 c8 00 00
	00		 mov	 al, BYTE PTR [ebx+200]
  001d6	88 44 3e 0d	 mov	 BYTE PTR [esi+edi+13], al

; 5011 : 			n++;
; 5012 : 			buf[n] = item[index].m_SocketOption[3];

  001da	0f b6 8b c9 00
	00 00		 movzx	 ecx, BYTE PTR [ebx+201]
  001e1	88 4c 3e 0e	 mov	 BYTE PTR [esi+edi+14], cl

; 5013 : 			n++;
; 5014 : 			buf[n] = item[index].m_SocketOption[4];

  001e5	0f b6 93 ca 00
	00 00		 movzx	 edx, BYTE PTR [ebx+202]
  001ec	88 54 3e 0f	 mov	 BYTE PTR [esi+edi+15], dl
$LN22@ItemByteCo@6:

; 5015 : 			n++;

  001f0	83 c6 10	 add	 esi, 16			; 00000010H
  001f3	81 c3 d4 00 00
	00		 add	 ebx, 212		; 000000d4H
  001f9	ff 4d fc	 dec	 DWORD PTR tv301[ebp]
  001fc	0f 85 20 fe ff
	ff		 jne	 $LL19@ItemByteCo@6
  00202	5f		 pop	 edi
  00203	5b		 pop	 ebx
$LN9@ItemByteCo@6:
  00204	5e		 pop	 esi

; 5016 : 		}
; 5017 : 	}
; 5018 : }

  00205	8b e5		 mov	 esp, ebp
  00207	5d		 pop	 ebp
  00208	c3		 ret	 0
?ItemByteConvert16@@YAXPAEQAVCItem@@H@Z ENDP		; ItemByteConvert16
_TEXT	ENDS
PUBLIC	?ItemGetNumberMake@@YAHHH@Z			; ItemGetNumberMake
; Function compile flags: /Ogtp
;	COMDAT ?ItemGetNumberMake@@YAHHH@Z
_TEXT	SEGMENT
_type$ = 8						; size = 4
_index$ = 12						; size = 4
?ItemGetNumberMake@@YAHHH@Z PROC			; ItemGetNumberMake, COMDAT

; 5021 : {

  00000	55		 push	 ebp
  00001	8b ec		 mov	 ebp, esp

; 5022 : 	int make;
; 5023 : 
; 5024 : 	make = type*MAX_SUBTYPE_ITEMS + index;

  00003	8b 45 08	 mov	 eax, DWORD PTR _type$[ebp]
  00006	c1 e0 09	 shl	 eax, 9
  00009	03 45 0c	 add	 eax, DWORD PTR _index$[ebp]

; 5025 : 
; 5026 : 	if (ItemAttribute[make].Width < 1 ||  ItemAttribute[make].Height < 1)

  0000c	b2 01		 mov	 dl, 1
  0000e	8b c8		 mov	 ecx, eax
  00010	6b c9 70	 imul	 ecx, 112		; 00000070H
  00013	38 91 23 00 00
	00		 cmp	 BYTE PTR ?ItemAttribute@@3PAUITEM_ATTRIBUTE@@A[ecx+35], dl
  00019	72 08		 jb	 SHORT $LN1@ItemGetNum
  0001b	38 91 24 00 00
	00		 cmp	 BYTE PTR ?ItemAttribute@@3PAUITEM_ATTRIBUTE@@A[ecx+36], dl

; 5029 : 	}
; 5030 : 	return make;

  00021	73 03		 jae	 SHORT $LN3@ItemGetNum
$LN1@ItemGetNum:

; 5027 : 	{
; 5028 : 		return -1;

  00023	83 c8 ff	 or	 eax, -1
$LN3@ItemGetNum:

; 5031 : }

  00026	5d		 pop	 ebp
  00027	c3		 ret	 0
?ItemGetNumberMake@@YAHHH@Z ENDP			; ItemGetNumberMake
_TEXT	ENDS
PUBLIC	?ItemGetSize@@YAXHAAH0@Z			; ItemGetSize
; Function compile flags: /Ogtp
;	COMDAT ?ItemGetSize@@YAXHAAH0@Z
_TEXT	SEGMENT
_index$ = 8						; size = 4
_width$ = 12						; size = 4
_height$ = 16						; size = 4
?ItemGetSize@@YAXHAAH0@Z PROC				; ItemGetSize, COMDAT

; 5034 : {

  00000	55		 push	 ebp
  00001	8b ec		 mov	 ebp, esp

; 5035 : 	width = ItemAttribute[index].Width;

  00003	8b 45 08	 mov	 eax, DWORD PTR _index$[ebp]
  00006	8b 55 0c	 mov	 edx, DWORD PTR _width$[ebp]
  00009	6b c0 70	 imul	 eax, 112		; 00000070H
  0000c	0f b6 88 23 00
	00 00		 movzx	 ecx, BYTE PTR ?ItemAttribute@@3PAUITEM_ATTRIBUTE@@A[eax+35]
  00013	89 0a		 mov	 DWORD PTR [edx], ecx

; 5036 : 	height = ItemAttribute[index].Height;

  00015	0f b6 80 24 00
	00 00		 movzx	 eax, BYTE PTR ?ItemAttribute@@3PAUITEM_ATTRIBUTE@@A[eax+36]
  0001c	8b 4d 10	 mov	 ecx, DWORD PTR _height$[ebp]
  0001f	89 01		 mov	 DWORD PTR [ecx], eax

; 5037 : }

  00021	5d		 pop	 ebp
  00022	c3		 ret	 0
?ItemGetSize@@YAXHAAH0@Z ENDP				; ItemGetSize
_TEXT	ENDS
PUBLIC	?HasItemDurability@@YAHH@Z			; HasItemDurability
; Function compile flags: /Ogtp
;	COMDAT ?HasItemDurability@@YAHH@Z
_TEXT	SEGMENT
_index$ = 8						; size = 4
?HasItemDurability@@YAHH@Z PROC				; HasItemDurability, COMDAT

; 5040 : {

  00000	55		 push	 ebp
  00001	8b ec		 mov	 ebp, esp

; 5041 : 	if ( ItemAttribute[index].Durability == 0 && ItemAttribute[index].MagicDurability == 0)

  00003	8b 45 08	 mov	 eax, DWORD PTR _index$[ebp]
  00006	6b c0 70	 imul	 eax, 112		; 00000070H
  00009	80 b8 30 00 00
	00 00		 cmp	 BYTE PTR ?ItemAttribute@@3PAUITEM_ATTRIBUTE@@A[eax+48], 0
  00010	75 0d		 jne	 SHORT $LN1@HasItemDur
  00012	80 b8 31 00 00
	00 00		 cmp	 BYTE PTR ?ItemAttribute@@3PAUITEM_ATTRIBUTE@@A[eax+49], 0
  00019	75 04		 jne	 SHORT $LN1@HasItemDur

; 5042 : 	{
; 5043 : 		return FALSE; 

  0001b	33 c0		 xor	 eax, eax

; 5047 : }

  0001d	5d		 pop	 ebp
  0001e	c3		 ret	 0
$LN1@HasItemDur:

; 5044 : 	}
; 5045 : 	
; 5046 : 	return TRUE;

  0001f	b8 01 00 00 00	 mov	 eax, 1

; 5047 : }

  00024	5d		 pop	 ebp
  00025	c3		 ret	 0
?HasItemDurability@@YAHH@Z ENDP				; HasItemDurability
_TEXT	ENDS
PUBLIC	?ItemGetDurability@@YAHHHHH@Z			; ItemGetDurability
; Function compile flags: /Ogtp
;	COMDAT ?ItemGetDurability@@YAHHHHH@Z
_TEXT	SEGMENT
_index$ = 8						; size = 4
_itemLevel$ = 12					; size = 4
_ExcellentItem$ = 16					; size = 4
_SetItem$ = 20						; size = 4
?ItemGetDurability@@YAHHHHH@Z PROC			; ItemGetDurability, COMDAT

; 5050 : {

  00000	55		 push	 ebp
  00001	8b ec		 mov	 ebp, esp

; 5051 : 
; 5052 : 	if ( index == ITEMGET(14,21) && itemLevel == 3 )	// Mark Lord

  00003	8b 4d 08	 mov	 ecx, DWORD PTR _index$[ebp]
  00006	8b 55 0c	 mov	 edx, DWORD PTR _itemLevel$[ebp]
  00009	81 f9 15 1c 00
	00		 cmp	 ecx, 7189		; 00001c15H
  0000f	75 1a		 jne	 SHORT $LN25@ItemGetDur
  00011	83 fa 03	 cmp	 edx, 3
  00014	75 2c		 jne	 SHORT $LN23@ItemGetDur

; 5064 : 	{
; 5065 : 		dur= ItemAttribute[index].Durability + itemLevel;

  00016	8b c1		 mov	 eax, ecx
  00018	6b c0 70	 imul	 eax, 112		; 00000070H
  0001b	0f b6 80 30 00
	00 00		 movzx	 eax, BYTE PTR ?ItemAttribute@@3PAUITEM_ATTRIBUTE@@A[eax+48]
  00022	33 d2		 xor	 edx, edx
  00024	03 c2		 add	 eax, edx
  00026	e9 b7 00 00 00	 jmp	 $LN8@ItemGetDur
$LN25@ItemGetDur:

; 5053 : 		itemLevel=0;
; 5054 : 	
; 5055 : 	if ( index == ITEMGET(14,29) )

  0002b	81 f9 1d 1c 00
	00		 cmp	 ecx, 7197		; 00001c1dH
  00031	75 07		 jne	 SHORT $LN24@ItemGetDur
$LN56@ItemGetDur:

; 5056 : 		return 1;

  00033	b8 01 00 00 00	 mov	 eax, 1

; 5143 : 
; 5144 : 	return dur;
; 5145 : }

  00038	5d		 pop	 ebp
  00039	c3		 ret	 0
$LN24@ItemGetDur:

; 5057 : 
; 5058 : 	if ( index == ITEMGET(14,100) ) //season 4.5 lucky coin add-on

  0003a	81 f9 64 1c 00
	00		 cmp	 ecx, 7268		; 00001c64H

; 5059 : 		return 1;

  00040	74 f1		 je	 SHORT $LN56@ItemGetDur
$LN23@ItemGetDur:

; 5060 : 
; 5061 : 	int dur=0;
; 5062 : 
; 5063 : 	if ( itemLevel < 5)

  00042	83 fa 05	 cmp	 edx, 5
  00045	7d 13		 jge	 SHORT $LN36@ItemGetDur

; 5064 : 	{
; 5065 : 		dur= ItemAttribute[index].Durability + itemLevel;

  00047	8b c1		 mov	 eax, ecx
  00049	6b c0 70	 imul	 eax, 112		; 00000070H
  0004c	0f b6 80 30 00
	00 00		 movzx	 eax, BYTE PTR ?ItemAttribute@@3PAUITEM_ATTRIBUTE@@A[eax+48]
  00053	03 c2		 add	 eax, edx
  00055	e9 88 00 00 00	 jmp	 $LN8@ItemGetDur
$LN36@ItemGetDur:

; 5066 : 	}
; 5067 : 	else if ( itemLevel >= 5 )
; 5068 : 	{
; 5069 : 		if ( itemLevel == 10 )

  0005a	83 fa 0a	 cmp	 edx, 10			; 0000000aH
  0005d	75 11		 jne	 SHORT $LN19@ItemGetDur

; 5070 : 		{
; 5071 : 			dur=ItemAttribute[index].Durability + itemLevel*2-3;

  0005f	8b d1		 mov	 edx, ecx
  00061	6b d2 70	 imul	 edx, 112		; 00000070H
  00064	0f b6 82 30 00
	00 00		 movzx	 eax, BYTE PTR ?ItemAttribute@@3PAUITEM_ATTRIBUTE@@A[edx+48]
  0006b	83 c0 11	 add	 eax, 17			; 00000011H
  0006e	eb 72		 jmp	 SHORT $LN8@ItemGetDur
$LN19@ItemGetDur:

; 5072 : 		}
; 5073 : 		else if (itemLevel == 11 )

  00070	83 fa 0b	 cmp	 edx, 11			; 0000000bH
  00073	75 11		 jne	 SHORT $LN17@ItemGetDur

; 5074 : 		{
; 5075 : 			dur=ItemAttribute[index].Durability + itemLevel*2-1;

  00075	8b c1		 mov	 eax, ecx
  00077	6b c0 70	 imul	 eax, 112		; 00000070H
  0007a	0f b6 80 30 00
	00 00		 movzx	 eax, BYTE PTR ?ItemAttribute@@3PAUITEM_ATTRIBUTE@@A[eax+48]
  00081	83 c0 15	 add	 eax, 21			; 00000015H
  00084	eb 5c		 jmp	 SHORT $LN8@ItemGetDur
$LN17@ItemGetDur:

; 5076 : 		}
; 5077 : 		else if (itemLevel == 12 )

  00086	83 fa 0c	 cmp	 edx, 12			; 0000000cH
  00089	75 11		 jne	 SHORT $LN15@ItemGetDur

; 5078 : 		{
; 5079 : 			dur=ItemAttribute[index].Durability + itemLevel*2+2;

  0008b	8b d1		 mov	 edx, ecx
  0008d	6b d2 70	 imul	 edx, 112		; 00000070H
  00090	0f b6 82 30 00
	00 00		 movzx	 eax, BYTE PTR ?ItemAttribute@@3PAUITEM_ATTRIBUTE@@A[edx+48]
  00097	83 c0 1a	 add	 eax, 26			; 0000001aH
  0009a	eb 46		 jmp	 SHORT $LN8@ItemGetDur
$LN15@ItemGetDur:

; 5080 : 		}
; 5081 : 		else if (itemLevel == 13 )

  0009c	83 fa 0d	 cmp	 edx, 13			; 0000000dH
  0009f	75 11		 jne	 SHORT $LN13@ItemGetDur

; 5082 : 		{
; 5083 : 			dur=ItemAttribute[index].Durability + itemLevel*2+6;

  000a1	8b c1		 mov	 eax, ecx
  000a3	6b c0 70	 imul	 eax, 112		; 00000070H
  000a6	0f b6 80 30 00
	00 00		 movzx	 eax, BYTE PTR ?ItemAttribute@@3PAUITEM_ATTRIBUTE@@A[eax+48]
  000ad	83 c0 20	 add	 eax, 32			; 00000020H
  000b0	eb 30		 jmp	 SHORT $LN8@ItemGetDur
$LN13@ItemGetDur:

; 5084 : 		}
; 5085 : 		else if (itemLevel == 14 )

  000b2	83 fa 0e	 cmp	 edx, 14			; 0000000eH
  000b5	75 11		 jne	 SHORT $LN11@ItemGetDur

; 5086 : 		{
; 5087 : 			dur=ItemAttribute[index].Durability + 39;

  000b7	8b d1		 mov	 edx, ecx
  000b9	6b d2 70	 imul	 edx, 112		; 00000070H
  000bc	0f b6 82 30 00
	00 00		 movzx	 eax, BYTE PTR ?ItemAttribute@@3PAUITEM_ATTRIBUTE@@A[edx+48]
  000c3	83 c0 27	 add	 eax, 39			; 00000027H
  000c6	eb 1a		 jmp	 SHORT $LN8@ItemGetDur
$LN11@ItemGetDur:

; 5088 : 		}
; 5089 : 		else if (itemLevel == 15 )
; 5090 : 		{
; 5091 : 			dur=ItemAttribute[index].Durability + 47;

  000c8	8b c1		 mov	 eax, ecx
  000ca	6b c0 70	 imul	 eax, 112		; 00000070H
  000cd	0f b6 80 30 00
	00 00		 movzx	 eax, BYTE PTR ?ItemAttribute@@3PAUITEM_ATTRIBUTE@@A[eax+48]
  000d4	83 fa 0f	 cmp	 edx, 15			; 0000000fH
  000d7	75 05		 jne	 SHORT $LN9@ItemGetDur
  000d9	83 c0 2f	 add	 eax, 47			; 0000002fH

; 5092 : 		}
; 5093 : 		else

  000dc	eb 04		 jmp	 SHORT $LN8@ItemGetDur
$LN9@ItemGetDur:

; 5094 : 		{
; 5095 : 			dur=ItemAttribute[index].Durability + itemLevel*2-4;

  000de	8d 44 50 fc	 lea	 eax, DWORD PTR [eax+edx*2-4]
$LN8@ItemGetDur:

; 5096 : 		}
; 5097 : 	}
; 5098 : 
; 5099 : 	
; 5100 : 	if( index == ITEMGET(13,51) ) //Season 2.5 Illusion Temple Blood Scroll Ticket

  000e2	81 f9 33 1a 00
	00		 cmp	 ecx, 6707		; 00001a33H
  000e8	75 0a		 jne	 SHORT $LN7@ItemGetDur

; 5101 : 	{
; 5102 : 		dur = 1;

  000ea	b8 01 00 00 00	 mov	 eax, 1

; 5103 : 	}
; 5104 : 	
; 5105 : 	if ( (index < ITEMGET(12,3) || index > ITEMGET(12,6) ) &&
; 5106 : 		  index != ITEMGET(0,19) &&
; 5107 : 		  index != ITEMGET(4,18) &&
; 5108 : 		  index != ITEMGET(5,10) &&
; 5109 : 		  index != ITEMGET(2,13) &&
; 5110 : 		  index != ITEMGET(13,30) &&
; 5111 : 		  index != ITEMGET(12,36) &&
; 5112 : 		  index != ITEMGET(12,37) &&
; 5113 : 		  index != ITEMGET(12,38) &&
; 5114 : 		  index != ITEMGET(12,39) &&
; 5115 : 		  index != ITEMGET(12,40) &&
; 5116 : 		  index != ITEMGET(12,41) &&
; 5117 : 		  index != ITEMGET(12,42) &&
; 5118 : 		  index != ITEMGET(12,43)
; 5119 : #ifdef NEWWINGS_2_5
; 5120 : 		  && !IS_NEWWINGS_2_5(index)
; 5121 : #endif
; 5122 : #ifdef NEWWINGS_4
; 5123 : 		  && !IS_NEWWINGS_4(index)
; 5124 : #endif
; 5125 : #ifdef NEWWINGS_5
; 5126 : 		  && !IS_NEWWINGS_5(index)
; 5127 : #endif
; 5128 : #ifdef NEWWINGS_6
; 5129 : 		  && !IS_NEWWINGS_6(index)
; 5130 : #endif
; 5131 : 		  )

  000ef	e9 ad 00 00 00	 jmp	 $LN28@ItemGetDur
$LN7@ItemGetDur:
  000f4	81 f9 03 18 00
	00		 cmp	 ecx, 6147		; 00001803H
  000fa	7c 0c		 jl	 SHORT $LN5@ItemGetDur
  000fc	81 f9 06 18 00
	00		 cmp	 ecx, 6150		; 00001806H
  00102	0f 8e 03 01 00
	00		 jle	 $LN2@ItemGetDur
$LN5@ItemGetDur:
  00108	83 f9 13	 cmp	 ecx, 19			; 00000013H
  0010b	0f 84 fa 00 00
	00		 je	 $LN2@ItemGetDur
  00111	81 f9 12 08 00
	00		 cmp	 ecx, 2066		; 00000812H
  00117	0f 84 ee 00 00
	00		 je	 $LN2@ItemGetDur
  0011d	81 f9 0a 0a 00
	00		 cmp	 ecx, 2570		; 00000a0aH
  00123	0f 84 e2 00 00
	00		 je	 $LN2@ItemGetDur
  00129	81 f9 0d 04 00
	00		 cmp	 ecx, 1037		; 0000040dH
  0012f	0f 84 d6 00 00
	00		 je	 $LN2@ItemGetDur
  00135	81 f9 1e 1a 00
	00		 cmp	 ecx, 6686		; 00001a1eH
  0013b	0f 84 ca 00 00
	00		 je	 $LN2@ItemGetDur
  00141	81 f9 24 18 00
	00		 cmp	 ecx, 6180		; 00001824H
  00147	0f 84 be 00 00
	00		 je	 $LN2@ItemGetDur
  0014d	81 f9 25 18 00
	00		 cmp	 ecx, 6181		; 00001825H
  00153	0f 84 b2 00 00
	00		 je	 $LN2@ItemGetDur
  00159	81 f9 26 18 00
	00		 cmp	 ecx, 6182		; 00001826H
  0015f	0f 84 a6 00 00
	00		 je	 $LN2@ItemGetDur
  00165	81 f9 27 18 00
	00		 cmp	 ecx, 6183		; 00001827H
  0016b	0f 84 9a 00 00
	00		 je	 $LN2@ItemGetDur
  00171	81 f9 28 18 00
	00		 cmp	 ecx, 6184		; 00001828H
  00177	0f 84 8e 00 00
	00		 je	 $LN2@ItemGetDur
  0017d	81 f9 29 18 00
	00		 cmp	 ecx, 6185		; 00001829H
  00183	0f 84 82 00 00
	00		 je	 $LN2@ItemGetDur
  00189	81 f9 2a 18 00
	00		 cmp	 ecx, 6186		; 0000182aH
  0018f	74 7a		 je	 SHORT $LN2@ItemGetDur
  00191	81 f9 2b 18 00
	00		 cmp	 ecx, 6187		; 0000182bH
  00197	74 72		 je	 SHORT $LN2@ItemGetDur
  00199	81 f9 ba 18 00
	00		 cmp	 ecx, 6330		; 000018baH
  0019f	7c 0f		 jl	 SHORT $LN52@ItemGetDur
$LN28@ItemGetDur:
  001a1	33 d2		 xor	 edx, edx
  001a3	81 f9 bc 18 00
	00		 cmp	 ecx, 6332		; 000018bcH
  001a9	0f 9e c2	 setle	 dl
  001ac	85 d2		 test	 edx, edx
  001ae	75 5b		 jne	 SHORT $LN2@ItemGetDur
$LN52@ItemGetDur:
  001b0	81 f9 b4 18 00
	00		 cmp	 ecx, 6324		; 000018b4H
  001b6	7c 0f		 jl	 SHORT $LN53@ItemGetDur
  001b8	33 d2		 xor	 edx, edx
  001ba	81 f9 b9 18 00
	00		 cmp	 ecx, 6329		; 000018b9H
  001c0	0f 9e c2	 setle	 dl
  001c3	85 d2		 test	 edx, edx
  001c5	75 44		 jne	 SHORT $LN2@ItemGetDur
$LN53@ItemGetDur:
  001c7	81 f9 bd 18 00
	00		 cmp	 ecx, 6333		; 000018bdH
  001cd	7c 0f		 jl	 SHORT $LN54@ItemGetDur
  001cf	33 d2		 xor	 edx, edx
  001d1	81 f9 c2 18 00
	00		 cmp	 ecx, 6338		; 000018c2H
  001d7	0f 9e c2	 setle	 dl
  001da	85 d2		 test	 edx, edx
  001dc	75 2d		 jne	 SHORT $LN2@ItemGetDur
$LN54@ItemGetDur:
  001de	81 f9 c3 18 00
	00		 cmp	 ecx, 6339		; 000018c3H
  001e4	7c 11		 jl	 SHORT $LN55@ItemGetDur
  001e6	33 d2		 xor	 edx, edx
  001e8	81 f9 dc 18 00
	00		 cmp	 ecx, 6364		; 000018dcH
  001ee	0f 9e c2	 setle	 dl
  001f1	8b ca		 mov	 ecx, edx
  001f3	85 c9		 test	 ecx, ecx
  001f5	75 14		 jne	 SHORT $LN2@ItemGetDur
$LN55@ItemGetDur:

; 5132 : 	{
; 5133 : 		if ( SetItem != 0 )

  001f7	83 7d 14 00	 cmp	 DWORD PTR _SetItem$[ebp], 0
  001fb	74 05		 je	 SHORT $LN4@ItemGetDur

; 5134 : 			dur +=20;

  001fd	83 c0 14	 add	 eax, 20			; 00000014H
  00200	eb 09		 jmp	 SHORT $LN2@ItemGetDur
$LN4@ItemGetDur:

; 5135 : 		else if ( ExcellentItem != 0 ) // Prevent duple if items

  00202	83 7d 10 00	 cmp	 DWORD PTR _ExcellentItem$[ebp], 0
  00206	74 03		 je	 SHORT $LN2@ItemGetDur

; 5136 : 			dur +=15;

  00208	83 c0 0f	 add	 eax, 15			; 0000000fH
$LN2@ItemGetDur:

; 5137 : 	}
; 5138 : 
; 5139 : 	//LogAddC(2,"Durability: %d, ExcellentItem: %d",dur, ExcellentItem);
; 5140 : 
; 5141 : 	if ( dur > 255 )

  0020b	3d ff 00 00 00	 cmp	 eax, 255		; 000000ffH
  00210	7e 05		 jle	 SHORT $LN26@ItemGetDur

; 5142 : 		dur = 255;

  00212	b8 ff 00 00 00	 mov	 eax, 255		; 000000ffH
$LN26@ItemGetDur:

; 5143 : 
; 5144 : 	return dur;
; 5145 : }

  00217	5d		 pop	 ebp
  00218	c3		 ret	 0
?ItemGetDurability@@YAHHHHH@Z ENDP			; ItemGetDurability
_TEXT	ENDS
PUBLIC	?ItemGetAttackDurability@@YAHH@Z		; ItemGetAttackDurability
; Function compile flags: /Ogtp
;	COMDAT ?ItemGetAttackDurability@@YAHH@Z
_TEXT	SEGMENT
_index$ = 8						; size = 4
?ItemGetAttackDurability@@YAHH@Z PROC			; ItemGetAttackDurability, COMDAT

; 5148 : {

  00000	55		 push	 ebp
  00001	8b ec		 mov	 ebp, esp

; 5149 : 	return ItemAttribute[index].AttackDur;

  00003	8b 45 08	 mov	 eax, DWORD PTR _index$[ebp]
  00006	6b c0 70	 imul	 eax, 112		; 00000070H
  00009	0f b6 80 32 00
	00 00		 movzx	 eax, BYTE PTR ?ItemAttribute@@3PAUITEM_ATTRIBUTE@@A[eax+50]

; 5150 : }

  00010	5d		 pop	 ebp
  00011	c3		 ret	 0
?ItemGetAttackDurability@@YAHH@Z ENDP			; ItemGetAttackDurability
_TEXT	ENDS
PUBLIC	?ItemGetDefenseDurability@@YAHH@Z		; ItemGetDefenseDurability
; Function compile flags: /Ogtp
;	COMDAT ?ItemGetDefenseDurability@@YAHH@Z
_TEXT	SEGMENT
_index$ = 8						; size = 4
?ItemGetDefenseDurability@@YAHH@Z PROC			; ItemGetDefenseDurability, COMDAT

; 5153 : {

  00000	55		 push	 ebp
  00001	8b ec		 mov	 ebp, esp

; 5154 : 	return ItemAttribute[index].DefenceDur;

  00003	8b 45 08	 mov	 eax, DWORD PTR _index$[ebp]
  00006	6b c0 70	 imul	 eax, 112		; 00000070H
  00009	0f b6 80 33 00
	00 00		 movzx	 eax, BYTE PTR ?ItemAttribute@@3PAUITEM_ATTRIBUTE@@A[eax+51]

; 5155 : }

  00010	5d		 pop	 ebp
  00011	c3		 ret	 0
?ItemGetDefenseDurability@@YAHH@Z ENDP			; ItemGetDefenseDurability
_TEXT	ENDS
PUBLIC	?GetRepairItemRate@@YAMH@Z			; GetRepairItemRate
; Function compile flags: /Ogtp
;	COMDAT ?GetRepairItemRate@@YAMH@Z
_TEXT	SEGMENT
_index$ = 8						; size = 4
?GetRepairItemRate@@YAMH@Z PROC				; GetRepairItemRate, COMDAT

; 5158 : {

  00000	55		 push	 ebp
  00001	8b ec		 mov	 ebp, esp

; 5159 : 	return ItemAttribute[index].RepaireMoneyRate;

  00003	8b 45 08	 mov	 eax, DWORD PTR _index$[ebp]
  00006	6b c0 70	 imul	 eax, 112		; 00000070H
  00009	d9 80 58 00 00
	00		 fld	 DWORD PTR ?ItemAttribute@@3PAUITEM_ATTRIBUTE@@A[eax+88]

; 5160 : }

  0000f	5d		 pop	 ebp
  00010	c3		 ret	 0
?GetRepairItemRate@@YAMH@Z ENDP				; GetRepairItemRate
_TEXT	ENDS
PUBLIC	?GetAllRepairItemRate@@YAMH@Z			; GetAllRepairItemRate
; Function compile flags: /Ogtp
;	COMDAT ?GetAllRepairItemRate@@YAMH@Z
_TEXT	SEGMENT
_index$ = 8						; size = 4
?GetAllRepairItemRate@@YAMH@Z PROC			; GetAllRepairItemRate, COMDAT

; 5163 : {

  00000	55		 push	 ebp
  00001	8b ec		 mov	 ebp, esp

; 5164 : 	return ItemAttribute[index].AllRepaireMoneyRate;

  00003	8b 45 08	 mov	 eax, DWORD PTR _index$[ebp]
  00006	6b c0 70	 imul	 eax, 112		; 00000070H
  00009	d9 80 5c 00 00
	00		 fld	 DWORD PTR ?ItemAttribute@@3PAUITEM_ATTRIBUTE@@A[eax+92]

; 5165 : }

  0000f	5d		 pop	 ebp
  00010	c3		 ret	 0
?GetAllRepairItemRate@@YAMH@Z ENDP			; GetAllRepairItemRate
_TEXT	ENDS
PUBLIC	__real@3ecccccd
PUBLIC	__real@3dcccccd
PUBLIC	?CalRepairRate@@YAXHHPAUITEM_ATTRIBUTE@@@Z	; CalRepairRate
;	COMDAT __real@3ecccccd
CONST	SEGMENT
__real@3ecccccd DD 03ecccccdr			; 0.4
CONST	ENDS
;	COMDAT __real@3dcccccd
CONST	SEGMENT
__real@3dcccccd DD 03dcccccdr			; 0.1
; Function compile flags: /Ogtp
CONST	ENDS
;	COMDAT ?CalRepairRate@@YAXHHPAUITEM_ATTRIBUTE@@@Z
_TEXT	SEGMENT
_itemtype$ = 8						; size = 4
_itemsubtype$ = 12					; size = 4
_p$ = 16						; size = 4
?CalRepairRate@@YAXHHPAUITEM_ATTRIBUTE@@@Z PROC		; CalRepairRate, COMDAT

; 5168 : {

  00000	55		 push	 ebp
  00001	8b ec		 mov	 ebp, esp

; 5169 : 	p->RepaireMoneyRate = (float)0.1;

  00003	8b 45 10	 mov	 eax, DWORD PTR _p$[ebp]
  00006	d9 05 00 00 00
	00		 fld	 DWORD PTR __real@3dcccccd
  0000c	d9 58 58	 fstp	 DWORD PTR [eax+88]

; 5170 : 	p->AllRepaireMoneyRate = (float)0.4;

  0000f	d9 05 00 00 00
	00		 fld	 DWORD PTR __real@3ecccccd
  00015	d9 58 5c	 fstp	 DWORD PTR [eax+92]

; 5171 : }

  00018	5d		 pop	 ebp
  00019	c3		 ret	 0
?CalRepairRate@@YAXHHPAUITEM_ATTRIBUTE@@@Z ENDP		; CalRepairRate
_TEXT	ENDS
PUBLIC	??_C@_0DN@NLHNDLLL@Error?5?3?5Item?5Data?5fail?4?5?$CILoopCou@ ; `string'
PUBLIC	??_C@_03JBJLGPFL@end?$AA@			; `string'
PUBLIC	??_C@_01KDCPPGHE@r?$AA@				; `string'
PUBLIC	?OpenItemScript@@YAHPAD@Z			; OpenItemScript
EXTRN	_fclose:PROC
EXTRN	?MsgBox@@YAXPADZZ:PROC				; MsgBox
EXTRN	_fopen:PROC
;	COMDAT ??_C@_0DN@NLHNDLLL@Error?5?3?5Item?5Data?5fail?4?5?$CILoopCou@
CONST	SEGMENT
??_C@_0DN@NLHNDLLL@Error?5?3?5Item?5Data?5fail?4?5?$CILoopCou@ DB 'Error '
	DB	': Item Data fail. (LoopCount:%d) Item Type:%d Index %d', 00H ; `string'
CONST	ENDS
;	COMDAT ??_C@_03JBJLGPFL@end?$AA@
CONST	SEGMENT
??_C@_03JBJLGPFL@end?$AA@ DB 'end', 00H			; `string'
CONST	ENDS
;	COMDAT ??_C@_01KDCPPGHE@r?$AA@
CONST	SEGMENT
??_C@_01KDCPPGHE@r?$AA@ DB 'r', 00H			; `string'
; Function compile flags: /Ogtp
CONST	ENDS
;	COMDAT ?OpenItemScript@@YAHPAD@Z
_TEXT	SEGMENT
tv974 = -12						; size = 4
tv972 = -12						; size = 4
tv966 = -12						; size = 4
tv964 = -12						; size = 4
tv958 = -12						; size = 4
tv956 = -12						; size = 4
tv950 = -12						; size = 4
tv948 = -12						; size = 4
tv942 = -12						; size = 4
tv940 = -12						; size = 4
tv770 = -12						; size = 4
tv768 = -12						; size = 4
tv762 = -12						; size = 4
tv760 = -12						; size = 4
tv749 = -12						; size = 4
tv747 = -12						; size = 4
tv741 = -12						; size = 4
tv739 = -12						; size = 4
tv732 = -12						; size = 4
tv730 = -12						; size = 4
tv724 = -12						; size = 4
tv722 = -12						; size = 4
tv716 = -12						; size = 4
tv714 = -12						; size = 4
tv708 = -12						; size = 4
tv706 = -12						; size = 4
tv700 = -12						; size = 4
tv698 = -12						; size = 4
tv692 = -12						; size = 4
tv690 = -12						; size = 4
tv679 = -12						; size = 4
tv677 = -12						; size = 4
tv671 = -12						; size = 4
tv669 = -12						; size = 4
tv662 = -12						; size = 4
tv660 = -12						; size = 4
tv653 = -12						; size = 4
tv651 = -12						; size = 4
tv645 = -12						; size = 4
tv642 = -12						; size = 4
tv630 = -12						; size = 4
tv628 = -12						; size = 4
tv622 = -12						; size = 4
tv620 = -12						; size = 4
tv614 = -12						; size = 4
tv612 = -12						; size = 4
tv606 = -12						; size = 4
tv603 = -12						; size = 4
tv596 = -12						; size = 4
tv593 = -12						; size = 4
tv586 = -12						; size = 4
tv584 = -12						; size = 4
tv578 = -12						; size = 4
tv575 = -12						; size = 4
tv569 = -12						; size = 4
tv567 = -12						; size = 4
tv559 = -12						; size = 4
tv557 = -12						; size = 4
tv551 = -12						; size = 4
tv549 = -12						; size = 4
tv510 = -12						; size = 4
tv508 = -12						; size = 4
tv501 = -12						; size = 4
tv499 = -12						; size = 4
tv493 = -12						; size = 4
tv491 = -12						; size = 4
tv485 = -12						; size = 4
tv483 = -12						; size = 4
tv474 = -12						; size = 4
tv455 = -12						; size = 4
tv420 = -12						; size = 4
tv403 = -12						; size = 4
tv400 = -12						; size = 4
tv392 = -12						; size = 4
tv390 = -12						; size = 4
tv380 = -12						; size = 4
tv378 = -12						; size = 4
tv371 = -12						; size = 4
tv369 = -12						; size = 4
tv363 = -12						; size = 4
tv361 = -12						; size = 4
tv354 = -12						; size = 4
tv352 = -12						; size = 4
tv346 = -12						; size = 4
tv344 = -12						; size = 4
tv338 = -12						; size = 4
tv336 = -12						; size = 4
tv329 = -12						; size = 4
tv327 = -12						; size = 4
tv320 = -12						; size = 4
tv318 = -12						; size = 4
tv309 = -12						; size = 4
tv306 = -12						; size = 4
tv298 = -12						; size = 4
tv295 = -12						; size = 4
tv287 = -12						; size = 4
tv285 = -12						; size = 4
tv278 = -12						; size = 4
tv275 = -12						; size = 4
tv269 = -12						; size = 4
tv267 = -12						; size = 4
tv261 = -12						; size = 4
tv259 = -12						; size = 4
tv253 = -12						; size = 4
tv251 = -12						; size = 4
tv244 = -12						; size = 4
tv242 = -12						; size = 4
tv223 = -12						; size = 4
tv220 = -12						; size = 4
tv210 = -12						; size = 4
tv208 = -12						; size = 4
tv202 = -12						; size = 4
tv200 = -12						; size = 4
tv177 = -12						; size = 4
tv171 = -12						; size = 4
tv157 = -12						; size = 4
tv151 = -12						; size = 4
tv91 = -12						; size = 4
_loop_count$ = -8					; size = 4
tv969 = -2						; size = 2
tv961 = -2						; size = 2
tv953 = -2						; size = 2
tv945 = -2						; size = 2
tv773 = -2						; size = 2
tv765 = -2						; size = 2
tv752 = -2						; size = 2
tv744 = -2						; size = 2
tv735 = -2						; size = 2
tv727 = -2						; size = 2
tv719 = -2						; size = 2
tv711 = -2						; size = 2
tv703 = -2						; size = 2
tv695 = -2						; size = 2
tv682 = -2						; size = 2
tv674 = -2						; size = 2
tv665 = -2						; size = 2
tv656 = -2						; size = 2
tv648 = -2						; size = 2
tv633 = -2						; size = 2
tv625 = -2						; size = 2
tv617 = -2						; size = 2
tv609 = -2						; size = 2
tv599 = -2						; size = 2
tv590 = -2						; size = 2
tv581 = -2						; size = 2
tv572 = -2						; size = 2
tv563 = -2						; size = 2
tv554 = -2						; size = 2
tv546 = -2						; size = 2
tv504 = -2						; size = 2
tv496 = -2						; size = 2
tv488 = -2						; size = 2
tv480 = -2						; size = 2
tv407 = -2						; size = 2
tv396 = -2						; size = 2
tv384 = -2						; size = 2
tv374 = -2						; size = 2
tv366 = -2						; size = 2
tv357 = -2						; size = 2
tv349 = -2						; size = 2
tv341 = -2						; size = 2
tv333 = -2						; size = 2
tv324 = -2						; size = 2
tv312 = -2						; size = 2
tv302 = -2						; size = 2
tv291 = -2						; size = 2
tv281 = -2						; size = 2
tv272 = -2						; size = 2
tv264 = -2						; size = 2
tv256 = -2						; size = 2
tv247 = -2						; size = 2
tv227 = -2						; size = 2
tv215 = -2						; size = 2
tv205 = -2						; size = 2
tv186 = -2						; size = 2
tv164 = -2						; size = 2
tv142 = -2						; size = 2
tv136 = -2						; size = 2
_FileName$ = 8						; size = 4
?OpenItemScript@@YAHPAD@Z PROC				; OpenItemScript, COMDAT

; 5174 : {

  00000	55		 push	 ebp
  00001	8b ec		 mov	 ebp, esp

; 5175 : 	int loop_count;
; 5176 : 	int n;
; 5177 : 	int Token;
; 5178 : 
; 5179 : 	SMDFile = fopen(FileName, "r");

  00003	8b 45 08	 mov	 eax, DWORD PTR _FileName$[ebp]
  00006	83 ec 0c	 sub	 esp, 12			; 0000000cH
  00009	68 00 00 00 00	 push	 OFFSET ??_C@_01KDCPPGHE@r?$AA@
  0000e	50		 push	 eax
  0000f	e8 00 00 00 00	 call	 _fopen
  00014	83 c4 08	 add	 esp, 8
  00017	a3 00 00 00 00	 mov	 DWORD PTR _SMDFile, eax

; 5180 : 
; 5181 : 	if ( SMDFile == 0 )

  0001c	85 c0		 test	 eax, eax
  0001e	75 04		 jne	 SHORT $LN38@OpenItemSc

; 5536 : }

  00020	8b e5		 mov	 esp, ebp
  00022	5d		 pop	 ebp
  00023	c3		 ret	 0
$LN38@OpenItemSc:

; 5182 : 	{
; 5183 : 		return FALSE;
; 5184 : 	}
; 5185 : 
; 5186 : 	memset ( ItemAttribute, 0, sizeof(ItemAttribute) );

  00024	68 00 00 0e 00	 push	 917504			; 000e0000H
  00029	6a 00		 push	 0
  0002b	68 00 00 00 00	 push	 OFFSET ?ItemAttribute@@3PAUITEM_ATTRIBUTE@@A
  00030	e8 00 00 00 00	 call	 _memset
  00035	d9 ee		 fldz
  00037	83 c4 0c	 add	 esp, 12			; 0000000cH
  0003a	b8 58 00 00 00	 mov	 eax, OFFSET ?ItemAttribute@@3PAUITEM_ATTRIBUTE@@A+88
$LN37@OpenItemSc:

; 5187 : 	
; 5188 : 	for ( n=0;n<MAX_ITEMS;n++)
; 5189 : 	{
; 5190 : 		ItemAttribute[n].Level = -1;
; 5191 : 		ItemAttribute[n].RepaireMoneyRate  = 0;

  0003f	d9 10		 fst	 DWORD PTR [eax]
  00041	c6 40 ca ff	 mov	 BYTE PTR [eax-54], 255	; 000000ffH

; 5192 : 		ItemAttribute[n].AllRepaireMoneyRate  = 0;

  00045	d9 50 04	 fst	 DWORD PTR [eax+4]
  00048	83 c0 70	 add	 eax, 112		; 00000070H
  0004b	3d 58 00 0e 00	 cmp	 eax, OFFSET ?ItemAttribute@@3PAUITEM_ATTRIBUTE@@A+917592
  00050	7c ed		 jl	 SHORT $LN37@OpenItemSc

; 5193 : 	}
; 5194 : 
; 5195 : 	
; 5196 : 	while ( true )
; 5197 : 	{
; 5198 : 		Token = GetToken();

  00052	dd d8		 fstp	 ST(0)
  00054	e8 00 00 00 00	 call	 ?GetToken@@YA?AW4SMDToken@@XZ ; GetToken

; 5199 : 
; 5200 : 		if ( Token == 2 )

  00059	83 f8 02	 cmp	 eax, 2
  0005c	0f 84 1b 0c 00
	00		 je	 $LN62@OpenItemSc
  00062	53		 push	 ebx
  00063	56		 push	 esi
  00064	57		 push	 edi
$LL34@OpenItemSc:

; 5201 : 		{
; 5202 : 			break;
; 5203 : 		}
; 5204 : 		if ( Token == 1 )

  00065	83 f8 01	 cmp	 eax, 1
  00068	0f 85 fe 0b 00
	00		 jne	 $LN1@OpenItemSc

; 5205 : 		{
; 5206 : 			int ItemType;
; 5207 : 
; 5208 : 			ItemType = (int)TokenNumber;

  0006e	d9 05 00 00 00
	00		 fld	 DWORD PTR _TokenNumber
  00074	e8 00 00 00 00	 call	 __ftol2_sse
  00079	8b f8		 mov	 edi, eax

; 5209 : 			loop_count = 0;

  0007b	c7 45 f8 00 00
	00 00		 mov	 DWORD PTR _loop_count$[ebp], 0
$LL30@OpenItemSc:

; 5210 : 			while ( true )
; 5211 : 			{
; 5212 : 				int ItemSubType;
; 5213 : 				LPITEM_ATTRIBUTE p;
; 5214 : 				
; 5215 : 				Token = GetToken();

  00082	e8 00 00 00 00	 call	 ?GetToken@@YA?AW4SMDToken@@XZ ; GetToken

; 5216 : 				ItemSubType = (int)TokenNumber;

  00087	d9 05 00 00 00
	00		 fld	 DWORD PTR _TokenNumber
  0008d	8b f0		 mov	 esi, eax
  0008f	e8 00 00 00 00	 call	 __ftol2_sse
  00094	8b d8		 mov	 ebx, eax

; 5217 : 
; 5218 : 				if ( ItemType >= 0 && ItemType < MAX_TYPE_ITEMS )

  00096	83 ff 0f	 cmp	 edi, 15			; 0000000fH
  00099	77 10		 ja	 SHORT $LN27@OpenItemSc

; 5219 : 				{
; 5220 : 					if ( g_MaxItemIndexOfEachItemType[ItemType] <= ItemSubType )

  0009b	39 1c bd 00 00
	00 00		 cmp	 DWORD PTR ?g_MaxItemIndexOfEachItemType@@3PAHA[edi*4], ebx
  000a2	7f 07		 jg	 SHORT $LN27@OpenItemSc

; 5221 : 					{
; 5222 : 						g_MaxItemIndexOfEachItemType[ItemType] = ItemSubType;

  000a4	89 1c bd 00 00
	00 00		 mov	 DWORD PTR ?g_MaxItemIndexOfEachItemType@@3PAHA[edi*4], ebx
$LN27@OpenItemSc:

; 5223 : 					}
; 5224 : 				}
; 5225 : 
; 5226 : 				
; 5227 : 				if ( Token == 0 )

  000ab	85 f6		 test	 esi, esi
  000ad	75 3e		 jne	 SHORT $LN25@OpenItemSc

; 5228 : 				{
; 5229 : 					if ( strcmp("end", TokenString ) == 0 )

  000af	b9 00 00 00 00	 mov	 ecx, OFFSET _TokenString
  000b4	b8 00 00 00 00	 mov	 eax, OFFSET ??_C@_03JBJLGPFL@end?$AA@
  000b9	8d a4 24 00 00
	00 00		 npad	 7
$LL55@OpenItemSc:
  000c0	8a 10		 mov	 dl, BYTE PTR [eax]
  000c2	3a 11		 cmp	 dl, BYTE PTR [ecx]
  000c4	75 1a		 jne	 SHORT $LN56@OpenItemSc
  000c6	84 d2		 test	 dl, dl
  000c8	74 12		 je	 SHORT $LN57@OpenItemSc
  000ca	8a 50 01	 mov	 dl, BYTE PTR [eax+1]
  000cd	3a 51 01	 cmp	 dl, BYTE PTR [ecx+1]
  000d0	75 0e		 jne	 SHORT $LN56@OpenItemSc
  000d2	83 c0 02	 add	 eax, 2
  000d5	83 c1 02	 add	 ecx, 2
  000d8	84 d2		 test	 dl, dl
  000da	75 e4		 jne	 SHORT $LL55@OpenItemSc
$LN57@OpenItemSc:
  000dc	33 c0		 xor	 eax, eax
  000de	eb 05		 jmp	 SHORT $LN58@OpenItemSc
$LN56@OpenItemSc:
  000e0	1b c0		 sbb	 eax, eax
  000e2	83 d8 ff	 sbb	 eax, -1
$LN58@OpenItemSc:
  000e5	85 c0		 test	 eax, eax
  000e7	0f 84 76 0b 00
	00		 je	 $LN61@OpenItemSc
$LN25@OpenItemSc:

; 5230 : 					{
; 5231 : 						break;
; 5232 : 					}
; 5233 : 				}
; 5234 : 					
; 5235 : 				p = &ItemAttribute[ItemType*MAX_SUBTYPE_ITEMS + ItemSubType];

  000ed	8b f7		 mov	 esi, edi
  000ef	c1 e6 09	 shl	 esi, 9
  000f2	03 f3		 add	 esi, ebx
  000f4	6b f6 70	 imul	 esi, 112		; 00000070H
  000f7	81 c6 00 00 00
	00		 add	 esi, OFFSET ?ItemAttribute@@3PAUITEM_ATTRIBUTE@@A

; 5236 : 
; 5237 : 				Token = GetToken();

  000fd	e8 00 00 00 00	 call	 ?GetToken@@YA?AW4SMDToken@@XZ ; GetToken

; 5238 : 				p->ItemSlot = (int)TokenNumber;

  00102	d9 05 00 00 00
	00		 fld	 DWORD PTR _TokenNumber
  00108	e8 00 00 00 00	 call	 __ftol2_sse
  0010d	89 46 64	 mov	 DWORD PTR [esi+100], eax

; 5239 : 
; 5240 : 				Token = GetToken();

  00110	e8 00 00 00 00	 call	 ?GetToken@@YA?AW4SMDToken@@XZ ; GetToken

; 5241 : 				p->SkillType = (int)TokenNumber;

  00115	d9 05 00 00 00
	00		 fld	 DWORD PTR _TokenNumber
  0011b	e8 00 00 00 00	 call	 __ftol2_sse
  00120	89 46 68	 mov	 DWORD PTR [esi+104], eax

; 5242 : 
; 5243 : 				Token = GetToken();

  00123	e8 00 00 00 00	 call	 ?GetToken@@YA?AW4SMDToken@@XZ ; GetToken

; 5244 : 				p->Width  = (BYTE)TokenNumber;

  00128	d9 05 00 00 00
	00		 fld	 DWORD PTR _TokenNumber
  0012e	d9 7d fe	 fnstcw	 WORD PTR tv773[ebp]
  00131	0f b7 45 fe	 movzx	 eax, WORD PTR tv773[ebp]
  00135	0d 00 0c 00 00	 or	 eax, 3072		; 00000c00H
  0013a	89 45 f4	 mov	 DWORD PTR tv770[ebp], eax
  0013d	d9 6d f4	 fldcw	 WORD PTR tv770[ebp]
  00140	db 5d f4	 fistp	 DWORD PTR tv768[ebp]
  00143	0f b6 4d f4	 movzx	 ecx, BYTE PTR tv768[ebp]
  00147	88 4e 23	 mov	 BYTE PTR [esi+35], cl
  0014a	d9 6d fe	 fldcw	 WORD PTR tv773[ebp]

; 5245 : 
; 5246 : 				Token = GetToken();

  0014d	e8 00 00 00 00	 call	 ?GetToken@@YA?AW4SMDToken@@XZ ; GetToken

; 5247 : 				p->Height  = (BYTE)TokenNumber;

  00152	d9 05 00 00 00
	00		 fld	 DWORD PTR _TokenNumber
  00158	d9 7d fe	 fnstcw	 WORD PTR tv765[ebp]
  0015b	0f b7 45 fe	 movzx	 eax, WORD PTR tv765[ebp]
  0015f	0d 00 0c 00 00	 or	 eax, 3072		; 00000c00H
  00164	89 45 f4	 mov	 DWORD PTR tv762[ebp], eax
  00167	d9 6d f4	 fldcw	 WORD PTR tv762[ebp]
  0016a	db 5d f4	 fistp	 DWORD PTR tv760[ebp]
  0016d	8a 55 f4	 mov	 dl, BYTE PTR tv760[ebp]
  00170	88 56 24	 mov	 BYTE PTR [esi+36], dl
  00173	d9 6d fe	 fldcw	 WORD PTR tv765[ebp]

; 5248 : 
; 5249 : 				Token = GetToken();

  00176	e8 00 00 00 00	 call	 ?GetToken@@YA?AW4SMDToken@@XZ ; GetToken

; 5250 : 				p->Serial = (char)TokenNumber;

  0017b	d9 05 00 00 00
	00		 fld	 DWORD PTR _TokenNumber
  00181	e8 00 00 00 00	 call	 __ftol2_sse
  00186	88 46 25	 mov	 BYTE PTR [esi+37], al

; 5251 : 
; 5252 : 				Token = GetToken();

  00189	e8 00 00 00 00	 call	 ?GetToken@@YA?AW4SMDToken@@XZ ; GetToken

; 5253 : 				p->OptionFlag = (BYTE)TokenNumber;

  0018e	d9 05 00 00 00
	00		 fld	 DWORD PTR _TokenNumber
  00194	d9 7d fe	 fnstcw	 WORD PTR tv752[ebp]
  00197	0f b7 45 fe	 movzx	 eax, WORD PTR tv752[ebp]
  0019b	0d 00 0c 00 00	 or	 eax, 3072		; 00000c00H
  001a0	89 45 f4	 mov	 DWORD PTR tv749[ebp], eax
  001a3	d9 6d f4	 fldcw	 WORD PTR tv749[ebp]
  001a6	db 5d f4	 fistp	 DWORD PTR tv747[ebp]
  001a9	8a 45 f4	 mov	 al, BYTE PTR tv747[ebp]
  001ac	88 46 26	 mov	 BYTE PTR [esi+38], al
  001af	d9 6d fe	 fldcw	 WORD PTR tv752[ebp]

; 5254 : 
; 5255 : 				Token = GetToken();

  001b2	e8 00 00 00 00	 call	 ?GetToken@@YA?AW4SMDToken@@XZ ; GetToken

; 5256 : 				p->MondownFlag = (BYTE)TokenNumber;

  001b7	d9 05 00 00 00
	00		 fld	 DWORD PTR _TokenNumber
  001bd	d9 7d fe	 fnstcw	 WORD PTR tv744[ebp]
  001c0	0f b7 45 fe	 movzx	 eax, WORD PTR tv744[ebp]
  001c4	0d 00 0c 00 00	 or	 eax, 3072		; 00000c00H
  001c9	89 45 f4	 mov	 DWORD PTR tv741[ebp], eax
  001cc	d9 6d f4	 fldcw	 WORD PTR tv741[ebp]
  001cf	db 5d f4	 fistp	 DWORD PTR tv739[ebp]
  001d2	0f b6 4d f4	 movzx	 ecx, BYTE PTR tv739[ebp]
  001d6	88 4e 27	 mov	 BYTE PTR [esi+39], cl
  001d9	d9 6d fe	 fldcw	 WORD PTR tv744[ebp]

; 5257 : 
; 5258 : 				Token = GetToken();

  001dc	e8 00 00 00 00	 call	 ?GetToken@@YA?AW4SMDToken@@XZ ; GetToken

; 5259 : 				strcpy(&p->Name[0], TokenString );

  001e1	b8 00 00 00 00	 mov	 eax, OFFSET _TokenString
  001e6	8b d6		 mov	 edx, esi
  001e8	2b d0		 sub	 edx, eax
  001ea	8d 9b 00 00 00
	00		 npad	 6
$LL41@OpenItemSc:
  001f0	8a 08		 mov	 cl, BYTE PTR [eax]
  001f2	88 0c 02	 mov	 BYTE PTR [edx+eax], cl
  001f5	40		 inc	 eax
  001f6	84 c9		 test	 cl, cl
  001f8	75 f6		 jne	 SHORT $LL41@OpenItemSc

; 5260 : 
; 5261 : 				if ( ItemType >= 0 && ItemType <= 5 )

  001fa	83 ff 05	 cmp	 edi, 5
  001fd	0f 87 09 02 00
	00		 ja	 $LN59@OpenItemSc

; 5262 : 				{
; 5263 : 					Token = GetToken();

  00203	e8 00 00 00 00	 call	 ?GetToken@@YA?AW4SMDToken@@XZ ; GetToken

; 5264 : 					p->Level = (BYTE)TokenNumber;

  00208	d9 05 00 00 00
	00		 fld	 DWORD PTR _TokenNumber
  0020e	d9 7d fe	 fnstcw	 WORD PTR tv735[ebp]
  00211	0f b7 45 fe	 movzx	 eax, WORD PTR tv735[ebp]
  00215	0d 00 0c 00 00	 or	 eax, 3072		; 00000c00H
  0021a	89 45 f4	 mov	 DWORD PTR tv732[ebp], eax
  0021d	d9 6d f4	 fldcw	 WORD PTR tv732[ebp]
  00220	db 5d f4	 fistp	 DWORD PTR tv730[ebp]
  00223	0f b6 55 f4	 movzx	 edx, BYTE PTR tv730[ebp]
  00227	88 56 22	 mov	 BYTE PTR [esi+34], dl
  0022a	d9 6d fe	 fldcw	 WORD PTR tv735[ebp]

; 5265 : 
; 5266 : 					Token = GetToken();

  0022d	e8 00 00 00 00	 call	 ?GetToken@@YA?AW4SMDToken@@XZ ; GetToken

; 5267 : 					p->DamageMin = (BYTE)TokenNumber;

  00232	d9 05 00 00 00
	00		 fld	 DWORD PTR _TokenNumber
  00238	d9 7d fe	 fnstcw	 WORD PTR tv727[ebp]
  0023b	0f b7 45 fe	 movzx	 eax, WORD PTR tv727[ebp]
  0023f	0d 00 0c 00 00	 or	 eax, 3072		; 00000c00H
  00244	89 45 f4	 mov	 DWORD PTR tv724[ebp], eax
  00247	d9 6d f4	 fldcw	 WORD PTR tv724[ebp]
  0024a	db 5d f4	 fistp	 DWORD PTR tv722[ebp]
  0024d	0f b6 45 f4	 movzx	 eax, BYTE PTR tv722[ebp]
  00251	88 46 2a	 mov	 BYTE PTR [esi+42], al
  00254	d9 6d fe	 fldcw	 WORD PTR tv727[ebp]

; 5268 : 
; 5269 : 					Token = GetToken();

  00257	e8 00 00 00 00	 call	 ?GetToken@@YA?AW4SMDToken@@XZ ; GetToken

; 5270 : 					p->DamageMax = (BYTE)TokenNumber;

  0025c	d9 05 00 00 00
	00		 fld	 DWORD PTR _TokenNumber
  00262	d9 7d fe	 fnstcw	 WORD PTR tv719[ebp]
  00265	0f b7 45 fe	 movzx	 eax, WORD PTR tv719[ebp]
  00269	0d 00 0c 00 00	 or	 eax, 3072		; 00000c00H
  0026e	89 45 f4	 mov	 DWORD PTR tv716[ebp], eax
  00271	d9 6d f4	 fldcw	 WORD PTR tv716[ebp]
  00274	db 5d f4	 fistp	 DWORD PTR tv714[ebp]
  00277	0f b6 4d f4	 movzx	 ecx, BYTE PTR tv714[ebp]
  0027b	88 4e 2b	 mov	 BYTE PTR [esi+43], cl
  0027e	d9 6d fe	 fldcw	 WORD PTR tv719[ebp]

; 5271 : 
; 5272 : 					Token = GetToken();

  00281	e8 00 00 00 00	 call	 ?GetToken@@YA?AW4SMDToken@@XZ ; GetToken

; 5273 : 					p->AttackSpeed = (BYTE)TokenNumber;

  00286	d9 05 00 00 00
	00		 fld	 DWORD PTR _TokenNumber
  0028c	d9 7d fe	 fnstcw	 WORD PTR tv711[ebp]
  0028f	0f b7 45 fe	 movzx	 eax, WORD PTR tv711[ebp]
  00293	0d 00 0c 00 00	 or	 eax, 3072		; 00000c00H
  00298	89 45 f4	 mov	 DWORD PTR tv708[ebp], eax
  0029b	d9 6d f4	 fldcw	 WORD PTR tv708[ebp]
  0029e	db 5d f4	 fistp	 DWORD PTR tv706[ebp]
  002a1	0f b6 55 f4	 movzx	 edx, BYTE PTR tv706[ebp]
  002a5	88 56 28	 mov	 BYTE PTR [esi+40], dl
  002a8	d9 6d fe	 fldcw	 WORD PTR tv711[ebp]

; 5274 : 
; 5275 : 					Token = GetToken();

  002ab	e8 00 00 00 00	 call	 ?GetToken@@YA?AW4SMDToken@@XZ ; GetToken

; 5276 : 					p->Durability = (BYTE)TokenNumber;

  002b0	d9 05 00 00 00
	00		 fld	 DWORD PTR _TokenNumber
  002b6	d9 7d fe	 fnstcw	 WORD PTR tv703[ebp]
  002b9	0f b7 45 fe	 movzx	 eax, WORD PTR tv703[ebp]
  002bd	0d 00 0c 00 00	 or	 eax, 3072		; 00000c00H
  002c2	89 45 f4	 mov	 DWORD PTR tv700[ebp], eax
  002c5	d9 6d f4	 fldcw	 WORD PTR tv700[ebp]
  002c8	db 5d f4	 fistp	 DWORD PTR tv698[ebp]
  002cb	0f b6 45 f4	 movzx	 eax, BYTE PTR tv698[ebp]
  002cf	88 46 30	 mov	 BYTE PTR [esi+48], al
  002d2	d9 6d fe	 fldcw	 WORD PTR tv703[ebp]

; 5277 : 
; 5278 : 					Token = GetToken();

  002d5	e8 00 00 00 00	 call	 ?GetToken@@YA?AW4SMDToken@@XZ ; GetToken

; 5279 : 					p->MagicDurability = (BYTE)TokenNumber;

  002da	d9 05 00 00 00
	00		 fld	 DWORD PTR _TokenNumber
  002e0	d9 7d fe	 fnstcw	 WORD PTR tv695[ebp]
  002e3	0f b7 45 fe	 movzx	 eax, WORD PTR tv695[ebp]
  002e7	0d 00 0c 00 00	 or	 eax, 3072		; 00000c00H
  002ec	89 45 f4	 mov	 DWORD PTR tv692[ebp], eax
  002ef	d9 6d f4	 fldcw	 WORD PTR tv692[ebp]
  002f2	db 5d f4	 fistp	 DWORD PTR tv690[ebp]
  002f5	0f b6 4d f4	 movzx	 ecx, BYTE PTR tv690[ebp]
  002f9	88 4e 31	 mov	 BYTE PTR [esi+49], cl
  002fc	d9 6d fe	 fldcw	 WORD PTR tv695[ebp]

; 5280 : 
; 5281 : 					Token = GetToken();

  002ff	e8 00 00 00 00	 call	 ?GetToken@@YA?AW4SMDToken@@XZ ; GetToken

; 5282 : 					p->MagicPW = (int)TokenNumber;

  00304	d9 05 00 00 00
	00		 fld	 DWORD PTR _TokenNumber
  0030a	e8 00 00 00 00	 call	 __ftol2_sse
  0030f	89 46 54	 mov	 DWORD PTR [esi+84], eax

; 5283 : 
; 5284 : 					Token = GetToken();

  00312	e8 00 00 00 00	 call	 ?GetToken@@YA?AW4SMDToken@@XZ ; GetToken

; 5285 : 					p->RequireLevel = (WORD)TokenNumber;

  00317	d9 05 00 00 00
	00		 fld	 DWORD PTR _TokenNumber
  0031d	d9 7d fe	 fnstcw	 WORD PTR tv682[ebp]
  00320	0f b7 45 fe	 movzx	 eax, WORD PTR tv682[ebp]
  00324	0d 00 0c 00 00	 or	 eax, 3072		; 00000c00H
  00329	89 45 f4	 mov	 DWORD PTR tv679[ebp], eax
  0032c	d9 6d f4	 fldcw	 WORD PTR tv679[ebp]
  0032f	db 5d f4	 fistp	 DWORD PTR tv677[ebp]
  00332	0f b7 55 f4	 movzx	 edx, WORD PTR tv677[ebp]
  00336	66 89 56 3a	 mov	 WORD PTR [esi+58], dx
  0033a	d9 6d fe	 fldcw	 WORD PTR tv682[ebp]

; 5286 : 
; 5287 : 					Token = GetToken();

  0033d	e8 00 00 00 00	 call	 ?GetToken@@YA?AW4SMDToken@@XZ ; GetToken

; 5288 : 					p->RequireStrength = (WORD)TokenNumber;

  00342	d9 05 00 00 00
	00		 fld	 DWORD PTR _TokenNumber
  00348	d9 7d fe	 fnstcw	 WORD PTR tv674[ebp]
  0034b	0f b7 45 fe	 movzx	 eax, WORD PTR tv674[ebp]
  0034f	0d 00 0c 00 00	 or	 eax, 3072		; 00000c00H
  00354	89 45 f4	 mov	 DWORD PTR tv671[ebp], eax
  00357	d9 6d f4	 fldcw	 WORD PTR tv671[ebp]
  0035a	db 5d f4	 fistp	 DWORD PTR tv669[ebp]
  0035d	0f b7 45 f4	 movzx	 eax, WORD PTR tv669[ebp]
  00361	66 89 46 34	 mov	 WORD PTR [esi+52], ax
  00365	d9 6d fe	 fldcw	 WORD PTR tv674[ebp]

; 5289 : 
; 5290 : 					Token = GetToken();

  00368	e8 00 00 00 00	 call	 ?GetToken@@YA?AW4SMDToken@@XZ ; GetToken

; 5291 : 					p->RequireDexterity = (WORD)TokenNumber;

  0036d	d9 05 00 00 00
	00		 fld	 DWORD PTR _TokenNumber
  00373	d9 7d fe	 fnstcw	 WORD PTR tv665[ebp]
  00376	0f b7 45 fe	 movzx	 eax, WORD PTR tv665[ebp]
  0037a	0d 00 0c 00 00	 or	 eax, 3072		; 00000c00H
  0037f	89 45 f4	 mov	 DWORD PTR tv662[ebp], eax
  00382	d9 6d f4	 fldcw	 WORD PTR tv662[ebp]
  00385	db 5d f4	 fistp	 DWORD PTR tv660[ebp]
  00388	66 8b 4d f4	 mov	 cx, WORD PTR tv660[ebp]
  0038c	66 89 4e 36	 mov	 WORD PTR [esi+54], cx
  00390	d9 6d fe	 fldcw	 WORD PTR tv665[ebp]

; 5292 : 
; 5293 : 					Token = GetToken();

  00393	e8 00 00 00 00	 call	 ?GetToken@@YA?AW4SMDToken@@XZ ; GetToken

; 5294 : 					p->RequireEnergy = (WORD)TokenNumber;

  00398	d9 05 00 00 00
	00		 fld	 DWORD PTR _TokenNumber
  0039e	d9 7d fe	 fnstcw	 WORD PTR tv656[ebp]
  003a1	0f b7 45 fe	 movzx	 eax, WORD PTR tv656[ebp]
  003a5	0d 00 0c 00 00	 or	 eax, 3072		; 00000c00H
  003aa	89 45 f4	 mov	 DWORD PTR tv653[ebp], eax
  003ad	d9 6d f4	 fldcw	 WORD PTR tv653[ebp]
  003b0	db 5d f4	 fistp	 DWORD PTR tv651[ebp]
  003b3	0f b7 55 f4	 movzx	 edx, WORD PTR tv651[ebp]
  003b7	66 89 56 38	 mov	 WORD PTR [esi+56], dx
  003bb	d9 6d fe	 fldcw	 WORD PTR tv656[ebp]

; 5295 : 
; 5296 : 					Token = GetToken();

  003be	e8 00 00 00 00	 call	 ?GetToken@@YA?AW4SMDToken@@XZ ; GetToken

; 5297 : 					p->RequireVitality = (WORD)TokenNumber;

  003c3	d9 05 00 00 00
	00		 fld	 DWORD PTR _TokenNumber
  003c9	d9 7d fe	 fnstcw	 WORD PTR tv648[ebp]
  003cc	0f b7 45 fe	 movzx	 eax, WORD PTR tv648[ebp]
  003d0	0d 00 0c 00 00	 or	 eax, 3072		; 00000c00H
  003d5	89 45 f4	 mov	 DWORD PTR tv645[ebp], eax
  003d8	d9 6d f4	 fldcw	 WORD PTR tv645[ebp]
  003db	db 5d f4	 fistp	 DWORD PTR tv642[ebp]
  003de	0f b7 45 f4	 movzx	 eax, WORD PTR tv642[ebp]
  003e2	66 89 46 4c	 mov	 WORD PTR [esi+76], ax
  003e6	d9 6d fe	 fldcw	 WORD PTR tv648[ebp]

; 5298 : 
; 5299 : 					Token = GetToken();

  003e9	e8 00 00 00 00	 call	 ?GetToken@@YA?AW4SMDToken@@XZ ; GetToken

; 5300 : 					p->RequireLeadership = (int)TokenNumber;

  003ee	d9 05 00 00 00
	00		 fld	 DWORD PTR _TokenNumber
  003f4	e8 00 00 00 00	 call	 __ftol2_sse

; 5301 : 
; 5302 : 					if ( p->Width  >= 2)

  003f9	80 7e 23 02	 cmp	 BYTE PTR [esi+35], 2
  003fd	89 46 6c	 mov	 DWORD PTR [esi+108], eax
  00400	72 04		 jb	 SHORT $LN23@OpenItemSc

; 5303 : 					{
; 5304 : 						p->TwoHand = TRUE;

  00402	c6 46 21 01	 mov	 BYTE PTR [esi+33], 1
$LN23@OpenItemSc:

; 5305 : 					}
; 5306 : 
; 5307 : 					(BYTE)p->Durability += (BYTE)p->MagicDurability;

  00406	8a 4e 31	 mov	 cl, BYTE PTR [esi+49]
  00409	00 4e 30	 add	 BYTE PTR [esi+48], cl
$LN59@OpenItemSc:

; 5308 : 				}
; 5309 : 
; 5310 : 				if ( ItemType >= 6 && ItemType <= 11 )

  0040c	8d 57 fa	 lea	 edx, DWORD PTR [edi-6]
  0040f	83 fa 05	 cmp	 edx, 5
  00412	0f 87 a7 02 00
	00		 ja	 $LN22@OpenItemSc

; 5311 : 				{
; 5312 : 					Token = GetToken();

  00418	e8 00 00 00 00	 call	 ?GetToken@@YA?AW4SMDToken@@XZ ; GetToken

; 5313 : 					p->Level = (BYTE)TokenNumber;

  0041d	d9 05 00 00 00
	00		 fld	 DWORD PTR _TokenNumber
  00423	d9 7d fe	 fnstcw	 WORD PTR tv633[ebp]
  00426	0f b7 45 fe	 movzx	 eax, WORD PTR tv633[ebp]
  0042a	0d 00 0c 00 00	 or	 eax, 3072		; 00000c00H
  0042f	89 45 f4	 mov	 DWORD PTR tv630[ebp], eax
  00432	d9 6d f4	 fldcw	 WORD PTR tv630[ebp]
  00435	db 5d f4	 fistp	 DWORD PTR tv628[ebp]
  00438	8a 45 f4	 mov	 al, BYTE PTR tv628[ebp]
  0043b	88 46 22	 mov	 BYTE PTR [esi+34], al
  0043e	d9 6d fe	 fldcw	 WORD PTR tv633[ebp]

; 5314 : 					
; 5315 : 					if ( ItemType == 6 )

  00441	83 ff 06	 cmp	 edi, 6
  00444	75 57		 jne	 SHORT $LN21@OpenItemSc

; 5316 : 					{
; 5317 : 
; 5318 : 						Token = GetToken();

  00446	e8 00 00 00 00	 call	 ?GetToken@@YA?AW4SMDToken@@XZ ; GetToken

; 5319 : 						p->Defense = (BYTE)TokenNumber;

  0044b	d9 05 00 00 00
	00		 fld	 DWORD PTR _TokenNumber
  00451	d9 7d fe	 fnstcw	 WORD PTR tv625[ebp]
  00454	0f b7 45 fe	 movzx	 eax, WORD PTR tv625[ebp]
  00458	0d 00 0c 00 00	 or	 eax, 3072		; 00000c00H
  0045d	89 45 f4	 mov	 DWORD PTR tv622[ebp], eax
  00460	d9 6d f4	 fldcw	 WORD PTR tv622[ebp]
  00463	db 5d f4	 fistp	 DWORD PTR tv620[ebp]
  00466	8a 4d f4	 mov	 cl, BYTE PTR tv620[ebp]
  00469	88 4e 2d	 mov	 BYTE PTR [esi+45], cl
  0046c	d9 6d fe	 fldcw	 WORD PTR tv625[ebp]

; 5320 : 
; 5321 : 						Token = GetToken();

  0046f	e8 00 00 00 00	 call	 ?GetToken@@YA?AW4SMDToken@@XZ ; GetToken

; 5322 : 						p->SuccessfulBlocking  = (BYTE)TokenNumber;

  00474	d9 05 00 00 00
	00		 fld	 DWORD PTR _TokenNumber
  0047a	d9 7d fe	 fnstcw	 WORD PTR tv617[ebp]
  0047d	0f b7 45 fe	 movzx	 eax, WORD PTR tv617[ebp]
  00481	0d 00 0c 00 00	 or	 eax, 3072		; 00000c00H
  00486	89 45 f4	 mov	 DWORD PTR tv614[ebp], eax
  00489	d9 6d f4	 fldcw	 WORD PTR tv614[ebp]
  0048c	db 5d f4	 fistp	 DWORD PTR tv612[ebp]
  0048f	8a 55 f4	 mov	 dl, BYTE PTR tv612[ebp]
  00492	88 56 2c	 mov	 BYTE PTR [esi+44], dl
  00495	d9 6d fe	 fldcw	 WORD PTR tv617[ebp]
  00498	e9 0f 01 00 00	 jmp	 $LN15@OpenItemSc
$LN21@OpenItemSc:

; 5323 : 
; 5324 : 					}
; 5325 : 					else if ( ItemType >= 7 && ItemType <= 9 )

  0049d	8d 47 f9	 lea	 eax, DWORD PTR [edi-7]
  004a0	83 f8 02	 cmp	 eax, 2
  004a3	77 57		 ja	 SHORT $LN19@OpenItemSc

; 5326 : 					{
; 5327 : 
; 5328 : 						Token = GetToken();

  004a5	e8 00 00 00 00	 call	 ?GetToken@@YA?AW4SMDToken@@XZ ; GetToken

; 5329 : 						p->Defense  = (BYTE)TokenNumber;

  004aa	d9 05 00 00 00
	00		 fld	 DWORD PTR _TokenNumber
  004b0	d9 7d fe	 fnstcw	 WORD PTR tv609[ebp]
  004b3	0f b7 45 fe	 movzx	 eax, WORD PTR tv609[ebp]
  004b7	0d 00 0c 00 00	 or	 eax, 3072		; 00000c00H
  004bc	89 45 f4	 mov	 DWORD PTR tv606[ebp], eax
  004bf	d9 6d f4	 fldcw	 WORD PTR tv606[ebp]
  004c2	db 5d f4	 fistp	 DWORD PTR tv603[ebp]
  004c5	8a 4d f4	 mov	 cl, BYTE PTR tv603[ebp]
  004c8	88 4e 2d	 mov	 BYTE PTR [esi+45], cl
  004cb	d9 6d fe	 fldcw	 WORD PTR tv609[ebp]

; 5330 : 
; 5331 : 						Token = GetToken();

  004ce	e8 00 00 00 00	 call	 ?GetToken@@YA?AW4SMDToken@@XZ ; GetToken

; 5332 : 						p->MagicDefense = (BYTE)TokenNumber;

  004d3	d9 05 00 00 00
	00		 fld	 DWORD PTR _TokenNumber
  004d9	d9 7d fe	 fnstcw	 WORD PTR tv599[ebp]
  004dc	0f b7 45 fe	 movzx	 eax, WORD PTR tv599[ebp]
  004e0	0d 00 0c 00 00	 or	 eax, 3072		; 00000c00H
  004e5	89 45 f4	 mov	 DWORD PTR tv596[ebp], eax
  004e8	d9 6d f4	 fldcw	 WORD PTR tv596[ebp]
  004eb	db 5d f4	 fistp	 DWORD PTR tv593[ebp]
  004ee	8a 55 f4	 mov	 dl, BYTE PTR tv593[ebp]
  004f1	88 56 2e	 mov	 BYTE PTR [esi+46], dl
  004f4	d9 6d fe	 fldcw	 WORD PTR tv599[ebp]
  004f7	e9 b0 00 00 00	 jmp	 $LN15@OpenItemSc
$LN19@OpenItemSc:

; 5333 : 					}
; 5334 : 					else if ( ItemType == 10 )

  004fc	83 ff 0a	 cmp	 edi, 10			; 0000000aH
  004ff	75 54		 jne	 SHORT $LN17@OpenItemSc

; 5335 : 					{
; 5336 : 						Token = GetToken();

  00501	e8 00 00 00 00	 call	 ?GetToken@@YA?AW4SMDToken@@XZ ; GetToken

; 5337 : 						p->Defense = (BYTE)TokenNumber;

  00506	d9 05 00 00 00
	00		 fld	 DWORD PTR _TokenNumber
  0050c	d9 7d fe	 fnstcw	 WORD PTR tv590[ebp]
  0050f	0f b7 45 fe	 movzx	 eax, WORD PTR tv590[ebp]
  00513	0d 00 0c 00 00	 or	 eax, 3072		; 00000c00H
  00518	89 45 f4	 mov	 DWORD PTR tv586[ebp], eax
  0051b	d9 6d f4	 fldcw	 WORD PTR tv586[ebp]
  0051e	db 5d f4	 fistp	 DWORD PTR tv584[ebp]
  00521	8a 45 f4	 mov	 al, BYTE PTR tv584[ebp]
  00524	88 46 2d	 mov	 BYTE PTR [esi+45], al
  00527	d9 6d fe	 fldcw	 WORD PTR tv590[ebp]

; 5338 : 
; 5339 : 						Token = GetToken();

  0052a	e8 00 00 00 00	 call	 ?GetToken@@YA?AW4SMDToken@@XZ ; GetToken

; 5340 : 						p->AttackSpeed = (BYTE)TokenNumber;

  0052f	d9 05 00 00 00
	00		 fld	 DWORD PTR _TokenNumber
  00535	d9 7d fe	 fnstcw	 WORD PTR tv581[ebp]
  00538	0f b7 45 fe	 movzx	 eax, WORD PTR tv581[ebp]
  0053c	0d 00 0c 00 00	 or	 eax, 3072		; 00000c00H
  00541	89 45 f4	 mov	 DWORD PTR tv578[ebp], eax
  00544	d9 6d f4	 fldcw	 WORD PTR tv578[ebp]
  00547	db 5d f4	 fistp	 DWORD PTR tv575[ebp]
  0054a	8a 4d f4	 mov	 cl, BYTE PTR tv575[ebp]
  0054d	88 4e 28	 mov	 BYTE PTR [esi+40], cl
  00550	d9 6d fe	 fldcw	 WORD PTR tv581[ebp]
  00553	eb 57		 jmp	 SHORT $LN15@OpenItemSc
$LN17@OpenItemSc:

; 5341 : 					}
; 5342 : 					else if ( ItemType == 11 )

  00555	83 ff 0b	 cmp	 edi, 11			; 0000000bH
  00558	75 52		 jne	 SHORT $LN15@OpenItemSc

; 5343 : 					{
; 5344 : 						Token = GetToken();

  0055a	e8 00 00 00 00	 call	 ?GetToken@@YA?AW4SMDToken@@XZ ; GetToken

; 5345 : 						p->Defense  = (BYTE)TokenNumber;

  0055f	d9 05 00 00 00
	00		 fld	 DWORD PTR _TokenNumber
  00565	d9 7d fe	 fnstcw	 WORD PTR tv572[ebp]
  00568	0f b7 45 fe	 movzx	 eax, WORD PTR tv572[ebp]
  0056c	0d 00 0c 00 00	 or	 eax, 3072		; 00000c00H
  00571	89 45 f4	 mov	 DWORD PTR tv569[ebp], eax
  00574	d9 6d f4	 fldcw	 WORD PTR tv569[ebp]
  00577	db 5d f4	 fistp	 DWORD PTR tv567[ebp]
  0057a	8a 55 f4	 mov	 dl, BYTE PTR tv567[ebp]
  0057d	88 56 2d	 mov	 BYTE PTR [esi+45], dl
  00580	d9 6d fe	 fldcw	 WORD PTR tv572[ebp]

; 5346 : 
; 5347 : 						Token = GetToken();

  00583	e8 00 00 00 00	 call	 ?GetToken@@YA?AW4SMDToken@@XZ ; GetToken

; 5348 : 						p->WalkSpeed = (BYTE)TokenNumber;

  00588	d9 05 00 00 00
	00		 fld	 DWORD PTR _TokenNumber
  0058e	d9 7d fe	 fnstcw	 WORD PTR tv563[ebp]
  00591	0f b7 45 fe	 movzx	 eax, WORD PTR tv563[ebp]
  00595	0d 00 0c 00 00	 or	 eax, 3072		; 00000c00H
  0059a	89 45 f4	 mov	 DWORD PTR tv559[ebp], eax
  0059d	d9 6d f4	 fldcw	 WORD PTR tv559[ebp]
  005a0	db 5d f4	 fistp	 DWORD PTR tv557[ebp]
  005a3	8a 45 f4	 mov	 al, BYTE PTR tv557[ebp]
  005a6	88 46 29	 mov	 BYTE PTR [esi+41], al
  005a9	d9 6d fe	 fldcw	 WORD PTR tv563[ebp]
$LN15@OpenItemSc:

; 5349 : 					}
; 5350 : 					
; 5351 : 					Token = GetToken();

  005ac	e8 00 00 00 00	 call	 ?GetToken@@YA?AW4SMDToken@@XZ ; GetToken

; 5352 : 					p->Durability = (BYTE)TokenNumber;

  005b1	d9 05 00 00 00
	00		 fld	 DWORD PTR _TokenNumber
  005b7	d9 7d fe	 fnstcw	 WORD PTR tv554[ebp]
  005ba	0f b7 45 fe	 movzx	 eax, WORD PTR tv554[ebp]
  005be	0d 00 0c 00 00	 or	 eax, 3072		; 00000c00H
  005c3	89 45 f4	 mov	 DWORD PTR tv551[ebp], eax
  005c6	d9 6d f4	 fldcw	 WORD PTR tv551[ebp]
  005c9	db 5d f4	 fistp	 DWORD PTR tv549[ebp]
  005cc	8a 4d f4	 mov	 cl, BYTE PTR tv549[ebp]
  005cf	88 4e 30	 mov	 BYTE PTR [esi+48], cl
  005d2	d9 6d fe	 fldcw	 WORD PTR tv554[ebp]

; 5353 : 
; 5354 : 					Token = GetToken();

  005d5	e8 00 00 00 00	 call	 ?GetToken@@YA?AW4SMDToken@@XZ ; GetToken

; 5355 : 					p->RequireLevel = (WORD)TokenNumber;

  005da	d9 05 00 00 00
	00		 fld	 DWORD PTR _TokenNumber
  005e0	d9 7d fe	 fnstcw	 WORD PTR tv546[ebp]
  005e3	0f b7 45 fe	 movzx	 eax, WORD PTR tv546[ebp]
  005e7	0d 00 0c 00 00	 or	 eax, 3072		; 00000c00H
  005ec	89 45 f4	 mov	 DWORD PTR tv510[ebp], eax
  005ef	d9 6d f4	 fldcw	 WORD PTR tv510[ebp]
  005f2	db 5d f4	 fistp	 DWORD PTR tv508[ebp]
  005f5	0f b7 55 f4	 movzx	 edx, WORD PTR tv508[ebp]
  005f9	66 89 56 3a	 mov	 WORD PTR [esi+58], dx
  005fd	d9 6d fe	 fldcw	 WORD PTR tv546[ebp]

; 5356 : 
; 5357 : 					Token = GetToken();

  00600	e8 00 00 00 00	 call	 ?GetToken@@YA?AW4SMDToken@@XZ ; GetToken

; 5358 : 					p->RequireStrength = (WORD)TokenNumber;

  00605	d9 05 00 00 00
	00		 fld	 DWORD PTR _TokenNumber
  0060b	d9 7d fe	 fnstcw	 WORD PTR tv504[ebp]
  0060e	0f b7 45 fe	 movzx	 eax, WORD PTR tv504[ebp]
  00612	0d 00 0c 00 00	 or	 eax, 3072		; 00000c00H
  00617	89 45 f4	 mov	 DWORD PTR tv501[ebp], eax
  0061a	d9 6d f4	 fldcw	 WORD PTR tv501[ebp]
  0061d	db 5d f4	 fistp	 DWORD PTR tv499[ebp]
  00620	0f b7 45 f4	 movzx	 eax, WORD PTR tv499[ebp]
  00624	66 89 46 34	 mov	 WORD PTR [esi+52], ax
  00628	d9 6d fe	 fldcw	 WORD PTR tv504[ebp]

; 5359 : 
; 5360 : 					Token = GetToken();

  0062b	e8 00 00 00 00	 call	 ?GetToken@@YA?AW4SMDToken@@XZ ; GetToken

; 5361 : 					p->RequireDexterity = (WORD)TokenNumber;

  00630	d9 05 00 00 00
	00		 fld	 DWORD PTR _TokenNumber
  00636	d9 7d fe	 fnstcw	 WORD PTR tv496[ebp]
  00639	0f b7 45 fe	 movzx	 eax, WORD PTR tv496[ebp]
  0063d	0d 00 0c 00 00	 or	 eax, 3072		; 00000c00H
  00642	89 45 f4	 mov	 DWORD PTR tv493[ebp], eax
  00645	d9 6d f4	 fldcw	 WORD PTR tv493[ebp]
  00648	db 5d f4	 fistp	 DWORD PTR tv491[ebp]
  0064b	66 8b 4d f4	 mov	 cx, WORD PTR tv491[ebp]
  0064f	66 89 4e 36	 mov	 WORD PTR [esi+54], cx
  00653	d9 6d fe	 fldcw	 WORD PTR tv496[ebp]

; 5362 : 
; 5363 : 					Token = GetToken();

  00656	e8 00 00 00 00	 call	 ?GetToken@@YA?AW4SMDToken@@XZ ; GetToken

; 5364 : 					p->RequireEnergy = (WORD)TokenNumber;

  0065b	d9 05 00 00 00
	00		 fld	 DWORD PTR _TokenNumber
  00661	d9 7d fe	 fnstcw	 WORD PTR tv488[ebp]
  00664	0f b7 45 fe	 movzx	 eax, WORD PTR tv488[ebp]
  00668	0d 00 0c 00 00	 or	 eax, 3072		; 00000c00H
  0066d	89 45 f4	 mov	 DWORD PTR tv485[ebp], eax
  00670	d9 6d f4	 fldcw	 WORD PTR tv485[ebp]
  00673	db 5d f4	 fistp	 DWORD PTR tv483[ebp]
  00676	0f b7 55 f4	 movzx	 edx, WORD PTR tv483[ebp]
  0067a	66 89 56 38	 mov	 WORD PTR [esi+56], dx
  0067e	d9 6d fe	 fldcw	 WORD PTR tv488[ebp]

; 5365 : 
; 5366 : 					Token = GetToken();

  00681	e8 00 00 00 00	 call	 ?GetToken@@YA?AW4SMDToken@@XZ ; GetToken

; 5367 : 					p->RequireVitality = (WORD)TokenNumber;

  00686	d9 05 00 00 00
	00		 fld	 DWORD PTR _TokenNumber
  0068c	d9 7d fe	 fnstcw	 WORD PTR tv480[ebp]
  0068f	0f b7 45 fe	 movzx	 eax, WORD PTR tv480[ebp]
  00693	0d 00 0c 00 00	 or	 eax, 3072		; 00000c00H
  00698	89 45 f4	 mov	 DWORD PTR tv455[ebp], eax
  0069b	d9 6d f4	 fldcw	 WORD PTR tv455[ebp]
  0069e	db 5d f4	 fistp	 DWORD PTR tv420[ebp]
  006a1	0f b7 45 f4	 movzx	 eax, WORD PTR tv420[ebp]
  006a5	66 89 46 4c	 mov	 WORD PTR [esi+76], ax
  006a9	d9 6d fe	 fldcw	 WORD PTR tv480[ebp]

; 5368 : 
; 5369 : 					Token = GetToken();

  006ac	e8 00 00 00 00	 call	 ?GetToken@@YA?AW4SMDToken@@XZ ; GetToken

; 5370 : 					p->RequireLeadership = (int)TokenNumber;

  006b1	d9 05 00 00 00
	00		 fld	 DWORD PTR _TokenNumber
  006b7	e8 00 00 00 00	 call	 __ftol2_sse
  006bc	89 46 6c	 mov	 DWORD PTR [esi+108], eax
$LN22@OpenItemSc:

; 5371 : 				}
; 5372 : 
; 5373 : 				if ( ItemType == 13 )

  006bf	83 ff 0d	 cmp	 edi, 13			; 0000000dH
  006c2	0f 85 9d 01 00
	00		 jne	 $LN14@OpenItemSc

; 5374 : 				{
; 5375 : 					Token = GetToken();

  006c8	e8 00 00 00 00	 call	 ?GetToken@@YA?AW4SMDToken@@XZ ; GetToken

; 5376 : 					p->Level = (BYTE)TokenNumber;

  006cd	d9 05 00 00 00
	00		 fld	 DWORD PTR _TokenNumber
  006d3	d9 7d fe	 fnstcw	 WORD PTR tv407[ebp]
  006d6	0f b7 45 fe	 movzx	 eax, WORD PTR tv407[ebp]
  006da	0d 00 0c 00 00	 or	 eax, 3072		; 00000c00H
  006df	89 45 f4	 mov	 DWORD PTR tv403[ebp], eax
  006e2	d9 6d f4	 fldcw	 WORD PTR tv403[ebp]
  006e5	db 5d f4	 fistp	 DWORD PTR tv400[ebp]
  006e8	0f b6 4d f4	 movzx	 ecx, BYTE PTR tv400[ebp]
  006ec	88 4e 22	 mov	 BYTE PTR [esi+34], cl
  006ef	d9 6d fe	 fldcw	 WORD PTR tv407[ebp]

; 5377 : 
; 5378 : 					Token = GetToken();

  006f2	e8 00 00 00 00	 call	 ?GetToken@@YA?AW4SMDToken@@XZ ; GetToken

; 5379 : 					p->Durability = (BYTE)TokenNumber;

  006f7	d9 05 00 00 00
	00		 fld	 DWORD PTR _TokenNumber
  006fd	d9 7d fe	 fnstcw	 WORD PTR tv396[ebp]
  00700	0f b7 45 fe	 movzx	 eax, WORD PTR tv396[ebp]
  00704	0d 00 0c 00 00	 or	 eax, 3072		; 00000c00H
  00709	89 45 f4	 mov	 DWORD PTR tv392[ebp], eax
  0070c	d9 6d f4	 fldcw	 WORD PTR tv392[ebp]
  0070f	db 5d f4	 fistp	 DWORD PTR tv390[ebp]
  00712	0f b6 55 f4	 movzx	 edx, BYTE PTR tv390[ebp]
  00716	88 56 30	 mov	 BYTE PTR [esi+48], dl
  00719	d9 6d fe	 fldcw	 WORD PTR tv396[ebp]

; 5380 : 
; 5381 : 					Token = GetToken();

  0071c	e8 00 00 00 00	 call	 ?GetToken@@YA?AW4SMDToken@@XZ ; GetToken

; 5382 : 					p->Resistance[0] = (BYTE)TokenNumber;

  00721	d9 05 00 00 00
	00		 fld	 DWORD PTR _TokenNumber
  00727	d9 7d fe	 fnstcw	 WORD PTR tv384[ebp]
  0072a	0f b7 45 fe	 movzx	 eax, WORD PTR tv384[ebp]
  0072e	0d 00 0c 00 00	 or	 eax, 3072		; 00000c00H
  00733	89 45 f4	 mov	 DWORD PTR tv380[ebp], eax
  00736	d9 6d f4	 fldcw	 WORD PTR tv380[ebp]
  00739	db 5d f4	 fistp	 DWORD PTR tv378[ebp]
  0073c	0f b6 45 f4	 movzx	 eax, BYTE PTR tv378[ebp]
  00740	88 46 45	 mov	 BYTE PTR [esi+69], al
  00743	d9 6d fe	 fldcw	 WORD PTR tv384[ebp]

; 5383 : 
; 5384 : 					Token = GetToken();

  00746	e8 00 00 00 00	 call	 ?GetToken@@YA?AW4SMDToken@@XZ ; GetToken

; 5385 : 					p->Resistance[1] = (BYTE)TokenNumber;

  0074b	d9 05 00 00 00
	00		 fld	 DWORD PTR _TokenNumber
  00751	d9 7d fe	 fnstcw	 WORD PTR tv374[ebp]
  00754	0f b7 45 fe	 movzx	 eax, WORD PTR tv374[ebp]
  00758	0d 00 0c 00 00	 or	 eax, 3072		; 00000c00H
  0075d	89 45 f4	 mov	 DWORD PTR tv371[ebp], eax
  00760	d9 6d f4	 fldcw	 WORD PTR tv371[ebp]
  00763	db 5d f4	 fistp	 DWORD PTR tv369[ebp]
  00766	0f b6 4d f4	 movzx	 ecx, BYTE PTR tv369[ebp]
  0076a	88 4e 46	 mov	 BYTE PTR [esi+70], cl
  0076d	d9 6d fe	 fldcw	 WORD PTR tv374[ebp]

; 5386 : 
; 5387 : 					Token = GetToken();

  00770	e8 00 00 00 00	 call	 ?GetToken@@YA?AW4SMDToken@@XZ ; GetToken

; 5388 : 					p->Resistance[2] = (BYTE)TokenNumber;

  00775	d9 05 00 00 00
	00		 fld	 DWORD PTR _TokenNumber
  0077b	d9 7d fe	 fnstcw	 WORD PTR tv366[ebp]
  0077e	0f b7 45 fe	 movzx	 eax, WORD PTR tv366[ebp]
  00782	0d 00 0c 00 00	 or	 eax, 3072		; 00000c00H
  00787	89 45 f4	 mov	 DWORD PTR tv363[ebp], eax
  0078a	d9 6d f4	 fldcw	 WORD PTR tv363[ebp]
  0078d	db 5d f4	 fistp	 DWORD PTR tv361[ebp]
  00790	0f b6 55 f4	 movzx	 edx, BYTE PTR tv361[ebp]
  00794	88 56 47	 mov	 BYTE PTR [esi+71], dl
  00797	d9 6d fe	 fldcw	 WORD PTR tv366[ebp]

; 5389 : 
; 5390 : 					Token = GetToken();

  0079a	e8 00 00 00 00	 call	 ?GetToken@@YA?AW4SMDToken@@XZ ; GetToken

; 5391 : 					p->Resistance[3] = (BYTE)TokenNumber;

  0079f	d9 05 00 00 00
	00		 fld	 DWORD PTR _TokenNumber
  007a5	d9 7d fe	 fnstcw	 WORD PTR tv357[ebp]
  007a8	0f b7 45 fe	 movzx	 eax, WORD PTR tv357[ebp]
  007ac	0d 00 0c 00 00	 or	 eax, 3072		; 00000c00H
  007b1	89 45 f4	 mov	 DWORD PTR tv354[ebp], eax
  007b4	d9 6d f4	 fldcw	 WORD PTR tv354[ebp]
  007b7	db 5d f4	 fistp	 DWORD PTR tv352[ebp]
  007ba	0f b6 45 f4	 movzx	 eax, BYTE PTR tv352[ebp]
  007be	88 46 48	 mov	 BYTE PTR [esi+72], al
  007c1	d9 6d fe	 fldcw	 WORD PTR tv357[ebp]

; 5392 : 
; 5393 : 					Token = GetToken();

  007c4	e8 00 00 00 00	 call	 ?GetToken@@YA?AW4SMDToken@@XZ ; GetToken

; 5394 : 					p->Resistance[4] = (BYTE)TokenNumber;

  007c9	d9 05 00 00 00
	00		 fld	 DWORD PTR _TokenNumber
  007cf	d9 7d fe	 fnstcw	 WORD PTR tv349[ebp]
  007d2	0f b7 45 fe	 movzx	 eax, WORD PTR tv349[ebp]
  007d6	0d 00 0c 00 00	 or	 eax, 3072		; 00000c00H
  007db	89 45 f4	 mov	 DWORD PTR tv346[ebp], eax
  007de	d9 6d f4	 fldcw	 WORD PTR tv346[ebp]
  007e1	db 5d f4	 fistp	 DWORD PTR tv344[ebp]
  007e4	0f b6 4d f4	 movzx	 ecx, BYTE PTR tv344[ebp]
  007e8	88 4e 49	 mov	 BYTE PTR [esi+73], cl
  007eb	d9 6d fe	 fldcw	 WORD PTR tv349[ebp]

; 5395 : 
; 5396 : 					Token = GetToken();

  007ee	e8 00 00 00 00	 call	 ?GetToken@@YA?AW4SMDToken@@XZ ; GetToken

; 5397 : 					p->Resistance[5] = (BYTE)TokenNumber;

  007f3	d9 05 00 00 00
	00		 fld	 DWORD PTR _TokenNumber
  007f9	d9 7d fe	 fnstcw	 WORD PTR tv341[ebp]
  007fc	0f b7 45 fe	 movzx	 eax, WORD PTR tv341[ebp]
  00800	0d 00 0c 00 00	 or	 eax, 3072		; 00000c00H
  00805	89 45 f4	 mov	 DWORD PTR tv338[ebp], eax
  00808	d9 6d f4	 fldcw	 WORD PTR tv338[ebp]
  0080b	db 5d f4	 fistp	 DWORD PTR tv336[ebp]
  0080e	0f b6 55 f4	 movzx	 edx, BYTE PTR tv336[ebp]
  00812	88 56 4a	 mov	 BYTE PTR [esi+74], dl
  00815	d9 6d fe	 fldcw	 WORD PTR tv341[ebp]

; 5398 : 
; 5399 : 					Token = GetToken();

  00818	e8 00 00 00 00	 call	 ?GetToken@@YA?AW4SMDToken@@XZ ; GetToken

; 5400 : 					p->Resistance[6] = (BYTE)TokenNumber;
; 5401 : 
; 5402 : 					p->ResistanceType = -1;

  0081d	c6 46 62 ff	 mov	 BYTE PTR [esi+98], 255	; 000000ffH
  00821	d9 05 00 00 00
	00		 fld	 DWORD PTR _TokenNumber
  00827	d9 7d fe	 fnstcw	 WORD PTR tv333[ebp]
  0082a	0f b7 45 fe	 movzx	 eax, WORD PTR tv333[ebp]
  0082e	0d 00 0c 00 00	 or	 eax, 3072		; 00000c00H
  00833	89 45 f4	 mov	 DWORD PTR tv329[ebp], eax
  00836	d9 6d f4	 fldcw	 WORD PTR tv329[ebp]
  00839	db 5d f4	 fistp	 DWORD PTR tv327[ebp]
  0083c	0f b6 45 f4	 movzx	 eax, BYTE PTR tv327[ebp]
  00840	88 46 4b	 mov	 BYTE PTR [esi+75], al

; 5403 : 					
; 5404 : 					int n;
; 5405 : 
; 5406 : 					for (n=0;n<MAX_ITEM_SPECIAL_ATTRIBUTE-1;n++)

  00843	33 c0		 xor	 eax, eax
  00845	d9 6d fe	 fldcw	 WORD PTR tv333[ebp]
$LL13@OpenItemSc:

; 5407 : 					{
; 5408 : 						if ( (p->Resistance[n]) != 0 )

  00848	80 7c 06 45 00	 cmp	 BYTE PTR [esi+eax+69], 0
  0084d	74 03		 je	 SHORT $LN12@OpenItemSc

; 5409 : 						{
; 5410 : 							p->ResistanceType=n;

  0084f	88 46 62	 mov	 BYTE PTR [esi+98], al
$LN12@OpenItemSc:

; 5403 : 					
; 5404 : 					int n;
; 5405 : 
; 5406 : 					for (n=0;n<MAX_ITEM_SPECIAL_ATTRIBUTE-1;n++)

  00852	40		 inc	 eax
  00853	83 f8 06	 cmp	 eax, 6
  00856	7c f0		 jl	 SHORT $LL13@OpenItemSc

; 5411 : 						}
; 5412 : 					}
; 5413 : 
; 5414 : 					p->RequireLevel = p->Level ;

  00858	0f b6 4e 22	 movzx	 ecx, BYTE PTR [esi+34]
  0085c	66 89 4e 3a	 mov	 WORD PTR [esi+58], cx

; 5415 : 					
; 5416 : 				}
; 5417 : 
; 5418 : 				if ( ItemType == 14 )

  00860	e9 6e 02 00 00	 jmp	 $LN5@OpenItemSc
$LN14@OpenItemSc:
  00865	83 ff 0e	 cmp	 edi, 14			; 0000000eH
  00868	75 5d		 jne	 SHORT $LN9@OpenItemSc

; 5419 : 				{
; 5420 : 					Token = GetToken();

  0086a	e8 00 00 00 00	 call	 ?GetToken@@YA?AW4SMDToken@@XZ ; GetToken

; 5421 : 					p->Value = (WORD)TokenNumber;

  0086f	d9 05 00 00 00
	00		 fld	 DWORD PTR _TokenNumber
  00875	d9 7d fe	 fnstcw	 WORD PTR tv324[ebp]
  00878	0f b7 45 fe	 movzx	 eax, WORD PTR tv324[ebp]
  0087c	0d 00 0c 00 00	 or	 eax, 3072		; 00000c00H
  00881	89 45 f4	 mov	 DWORD PTR tv320[ebp], eax
  00884	d9 6d f4	 fldcw	 WORD PTR tv320[ebp]
  00887	db 5d f4	 fistp	 DWORD PTR tv318[ebp]
  0088a	66 8b 55 f4	 mov	 dx, WORD PTR tv318[ebp]
  0088e	66 89 56 3c	 mov	 WORD PTR [esi+60], dx
  00892	d9 6d fe	 fldcw	 WORD PTR tv324[ebp]

; 5422 : 
; 5423 : 					Token = GetToken();

  00895	e8 00 00 00 00	 call	 ?GetToken@@YA?AW4SMDToken@@XZ ; GetToken

; 5424 : 					p->Level = (BYTE)TokenNumber;
; 5425 : 
; 5426 : 					p->Durability = 1;

  0089a	c6 46 30 01	 mov	 BYTE PTR [esi+48], 1
  0089e	d9 05 00 00 00
	00		 fld	 DWORD PTR _TokenNumber
  008a4	d9 7d fe	 fnstcw	 WORD PTR tv312[ebp]
  008a7	0f b7 45 fe	 movzx	 eax, WORD PTR tv312[ebp]
  008ab	0d 00 0c 00 00	 or	 eax, 3072		; 00000c00H
  008b0	89 45 f4	 mov	 DWORD PTR tv309[ebp], eax
  008b3	d9 6d f4	 fldcw	 WORD PTR tv309[ebp]
  008b6	db 5d f4	 fistp	 DWORD PTR tv306[ebp]
  008b9	8a 45 f4	 mov	 al, BYTE PTR tv306[ebp]
  008bc	88 46 22	 mov	 BYTE PTR [esi+34], al
  008bf	d9 6d fe	 fldcw	 WORD PTR tv312[ebp]

; 5427 : 				}
; 5428 : 
; 5429 : 				if ( ItemType == 12 )

  008c2	e9 11 02 00 00	 jmp	 $LN60@OpenItemSc
$LN9@OpenItemSc:
  008c7	83 ff 0c	 cmp	 edi, 12			; 0000000cH
  008ca	0f 85 52 01 00
	00		 jne	 $LN8@OpenItemSc

; 5430 : 				{
; 5431 : 					Token = GetToken();

  008d0	e8 00 00 00 00	 call	 ?GetToken@@YA?AW4SMDToken@@XZ ; GetToken

; 5432 : 					p->Level = (BYTE)TokenNumber;

  008d5	d9 05 00 00 00
	00		 fld	 DWORD PTR _TokenNumber
  008db	d9 7d fe	 fnstcw	 WORD PTR tv302[ebp]
  008de	0f b7 45 fe	 movzx	 eax, WORD PTR tv302[ebp]
  008e2	0d 00 0c 00 00	 or	 eax, 3072		; 00000c00H
  008e7	89 45 f4	 mov	 DWORD PTR tv298[ebp], eax
  008ea	d9 6d f4	 fldcw	 WORD PTR tv298[ebp]
  008ed	db 5d f4	 fistp	 DWORD PTR tv295[ebp]
  008f0	8a 4d f4	 mov	 cl, BYTE PTR tv295[ebp]
  008f3	88 4e 22	 mov	 BYTE PTR [esi+34], cl
  008f6	d9 6d fe	 fldcw	 WORD PTR tv302[ebp]

; 5433 : 
; 5434 : 					Token = GetToken();

  008f9	e8 00 00 00 00	 call	 ?GetToken@@YA?AW4SMDToken@@XZ ; GetToken

; 5435 : 					p->Defense = (BYTE)TokenNumber;

  008fe	d9 05 00 00 00
	00		 fld	 DWORD PTR _TokenNumber
  00904	d9 7d fe	 fnstcw	 WORD PTR tv291[ebp]
  00907	0f b7 45 fe	 movzx	 eax, WORD PTR tv291[ebp]
  0090b	0d 00 0c 00 00	 or	 eax, 3072		; 00000c00H
  00910	89 45 f4	 mov	 DWORD PTR tv287[ebp], eax
  00913	d9 6d f4	 fldcw	 WORD PTR tv287[ebp]
  00916	db 5d f4	 fistp	 DWORD PTR tv285[ebp]
  00919	8a 55 f4	 mov	 dl, BYTE PTR tv285[ebp]
  0091c	88 56 2d	 mov	 BYTE PTR [esi+45], dl
  0091f	d9 6d fe	 fldcw	 WORD PTR tv291[ebp]

; 5436 : 
; 5437 : 					Token = GetToken();

  00922	e8 00 00 00 00	 call	 ?GetToken@@YA?AW4SMDToken@@XZ ; GetToken

; 5438 : 					p->Durability = (BYTE)TokenNumber;

  00927	d9 05 00 00 00
	00		 fld	 DWORD PTR _TokenNumber
  0092d	d9 7d fe	 fnstcw	 WORD PTR tv281[ebp]
  00930	0f b7 45 fe	 movzx	 eax, WORD PTR tv281[ebp]
  00934	0d 00 0c 00 00	 or	 eax, 3072		; 00000c00H
  00939	89 45 f4	 mov	 DWORD PTR tv278[ebp], eax
  0093c	d9 6d f4	 fldcw	 WORD PTR tv278[ebp]
  0093f	db 5d f4	 fistp	 DWORD PTR tv275[ebp]
  00942	8a 45 f4	 mov	 al, BYTE PTR tv275[ebp]
  00945	88 46 30	 mov	 BYTE PTR [esi+48], al
  00948	d9 6d fe	 fldcw	 WORD PTR tv281[ebp]

; 5439 : 
; 5440 : 					Token = GetToken();

  0094b	e8 00 00 00 00	 call	 ?GetToken@@YA?AW4SMDToken@@XZ ; GetToken

; 5441 : 					p->RequireLevel = (WORD)TokenNumber;

  00950	d9 05 00 00 00
	00		 fld	 DWORD PTR _TokenNumber
  00956	d9 7d fe	 fnstcw	 WORD PTR tv272[ebp]
  00959	0f b7 45 fe	 movzx	 eax, WORD PTR tv272[ebp]
  0095d	0d 00 0c 00 00	 or	 eax, 3072		; 00000c00H
  00962	89 45 f4	 mov	 DWORD PTR tv269[ebp], eax
  00965	d9 6d f4	 fldcw	 WORD PTR tv269[ebp]
  00968	db 5d f4	 fistp	 DWORD PTR tv267[ebp]
  0096b	0f b7 4d f4	 movzx	 ecx, WORD PTR tv267[ebp]
  0096f	66 89 4e 3a	 mov	 WORD PTR [esi+58], cx
  00973	d9 6d fe	 fldcw	 WORD PTR tv272[ebp]

; 5442 : 
; 5443 : 					Token = GetToken();

  00976	e8 00 00 00 00	 call	 ?GetToken@@YA?AW4SMDToken@@XZ ; GetToken

; 5444 : 					p->RequireEnergy = (WORD)TokenNumber;

  0097b	d9 05 00 00 00
	00		 fld	 DWORD PTR _TokenNumber
  00981	d9 7d fe	 fnstcw	 WORD PTR tv264[ebp]
  00984	0f b7 45 fe	 movzx	 eax, WORD PTR tv264[ebp]
  00988	0d 00 0c 00 00	 or	 eax, 3072		; 00000c00H
  0098d	89 45 f4	 mov	 DWORD PTR tv261[ebp], eax
  00990	d9 6d f4	 fldcw	 WORD PTR tv261[ebp]
  00993	db 5d f4	 fistp	 DWORD PTR tv259[ebp]
  00996	66 8b 55 f4	 mov	 dx, WORD PTR tv259[ebp]
  0099a	66 89 56 38	 mov	 WORD PTR [esi+56], dx
  0099e	d9 6d fe	 fldcw	 WORD PTR tv264[ebp]

; 5445 : 
; 5446 : 					Token = GetToken();

  009a1	e8 00 00 00 00	 call	 ?GetToken@@YA?AW4SMDToken@@XZ ; GetToken

; 5447 : 					p->RequireStrength = (WORD)TokenNumber;

  009a6	d9 05 00 00 00
	00		 fld	 DWORD PTR _TokenNumber
  009ac	d9 7d fe	 fnstcw	 WORD PTR tv256[ebp]
  009af	0f b7 45 fe	 movzx	 eax, WORD PTR tv256[ebp]
  009b3	0d 00 0c 00 00	 or	 eax, 3072		; 00000c00H
  009b8	89 45 f4	 mov	 DWORD PTR tv253[ebp], eax
  009bb	d9 6d f4	 fldcw	 WORD PTR tv253[ebp]
  009be	db 5d f4	 fistp	 DWORD PTR tv251[ebp]
  009c1	66 8b 45 f4	 mov	 ax, WORD PTR tv251[ebp]
  009c5	66 89 46 34	 mov	 WORD PTR [esi+52], ax
  009c9	d9 6d fe	 fldcw	 WORD PTR tv256[ebp]

; 5448 : 
; 5449 : 					Token = GetToken();

  009cc	e8 00 00 00 00	 call	 ?GetToken@@YA?AW4SMDToken@@XZ ; GetToken

; 5450 : 					p->RequireDexterity = (WORD)TokenNumber;

  009d1	d9 05 00 00 00
	00		 fld	 DWORD PTR _TokenNumber
  009d7	d9 7d fe	 fnstcw	 WORD PTR tv247[ebp]
  009da	0f b7 45 fe	 movzx	 eax, WORD PTR tv247[ebp]
  009de	0d 00 0c 00 00	 or	 eax, 3072		; 00000c00H
  009e3	89 45 f4	 mov	 DWORD PTR tv244[ebp], eax
  009e6	d9 6d f4	 fldcw	 WORD PTR tv244[ebp]
  009e9	db 5d f4	 fistp	 DWORD PTR tv242[ebp]
  009ec	0f b7 4d f4	 movzx	 ecx, WORD PTR tv242[ebp]
  009f0	66 89 4e 36	 mov	 WORD PTR [esi+54], cx
  009f4	d9 6d fe	 fldcw	 WORD PTR tv247[ebp]

; 5451 : 
; 5452 : 					Token = GetToken();

  009f7	e8 00 00 00 00	 call	 ?GetToken@@YA?AW4SMDToken@@XZ ; GetToken

; 5453 : 					p->RequireLeadership = (int)TokenNumber;

  009fc	d9 05 00 00 00
	00		 fld	 DWORD PTR _TokenNumber
  00a02	e8 00 00 00 00	 call	 __ftol2_sse
  00a07	89 46 6c	 mov	 DWORD PTR [esi+108], eax

; 5454 : 
; 5455 : 					Token = GetToken();

  00a0a	e8 00 00 00 00	 call	 ?GetToken@@YA?AW4SMDToken@@XZ ; GetToken

; 5456 : 					p->BuyMoney = (int)TokenNumber;

  00a0f	d9 05 00 00 00
	00		 fld	 DWORD PTR _TokenNumber
  00a15	e8 00 00 00 00	 call	 __ftol2_sse
  00a1a	89 46 50	 mov	 DWORD PTR [esi+80], eax

; 5457 : 
; 5458 : 				}
; 5459 : 				
; 5460 : 				if ( ItemType == 15 )

  00a1d	e9 b6 00 00 00	 jmp	 $LN60@OpenItemSc
$LN8@OpenItemSc:
  00a22	83 ff 0f	 cmp	 edi, 15			; 0000000fH
  00a25	0f 85 a3 00 00
	00		 jne	 $LN7@OpenItemSc

; 5461 : 				{
; 5462 : 
; 5463 : 					Token = GetToken();

  00a2b	e8 00 00 00 00	 call	 ?GetToken@@YA?AW4SMDToken@@XZ ; GetToken

; 5464 : 					p->Level = (BYTE)TokenNumber;

  00a30	d9 05 00 00 00
	00		 fld	 DWORD PTR _TokenNumber
  00a36	d9 7d fe	 fnstcw	 WORD PTR tv227[ebp]
  00a39	0f b7 45 fe	 movzx	 eax, WORD PTR tv227[ebp]
  00a3d	0d 00 0c 00 00	 or	 eax, 3072		; 00000c00H
  00a42	89 45 f4	 mov	 DWORD PTR tv223[ebp], eax
  00a45	d9 6d f4	 fldcw	 WORD PTR tv223[ebp]
  00a48	db 5d f4	 fistp	 DWORD PTR tv220[ebp]
  00a4b	8a 55 f4	 mov	 dl, BYTE PTR tv220[ebp]
  00a4e	88 56 22	 mov	 BYTE PTR [esi+34], dl
  00a51	d9 6d fe	 fldcw	 WORD PTR tv227[ebp]

; 5465 : 
; 5466 : 					Token = GetToken();

  00a54	e8 00 00 00 00	 call	 ?GetToken@@YA?AW4SMDToken@@XZ ; GetToken

; 5467 : 					p->RequireLevel  = (WORD)TokenNumber;

  00a59	d9 05 00 00 00
	00		 fld	 DWORD PTR _TokenNumber
  00a5f	d9 7d fe	 fnstcw	 WORD PTR tv215[ebp]
  00a62	0f b7 45 fe	 movzx	 eax, WORD PTR tv215[ebp]
  00a66	0d 00 0c 00 00	 or	 eax, 3072		; 00000c00H
  00a6b	89 45 f4	 mov	 DWORD PTR tv210[ebp], eax
  00a6e	d9 6d f4	 fldcw	 WORD PTR tv210[ebp]
  00a71	db 5d f4	 fistp	 DWORD PTR tv208[ebp]
  00a74	66 8b 45 f4	 mov	 ax, WORD PTR tv208[ebp]
  00a78	66 89 46 3a	 mov	 WORD PTR [esi+58], ax
  00a7c	d9 6d fe	 fldcw	 WORD PTR tv215[ebp]

; 5468 : 
; 5469 : 					Token = GetToken();

  00a7f	e8 00 00 00 00	 call	 ?GetToken@@YA?AW4SMDToken@@XZ ; GetToken

; 5470 : 					p->RequireEnergy  = (WORD)TokenNumber;

  00a84	d9 05 00 00 00
	00		 fld	 DWORD PTR _TokenNumber
  00a8a	d9 7d fe	 fnstcw	 WORD PTR tv205[ebp]
  00a8d	0f b7 45 fe	 movzx	 eax, WORD PTR tv205[ebp]
  00a91	0d 00 0c 00 00	 or	 eax, 3072		; 00000c00H
  00a96	89 45 f4	 mov	 DWORD PTR tv202[ebp], eax
  00a99	d9 6d f4	 fldcw	 WORD PTR tv202[ebp]
  00a9c	db 5d f4	 fistp	 DWORD PTR tv200[ebp]
  00a9f	66 8b 4d f4	 mov	 cx, WORD PTR tv200[ebp]
  00aa3	66 89 4e 38	 mov	 WORD PTR [esi+56], cx
  00aa7	d9 6d fe	 fldcw	 WORD PTR tv205[ebp]

; 5471 : 
; 5472 : 					Token = GetToken();

  00aaa	e8 00 00 00 00	 call	 ?GetToken@@YA?AW4SMDToken@@XZ ; GetToken

; 5473 : 					p->BuyMoney  = (int)TokenNumber;

  00aaf	d9 05 00 00 00
	00		 fld	 DWORD PTR _TokenNumber
  00ab5	e8 00 00 00 00	 call	 __ftol2_sse
  00aba	89 46 50	 mov	 DWORD PTR [esi+80], eax

; 5474 : 
; 5475 : 					p->DamageMin = p->Level;

  00abd	8a 46 22	 mov	 al, BYTE PTR [esi+34]

; 5476 : 					p->DamageMax = p->Level + p->Level/2; 

  00ac0	8a d0		 mov	 dl, al
  00ac2	d0 ea		 shr	 dl, 1
  00ac4	02 d0		 add	 dl, al
  00ac6	88 46 2a	 mov	 BYTE PTR [esi+42], al
  00ac9	88 56 2b	 mov	 BYTE PTR [esi+43], dl

; 5477 : 				}
; 5478 : 
; 5479 : 				if ( ItemType <= 11 || ItemType == 13)

  00acc	eb 0a		 jmp	 SHORT $LN60@OpenItemSc
$LN7@OpenItemSc:
  00ace	83 ff 0b	 cmp	 edi, 11			; 0000000bH
  00ad1	7f 05		 jg	 SHORT $LN60@OpenItemSc
$LN5@OpenItemSc:

; 5480 : 				{
; 5481 : 					Token = GetToken();

  00ad3	e8 00 00 00 00	 call	 ?GetToken@@YA?AW4SMDToken@@XZ ; GetToken
$LN60@OpenItemSc:

; 5482 : 				}
; 5483 : 
; 5484 : 				p->SetAttr = (BYTE)TokenNumber;

  00ad8	d9 05 00 00 00
	00		 fld	 DWORD PTR _TokenNumber
  00ade	d9 7d fe	 fnstcw	 WORD PTR tv186[ebp]
  00ae1	0f b7 45 fe	 movzx	 eax, WORD PTR tv186[ebp]
  00ae5	0d 00 0c 00 00	 or	 eax, 3072		; 00000c00H
  00aea	89 45 f4	 mov	 DWORD PTR tv177[ebp], eax
  00aed	d9 6d f4	 fldcw	 WORD PTR tv177[ebp]
  00af0	db 5d f4	 fistp	 DWORD PTR tv171[ebp]
  00af3	8a 45 f4	 mov	 al, BYTE PTR tv171[ebp]
  00af6	88 46 61	 mov	 BYTE PTR [esi+97], al
  00af9	d9 6d fe	 fldcw	 WORD PTR tv186[ebp]

; 5485 : 
; 5486 : 				if ( ItemType <= 13 || ItemType == 15 )

  00afc	83 ff 0d	 cmp	 edi, 13			; 0000000dH
  00aff	7e 09		 jle	 SHORT $LN3@OpenItemSc
  00b01	83 ff 0f	 cmp	 edi, 15			; 0000000fH
  00b04	0f 85 26 01 00
	00		 jne	 $LN4@OpenItemSc
$LN3@OpenItemSc:

; 5487 : 				{
; 5488 : 
; 5489 : 					Token = GetToken();

  00b0a	e8 00 00 00 00	 call	 ?GetToken@@YA?AW4SMDToken@@XZ ; GetToken

; 5490 : 					p->RequireClass[0]  = (BYTE)TokenNumber;

  00b0f	d9 05 00 00 00
	00		 fld	 DWORD PTR _TokenNumber
  00b15	d9 7d fe	 fnstcw	 WORD PTR tv164[ebp]
  00b18	0f b7 45 fe	 movzx	 eax, WORD PTR tv164[ebp]
  00b1c	0d 00 0c 00 00	 or	 eax, 3072		; 00000c00H
  00b21	89 45 f4	 mov	 DWORD PTR tv157[ebp], eax
  00b24	d9 6d f4	 fldcw	 WORD PTR tv157[ebp]
  00b27	db 5d f4	 fistp	 DWORD PTR tv151[ebp]
  00b2a	0f b6 4d f4	 movzx	 ecx, BYTE PTR tv151[ebp]
  00b2e	88 4e 3e	 mov	 BYTE PTR [esi+62], cl
  00b31	d9 6d fe	 fldcw	 WORD PTR tv164[ebp]

; 5491 : 
; 5492 : 					Token = GetToken();

  00b34	e8 00 00 00 00	 call	 ?GetToken@@YA?AW4SMDToken@@XZ ; GetToken

; 5493 : 					p->RequireClass[1]  = (BYTE)TokenNumber;

  00b39	d9 05 00 00 00
	00		 fld	 DWORD PTR _TokenNumber
  00b3f	d9 7d fe	 fnstcw	 WORD PTR tv142[ebp]
  00b42	0f b7 45 fe	 movzx	 eax, WORD PTR tv142[ebp]
  00b46	0d 00 0c 00 00	 or	 eax, 3072		; 00000c00H
  00b4b	89 45 f4	 mov	 DWORD PTR tv91[ebp], eax
  00b4e	d9 6d f4	 fldcw	 WORD PTR tv91[ebp]
  00b51	db 5d f4	 fistp	 DWORD PTR tv474[ebp]
  00b54	0f b6 55 f4	 movzx	 edx, BYTE PTR tv474[ebp]
  00b58	88 56 3f	 mov	 BYTE PTR [esi+63], dl
  00b5b	d9 6d fe	 fldcw	 WORD PTR tv142[ebp]

; 5494 : 
; 5495 : 					Token = GetToken();

  00b5e	e8 00 00 00 00	 call	 ?GetToken@@YA?AW4SMDToken@@XZ ; GetToken

; 5496 : 					p->RequireClass[2]  = (BYTE)TokenNumber;

  00b63	d9 05 00 00 00
	00		 fld	 DWORD PTR _TokenNumber
  00b69	d9 7d fe	 fnstcw	 WORD PTR tv136[ebp]
  00b6c	0f b7 45 fe	 movzx	 eax, WORD PTR tv136[ebp]
  00b70	0d 00 0c 00 00	 or	 eax, 3072		; 00000c00H
  00b75	89 45 f4	 mov	 DWORD PTR tv940[ebp], eax
  00b78	d9 6d f4	 fldcw	 WORD PTR tv940[ebp]
  00b7b	db 5d f4	 fistp	 DWORD PTR tv942[ebp]
  00b7e	0f b6 45 f4	 movzx	 eax, BYTE PTR tv942[ebp]
  00b82	88 46 40	 mov	 BYTE PTR [esi+64], al
  00b85	d9 6d fe	 fldcw	 WORD PTR tv136[ebp]

; 5497 : 
; 5498 : 					Token = GetToken();

  00b88	e8 00 00 00 00	 call	 ?GetToken@@YA?AW4SMDToken@@XZ ; GetToken

; 5499 : 					p->RequireClass[3]  = (BYTE)TokenNumber;

  00b8d	d9 05 00 00 00
	00		 fld	 DWORD PTR _TokenNumber
  00b93	d9 7d fe	 fnstcw	 WORD PTR tv945[ebp]
  00b96	0f b7 45 fe	 movzx	 eax, WORD PTR tv945[ebp]
  00b9a	0d 00 0c 00 00	 or	 eax, 3072		; 00000c00H
  00b9f	89 45 f4	 mov	 DWORD PTR tv948[ebp], eax
  00ba2	d9 6d f4	 fldcw	 WORD PTR tv948[ebp]
  00ba5	db 5d f4	 fistp	 DWORD PTR tv950[ebp]
  00ba8	0f b6 4d f4	 movzx	 ecx, BYTE PTR tv950[ebp]
  00bac	88 4e 41	 mov	 BYTE PTR [esi+65], cl
  00baf	d9 6d fe	 fldcw	 WORD PTR tv945[ebp]

; 5500 : 
; 5501 : 					Token = GetToken();

  00bb2	e8 00 00 00 00	 call	 ?GetToken@@YA?AW4SMDToken@@XZ ; GetToken

; 5502 : 					p->RequireClass[4]  = (BYTE)TokenNumber;

  00bb7	d9 05 00 00 00
	00		 fld	 DWORD PTR _TokenNumber
  00bbd	d9 7d fe	 fnstcw	 WORD PTR tv953[ebp]
  00bc0	0f b7 45 fe	 movzx	 eax, WORD PTR tv953[ebp]
  00bc4	0d 00 0c 00 00	 or	 eax, 3072		; 00000c00H
  00bc9	89 45 f4	 mov	 DWORD PTR tv956[ebp], eax
  00bcc	d9 6d f4	 fldcw	 WORD PTR tv956[ebp]
  00bcf	db 5d f4	 fistp	 DWORD PTR tv958[ebp]
  00bd2	0f b6 55 f4	 movzx	 edx, BYTE PTR tv958[ebp]
  00bd6	88 56 42	 mov	 BYTE PTR [esi+66], dl
  00bd9	d9 6d fe	 fldcw	 WORD PTR tv953[ebp]

; 5503 : 
; 5504 : 					Token = GetToken();

  00bdc	e8 00 00 00 00	 call	 ?GetToken@@YA?AW4SMDToken@@XZ ; GetToken

; 5505 : 					p->RequireClass[5]  = (BYTE)TokenNumber;

  00be1	d9 05 00 00 00
	00		 fld	 DWORD PTR _TokenNumber
  00be7	d9 7d fe	 fnstcw	 WORD PTR tv961[ebp]
  00bea	0f b7 45 fe	 movzx	 eax, WORD PTR tv961[ebp]
  00bee	0d 00 0c 00 00	 or	 eax, 3072		; 00000c00H
  00bf3	89 45 f4	 mov	 DWORD PTR tv964[ebp], eax
  00bf6	d9 6d f4	 fldcw	 WORD PTR tv964[ebp]
  00bf9	db 5d f4	 fistp	 DWORD PTR tv966[ebp]
  00bfc	0f b6 45 f4	 movzx	 eax, BYTE PTR tv966[ebp]
  00c00	88 46 43	 mov	 BYTE PTR [esi+67], al
  00c03	d9 6d fe	 fldcw	 WORD PTR tv961[ebp]

; 5506 : 
; 5507 : 					Token = GetToken();

  00c06	e8 00 00 00 00	 call	 ?GetToken@@YA?AW4SMDToken@@XZ ; GetToken

; 5508 : 					p->RequireClass[6]  = TokenNumber;

  00c0b	d9 05 00 00 00
	00		 fld	 DWORD PTR _TokenNumber
  00c11	d9 7d fe	 fnstcw	 WORD PTR tv969[ebp]
  00c14	0f b7 45 fe	 movzx	 eax, WORD PTR tv969[ebp]
  00c18	0d 00 0c 00 00	 or	 eax, 3072		; 00000c00H
  00c1d	89 45 f4	 mov	 DWORD PTR tv972[ebp], eax
  00c20	d9 6d f4	 fldcw	 WORD PTR tv972[ebp]
  00c23	db 5d f4	 fistp	 DWORD PTR tv974[ebp]
  00c26	0f b6 4d f4	 movzx	 ecx, BYTE PTR tv974[ebp]
  00c2a	88 4e 44	 mov	 BYTE PTR [esi+68], cl
  00c2d	d9 6d fe	 fldcw	 WORD PTR tv969[ebp]
$LN4@OpenItemSc:

; 5509 : 				}
; 5510 : 
; 5511 : 				CalRepairRate(ItemType, ItemSubType, p);

  00c30	56		 push	 esi
  00c31	53		 push	 ebx
  00c32	57		 push	 edi
  00c33	e8 00 00 00 00	 call	 ?CalRepairRate@@YAXHHPAUITEM_ATTRIBUTE@@@Z ; CalRepairRate

; 5512 : 
; 5513 : 				p->HaveItemInfo = TRUE;
; 5514 : 
; 5515 : 				loop_count++;

  00c38	8b 45 f8	 mov	 eax, DWORD PTR _loop_count$[ebp]
  00c3b	40		 inc	 eax
  00c3c	83 c4 0c	 add	 esp, 12			; 0000000cH
  00c3f	c6 46 20 01	 mov	 BYTE PTR [esi+32], 1
  00c43	89 45 f8	 mov	 DWORD PTR _loop_count$[ebp], eax

; 5516 : 
; 5517 : 				if ( loop_count > MAX_SUBTYPE_ITEMS )

  00c46	3d 00 02 00 00	 cmp	 eax, 512		; 00000200H

; 5520 : 					break;
; 5521 : 				}
; 5522 : 			}

  00c4b	0f 8e 31 f4 ff
	ff		 jle	 $LL30@OpenItemSc

; 5518 : 				{
; 5519 : 					MsgBox("Error : Item Data fail. (LoopCount:%d) Item Type:%d Index %d", loop_count, ItemType, ItemSubType);

  00c51	53		 push	 ebx
  00c52	57		 push	 edi
  00c53	8b d0		 mov	 edx, eax
  00c55	52		 push	 edx
  00c56	68 00 00 00 00	 push	 OFFSET ??_C@_0DN@NLHNDLLL@Error?5?3?5Item?5Data?5fail?4?5?$CILoopCou@
  00c5b	e8 00 00 00 00	 call	 ?MsgBox@@YAXPADZZ	; MsgBox
  00c60	83 c4 10	 add	 esp, 16			; 00000010H
$LN61@OpenItemSc:

; 5523 : 
; 5524 : 			if ( loop_count > MAX_SUBTYPE_ITEMS )

  00c63	81 7d f8 00 02
	00 00		 cmp	 DWORD PTR _loop_count$[ebp], 512 ; 00000200H
  00c6a	7f 0e		 jg	 SHORT $LN64@OpenItemSc
$LN1@OpenItemSc:

; 5193 : 	}
; 5194 : 
; 5195 : 	
; 5196 : 	while ( true )
; 5197 : 	{
; 5198 : 		Token = GetToken();

  00c6c	e8 00 00 00 00	 call	 ?GetToken@@YA?AW4SMDToken@@XZ ; GetToken

; 5199 : 
; 5200 : 		if ( Token == 2 )

  00c71	83 f8 02	 cmp	 eax, 2
  00c74	0f 85 eb f3 ff
	ff		 jne	 $LL34@OpenItemSc
$LN64@OpenItemSc:
  00c7a	5f		 pop	 edi
  00c7b	5e		 pop	 esi
  00c7c	5b		 pop	 ebx
$LN62@OpenItemSc:

; 5525 : 			{
; 5526 : 				break;
; 5527 : 			}
; 5528 : 			
; 5529 : 		}
; 5530 : 
; 5531 : 
; 5532 : 	}
; 5533 : 	
; 5534 : 	fclose(SMDFile);

  00c7d	a1 00 00 00 00	 mov	 eax, DWORD PTR _SMDFile
  00c82	50		 push	 eax
  00c83	e8 00 00 00 00	 call	 _fclose
  00c88	83 c4 04	 add	 esp, 4

; 5535 : 	return TRUE;

  00c8b	b8 01 00 00 00	 mov	 eax, 1

; 5536 : }

  00c90	8b e5		 mov	 esp, ebp
  00c92	5d		 pop	 ebp
  00c93	c3		 ret	 0
?OpenItemScript@@YAHPAD@Z ENDP				; OpenItemScript
_TEXT	ENDS
PUBLIC	?OpenItemNameScript@@YAHPAD@Z			; OpenItemNameScript
; Function compile flags: /Ogtp
;	COMDAT ?OpenItemNameScript@@YAHPAD@Z
_TEXT	SEGMENT
_FileName$ = 8						; size = 4
?OpenItemNameScript@@YAHPAD@Z PROC			; OpenItemNameScript, COMDAT

; 5539 : {

  00000	55		 push	 ebp
  00001	8b ec		 mov	 ebp, esp

; 5540 : 	
; 5541 : 	int Token;
; 5542 : 
; 5543 : 	SMDFile = fopen(FileName, "r");

  00003	8b 45 08	 mov	 eax, DWORD PTR _FileName$[ebp]
  00006	68 00 00 00 00	 push	 OFFSET ??_C@_01KDCPPGHE@r?$AA@
  0000b	50		 push	 eax
  0000c	e8 00 00 00 00	 call	 _fopen
  00011	83 c4 08	 add	 esp, 8
  00014	a3 00 00 00 00	 mov	 DWORD PTR _SMDFile, eax

; 5544 : 
; 5545 : 	if (SMDFile == 0 )

  00019	85 c0		 test	 eax, eax
  0001b	75 02		 jne	 SHORT $LN14@OpenItemNa

; 5591 : }

  0001d	5d		 pop	 ebp
  0001e	c3		 ret	 0
$LN14@OpenItemNa:

; 5546 : 	{
; 5547 : 		return FALSE;
; 5548 : 	}
; 5549 : 
; 5550 : 	while ( true )
; 5551 : 	{
; 5552 : 		Token = GetToken();

  0001f	e8 00 00 00 00	 call	 ?GetToken@@YA?AW4SMDToken@@XZ ; GetToken

; 5553 : 
; 5554 : 		if ( Token == 2 )

  00024	83 f8 02	 cmp	 eax, 2
  00027	0f 84 a0 00 00
	00		 je	 $LN25@OpenItemNa
  0002d	53		 push	 ebx
  0002e	56		 push	 esi
  0002f	57		 push	 edi
$LL8@OpenItemNa:

; 5555 : 		{
; 5556 : 			break;
; 5557 : 		}
; 5558 : 		if ( Token == 1 )

  00030	83 f8 01	 cmp	 eax, 1
  00033	0f 85 83 00 00
	00		 jne	 $LN24@OpenItemNa

; 5559 : 		{
; 5560 : 			int ItemType;
; 5561 : 
; 5562 : 			ItemType = (int)TokenNumber;

  00039	d9 05 00 00 00
	00		 fld	 DWORD PTR _TokenNumber
  0003f	e8 00 00 00 00	 call	 __ftol2_sse
  00044	8b d8		 mov	 ebx, eax
$LL4@OpenItemNa:

; 5563 : 
; 5564 : 			while ( true )
; 5565 : 			{
; 5566 : 				int ItemSubType;
; 5567 : 				LPITEM_ATTRIBUTE p;
; 5568 : 
; 5569 : 				Token = GetToken();

  00046	e8 00 00 00 00	 call	 ?GetToken@@YA?AW4SMDToken@@XZ ; GetToken

; 5570 : 				ItemSubType = (int)TokenNumber;

  0004b	d9 05 00 00 00
	00		 fld	 DWORD PTR _TokenNumber
  00051	8b f0		 mov	 esi, eax
  00053	e8 00 00 00 00	 call	 __ftol2_sse
  00058	8b f8		 mov	 edi, eax

; 5571 : 
; 5572 : 				if ( Token == 0 )

  0005a	85 f6		 test	 esi, esi
  0005c	75 33		 jne	 SHORT $LN23@OpenItemNa

; 5573 : 				{
; 5574 : 					if ( strcmp("end", TokenString ) == 0 )

  0005e	b9 00 00 00 00	 mov	 ecx, OFFSET _TokenString
  00063	b8 00 00 00 00	 mov	 eax, OFFSET ??_C@_03JBJLGPFL@end?$AA@
$LL19@OpenItemNa:
  00068	8a 10		 mov	 dl, BYTE PTR [eax]
  0006a	3a 11		 cmp	 dl, BYTE PTR [ecx]
  0006c	75 1a		 jne	 SHORT $LN20@OpenItemNa
  0006e	84 d2		 test	 dl, dl
  00070	74 12		 je	 SHORT $LN21@OpenItemNa
  00072	8a 50 01	 mov	 dl, BYTE PTR [eax+1]
  00075	3a 51 01	 cmp	 dl, BYTE PTR [ecx+1]
  00078	75 0e		 jne	 SHORT $LN20@OpenItemNa
  0007a	83 c0 02	 add	 eax, 2
  0007d	83 c1 02	 add	 ecx, 2
  00080	84 d2		 test	 dl, dl
  00082	75 e4		 jne	 SHORT $LL19@OpenItemNa
$LN21@OpenItemNa:
  00084	33 c0		 xor	 eax, eax
  00086	eb 05		 jmp	 SHORT $LN22@OpenItemNa
$LN20@OpenItemNa:
  00088	1b c0		 sbb	 eax, eax
  0008a	83 d8 ff	 sbb	 eax, -1
$LN22@OpenItemNa:
  0008d	85 c0		 test	 eax, eax
  0008f	74 2b		 je	 SHORT $LN24@OpenItemNa
$LN23@OpenItemNa:

; 5575 : 					{
; 5576 : 						break;
; 5577 : 					}
; 5578 : 				}
; 5579 : 					
; 5580 : 				p = &ItemAttribute[ItemType*MAX_SUBTYPE_ITEMS + ItemSubType];
; 5581 : 
; 5582 : 				Token = GetToken();

  00091	e8 00 00 00 00	 call	 ?GetToken@@YA?AW4SMDToken@@XZ ; GetToken

; 5583 : 				strcpy(&p->Name[0], TokenString );

  00096	8b cb		 mov	 ecx, ebx
  00098	c1 e1 09	 shl	 ecx, 9
  0009b	03 cf		 add	 ecx, edi
  0009d	6b c9 70	 imul	 ecx, 112		; 00000070H
  000a0	b8 00 00 00 00	 mov	 eax, OFFSET _TokenString
  000a5	2b c8		 sub	 ecx, eax
  000a7	8d 91 00 00 00
	00		 lea	 edx, DWORD PTR ?ItemAttribute@@3PAUITEM_ATTRIBUTE@@A[ecx]
  000ad	8d 49 00	 npad	 3
$LL12@OpenItemNa:
  000b0	8a 08		 mov	 cl, BYTE PTR [eax]
  000b2	88 0c 02	 mov	 BYTE PTR [edx+eax], cl
  000b5	40		 inc	 eax
  000b6	84 c9		 test	 cl, cl
  000b8	75 f6		 jne	 SHORT $LL12@OpenItemNa

; 5584 : 
; 5585 : 				
; 5586 : 			}

  000ba	eb 8a		 jmp	 SHORT $LL4@OpenItemNa
$LN24@OpenItemNa:

; 5546 : 	{
; 5547 : 		return FALSE;
; 5548 : 	}
; 5549 : 
; 5550 : 	while ( true )
; 5551 : 	{
; 5552 : 		Token = GetToken();

  000bc	e8 00 00 00 00	 call	 ?GetToken@@YA?AW4SMDToken@@XZ ; GetToken

; 5553 : 
; 5554 : 		if ( Token == 2 )

  000c1	83 f8 02	 cmp	 eax, 2
  000c4	0f 85 66 ff ff
	ff		 jne	 $LL8@OpenItemNa
  000ca	5f		 pop	 edi
  000cb	5e		 pop	 esi
  000cc	5b		 pop	 ebx
$LN25@OpenItemNa:

; 5587 : 		}
; 5588 : 	}
; 5589 : 	fclose(SMDFile);

  000cd	8b 15 00 00 00
	00		 mov	 edx, DWORD PTR _SMDFile
  000d3	52		 push	 edx
  000d4	e8 00 00 00 00	 call	 _fclose
  000d9	83 c4 04	 add	 esp, 4

; 5590 : 	return TRUE;

  000dc	b8 01 00 00 00	 mov	 eax, 1

; 5591 : }

  000e1	5d		 pop	 ebp
  000e2	c3		 ret	 0
?OpenItemNameScript@@YAHPAD@Z ENDP			; OpenItemNameScript
_TEXT	ENDS
PUBLIC	__$ArrayPad$
PUBLIC	?OpenItemScript@@YAHPADH@Z			; OpenItemScript
EXTRN	??1CWzMemScript@@UAE@XZ:PROC			; CWzMemScript::~CWzMemScript
EXTRN	?GetString@CWzMemScript@@QAEPADXZ:PROC		; CWzMemScript::GetString
EXTRN	?GetNumber@CWzMemScript@@QAEHXZ:PROC		; CWzMemScript::GetNumber
EXTRN	?GetToken@CWzMemScript@@QAE?AW4SMDToken@@XZ:PROC ; CWzMemScript::GetToken
EXTRN	?SetBuffer@CWzMemScript@@QAEHPADH@Z:PROC	; CWzMemScript::SetBuffer
EXTRN	??0CWzMemScript@@QAE@XZ:PROC			; CWzMemScript::CWzMemScript
EXTRN	___CxxFrameHandler3:PROC
;	COMDAT xdata$x
xdata$x	SEGMENT
__unwindtable$?OpenItemScript@@YAHPADH@Z DD 0ffffffffH
	DD	FLAT:__unwindfunclet$?OpenItemScript@@YAHPADH@Z$0
__ehfuncinfo$?OpenItemScript@@YAHPADH@Z DD 019930522H
	DD	01H
	DD	FLAT:__unwindtable$?OpenItemScript@@YAHPADH@Z
	DD	2 DUP(00H)
	DD	2 DUP(00H)
	DD	00H
	DD	01H
; Function compile flags: /Ogtp
xdata$x	ENDS
;	COMDAT ?OpenItemScript@@YAHPADH@Z
_TEXT	SEGMENT
_loop_count$ = -152					; size = 4
_WzMemScript$ = -148					; size = 132
__$ArrayPad$ = -16					; size = 4
__$EHRec$ = -12						; size = 12
_Buffer$ = 8						; size = 4
_iSize$ = 12						; size = 4
?OpenItemScript@@YAHPADH@Z PROC				; OpenItemScript, COMDAT

; 5594 : {

  00000	55		 push	 ebp
  00001	8b ec		 mov	 ebp, esp
  00003	6a ff		 push	 -1
  00005	68 00 00 00 00	 push	 __ehhandler$?OpenItemScript@@YAHPADH@Z
  0000a	64 a1 00 00 00
	00		 mov	 eax, DWORD PTR fs:0
  00010	50		 push	 eax
  00011	81 ec 8c 00 00
	00		 sub	 esp, 140		; 0000008cH
  00017	a1 00 00 00 00	 mov	 eax, DWORD PTR ___security_cookie
  0001c	33 c5		 xor	 eax, ebp
  0001e	89 45 f0	 mov	 DWORD PTR __$ArrayPad$[ebp], eax
  00021	53		 push	 ebx
  00022	56		 push	 esi
  00023	57		 push	 edi
  00024	50		 push	 eax
  00025	8d 45 f4	 lea	 eax, DWORD PTR __$EHRec$[ebp]
  00028	64 a3 00 00 00
	00		 mov	 DWORD PTR fs:0, eax
  0002e	8b 75 08	 mov	 esi, DWORD PTR _Buffer$[ebp]

; 5595 : 	CWzMemScript WzMemScript;

  00031	8d 8d 6c ff ff
	ff		 lea	 ecx, DWORD PTR _WzMemScript$[ebp]
  00037	e8 00 00 00 00	 call	 ??0CWzMemScript@@QAE@XZ	; CWzMemScript::CWzMemScript

; 5596 : 	int n;
; 5597 : 	int loop_count;
; 5598 : 
; 5599 : 	int Token;
; 5600 : 
; 5601 : 	WzMemScript.SetBuffer(Buffer, iSize);

  0003c	8b 45 0c	 mov	 eax, DWORD PTR _iSize$[ebp]
  0003f	50		 push	 eax
  00040	56		 push	 esi
  00041	8d 8d 6c ff ff
	ff		 lea	 ecx, DWORD PTR _WzMemScript$[ebp]
  00047	c7 45 fc 00 00
	00 00		 mov	 DWORD PTR __$EHRec$[ebp+8], 0
  0004e	e8 00 00 00 00	 call	 ?SetBuffer@CWzMemScript@@QAEHPADH@Z ; CWzMemScript::SetBuffer

; 5602 : 
; 5603 : 	memset ( ItemAttribute, 0, sizeof(ItemAttribute) );

  00053	68 00 00 0e 00	 push	 917504			; 000e0000H
  00058	6a 00		 push	 0
  0005a	68 00 00 00 00	 push	 OFFSET ?ItemAttribute@@3PAUITEM_ATTRIBUTE@@A
  0005f	e8 00 00 00 00	 call	 _memset

; 5604 : 	
; 5605 : 	for ( n=0;n<MAX_ITEMS;n++)

  00064	d9 ee		 fldz
  00066	83 c4 0c	 add	 esp, 12			; 0000000cH
  00069	b8 58 00 00 00	 mov	 eax, OFFSET ?ItemAttribute@@3PAUITEM_ATTRIBUTE@@A+88
$LN36@OpenItemSc@2:

; 5606 : 	{
; 5607 : 		ItemAttribute[n].Level = -1;
; 5608 : 		ItemAttribute[n].RepaireMoneyRate  = 0;

  0006e	d9 10		 fst	 DWORD PTR [eax]
  00070	c6 40 ca ff	 mov	 BYTE PTR [eax-54], 255	; 000000ffH

; 5609 : 		ItemAttribute[n].AllRepaireMoneyRate  = 0;

  00074	d9 50 04	 fst	 DWORD PTR [eax+4]
  00077	83 c0 70	 add	 eax, 112		; 00000070H
  0007a	3d 58 00 0e 00	 cmp	 eax, OFFSET ?ItemAttribute@@3PAUITEM_ATTRIBUTE@@A+917592
  0007f	7c ed		 jl	 SHORT $LN36@OpenItemSc@2

; 5610 : 	}
; 5611 : 
; 5612 : 	while ( true )
; 5613 : 	{
; 5614 : 		Token = WzMemScript.GetToken();

  00081	8d 8d 6c ff ff
	ff		 lea	 ecx, DWORD PTR _WzMemScript$[ebp]
  00087	dd d8		 fstp	 ST(0)
  00089	e8 00 00 00 00	 call	 ?GetToken@CWzMemScript@@QAE?AW4SMDToken@@XZ ; CWzMemScript::GetToken

; 5615 : 
; 5616 : 		if ( Token == 2 )

  0008e	83 f8 02	 cmp	 eax, 2
  00091	0f 84 8c 08 00
	00		 je	 $LN49@OpenItemSc@2
$LN33@OpenItemSc@2:

; 5617 : 		{
; 5618 : 			break;
; 5619 : 		}
; 5620 : 		
; 5621 : 		if ( Token == 1 )

  00097	83 f8 01	 cmp	 eax, 1
  0009a	0f 85 6f 08 00
	00		 jne	 $LN28@OpenItemSc@2

; 5622 : 		{
; 5623 : 			int ItemType;
; 5624 : 
; 5625 : 			ItemType = WzMemScript.GetNumber();

  000a0	8d 8d 6c ff ff
	ff		 lea	 ecx, DWORD PTR _WzMemScript$[ebp]
  000a6	e8 00 00 00 00	 call	 ?GetNumber@CWzMemScript@@QAEHXZ ; CWzMemScript::GetNumber
  000ab	8b f8		 mov	 edi, eax

; 5626 : 			loop_count = 0;

  000ad	c7 85 68 ff ff
	ff 00 00 00 00	 mov	 DWORD PTR _loop_count$[ebp], 0
  000b7	eb 07 8d a4 24
	00 00 00 00	 npad	 9
$LL29@OpenItemSc@2:

; 5627 : 			while ( true )
; 5628 : 			{
; 5629 : 				int ItemSubType;
; 5630 : 				LPITEM_ATTRIBUTE p;
; 5631 : 
; 5632 : 				
; 5633 : 				Token = WzMemScript.GetToken();

  000c0	8d 8d 6c ff ff
	ff		 lea	 ecx, DWORD PTR _WzMemScript$[ebp]
  000c6	e8 00 00 00 00	 call	 ?GetToken@CWzMemScript@@QAE?AW4SMDToken@@XZ ; CWzMemScript::GetToken

; 5634 : 				ItemSubType = WzMemScript.GetNumber();

  000cb	8d 8d 6c ff ff
	ff		 lea	 ecx, DWORD PTR _WzMemScript$[ebp]
  000d1	8b f0		 mov	 esi, eax
  000d3	e8 00 00 00 00	 call	 ?GetNumber@CWzMemScript@@QAEHXZ ; CWzMemScript::GetNumber
  000d8	8b d8		 mov	 ebx, eax

; 5635 : 
; 5636 : 				if ( ItemType >= 0 && ItemType < MAX_TYPE_ITEMS )

  000da	83 ff 0f	 cmp	 edi, 15			; 0000000fH
  000dd	77 10		 ja	 SHORT $LN26@OpenItemSc@2

; 5637 : 				{
; 5638 : 					if ( g_MaxItemIndexOfEachItemType[ItemType] <= ItemSubType )

  000df	39 1c bd 00 00
	00 00		 cmp	 DWORD PTR ?g_MaxItemIndexOfEachItemType@@3PAHA[edi*4], ebx
  000e6	7f 07		 jg	 SHORT $LN26@OpenItemSc@2

; 5639 : 					{
; 5640 : 						g_MaxItemIndexOfEachItemType[ItemType] = ItemSubType;

  000e8	89 1c bd 00 00
	00 00		 mov	 DWORD PTR ?g_MaxItemIndexOfEachItemType@@3PAHA[edi*4], ebx
$LN26@OpenItemSc@2:

; 5641 : 					}
; 5642 : 				}
; 5643 : 				
; 5644 : 				if ( Token == 0 )

  000ef	85 f6		 test	 esi, esi
  000f1	75 3d		 jne	 SHORT $LN24@OpenItemSc@2

; 5645 : 				{
; 5646 : 					if ( strcmp("end", WzMemScript.GetString() ) == 0 )

  000f3	8d 8d 6c ff ff
	ff		 lea	 ecx, DWORD PTR _WzMemScript$[ebp]
  000f9	e8 00 00 00 00	 call	 ?GetString@CWzMemScript@@QAEPADXZ ; CWzMemScript::GetString
  000fe	b9 00 00 00 00	 mov	 ecx, OFFSET ??_C@_03JBJLGPFL@end?$AA@
$LL53@OpenItemSc@2:
  00103	8a 11		 mov	 dl, BYTE PTR [ecx]
  00105	3a 10		 cmp	 dl, BYTE PTR [eax]
  00107	75 1a		 jne	 SHORT $LN54@OpenItemSc@2
  00109	84 d2		 test	 dl, dl
  0010b	74 12		 je	 SHORT $LN55@OpenItemSc@2
  0010d	8a 51 01	 mov	 dl, BYTE PTR [ecx+1]
  00110	3a 50 01	 cmp	 dl, BYTE PTR [eax+1]
  00113	75 0e		 jne	 SHORT $LN54@OpenItemSc@2
  00115	83 c1 02	 add	 ecx, 2
  00118	83 c0 02	 add	 eax, 2
  0011b	84 d2		 test	 dl, dl
  0011d	75 e4		 jne	 SHORT $LL53@OpenItemSc@2
$LN55@OpenItemSc@2:
  0011f	33 c0		 xor	 eax, eax
  00121	eb 05		 jmp	 SHORT $LN56@OpenItemSc@2
$LN54@OpenItemSc@2:
  00123	1b c0		 sbb	 eax, eax
  00125	83 d8 ff	 sbb	 eax, -1
$LN56@OpenItemSc@2:
  00128	85 c0		 test	 eax, eax
  0012a	0f 84 df 07 00
	00		 je	 $LN28@OpenItemSc@2
$LN24@OpenItemSc@2:

; 5647 : 					{
; 5648 : 						break;
; 5649 : 					}
; 5650 : 				}
; 5651 : 					
; 5652 : 				p = &ItemAttribute[ItemType*MAX_SUBTYPE_ITEMS + ItemSubType];

  00130	8b f7		 mov	 esi, edi
  00132	c1 e6 09	 shl	 esi, 9
  00135	03 f3		 add	 esi, ebx
  00137	6b f6 70	 imul	 esi, 112		; 00000070H

; 5653 : 
; 5654 : 				Token = WzMemScript.GetToken();

  0013a	8d 8d 6c ff ff
	ff		 lea	 ecx, DWORD PTR _WzMemScript$[ebp]
  00140	81 c6 00 00 00
	00		 add	 esi, OFFSET ?ItemAttribute@@3PAUITEM_ATTRIBUTE@@A
  00146	e8 00 00 00 00	 call	 ?GetToken@CWzMemScript@@QAE?AW4SMDToken@@XZ ; CWzMemScript::GetToken

; 5655 : 				p->ItemSlot = WzMemScript.GetNumber();

  0014b	8d 8d 6c ff ff
	ff		 lea	 ecx, DWORD PTR _WzMemScript$[ebp]
  00151	e8 00 00 00 00	 call	 ?GetNumber@CWzMemScript@@QAEHXZ ; CWzMemScript::GetNumber

; 5656 : 
; 5657 : 				Token = WzMemScript.GetToken();

  00156	8d 8d 6c ff ff
	ff		 lea	 ecx, DWORD PTR _WzMemScript$[ebp]
  0015c	89 46 64	 mov	 DWORD PTR [esi+100], eax
  0015f	e8 00 00 00 00	 call	 ?GetToken@CWzMemScript@@QAE?AW4SMDToken@@XZ ; CWzMemScript::GetToken

; 5658 : 				p->SkillType = WzMemScript.GetNumber();

  00164	8d 8d 6c ff ff
	ff		 lea	 ecx, DWORD PTR _WzMemScript$[ebp]
  0016a	e8 00 00 00 00	 call	 ?GetNumber@CWzMemScript@@QAEHXZ ; CWzMemScript::GetNumber

; 5659 : 
; 5660 : 				Token = WzMemScript.GetToken();

  0016f	8d 8d 6c ff ff
	ff		 lea	 ecx, DWORD PTR _WzMemScript$[ebp]
  00175	89 46 68	 mov	 DWORD PTR [esi+104], eax
  00178	e8 00 00 00 00	 call	 ?GetToken@CWzMemScript@@QAE?AW4SMDToken@@XZ ; CWzMemScript::GetToken

; 5661 : 				p->Width  = WzMemScript.GetNumber();

  0017d	8d 8d 6c ff ff
	ff		 lea	 ecx, DWORD PTR _WzMemScript$[ebp]
  00183	e8 00 00 00 00	 call	 ?GetNumber@CWzMemScript@@QAEHXZ ; CWzMemScript::GetNumber

; 5662 : 
; 5663 : 				Token = WzMemScript.GetToken();

  00188	8d 8d 6c ff ff
	ff		 lea	 ecx, DWORD PTR _WzMemScript$[ebp]
  0018e	88 46 23	 mov	 BYTE PTR [esi+35], al
  00191	e8 00 00 00 00	 call	 ?GetToken@CWzMemScript@@QAE?AW4SMDToken@@XZ ; CWzMemScript::GetToken

; 5664 : 				p->Height  = WzMemScript.GetNumber();

  00196	8d 8d 6c ff ff
	ff		 lea	 ecx, DWORD PTR _WzMemScript$[ebp]
  0019c	e8 00 00 00 00	 call	 ?GetNumber@CWzMemScript@@QAEHXZ ; CWzMemScript::GetNumber

; 5665 : 
; 5666 : 				Token = WzMemScript.GetToken();

  001a1	8d 8d 6c ff ff
	ff		 lea	 ecx, DWORD PTR _WzMemScript$[ebp]
  001a7	88 46 24	 mov	 BYTE PTR [esi+36], al
  001aa	e8 00 00 00 00	 call	 ?GetToken@CWzMemScript@@QAE?AW4SMDToken@@XZ ; CWzMemScript::GetToken

; 5667 : 				p->Serial = WzMemScript.GetNumber();

  001af	8d 8d 6c ff ff
	ff		 lea	 ecx, DWORD PTR _WzMemScript$[ebp]
  001b5	e8 00 00 00 00	 call	 ?GetNumber@CWzMemScript@@QAEHXZ ; CWzMemScript::GetNumber

; 5668 : 
; 5669 : 				Token = WzMemScript.GetToken();

  001ba	8d 8d 6c ff ff
	ff		 lea	 ecx, DWORD PTR _WzMemScript$[ebp]
  001c0	88 46 25	 mov	 BYTE PTR [esi+37], al
  001c3	e8 00 00 00 00	 call	 ?GetToken@CWzMemScript@@QAE?AW4SMDToken@@XZ ; CWzMemScript::GetToken

; 5670 : 				p->OptionFlag = WzMemScript.GetNumber();

  001c8	8d 8d 6c ff ff
	ff		 lea	 ecx, DWORD PTR _WzMemScript$[ebp]
  001ce	e8 00 00 00 00	 call	 ?GetNumber@CWzMemScript@@QAEHXZ ; CWzMemScript::GetNumber

; 5671 : 
; 5672 : 				Token = WzMemScript.GetToken();

  001d3	8d 8d 6c ff ff
	ff		 lea	 ecx, DWORD PTR _WzMemScript$[ebp]
  001d9	88 46 26	 mov	 BYTE PTR [esi+38], al
  001dc	e8 00 00 00 00	 call	 ?GetToken@CWzMemScript@@QAE?AW4SMDToken@@XZ ; CWzMemScript::GetToken

; 5673 : 				p->MondownFlag = WzMemScript.GetNumber();

  001e1	8d 8d 6c ff ff
	ff		 lea	 ecx, DWORD PTR _WzMemScript$[ebp]
  001e7	e8 00 00 00 00	 call	 ?GetNumber@CWzMemScript@@QAEHXZ ; CWzMemScript::GetNumber

; 5674 : 
; 5675 : 				Token = WzMemScript.GetToken();

  001ec	8d 8d 6c ff ff
	ff		 lea	 ecx, DWORD PTR _WzMemScript$[ebp]
  001f2	88 46 27	 mov	 BYTE PTR [esi+39], al
  001f5	e8 00 00 00 00	 call	 ?GetToken@CWzMemScript@@QAE?AW4SMDToken@@XZ ; CWzMemScript::GetToken

; 5676 : 				strcpy(&p->Name[0], WzMemScript.GetString() );

  001fa	8d 8d 6c ff ff
	ff		 lea	 ecx, DWORD PTR _WzMemScript$[ebp]
  00200	e8 00 00 00 00	 call	 ?GetString@CWzMemScript@@QAEPADXZ ; CWzMemScript::GetString
  00205	8b d6		 mov	 edx, esi
  00207	2b d0		 sub	 edx, eax
  00209	8d a4 24 00 00
	00 00		 npad	 7
$LL39@OpenItemSc@2:
  00210	8a 08		 mov	 cl, BYTE PTR [eax]
  00212	88 0c 10	 mov	 BYTE PTR [eax+edx], cl
  00215	40		 inc	 eax
  00216	84 c9		 test	 cl, cl
  00218	75 f6		 jne	 SHORT $LL39@OpenItemSc@2

; 5677 : 
; 5678 : 				if ( ItemType >= 0 && ItemType <= 5 )

  0021a	83 ff 05	 cmp	 edi, 5
  0021d	0f 87 5a 01 00
	00		 ja	 $LN23@OpenItemSc@2

; 5679 : 				{
; 5680 : 					Token = WzMemScript.GetToken();

  00223	8d 8d 6c ff ff
	ff		 lea	 ecx, DWORD PTR _WzMemScript$[ebp]
  00229	e8 00 00 00 00	 call	 ?GetToken@CWzMemScript@@QAE?AW4SMDToken@@XZ ; CWzMemScript::GetToken

; 5681 : 					p->Level = WzMemScript.GetNumber();

  0022e	8d 8d 6c ff ff
	ff		 lea	 ecx, DWORD PTR _WzMemScript$[ebp]
  00234	e8 00 00 00 00	 call	 ?GetNumber@CWzMemScript@@QAEHXZ ; CWzMemScript::GetNumber

; 5682 : 
; 5683 : 					Token = WzMemScript.GetToken();

  00239	8d 8d 6c ff ff
	ff		 lea	 ecx, DWORD PTR _WzMemScript$[ebp]
  0023f	88 46 22	 mov	 BYTE PTR [esi+34], al
  00242	e8 00 00 00 00	 call	 ?GetToken@CWzMemScript@@QAE?AW4SMDToken@@XZ ; CWzMemScript::GetToken

; 5684 : 					p->DamageMin = WzMemScript.GetNumber();

  00247	8d 8d 6c ff ff
	ff		 lea	 ecx, DWORD PTR _WzMemScript$[ebp]
  0024d	e8 00 00 00 00	 call	 ?GetNumber@CWzMemScript@@QAEHXZ ; CWzMemScript::GetNumber

; 5685 : 
; 5686 : 					Token = WzMemScript.GetToken();

  00252	8d 8d 6c ff ff
	ff		 lea	 ecx, DWORD PTR _WzMemScript$[ebp]
  00258	88 46 2a	 mov	 BYTE PTR [esi+42], al
  0025b	e8 00 00 00 00	 call	 ?GetToken@CWzMemScript@@QAE?AW4SMDToken@@XZ ; CWzMemScript::GetToken

; 5687 : 					p->DamageMax = WzMemScript.GetNumber();

  00260	8d 8d 6c ff ff
	ff		 lea	 ecx, DWORD PTR _WzMemScript$[ebp]
  00266	e8 00 00 00 00	 call	 ?GetNumber@CWzMemScript@@QAEHXZ ; CWzMemScript::GetNumber

; 5688 : 
; 5689 : 					Token = WzMemScript.GetToken();

  0026b	8d 8d 6c ff ff
	ff		 lea	 ecx, DWORD PTR _WzMemScript$[ebp]
  00271	88 46 2b	 mov	 BYTE PTR [esi+43], al
  00274	e8 00 00 00 00	 call	 ?GetToken@CWzMemScript@@QAE?AW4SMDToken@@XZ ; CWzMemScript::GetToken

; 5690 : 					p->AttackSpeed = WzMemScript.GetNumber();

  00279	8d 8d 6c ff ff
	ff		 lea	 ecx, DWORD PTR _WzMemScript$[ebp]
  0027f	e8 00 00 00 00	 call	 ?GetNumber@CWzMemScript@@QAEHXZ ; CWzMemScript::GetNumber

; 5691 : 
; 5692 : 					Token = WzMemScript.GetToken();

  00284	8d 8d 6c ff ff
	ff		 lea	 ecx, DWORD PTR _WzMemScript$[ebp]
  0028a	88 46 28	 mov	 BYTE PTR [esi+40], al
  0028d	e8 00 00 00 00	 call	 ?GetToken@CWzMemScript@@QAE?AW4SMDToken@@XZ ; CWzMemScript::GetToken

; 5693 : 					p->Durability = WzMemScript.GetNumber();

  00292	8d 8d 6c ff ff
	ff		 lea	 ecx, DWORD PTR _WzMemScript$[ebp]
  00298	e8 00 00 00 00	 call	 ?GetNumber@CWzMemScript@@QAEHXZ ; CWzMemScript::GetNumber

; 5694 : 
; 5695 : 					Token = WzMemScript.GetToken();

  0029d	8d 8d 6c ff ff
	ff		 lea	 ecx, DWORD PTR _WzMemScript$[ebp]
  002a3	88 46 30	 mov	 BYTE PTR [esi+48], al
  002a6	e8 00 00 00 00	 call	 ?GetToken@CWzMemScript@@QAE?AW4SMDToken@@XZ ; CWzMemScript::GetToken

; 5696 : 					p->MagicDurability = WzMemScript.GetNumber();

  002ab	8d 8d 6c ff ff
	ff		 lea	 ecx, DWORD PTR _WzMemScript$[ebp]
  002b1	e8 00 00 00 00	 call	 ?GetNumber@CWzMemScript@@QAEHXZ ; CWzMemScript::GetNumber

; 5697 : 
; 5698 : 					Token = WzMemScript.GetToken();

  002b6	8d 8d 6c ff ff
	ff		 lea	 ecx, DWORD PTR _WzMemScript$[ebp]
  002bc	88 46 31	 mov	 BYTE PTR [esi+49], al
  002bf	e8 00 00 00 00	 call	 ?GetToken@CWzMemScript@@QAE?AW4SMDToken@@XZ ; CWzMemScript::GetToken

; 5699 : 					p->MagicPW = WzMemScript.GetNumber();

  002c4	8d 8d 6c ff ff
	ff		 lea	 ecx, DWORD PTR _WzMemScript$[ebp]
  002ca	e8 00 00 00 00	 call	 ?GetNumber@CWzMemScript@@QAEHXZ ; CWzMemScript::GetNumber

; 5700 : 
; 5701 : 					Token = WzMemScript.GetToken();

  002cf	8d 8d 6c ff ff
	ff		 lea	 ecx, DWORD PTR _WzMemScript$[ebp]
  002d5	89 46 54	 mov	 DWORD PTR [esi+84], eax
  002d8	e8 00 00 00 00	 call	 ?GetToken@CWzMemScript@@QAE?AW4SMDToken@@XZ ; CWzMemScript::GetToken

; 5702 : 					p->RequireLevel = WzMemScript.GetNumber();

  002dd	8d 8d 6c ff ff
	ff		 lea	 ecx, DWORD PTR _WzMemScript$[ebp]
  002e3	e8 00 00 00 00	 call	 ?GetNumber@CWzMemScript@@QAEHXZ ; CWzMemScript::GetNumber

; 5703 : 
; 5704 : 					Token = WzMemScript.GetToken();

  002e8	8d 8d 6c ff ff
	ff		 lea	 ecx, DWORD PTR _WzMemScript$[ebp]
  002ee	66 89 46 3a	 mov	 WORD PTR [esi+58], ax
  002f2	e8 00 00 00 00	 call	 ?GetToken@CWzMemScript@@QAE?AW4SMDToken@@XZ ; CWzMemScript::GetToken

; 5705 : 					p->RequireStrength = WzMemScript.GetNumber();

  002f7	8d 8d 6c ff ff
	ff		 lea	 ecx, DWORD PTR _WzMemScript$[ebp]
  002fd	e8 00 00 00 00	 call	 ?GetNumber@CWzMemScript@@QAEHXZ ; CWzMemScript::GetNumber

; 5706 : 
; 5707 : 					Token = WzMemScript.GetToken();

  00302	8d 8d 6c ff ff
	ff		 lea	 ecx, DWORD PTR _WzMemScript$[ebp]
  00308	66 89 46 34	 mov	 WORD PTR [esi+52], ax
  0030c	e8 00 00 00 00	 call	 ?GetToken@CWzMemScript@@QAE?AW4SMDToken@@XZ ; CWzMemScript::GetToken

; 5708 : 					p->RequireDexterity = WzMemScript.GetNumber();

  00311	8d 8d 6c ff ff
	ff		 lea	 ecx, DWORD PTR _WzMemScript$[ebp]
  00317	e8 00 00 00 00	 call	 ?GetNumber@CWzMemScript@@QAEHXZ ; CWzMemScript::GetNumber

; 5709 : 
; 5710 : 					Token = WzMemScript.GetToken();

  0031c	8d 8d 6c ff ff
	ff		 lea	 ecx, DWORD PTR _WzMemScript$[ebp]
  00322	66 89 46 36	 mov	 WORD PTR [esi+54], ax
  00326	e8 00 00 00 00	 call	 ?GetToken@CWzMemScript@@QAE?AW4SMDToken@@XZ ; CWzMemScript::GetToken

; 5711 : 					p->RequireEnergy = WzMemScript.GetNumber();

  0032b	8d 8d 6c ff ff
	ff		 lea	 ecx, DWORD PTR _WzMemScript$[ebp]
  00331	e8 00 00 00 00	 call	 ?GetNumber@CWzMemScript@@QAEHXZ ; CWzMemScript::GetNumber

; 5712 : 
; 5713 : 					Token = WzMemScript.GetToken();

  00336	8d 8d 6c ff ff
	ff		 lea	 ecx, DWORD PTR _WzMemScript$[ebp]
  0033c	66 89 46 38	 mov	 WORD PTR [esi+56], ax
  00340	e8 00 00 00 00	 call	 ?GetToken@CWzMemScript@@QAE?AW4SMDToken@@XZ ; CWzMemScript::GetToken

; 5714 : 					p->RequireVitality = WzMemScript.GetNumber();

  00345	8d 8d 6c ff ff
	ff		 lea	 ecx, DWORD PTR _WzMemScript$[ebp]
  0034b	e8 00 00 00 00	 call	 ?GetNumber@CWzMemScript@@QAEHXZ ; CWzMemScript::GetNumber

; 5715 : 
; 5716 : 					Token = WzMemScript.GetToken();

  00350	8d 8d 6c ff ff
	ff		 lea	 ecx, DWORD PTR _WzMemScript$[ebp]
  00356	66 89 46 4c	 mov	 WORD PTR [esi+76], ax
  0035a	e8 00 00 00 00	 call	 ?GetToken@CWzMemScript@@QAE?AW4SMDToken@@XZ ; CWzMemScript::GetToken

; 5717 : 					p->RequireLeadership = WzMemScript.GetNumber();

  0035f	8d 8d 6c ff ff
	ff		 lea	 ecx, DWORD PTR _WzMemScript$[ebp]
  00365	e8 00 00 00 00	 call	 ?GetNumber@CWzMemScript@@QAEHXZ ; CWzMemScript::GetNumber

; 5718 : 
; 5719 : 					if ( p->Width  >= 2)

  0036a	80 7e 23 02	 cmp	 BYTE PTR [esi+35], 2
  0036e	89 46 6c	 mov	 DWORD PTR [esi+108], eax
  00371	72 04		 jb	 SHORT $LN22@OpenItemSc@2

; 5720 : 					{
; 5721 : 						p->TwoHand = TRUE;

  00373	c6 46 21 01	 mov	 BYTE PTR [esi+33], 1
$LN22@OpenItemSc@2:

; 5722 : 					}
; 5723 : 
; 5724 : 					(BYTE)p->Durability += (BYTE)p->MagicDurability;

  00377	8a 4e 31	 mov	 cl, BYTE PTR [esi+49]
  0037a	00 4e 30	 add	 BYTE PTR [esi+48], cl
$LN23@OpenItemSc@2:

; 5725 : 				}
; 5726 : 
; 5727 : 				if ( ItemType >= 6 && ItemType <= 11 )

  0037d	8d 57 fa	 lea	 edx, DWORD PTR [edi-6]
  00380	83 fa 05	 cmp	 edx, 5
  00383	0f 87 b5 01 00
	00		 ja	 $LN21@OpenItemSc@2

; 5728 : 				{
; 5729 : 					Token = WzMemScript.GetToken();

  00389	8d 8d 6c ff ff
	ff		 lea	 ecx, DWORD PTR _WzMemScript$[ebp]
  0038f	e8 00 00 00 00	 call	 ?GetToken@CWzMemScript@@QAE?AW4SMDToken@@XZ ; CWzMemScript::GetToken

; 5730 : 					p->Level = WzMemScript.GetNumber();

  00394	8d 8d 6c ff ff
	ff		 lea	 ecx, DWORD PTR _WzMemScript$[ebp]
  0039a	e8 00 00 00 00	 call	 ?GetNumber@CWzMemScript@@QAEHXZ ; CWzMemScript::GetNumber
  0039f	88 46 22	 mov	 BYTE PTR [esi+34], al

; 5731 : 					
; 5732 : 					if ( ItemType == 6 )

  003a2	83 ff 06	 cmp	 edi, 6
  003a5	75 37		 jne	 SHORT $LN20@OpenItemSc@2

; 5733 : 					{
; 5734 : 
; 5735 : 						Token = WzMemScript.GetToken();

  003a7	8d 8d 6c ff ff
	ff		 lea	 ecx, DWORD PTR _WzMemScript$[ebp]
  003ad	e8 00 00 00 00	 call	 ?GetToken@CWzMemScript@@QAE?AW4SMDToken@@XZ ; CWzMemScript::GetToken

; 5736 : 						p->Defense = WzMemScript.GetNumber();

  003b2	8d 8d 6c ff ff
	ff		 lea	 ecx, DWORD PTR _WzMemScript$[ebp]
  003b8	e8 00 00 00 00	 call	 ?GetNumber@CWzMemScript@@QAEHXZ ; CWzMemScript::GetNumber

; 5737 : 
; 5738 : 						Token = WzMemScript.GetToken();

  003bd	8d 8d 6c ff ff
	ff		 lea	 ecx, DWORD PTR _WzMemScript$[ebp]
  003c3	88 46 2d	 mov	 BYTE PTR [esi+45], al
  003c6	e8 00 00 00 00	 call	 ?GetToken@CWzMemScript@@QAE?AW4SMDToken@@XZ ; CWzMemScript::GetToken

; 5739 : 						p->SuccessfulBlocking  = WzMemScript.GetNumber();

  003cb	8d 8d 6c ff ff
	ff		 lea	 ecx, DWORD PTR _WzMemScript$[ebp]
  003d1	e8 00 00 00 00	 call	 ?GetNumber@CWzMemScript@@QAEHXZ ; CWzMemScript::GetNumber
  003d6	88 46 2c	 mov	 BYTE PTR [esi+44], al
  003d9	e9 ac 00 00 00	 jmp	 $LN14@OpenItemSc@2
$LN20@OpenItemSc@2:

; 5740 : 
; 5741 : 					}
; 5742 : 					else if ( ItemType >= 7 && ItemType <= 9 )

  003de	8d 47 f9	 lea	 eax, DWORD PTR [edi-7]
  003e1	83 f8 02	 cmp	 eax, 2
  003e4	77 34		 ja	 SHORT $LN18@OpenItemSc@2

; 5743 : 					{
; 5744 : 
; 5745 : 						Token = WzMemScript.GetToken();

  003e6	8d 8d 6c ff ff
	ff		 lea	 ecx, DWORD PTR _WzMemScript$[ebp]
  003ec	e8 00 00 00 00	 call	 ?GetToken@CWzMemScript@@QAE?AW4SMDToken@@XZ ; CWzMemScript::GetToken

; 5746 : 						p->Defense  = WzMemScript.GetNumber();

  003f1	8d 8d 6c ff ff
	ff		 lea	 ecx, DWORD PTR _WzMemScript$[ebp]
  003f7	e8 00 00 00 00	 call	 ?GetNumber@CWzMemScript@@QAEHXZ ; CWzMemScript::GetNumber

; 5747 : 
; 5748 : 						Token = WzMemScript.GetToken();

  003fc	8d 8d 6c ff ff
	ff		 lea	 ecx, DWORD PTR _WzMemScript$[ebp]
  00402	88 46 2d	 mov	 BYTE PTR [esi+45], al
  00405	e8 00 00 00 00	 call	 ?GetToken@CWzMemScript@@QAE?AW4SMDToken@@XZ ; CWzMemScript::GetToken

; 5749 : 						p->MagicDefense = WzMemScript.GetNumber();

  0040a	8d 8d 6c ff ff
	ff		 lea	 ecx, DWORD PTR _WzMemScript$[ebp]
  00410	e8 00 00 00 00	 call	 ?GetNumber@CWzMemScript@@QAEHXZ ; CWzMemScript::GetNumber
  00415	88 46 2e	 mov	 BYTE PTR [esi+46], al
  00418	eb 70		 jmp	 SHORT $LN14@OpenItemSc@2
$LN18@OpenItemSc@2:

; 5750 : 					}
; 5751 : 					else if ( ItemType == 10 )

  0041a	83 ff 0a	 cmp	 edi, 10			; 0000000aH
  0041d	75 34		 jne	 SHORT $LN16@OpenItemSc@2

; 5752 : 					{
; 5753 : 						Token = WzMemScript.GetToken();

  0041f	8d 8d 6c ff ff
	ff		 lea	 ecx, DWORD PTR _WzMemScript$[ebp]
  00425	e8 00 00 00 00	 call	 ?GetToken@CWzMemScript@@QAE?AW4SMDToken@@XZ ; CWzMemScript::GetToken

; 5754 : 						p->Defense = WzMemScript.GetNumber();

  0042a	8d 8d 6c ff ff
	ff		 lea	 ecx, DWORD PTR _WzMemScript$[ebp]
  00430	e8 00 00 00 00	 call	 ?GetNumber@CWzMemScript@@QAEHXZ ; CWzMemScript::GetNumber

; 5755 : 
; 5756 : 						Token = WzMemScript.GetToken();

  00435	8d 8d 6c ff ff
	ff		 lea	 ecx, DWORD PTR _WzMemScript$[ebp]
  0043b	88 46 2d	 mov	 BYTE PTR [esi+45], al
  0043e	e8 00 00 00 00	 call	 ?GetToken@CWzMemScript@@QAE?AW4SMDToken@@XZ ; CWzMemScript::GetToken

; 5757 : 						p->AttackSpeed = WzMemScript.GetNumber();

  00443	8d 8d 6c ff ff
	ff		 lea	 ecx, DWORD PTR _WzMemScript$[ebp]
  00449	e8 00 00 00 00	 call	 ?GetNumber@CWzMemScript@@QAEHXZ ; CWzMemScript::GetNumber
  0044e	88 46 28	 mov	 BYTE PTR [esi+40], al
  00451	eb 37		 jmp	 SHORT $LN14@OpenItemSc@2
$LN16@OpenItemSc@2:

; 5758 : 					}
; 5759 : 					else if ( ItemType == 11 )

  00453	83 ff 0b	 cmp	 edi, 11			; 0000000bH
  00456	75 32		 jne	 SHORT $LN14@OpenItemSc@2

; 5760 : 					{
; 5761 : 						Token = WzMemScript.GetToken();

  00458	8d 8d 6c ff ff
	ff		 lea	 ecx, DWORD PTR _WzMemScript$[ebp]
  0045e	e8 00 00 00 00	 call	 ?GetToken@CWzMemScript@@QAE?AW4SMDToken@@XZ ; CWzMemScript::GetToken

; 5762 : 						p->Defense  = WzMemScript.GetNumber();

  00463	8d 8d 6c ff ff
	ff		 lea	 ecx, DWORD PTR _WzMemScript$[ebp]
  00469	e8 00 00 00 00	 call	 ?GetNumber@CWzMemScript@@QAEHXZ ; CWzMemScript::GetNumber

; 5763 : 
; 5764 : 						Token = WzMemScript.GetToken();

  0046e	8d 8d 6c ff ff
	ff		 lea	 ecx, DWORD PTR _WzMemScript$[ebp]
  00474	88 46 2d	 mov	 BYTE PTR [esi+45], al
  00477	e8 00 00 00 00	 call	 ?GetToken@CWzMemScript@@QAE?AW4SMDToken@@XZ ; CWzMemScript::GetToken

; 5765 : 						p->WalkSpeed = WzMemScript.GetNumber();

  0047c	8d 8d 6c ff ff
	ff		 lea	 ecx, DWORD PTR _WzMemScript$[ebp]
  00482	e8 00 00 00 00	 call	 ?GetNumber@CWzMemScript@@QAEHXZ ; CWzMemScript::GetNumber
  00487	88 46 29	 mov	 BYTE PTR [esi+41], al
$LN14@OpenItemSc@2:

; 5766 : 					}
; 5767 : 					
; 5768 : 					Token = WzMemScript.GetToken();

  0048a	8d 8d 6c ff ff
	ff		 lea	 ecx, DWORD PTR _WzMemScript$[ebp]
  00490	e8 00 00 00 00	 call	 ?GetToken@CWzMemScript@@QAE?AW4SMDToken@@XZ ; CWzMemScript::GetToken

; 5769 : 					p->Durability = WzMemScript.GetNumber();

  00495	8d 8d 6c ff ff
	ff		 lea	 ecx, DWORD PTR _WzMemScript$[ebp]
  0049b	e8 00 00 00 00	 call	 ?GetNumber@CWzMemScript@@QAEHXZ ; CWzMemScript::GetNumber

; 5770 : 
; 5771 : 					Token = WzMemScript.GetToken();

  004a0	8d 8d 6c ff ff
	ff		 lea	 ecx, DWORD PTR _WzMemScript$[ebp]
  004a6	88 46 30	 mov	 BYTE PTR [esi+48], al
  004a9	e8 00 00 00 00	 call	 ?GetToken@CWzMemScript@@QAE?AW4SMDToken@@XZ ; CWzMemScript::GetToken

; 5772 : 					p->RequireLevel = WzMemScript.GetNumber();

  004ae	8d 8d 6c ff ff
	ff		 lea	 ecx, DWORD PTR _WzMemScript$[ebp]
  004b4	e8 00 00 00 00	 call	 ?GetNumber@CWzMemScript@@QAEHXZ ; CWzMemScript::GetNumber

; 5773 : 
; 5774 : 					Token = WzMemScript.GetToken();

  004b9	8d 8d 6c ff ff
	ff		 lea	 ecx, DWORD PTR _WzMemScript$[ebp]
  004bf	66 89 46 3a	 mov	 WORD PTR [esi+58], ax
  004c3	e8 00 00 00 00	 call	 ?GetToken@CWzMemScript@@QAE?AW4SMDToken@@XZ ; CWzMemScript::GetToken

; 5775 : 					p->RequireStrength = WzMemScript.GetNumber();

  004c8	8d 8d 6c ff ff
	ff		 lea	 ecx, DWORD PTR _WzMemScript$[ebp]
  004ce	e8 00 00 00 00	 call	 ?GetNumber@CWzMemScript@@QAEHXZ ; CWzMemScript::GetNumber

; 5776 : 
; 5777 : 					Token = WzMemScript.GetToken();

  004d3	8d 8d 6c ff ff
	ff		 lea	 ecx, DWORD PTR _WzMemScript$[ebp]
  004d9	66 89 46 34	 mov	 WORD PTR [esi+52], ax
  004dd	e8 00 00 00 00	 call	 ?GetToken@CWzMemScript@@QAE?AW4SMDToken@@XZ ; CWzMemScript::GetToken

; 5778 : 					p->RequireDexterity = WzMemScript.GetNumber();

  004e2	8d 8d 6c ff ff
	ff		 lea	 ecx, DWORD PTR _WzMemScript$[ebp]
  004e8	e8 00 00 00 00	 call	 ?GetNumber@CWzMemScript@@QAEHXZ ; CWzMemScript::GetNumber

; 5779 : 
; 5780 : 					Token = WzMemScript.GetToken();

  004ed	8d 8d 6c ff ff
	ff		 lea	 ecx, DWORD PTR _WzMemScript$[ebp]
  004f3	66 89 46 36	 mov	 WORD PTR [esi+54], ax
  004f7	e8 00 00 00 00	 call	 ?GetToken@CWzMemScript@@QAE?AW4SMDToken@@XZ ; CWzMemScript::GetToken

; 5781 : 					p->RequireEnergy = WzMemScript.GetNumber();

  004fc	8d 8d 6c ff ff
	ff		 lea	 ecx, DWORD PTR _WzMemScript$[ebp]
  00502	e8 00 00 00 00	 call	 ?GetNumber@CWzMemScript@@QAEHXZ ; CWzMemScript::GetNumber

; 5782 : 
; 5783 : 					Token = WzMemScript.GetToken();

  00507	8d 8d 6c ff ff
	ff		 lea	 ecx, DWORD PTR _WzMemScript$[ebp]
  0050d	66 89 46 38	 mov	 WORD PTR [esi+56], ax
  00511	e8 00 00 00 00	 call	 ?GetToken@CWzMemScript@@QAE?AW4SMDToken@@XZ ; CWzMemScript::GetToken

; 5784 : 					p->RequireVitality = WzMemScript.GetNumber();

  00516	8d 8d 6c ff ff
	ff		 lea	 ecx, DWORD PTR _WzMemScript$[ebp]
  0051c	e8 00 00 00 00	 call	 ?GetNumber@CWzMemScript@@QAEHXZ ; CWzMemScript::GetNumber

; 5785 : 
; 5786 : 					Token = WzMemScript.GetToken();

  00521	8d 8d 6c ff ff
	ff		 lea	 ecx, DWORD PTR _WzMemScript$[ebp]
  00527	66 89 46 4c	 mov	 WORD PTR [esi+76], ax
  0052b	e8 00 00 00 00	 call	 ?GetToken@CWzMemScript@@QAE?AW4SMDToken@@XZ ; CWzMemScript::GetToken

; 5787 : 					p->RequireLeadership = WzMemScript.GetNumber();

  00530	8d 8d 6c ff ff
	ff		 lea	 ecx, DWORD PTR _WzMemScript$[ebp]
  00536	e8 00 00 00 00	 call	 ?GetNumber@CWzMemScript@@QAEHXZ ; CWzMemScript::GetNumber
  0053b	89 46 6c	 mov	 DWORD PTR [esi+108], eax
$LN21@OpenItemSc@2:

; 5788 : 				}
; 5789 : 
; 5790 : 				if ( ItemType == 13 )

  0053e	83 ff 0d	 cmp	 edi, 13			; 0000000dH
  00541	0f 85 06 01 00
	00		 jne	 $LN13@OpenItemSc@2

; 5791 : 				{
; 5792 : 					Token = WzMemScript.GetToken();

  00547	8d 8d 6c ff ff
	ff		 lea	 ecx, DWORD PTR _WzMemScript$[ebp]
  0054d	e8 00 00 00 00	 call	 ?GetToken@CWzMemScript@@QAE?AW4SMDToken@@XZ ; CWzMemScript::GetToken

; 5793 : 					p->Level = WzMemScript.GetNumber();

  00552	8d 8d 6c ff ff
	ff		 lea	 ecx, DWORD PTR _WzMemScript$[ebp]
  00558	e8 00 00 00 00	 call	 ?GetNumber@CWzMemScript@@QAEHXZ ; CWzMemScript::GetNumber

; 5794 : 
; 5795 : 					Token = WzMemScript.GetToken();

  0055d	8d 8d 6c ff ff
	ff		 lea	 ecx, DWORD PTR _WzMemScript$[ebp]
  00563	88 46 22	 mov	 BYTE PTR [esi+34], al
  00566	e8 00 00 00 00	 call	 ?GetToken@CWzMemScript@@QAE?AW4SMDToken@@XZ ; CWzMemScript::GetToken

; 5796 : 					p->Durability = WzMemScript.GetNumber();

  0056b	8d 8d 6c ff ff
	ff		 lea	 ecx, DWORD PTR _WzMemScript$[ebp]
  00571	e8 00 00 00 00	 call	 ?GetNumber@CWzMemScript@@QAEHXZ ; CWzMemScript::GetNumber

; 5797 : 
; 5798 : 					Token = WzMemScript.GetToken();

  00576	8d 8d 6c ff ff
	ff		 lea	 ecx, DWORD PTR _WzMemScript$[ebp]
  0057c	88 46 30	 mov	 BYTE PTR [esi+48], al
  0057f	e8 00 00 00 00	 call	 ?GetToken@CWzMemScript@@QAE?AW4SMDToken@@XZ ; CWzMemScript::GetToken

; 5799 : 					p->Resistance[0] = WzMemScript.GetNumber();

  00584	8d 8d 6c ff ff
	ff		 lea	 ecx, DWORD PTR _WzMemScript$[ebp]
  0058a	e8 00 00 00 00	 call	 ?GetNumber@CWzMemScript@@QAEHXZ ; CWzMemScript::GetNumber

; 5800 : 
; 5801 : 					Token = WzMemScript.GetToken();

  0058f	8d 8d 6c ff ff
	ff		 lea	 ecx, DWORD PTR _WzMemScript$[ebp]
  00595	88 46 45	 mov	 BYTE PTR [esi+69], al
  00598	e8 00 00 00 00	 call	 ?GetToken@CWzMemScript@@QAE?AW4SMDToken@@XZ ; CWzMemScript::GetToken

; 5802 : 					p->Resistance[1] = WzMemScript.GetNumber();

  0059d	8d 8d 6c ff ff
	ff		 lea	 ecx, DWORD PTR _WzMemScript$[ebp]
  005a3	e8 00 00 00 00	 call	 ?GetNumber@CWzMemScript@@QAEHXZ ; CWzMemScript::GetNumber

; 5803 : 
; 5804 : 					Token = WzMemScript.GetToken();

  005a8	8d 8d 6c ff ff
	ff		 lea	 ecx, DWORD PTR _WzMemScript$[ebp]
  005ae	88 46 46	 mov	 BYTE PTR [esi+70], al
  005b1	e8 00 00 00 00	 call	 ?GetToken@CWzMemScript@@QAE?AW4SMDToken@@XZ ; CWzMemScript::GetToken

; 5805 : 					p->Resistance[2] = WzMemScript.GetNumber();

  005b6	8d 8d 6c ff ff
	ff		 lea	 ecx, DWORD PTR _WzMemScript$[ebp]
  005bc	e8 00 00 00 00	 call	 ?GetNumber@CWzMemScript@@QAEHXZ ; CWzMemScript::GetNumber

; 5806 : 
; 5807 : 					Token = WzMemScript.GetToken();

  005c1	8d 8d 6c ff ff
	ff		 lea	 ecx, DWORD PTR _WzMemScript$[ebp]
  005c7	88 46 47	 mov	 BYTE PTR [esi+71], al
  005ca	e8 00 00 00 00	 call	 ?GetToken@CWzMemScript@@QAE?AW4SMDToken@@XZ ; CWzMemScript::GetToken

; 5808 : 					p->Resistance[3] = WzMemScript.GetNumber();

  005cf	8d 8d 6c ff ff
	ff		 lea	 ecx, DWORD PTR _WzMemScript$[ebp]
  005d5	e8 00 00 00 00	 call	 ?GetNumber@CWzMemScript@@QAEHXZ ; CWzMemScript::GetNumber

; 5809 : 
; 5810 : 					Token = WzMemScript.GetToken();

  005da	8d 8d 6c ff ff
	ff		 lea	 ecx, DWORD PTR _WzMemScript$[ebp]
  005e0	88 46 48	 mov	 BYTE PTR [esi+72], al
  005e3	e8 00 00 00 00	 call	 ?GetToken@CWzMemScript@@QAE?AW4SMDToken@@XZ ; CWzMemScript::GetToken

; 5811 : 					p->Resistance[4] = WzMemScript.GetNumber();

  005e8	8d 8d 6c ff ff
	ff		 lea	 ecx, DWORD PTR _WzMemScript$[ebp]
  005ee	e8 00 00 00 00	 call	 ?GetNumber@CWzMemScript@@QAEHXZ ; CWzMemScript::GetNumber

; 5812 : 
; 5813 : 					Token = WzMemScript.GetToken();

  005f3	8d 8d 6c ff ff
	ff		 lea	 ecx, DWORD PTR _WzMemScript$[ebp]
  005f9	88 46 49	 mov	 BYTE PTR [esi+73], al
  005fc	e8 00 00 00 00	 call	 ?GetToken@CWzMemScript@@QAE?AW4SMDToken@@XZ ; CWzMemScript::GetToken

; 5814 : 					p->Resistance[5] = WzMemScript.GetNumber();

  00601	8d 8d 6c ff ff
	ff		 lea	 ecx, DWORD PTR _WzMemScript$[ebp]
  00607	e8 00 00 00 00	 call	 ?GetNumber@CWzMemScript@@QAEHXZ ; CWzMemScript::GetNumber

; 5815 : 
; 5816 : 					Token = WzMemScript.GetToken();

  0060c	8d 8d 6c ff ff
	ff		 lea	 ecx, DWORD PTR _WzMemScript$[ebp]
  00612	88 46 4a	 mov	 BYTE PTR [esi+74], al
  00615	e8 00 00 00 00	 call	 ?GetToken@CWzMemScript@@QAE?AW4SMDToken@@XZ ; CWzMemScript::GetToken

; 5817 : 					p->Resistance[6] = WzMemScript.GetNumber();

  0061a	8d 8d 6c ff ff
	ff		 lea	 ecx, DWORD PTR _WzMemScript$[ebp]
  00620	e8 00 00 00 00	 call	 ?GetNumber@CWzMemScript@@QAEHXZ ; CWzMemScript::GetNumber
  00625	88 46 4b	 mov	 BYTE PTR [esi+75], al

; 5818 : 
; 5819 : 					p->ResistanceType = -1;

  00628	c6 46 62 ff	 mov	 BYTE PTR [esi+98], 255	; 000000ffH

; 5820 : 					
; 5821 : 					int n;
; 5822 : 
; 5823 : 					for (n=0;n<MAX_ITEM_SPECIAL_ATTRIBUTE-1;n++)

  0062c	33 c0		 xor	 eax, eax
  0062e	8b ff		 npad	 2
$LL12@OpenItemSc@2:

; 5824 : 					{
; 5825 : 						if ( (p->Resistance[n]) != 0 )

  00630	80 7c 06 45 00	 cmp	 BYTE PTR [esi+eax+69], 0
  00635	74 03		 je	 SHORT $LN11@OpenItemSc@2

; 5826 : 						{
; 5827 : 							p->ResistanceType=n;

  00637	88 46 62	 mov	 BYTE PTR [esi+98], al
$LN11@OpenItemSc@2:

; 5820 : 					
; 5821 : 					int n;
; 5822 : 
; 5823 : 					for (n=0;n<MAX_ITEM_SPECIAL_ATTRIBUTE-1;n++)

  0063a	40		 inc	 eax
  0063b	83 f8 06	 cmp	 eax, 6
  0063e	7c f0		 jl	 SHORT $LL12@OpenItemSc@2

; 5828 : 						}
; 5829 : 					}
; 5830 : 
; 5831 : 					p->RequireLevel = p->Level ;

  00640	0f b6 4e 22	 movzx	 ecx, BYTE PTR [esi+34]
  00644	66 89 4e 3a	 mov	 WORD PTR [esi+58], cx

; 5832 : 					
; 5833 : 				}
; 5834 : 
; 5835 : 				if ( ItemType == 14 )

  00648	e9 b5 01 00 00	 jmp	 $LN4@OpenItemSc@2
$LN13@OpenItemSc@2:
  0064d	83 ff 0e	 cmp	 edi, 14			; 0000000eH
  00650	75 3c		 jne	 SHORT $LN8@OpenItemSc@2

; 5836 : 				{
; 5837 : 					Token = WzMemScript.GetToken();

  00652	8d 8d 6c ff ff
	ff		 lea	 ecx, DWORD PTR _WzMemScript$[ebp]
  00658	e8 00 00 00 00	 call	 ?GetToken@CWzMemScript@@QAE?AW4SMDToken@@XZ ; CWzMemScript::GetToken

; 5838 : 					p->Value = WzMemScript.GetNumber();

  0065d	8d 8d 6c ff ff
	ff		 lea	 ecx, DWORD PTR _WzMemScript$[ebp]
  00663	e8 00 00 00 00	 call	 ?GetNumber@CWzMemScript@@QAEHXZ ; CWzMemScript::GetNumber

; 5839 : 
; 5840 : 					Token = WzMemScript.GetToken();

  00668	8d 8d 6c ff ff
	ff		 lea	 ecx, DWORD PTR _WzMemScript$[ebp]
  0066e	66 89 46 3c	 mov	 WORD PTR [esi+60], ax
  00672	e8 00 00 00 00	 call	 ?GetToken@CWzMemScript@@QAE?AW4SMDToken@@XZ ; CWzMemScript::GetToken

; 5841 : 					p->Level = WzMemScript.GetNumber();

  00677	8d 8d 6c ff ff
	ff		 lea	 ecx, DWORD PTR _WzMemScript$[ebp]
  0067d	e8 00 00 00 00	 call	 ?GetNumber@CWzMemScript@@QAEHXZ ; CWzMemScript::GetNumber
  00682	88 46 22	 mov	 BYTE PTR [esi+34], al

; 5842 : 
; 5843 : 					p->Durability = 1;

  00685	c6 46 30 01	 mov	 BYTE PTR [esi+48], 1

; 5844 : 				}
; 5845 : 
; 5846 : 				if ( ItemType == 12 )

  00689	e9 7f 01 00 00	 jmp	 $LN5@OpenItemSc@2
$LN8@OpenItemSc@2:
  0068e	83 ff 0c	 cmp	 edi, 12			; 0000000cH
  00691	0f 85 ea 00 00
	00		 jne	 $LN7@OpenItemSc@2

; 5847 : 				{
; 5848 : 					Token = WzMemScript.GetToken();

  00697	8d 8d 6c ff ff
	ff		 lea	 ecx, DWORD PTR _WzMemScript$[ebp]
  0069d	e8 00 00 00 00	 call	 ?GetToken@CWzMemScript@@QAE?AW4SMDToken@@XZ ; CWzMemScript::GetToken

; 5849 : 					p->Level = WzMemScript.GetNumber();

  006a2	8d 8d 6c ff ff
	ff		 lea	 ecx, DWORD PTR _WzMemScript$[ebp]
  006a8	e8 00 00 00 00	 call	 ?GetNumber@CWzMemScript@@QAEHXZ ; CWzMemScript::GetNumber

; 5850 : 
; 5851 : 					Token = WzMemScript.GetToken();

  006ad	8d 8d 6c ff ff
	ff		 lea	 ecx, DWORD PTR _WzMemScript$[ebp]
  006b3	88 46 22	 mov	 BYTE PTR [esi+34], al
  006b6	e8 00 00 00 00	 call	 ?GetToken@CWzMemScript@@QAE?AW4SMDToken@@XZ ; CWzMemScript::GetToken

; 5852 : 					p->Defense = WzMemScript.GetNumber();

  006bb	8d 8d 6c ff ff
	ff		 lea	 ecx, DWORD PTR _WzMemScript$[ebp]
  006c1	e8 00 00 00 00	 call	 ?GetNumber@CWzMemScript@@QAEHXZ ; CWzMemScript::GetNumber

; 5853 : 
; 5854 : 					Token = WzMemScript.GetToken();

  006c6	8d 8d 6c ff ff
	ff		 lea	 ecx, DWORD PTR _WzMemScript$[ebp]
  006cc	88 46 2d	 mov	 BYTE PTR [esi+45], al
  006cf	e8 00 00 00 00	 call	 ?GetToken@CWzMemScript@@QAE?AW4SMDToken@@XZ ; CWzMemScript::GetToken

; 5855 : 					p->Durability = WzMemScript.GetNumber();

  006d4	8d 8d 6c ff ff
	ff		 lea	 ecx, DWORD PTR _WzMemScript$[ebp]
  006da	e8 00 00 00 00	 call	 ?GetNumber@CWzMemScript@@QAEHXZ ; CWzMemScript::GetNumber

; 5856 : 
; 5857 : 					Token = WzMemScript.GetToken();

  006df	8d 8d 6c ff ff
	ff		 lea	 ecx, DWORD PTR _WzMemScript$[ebp]
  006e5	88 46 30	 mov	 BYTE PTR [esi+48], al
  006e8	e8 00 00 00 00	 call	 ?GetToken@CWzMemScript@@QAE?AW4SMDToken@@XZ ; CWzMemScript::GetToken

; 5858 : 					p->RequireLevel = WzMemScript.GetNumber();

  006ed	8d 8d 6c ff ff
	ff		 lea	 ecx, DWORD PTR _WzMemScript$[ebp]
  006f3	e8 00 00 00 00	 call	 ?GetNumber@CWzMemScript@@QAEHXZ ; CWzMemScript::GetNumber

; 5859 : 
; 5860 : 					Token = WzMemScript.GetToken();

  006f8	8d 8d 6c ff ff
	ff		 lea	 ecx, DWORD PTR _WzMemScript$[ebp]
  006fe	66 89 46 3a	 mov	 WORD PTR [esi+58], ax
  00702	e8 00 00 00 00	 call	 ?GetToken@CWzMemScript@@QAE?AW4SMDToken@@XZ ; CWzMemScript::GetToken

; 5861 : 					p->RequireEnergy = WzMemScript.GetNumber();

  00707	8d 8d 6c ff ff
	ff		 lea	 ecx, DWORD PTR _WzMemScript$[ebp]
  0070d	e8 00 00 00 00	 call	 ?GetNumber@CWzMemScript@@QAEHXZ ; CWzMemScript::GetNumber

; 5862 : 
; 5863 : 					Token = WzMemScript.GetToken();

  00712	8d 8d 6c ff ff
	ff		 lea	 ecx, DWORD PTR _WzMemScript$[ebp]
  00718	66 89 46 38	 mov	 WORD PTR [esi+56], ax
  0071c	e8 00 00 00 00	 call	 ?GetToken@CWzMemScript@@QAE?AW4SMDToken@@XZ ; CWzMemScript::GetToken

; 5864 : 					p->RequireStrength = WzMemScript.GetNumber();

  00721	8d 8d 6c ff ff
	ff		 lea	 ecx, DWORD PTR _WzMemScript$[ebp]
  00727	e8 00 00 00 00	 call	 ?GetNumber@CWzMemScript@@QAEHXZ ; CWzMemScript::GetNumber

; 5865 : 
; 5866 : 					Token = WzMemScript.GetToken();

  0072c	8d 8d 6c ff ff
	ff		 lea	 ecx, DWORD PTR _WzMemScript$[ebp]
  00732	66 89 46 34	 mov	 WORD PTR [esi+52], ax
  00736	e8 00 00 00 00	 call	 ?GetToken@CWzMemScript@@QAE?AW4SMDToken@@XZ ; CWzMemScript::GetToken

; 5867 : 					p->RequireDexterity = WzMemScript.GetNumber();

  0073b	8d 8d 6c ff ff
	ff		 lea	 ecx, DWORD PTR _WzMemScript$[ebp]
  00741	e8 00 00 00 00	 call	 ?GetNumber@CWzMemScript@@QAEHXZ ; CWzMemScript::GetNumber

; 5868 : 
; 5869 : 					Token = WzMemScript.GetToken();

  00746	8d 8d 6c ff ff
	ff		 lea	 ecx, DWORD PTR _WzMemScript$[ebp]
  0074c	66 89 46 36	 mov	 WORD PTR [esi+54], ax
  00750	e8 00 00 00 00	 call	 ?GetToken@CWzMemScript@@QAE?AW4SMDToken@@XZ ; CWzMemScript::GetToken

; 5870 : 					p->RequireLeadership = WzMemScript.GetNumber();

  00755	8d 8d 6c ff ff
	ff		 lea	 ecx, DWORD PTR _WzMemScript$[ebp]
  0075b	e8 00 00 00 00	 call	 ?GetNumber@CWzMemScript@@QAEHXZ ; CWzMemScript::GetNumber

; 5871 : 
; 5872 : 					Token = WzMemScript.GetToken();

  00760	8d 8d 6c ff ff
	ff		 lea	 ecx, DWORD PTR _WzMemScript$[ebp]
  00766	89 46 6c	 mov	 DWORD PTR [esi+108], eax
  00769	e8 00 00 00 00	 call	 ?GetToken@CWzMemScript@@QAE?AW4SMDToken@@XZ ; CWzMemScript::GetToken

; 5873 : 					p->BuyMoney = WzMemScript.GetNumber();

  0076e	8d 8d 6c ff ff
	ff		 lea	 ecx, DWORD PTR _WzMemScript$[ebp]
  00774	e8 00 00 00 00	 call	 ?GetNumber@CWzMemScript@@QAEHXZ ; CWzMemScript::GetNumber
  00779	89 46 50	 mov	 DWORD PTR [esi+80], eax

; 5874 : 
; 5875 : 				}
; 5876 : 				
; 5877 : 				if ( ItemType == 15 )

  0077c	e9 8c 00 00 00	 jmp	 $LN5@OpenItemSc@2
$LN7@OpenItemSc@2:
  00781	83 ff 0f	 cmp	 edi, 15			; 0000000fH
  00784	75 77		 jne	 SHORT $LN6@OpenItemSc@2

; 5878 : 				{
; 5879 : 
; 5880 : 					Token = WzMemScript.GetToken();

  00786	8d 8d 6c ff ff
	ff		 lea	 ecx, DWORD PTR _WzMemScript$[ebp]
  0078c	e8 00 00 00 00	 call	 ?GetToken@CWzMemScript@@QAE?AW4SMDToken@@XZ ; CWzMemScript::GetToken

; 5881 : 					p->Level = WzMemScript.GetNumber();

  00791	8d 8d 6c ff ff
	ff		 lea	 ecx, DWORD PTR _WzMemScript$[ebp]
  00797	e8 00 00 00 00	 call	 ?GetNumber@CWzMemScript@@QAEHXZ ; CWzMemScript::GetNumber

; 5882 : 
; 5883 : 					Token = WzMemScript.GetToken();

  0079c	8d 8d 6c ff ff
	ff		 lea	 ecx, DWORD PTR _WzMemScript$[ebp]
  007a2	88 46 22	 mov	 BYTE PTR [esi+34], al
  007a5	e8 00 00 00 00	 call	 ?GetToken@CWzMemScript@@QAE?AW4SMDToken@@XZ ; CWzMemScript::GetToken

; 5884 : 					p->RequireLevel  = WzMemScript.GetNumber();

  007aa	8d 8d 6c ff ff
	ff		 lea	 ecx, DWORD PTR _WzMemScript$[ebp]
  007b0	e8 00 00 00 00	 call	 ?GetNumber@CWzMemScript@@QAEHXZ ; CWzMemScript::GetNumber

; 5885 : 
; 5886 : 					Token = WzMemScript.GetToken();

  007b5	8d 8d 6c ff ff
	ff		 lea	 ecx, DWORD PTR _WzMemScript$[ebp]
  007bb	66 89 46 3a	 mov	 WORD PTR [esi+58], ax
  007bf	e8 00 00 00 00	 call	 ?GetToken@CWzMemScript@@QAE?AW4SMDToken@@XZ ; CWzMemScript::GetToken

; 5887 : 					p->RequireEnergy  = WzMemScript.GetNumber();

  007c4	8d 8d 6c ff ff
	ff		 lea	 ecx, DWORD PTR _WzMemScript$[ebp]
  007ca	e8 00 00 00 00	 call	 ?GetNumber@CWzMemScript@@QAEHXZ ; CWzMemScript::GetNumber

; 5888 : 
; 5889 : 					Token = WzMemScript.GetToken();

  007cf	8d 8d 6c ff ff
	ff		 lea	 ecx, DWORD PTR _WzMemScript$[ebp]
  007d5	66 89 46 38	 mov	 WORD PTR [esi+56], ax
  007d9	e8 00 00 00 00	 call	 ?GetToken@CWzMemScript@@QAE?AW4SMDToken@@XZ ; CWzMemScript::GetToken

; 5890 : 					p->BuyMoney  = WzMemScript.GetNumber();

  007de	8d 8d 6c ff ff
	ff		 lea	 ecx, DWORD PTR _WzMemScript$[ebp]
  007e4	e8 00 00 00 00	 call	 ?GetNumber@CWzMemScript@@QAEHXZ ; CWzMemScript::GetNumber
  007e9	89 46 50	 mov	 DWORD PTR [esi+80], eax

; 5891 : 
; 5892 : 					p->DamageMin = p->Level;

  007ec	8a 46 22	 mov	 al, BYTE PTR [esi+34]

; 5893 : 					p->DamageMax = p->Level + p->Level/2; 

  007ef	8a d0		 mov	 dl, al
  007f1	d0 ea		 shr	 dl, 1
  007f3	02 d0		 add	 dl, al
  007f5	88 46 2a	 mov	 BYTE PTR [esi+42], al
  007f8	88 56 2b	 mov	 BYTE PTR [esi+43], dl

; 5894 : 				}
; 5895 : 
; 5896 : 				if ( ItemType <= 11 || ItemType == 13)

  007fb	eb 10		 jmp	 SHORT $LN5@OpenItemSc@2
$LN6@OpenItemSc@2:
  007fd	83 ff 0b	 cmp	 edi, 11			; 0000000bH
  00800	7f 0b		 jg	 SHORT $LN5@OpenItemSc@2
$LN4@OpenItemSc@2:

; 5897 : 				{
; 5898 : 					Token = WzMemScript.GetToken();

  00802	8d 8d 6c ff ff
	ff		 lea	 ecx, DWORD PTR _WzMemScript$[ebp]
  00808	e8 00 00 00 00	 call	 ?GetToken@CWzMemScript@@QAE?AW4SMDToken@@XZ ; CWzMemScript::GetToken
$LN5@OpenItemSc@2:

; 5899 : 				}
; 5900 : 
; 5901 : 				p->SetAttr = WzMemScript.GetNumber();

  0080d	8d 8d 6c ff ff
	ff		 lea	 ecx, DWORD PTR _WzMemScript$[ebp]
  00813	e8 00 00 00 00	 call	 ?GetNumber@CWzMemScript@@QAEHXZ ; CWzMemScript::GetNumber
  00818	88 46 61	 mov	 BYTE PTR [esi+97], al

; 5902 : 
; 5903 : 				if ( ItemType <= 13 || ItemType == 15 )

  0081b	83 ff 0d	 cmp	 edi, 13			; 0000000dH
  0081e	7e 09		 jle	 SHORT $LN2@OpenItemSc@2
  00820	83 ff 0f	 cmp	 edi, 15			; 0000000fH
  00823	0f 85 af 00 00
	00		 jne	 $LN3@OpenItemSc@2
$LN2@OpenItemSc@2:

; 5904 : 				{
; 5905 : 
; 5906 : 					Token = WzMemScript.GetToken();

  00829	8d 8d 6c ff ff
	ff		 lea	 ecx, DWORD PTR _WzMemScript$[ebp]
  0082f	e8 00 00 00 00	 call	 ?GetToken@CWzMemScript@@QAE?AW4SMDToken@@XZ ; CWzMemScript::GetToken

; 5907 : 					p->RequireClass[0]  = WzMemScript.GetNumber();

  00834	8d 8d 6c ff ff
	ff		 lea	 ecx, DWORD PTR _WzMemScript$[ebp]
  0083a	e8 00 00 00 00	 call	 ?GetNumber@CWzMemScript@@QAEHXZ ; CWzMemScript::GetNumber

; 5908 : 
; 5909 : 					Token = WzMemScript.GetToken();

  0083f	8d 8d 6c ff ff
	ff		 lea	 ecx, DWORD PTR _WzMemScript$[ebp]
  00845	88 46 3e	 mov	 BYTE PTR [esi+62], al
  00848	e8 00 00 00 00	 call	 ?GetToken@CWzMemScript@@QAE?AW4SMDToken@@XZ ; CWzMemScript::GetToken

; 5910 : 					p->RequireClass[1]  = WzMemScript.GetNumber();

  0084d	8d 8d 6c ff ff
	ff		 lea	 ecx, DWORD PTR _WzMemScript$[ebp]
  00853	e8 00 00 00 00	 call	 ?GetNumber@CWzMemScript@@QAEHXZ ; CWzMemScript::GetNumber

; 5911 : 
; 5912 : 					Token = WzMemScript.GetToken();

  00858	8d 8d 6c ff ff
	ff		 lea	 ecx, DWORD PTR _WzMemScript$[ebp]
  0085e	88 46 3f	 mov	 BYTE PTR [esi+63], al
  00861	e8 00 00 00 00	 call	 ?GetToken@CWzMemScript@@QAE?AW4SMDToken@@XZ ; CWzMemScript::GetToken

; 5913 : 					p->RequireClass[2]  = WzMemScript.GetNumber();

  00866	8d 8d 6c ff ff
	ff		 lea	 ecx, DWORD PTR _WzMemScript$[ebp]
  0086c	e8 00 00 00 00	 call	 ?GetNumber@CWzMemScript@@QAEHXZ ; CWzMemScript::GetNumber

; 5914 : 
; 5915 : 					Token = WzMemScript.GetToken();

  00871	8d 8d 6c ff ff
	ff		 lea	 ecx, DWORD PTR _WzMemScript$[ebp]
  00877	88 46 40	 mov	 BYTE PTR [esi+64], al
  0087a	e8 00 00 00 00	 call	 ?GetToken@CWzMemScript@@QAE?AW4SMDToken@@XZ ; CWzMemScript::GetToken

; 5916 : 					p->RequireClass[3]  = WzMemScript.GetNumber();

  0087f	8d 8d 6c ff ff
	ff		 lea	 ecx, DWORD PTR _WzMemScript$[ebp]
  00885	e8 00 00 00 00	 call	 ?GetNumber@CWzMemScript@@QAEHXZ ; CWzMemScript::GetNumber

; 5917 : 
; 5918 : 					Token = WzMemScript.GetToken();

  0088a	8d 8d 6c ff ff
	ff		 lea	 ecx, DWORD PTR _WzMemScript$[ebp]
  00890	88 46 41	 mov	 BYTE PTR [esi+65], al
  00893	e8 00 00 00 00	 call	 ?GetToken@CWzMemScript@@QAE?AW4SMDToken@@XZ ; CWzMemScript::GetToken

; 5919 : 					p->RequireClass[4]  = WzMemScript.GetNumber();

  00898	8d 8d 6c ff ff
	ff		 lea	 ecx, DWORD PTR _WzMemScript$[ebp]
  0089e	e8 00 00 00 00	 call	 ?GetNumber@CWzMemScript@@QAEHXZ ; CWzMemScript::GetNumber

; 5920 : 
; 5921 : 					Token = WzMemScript.GetToken();

  008a3	8d 8d 6c ff ff
	ff		 lea	 ecx, DWORD PTR _WzMemScript$[ebp]
  008a9	88 46 42	 mov	 BYTE PTR [esi+66], al
  008ac	e8 00 00 00 00	 call	 ?GetToken@CWzMemScript@@QAE?AW4SMDToken@@XZ ; CWzMemScript::GetToken

; 5922 : 					p->RequireClass[5]  = WzMemScript.GetNumber();

  008b1	8d 8d 6c ff ff
	ff		 lea	 ecx, DWORD PTR _WzMemScript$[ebp]
  008b7	e8 00 00 00 00	 call	 ?GetNumber@CWzMemScript@@QAEHXZ ; CWzMemScript::GetNumber

; 5923 : 
; 5924 : 					Token = WzMemScript.GetToken();

  008bc	8d 8d 6c ff ff
	ff		 lea	 ecx, DWORD PTR _WzMemScript$[ebp]
  008c2	88 46 43	 mov	 BYTE PTR [esi+67], al
  008c5	e8 00 00 00 00	 call	 ?GetToken@CWzMemScript@@QAE?AW4SMDToken@@XZ ; CWzMemScript::GetToken

; 5925 : 					p->RequireClass[6]  = WzMemScript.GetNumber();

  008ca	8d 8d 6c ff ff
	ff		 lea	 ecx, DWORD PTR _WzMemScript$[ebp]
  008d0	e8 00 00 00 00	 call	 ?GetNumber@CWzMemScript@@QAEHXZ ; CWzMemScript::GetNumber
  008d5	88 46 44	 mov	 BYTE PTR [esi+68], al
$LN3@OpenItemSc@2:

; 5926 : 				}
; 5927 : 
; 5928 : 				CalRepairRate(ItemType, ItemSubType, p);

  008d8	56		 push	 esi
  008d9	53		 push	 ebx
  008da	57		 push	 edi
  008db	e8 00 00 00 00	 call	 ?CalRepairRate@@YAXHHPAUITEM_ATTRIBUTE@@@Z ; CalRepairRate

; 5929 : 
; 5930 : 				p->HaveItemInfo = TRUE;
; 5931 : 
; 5932 : 				loop_count++;

  008e0	8b 85 68 ff ff
	ff		 mov	 eax, DWORD PTR _loop_count$[ebp]
  008e6	40		 inc	 eax
  008e7	83 c4 0c	 add	 esp, 12			; 0000000cH
  008ea	c6 46 20 01	 mov	 BYTE PTR [esi+32], 1
  008ee	89 85 68 ff ff
	ff		 mov	 DWORD PTR _loop_count$[ebp], eax

; 5933 : 
; 5934 : 				if ( loop_count > MAX_SUBTYPE_ITEMS )

  008f4	3d 00 02 00 00	 cmp	 eax, 512		; 00000200H

; 5937 : 					break;
; 5938 : 				}
; 5939 : 			}

  008f9	0f 8e c1 f7 ff
	ff		 jle	 $LL29@OpenItemSc@2

; 5935 : 				{
; 5936 : 					MsgBox("Error : Item Data fail. (LoopCount:%d) Item Type:%d Index %d", loop_count, ItemType, ItemSubType);

  008ff	53		 push	 ebx
  00900	57		 push	 edi
  00901	50		 push	 eax
  00902	68 00 00 00 00	 push	 OFFSET ??_C@_0DN@NLHNDLLL@Error?5?3?5Item?5Data?5fail?4?5?$CILoopCou@
  00907	e8 00 00 00 00	 call	 ?MsgBox@@YAXPADZZ	; MsgBox
  0090c	83 c4 10	 add	 esp, 16			; 00000010H
$LN28@OpenItemSc@2:

; 5610 : 	}
; 5611 : 
; 5612 : 	while ( true )
; 5613 : 	{
; 5614 : 		Token = WzMemScript.GetToken();

  0090f	8d 8d 6c ff ff
	ff		 lea	 ecx, DWORD PTR _WzMemScript$[ebp]
  00915	e8 00 00 00 00	 call	 ?GetToken@CWzMemScript@@QAE?AW4SMDToken@@XZ ; CWzMemScript::GetToken

; 5615 : 
; 5616 : 		if ( Token == 2 )

  0091a	83 f8 02	 cmp	 eax, 2
  0091d	0f 85 74 f7 ff
	ff		 jne	 $LN33@OpenItemSc@2
$LN49@OpenItemSc@2:

; 5940 : 		}
; 5941 : 	}
; 5942 : 	
; 5943 : 	return TRUE;

  00923	8d 8d 6c ff ff
	ff		 lea	 ecx, DWORD PTR _WzMemScript$[ebp]
  00929	c7 45 fc ff ff
	ff ff		 mov	 DWORD PTR __$EHRec$[ebp+8], -1
  00930	e8 00 00 00 00	 call	 ??1CWzMemScript@@UAE@XZ	; CWzMemScript::~CWzMemScript
  00935	b8 01 00 00 00	 mov	 eax, 1

; 5944 : 
; 5945 : }

  0093a	8b 4d f4	 mov	 ecx, DWORD PTR __$EHRec$[ebp]
  0093d	64 89 0d 00 00
	00 00		 mov	 DWORD PTR fs:0, ecx
  00944	59		 pop	 ecx
  00945	5f		 pop	 edi
  00946	5e		 pop	 esi
  00947	5b		 pop	 ebx
  00948	8b 4d f0	 mov	 ecx, DWORD PTR __$ArrayPad$[ebp]
  0094b	33 cd		 xor	 ecx, ebp
  0094d	e8 00 00 00 00	 call	 @__security_check_cookie@4
  00952	8b e5		 mov	 esp, ebp
  00954	5d		 pop	 ebp
  00955	c3		 ret	 0
_TEXT	ENDS
;	COMDAT text$x
text$x	SEGMENT
__unwindfunclet$?OpenItemScript@@YAHPADH@Z$0:
  00000	8d 8d 6c ff ff
	ff		 lea	 ecx, DWORD PTR _WzMemScript$[ebp]
  00006	e9 00 00 00 00	 jmp	 ??1CWzMemScript@@UAE@XZ	; CWzMemScript::~CWzMemScript
__ehhandler$?OpenItemScript@@YAHPADH@Z:
  0000b	8b 54 24 08	 mov	 edx, DWORD PTR [esp+8]
  0000f	8d 42 0c	 lea	 eax, DWORD PTR [edx+12]
  00012	8b 8a 64 ff ff
	ff		 mov	 ecx, DWORD PTR [edx-156]
  00018	33 c8		 xor	 ecx, eax
  0001a	e8 00 00 00 00	 call	 @__security_check_cookie@4
  0001f	8b 4a fc	 mov	 ecx, DWORD PTR [edx-4]
  00022	33 c8		 xor	 ecx, eax
  00024	e8 00 00 00 00	 call	 @__security_check_cookie@4
  00029	b8 00 00 00 00	 mov	 eax, OFFSET __ehfuncinfo$?OpenItemScript@@YAHPADH@Z
  0002e	e9 00 00 00 00	 jmp	 ___CxxFrameHandler3
text$x	ENDS
?OpenItemScript@@YAHPADH@Z ENDP				; OpenItemScript
PUBLIC	__$ArrayPad$
PUBLIC	?OpenItemNameScript@@YAHPADH@Z			; OpenItemNameScript
;	COMDAT xdata$x
xdata$x	SEGMENT
__unwindtable$?OpenItemNameScript@@YAHPADH@Z DD 0ffffffffH
	DD	FLAT:__unwindfunclet$?OpenItemNameScript@@YAHPADH@Z$0
__ehfuncinfo$?OpenItemNameScript@@YAHPADH@Z DD 019930522H
	DD	01H
	DD	FLAT:__unwindtable$?OpenItemNameScript@@YAHPADH@Z
	DD	2 DUP(00H)
	DD	2 DUP(00H)
	DD	00H
	DD	01H
; Function compile flags: /Ogtp
xdata$x	ENDS
;	COMDAT ?OpenItemNameScript@@YAHPADH@Z
_TEXT	SEGMENT
_WzMemScript$ = -148					; size = 132
__$ArrayPad$ = -16					; size = 4
__$EHRec$ = -12						; size = 12
_Buffer$ = 8						; size = 4
_iSize$ = 12						; size = 4
?OpenItemNameScript@@YAHPADH@Z PROC			; OpenItemNameScript, COMDAT

; 5948 : {

  00000	55		 push	 ebp
  00001	8b ec		 mov	 ebp, esp
  00003	6a ff		 push	 -1
  00005	68 00 00 00 00	 push	 __ehhandler$?OpenItemNameScript@@YAHPADH@Z
  0000a	64 a1 00 00 00
	00		 mov	 eax, DWORD PTR fs:0
  00010	50		 push	 eax
  00011	81 ec 88 00 00
	00		 sub	 esp, 136		; 00000088H
  00017	a1 00 00 00 00	 mov	 eax, DWORD PTR ___security_cookie
  0001c	33 c5		 xor	 eax, ebp
  0001e	89 45 f0	 mov	 DWORD PTR __$ArrayPad$[ebp], eax
  00021	53		 push	 ebx
  00022	56		 push	 esi
  00023	57		 push	 edi
  00024	50		 push	 eax
  00025	8d 45 f4	 lea	 eax, DWORD PTR __$EHRec$[ebp]
  00028	64 a3 00 00 00
	00		 mov	 DWORD PTR fs:0, eax
  0002e	8b 75 08	 mov	 esi, DWORD PTR _Buffer$[ebp]

; 5949 : 	CWzMemScript WzMemScript;

  00031	8d 8d 6c ff ff
	ff		 lea	 ecx, DWORD PTR _WzMemScript$[ebp]
  00037	e8 00 00 00 00	 call	 ??0CWzMemScript@@QAE@XZ	; CWzMemScript::CWzMemScript

; 5950 : 	int Token;
; 5951 : 
; 5952 : 	WzMemScript.SetBuffer(Buffer, iSize);

  0003c	8b 45 0c	 mov	 eax, DWORD PTR _iSize$[ebp]
  0003f	50		 push	 eax
  00040	56		 push	 esi
  00041	8d 8d 6c ff ff
	ff		 lea	 ecx, DWORD PTR _WzMemScript$[ebp]
  00047	c7 45 fc 00 00
	00 00		 mov	 DWORD PTR __$EHRec$[ebp+8], 0
  0004e	e8 00 00 00 00	 call	 ?SetBuffer@CWzMemScript@@QAEHPADH@Z ; CWzMemScript::SetBuffer

; 5953 : 
; 5954 : 	while ( true )
; 5955 : 	{
; 5956 : 		Token = WzMemScript.GetToken();

  00053	8d 8d 6c ff ff
	ff		 lea	 ecx, DWORD PTR _WzMemScript$[ebp]
  00059	e8 00 00 00 00	 call	 ?GetToken@CWzMemScript@@QAE?AW4SMDToken@@XZ ; CWzMemScript::GetToken

; 5957 : 
; 5958 : 		if ( Token == 2 )

  0005e	83 f8 02	 cmp	 eax, 2
  00061	0f 84 bd 00 00
	00		 je	 $LN18@OpenItemNa@2
$LL8@OpenItemNa@2:

; 5959 : 		{
; 5960 : 			break;
; 5961 : 		}
; 5962 : 
; 5963 : 		if ( Token == 1 )

  00067	83 f8 01	 cmp	 eax, 1
  0006a	0f 85 a0 00 00
	00		 jne	 $LN17@OpenItemNa@2

; 5964 : 		{
; 5965 : 			int ItemType;
; 5966 : 
; 5967 : 			ItemType = WzMemScript.GetNumber();

  00070	8d 8d 6c ff ff
	ff		 lea	 ecx, DWORD PTR _WzMemScript$[ebp]
  00076	e8 00 00 00 00	 call	 ?GetNumber@CWzMemScript@@QAEHXZ ; CWzMemScript::GetNumber
  0007b	8b d8		 mov	 ebx, eax
  0007d	8d 49 00	 npad	 3
$LL4@OpenItemNa@2:

; 5968 : 
; 5969 : 			while ( true )
; 5970 : 			{
; 5971 : 				int ItemSubType;
; 5972 : 				LPITEM_ATTRIBUTE p;
; 5973 : 
; 5974 : 				Token = WzMemScript.GetToken();

  00080	8d 8d 6c ff ff
	ff		 lea	 ecx, DWORD PTR _WzMemScript$[ebp]
  00086	e8 00 00 00 00	 call	 ?GetToken@CWzMemScript@@QAE?AW4SMDToken@@XZ ; CWzMemScript::GetToken

; 5975 : 				ItemSubType = WzMemScript.GetNumber();

  0008b	8d 8d 6c ff ff
	ff		 lea	 ecx, DWORD PTR _WzMemScript$[ebp]
  00091	8b f0		 mov	 esi, eax
  00093	e8 00 00 00 00	 call	 ?GetNumber@CWzMemScript@@QAEHXZ ; CWzMemScript::GetNumber
  00098	8b f8		 mov	 edi, eax

; 5976 : 				
; 5977 : 				if ( Token == 0 )

  0009a	85 f6		 test	 esi, esi
  0009c	75 3b		 jne	 SHORT $LN1@OpenItemNa@2

; 5978 : 				{
; 5979 : 					if ( strcmp("end", WzMemScript.GetString() ) == 0 )

  0009e	8d 8d 6c ff ff
	ff		 lea	 ecx, DWORD PTR _WzMemScript$[ebp]
  000a4	e8 00 00 00 00	 call	 ?GetString@CWzMemScript@@QAEPADXZ ; CWzMemScript::GetString
  000a9	b9 00 00 00 00	 mov	 ecx, OFFSET ??_C@_03JBJLGPFL@end?$AA@
  000ae	8b ff		 npad	 2
$LL19@OpenItemNa@2:
  000b0	8a 11		 mov	 dl, BYTE PTR [ecx]
  000b2	3a 10		 cmp	 dl, BYTE PTR [eax]
  000b4	75 1a		 jne	 SHORT $LN20@OpenItemNa@2
  000b6	84 d2		 test	 dl, dl
  000b8	74 12		 je	 SHORT $LN21@OpenItemNa@2
  000ba	8a 51 01	 mov	 dl, BYTE PTR [ecx+1]
  000bd	3a 50 01	 cmp	 dl, BYTE PTR [eax+1]
  000c0	75 0e		 jne	 SHORT $LN20@OpenItemNa@2
  000c2	83 c1 02	 add	 ecx, 2
  000c5	83 c0 02	 add	 eax, 2
  000c8	84 d2		 test	 dl, dl
  000ca	75 e4		 jne	 SHORT $LL19@OpenItemNa@2
$LN21@OpenItemNa@2:
  000cc	33 c0		 xor	 eax, eax
  000ce	eb 05		 jmp	 SHORT $LN22@OpenItemNa@2
$LN20@OpenItemNa@2:
  000d0	1b c0		 sbb	 eax, eax
  000d2	83 d8 ff	 sbb	 eax, -1
$LN22@OpenItemNa@2:
  000d5	85 c0		 test	 eax, eax
  000d7	74 37		 je	 SHORT $LN17@OpenItemNa@2
$LN1@OpenItemNa@2:

; 5980 : 					{
; 5981 : 						break;
; 5982 : 					}
; 5983 : 				}
; 5984 : 					
; 5985 : 				p = &ItemAttribute[ItemType*MAX_SUBTYPE_ITEMS + ItemSubType];
; 5986 : 
; 5987 : 				Token = WzMemScript.GetToken();

  000d9	8d 8d 6c ff ff
	ff		 lea	 ecx, DWORD PTR _WzMemScript$[ebp]
  000df	e8 00 00 00 00	 call	 ?GetToken@CWzMemScript@@QAE?AW4SMDToken@@XZ ; CWzMemScript::GetToken

; 5988 : 				strcpy(&p->Name[0], WzMemScript.GetString() );

  000e4	8d 8d 6c ff ff
	ff		 lea	 ecx, DWORD PTR _WzMemScript$[ebp]
  000ea	e8 00 00 00 00	 call	 ?GetString@CWzMemScript@@QAEPADXZ ; CWzMemScript::GetString
  000ef	8b cb		 mov	 ecx, ebx
  000f1	c1 e1 09	 shl	 ecx, 9
  000f4	03 cf		 add	 ecx, edi
  000f6	6b c9 70	 imul	 ecx, 112		; 00000070H
  000f9	2b c8		 sub	 ecx, eax
  000fb	8d 91 00 00 00
	00		 lea	 edx, DWORD PTR ?ItemAttribute@@3PAUITEM_ATTRIBUTE@@A[ecx]
$LL11@OpenItemNa@2:
  00101	8a 08		 mov	 cl, BYTE PTR [eax]
  00103	88 0c 02	 mov	 BYTE PTR [edx+eax], cl
  00106	40		 inc	 eax
  00107	84 c9		 test	 cl, cl
  00109	75 f6		 jne	 SHORT $LL11@OpenItemNa@2

; 5989 : 
; 5990 : 				
; 5991 : 			}

  0010b	e9 70 ff ff ff	 jmp	 $LL4@OpenItemNa@2
$LN17@OpenItemNa@2:

; 5953 : 
; 5954 : 	while ( true )
; 5955 : 	{
; 5956 : 		Token = WzMemScript.GetToken();

  00110	8d 8d 6c ff ff
	ff		 lea	 ecx, DWORD PTR _WzMemScript$[ebp]
  00116	e8 00 00 00 00	 call	 ?GetToken@CWzMemScript@@QAE?AW4SMDToken@@XZ ; CWzMemScript::GetToken

; 5957 : 
; 5958 : 		if ( Token == 2 )

  0011b	83 f8 02	 cmp	 eax, 2
  0011e	0f 85 43 ff ff
	ff		 jne	 $LL8@OpenItemNa@2
$LN18@OpenItemNa@2:

; 5992 : 		}
; 5993 : 	}
; 5994 : 	return TRUE;

  00124	8d 8d 6c ff ff
	ff		 lea	 ecx, DWORD PTR _WzMemScript$[ebp]
  0012a	c7 45 fc ff ff
	ff ff		 mov	 DWORD PTR __$EHRec$[ebp+8], -1
  00131	e8 00 00 00 00	 call	 ??1CWzMemScript@@UAE@XZ	; CWzMemScript::~CWzMemScript
  00136	b8 01 00 00 00	 mov	 eax, 1

; 5995 : }

  0013b	8b 4d f4	 mov	 ecx, DWORD PTR __$EHRec$[ebp]
  0013e	64 89 0d 00 00
	00 00		 mov	 DWORD PTR fs:0, ecx
  00145	59		 pop	 ecx
  00146	5f		 pop	 edi
  00147	5e		 pop	 esi
  00148	5b		 pop	 ebx
  00149	8b 4d f0	 mov	 ecx, DWORD PTR __$ArrayPad$[ebp]
  0014c	33 cd		 xor	 ecx, ebp
  0014e	e8 00 00 00 00	 call	 @__security_check_cookie@4
  00153	8b e5		 mov	 esp, ebp
  00155	5d		 pop	 ebp
  00156	c3		 ret	 0
_TEXT	ENDS
;	COMDAT text$x
text$x	SEGMENT
__unwindfunclet$?OpenItemNameScript@@YAHPADH@Z$0:
  00000	8d 8d 6c ff ff
	ff		 lea	 ecx, DWORD PTR _WzMemScript$[ebp]
  00006	e9 00 00 00 00	 jmp	 ??1CWzMemScript@@UAE@XZ	; CWzMemScript::~CWzMemScript
__ehhandler$?OpenItemNameScript@@YAHPADH@Z:
  0000b	8b 54 24 08	 mov	 edx, DWORD PTR [esp+8]
  0000f	8d 42 0c	 lea	 eax, DWORD PTR [edx+12]
  00012	8b 8a 68 ff ff
	ff		 mov	 ecx, DWORD PTR [edx-152]
  00018	33 c8		 xor	 ecx, eax
  0001a	e8 00 00 00 00	 call	 @__security_check_cookie@4
  0001f	8b 4a fc	 mov	 ecx, DWORD PTR [edx-4]
  00022	33 c8		 xor	 ecx, eax
  00024	e8 00 00 00 00	 call	 @__security_check_cookie@4
  00029	b8 00 00 00 00	 mov	 eax, OFFSET __ehfuncinfo$?OpenItemNameScript@@YAHPADH@Z
  0002e	e9 00 00 00 00	 jmp	 ___CxxFrameHandler3
text$x	ENDS
?OpenItemNameScript@@YAHPADH@Z ENDP			; OpenItemNameScript
PUBLIC	?zzzItemLevel@@YAHHHH@Z				; zzzItemLevel
; Function compile flags: /Ogtp
;	COMDAT ?zzzItemLevel@@YAHHHH@Z
_TEXT	SEGMENT
_type$ = 8						; size = 4
_index$ = 12						; size = 4
_level$ = 16						; size = 4
?zzzItemLevel@@YAHHHH@Z PROC				; zzzItemLevel, COMDAT

; 5998 : {

  00000	55		 push	 ebp
  00001	8b ec		 mov	 ebp, esp

; 5999 : 	int item_num = (type*MAX_SUBTYPE_ITEMS)+index ;

  00003	8b 45 08	 mov	 eax, DWORD PTR _type$[ebp]

; 6000 : 
; 6001 : 	if (level < 0 )

  00006	8b 4d 10	 mov	 ecx, DWORD PTR _level$[ebp]
  00009	c1 e0 09	 shl	 eax, 9
  0000c	03 45 0c	 add	 eax, DWORD PTR _index$[ebp]
  0000f	85 c9		 test	 ecx, ecx
  00011	79 02		 jns	 SHORT $LN4@zzzItemLev

; 6002 : 	{
; 6003 : 		level = 0;

  00013	33 c9		 xor	 ecx, ecx
$LN4@zzzItemLev:

; 6004 : 	}
; 6005 : 	
; 6006 : 	if ( ItemAttribute[item_num].Level == (BYTE)-1 )

  00015	6b c0 70	 imul	 eax, 112		; 00000070H
  00018	8a 80 22 00 00
	00		 mov	 al, BYTE PTR ?ItemAttribute@@3PAUITEM_ATTRIBUTE@@A[eax+34]
  0001e	3c ff		 cmp	 al, 255			; 000000ffH
  00020	75 04		 jne	 SHORT $LN3@zzzItemLev
$LN7@zzzItemLev:

; 6007 : 	{
; 6008 : 		return 0;

  00022	33 c0		 xor	 eax, eax

; 6017 : 	{
; 6018 : 		return 1;
; 6019 : 	}
; 6020 : 
; 6021 : 	return 0;
; 6022 : }

  00024	5d		 pop	 ebp
  00025	c3		 ret	 0
$LN3@zzzItemLev:

; 6009 : 	}
; 6010 : 
; 6011 : 	if ( ItemAttribute[item_num].Level == 0 )

  00026	84 c0		 test	 al, al

; 6012 : 	{
; 6013 : 		return 0;

  00028	74 f8		 je	 SHORT $LN7@zzzItemLev

; 6014 : 	}
; 6015 : 
; 6016 : 	if ( ItemAttribute[item_num].Level < level )

  0002a	0f b6 c0	 movzx	 eax, al
  0002d	33 d2		 xor	 edx, edx
  0002f	3b c1		 cmp	 eax, ecx
  00031	0f 9c c2	 setl	 dl
  00034	8b c2		 mov	 eax, edx

; 6017 : 	{
; 6018 : 		return 1;
; 6019 : 	}
; 6020 : 
; 6021 : 	return 0;
; 6022 : }

  00036	5d		 pop	 ebp
  00037	c3		 ret	 0
?zzzItemLevel@@YAHHHH@Z ENDP				; zzzItemLevel
_TEXT	ENDS
PUBLIC	?GetLevelItem@@YAHHHH@Z				; GetLevelItem
EXTRN	_rand:PROC
; Function compile flags: /Ogtp
;	COMDAT ?GetLevelItem@@YAHHHH@Z
_TEXT	SEGMENT
_type$ = 8						; size = 4
_index$ = 12						; size = 4
_level$ = 16						; size = 4
?GetLevelItem@@YAHHHH@Z PROC				; GetLevelItem, COMDAT

; 6025 : {

  00000	55		 push	 ebp
  00001	8b ec		 mov	 ebp, esp
  00003	56		 push	 esi

; 6026 : 	int item_num;
; 6027 : 	int itemlevel;
; 6028 : 
; 6029 : 	if ( level < 0 )

  00004	8b 75 10	 mov	 esi, DWORD PTR _level$[ebp]
  00007	57		 push	 edi
  00008	85 f6		 test	 esi, esi
  0000a	79 02		 jns	 SHORT $LN24@GetLevelIt

; 6030 : 	{
; 6031 : 		level = 0;

  0000c	33 f6		 xor	 esi, esi
$LN24@GetLevelIt:

; 6032 : 	}
; 6033 : 
; 6034 : 	item_num = (type * MAX_SUBTYPE_ITEMS) + index;

  0000e	8b 7d 08	 mov	 edi, DWORD PTR _type$[ebp]
  00011	8b 4d 0c	 mov	 ecx, DWORD PTR _index$[ebp]
  00014	8b c7		 mov	 eax, edi
  00016	c1 e0 09	 shl	 eax, 9
  00019	03 c1		 add	 eax, ecx

; 6035 : 
; 6036 : 	if (ItemAttribute[item_num].MondownFlag  == 0)

  0001b	6b c0 70	 imul	 eax, 112		; 00000070H
  0001e	80 b8 27 00 00
	00 00		 cmp	 BYTE PTR ?ItemAttribute@@3PAUITEM_ATTRIBUTE@@A[eax+39], 0

; 6037 : 	{
; 6038 : 		return -1;

  00025	0f 84 58 01 00
	00		 je	 $LN6@GetLevelIt

; 6039 : 	}
; 6040 : 
; 6041 : 	if ( ItemAttribute[item_num].Level == 0xFF )

  0002b	8a 80 22 00 00
	00		 mov	 al, BYTE PTR ?ItemAttribute@@3PAUITEM_ATTRIBUTE@@A[eax+34]
  00031	3c ff		 cmp	 al, 255			; 000000ffH

; 6042 : 	{
; 6043 : 		return -1;

  00033	0f 84 4a 01 00
	00		 je	 $LN6@GetLevelIt

; 6044 : 	}
; 6045 : 
; 6046 : 	if ( ItemAttribute[item_num].Level == 0 )

  00039	84 c0		 test	 al, al

; 6047 : 	{
; 6048 : 		return -1;

  0003b	0f 84 42 01 00
	00		 je	 $LN6@GetLevelIt

; 6049 : 	}
; 6050 : 
; 6051 : 	if ( type == 14 )

  00041	83 ff 0e	 cmp	 edi, 14			; 0000000eH
  00044	75 25		 jne	 SHORT $LN20@GetLevelIt

; 6052 : 	{
; 6053 : 		itemlevel = ItemAttribute[item_num].Level;

  00046	0f b6 c0	 movzx	 eax, al

; 6054 : 
; 6055 : 		if ( index == 15 )

  00049	83 f9 0f	 cmp	 ecx, 15			; 0000000fH

; 6056 : 		{
; 6057 : 			return -1;

  0004c	0f 84 31 01 00
	00		 je	 $LN6@GetLevelIt

; 6058 : 		}
; 6059 : 
; 6060 : 		if ( itemlevel >= (level-8) )

  00052	8d 4e f8	 lea	 ecx, DWORD PTR [esi-8]
  00055	3b c1		 cmp	 eax, ecx
  00057	0f 8c 26 01 00
	00		 jl	 $LN6@GetLevelIt

; 6061 : 		{
; 6062 : 			if ( itemlevel <= level )

  0005d	3b c6		 cmp	 eax, esi
  0005f	0f 8f 1e 01 00
	00		 jg	 $LN6@GetLevelIt
$LN27@GetLevelIt:
  00065	5f		 pop	 edi

; 6063 : 			{
; 6064 : 				return 0;

  00066	33 c0		 xor	 eax, eax
  00068	5e		 pop	 esi

; 6159 : }

  00069	5d		 pop	 ebp
  0006a	c3		 ret	 0
$LN20@GetLevelIt:

; 6065 : 			}
; 6066 : 		}
; 6067 : 
; 6068 : 		return -1;
; 6069 : 	}
; 6070 : 
; 6071 : 	if ( type == 13 && index == 10  )

  0006b	83 ff 0d	 cmp	 edi, 13			; 0000000dH
  0006e	75 4c		 jne	 SHORT $LN16@GetLevelIt
  00070	83 f9 0a	 cmp	 ecx, 10			; 0000000aH
  00073	0f 85 90 00 00
	00		 jne	 $LN11@GetLevelIt

; 6072 : 	{
; 6073 : 		int ilevel;
; 6074 : 
; 6075 : 		if ( (rand()%10) == 0 )

  00079	e8 00 00 00 00	 call	 _rand
  0007e	99		 cdq
  0007f	b9 0a 00 00 00	 mov	 ecx, 10			; 0000000aH
  00084	f7 f9		 idiv	 ecx
  00086	85 d2		 test	 edx, edx
  00088	0f 85 f5 00 00
	00		 jne	 $LN6@GetLevelIt

; 6076 : 		{
; 6077 : 			ilevel = 0;
; 6078 : 
; 6079 : 			if ( level < 0 )

  0008e	85 f6		 test	 esi, esi
  00090	79 02		 jns	 SHORT $LN14@GetLevelIt

; 6080 : 			{
; 6081 : 				level = 0;

  00092	33 f6		 xor	 esi, esi
$LN14@GetLevelIt:

; 6082 : 			}
; 6083 : 
; 6084 : 			ilevel= level/10;

  00094	b8 67 66 66 66	 mov	 eax, 1717986919		; 66666667H
  00099	f7 ee		 imul	 esi
  0009b	c1 fa 02	 sar	 edx, 2
  0009e	8b c2		 mov	 eax, edx
  000a0	c1 e8 1f	 shr	 eax, 31			; 0000001fH
  000a3	03 c2		 add	 eax, edx

; 6085 : 
; 6086 : 			if ( ilevel > 0 )

  000a5	85 c0		 test	 eax, eax
  000a7	7e 01		 jle	 SHORT $LN13@GetLevelIt

; 6087 : 			{
; 6088 : 				ilevel--;

  000a9	48		 dec	 eax
$LN13@GetLevelIt:

; 6089 : 			}
; 6090 : 
; 6091 : 			if ( ilevel > 5)

  000aa	83 f8 05	 cmp	 eax, 5
  000ad	0f 8e d3 00 00
	00		 jle	 $LN25@GetLevelIt

; 6092 : 			{
; 6093 : 				ilevel = 5;

  000b3	5f		 pop	 edi
  000b4	b8 05 00 00 00	 mov	 eax, 5
  000b9	5e		 pop	 esi

; 6159 : }

  000ba	5d		 pop	 ebp
  000bb	c3		 ret	 0
$LN16@GetLevelIt:

; 6094 : 			}
; 6095 : 
; 6096 : 			return ilevel;
; 6097 : 		}
; 6098 : 
; 6099 : 		return -1;
; 6100 : 	}
; 6101 : 
; 6102 : 	if ( type == 12 && index ==  11 )

  000bc	83 ff 0c	 cmp	 edi, 12			; 0000000cH
  000bf	75 48		 jne	 SHORT $LN11@GetLevelIt
  000c1	83 f9 0b	 cmp	 ecx, 11			; 0000000bH
  000c4	75 43		 jne	 SHORT $LN11@GetLevelIt

; 6103 : 	{
; 6104 : 		int ilevel;
; 6105 : 
; 6106 : 		if ( (rand()%10) == 0 )

  000c6	e8 00 00 00 00	 call	 _rand
  000cb	99		 cdq
  000cc	b9 0a 00 00 00	 mov	 ecx, 10			; 0000000aH
  000d1	f7 f9		 idiv	 ecx
  000d3	85 d2		 test	 edx, edx
  000d5	0f 85 a8 00 00
	00		 jne	 $LN6@GetLevelIt

; 6107 : 		{
; 6108 : 			ilevel = 0;
; 6109 : 
; 6110 : 			if ( level < 0 )

  000db	85 f6		 test	 esi, esi
  000dd	79 02		 jns	 SHORT $LN9@GetLevelIt

; 6111 : 			{
; 6112 : 				level = 0;

  000df	33 f6		 xor	 esi, esi
$LN9@GetLevelIt:

; 6113 : 			}
; 6114 : 
; 6115 : 			ilevel= level/10;

  000e1	b8 67 66 66 66	 mov	 eax, 1717986919		; 66666667H
  000e6	f7 ee		 imul	 esi
  000e8	c1 fa 02	 sar	 edx, 2
  000eb	8b c2		 mov	 eax, edx
  000ed	c1 e8 1f	 shr	 eax, 31			; 0000001fH
  000f0	03 c2		 add	 eax, edx

; 6116 : 
; 6117 : 			if ( ilevel > 0 )

  000f2	85 c0		 test	 eax, eax
  000f4	7e 01		 jle	 SHORT $LN8@GetLevelIt

; 6118 : 			{
; 6119 : 				ilevel--;

  000f6	48		 dec	 eax
$LN8@GetLevelIt:

; 6120 : 			}
; 6121 : 
; 6122 : 			if ( ilevel > 6)

  000f7	83 f8 06	 cmp	 eax, 6
  000fa	0f 8e 86 00 00
	00		 jle	 $LN25@GetLevelIt

; 6123 : 			{
; 6124 : 				ilevel = 6;

  00100	5f		 pop	 edi
  00101	b8 06 00 00 00	 mov	 eax, 6
  00106	5e		 pop	 esi

; 6159 : }

  00107	5d		 pop	 ebp
  00108	c3		 ret	 0
$LN11@GetLevelIt:

; 6125 : 			}
; 6126 : 
; 6127 : 			return ilevel;
; 6128 : 		}
; 6129 : 
; 6130 : 		return -1;
; 6131 : 	}	
; 6132 : 
; 6133 : 	itemlevel = ItemAttribute[item_num].Level;

  00109	0f b6 c0	 movzx	 eax, al

; 6134 : 	
; 6135 : 	if ( itemlevel >= level - 18 && itemlevel <= level)

  0010c	8d 56 ee	 lea	 edx, DWORD PTR [esi-18]
  0010f	3b c2		 cmp	 eax, edx
  00111	7c 70		 jl	 SHORT $LN6@GetLevelIt
  00113	3b c6		 cmp	 eax, esi
  00115	7f 6c		 jg	 SHORT $LN6@GetLevelIt

; 6136 : 	{
; 6137 : 		if ( type == 15 )

  00117	83 ff 0f	 cmp	 edi, 15			; 0000000fH

; 6138 : 		{
; 6139 : 			return 0;

  0011a	0f 84 45 ff ff
	ff		 je	 $LN27@GetLevelIt

; 6140 : 		}
; 6141 : 
; 6142 : 		itemlevel = (level - itemlevel)/3;

  00120	2b f0		 sub	 esi, eax
  00122	b8 56 55 55 55	 mov	 eax, 1431655766		; 55555556H
  00127	f7 ee		 imul	 esi
  00129	8b c2		 mov	 eax, edx
  0012b	c1 e8 1f	 shr	 eax, 31			; 0000001fH
  0012e	03 c2		 add	 eax, edx

; 6143 : 
; 6144 : 		if ( type == 13 )

  00130	83 ff 0d	 cmp	 edi, 13			; 0000000dH
  00133	75 51		 jne	 SHORT $LN25@GetLevelIt

; 6145 : 		{
; 6146 : 			if ( index == 8 || index == 9 || index == 12 || index == 13 || index == 20 || index == 21 || index == 22 || index == 23 || index == 24 || index == 25 || index == 26 || index == 27 || index == 28 )

  00135	83 f9 08	 cmp	 ecx, 8
  00138	74 3b		 je	 SHORT $LN2@GetLevelIt
  0013a	83 f9 09	 cmp	 ecx, 9
  0013d	74 36		 je	 SHORT $LN2@GetLevelIt
  0013f	83 f9 0c	 cmp	 ecx, 12			; 0000000cH
  00142	74 31		 je	 SHORT $LN2@GetLevelIt
  00144	3b cf		 cmp	 ecx, edi
  00146	74 2d		 je	 SHORT $LN2@GetLevelIt
  00148	83 f9 14	 cmp	 ecx, 20			; 00000014H
  0014b	74 28		 je	 SHORT $LN2@GetLevelIt
  0014d	83 f9 15	 cmp	 ecx, 21			; 00000015H
  00150	74 23		 je	 SHORT $LN2@GetLevelIt
  00152	83 f9 16	 cmp	 ecx, 22			; 00000016H
  00155	74 1e		 je	 SHORT $LN2@GetLevelIt
  00157	83 f9 17	 cmp	 ecx, 23			; 00000017H
  0015a	74 19		 je	 SHORT $LN2@GetLevelIt
  0015c	83 f9 18	 cmp	 ecx, 24			; 00000018H
  0015f	74 14		 je	 SHORT $LN2@GetLevelIt
  00161	83 f9 19	 cmp	 ecx, 25			; 00000019H
  00164	74 0f		 je	 SHORT $LN2@GetLevelIt
  00166	83 f9 1a	 cmp	 ecx, 26			; 0000001aH
  00169	74 0a		 je	 SHORT $LN2@GetLevelIt
  0016b	83 f9 1b	 cmp	 ecx, 27			; 0000001bH
  0016e	74 05		 je	 SHORT $LN2@GetLevelIt
  00170	83 f9 1c	 cmp	 ecx, 28			; 0000001cH
  00173	75 11		 jne	 SHORT $LN25@GetLevelIt
$LN2@GetLevelIt:

; 6147 : 			{
; 6148 : 				if ( itemlevel > 4 )

  00175	83 f8 04	 cmp	 eax, 4
  00178	7e 0c		 jle	 SHORT $LN25@GetLevelIt

; 6149 : 				{
; 6150 : 					itemlevel=4;

  0017a	5f		 pop	 edi
  0017b	b8 04 00 00 00	 mov	 eax, 4
  00180	5e		 pop	 esi

; 6159 : }

  00181	5d		 pop	 ebp
  00182	c3		 ret	 0
$LN6@GetLevelIt:

; 6151 : 				}
; 6152 : 			}
; 6153 : 		}
; 6154 : 
; 6155 : 		return itemlevel;
; 6156 : 		
; 6157 : 	}
; 6158 : 	return -1;

  00183	83 c8 ff	 or	 eax, -1
$LN25@GetLevelIt:
  00186	5f		 pop	 edi
  00187	5e		 pop	 esi

; 6159 : }

  00188	5d		 pop	 ebp
  00189	c3		 ret	 0
?GetLevelItem@@YAHHHH@Z ENDP				; GetLevelItem
_TEXT	ENDS
PUBLIC	?GetSerialItem@@YAHH@Z				; GetSerialItem
; Function compile flags: /Ogtp
;	COMDAT ?GetSerialItem@@YAHH@Z
_TEXT	SEGMENT
_type$ = 8						; size = 4
?GetSerialItem@@YAHH@Z PROC				; GetSerialItem, COMDAT

; 6162 : {

  00000	55		 push	 ebp
  00001	8b ec		 mov	 ebp, esp

; 6163 : 	int item_num = type;
; 6164 : 
; 6165 : 	if ( ItemAttribute[item_num].Level == 0xFF )

  00003	8b 45 08	 mov	 eax, DWORD PTR _type$[ebp]
  00006	6b c0 70	 imul	 eax, 112		; 00000070H
  00009	80 b8 22 00 00
	00 ff		 cmp	 BYTE PTR ?ItemAttribute@@3PAUITEM_ATTRIBUTE@@A[eax+34], 255 ; 000000ffH
  00010	75 05		 jne	 SHORT $LN2@GetSerialI

; 6166 : 	{
; 6167 : 		return -1;

  00012	83 c8 ff	 or	 eax, -1

; 6170 : 	{
; 6171 : 		return 0;
; 6172 : 	}
; 6173 : 	return 1;
; 6174 : }

  00015	5d		 pop	 ebp
  00016	c3		 ret	 0
$LN2@GetSerialI:

; 6168 : 	}
; 6169 : 	if ( ItemAttribute[item_num].Serial  == 0 )

  00017	33 c9		 xor	 ecx, ecx
  00019	38 88 25 00 00
	00		 cmp	 BYTE PTR ?ItemAttribute@@3PAUITEM_ATTRIBUTE@@A[eax+37], cl
  0001f	0f 95 c1	 setne	 cl
  00022	8b c1		 mov	 eax, ecx

; 6170 : 	{
; 6171 : 		return 0;
; 6172 : 	}
; 6173 : 	return 1;
; 6174 : }

  00024	5d		 pop	 ebp
  00025	c3		 ret	 0
?GetSerialItem@@YAHH@Z ENDP				; GetSerialItem
_TEXT	ENDS
PUBLIC	?IsItem@@YAHH@Z					; IsItem
; Function compile flags: /Ogtp
;	COMDAT ?IsItem@@YAHH@Z
_TEXT	SEGMENT
_item_num$ = 8						; size = 4
?IsItem@@YAHH@Z PROC					; IsItem, COMDAT

; 6177 : {

  00000	55		 push	 ebp
  00001	8b ec		 mov	 ebp, esp

; 6178 : 	if ( item_num < 0 || item_num >= MAX_ITEMS )

  00003	8b 45 08	 mov	 eax, DWORD PTR _item_num$[ebp]
  00006	3d ff 1f 00 00	 cmp	 eax, 8191		; 00001fffH
  0000b	77 0c		 ja	 SHORT $LN1@IsItem

; 6181 : 	}
; 6182 : 
; 6183 : 	return ItemAttribute[item_num].HaveItemInfo;

  0000d	6b c0 70	 imul	 eax, 112		; 00000070H
  00010	0f b6 80 20 00
	00 00		 movzx	 eax, BYTE PTR ?ItemAttribute@@3PAUITEM_ATTRIBUTE@@A[eax+32]

; 6184 : }

  00017	5d		 pop	 ebp
  00018	c3		 ret	 0
$LN1@IsItem:

; 6179 : 	{
; 6180 : 		return 0;

  00019	33 c0		 xor	 eax, eax

; 6184 : }

  0001b	5d		 pop	 ebp
  0001c	c3		 ret	 0
?IsItem@@YAHH@Z ENDP					; IsItem
_TEXT	ENDS
PUBLIC	?GetItemAttr@@YAPAUITEM_ATTRIBUTE@@H@Z		; GetItemAttr
; Function compile flags: /Ogtp
;	COMDAT ?GetItemAttr@@YAPAUITEM_ATTRIBUTE@@H@Z
_TEXT	SEGMENT
_item_num$ = 8						; size = 4
?GetItemAttr@@YAPAUITEM_ATTRIBUTE@@H@Z PROC		; GetItemAttr, COMDAT

; 6187 : {

  00000	55		 push	 ebp
  00001	8b ec		 mov	 ebp, esp

; 6188 : 	if ( item_num < 0 || item_num >= MAX_ITEMS )

  00003	8b 45 08	 mov	 eax, DWORD PTR _item_num$[ebp]
  00006	3d ff 1f 00 00	 cmp	 eax, 8191		; 00001fffH
  0000b	77 0a		 ja	 SHORT $LN1@GetItemAtt

; 6191 : 	}
; 6192 : 
; 6193 : 	return &ItemAttribute[item_num];

  0000d	6b c0 70	 imul	 eax, 112		; 00000070H
  00010	05 00 00 00 00	 add	 eax, OFFSET ?ItemAttribute@@3PAUITEM_ATTRIBUTE@@A ; ItemAttribute

; 6194 : }

  00015	5d		 pop	 ebp
  00016	c3		 ret	 0
$LN1@GetItemAtt:

; 6189 : 	{
; 6190 : 		return NULL;

  00017	33 c0		 xor	 eax, eax

; 6194 : }

  00019	5d		 pop	 ebp
  0001a	c3		 ret	 0
?GetItemAttr@@YAPAUITEM_ATTRIBUTE@@H@Z ENDP		; GetItemAttr
_TEXT	ENDS
PUBLIC	__real@3ff0000000000000
PUBLIC	??$_Pow_int@M@@YAMMH@Z				; _Pow_int<float>
;	COMDAT __real@3ff0000000000000
; File d:\program files (x86)\microsoft visual studio 10.0\vc\include\math.h
CONST	SEGMENT
__real@3ff0000000000000 DQ 03ff0000000000000r	; 1
; Function compile flags: /Ogtp
CONST	ENDS
;	COMDAT ??$_Pow_int@M@@YAMMH@Z
_TEXT	SEGMENT
__X$ = 8						; size = 4
tv137 = 12						; size = 4
__Z$186517 = 12						; size = 4
__Y$ = 12						; size = 4
??$_Pow_int@M@@YAMMH@Z PROC				; _Pow_int<float>, COMDAT

; 484  :         {unsigned int _N;

  00000	55		 push	 ebp
  00001	8b ec		 mov	 ebp, esp

; 485  :         if (_Y >= 0)

  00003	8b 4d 0c	 mov	 ecx, DWORD PTR __Y$[ebp]

; 486  :                 _N = (unsigned int)_Y;

  00006	8b c1		 mov	 eax, ecx
  00008	85 c9		 test	 ecx, ecx

; 487  :         else

  0000a	79 02		 jns	 SHORT $LN6@Pow_int

; 488  :                 _N = (unsigned int)(-_Y);

  0000c	f7 d8		 neg	 eax
$LN6@Pow_int:

; 489  :         for (_Ty _Z = _Ty(1); ; _X *= _X)

  0000e	d9 e8		 fld1
  00010	d9 5d 0c	 fstp	 DWORD PTR __Z$186517[ebp]
$LL5@Pow_int:

; 490  :                 {if ((_N & 1) != 0)

  00013	d9 45 08	 fld	 DWORD PTR __X$[ebp]
  00016	a8 01		 test	 al, 1
  00018	74 08		 je	 SHORT $LN2@Pow_int

; 491  :                         _Z *= _X;

  0001a	d9 45 0c	 fld	 DWORD PTR __Z$186517[ebp]
  0001d	d8 c9		 fmul	 ST(0), ST(1)
  0001f	d9 5d 0c	 fstp	 DWORD PTR __Z$186517[ebp]
$LN2@Pow_int:

; 492  :                 if ((_N >>= 1) == 0)

  00022	d1 e8		 shr	 eax, 1
  00024	74 07		 je	 SHORT $LN19@Pow_int

; 489  :         for (_Ty _Z = _Ty(1); ; _X *= _X)

  00026	dc c8		 fmul	 ST(0), ST(0)
  00028	d9 5d 08	 fstp	 DWORD PTR __X$[ebp]
  0002b	eb e6		 jmp	 SHORT $LL5@Pow_int
$LN19@Pow_int:

; 492  :                 if ((_N >>= 1) == 0)

  0002d	dd d8		 fstp	 ST(0)

; 493  :                         return (_Y < 0 ? _Ty(1) / _Z : _Z); }}

  0002f	d9 45 0c	 fld	 DWORD PTR __Z$186517[ebp]
  00032	85 c9		 test	 ecx, ecx
  00034	79 04		 jns	 SHORT $LN11@Pow_int
  00036	d9 e8		 fld1
  00038	de f1		 fdivrp	 ST(1), ST(0)
$LN11@Pow_int:
  0003a	d9 5d 0c	 fstp	 DWORD PTR tv137[ebp]
  0003d	d9 45 0c	 fld	 DWORD PTR tv137[ebp]
  00040	5d		 pop	 ebp
  00041	c3		 ret	 0
??$_Pow_int@M@@YAMMH@Z ENDP				; _Pow_int<float>
_TEXT	ENDS
PUBLIC	??0CItem@@QAE@XZ				; CItem::CItem
; Function compile flags: /Ogtp
; File e:\work\tranet_version\gs\common\zzzitem.cpp
;	COMDAT ??0CItem@@QAE@XZ
_TEXT	SEGMENT
??0CItem@@QAE@XZ PROC					; CItem::CItem, COMDAT
; _this$ = ecx

; 27   : 	this->Clear();

  00000	e8 00 00 00 00	 call	 ?Clear@CItem@@QAEXXZ	; CItem::Clear

; 28   : }

  00005	8b c1		 mov	 eax, ecx
  00007	c3		 ret	 0
??0CItem@@QAE@XZ ENDP					; CItem::CItem
_TEXT	ENDS
PUBLIC	?ItemDamageMin@CItem@@QAEHXZ			; CItem::ItemDamageMin
; Function compile flags: /Ogtp
;	COMDAT ?ItemDamageMin@CItem@@QAEHXZ
_TEXT	SEGMENT
_damagemin$ = -4					; size = 4
?ItemDamageMin@CItem@@QAEHXZ PROC			; CItem::ItemDamageMin, COMDAT
; _this$ = ecx

; 2668 : {

  00000	55		 push	 ebp
  00001	8b ec		 mov	 ebp, esp
  00003	51		 push	 ecx

; 2669 : 	int damagemin;
; 2670 : 	
; 2671 : 	if (this->m_Type < 0)

  00004	66 83 79 06 00	 cmp	 WORD PTR [ecx+6], 0
  00009	7d 06		 jge	 SHORT $LN2@ItemDamage

; 2672 : 	{
; 2673 : 		return 0;

  0000b	33 c0		 xor	 eax, eax

; 2680 : 	}
; 2681 : }

  0000d	8b e5		 mov	 esp, ebp
  0000f	5d		 pop	 ebp
  00010	c3		 ret	 0
$LN2@ItemDamage:

; 2674 : 	}
; 2675 : 	else
; 2676 : 	{
; 2677 : 		damagemin=this->m_DamageMinOrigin;

  00011	0f b7 41 1c	 movzx	 eax, WORD PTR [ecx+28]

; 2678 : 		this->PlusSpecial(&damagemin, 80);

  00015	6a 50		 push	 80			; 00000050H
  00017	8d 55 fc	 lea	 edx, DWORD PTR _damagemin$[ebp]
  0001a	52		 push	 edx
  0001b	89 45 fc	 mov	 DWORD PTR _damagemin$[ebp], eax
  0001e	e8 00 00 00 00	 call	 ?PlusSpecial@CItem@@QAEXPAHH@Z ; CItem::PlusSpecial

; 2679 : 		return damagemin;

  00023	8b 45 fc	 mov	 eax, DWORD PTR _damagemin$[ebp]

; 2680 : 	}
; 2681 : }

  00026	8b e5		 mov	 esp, ebp
  00028	5d		 pop	 ebp
  00029	c3		 ret	 0
?ItemDamageMin@CItem@@QAEHXZ ENDP			; CItem::ItemDamageMin
_TEXT	ENDS
PUBLIC	?ItemDefense@CItem@@QAEHXZ			; CItem::ItemDefense
; Function compile flags: /Ogtp
;	COMDAT ?ItemDefense@CItem@@QAEHXZ
_TEXT	SEGMENT
_Defense$ = -4						; size = 4
?ItemDefense@CItem@@QAEHXZ PROC				; CItem::ItemDefense, COMDAT
; _this$ = ecx

; 2684 : {

  00000	55		 push	 ebp
  00001	8b ec		 mov	 ebp, esp
  00003	51		 push	 ecx

; 2685 : 	int Defense;
; 2686 : 	
; 2687 : 	if (this->m_Type < 0)

  00004	66 83 79 06 00	 cmp	 WORD PTR [ecx+6], 0
  00009	7d 06		 jge	 SHORT $LN4@ItemDefens
$LN7@ItemDefens:

; 2688 : 	{
; 2689 : 		return 0;

  0000b	33 c0		 xor	 eax, eax

; 2702 : 		}
; 2703 : 	}
; 2704 : }

  0000d	8b e5		 mov	 esp, ebp
  0000f	5d		 pop	 ebp
  00010	c3		 ret	 0
$LN4@ItemDefens:

; 2690 : 	}
; 2691 : 	else
; 2692 : 	{
; 2693 : 		if (this->m_IsValidItem == false)

  00011	80 b9 b0 00 00
	00 00		 cmp	 BYTE PTR [ecx+176], 0

; 2694 : 		{
; 2695 : 			return 0;

  00018	74 f1		 je	 SHORT $LN7@ItemDefens

; 2696 : 		}
; 2697 : 		else
; 2698 : 		{
; 2699 : 			Defense=this->m_Defense;

  0001a	0f b7 41 16	 movzx	 eax, WORD PTR [ecx+22]

; 2700 : 			this->PlusSpecial(&Defense, 83);

  0001e	6a 53		 push	 83			; 00000053H
  00020	8d 55 fc	 lea	 edx, DWORD PTR _Defense$[ebp]
  00023	52		 push	 edx
  00024	89 45 fc	 mov	 DWORD PTR _Defense$[ebp], eax
  00027	e8 00 00 00 00	 call	 ?PlusSpecial@CItem@@QAEXPAHH@Z ; CItem::PlusSpecial

; 2701 : 			return Defense;

  0002c	8b 45 fc	 mov	 eax, DWORD PTR _Defense$[ebp]

; 2702 : 		}
; 2703 : 	}
; 2704 : }

  0002f	8b e5		 mov	 esp, ebp
  00031	5d		 pop	 ebp
  00032	c3		 ret	 0
?ItemDefense@CItem@@QAEHXZ ENDP				; CItem::ItemDefense
_TEXT	ENDS
PUBLIC	?pow@@YAMMH@Z					; pow
; Function compile flags: /Ogtp
; File d:\program files (x86)\microsoft visual studio 10.0\vc\include\math.h
;	COMDAT ?pow@@YAMMH@Z
_TEXT	SEGMENT
__X$ = 8						; size = 4
__Y$ = 12						; size = 4
?pow@@YAMMH@Z PROC					; pow, COMDAT

; 536  :         {return (_Pow_int(_X, _Y)); }

  00000	55		 push	 ebp
  00001	8b ec		 mov	 ebp, esp
  00003	8b 45 0c	 mov	 eax, DWORD PTR __Y$[ebp]
  00006	d9 45 08	 fld	 DWORD PTR __X$[ebp]
  00009	50		 push	 eax
  0000a	51		 push	 ecx
  0000b	d9 1c 24	 fstp	 DWORD PTR [esp]
  0000e	e8 00 00 00 00	 call	 ??$_Pow_int@M@@YAMMH@Z	; _Pow_int<float>
  00013	83 c4 08	 add	 esp, 8
  00016	5d		 pop	 ebp
  00017	c3		 ret	 0
?pow@@YAMMH@Z ENDP					; pow
_TEXT	ENDS
PUBLIC	__real@4030000000000000
PUBLIC	__real@4008000000000000
PUBLIC	__real@4049000000000000
PUBLIC	__real@4059000000000000
PUBLIC	__real@3ff8000000000000
PUBLIC	__real@4039000000000000
PUBLIC	__real@404c000000000000
PUBLIC	__real@403c000000000000
PUBLIC	__real@402c000000000000
PUBLIC	__real@4018000000000000
PUBLIC	__real@40000000
PUBLIC	__real@40c3880000000000
PUBLIC	__real@4024000000000000
PUBLIC	?Value@CItem@@QAEXXZ				; CItem::Value
EXTRN	?GetValue@CSocketOption@@QAEHE@Z:PROC		; CSocketOption::GetValue
EXTRN	?Is380OptionItem@CItemSystemFor380@@QAEHPBVCItem@@@Z:PROC ; CItemSystemFor380::Is380OptionItem
EXTRN	?g_kItemSystemFor380@@3VCItemSystemFor380@@A:BYTE ; g_kItemSystemFor380
EXTRN	__alldiv:PROC
EXTRN	__allmul:PROC
EXTRN	__ftol2:PROC
EXTRN	__CIsqrt:PROC
;	COMDAT __real@4030000000000000
CONST	SEGMENT
__real@4030000000000000 DQ 04030000000000000r	; 16
CONST	ENDS
;	COMDAT __real@4008000000000000
CONST	SEGMENT
__real@4008000000000000 DQ 04008000000000000r	; 3
CONST	ENDS
;	COMDAT __real@4049000000000000
CONST	SEGMENT
__real@4049000000000000 DQ 04049000000000000r	; 50
CONST	ENDS
;	COMDAT __real@4059000000000000
CONST	SEGMENT
__real@4059000000000000 DQ 04059000000000000r	; 100
CONST	ENDS
;	COMDAT __real@3ff8000000000000
CONST	SEGMENT
__real@3ff8000000000000 DQ 03ff8000000000000r	; 1.5
CONST	ENDS
;	COMDAT __real@4039000000000000
CONST	SEGMENT
__real@4039000000000000 DQ 04039000000000000r	; 25
CONST	ENDS
;	COMDAT __real@404c000000000000
CONST	SEGMENT
__real@404c000000000000 DQ 0404c000000000000r	; 56
CONST	ENDS
;	COMDAT __real@403c000000000000
CONST	SEGMENT
__real@403c000000000000 DQ 0403c000000000000r	; 28
CONST	ENDS
;	COMDAT __real@402c000000000000
CONST	SEGMENT
__real@402c000000000000 DQ 0402c000000000000r	; 14
CONST	ENDS
;	COMDAT __real@4018000000000000
CONST	SEGMENT
__real@4018000000000000 DQ 04018000000000000r	; 6
CONST	ENDS
;	COMDAT __real@40000000
CONST	SEGMENT
__real@40000000 DD 040000000r			; 2
CONST	ENDS
;	COMDAT __real@40c3880000000000
CONST	SEGMENT
__real@40c3880000000000 DQ 040c3880000000000r	; 10000
CONST	ENDS
;	COMDAT __real@4024000000000000
CONST	SEGMENT
__real@4024000000000000 DQ 04024000000000000r	; 10
; Function compile flags: /Ogtp
; File e:\work\tranet_version\gs\common\zzzitem.cpp
CONST	ENDS
;	COMDAT ?Value@CItem@@QAEXXZ
_TEXT	SEGMENT
tv1514 = -40						; size = 8
_Gold$ = -40						; size = 8
tv1915 = -32						; size = 8
tv1897 = -32						; size = 8
tv1524 = -28						; size = 4
tv1516 = -28						; size = 4
tv1404 = -28						; size = 4
_Level$ = -28						; size = 4
tv2118 = -24						; size = 4
tv2105 = -24						; size = 4
tv1406 = -24						; size = 4
tv937 = -24						; size = 4
tv894 = -24						; size = 4
tv456 = -24						; size = 4
_Type$ = -24						; size = 4
_excellent$ = -20					; size = 4
tv630 = -16						; size = 4
_loc17$213305 = -16					; size = 4
tv2575 = -12						; size = 4
_p$ = -12						; size = 4
tv1473 = -8						; size = 4
_loc15$213303 = -8					; size = 4
_lc11$212964 = -8					; size = 4
_lc10$212954 = -8					; size = 4
_this$ = -4						; size = 4
tv1519 = -2						; size = 2
?Value@CItem@@QAEXXZ PROC				; CItem::Value, COMDAT
; _this$ = ecx

; 1738 : {

  00000	55		 push	 ebp
  00001	8b ec		 mov	 ebp, esp
  00003	83 ec 28	 sub	 esp, 40			; 00000028H
  00006	53		 push	 ebx

; 1739 : 	if ( this->m_Type == -1 )

  00007	0f b7 59 06	 movzx	 ebx, WORD PTR [ecx+6]
  0000b	89 4d fc	 mov	 DWORD PTR _this$[ebp], ecx
  0000e	66 83 fb ff	 cmp	 bx, -1
  00012	0f 84 80 12 00
	00		 je	 $LN1@Value

; 1740 : 	{
; 1741 : 		return;
; 1742 : 	}
; 1743 : 
; 1744 : 	LPITEM_ATTRIBUTE p = &ItemAttribute[this->m_Type];

  00018	0f bf c3	 movsx	 eax, bx
  0001b	6b c0 70	 imul	 eax, 112		; 00000070H
  0001e	05 00 00 00 00	 add	 eax, OFFSET ?ItemAttribute@@3PAUITEM_ATTRIBUTE@@A ; ItemAttribute

; 1745 : 
; 1746 : 	if ( p->BuyMoney != 0 )

  00023	8b 50 50	 mov	 edx, DWORD PTR [eax+80]
  00026	89 45 f4	 mov	 DWORD PTR _p$[ebp], eax
  00029	85 d2		 test	 edx, edx
  0002b	0f 84 83 00 00
	00		 je	 $LN309@Value

; 1747 : 	{
; 1748 : 		this->m_SellMoney = p->BuyMoney;

  00031	89 51 6c	 mov	 DWORD PTR [ecx+108], edx

; 1749 : 		this->m_BuyMoney = p->BuyMoney;

  00034	8b 40 50	 mov	 eax, DWORD PTR [eax+80]
  00037	89 41 70	 mov	 DWORD PTR [ecx+112], eax

; 1750 : 		this->m_SellMoney /= 3;

  0003a	b8 ab aa aa aa	 mov	 eax, -1431655765	; aaaaaaabH
  0003f	f7 e2		 mul	 edx
  00041	d1 ea		 shr	 edx, 1
  00043	89 51 6c	 mov	 DWORD PTR [ecx+108], edx

; 1751 : 		
; 1752 : 		if ( this->m_SellMoney >= 1000 )

  00046	81 fa e8 03 00
	00		 cmp	 edx, 1000		; 000003e8H
  0004c	72 0f		 jb	 SHORT $LN308@Value

; 1753 : 		{
; 1754 : 			this->m_SellMoney = this->m_SellMoney/100*100;

  0004e	b8 1f 85 eb 51	 mov	 eax, 1374389535		; 51eb851fH
  00053	f7 e2		 mul	 edx
  00055	c1 ea 05	 shr	 edx, 5
  00058	6b d2 64	 imul	 edx, 100		; 00000064H
  0005b	eb 14		 jmp	 SHORT $LN665@Value
$LN308@Value:

; 1755 : 		}
; 1756 : 		else if ( this->m_SellMoney >= 100 )

  0005d	83 fa 64	 cmp	 edx, 100		; 00000064H
  00060	72 12		 jb	 SHORT $LN306@Value

; 1757 : 		{
; 1758 : 			this->m_SellMoney = this->m_SellMoney/10*10;

  00062	b8 cd cc cc cc	 mov	 eax, -858993459		; cccccccdH
  00067	f7 e2		 mul	 edx
  00069	c1 ea 03	 shr	 edx, 3
  0006c	8d 14 92	 lea	 edx, DWORD PTR [edx+edx*4]
  0006f	03 d2		 add	 edx, edx
$LN665@Value:
  00071	89 51 6c	 mov	 DWORD PTR [ecx+108], edx
$LN306@Value:

; 1759 : 		}
; 1760 : 
; 1761 : 		if ( this->m_BuyMoney >= 1000 )

  00074	8b 51 70	 mov	 edx, DWORD PTR [ecx+112]
  00077	81 fa e8 03 00
	00		 cmp	 edx, 1000		; 000003e8H
  0007d	72 15		 jb	 SHORT $LN305@Value

; 1762 : 		{
; 1763 : 			this->m_BuyMoney = this->m_BuyMoney/100*100;

  0007f	b8 1f 85 eb 51	 mov	 eax, 1374389535		; 51eb851fH
  00084	f7 e2		 mul	 edx
  00086	c1 ea 05	 shr	 edx, 5
  00089	6b d2 64	 imul	 edx, 100		; 00000064H
  0008c	89 51 70	 mov	 DWORD PTR [ecx+112], edx
  0008f	5b		 pop	 ebx

; 2590 : 	}
; 2591 : }

  00090	8b e5		 mov	 esp, ebp
  00092	5d		 pop	 ebp
  00093	c3		 ret	 0
$LN305@Value:

; 1764 : 		}
; 1765 : 		else if ( this->m_BuyMoney >= 100 )

  00094	83 fa 64	 cmp	 edx, 100		; 00000064H
  00097	0f 82 fb 11 00
	00		 jb	 $LN1@Value

; 1766 : 		{
; 1767 : 			this->m_BuyMoney = this->m_BuyMoney/10*10;

  0009d	b8 cd cc cc cc	 mov	 eax, -858993459		; cccccccdH
  000a2	f7 e2		 mul	 edx
  000a4	c1 ea 03	 shr	 edx, 3
  000a7	8d 04 92	 lea	 eax, DWORD PTR [edx+edx*4]
  000aa	03 c0		 add	 eax, eax
  000ac	89 41 70	 mov	 DWORD PTR [ecx+112], eax
  000af	5b		 pop	 ebx

; 2590 : 	}
; 2591 : }

  000b0	8b e5		 mov	 esp, ebp
  000b2	5d		 pop	 ebp
  000b3	c3		 ret	 0
$LN309@Value:

; 1768 : 		}
; 1769 : 
; 1770 : 		return;
; 1771 : 	}
; 1772 : 
; 1773 : 	int Level = (int)(sqrt((double)this->m_Level));

  000b4	0f b7 41 08	 movzx	 eax, WORD PTR [ecx+8]
  000b8	0f bf d0	 movsx	 edx, ax
  000bb	89 55 f8	 mov	 DWORD PTR tv1473[ebp], edx
  000be	56		 push	 esi
  000bf	57		 push	 edi
  000c0	db 45 f8	 fild	 DWORD PTR tv1473[ebp]
  000c3	e8 00 00 00 00	 call	 __CIsqrt
  000c8	e8 00 00 00 00	 call	 __ftol2_sse
  000cd	89 45 e4	 mov	 DWORD PTR _Level$[ebp], eax

; 1774 : 	__int64 Gold = 0;
; 1775 : 	int Type = (this->m_Type)/MAX_SUBTYPE_ITEMS;

  000d0	0f bf c3	 movsx	 eax, bx
  000d3	99		 cdq
  000d4	81 e2 ff 01 00
	00		 and	 edx, 511		; 000001ffH
  000da	8d 0c 02	 lea	 ecx, DWORD PTR [edx+eax]

; 1776 : 	int Level2 = p->Level + this->m_Level*3;

  000dd	8b 45 f4	 mov	 eax, DWORD PTR _p$[ebp]
  000e0	0f b6 50 22	 movzx	 edx, BYTE PTR [eax+34]
  000e4	8b 45 f8	 mov	 eax, DWORD PTR tv1473[ebp]
  000e7	8d 04 40	 lea	 eax, DWORD PTR [eax+eax*2]
  000ea	03 d0		 add	 edx, eax

; 1777 : 	int excellent = 0;
; 1778 : 
; 1779 : 	for (int i=0;i<this->m_SpecialNum;i++)

  000ec	8b 45 fc	 mov	 eax, DWORD PTR _this$[ebp]
  000ef	0f b6 40 30	 movzx	 eax, BYTE PTR [eax+48]
  000f3	33 f6		 xor	 esi, esi
  000f5	33 ff		 xor	 edi, edi
  000f7	c1 f9 09	 sar	 ecx, 9
  000fa	89 75 d8	 mov	 DWORD PTR _Gold$[ebp], esi
  000fd	89 7d dc	 mov	 DWORD PTR _Gold$[ebp+4], edi
  00100	89 4d e8	 mov	 DWORD PTR _Type$[ebp], ecx
  00103	89 75 ec	 mov	 DWORD PTR _excellent$[ebp], esi
  00106	85 c0		 test	 eax, eax
  00108	7e 32		 jle	 SHORT $LN296@Value

; 1768 : 		}
; 1769 : 
; 1770 : 		return;
; 1771 : 	}
; 1772 : 
; 1773 : 	int Level = (int)(sqrt((double)this->m_Level));

  0010a	8b 4d fc	 mov	 ecx, DWORD PTR _this$[ebp]
  0010d	8d 41 32	 lea	 eax, DWORD PTR [ecx+50]
  00110	0f b6 49 30	 movzx	 ecx, BYTE PTR [ecx+48]
  00114	89 4d f0	 mov	 DWORD PTR tv630[ebp], ecx
$LL302@Value:

; 1780 : 	{
; 1781 : 		switch ( this->m_Special[i] )

  00117	0f b7 08	 movzx	 ecx, WORD PTR [eax]
  0011a	83 c1 aa	 add	 ecx, -86		; ffffffaaH
  0011d	83 f9 0d	 cmp	 ecx, 13			; 0000000dH
  00120	77 07		 ja	 SHORT $LN301@Value

; 1782 : 		{
; 1783 : 			case 0x56:	// 86.
; 1784 : 			case 0x57:
; 1785 : 			case 0x58:
; 1786 : 			case 0x59:
; 1787 : 			case 0x5A:
; 1788 : 			case 0x5B:
; 1789 : 			case 0x5C:
; 1790 : 			case 0x5D:
; 1791 : 			case 0x5E:
; 1792 : 			case 0x5F:
; 1793 : 			case 0x60:
; 1794 : 			case 0x61:
; 1795 : 			case 0x62:
; 1796 : 			case 0x63:	// 99.
; 1797 : 				excellent = 1;

  00122	c7 45 ec 01 00
	00 00		 mov	 DWORD PTR _excellent$[ebp], 1
$LN301@Value:

; 1777 : 	int excellent = 0;
; 1778 : 
; 1779 : 	for (int i=0;i<this->m_SpecialNum;i++)

  00129	83 c0 02	 add	 eax, 2
  0012c	ff 4d f0	 dec	 DWORD PTR tv630[ebp]
  0012f	75 e6		 jne	 SHORT $LL302@Value

; 1798 : 		}
; 1799 : 	}
; 1800 : 
; 1801 : 	if ( excellent != 0 )
; 1802 : 	{
; 1803 : 		Level2 += 25;

  00131	8b 4d e8	 mov	 ecx, DWORD PTR _Type$[ebp]
  00134	39 75 ec	 cmp	 DWORD PTR _excellent$[ebp], esi
  00137	74 03		 je	 SHORT $LN296@Value
  00139	83 c2 19	 add	 edx, 25			; 00000019H
$LN296@Value:

; 1804 : 	}
; 1805 : 
; 1806 : 	if ( this->m_Type == ITEMGET(4,15) ) // Arrow

  0013c	dd 05 00 00 00
	00		 fld	 QWORD PTR __real@4024000000000000
  00142	b8 0f 08 00 00	 mov	 eax, 2063		; 0000080fH
  00147	66 3b d8	 cmp	 bx, ax
  0014a	75 74		 jne	 SHORT $LN295@Value

; 1807 : 	{
; 1808 : 		int lc10 = 70;
; 1809 : 
; 1810 : 		if ( this->m_Level == 1 )

  0014c	8b 4d fc	 mov	 ecx, DWORD PTR _this$[ebp]
  0014f	dd d8		 fstp	 ST(0)
  00151	0f b7 41 08	 movzx	 eax, WORD PTR [ecx+8]
  00155	c7 45 f8 46 00
	00 00		 mov	 DWORD PTR _lc10$212954[ebp], 70 ; 00000046H
  0015c	66 83 f8 01	 cmp	 ax, 1
  00160	75 09		 jne	 SHORT $LN294@Value

; 1811 : 		{
; 1812 : 			lc10 = 1200;

  00162	c7 45 f8 b0 04
	00 00		 mov	 DWORD PTR _lc10$212954[ebp], 1200 ; 000004b0H
  00169	eb 1c		 jmp	 SHORT $LN290@Value
$LN294@Value:

; 1813 : 		}
; 1814 : 		else if ( this->m_Level == 2 )

  0016b	66 83 f8 02	 cmp	 ax, 2
  0016f	75 09		 jne	 SHORT $LN292@Value

; 1815 : 		{
; 1816 : 			lc10 = 2000;

  00171	c7 45 f8 d0 07
	00 00		 mov	 DWORD PTR _lc10$212954[ebp], 2000 ; 000007d0H
  00178	eb 0d		 jmp	 SHORT $LN290@Value
$LN292@Value:

; 1817 : 		}
; 1818 : 		else if ( this->m_Level == 3 ) //season 4 add-on

  0017a	66 83 f8 03	 cmp	 ax, 3
  0017e	75 07		 jne	 SHORT $LN290@Value

; 1819 : 		{
; 1820 : 			lc10 = 2800;

  00180	c7 45 f8 f0 0a
	00 00		 mov	 DWORD PTR _lc10$212954[ebp], 2800 ; 00000af0H
$LN290@Value:

; 1821 : 		}
; 1822 : 
; 1823 : 		if ( this->m_Durability > 0.0f )

  00187	d9 ee		 fldz
  00189	d8 59 24	 fcomp	 DWORD PTR [ecx+36]
  0018c	df e0		 fnstsw	 ax
  0018e	f6 c4 05	 test	 ah, 5
  00191	0f 8a a1 0f 00
	00		 jp	 $LN148@Value

; 1824 : 		{
; 1825 : 			Gold = (__int64)(lc10 * this->m_Durability/p->Durability);

  00197	8b 55 f4	 mov	 edx, DWORD PTR _p$[ebp]
  0019a	db 45 f8	 fild	 DWORD PTR _lc10$212954[ebp]
  0019d	0f b6 42 30	 movzx	 eax, BYTE PTR [edx+48]
  001a1	89 45 e8	 mov	 DWORD PTR tv2118[ebp], eax
  001a4	d8 49 24	 fmul	 DWORD PTR [ecx+36]
  001a7	db 45 e8	 fild	 DWORD PTR tv2118[ebp]
  001aa	de f9		 fdivp	 ST(1), ST(0)
  001ac	e8 00 00 00 00	 call	 __ftol2

; 2346 : 	{
; 2347 : 		Gold = (int)this->m_Durability * 300;

  001b1	8b f0		 mov	 esi, eax
  001b3	8b fa		 mov	 edi, edx
  001b5	89 75 d8	 mov	 DWORD PTR _Gold$[ebp], esi
  001b8	89 7d dc	 mov	 DWORD PTR _Gold$[ebp+4], edi

; 2348 : 	}
; 2349 : 	else

  001bb	e9 78 0f 00 00	 jmp	 $LN148@Value
$LN295@Value:

; 1826 : 		}
; 1827 : 	}
; 1828 : 	else if ( this->m_Type == ITEMGET(4,7) ) // Arrow of Crossbow

  001c0	b8 07 08 00 00	 mov	 eax, 2055		; 00000807H
  001c5	66 3b d8	 cmp	 bx, ax
  001c8	75 78		 jne	 SHORT $LN287@Value

; 1829 : 	{
; 1830 : 		int lc11;
; 1831 : 
; 1832 : 		if ( this->m_Durability > 0.0f )

  001ca	8b 4d fc	 mov	 ecx, DWORD PTR _this$[ebp]
  001cd	dd d8		 fstp	 ST(0)
  001cf	d9 ee		 fldz
  001d1	d8 59 24	 fcomp	 DWORD PTR [ecx+36]
  001d4	df e0		 fnstsw	 ax
  001d6	f6 c4 05	 test	 ah, 5
  001d9	0f 8a 59 0f 00
	00		 jp	 $LN148@Value

; 1833 : 		{
; 1834 : 			lc11 = 100;
; 1835 : 
; 1836 : 			if ( this->m_Level == 1 )

  001df	8b d1		 mov	 edx, ecx
  001e1	0f b7 42 08	 movzx	 eax, WORD PTR [edx+8]
  001e5	c7 45 f8 64 00
	00 00		 mov	 DWORD PTR _lc11$212964[ebp], 100 ; 00000064H
  001ec	66 83 f8 01	 cmp	 ax, 1
  001f0	75 09		 jne	 SHORT $LN285@Value

; 1837 : 			{
; 1838 : 				lc11 = 1400;

  001f2	c7 45 f8 78 05
	00 00		 mov	 DWORD PTR _lc11$212964[ebp], 1400 ; 00000578H
  001f9	eb 1c		 jmp	 SHORT $LN281@Value
$LN285@Value:

; 1839 : 			}
; 1840 : 			else if ( this->m_Level == 2 )

  001fb	66 83 f8 02	 cmp	 ax, 2
  001ff	75 09		 jne	 SHORT $LN283@Value

; 1841 : 			{
; 1842 : 				lc11 = 2200;

  00201	c7 45 f8 98 08
	00 00		 mov	 DWORD PTR _lc11$212964[ebp], 2200 ; 00000898H
  00208	eb 0d		 jmp	 SHORT $LN281@Value
$LN283@Value:

; 1843 : 			}
; 1844 : 			else if ( this->m_Level == 3 ) //season4 add-on

  0020a	66 83 f8 03	 cmp	 ax, 3
  0020e	75 07		 jne	 SHORT $LN281@Value

; 1845 : 			{
; 1846 : 				lc11 = 3000;

  00210	c7 45 f8 b8 0b
	00 00		 mov	 DWORD PTR _lc11$212964[ebp], 3000 ; 00000bb8H
$LN281@Value:

; 1847 : 			}
; 1848 : 		
; 1849 : 			Gold = (__int64)(lc11 * this->m_Durability/p->Durability);

  00217	db 45 f8	 fild	 DWORD PTR _lc11$212964[ebp]
  0021a	8b c1		 mov	 eax, ecx
  0021c	8b 4d f4	 mov	 ecx, DWORD PTR _p$[ebp]
  0021f	0f b6 51 30	 movzx	 edx, BYTE PTR [ecx+48]
  00223	d8 48 24	 fmul	 DWORD PTR [eax+36]
  00226	89 55 e8	 mov	 DWORD PTR tv2105[ebp], edx
  00229	db 45 e8	 fild	 DWORD PTR tv2105[ebp]
  0022c	de f9		 fdivp	 ST(1), ST(0)
  0022e	e8 00 00 00 00	 call	 __ftol2

; 2346 : 	{
; 2347 : 		Gold = (int)this->m_Durability * 300;

  00233	8b f0		 mov	 esi, eax
  00235	8b fa		 mov	 edi, edx
  00237	89 75 d8	 mov	 DWORD PTR _Gold$[ebp], esi
  0023a	89 7d dc	 mov	 DWORD PTR _Gold$[ebp+4], edi

; 2348 : 	}
; 2349 : 	else

  0023d	e9 f6 0e 00 00	 jmp	 $LN148@Value
$LN287@Value:

; 1850 : 		}
; 1851 : 	}
; 1852 : 	else if ( this->m_Type == ITEMGET(14,13) ) // Bless

  00242	b8 0d 1c 00 00	 mov	 eax, 7181		; 00001c0dH
  00247	66 3b d8	 cmp	 bx, ax
  0024a	75 0a		 jne	 SHORT $LN279@Value

; 1853 : 	{
; 1854 : 		Gold = 9000000;

  0024c	be 40 54 89 00	 mov	 esi, 9000000		; 00895440H
  00251	e9 d8 0e 00 00	 jmp	 $LN670@Value
$LN279@Value:

; 1855 : 	}
; 1856 : 	else if ( this->m_Type == ITEMGET(14,14) ) // soul

  00256	b8 0e 1c 00 00	 mov	 eax, 7182		; 00001c0eH
  0025b	66 3b d8	 cmp	 bx, ax
  0025e	75 0a		 jne	 SHORT $LN277@Value

; 1857 : 	{
; 1858 : 		Gold = 6000000;

  00260	be 80 8d 5b 00	 mov	 esi, 6000000		; 005b8d80H
  00265	e9 c4 0e 00 00	 jmp	 $LN670@Value
$LN277@Value:

; 1859 : 	}
; 1860 : 	else if ( this->m_Type == ITEMGET(12,15) ) // chaos

  0026a	b8 0f 18 00 00	 mov	 eax, 6159		; 0000180fH
  0026f	66 3b d8	 cmp	 bx, ax
  00272	75 0a		 jne	 SHORT $LN275@Value

; 1861 : 	{
; 1862 : 		Gold = 810000;

  00274	be 10 5c 0c 00	 mov	 esi, 810000		; 000c5c10H
  00279	e9 b0 0e 00 00	 jmp	 $LN670@Value
$LN275@Value:

; 1863 : 	}
; 1864 : 	else if ( this->m_Type == ITEMGET(14,16) ) // Life

  0027e	b8 10 1c 00 00	 mov	 eax, 7184		; 00001c10H
  00283	66 3b d8	 cmp	 bx, ax
  00286	75 0a		 jne	 SHORT $LN273@Value

; 1865 : 	{
; 1866 : 		Gold = 45000000;

  00288	be 40 a5 ae 02	 mov	 esi, 45000000		; 02aea540H
  0028d	e9 9c 0e 00 00	 jmp	 $LN670@Value
$LN273@Value:

; 1867 : 	}
; 1868 : 	else if ( this->m_Type == ITEMGET(14,22) ) // Creation

  00292	b8 16 1c 00 00	 mov	 eax, 7190		; 00001c16H
  00297	66 3b d8	 cmp	 bx, ax
  0029a	75 0a		 jne	 SHORT $LN271@Value

; 1869 : 	{
; 1870 : 		Gold = 36000000;

  0029c	be 00 51 25 02	 mov	 esi, 36000000		; 02255100H
  002a1	e9 88 0e 00 00	 jmp	 $LN670@Value
$LN271@Value:

; 1871 : 	}
; 1872 : 	else if ( this->m_Type == ITEMGET(12,30) ) //Pack Of Bless

  002a6	b8 1e 18 00 00	 mov	 eax, 6174		; 0000181eH
  002ab	66 3b d8	 cmp	 bx, ax
  002ae	75 14		 jne	 SHORT $LN269@Value

; 1873 : 	{
; 1874 : 		Gold = (this->m_Level+1)*9000000*10;

  002b0	8b 45 f8	 mov	 eax, DWORD PTR tv1473[ebp]
  002b3	40		 inc	 eax
  002b4	69 c0 80 4a 5d
	05		 imul	 eax, 90000000		; 055d4a80H
  002ba	99		 cdq
  002bb	8b f0		 mov	 esi, eax
  002bd	8b fa		 mov	 edi, edx
  002bf	e9 6c 0e 00 00	 jmp	 $LN679@Value
$LN269@Value:

; 1875 : 	}
; 1876 : 	else if ( this->m_Type == ITEMGET(12,31) ) //Pack Of Soul

  002c4	b8 1f 18 00 00	 mov	 eax, 6175		; 0000181fH
  002c9	66 3b d8	 cmp	 bx, ax
  002cc	75 14		 jne	 SHORT $LN267@Value

; 1877 : 	{
; 1878 : 		Gold = (this->m_Level+1)*6000000*10;

  002ce	8b 45 f8	 mov	 eax, DWORD PTR tv1473[ebp]
  002d1	40		 inc	 eax
  002d2	69 c0 00 87 93
	03		 imul	 eax, 60000000		; 03938700H
  002d8	99		 cdq
  002d9	8b f0		 mov	 esi, eax
  002db	8b fa		 mov	 edi, edx
  002dd	e9 4e 0e 00 00	 jmp	 $LN679@Value
$LN267@Value:

; 1879 : 	}
; 1880 : 	else if ( this->m_Type == ITEMGET(13,15) ) //Fruits

  002e2	b8 0f 1a 00 00	 mov	 eax, 6671		; 00001a0fH
  002e7	66 3b d8	 cmp	 bx, ax
  002ea	75 0a		 jne	 SHORT $LN265@Value

; 1881 : 	{
; 1882 : 		Gold = 33000000;

  002ec	be 40 8a f7 01	 mov	 esi, 33000000		; 01f78a40H
  002f1	e9 38 0e 00 00	 jmp	 $LN670@Value
$LN265@Value:

; 1883 : 	}
; 1884 : 	else if ( this->m_Type == ITEMGET(13,14) ) //Loch Feather

  002f6	b8 0e 1a 00 00	 mov	 eax, 6670		; 00001a0eH
  002fb	66 3b d8	 cmp	 bx, ax
  002fe	75 2b		 jne	 SHORT $LN263@Value

; 1885 : 	{
; 1886 : 		if ( this->m_Level == 1 )

  00300	8b 4d fc	 mov	 ecx, DWORD PTR _this$[ebp]
  00303	dd d8		 fstp	 ST(0)

; 1887 : 		{
; 1888 : 			Gold = 7500000;	// Crest ofMonarch

  00305	33 ff		 xor	 edi, edi
  00307	66 83 79 08 01	 cmp	 WORD PTR [ecx+8], 1
  0030c	89 7d dc	 mov	 DWORD PTR _Gold$[ebp+4], edi
  0030f	75 0d		 jne	 SHORT $LN262@Value
  00311	be e0 70 72 00	 mov	 esi, 7500000		; 007270e0H
  00316	89 75 d8	 mov	 DWORD PTR _Gold$[ebp], esi

; 1889 : 		}
; 1890 : 		else

  00319	e9 1a 0e 00 00	 jmp	 $LN148@Value
$LN262@Value:

; 1891 : 		{
; 1892 : 			Gold = 180000;	// Blue Feather

  0031e	be 20 bf 02 00	 mov	 esi, 180000		; 0002bf20H
  00323	89 75 d8	 mov	 DWORD PTR _Gold$[ebp], esi

; 1893 : 		}

  00326	e9 0d 0e 00 00	 jmp	 $LN148@Value
$LN263@Value:

; 1894 : 	}
; 1895 : 	else if ( this->m_Type == ITEMGET(14,31) ) // Jewel of Guardian

  0032b	b8 1f 1c 00 00	 mov	 eax, 7199		; 00001c1fH
  00330	66 3b d8	 cmp	 bx, ax
  00333	75 0a		 jne	 SHORT $LN259@Value

; 1896 : 	{
; 1897 : 		Gold = 60000000;

  00335	be 00 87 93 03	 mov	 esi, 60000000		; 03938700H
  0033a	e9 ef 0d 00 00	 jmp	 $LN670@Value
$LN259@Value:

; 1898 : 	}
; 1899 : 	else if ( this->m_Type == ITEMGET(14,7) ) // Siege Potion

  0033f	b8 07 1c 00 00	 mov	 eax, 7175		; 00001c07H
  00344	66 3b d8	 cmp	 bx, ax
  00347	75 58		 jne	 SHORT $LN257@Value

; 1900 : 	{
; 1901 : 		if ( this->m_Level == 0 )

  00349	8b 4d fc	 mov	 ecx, DWORD PTR _this$[ebp]
  0034c	dd d8		 fstp	 ST(0)
  0034e	0f b7 41 08	 movzx	 eax, WORD PTR [ecx+8]
  00352	66 85 c0	 test	 ax, ax
  00355	75 20		 jne	 SHORT $LN256@Value

; 1902 : 		{
; 1903 : 			Gold = (int)(this->m_Durability) * 900000;

  00357	8b d1		 mov	 edx, ecx
  00359	d9 42 24	 fld	 DWORD PTR [edx+36]
  0035c	e8 00 00 00 00	 call	 __ftol2_sse
  00361	69 c0 a0 bb 0d
	00		 imul	 eax, 900000		; 000dbba0H

; 2346 : 	{
; 2347 : 		Gold = (int)this->m_Durability * 300;

  00367	99		 cdq
  00368	8b f0		 mov	 esi, eax
  0036a	8b fa		 mov	 edi, edx
  0036c	89 75 d8	 mov	 DWORD PTR _Gold$[ebp], esi
  0036f	89 7d dc	 mov	 DWORD PTR _Gold$[ebp+4], edi

; 2348 : 	}
; 2349 : 	else

  00372	e9 c1 0d 00 00	 jmp	 $LN148@Value
$LN256@Value:

; 1904 : 		}
; 1905 : 		else if ( this->m_Level == 1 )

  00377	66 83 f8 01	 cmp	 ax, 1
  0037b	0f 85 b7 0d 00
	00		 jne	 $LN148@Value

; 1906 : 		{
; 1907 : 			Gold = (int)(this->m_Durability) * 450000;

  00381	8b c1		 mov	 eax, ecx
  00383	d9 40 24	 fld	 DWORD PTR [eax+36]
  00386	e8 00 00 00 00	 call	 __ftol2_sse
  0038b	69 c0 d0 dd 06
	00		 imul	 eax, 450000		; 0006ddd0H

; 2346 : 	{
; 2347 : 		Gold = (int)this->m_Durability * 300;

  00391	99		 cdq
  00392	8b f0		 mov	 esi, eax
  00394	8b fa		 mov	 edi, edx
  00396	89 75 d8	 mov	 DWORD PTR _Gold$[ebp], esi
  00399	89 7d dc	 mov	 DWORD PTR _Gold$[ebp+4], edi

; 2348 : 	}
; 2349 : 	else

  0039c	e9 97 0d 00 00	 jmp	 $LN148@Value
$LN257@Value:

; 1908 : 		}
; 1909 : 	}
; 1910 : 	else if ( this->m_Type == ITEMGET(13,11) ) // Order(Guardian/Life Stone)

  003a1	b8 0b 1a 00 00	 mov	 eax, 6667		; 00001a0bH
  003a6	66 3b d8	 cmp	 bx, ax
  003a9	75 22		 jne	 SHORT $LN252@Value

; 1911 : 	{
; 1912 : 		if ( this->m_Level == 1 )

  003ab	8b 4d fc	 mov	 ecx, DWORD PTR _this$[ebp]
  003ae	dd d8		 fstp	 ST(0)
  003b0	66 83 79 08 01	 cmp	 WORD PTR [ecx+8], 1
  003b5	0f 85 7d 0d 00
	00		 jne	 $LN148@Value

; 1913 : 		{
; 1914 : 			Gold = 2400000;

  003bb	be 00 9f 24 00	 mov	 esi, 2400000		; 00249f00H
  003c0	33 ff		 xor	 edi, edi

; 2346 : 	{
; 2347 : 		Gold = (int)this->m_Durability * 300;

  003c2	89 75 d8	 mov	 DWORD PTR _Gold$[ebp], esi
  003c5	89 7d dc	 mov	 DWORD PTR _Gold$[ebp+4], edi

; 2348 : 	}
; 2349 : 	else

  003c8	e9 6b 0d 00 00	 jmp	 $LN148@Value
$LN252@Value:

; 1915 : 		}
; 1916 : 	}
; 1917 : 	else if ( this->m_Type == ITEMGET(13,7) ) // Contract(Summon)

  003cd	b8 07 1a 00 00	 mov	 eax, 6663		; 00001a07H
  003d2	66 3b d8	 cmp	 bx, ax
  003d5	75 3c		 jne	 SHORT $LN249@Value

; 1918 : 	{
; 1919 : 		if ( this->m_Level == 0 )

  003d7	8b 4d fc	 mov	 ecx, DWORD PTR _this$[ebp]
  003da	dd d8		 fstp	 ST(0)
  003dc	0f b7 41 08	 movzx	 eax, WORD PTR [ecx+8]
  003e0	66 85 c0	 test	 ax, ax
  003e3	75 12		 jne	 SHORT $LN248@Value

; 1920 : 		{
; 1921 : 			Gold = 1500000;

  003e5	be 60 e3 16 00	 mov	 esi, 1500000		; 0016e360H
  003ea	33 ff		 xor	 edi, edi

; 2346 : 	{
; 2347 : 		Gold = (int)this->m_Durability * 300;

  003ec	89 75 d8	 mov	 DWORD PTR _Gold$[ebp], esi
  003ef	89 7d dc	 mov	 DWORD PTR _Gold$[ebp+4], edi

; 2348 : 	}
; 2349 : 	else

  003f2	e9 41 0d 00 00	 jmp	 $LN148@Value
$LN248@Value:

; 1922 : 		}
; 1923 : 		else if ( this->m_Level == 1 )

  003f7	66 83 f8 01	 cmp	 ax, 1
  003fb	0f 85 37 0d 00
	00		 jne	 $LN148@Value
$LN140@Value:

; 1924 : 		{
; 1925 : 			Gold = 1200000;

  00401	be 80 4f 12 00	 mov	 esi, 1200000		; 00124f80H
  00406	33 ff		 xor	 edi, edi

; 2346 : 	{
; 2347 : 		Gold = (int)this->m_Durability * 300;

  00408	89 75 d8	 mov	 DWORD PTR _Gold$[ebp], esi
  0040b	89 7d dc	 mov	 DWORD PTR _Gold$[ebp+4], edi

; 2348 : 	}
; 2349 : 	else

  0040e	e9 25 0d 00 00	 jmp	 $LN148@Value
$LN249@Value:

; 1926 : 		}
; 1927 : 	}
; 1928 : 	else if ( this->m_Type == ITEMGET(13,32) ) 

  00413	b8 20 1a 00 00	 mov	 eax, 6688		; 00001a20H
  00418	66 3b d8	 cmp	 bx, ax
  0041b	75 23		 jne	 SHORT $LN244@Value

; 1929 : 	{
; 1930 : 		Gold = (int)this->m_Durability * 150;

  0041d	8b 4d fc	 mov	 ecx, DWORD PTR _this$[ebp]
  00420	dd d8		 fstp	 ST(0)
  00422	d9 41 24	 fld	 DWORD PTR [ecx+36]
  00425	e8 00 00 00 00	 call	 __ftol2_sse
  0042a	69 c0 96 00 00
	00		 imul	 eax, 150		; 00000096H

; 2346 : 	{
; 2347 : 		Gold = (int)this->m_Durability * 300;

  00430	99		 cdq
  00431	8b f0		 mov	 esi, eax
  00433	8b fa		 mov	 edi, edx
  00435	89 75 d8	 mov	 DWORD PTR _Gold$[ebp], esi
  00438	89 7d dc	 mov	 DWORD PTR _Gold$[ebp+4], edi

; 2348 : 	}
; 2349 : 	else

  0043b	e9 f8 0c 00 00	 jmp	 $LN148@Value
$LN244@Value:

; 1931 : 	}
; 1932 : 	else if ( this->m_Type == ITEMGET(13,33) ) 

  00440	b8 21 1a 00 00	 mov	 eax, 6689		; 00001a21H
  00445	66 3b d8	 cmp	 bx, ax
  00448	75 0d		 jne	 SHORT $LN242@Value

; 1933 : 	{
; 1934 : 		Gold = (int)this->m_Durability * 300;

  0044a	8b 4d fc	 mov	 ecx, DWORD PTR _this$[ebp]
  0044d	dd d8		 fstp	 ST(0)
  0044f	d9 41 24	 fld	 DWORD PTR [ecx+36]
  00452	e9 a2 0b 00 00	 jmp	 $LN673@Value
$LN242@Value:

; 1935 : 	}
; 1936 : 	else if ( this->m_Type == ITEMGET(13,34) ) 

  00457	b8 22 1a 00 00	 mov	 eax, 6690		; 00001a22H
  0045c	66 3b d8	 cmp	 bx, ax
  0045f	75 23		 jne	 SHORT $LN240@Value

; 1937 : 	{
; 1938 : 		Gold = (int)this->m_Durability * 3000;

  00461	8b 4d fc	 mov	 ecx, DWORD PTR _this$[ebp]
  00464	dd d8		 fstp	 ST(0)
  00466	d9 41 24	 fld	 DWORD PTR [ecx+36]
  00469	e8 00 00 00 00	 call	 __ftol2_sse
  0046e	69 c0 b8 0b 00
	00		 imul	 eax, 3000		; 00000bb8H

; 2346 : 	{
; 2347 : 		Gold = (int)this->m_Durability * 300;

  00474	99		 cdq
  00475	8b f0		 mov	 esi, eax
  00477	8b fa		 mov	 edi, edx
  00479	89 75 d8	 mov	 DWORD PTR _Gold$[ebp], esi
  0047c	89 7d dc	 mov	 DWORD PTR _Gold$[ebp+4], edi

; 2348 : 	}
; 2349 : 	else

  0047f	e9 b4 0c 00 00	 jmp	 $LN148@Value
$LN240@Value:

; 1939 : 	}
; 1940 : 	else if ( this->m_Type == ITEMGET(13,35) ) 

  00484	b8 23 1a 00 00	 mov	 eax, 6691		; 00001a23H
  00489	66 3b d8	 cmp	 bx, ax
  0048c	75 0a		 jne	 SHORT $LN238@Value

; 1941 : 	{
; 1942 : 		Gold = 30000;

  0048e	be 30 75 00 00	 mov	 esi, 30000		; 00007530H
  00493	e9 96 0c 00 00	 jmp	 $LN670@Value
$LN238@Value:

; 1943 : 	}
; 1944 : 	else if ( this->m_Type == ITEMGET(13,36) ) 

  00498	b8 24 1a 00 00	 mov	 eax, 6692		; 00001a24H
  0049d	66 3b d8	 cmp	 bx, ax
  004a0	75 0a		 jne	 SHORT $LN236@Value

; 1945 : 	{
; 1946 : 		Gold = 90000;

  004a2	be 90 5f 01 00	 mov	 esi, 90000		; 00015f90H
  004a7	e9 82 0c 00 00	 jmp	 $LN670@Value
$LN236@Value:

; 1947 : 	}
; 1948 : 	else if ( this->m_Type == ITEMGET(13,37) ) 

  004ac	b8 25 1a 00 00	 mov	 eax, 6693		; 00001a25H
  004b1	66 3b d8	 cmp	 bx, ax
  004b4	75 0a		 jne	 SHORT $LN234@Value

; 1949 : 	{
; 1950 : 		Gold = 150000;

  004b6	be f0 49 02 00	 mov	 esi, 150000		; 000249f0H
  004bb	e9 6e 0c 00 00	 jmp	 $LN670@Value
$LN234@Value:

; 1951 : 	}
; 1952 : 	else if ( this->m_Type == ITEMGET(14,35) ) 

  004c0	b8 23 1c 00 00	 mov	 eax, 7203		; 00001c23H
  004c5	66 3b d8	 cmp	 bx, ax
  004c8	75 23		 jne	 SHORT $LN232@Value

; 1953 : 	{
; 1954 : 		Gold = (int)this->m_Durability * 2000;

  004ca	8b 4d fc	 mov	 ecx, DWORD PTR _this$[ebp]
  004cd	dd d8		 fstp	 ST(0)
  004cf	d9 41 24	 fld	 DWORD PTR [ecx+36]
  004d2	e8 00 00 00 00	 call	 __ftol2_sse
  004d7	69 c0 d0 07 00
	00		 imul	 eax, 2000		; 000007d0H

; 2346 : 	{
; 2347 : 		Gold = (int)this->m_Durability * 300;

  004dd	99		 cdq
  004de	8b f0		 mov	 esi, eax
  004e0	8b fa		 mov	 edi, edx
  004e2	89 75 d8	 mov	 DWORD PTR _Gold$[ebp], esi
  004e5	89 7d dc	 mov	 DWORD PTR _Gold$[ebp+4], edi

; 2348 : 	}
; 2349 : 	else

  004e8	e9 4b 0c 00 00	 jmp	 $LN148@Value
$LN232@Value:

; 1955 : 	}
; 1956 : 	else if ( this->m_Type == ITEMGET(14,36) ) 

  004ed	b8 24 1c 00 00	 mov	 eax, 7204		; 00001c24H
  004f2	66 3b d8	 cmp	 bx, ax
  004f5	75 23		 jne	 SHORT $LN230@Value

; 1957 : 	{
; 1958 : 		Gold = (int)this->m_Durability * 4000;

  004f7	8b 4d fc	 mov	 ecx, DWORD PTR _this$[ebp]
  004fa	dd d8		 fstp	 ST(0)
  004fc	d9 41 24	 fld	 DWORD PTR [ecx+36]
  004ff	e8 00 00 00 00	 call	 __ftol2_sse
  00504	69 c0 a0 0f 00
	00		 imul	 eax, 4000		; 00000fa0H

; 2346 : 	{
; 2347 : 		Gold = (int)this->m_Durability * 300;

  0050a	99		 cdq
  0050b	8b f0		 mov	 esi, eax
  0050d	8b fa		 mov	 edi, edx
  0050f	89 75 d8	 mov	 DWORD PTR _Gold$[ebp], esi
  00512	89 7d dc	 mov	 DWORD PTR _Gold$[ebp+4], edi

; 2348 : 	}
; 2349 : 	else

  00515	e9 1e 0c 00 00	 jmp	 $LN148@Value
$LN230@Value:

; 1959 : 	}
; 1960 : 	else if ( this->m_Type == ITEMGET(14,37) ) 

  0051a	b8 25 1c 00 00	 mov	 eax, 7205		; 00001c25H
  0051f	66 3b d8	 cmp	 bx, ax
  00522	75 23		 jne	 SHORT $LN228@Value

; 1961 : 	{
; 1962 : 		Gold = (int)this->m_Durability * 6000;

  00524	8b 4d fc	 mov	 ecx, DWORD PTR _this$[ebp]
  00527	dd d8		 fstp	 ST(0)
  00529	d9 41 24	 fld	 DWORD PTR [ecx+36]
  0052c	e8 00 00 00 00	 call	 __ftol2_sse
  00531	69 c0 70 17 00
	00		 imul	 eax, 6000		; 00001770H

; 2346 : 	{
; 2347 : 		Gold = (int)this->m_Durability * 300;

  00537	99		 cdq
  00538	8b f0		 mov	 esi, eax
  0053a	8b fa		 mov	 edi, edx
  0053c	89 75 d8	 mov	 DWORD PTR _Gold$[ebp], esi
  0053f	89 7d dc	 mov	 DWORD PTR _Gold$[ebp+4], edi

; 2348 : 	}
; 2349 : 	else

  00542	e9 f1 0b 00 00	 jmp	 $LN148@Value
$LN228@Value:

; 1963 : 	}
; 1964 : 	else if ( this->m_Type == ITEMGET(14,38) ) 

  00547	b8 26 1c 00 00	 mov	 eax, 7206		; 00001c26H
  0054c	66 3b d8	 cmp	 bx, ax
  0054f	75 23		 jne	 SHORT $LN226@Value

; 1965 : 	{
; 1966 : 		Gold = (int)this->m_Durability * 2500;

  00551	8b 4d fc	 mov	 ecx, DWORD PTR _this$[ebp]
  00554	dd d8		 fstp	 ST(0)
  00556	d9 41 24	 fld	 DWORD PTR [ecx+36]
  00559	e8 00 00 00 00	 call	 __ftol2_sse
  0055e	69 c0 c4 09 00
	00		 imul	 eax, 2500		; 000009c4H

; 2346 : 	{
; 2347 : 		Gold = (int)this->m_Durability * 300;

  00564	99		 cdq
  00565	8b f0		 mov	 esi, eax
  00567	8b fa		 mov	 edi, edx
  00569	89 75 d8	 mov	 DWORD PTR _Gold$[ebp], esi
  0056c	89 7d dc	 mov	 DWORD PTR _Gold$[ebp+4], edi

; 2348 : 	}
; 2349 : 	else

  0056f	e9 c4 0b 00 00	 jmp	 $LN148@Value
$LN226@Value:

; 1967 : 	}
; 1968 : 	else if ( this->m_Type == ITEMGET(14,39) ) 

  00574	b8 27 1c 00 00	 mov	 eax, 7207		; 00001c27H
  00579	66 3b d8	 cmp	 bx, ax
  0057c	75 23		 jne	 SHORT $LN224@Value

; 1969 : 	{
; 1970 : 		Gold = (int)this->m_Durability * 5000;

  0057e	8b 4d fc	 mov	 ecx, DWORD PTR _this$[ebp]
  00581	dd d8		 fstp	 ST(0)
  00583	d9 41 24	 fld	 DWORD PTR [ecx+36]
  00586	e8 00 00 00 00	 call	 __ftol2_sse
  0058b	69 c0 88 13 00
	00		 imul	 eax, 5000		; 00001388H

; 2346 : 	{
; 2347 : 		Gold = (int)this->m_Durability * 300;

  00591	99		 cdq
  00592	8b f0		 mov	 esi, eax
  00594	8b fa		 mov	 edi, edx
  00596	89 75 d8	 mov	 DWORD PTR _Gold$[ebp], esi
  00599	89 7d dc	 mov	 DWORD PTR _Gold$[ebp+4], edi

; 2348 : 	}
; 2349 : 	else

  0059c	e9 97 0b 00 00	 jmp	 $LN148@Value
$LN224@Value:

; 1971 : 	}
; 1972 : 	else if ( this->m_Type == ITEMGET(14,40) ) 

  005a1	b8 28 1c 00 00	 mov	 eax, 7208		; 00001c28H
  005a6	66 3b d8	 cmp	 bx, ax
  005a9	75 23		 jne	 SHORT $LN222@Value

; 1973 : 	{
; 1974 : 		Gold = (int)this->m_Durability * 7500;

  005ab	8b 4d fc	 mov	 ecx, DWORD PTR _this$[ebp]
  005ae	dd d8		 fstp	 ST(0)
  005b0	d9 41 24	 fld	 DWORD PTR [ecx+36]
  005b3	e8 00 00 00 00	 call	 __ftol2_sse
  005b8	69 c0 4c 1d 00
	00		 imul	 eax, 7500		; 00001d4cH

; 2346 : 	{
; 2347 : 		Gold = (int)this->m_Durability * 300;

  005be	99		 cdq
  005bf	8b f0		 mov	 esi, eax
  005c1	8b fa		 mov	 edi, edx
  005c3	89 75 d8	 mov	 DWORD PTR _Gold$[ebp], esi
  005c6	89 7d dc	 mov	 DWORD PTR _Gold$[ebp+4], edi

; 2348 : 	}
; 2349 : 	else

  005c9	e9 6a 0b 00 00	 jmp	 $LN148@Value
$LN222@Value:

; 1975 : 	}
; 1976 : 	else if ( this->m_Type == ITEMGET(13,3) ) // Dinorant

  005ce	b8 03 1a 00 00	 mov	 eax, 6659		; 00001a03H
  005d3	66 3b d8	 cmp	 bx, ax
  005d6	75 57		 jne	 SHORT $LN220@Value

; 1977 : 	{
; 1978 : 		Gold = 960000;
; 1979 : 
; 1980 : 		for ( int k=0;k<3;k++)
; 1981 : 		{
; 1982 : 			if ( (this->m_Option3 & (1<<k)) != 0 )

  005d8	8b 4d fc	 mov	 ecx, DWORD PTR _this$[ebp]
  005db	dd d8		 fstp	 ST(0)
  005dd	0f b6 81 96 00
	00 00		 movzx	 eax, BYTE PTR [ecx+150]
  005e4	33 ff		 xor	 edi, edi
  005e6	be 00 a6 0e 00	 mov	 esi, 960000		; 000ea600H
  005eb	89 75 d8	 mov	 DWORD PTR _Gold$[ebp], esi
  005ee	89 7d dc	 mov	 DWORD PTR _Gold$[ebp+4], edi
  005f1	a8 01		 test	 al, 1
  005f3	74 0b		 je	 SHORT $LN218@Value

; 1983 : 			{
; 1984 : 				Gold += 300000;

  005f5	be e0 39 13 00	 mov	 esi, 1260000		; 001339e0H
  005fa	89 75 d8	 mov	 DWORD PTR _Gold$[ebp], esi
  005fd	89 7d dc	 mov	 DWORD PTR _Gold$[ebp+4], edi
$LN218@Value:

; 1977 : 	{
; 1978 : 		Gold = 960000;
; 1979 : 
; 1980 : 		for ( int k=0;k<3;k++)
; 1981 : 		{
; 1982 : 			if ( (this->m_Option3 & (1<<k)) != 0 )

  00600	a8 02		 test	 al, 2
  00602	74 0f		 je	 SHORT $LN329@Value

; 1983 : 			{
; 1984 : 				Gold += 300000;

  00604	81 c6 e0 93 04
	00		 add	 esi, 300000		; 000493e0H
  0060a	83 d7 00	 adc	 edi, 0
  0060d	89 75 d8	 mov	 DWORD PTR _Gold$[ebp], esi
  00610	89 7d dc	 mov	 DWORD PTR _Gold$[ebp+4], edi
$LN329@Value:

; 1977 : 	{
; 1978 : 		Gold = 960000;
; 1979 : 
; 1980 : 		for ( int k=0;k<3;k++)
; 1981 : 		{
; 1982 : 			if ( (this->m_Option3 & (1<<k)) != 0 )

  00613	a8 04		 test	 al, 4
  00615	0f 84 1d 0b 00
	00		 je	 $LN148@Value

; 1983 : 			{
; 1984 : 				Gold += 300000;

  0061b	81 c6 e0 93 04
	00		 add	 esi, 300000		; 000493e0H
  00621	83 d7 00	 adc	 edi, 0

; 2346 : 	{
; 2347 : 		Gold = (int)this->m_Durability * 300;

  00624	89 75 d8	 mov	 DWORD PTR _Gold$[ebp], esi
  00627	89 7d dc	 mov	 DWORD PTR _Gold$[ebp+4], edi

; 2348 : 	}
; 2349 : 	else

  0062a	e9 09 0b 00 00	 jmp	 $LN148@Value
$LN220@Value:

; 1985 : 			}
; 1986 : 		}
; 1987 : 	}
; 1988 : 	else if ( this->m_Type == ITEMGET(14,17) ) // Devil Eye

  0062f	b8 11 1c 00 00	 mov	 eax, 7185		; 00001c11H
  00634	66 3b d8	 cmp	 bx, ax
  00637	75 7e		 jne	 SHORT $LN214@Value

; 1989 : 	{
; 1990 : 		switch ( this->m_Level )

  00639	8b 45 f8	 mov	 eax, DWORD PTR tv1473[ebp]
  0063c	dd d8		 fstp	 ST(0)
  0063e	48		 dec	 eax
  0063f	83 f8 06	 cmp	 eax, 6
  00642	77 61		 ja	 SHORT $LN204@Value
  00644	ff 24 85 00 00
	00 00		 jmp	 DWORD PTR $LN683@Value[eax*4]
$LN210@Value:

; 1991 : 		{
; 1992 : 			case 1:
; 1993 : 				Gold = 10000;
; 1994 : 				break;
; 1995 : 			case 2:
; 1996 : 				Gold = 50000;

  0064b	be 50 c3 00 00	 mov	 esi, 50000		; 0000c350H

; 2145 : 		{
; 2146 : 			case 1:
; 2147 : 				Gold = 10000;

  00650	33 ff		 xor	 edi, edi
  00652	89 75 d8	 mov	 DWORD PTR _Gold$[ebp], esi
  00655	89 7d dc	 mov	 DWORD PTR _Gold$[ebp+4], edi

; 2148 : 				break;

  00658	e9 db 0a 00 00	 jmp	 $LN148@Value
$LN209@Value:

; 1997 : 				break;
; 1998 : 			case 3:
; 1999 : 				Gold = 100000;

  0065d	be a0 86 01 00	 mov	 esi, 100000		; 000186a0H

; 2145 : 		{
; 2146 : 			case 1:
; 2147 : 				Gold = 10000;

  00662	33 ff		 xor	 edi, edi
  00664	89 75 d8	 mov	 DWORD PTR _Gold$[ebp], esi
  00667	89 7d dc	 mov	 DWORD PTR _Gold$[ebp+4], edi

; 2148 : 				break;

  0066a	e9 c9 0a 00 00	 jmp	 $LN148@Value
$LN208@Value:

; 2000 : 				break;
; 2001 : 			case 4:
; 2002 : 				Gold = 300000;

  0066f	be e0 93 04 00	 mov	 esi, 300000		; 000493e0H

; 2145 : 		{
; 2146 : 			case 1:
; 2147 : 				Gold = 10000;

  00674	33 ff		 xor	 edi, edi
  00676	89 75 d8	 mov	 DWORD PTR _Gold$[ebp], esi
  00679	89 7d dc	 mov	 DWORD PTR _Gold$[ebp+4], edi

; 2148 : 				break;

  0067c	e9 b7 0a 00 00	 jmp	 $LN148@Value
$LN206@Value:

; 2003 : 				break;
; 2004 : 			case 5:
; 2005 : 				Gold = 500000;
; 2006 : 				break;
; 2007 : 			case 6:
; 2008 : 				Gold = 800000;

  00681	be 00 35 0c 00	 mov	 esi, 800000		; 000c3500H

; 2145 : 		{
; 2146 : 			case 1:
; 2147 : 				Gold = 10000;

  00686	33 ff		 xor	 edi, edi
  00688	89 75 d8	 mov	 DWORD PTR _Gold$[ebp], esi
  0068b	89 7d dc	 mov	 DWORD PTR _Gold$[ebp+4], edi

; 2148 : 				break;

  0068e	e9 a5 0a 00 00	 jmp	 $LN148@Value
$LN205@Value:

; 2009 : 				break;
; 2010 : 			case 7:
; 2011 : 				Gold = 1000000;

  00693	be 40 42 0f 00	 mov	 esi, 1000000		; 000f4240H

; 2145 : 		{
; 2146 : 			case 1:
; 2147 : 				Gold = 10000;

  00698	33 ff		 xor	 edi, edi
  0069a	89 75 d8	 mov	 DWORD PTR _Gold$[ebp], esi
  0069d	89 7d dc	 mov	 DWORD PTR _Gold$[ebp+4], edi

; 2148 : 				break;

  006a0	e9 93 0a 00 00	 jmp	 $LN148@Value
$LN204@Value:

; 2012 : 				break;
; 2013 : 			default:
; 2014 : 				Gold = 30000;

  006a5	be 30 75 00 00	 mov	 esi, 30000		; 00007530H
  006aa	33 ff		 xor	 edi, edi

; 2346 : 	{
; 2347 : 		Gold = (int)this->m_Durability * 300;

  006ac	89 75 d8	 mov	 DWORD PTR _Gold$[ebp], esi
  006af	89 7d dc	 mov	 DWORD PTR _Gold$[ebp+4], edi

; 2348 : 	}
; 2349 : 	else

  006b2	e9 81 0a 00 00	 jmp	 $LN148@Value
$LN214@Value:

; 2015 : 				break;
; 2016 : 		}
; 2017 : 	}
; 2018 : 	else if ( this->m_Type == ITEMGET(14,18) ) // Devil Key

  006b7	b8 12 1c 00 00	 mov	 eax, 7186		; 00001c12H
  006bc	66 3b d8	 cmp	 bx, ax
  006bf	75 7e		 jne	 SHORT $LN202@Value

; 2019 : 	{
; 2020 : 		switch ( this->m_Level )

  006c1	8b 45 f8	 mov	 eax, DWORD PTR tv1473[ebp]
  006c4	dd d8		 fstp	 ST(0)
  006c6	48		 dec	 eax
  006c7	83 f8 06	 cmp	 eax, 6
  006ca	77 d9		 ja	 SHORT $LN204@Value
  006cc	ff 24 85 00 00
	00 00		 jmp	 DWORD PTR $LN684@Value[eax*4]
$LN199@Value:

; 2021 : 		{
; 2022 : 			case 1:
; 2023 : 				Gold = 15000;

  006d3	be 98 3a 00 00	 mov	 esi, 15000		; 00003a98H

; 2145 : 		{
; 2146 : 			case 1:
; 2147 : 				Gold = 10000;

  006d8	33 ff		 xor	 edi, edi
  006da	89 75 d8	 mov	 DWORD PTR _Gold$[ebp], esi
  006dd	89 7d dc	 mov	 DWORD PTR _Gold$[ebp+4], edi

; 2148 : 				break;

  006e0	e9 53 0a 00 00	 jmp	 $LN148@Value
$LN198@Value:

; 2024 : 				break;
; 2025 : 			case 2:
; 2026 : 				Gold = 75000;

  006e5	be f8 24 01 00	 mov	 esi, 75000		; 000124f8H

; 2145 : 		{
; 2146 : 			case 1:
; 2147 : 				Gold = 10000;

  006ea	33 ff		 xor	 edi, edi
  006ec	89 75 d8	 mov	 DWORD PTR _Gold$[ebp], esi
  006ef	89 7d dc	 mov	 DWORD PTR _Gold$[ebp+4], edi

; 2148 : 				break;

  006f2	e9 41 0a 00 00	 jmp	 $LN148@Value
$LN196@Value:

; 2027 : 				break;
; 2028 : 			case 3:
; 2029 : 				Gold = 150000;
; 2030 : 				break;
; 2031 : 			case 4:
; 2032 : 				Gold = 450000;

  006f7	be d0 dd 06 00	 mov	 esi, 450000		; 0006ddd0H

; 2145 : 		{
; 2146 : 			case 1:
; 2147 : 				Gold = 10000;

  006fc	33 ff		 xor	 edi, edi
  006fe	89 75 d8	 mov	 DWORD PTR _Gold$[ebp], esi
  00701	89 7d dc	 mov	 DWORD PTR _Gold$[ebp+4], edi

; 2148 : 				break;

  00704	e9 2f 0a 00 00	 jmp	 $LN148@Value
$LN195@Value:

; 2033 : 				break;
; 2034 : 			case 5:
; 2035 : 				Gold = 750000;

  00709	be b0 71 0b 00	 mov	 esi, 750000		; 000b71b0H

; 2145 : 		{
; 2146 : 			case 1:
; 2147 : 				Gold = 10000;

  0070e	33 ff		 xor	 edi, edi
  00710	89 75 d8	 mov	 DWORD PTR _Gold$[ebp], esi
  00713	89 7d dc	 mov	 DWORD PTR _Gold$[ebp+4], edi

; 2148 : 				break;

  00716	e9 1d 0a 00 00	 jmp	 $LN148@Value
$LN194@Value:

; 2036 : 				break;
; 2037 : 			case 6:
; 2038 : 				Gold = 1200000;

  0071b	be 80 4f 12 00	 mov	 esi, 1200000		; 00124f80H

; 2145 : 		{
; 2146 : 			case 1:
; 2147 : 				Gold = 10000;

  00720	33 ff		 xor	 edi, edi
  00722	89 75 d8	 mov	 DWORD PTR _Gold$[ebp], esi
  00725	89 7d dc	 mov	 DWORD PTR _Gold$[ebp+4], edi

; 2148 : 				break;

  00728	e9 0b 0a 00 00	 jmp	 $LN148@Value
$LN193@Value:

; 2039 : 				break;
; 2040 : 			case 7:
; 2041 : 				Gold = 1500000;

  0072d	be 60 e3 16 00	 mov	 esi, 1500000		; 0016e360H

; 2145 : 		{
; 2146 : 			case 1:
; 2147 : 				Gold = 10000;

  00732	33 ff		 xor	 edi, edi
  00734	89 75 d8	 mov	 DWORD PTR _Gold$[ebp], esi
  00737	89 7d dc	 mov	 DWORD PTR _Gold$[ebp+4], edi

; 2148 : 				break;

  0073a	e9 f9 09 00 00	 jmp	 $LN148@Value
$LN202@Value:

; 2042 : 				break;
; 2043 : 			default:
; 2044 : 				Gold = 30000;
; 2045 : 				break;
; 2046 : 		}
; 2047 : 	}
; 2048 : 	else if ( this->m_Type == ITEMGET(14,19) ) // Devil's Invitation

  0073f	b8 13 1c 00 00	 mov	 eax, 7187		; 00001c13H
  00744	66 3b d8	 cmp	 bx, ax
  00747	75 7e		 jne	 SHORT $LN190@Value

; 2049 : 	{
; 2050 : 		switch ( this->m_Level )

  00749	8b 45 f8	 mov	 eax, DWORD PTR tv1473[ebp]
  0074c	dd d8		 fstp	 ST(0)
  0074e	48		 dec	 eax
  0074f	83 f8 06	 cmp	 eax, 6
  00752	77 61		 ja	 SHORT $LN180@Value
  00754	ff 24 85 00 00
	00 00		 jmp	 DWORD PTR $LN685@Value[eax*4]
$LN187@Value:

; 2051 : 		{
; 2052 : 			case 1:
; 2053 : 				Gold = 60000;

  0075b	be 60 ea 00 00	 mov	 esi, 60000		; 0000ea60H

; 2145 : 		{
; 2146 : 			case 1:
; 2147 : 				Gold = 10000;

  00760	33 ff		 xor	 edi, edi
  00762	89 75 d8	 mov	 DWORD PTR _Gold$[ebp], esi
  00765	89 7d dc	 mov	 DWORD PTR _Gold$[ebp+4], edi

; 2148 : 				break;

  00768	e9 cb 09 00 00	 jmp	 $LN148@Value
$LN186@Value:

; 2054 : 				break;
; 2055 : 			case 2:
; 2056 : 				Gold = 84000;

  0076d	be 20 48 01 00	 mov	 esi, 84000		; 00014820H

; 2145 : 		{
; 2146 : 			case 1:
; 2147 : 				Gold = 10000;

  00772	33 ff		 xor	 edi, edi
  00774	89 75 d8	 mov	 DWORD PTR _Gold$[ebp], esi
  00777	89 7d dc	 mov	 DWORD PTR _Gold$[ebp+4], edi

; 2148 : 				break;

  0077a	e9 b9 09 00 00	 jmp	 $LN148@Value
$LN185@Value:

; 2057 : 				break;
; 2058 : 			case 3:
; 2059 : 				Gold = 120000;

  0077f	be c0 d4 01 00	 mov	 esi, 120000		; 0001d4c0H

; 2145 : 		{
; 2146 : 			case 1:
; 2147 : 				Gold = 10000;

  00784	33 ff		 xor	 edi, edi
  00786	89 75 d8	 mov	 DWORD PTR _Gold$[ebp], esi
  00789	89 7d dc	 mov	 DWORD PTR _Gold$[ebp+4], edi

; 2148 : 				break;

  0078c	e9 a7 09 00 00	 jmp	 $LN148@Value
$LN184@Value:

; 2060 : 				break;
; 2061 : 			case 4:
; 2062 : 				Gold = 180000;

  00791	be 20 bf 02 00	 mov	 esi, 180000		; 0002bf20H

; 2145 : 		{
; 2146 : 			case 1:
; 2147 : 				Gold = 10000;

  00796	33 ff		 xor	 edi, edi
  00798	89 75 d8	 mov	 DWORD PTR _Gold$[ebp], esi
  0079b	89 7d dc	 mov	 DWORD PTR _Gold$[ebp+4], edi

; 2148 : 				break;

  0079e	e9 95 09 00 00	 jmp	 $LN148@Value
$LN183@Value:

; 2063 : 				break;
; 2064 : 			case 5:
; 2065 : 				Gold = 240000;

  007a3	be 80 a9 03 00	 mov	 esi, 240000		; 0003a980H

; 2145 : 		{
; 2146 : 			case 1:
; 2147 : 				Gold = 10000;

  007a8	33 ff		 xor	 edi, edi
  007aa	89 75 d8	 mov	 DWORD PTR _Gold$[ebp], esi
  007ad	89 7d dc	 mov	 DWORD PTR _Gold$[ebp+4], edi

; 2148 : 				break;

  007b0	e9 83 09 00 00	 jmp	 $LN148@Value
$LN180@Value:

; 2066 : 				break;
; 2067 : 			case 6:
; 2068 : 				Gold = 300000;
; 2069 : 				break;
; 2070 : 			case 7:
; 2071 : 				Gold = 180000;
; 2072 : 				break;
; 2073 : 			default:
; 2074 : 				Gold = 120000;

  007b5	be c0 d4 01 00	 mov	 esi, 120000		; 0001d4c0H
  007ba	33 ff		 xor	 edi, edi

; 2346 : 	{
; 2347 : 		Gold = (int)this->m_Durability * 300;

  007bc	89 75 d8	 mov	 DWORD PTR _Gold$[ebp], esi
  007bf	89 7d dc	 mov	 DWORD PTR _Gold$[ebp+4], edi

; 2348 : 	}
; 2349 : 	else

  007c2	e9 71 09 00 00	 jmp	 $LN148@Value
$LN190@Value:

; 2075 : 				break;
; 2076 : 		}
; 2077 : 	}
; 2078 : 	else if ( this->m_Type == ITEMGET(14,20) ) // Remedy Of Love

  007c7	b8 14 1c 00 00	 mov	 eax, 7188		; 00001c14H
  007cc	66 3b d8	 cmp	 bx, ax
  007cf	75 0a		 jne	 SHORT $LN178@Value

; 2079 : 	{
; 2080 : 		Gold = 900;

  007d1	be 84 03 00 00	 mov	 esi, 900		; 00000384H
  007d6	e9 53 09 00 00	 jmp	 $LN670@Value
$LN178@Value:

; 2081 : 	}
; 2082 : 	else if ( this->m_Type == ITEMGET(14,21) ) // Rena

  007db	b8 15 1c 00 00	 mov	 eax, 7189		; 00001c15H
  007e0	66 3b d8	 cmp	 bx, ax
  007e3	75 74		 jne	 SHORT $LN176@Value

; 2083 : 	{
; 2084 : 		switch ( this->m_Level )

  007e5	8b 45 f8	 mov	 eax, DWORD PTR tv1473[ebp]
  007e8	dd d8		 fstp	 ST(0)
  007ea	83 e8 00	 sub	 eax, 0
  007ed	74 44		 je	 SHORT $LN173@Value
  007ef	48		 dec	 eax
  007f0	74 4c		 je	 SHORT $LN344@Value
  007f2	83 e8 02	 sub	 eax, 2
  007f5	74 1b		 je	 SHORT $LN171@Value

; 2095 : 				break;
; 2096 : 			default:
; 2097 : 				Gold = 9000;
; 2098 : 				this->m_Durability = this->m_BaseDurability;

  007f7	8b 45 fc	 mov	 eax, DWORD PTR _this$[ebp]
  007fa	d9 40 2c	 fld	 DWORD PTR [eax+44]
  007fd	be 28 23 00 00	 mov	 esi, 9000		; 00002328H
  00802	33 ff		 xor	 edi, edi
  00804	d9 58 24	 fstp	 DWORD PTR [eax+36]
  00807	89 75 d8	 mov	 DWORD PTR _Gold$[ebp], esi
  0080a	89 7d dc	 mov	 DWORD PTR _Gold$[ebp+4], edi
  0080d	e9 26 09 00 00	 jmp	 $LN148@Value
$LN171@Value:

; 2092 : 				break;
; 2093 : 			case 3:	// Mark of Lord
; 2094 : 				Gold = (int)(this->m_Durability) * 3900;

  00812	8b 4d fc	 mov	 ecx, DWORD PTR _this$[ebp]
  00815	d9 41 24	 fld	 DWORD PTR [ecx+36]
  00818	e8 00 00 00 00	 call	 __ftol2_sse
  0081d	69 c0 3c 0f 00
	00		 imul	 eax, 3900		; 00000f3cH
  00823	99		 cdq
  00824	8b f0		 mov	 esi, eax
  00826	8b fa		 mov	 edi, edx

; 2145 : 		{
; 2146 : 			case 1:
; 2147 : 				Gold = 10000;

  00828	89 75 d8	 mov	 DWORD PTR _Gold$[ebp], esi
  0082b	89 7d dc	 mov	 DWORD PTR _Gold$[ebp+4], edi

; 2148 : 				break;

  0082e	e9 05 09 00 00	 jmp	 $LN148@Value
$LN173@Value:

; 2085 : 		{
; 2086 : 			case 0:	// Rena
; 2087 : 				Gold = 9000;
; 2088 : 				this->m_Durability = this->m_BaseDurability;

  00833	8b 45 fc	 mov	 eax, DWORD PTR _this$[ebp]
  00836	d9 40 2c	 fld	 DWORD PTR [eax+44]
  00839	d9 58 24	 fstp	 DWORD PTR [eax+36]
  0083c	eb 03		 jmp	 SHORT $LN172@Value
$LN344@Value:
  0083e	8b 45 fc	 mov	 eax, DWORD PTR _this$[ebp]
$LN172@Value:

; 2089 : 			case 1:	// Stone
; 2090 : 				Gold = 9000;
; 2091 : 				this->m_Durability = this->m_BaseDurability;

  00841	d9 40 2c	 fld	 DWORD PTR [eax+44]
  00844	be 28 23 00 00	 mov	 esi, 9000		; 00002328H
  00849	33 ff		 xor	 edi, edi
  0084b	d9 58 24	 fstp	 DWORD PTR [eax+36]
  0084e	89 75 d8	 mov	 DWORD PTR _Gold$[ebp], esi
  00851	89 7d dc	 mov	 DWORD PTR _Gold$[ebp+4], edi

; 2099 : 		}
; 2100 : 	}
; 2101 : 	else if ( this->m_Type == ITEMGET(14,100)) // Lucky Coin season 4.5

  00854	e9 df 08 00 00	 jmp	 $LN148@Value
$LN176@Value:
  00859	b8 64 1c 00 00	 mov	 eax, 7268		; 00001c64H
  0085e	66 3b d8	 cmp	 bx, ax
  00861	75 0d		 jne	 SHORT $LN168@Value

; 2102 : 	{
; 2103 : 		Gold = (int)(this->m_Durability) * 300;

  00863	8b 4d fc	 mov	 ecx, DWORD PTR _this$[ebp]
  00866	dd d8		 fstp	 ST(0)
  00868	d9 41 24	 fld	 DWORD PTR [ecx+36]
  0086b	e9 89 07 00 00	 jmp	 $LN673@Value
$LN168@Value:

; 2104 : 	}
; 2105 : 	else if ( this->m_Type == ITEMGET(14,9) && this->m_Level == 1) // Ale

  00870	b8 09 1c 00 00	 mov	 eax, 7177		; 00001c09H
  00875	66 3b d8	 cmp	 bx, ax
  00878	75 14		 jne	 SHORT $LN166@Value
  0087a	8b 45 fc	 mov	 eax, DWORD PTR _this$[ebp]
  0087d	66 83 78 08 01	 cmp	 WORD PTR [eax+8], 1
  00882	75 0a		 jne	 SHORT $LN166@Value

; 2106 : 	{
; 2107 : 		Gold = 1000;

  00884	be e8 03 00 00	 mov	 esi, 1000		; 000003e8H
  00889	e9 a0 08 00 00	 jmp	 $LN670@Value
$LN166@Value:

; 2108 : 	}
; 2109 : 	else if ( this->m_Type == ITEMGET(13,18) ) // Invisibility Cloak

  0088e	b8 12 1a 00 00	 mov	 eax, 6674		; 00001a12H
  00893	66 3b d8	 cmp	 bx, ax
  00896	0f 85 b8 00 00
	00		 jne	 $LN164@Value

; 2110 : 	{
; 2111 : 		switch ( this->m_Level )

  0089c	8b 45 f8	 mov	 eax, DWORD PTR tv1473[ebp]
  0089f	dd d8		 fstp	 ST(0)
  008a1	48		 dec	 eax
  008a2	83 f8 07	 cmp	 eax, 7
  008a5	0f 87 97 00 00
	00		 ja	 $LN153@Value
  008ab	ff 24 85 00 00
	00 00		 jmp	 DWORD PTR $LN686@Value[eax*4]
$LN161@Value:

; 2112 : 		{
; 2113 : 			case 1:
; 2114 : 				Gold = 150000;

  008b2	be f0 49 02 00	 mov	 esi, 150000		; 000249f0H

; 2145 : 		{
; 2146 : 			case 1:
; 2147 : 				Gold = 10000;

  008b7	33 ff		 xor	 edi, edi
  008b9	89 75 d8	 mov	 DWORD PTR _Gold$[ebp], esi
  008bc	89 7d dc	 mov	 DWORD PTR _Gold$[ebp+4], edi

; 2148 : 				break;

  008bf	e9 74 08 00 00	 jmp	 $LN148@Value
$LN160@Value:

; 2115 : 				break;
; 2116 : 			case 2:
; 2117 : 				Gold = 660000;

  008c4	be 20 12 0a 00	 mov	 esi, 660000		; 000a1220H

; 2145 : 		{
; 2146 : 			case 1:
; 2147 : 				Gold = 10000;

  008c9	33 ff		 xor	 edi, edi
  008cb	89 75 d8	 mov	 DWORD PTR _Gold$[ebp], esi
  008ce	89 7d dc	 mov	 DWORD PTR _Gold$[ebp+4], edi

; 2148 : 				break;

  008d1	e9 62 08 00 00	 jmp	 $LN148@Value
$LN159@Value:

; 2118 : 				break;
; 2119 : 			case 3:
; 2120 : 				Gold = 720000;

  008d6	be 80 fc 0a 00	 mov	 esi, 720000		; 000afc80H

; 2145 : 		{
; 2146 : 			case 1:
; 2147 : 				Gold = 10000;

  008db	33 ff		 xor	 edi, edi
  008dd	89 75 d8	 mov	 DWORD PTR _Gold$[ebp], esi
  008e0	89 7d dc	 mov	 DWORD PTR _Gold$[ebp+4], edi

; 2148 : 				break;

  008e3	e9 50 08 00 00	 jmp	 $LN148@Value
$LN158@Value:

; 2121 : 				break;
; 2122 : 			case 4:
; 2123 : 				Gold = 780000;

  008e8	be e0 e6 0b 00	 mov	 esi, 780000		; 000be6e0H

; 2145 : 		{
; 2146 : 			case 1:
; 2147 : 				Gold = 10000;

  008ed	33 ff		 xor	 edi, edi
  008ef	89 75 d8	 mov	 DWORD PTR _Gold$[ebp], esi
  008f2	89 7d dc	 mov	 DWORD PTR _Gold$[ebp+4], edi

; 2148 : 				break;

  008f5	e9 3e 08 00 00	 jmp	 $LN148@Value
$LN157@Value:

; 2124 : 				break;
; 2125 : 			case 5:
; 2126 : 				Gold = 840000;

  008fa	be 40 d1 0c 00	 mov	 esi, 840000		; 000cd140H

; 2145 : 		{
; 2146 : 			case 1:
; 2147 : 				Gold = 10000;

  008ff	33 ff		 xor	 edi, edi
  00901	89 75 d8	 mov	 DWORD PTR _Gold$[ebp], esi
  00904	89 7d dc	 mov	 DWORD PTR _Gold$[ebp+4], edi

; 2148 : 				break;

  00907	e9 2c 08 00 00	 jmp	 $LN148@Value
$LN156@Value:

; 2127 : 				break;
; 2128 : 			case 6:
; 2129 : 				Gold = 900000;

  0090c	be a0 bb 0d 00	 mov	 esi, 900000		; 000dbba0H

; 2145 : 		{
; 2146 : 			case 1:
; 2147 : 				Gold = 10000;

  00911	33 ff		 xor	 edi, edi
  00913	89 75 d8	 mov	 DWORD PTR _Gold$[ebp], esi
  00916	89 7d dc	 mov	 DWORD PTR _Gold$[ebp+4], edi

; 2148 : 				break;

  00919	e9 1a 08 00 00	 jmp	 $LN148@Value
$LN155@Value:

; 2130 : 				break;
; 2131 : 			case 7:
; 2132 : 				Gold = 960000;

  0091e	be 00 a6 0e 00	 mov	 esi, 960000		; 000ea600H

; 2145 : 		{
; 2146 : 			case 1:
; 2147 : 				Gold = 10000;

  00923	33 ff		 xor	 edi, edi
  00925	89 75 d8	 mov	 DWORD PTR _Gold$[ebp], esi
  00928	89 7d dc	 mov	 DWORD PTR _Gold$[ebp+4], edi

; 2148 : 				break;

  0092b	e9 08 08 00 00	 jmp	 $LN148@Value
$LN154@Value:

; 2133 : 				break;
; 2134 : 			case 8:
; 2135 : 				Gold = 1020000;

  00930	be 60 90 0f 00	 mov	 esi, 1020000		; 000f9060H

; 2145 : 		{
; 2146 : 			case 1:
; 2147 : 				Gold = 10000;

  00935	33 ff		 xor	 edi, edi
  00937	89 75 d8	 mov	 DWORD PTR _Gold$[ebp], esi
  0093a	89 7d dc	 mov	 DWORD PTR _Gold$[ebp+4], edi

; 2148 : 				break;

  0093d	e9 f6 07 00 00	 jmp	 $LN148@Value
$LN153@Value:

; 2136 : 				break;
; 2137 : 			default:
; 2138 : 				Gold = 600000;

  00942	be c0 27 09 00	 mov	 esi, 600000		; 000927c0H
  00947	33 ff		 xor	 edi, edi

; 2346 : 	{
; 2347 : 		Gold = (int)this->m_Durability * 300;

  00949	89 75 d8	 mov	 DWORD PTR _Gold$[ebp], esi
  0094c	89 7d dc	 mov	 DWORD PTR _Gold$[ebp+4], edi

; 2348 : 	}
; 2349 : 	else

  0094f	e9 e4 07 00 00	 jmp	 $LN148@Value
$LN164@Value:

; 2139 : 				break;
; 2140 : 		}
; 2141 : 	}
; 2142 : 	else if ( this->m_Type == ITEMGET(13,16) || this->m_Type == ITEMGET(13,17) ) // Blood and Paper of BloodCastle

  00954	b8 10 1a 00 00	 mov	 eax, 6672		; 00001a10H
  00959	66 3b d8	 cmp	 bx, ax
  0095c	0f 84 48 07 00
	00		 je	 $LN462@Value
  00962	b8 11 1a 00 00	 mov	 eax, 6673		; 00001a11H
  00967	66 3b d8	 cmp	 bx, ax
  0096a	0f 84 3a 07 00
	00		 je	 $LN462@Value

; 2172 : 				break;
; 2173 : 		}
; 2174 : 	}
; 2175 : 	else if ( this->m_Type == ITEMGET(13,29) ) // Armor of Guardman

  00970	b8 1d 1a 00 00	 mov	 eax, 6685		; 00001a1dH
  00975	66 3b d8	 cmp	 bx, ax
  00978	75 0a		 jne	 SHORT $LN137@Value

; 2176 : 	{
; 2177 : 		Gold = 5000;

  0097a	be 88 13 00 00	 mov	 esi, 5000		; 00001388H
  0097f	e9 aa 07 00 00	 jmp	 $LN670@Value
$LN137@Value:

; 2178 : 	}
; 2179 : 	else if ( this->m_Type == ITEMGET(13,20) ) // Wizards Ring

  00984	b8 14 1a 00 00	 mov	 eax, 6676		; 00001a14H
  00989	66 3b d8	 cmp	 bx, ax
  0098c	75 1a		 jne	 SHORT $LN135@Value
  0098e	dd d8		 fstp	 ST(0)

; 2180 : 	{
; 2181 : 		switch ( this->m_Level )

  00990	39 75 f8	 cmp	 DWORD PTR tv1473[ebp], esi
  00993	0f 84 0c fd ff
	ff		 je	 $LN204@Value

; 2182 : 		{
; 2183 : 			case 0:
; 2184 : 				Gold =30000;
; 2185 : 				break;
; 2186 : 
; 2187 : 			default:
; 2188 : 				Gold = 0;

  00999	33 f6		 xor	 esi, esi
  0099b	33 ff		 xor	 edi, edi
  0099d	89 75 d8	 mov	 DWORD PTR _Gold$[ebp], esi
  009a0	89 7d dc	 mov	 DWORD PTR _Gold$[ebp+4], edi
  009a3	e9 90 07 00 00	 jmp	 $LN148@Value
$LN135@Value:

; 2189 : 		}
; 2190 : 	}
; 2191 : 	else if ( this->m_Type == ITEMGET(13,31) ) // Spirit

  009a8	b8 1f 1a 00 00	 mov	 eax, 6687		; 00001a1fH
  009ad	66 3b d8	 cmp	 bx, ax
  009b0	75 35		 jne	 SHORT $LN129@Value

; 2192 : 	{
; 2193 : 		switch ( this->m_Level )

  009b2	8b 45 f8	 mov	 eax, DWORD PTR tv1473[ebp]
  009b5	dd d8		 fstp	 ST(0)
  009b7	83 e8 00	 sub	 eax, 0
  009ba	74 19		 je	 SHORT $LN126@Value
  009bc	48		 dec	 eax
  009bd	0f 85 75 07 00
	00		 jne	 $LN148@Value

; 2197 : 				break;
; 2198 : 
; 2199 : 			case 1:
; 2200 : 				Gold = 15000000;

  009c3	be c0 e1 e4 00	 mov	 esi, 15000000		; 00e4e1c0H
  009c8	33 ff		 xor	 edi, edi
  009ca	89 75 d8	 mov	 DWORD PTR _Gold$[ebp], esi
  009cd	89 7d dc	 mov	 DWORD PTR _Gold$[ebp+4], edi
  009d0	e9 63 07 00 00	 jmp	 $LN148@Value
$LN126@Value:

; 2194 : 		{
; 2195 : 			case 0:
; 2196 : 				Gold = 30000000;

  009d5	be 80 c3 c9 01	 mov	 esi, 30000000		; 01c9c380H
  009da	33 ff		 xor	 edi, edi

; 2346 : 	{
; 2347 : 		Gold = (int)this->m_Durability * 300;

  009dc	89 75 d8	 mov	 DWORD PTR _Gold$[ebp], esi
  009df	89 7d dc	 mov	 DWORD PTR _Gold$[ebp+4], edi

; 2348 : 	}
; 2349 : 	else

  009e2	e9 51 07 00 00	 jmp	 $LN148@Value
$LN129@Value:

; 2201 : 		}
; 2202 : 	}
; 2203 : 	else if ( this->m_Type == ITEMGET(14,28) ) // Lost Map

  009e7	b8 1c 1c 00 00	 mov	 eax, 7196		; 00001c1cH
  009ec	66 3b d8	 cmp	 bx, ax
  009ef	75 0a		 jne	 SHORT $LN123@Value

; 2204 : 	{
; 2205 : 		Gold = 600000;

  009f1	be c0 27 09 00	 mov	 esi, 600000		; 000927c0H
  009f6	e9 33 07 00 00	 jmp	 $LN670@Value
$LN123@Value:

; 2206 : 	}
; 2207 : 	else if ( this->m_Type == ITEMGET(14,29) ) // Symbol of Kundun

  009fb	b8 1d 1c 00 00	 mov	 eax, 7197		; 00001c1dH
  00a00	66 3b d8	 cmp	 bx, ax
  00a03	75 13		 jne	 SHORT $LN121@Value

; 2208 : 	{
; 2209 : 		Gold = (__int64)(((10000.0f) * this->m_Durability) * 3.0f);

  00a05	8b 4d fc	 mov	 ecx, DWORD PTR _this$[ebp]
  00a08	dd d8		 fstp	 ST(0)
  00a0a	d9 41 24	 fld	 DWORD PTR [ecx+36]
  00a0d	dc 0d 00 00 00
	00		 fmul	 QWORD PTR __real@40c3880000000000
  00a13	e9 78 06 00 00	 jmp	 $LN677@Value
$LN121@Value:

; 2210 : 	}
; 2211 : 	else if ( this->m_Type == ITEMGET(14,110) ) //Season 5 DoppelGanger

  00a18	b8 6e 1c 00 00	 mov	 eax, 7278		; 00001c6eH
  00a1d	66 3b d8	 cmp	 bx, ax
  00a20	75 21		 jne	 SHORT $LN119@Value

; 2212 : 	{
; 2213 : 		Gold = (__int64)((10000.0f) * this->m_Durability) * 3.0f;

  00a22	8b 4d fc	 mov	 ecx, DWORD PTR _this$[ebp]
  00a25	dd d8		 fstp	 ST(0)
  00a27	d9 41 24	 fld	 DWORD PTR [ecx+36]
  00a2a	dc 0d 00 00 00
	00		 fmul	 QWORD PTR __real@40c3880000000000
  00a30	e8 00 00 00 00	 call	 __ftol2
  00a35	89 45 e0	 mov	 DWORD PTR tv1915[ebp], eax
  00a38	89 55 e4	 mov	 DWORD PTR tv1915[ebp+4], edx
  00a3b	df 6d e0	 fild	 QWORD PTR tv1915[ebp]
  00a3e	e9 4d 06 00 00	 jmp	 $LN677@Value
$LN119@Value:

; 2214 : 	}
; 2215 : 	else if ( this->m_Type == ITEMGET(14,101) ) //Season 5 ImperialFort

  00a43	b8 65 1c 00 00	 mov	 eax, 7269		; 00001c65H
  00a48	66 3b d8	 cmp	 bx, ax
  00a4b	75 21		 jne	 SHORT $LN117@Value

; 2216 : 	{
; 2217 : 		Gold = (__int64)((10000.0f) * this->m_Durability) * 3.0f;

  00a4d	8b 4d fc	 mov	 ecx, DWORD PTR _this$[ebp]
  00a50	dd d8		 fstp	 ST(0)
  00a52	d9 41 24	 fld	 DWORD PTR [ecx+36]
  00a55	dc 0d 00 00 00
	00		 fmul	 QWORD PTR __real@40c3880000000000
  00a5b	e8 00 00 00 00	 call	 __ftol2
  00a60	89 45 e0	 mov	 DWORD PTR tv1897[ebp], eax
  00a63	89 55 e4	 mov	 DWORD PTR tv1897[ebp+4], edx
  00a66	df 6d e0	 fild	 QWORD PTR tv1897[ebp]

; 2218 : 	}
; 2219 : 	else if ( this->m_Type == ITEMGET(14,45) ||

  00a69	e9 22 06 00 00	 jmp	 $LN677@Value
$LN117@Value:

; 2220 : 		      this->m_Type == ITEMGET(14,46) ||
; 2221 : 			  this->m_Type == ITEMGET(14,47) ||
; 2222 : 			  this->m_Type == ITEMGET(14,48) ||
; 2223 : 			  this->m_Type == ITEMGET(14,49) ||
; 2224 : 			  this->m_Type == ITEMGET(14,50) )

  00a6e	b8 2d 1c 00 00	 mov	 eax, 7213		; 00001c2dH
  00a73	66 3b d8	 cmp	 bx, ax
  00a76	0f 84 06 06 00
	00		 je	 $LN501@Value
  00a7c	b8 2e 1c 00 00	 mov	 eax, 7214		; 00001c2eH
  00a81	66 3b d8	 cmp	 bx, ax
  00a84	0f 84 f8 05 00
	00		 je	 $LN501@Value
  00a8a	b8 2f 1c 00 00	 mov	 eax, 7215		; 00001c2fH
  00a8f	66 3b d8	 cmp	 bx, ax
  00a92	0f 84 ea 05 00
	00		 je	 $LN501@Value
  00a98	b8 30 1c 00 00	 mov	 eax, 7216		; 00001c30H
  00a9d	66 3b d8	 cmp	 bx, ax
  00aa0	0f 84 dc 05 00
	00		 je	 $LN501@Value
  00aa6	b8 31 1c 00 00	 mov	 eax, 7217		; 00001c31H
  00aab	66 3b d8	 cmp	 bx, ax
  00aae	0f 84 ce 05 00
	00		 je	 $LN501@Value
  00ab4	b8 32 1c 00 00	 mov	 eax, 7218		; 00001c32H
  00ab9	66 3b d8	 cmp	 bx, ax
  00abc	0f 84 c0 05 00
	00		 je	 $LN501@Value

; 2227 : 	}
; 2228 : 	else if ( this->m_Type == ITEMGET(12,26) )

  00ac2	b8 1a 18 00 00	 mov	 eax, 6170		; 0000181aH
  00ac7	66 3b d8	 cmp	 bx, ax
  00aca	75 1d		 jne	 SHORT $LN112@Value
  00acc	dd d8		 fstp	 ST(0)

; 2229 : 	{
; 2230 : 		switch ( this->m_Level )

  00ace	39 75 f8	 cmp	 DWORD PTR tv1473[ebp], esi
  00ad1	0f 85 61 06 00
	00		 jne	 $LN148@Value

; 2231 : 		{
; 2232 : 			case 0:
; 2233 : 				Gold = 60000;

  00ad7	be 60 ea 00 00	 mov	 esi, 60000		; 0000ea60H
  00adc	33 ff		 xor	 edi, edi
  00ade	89 75 d8	 mov	 DWORD PTR _Gold$[ebp], esi
  00ae1	89 7d dc	 mov	 DWORD PTR _Gold$[ebp+4], edi

; 2234 : 				break;
; 2235 : 		}
; 2236 : 	}
; 2237 : 	//
; 2238 : 	else if ( this->m_Type == ITEMGET(14,51) ) //Star

  00ae4	e9 4f 06 00 00	 jmp	 $LN148@Value
$LN112@Value:
  00ae9	b8 33 1c 00 00	 mov	 eax, 7219		; 00001c33H
  00aee	66 3b d8	 cmp	 bx, ax

; 2239 : 	{
; 2240 : 		Gold = 200000;
; 2241 : 	}
; 2242 : 	else if ( this->m_Type == ITEMGET(14,55) || //Green Chaos Box (Season 4.5)

  00af1	0f 84 32 06 00
	00		 je	 $LN682@Value

; 2243 : 			  this->m_Type == ITEMGET(14,56) || //Red Chaos Box (Season 4.5)
; 2244 : 			  this->m_Type == ITEMGET(14,57) )  //Purple Chaos Box (Season 4.5)

  00af7	b8 37 1c 00 00	 mov	 eax, 7223		; 00001c37H
  00afc	66 3b d8	 cmp	 bx, ax
  00aff	0f 84 0f 05 00
	00		 je	 $LN555@Value
  00b05	b8 38 1c 00 00	 mov	 eax, 7224		; 00001c38H
  00b0a	66 3b d8	 cmp	 bx, ax
  00b0d	0f 84 01 05 00
	00		 je	 $LN555@Value
  00b13	b8 39 1c 00 00	 mov	 eax, 7225		; 00001c39H
  00b18	66 3b d8	 cmp	 bx, ax
  00b1b	0f 84 f3 04 00
	00		 je	 $LN555@Value

; 2245 : 	{
; 2246 : 		Gold = 9000;
; 2247 : 	}
; 2248 : 	else if ( this->m_Type == ITEMGET(13,49) || //Illusion Temple Items -> (Old Scroll, Covenant and Scroll of Blood)
; 2249 : 			  this->m_Type == ITEMGET(13,50) ||
; 2250 : 			  this->m_Type == ITEMGET(13,51) )

  00b21	b8 31 1a 00 00	 mov	 eax, 6705		; 00001a31H
  00b26	66 3b d8	 cmp	 bx, ax
  00b29	0f 84 f9 04 00
	00		 je	 $LN525@Value
  00b2f	b8 32 1a 00 00	 mov	 eax, 6706		; 00001a32H
  00b34	66 3b d8	 cmp	 bx, ax
  00b37	0f 84 eb 04 00
	00		 je	 $LN525@Value
  00b3d	b8 33 1a 00 00	 mov	 eax, 6707		; 00001a33H
  00b42	66 3b d8	 cmp	 bx, ax
  00b45	0f 84 dd 04 00
	00		 je	 $LN525@Value

; 2279 : 			  this->m_Type == ITEMGET(13,53) )

  00b4b	b8 34 1a 00 00	 mov	 eax, 6708		; 00001a34H
  00b50	66 3b d8	 cmp	 bx, ax
  00b53	0f 84 c5 04 00
	00		 je	 $LN531@Value
  00b59	b8 35 1a 00 00	 mov	 eax, 6709		; 00001a35H
  00b5e	66 3b d8	 cmp	 bx, ax
  00b61	0f 84 b7 04 00
	00		 je	 $LN531@Value

; 2284 : 			  this->m_Type == ITEMGET(14,24) ||
; 2285 : 			  this->m_Type == ITEMGET(14,25) ||
; 2286 : 			  this->m_Type == ITEMGET(14,26) ||
; 2287 : 			  this->m_Type == ITEMGET(14,65) ||
; 2288 : 			  this->m_Type == ITEMGET(14,66) ||
; 2289 : 			  this->m_Type == ITEMGET(14,67) ||
; 2290 : 			  this->m_Type == ITEMGET(14,68))

  00b67	b8 17 1c 00 00	 mov	 eax, 7191		; 00001c17H
  00b6c	66 3b d8	 cmp	 bx, ax
  00b6f	0f 84 9f 04 00
	00		 je	 $LN555@Value
  00b75	b8 18 1c 00 00	 mov	 eax, 7192		; 00001c18H
  00b7a	66 3b d8	 cmp	 bx, ax
  00b7d	0f 84 91 04 00
	00		 je	 $LN555@Value
  00b83	b8 19 1c 00 00	 mov	 eax, 7193		; 00001c19H
  00b88	66 3b d8	 cmp	 bx, ax
  00b8b	0f 84 83 04 00
	00		 je	 $LN555@Value
  00b91	b8 1a 1c 00 00	 mov	 eax, 7194		; 00001c1aH
  00b96	66 3b d8	 cmp	 bx, ax
  00b99	0f 84 75 04 00
	00		 je	 $LN555@Value
  00b9f	b8 41 1c 00 00	 mov	 eax, 7233		; 00001c41H
  00ba4	66 3b d8	 cmp	 bx, ax
  00ba7	0f 84 67 04 00
	00		 je	 $LN555@Value
  00bad	b8 42 1c 00 00	 mov	 eax, 7234		; 00001c42H
  00bb2	66 3b d8	 cmp	 bx, ax
  00bb5	0f 84 59 04 00
	00		 je	 $LN555@Value
  00bbb	b8 43 1c 00 00	 mov	 eax, 7235		; 00001c43H
  00bc0	66 3b d8	 cmp	 bx, ax
  00bc3	0f 84 4b 04 00
	00		 je	 $LN555@Value
  00bc9	b8 44 1c 00 00	 mov	 eax, 7236		; 00001c44H
  00bce	66 3b d8	 cmp	 bx, ax
  00bd1	0f 84 3d 04 00
	00		 je	 $LN555@Value

; 2293 : 	}
; 2294 : 	//
; 2295 : 	else if ( p->Value > 0 )

  00bd7	8b 45 f4	 mov	 eax, DWORD PTR _p$[ebp]
  00bda	0f b7 40 3c	 movzx	 eax, WORD PTR [eax+60]
  00bde	66 85 c0	 test	 ax, ax
  00be1	0f 84 fb 00 00
	00		 je	 $LN84@Value

; 2296 : 	{
; 2297 : 		Gold += (p->Value * p->Value * 10)/12;

  00be7	0f af c0	 imul	 eax, eax
  00bea	dd d8		 fstp	 ST(0)
  00bec	8d 14 80	 lea	 edx, DWORD PTR [eax+eax*4]
  00bef	03 d2		 add	 edx, edx
  00bf1	b8 ab aa aa 2a	 mov	 eax, 715827883		; 2aaaaaabH
  00bf6	f7 ea		 imul	 edx
  00bf8	d1 fa		 sar	 edx, 1
  00bfa	8b c2		 mov	 eax, edx
  00bfc	c1 e8 1f	 shr	 eax, 31			; 0000001fH
  00bff	03 c2		 add	 eax, edx
  00c01	99		 cdq

; 2298 : 
; 2299 : 		if ( this->m_Type >= ITEMGET(14,0) && this->m_Type <= ITEMGET(14,8) )	// Potions + Antidote

  00c02	b9 00 1c 00 00	 mov	 ecx, 7168		; 00001c00H
  00c07	8b f0		 mov	 esi, eax
  00c09	8b fa		 mov	 edi, edx
  00c0b	89 75 d8	 mov	 DWORD PTR _Gold$[ebp], esi
  00c0e	89 7d dc	 mov	 DWORD PTR _Gold$[ebp+4], edi
  00c11	66 3b d9	 cmp	 bx, cx
  00c14	0f 8c 1e 05 00
	00		 jl	 $LN148@Value
  00c1a	ba 08 1c 00 00	 mov	 edx, 7176		; 00001c08H
  00c1f	66 3b da	 cmp	 bx, dx
  00c22	0f 8f 10 05 00
	00		 jg	 $LN148@Value

; 2300 : 		{
; 2301 : 			if( this->m_Type == ITEMGET(14,3) || this->m_Type == ITEMGET(14,6) ) //season4 add-on

  00c28	b8 03 1c 00 00	 mov	 eax, 7171		; 00001c03H
  00c2d	66 3b d8	 cmp	 bx, ax
  00c30	74 0a		 je	 SHORT $LN81@Value
  00c32	b9 06 1c 00 00	 mov	 ecx, 7174		; 00001c06H
  00c37	66 3b d9	 cmp	 bx, cx
  00c3a	75 06		 jne	 SHORT $LN82@Value
$LN81@Value:

; 2302 : 			{
; 2303 : 				Gold *= 2; 

  00c3c	0f a4 f7 01	 shld	 edi, esi, 1
  00c40	03 f6		 add	 esi, esi
$LN82@Value:

; 2304 : 			}
; 2305 : 
; 2306 : 			if ( this->m_Level > 0 )

  00c42	8b 55 fc	 mov	 edx, DWORD PTR _this$[ebp]
  00c45	0f b7 42 08	 movzx	 eax, WORD PTR [edx+8]
  00c49	66 85 c0	 test	 ax, ax
  00c4c	7e 28		 jle	 SHORT $LN80@Value

; 2307 : 			{
; 2308 : 				Gold *= (__int64)(pow(2.0f, Level)) ;

  00c4e	8b 45 e4	 mov	 eax, DWORD PTR _Level$[ebp]
  00c51	d9 05 00 00 00
	00		 fld	 DWORD PTR __real@40000000
  00c57	50		 push	 eax
  00c58	51		 push	 ecx
  00c59	d9 1c 24	 fstp	 DWORD PTR [esp]
  00c5c	e8 00 00 00 00	 call	 ??$_Pow_int@M@@YAMMH@Z	; _Pow_int<float>
  00c61	83 c4 08	 add	 esp, 8
  00c64	e8 00 00 00 00	 call	 __ftol2
  00c69	57		 push	 edi
  00c6a	56		 push	 esi
  00c6b	52		 push	 edx
  00c6c	50		 push	 eax
  00c6d	e8 00 00 00 00	 call	 __allmul
  00c72	8b f0		 mov	 esi, eax
  00c74	8b fa		 mov	 edi, edx
$LN80@Value:

; 2309 : 			}
; 2310 : 
; 2311 : 			Gold = Gold/10*10;
; 2312 : 			Gold *= (__int64)this->m_Durability;

  00c76	8b 5d fc	 mov	 ebx, DWORD PTR _this$[ebp]
  00c79	d9 43 24	 fld	 DWORD PTR [ebx+36]
  00c7c	e8 00 00 00 00	 call	 __ftol2
  00c81	6a 00		 push	 0
  00c83	6a 0a		 push	 10			; 0000000aH
  00c85	57		 push	 edi
  00c86	56		 push	 esi
  00c87	89 55 e4	 mov	 DWORD PTR tv1404[ebp], edx
  00c8a	89 45 e8	 mov	 DWORD PTR tv1406[ebp], eax
  00c8d	e8 00 00 00 00	 call	 __alldiv
  00c92	52		 push	 edx
  00c93	50		 push	 eax
  00c94	8b 45 e4	 mov	 eax, DWORD PTR tv1404[ebp]
  00c97	50		 push	 eax
  00c98	8b 45 e8	 mov	 eax, DWORD PTR tv1406[ebp]
  00c9b	50		 push	 eax
  00c9c	e8 00 00 00 00	 call	 __allmul
  00ca1	8b c8		 mov	 ecx, eax
  00ca3	8b f2		 mov	 esi, edx
  00ca5	0f a4 c2 02	 shld	 edx, eax, 2
  00ca9	03 c0		 add	 eax, eax
  00cab	03 c0		 add	 eax, eax
  00cad	03 c1		 add	 eax, ecx
  00caf	13 f2		 adc	 esi, edx
  00cb1	8b ce		 mov	 ecx, esi
  00cb3	0f a4 c1 01	 shld	 ecx, eax, 1

; 2313 : 			this->m_BuyMoney = Gold;
; 2314 : 			this->m_SellMoney = Gold/3;

  00cb7	6a 00		 push	 0
  00cb9	6a 03		 push	 3
  00cbb	03 c0		 add	 eax, eax
  00cbd	51		 push	 ecx
  00cbe	50		 push	 eax
  00cbf	89 43 70	 mov	 DWORD PTR [ebx+112], eax
  00cc2	e8 00 00 00 00	 call	 __alldiv

; 2315 : 			this->m_SellMoney = this->m_SellMoney/10*10;

  00cc7	8b c8		 mov	 ecx, eax
  00cc9	b8 cd cc cc cc	 mov	 eax, -858993459		; cccccccdH
  00cce	f7 e1		 mul	 ecx
  00cd0	c1 ea 03	 shr	 edx, 3
  00cd3	8d 14 92	 lea	 edx, DWORD PTR [edx+edx*4]
  00cd6	5f		 pop	 edi
  00cd7	03 d2		 add	 edx, edx
  00cd9	5e		 pop	 esi
  00cda	89 53 6c	 mov	 DWORD PTR [ebx+108], edx
  00cdd	5b		 pop	 ebx

; 2590 : 	}
; 2591 : }

  00cde	8b e5		 mov	 esp, ebp
  00ce0	5d		 pop	 ebp
  00ce1	c3		 ret	 0
$LN84@Value:

; 2316 : 			return;
; 2317 : 		}
; 2318 : 	}
; 2319 : #ifdef NEWWINGS_6
; 2320 : 	else if ( (Type == 12 && this->m_Type > ITEMGET(12,6) && (this->m_Type < ITEMGET(12,36) && this->m_Type > ITEMGET(12,43)) && (this->m_Type < ITEMGET(12,180) && this->m_Type > ITEMGET(12,220)) ) || Type == 13 || Type == 15 )	//196

  00ce2	83 f9 0c	 cmp	 ecx, 12			; 0000000cH
  00ce5	0f 85 ac 00 00
	00		 jne	 $LN75@Value
  00ceb	b8 06 18 00 00	 mov	 eax, 6150		; 00001806H
  00cf0	66 3b d8	 cmp	 bx, ax
  00cf3	0f 8e a8 00 00
	00		 jle	 $LN333@Value
  00cf9	b8 24 18 00 00	 mov	 eax, 6180		; 00001824H
  00cfe	66 3b d8	 cmp	 bx, ax
  00d01	0f 8d 9a 00 00
	00		 jge	 $LN333@Value
  00d07	b8 2b 18 00 00	 mov	 eax, 6187		; 0000182bH
  00d0c	66 3b d8	 cmp	 bx, ax
  00d0f	0f 8e 8c 00 00
	00		 jle	 $LN333@Value
  00d15	b8 b4 18 00 00	 mov	 eax, 6324		; 000018b4H
  00d1a	66 3b d8	 cmp	 bx, ax
  00d1d	0f 8d 7e 00 00
	00		 jge	 $LN333@Value
  00d23	b8 dc 18 00 00	 mov	 eax, 6364		; 000018dcH
  00d28	66 3b d8	 cmp	 bx, ax
  00d2b	7e 74		 jle	 SHORT $LN333@Value
$LN664@Value:

; 2326 : 
; 2327 : 		for (int u=0;u<this->m_SpecialNum;u++)

  00d2d	8b 4d fc	 mov	 ecx, DWORD PTR _this$[ebp]
  00d30	dd d8		 fstp	 ST(0)
  00d32	8b c2		 mov	 eax, edx
  00d34	0f af c2	 imul	 eax, edx
  00d37	0f af c2	 imul	 eax, edx
  00d3a	83 c0 64	 add	 eax, 100		; 00000064H
  00d3d	99		 cdq
  00d3e	8b f0		 mov	 esi, eax
  00d40	0f b6 41 30	 movzx	 eax, BYTE PTR [ecx+48]
  00d44	8b fa		 mov	 edi, edx
  00d46	89 75 d8	 mov	 DWORD PTR _Gold$[ebp], esi
  00d49	89 7d dc	 mov	 DWORD PTR _Gold$[ebp+4], edi
  00d4c	85 c0		 test	 eax, eax
  00d4e	0f 8e e4 03 00
	00		 jle	 $LN148@Value

; 2321 : #else
; 2322 : 	else if ( (Type == 12 && this->m_Type > ITEMGET(12,6) && (this->m_Type < ITEMGET(12,36) && this->m_Type > ITEMGET(12,43)) && (this->m_Type < ITEMGET(12,180) && this->m_Type > ITEMGET(12,194)) ) || Type == 13 || Type == 15 )
; 2323 : #endif
; 2324 : 	{
; 2325 : 		Gold = Level2*Level2*Level2+100;

  00d54	8b c1		 mov	 eax, ecx
  00d56	0f b6 50 30	 movzx	 edx, BYTE PTR [eax+48]
  00d5a	8d 58 32	 lea	 ebx, DWORD PTR [eax+50]
  00d5d	89 55 e8	 mov	 DWORD PTR tv894[ebp], edx
$LL74@Value:

; 2328 : 		{
; 2329 : 			switch ( this->m_Special[u] )

  00d60	66 83 3b 55	 cmp	 WORD PTR [ebx], 85	; 00000055H
  00d64	75 1e		 jne	 SHORT $LN73@Value

; 2330 : 			{
; 2331 : 				case 0x55:
; 2332 : 					Gold += Gold*this->m_Option3;

  00d66	8b 45 fc	 mov	 eax, DWORD PTR _this$[ebp]
  00d69	0f b6 80 96 00
	00 00		 movzx	 eax, BYTE PTR [eax+150]
  00d70	99		 cdq
  00d71	57		 push	 edi
  00d72	83 c0 01	 add	 eax, 1
  00d75	56		 push	 esi
  00d76	83 d2 00	 adc	 edx, 0
  00d79	52		 push	 edx
  00d7a	50		 push	 eax
  00d7b	e8 00 00 00 00	 call	 __allmul
  00d80	8b f0		 mov	 esi, eax
  00d82	8b fa		 mov	 edi, edx
$LN73@Value:

; 2326 : 
; 2327 : 		for (int u=0;u<this->m_SpecialNum;u++)

  00d84	83 c3 02	 add	 ebx, 2
  00d87	ff 4d e8	 dec	 DWORD PTR tv894[ebp]
  00d8a	75 d4		 jne	 SHORT $LL74@Value

; 2330 : 			{
; 2331 : 				case 0x55:
; 2332 : 					Gold += Gold*this->m_Option3;

  00d8c	89 7d dc	 mov	 DWORD PTR _Gold$[ebp+4], edi
  00d8f	89 75 d8	 mov	 DWORD PTR _Gold$[ebp], esi

; 2333 : 			}
; 2334 : 		}
; 2335 : 	}
; 2336 : 	//
; 2337 : 	else if ( this->m_Type == ITEMGET(14,63) ) //Season 2.5 Firecreacker (from Natasha Seller)

  00d92	e9 a1 03 00 00	 jmp	 $LN148@Value
$LN75@Value:

; 2316 : 			return;
; 2317 : 		}
; 2318 : 	}
; 2319 : #ifdef NEWWINGS_6
; 2320 : 	else if ( (Type == 12 && this->m_Type > ITEMGET(12,6) && (this->m_Type < ITEMGET(12,36) && this->m_Type > ITEMGET(12,43)) && (this->m_Type < ITEMGET(12,180) && this->m_Type > ITEMGET(12,220)) ) || Type == 13 || Type == 15 )	//196

  00d97	83 f9 0d	 cmp	 ecx, 13			; 0000000dH
  00d9a	74 91		 je	 SHORT $LN664@Value
  00d9c	83 f9 0f	 cmp	 ecx, 15			; 0000000fH
  00d9f	74 8c		 je	 SHORT $LN664@Value
$LN333@Value:

; 2333 : 			}
; 2334 : 		}
; 2335 : 	}
; 2336 : 	//
; 2337 : 	else if ( this->m_Type == ITEMGET(14,63) ) //Season 2.5 Firecreacker (from Natasha Seller)

  00da1	b8 3f 1c 00 00	 mov	 eax, 7231		; 00001c3fH
  00da6	66 3b d8	 cmp	 bx, ax

; 2340 : 	}
; 2341 : 	//
; 2342 : 	else if ( this->m_Type == ITEMGET(14,85) || //Season 4 fix

  00da9	0f 84 7a 03 00
	00		 je	 $LN682@Value

; 2343 : 			  this->m_Type == ITEMGET(14,86) ||
; 2344 : 			  this->m_Type == ITEMGET(14,87) ||
; 2345 : 			  this->m_Type == ITEMGET(14,90)) 

  00daf	b8 55 1c 00 00	 mov	 eax, 7253		; 00001c55H
  00db4	66 3b d8	 cmp	 bx, ax
  00db7	0f 84 34 02 00
	00		 je	 $LN588@Value
  00dbd	b8 56 1c 00 00	 mov	 eax, 7254		; 00001c56H
  00dc2	66 3b d8	 cmp	 bx, ax
  00dc5	0f 84 26 02 00
	00		 je	 $LN588@Value
  00dcb	b8 57 1c 00 00	 mov	 eax, 7255		; 00001c57H
  00dd0	66 3b d8	 cmp	 bx, ax
  00dd3	0f 84 18 02 00
	00		 je	 $LN588@Value
  00dd9	b8 5a 1c 00 00	 mov	 eax, 7258		; 00001c5aH
  00dde	66 3b d8	 cmp	 bx, ax
  00de1	0f 84 0a 02 00
	00		 je	 $LN588@Value

; 2350 : 	{
; 2351 : 		switch ( this->m_Level )

  00de7	8b 45 f8	 mov	 eax, DWORD PTR tv1473[ebp]
  00dea	83 c0 fb	 add	 eax, -5			; fffffffbH
  00ded	83 f8 08	 cmp	 eax, 8
  00df0	77 3b		 ja	 SHORT $LN61@Value
  00df2	ff 24 85 00 00
	00 00		 jmp	 DWORD PTR $LN687@Value[eax*4]
$LN60@Value:

; 2352 : 		{
; 2353 : 			case  5:	Level2 +=   4;	break;

  00df9	83 c2 04	 add	 edx, 4
  00dfc	eb 2f		 jmp	 SHORT $LN61@Value
$LN59@Value:

; 2354 : 			case  6:	Level2 +=  10;	break;

  00dfe	83 c2 0a	 add	 edx, 10			; 0000000aH
  00e01	eb 2a		 jmp	 SHORT $LN61@Value
$LN58@Value:

; 2355 : 			case  7:	Level2 +=  25;	break;

  00e03	83 c2 19	 add	 edx, 25			; 00000019H
  00e06	eb 25		 jmp	 SHORT $LN61@Value
$LN57@Value:

; 2356 : 			case  8:	Level2 +=  45;	break;

  00e08	83 c2 2d	 add	 edx, 45			; 0000002dH
  00e0b	eb 20		 jmp	 SHORT $LN61@Value
$LN56@Value:

; 2357 : 			case  9:	Level2 +=  65;	break;

  00e0d	83 c2 41	 add	 edx, 65			; 00000041H
  00e10	eb 1b		 jmp	 SHORT $LN61@Value
$LN55@Value:

; 2358 : 			case 10:	Level2 +=  95;	break;

  00e12	83 c2 5f	 add	 edx, 95			; 0000005fH
  00e15	eb 16		 jmp	 SHORT $LN61@Value
$LN54@Value:

; 2359 : 			case 11:	Level2 += 135;	break;

  00e17	81 c2 87 00 00
	00		 add	 edx, 135		; 00000087H
  00e1d	eb 0e		 jmp	 SHORT $LN61@Value
$LN53@Value:

; 2360 : 			case 12:	Level2 += 185;	break;

  00e1f	81 c2 b9 00 00
	00		 add	 edx, 185		; 000000b9H
  00e25	eb 06		 jmp	 SHORT $LN61@Value
$LN52@Value:

; 2361 : 			case 13:	Level2 += 245;	break;

  00e27	81 c2 f5 00 00
	00		 add	 edx, 245		; 000000f5H
$LN61@Value:

; 2362 : 		}
; 2363 : 
; 2364 : 		if ( Type == 12 && this->m_Type <= ITEMGET(12,6) )	// Wings

  00e2d	83 f9 0c	 cmp	 ecx, 12			; 0000000cH
  00e30	75 71		 jne	 SHORT $LN43@Value
  00e32	b8 06 18 00 00	 mov	 eax, 6150		; 00001806H
  00e37	66 3b d8	 cmp	 bx, ax
  00e3a	7f 17		 jg	 SHORT $LN334@Value
$LN667@Value:

; 2365 : 		{
; 2366 : 			Gold = (Level2+40)*Level2*Level2*11+40000000;

  00e3c	8d 42 28	 lea	 eax, DWORD PTR [edx+40]
  00e3f	0f af c2	 imul	 eax, edx
  00e42	0f af c2	 imul	 eax, edx
  00e45	6b c0 0b	 imul	 eax, 11			; 0000000bH
  00e48	05 00 5a 62 02	 add	 eax, 40000000		; 02625a00H
  00e4d	99		 cdq
  00e4e	e9 a4 00 00 00	 jmp	 $LN666@Value
$LN334@Value:

; 2367 : 		}
; 2368 : 		else if( Type == 12 && (this->m_Type >= ITEMGET(12,36) && this->m_Type <= ITEMGET(12,40)) ) //Third Wings

  00e53	b8 24 18 00 00	 mov	 eax, 6180		; 00001824H
  00e58	66 3b d8	 cmp	 bx, ax
  00e5b	7c 0a		 jl	 SHORT $LN336@Value
  00e5d	b8 28 18 00 00	 mov	 eax, 6184		; 00001828H
  00e62	66 3b d8	 cmp	 bx, ax

; 2369 : 		{
; 2370 : 			Gold = (Level2+40)*Level2*Level2*11+40000000;

  00e65	7e d5		 jle	 SHORT $LN667@Value
$LN336@Value:

; 2371 : 		}
; 2372 : 		else if( Type == 12 && (this->m_Type >= ITEMGET(12,41) && this->m_Type <= ITEMGET(12,43)) ) //Summoner Wings

  00e67	b8 29 18 00 00	 mov	 eax, 6185		; 00001829H
  00e6c	66 3b d8	 cmp	 bx, ax
  00e6f	7c 0a		 jl	 SHORT $LN337@Value
  00e71	b8 2b 18 00 00	 mov	 eax, 6187		; 0000182bH
  00e76	66 3b d8	 cmp	 bx, ax

; 2373 : 		{
; 2374 : 			Gold = (Level2+40)*Level2*Level2*11+40000000;

  00e79	7e c1		 jle	 SHORT $LN667@Value
$LN337@Value:

; 2375 : 		}
; 2376 : 		else if( Type == 12 && (this->m_Type >= ITEMGET(12,180) && this->m_Type <= ITEMGET(12,188)) ) //Custom Wings4

  00e7b	b8 b4 18 00 00	 mov	 eax, 6324		; 000018b4H
  00e80	66 3b d8	 cmp	 bx, ax
  00e83	7c 0a		 jl	 SHORT $LN338@Value
  00e85	b8 bc 18 00 00	 mov	 eax, 6332		; 000018bcH
  00e8a	66 3b d8	 cmp	 bx, ax

; 2377 : 		{
; 2378 : 			Gold = (Level2+40)*Level2*Level2*11+40000000;

  00e8d	7e ad		 jle	 SHORT $LN667@Value
$LN338@Value:

; 2379 : 		}
; 2380 : #ifdef NEWWINGS_6
; 2381 : 		else if( Type == 12 && (this->m_Type >= ITEMGET(12,189) && this->m_Type <= ITEMGET(12,220)) )	//196

  00e8f	b8 bd 18 00 00	 mov	 eax, 6333		; 000018bdH
  00e94	66 3b d8	 cmp	 bx, ax
  00e97	7c 0a		 jl	 SHORT $LN43@Value
  00e99	b8 dc 18 00 00	 mov	 eax, 6364		; 000018dcH
  00e9e	66 3b d8	 cmp	 bx, ax

; 2382 : #else
; 2383 : 		else if( Type == 12 && (this->m_Type >= ITEMGET(12,189) && this->m_Type <= ITEMGET(12,194)) )
; 2384 : #endif
; 2385 : 		{
; 2386 : 			Gold = (Level2+40)*Level2*Level2*11+40000000;
; 2387 : 		}
; 2388 : 		else

  00ea1	7e 99		 jle	 SHORT $LN667@Value
$LN43@Value:

; 2389 : 		{
; 2390 : 			Gold = (Level2+40)*Level2*Level2/8+100;

  00ea3	8d 42 28	 lea	 eax, DWORD PTR [edx+40]
  00ea6	0f af c2	 imul	 eax, edx
  00ea9	0f af c2	 imul	 eax, edx
  00eac	99		 cdq
  00ead	83 e2 07	 and	 edx, 7
  00eb0	03 c2		 add	 eax, edx
  00eb2	c1 f8 03	 sar	 eax, 3
  00eb5	83 c0 64	 add	 eax, 100		; 00000064H
  00eb8	99		 cdq
  00eb9	8b f0		 mov	 esi, eax
  00ebb	8b fa		 mov	 edi, edx
  00ebd	89 75 d8	 mov	 DWORD PTR _Gold$[ebp], esi
  00ec0	89 7d dc	 mov	 DWORD PTR _Gold$[ebp+4], edi

; 2391 : 		}
; 2392 : 
; 2393 : 		if ( Type >= 0 && Type <=  6 )

  00ec3	85 c9		 test	 ecx, ecx
  00ec5	78 3a		 js	 SHORT $LN345@Value
  00ec7	83 f9 06	 cmp	 ecx, 6
  00eca	7f 35		 jg	 SHORT $LN345@Value

; 2394 : 		{
; 2395 : 			if ( p->TwoHand == 0 )

  00ecc	8b 4d f4	 mov	 ecx, DWORD PTR _p$[ebp]
  00ecf	80 79 21 00	 cmp	 BYTE PTR [ecx+33], 0
  00ed3	75 2c		 jne	 SHORT $LN345@Value

; 2396 : 			{
; 2397 : 				Gold = Gold*80/100;

  00ed5	8b d6		 mov	 edx, esi
  00ed7	8b c7		 mov	 eax, edi
  00ed9	0f a4 f7 02	 shld	 edi, esi, 2
  00edd	03 f6		 add	 esi, esi
  00edf	03 f6		 add	 esi, esi
  00ee1	03 d6		 add	 edx, esi
  00ee3	13 c7		 adc	 eax, edi
  00ee5	0f a4 d0 04	 shld	 eax, edx, 4
  00ee9	6a 00		 push	 0
  00eeb	6a 64		 push	 100			; 00000064H
  00eed	c1 e2 04	 shl	 edx, 4
  00ef0	50		 push	 eax
  00ef1	52		 push	 edx
  00ef2	e8 00 00 00 00	 call	 __alldiv
$LN666@Value:
  00ef7	8b fa		 mov	 edi, edx
  00ef9	8b f0		 mov	 esi, eax
  00efb	89 7d dc	 mov	 DWORD PTR _Gold$[ebp+4], edi
  00efe	89 75 d8	 mov	 DWORD PTR _Gold$[ebp], esi
$LN345@Value:

; 2398 : 			}
; 2399 : 		}
; 2400 : 
; 2401 : 		for ( int g=0;g<this->m_SpecialNum;g++)

  00f01	8b 4d fc	 mov	 ecx, DWORD PTR _this$[ebp]
  00f04	0f b6 41 30	 movzx	 eax, BYTE PTR [ecx+48]
  00f08	85 c0		 test	 eax, eax
  00f0a	0f 8e 26 02 00
	00		 jle	 $LN610@Value
  00f10	dd 05 00 00 00
	00		 fld	 QWORD PTR __real@4018000000000000
  00f16	8b c1		 mov	 eax, ecx
  00f18	0f b6 50 30	 movzx	 edx, BYTE PTR [eax+48]
  00f1c	dd 05 00 00 00
	00		 fld	 QWORD PTR __real@402c000000000000
  00f22	dd 05 00 00 00
	00		 fld	 QWORD PTR __real@403c000000000000
  00f28	8d 58 32	 lea	 ebx, DWORD PTR [eax+50]
  00f2b	dd 05 00 00 00
	00		 fld	 QWORD PTR __real@404c000000000000
  00f31	89 55 e8	 mov	 DWORD PTR tv937[ebp], edx
  00f34	dd 05 00 00 00
	00		 fld	 QWORD PTR __real@4039000000000000
$LN39@Value:

; 2402 : 		{
; 2403 : 			switch ( this->m_Special[g] )

  00f3a	0f b7 03	 movzx	 eax, WORD PTR [ebx]
  00f3d	83 c0 ee	 add	 eax, -18		; ffffffeeH
  00f40	83 f8 5f	 cmp	 eax, 95			; 0000005fH
  00f43	0f 87 8d 00 00
	00		 ja	 $LN38@Value
  00f49	0f b6 80 00 00
	00 00		 movzx	 eax, BYTE PTR $LN339@Value[eax]
  00f50	ff 24 85 00 00
	00 00		 jmp	 DWORD PTR $LN688@Value[eax*4]
$LN34@Value:

; 2404 : 			{
; 2405 : 				case 18:
; 2406 : 				case 19:
; 2407 : 				case 20:
; 2408 : 				case 21:
; 2409 : 				case 22:
; 2410 : 				case 23:
; 2411 : 				case 24:
; 2412 : 				case 56:
; 2413 : 					Gold += (__int64)(Gold * 1.5);

  00f57	df 6d d8	 fild	 QWORD PTR _Gold$[ebp]
  00f5a	dc 0d 00 00 00
	00		 fmul	 QWORD PTR __real@3ff8000000000000

; 2414 : 					break;

  00f60	eb 65		 jmp	 SHORT $LN668@Value
$LN33@Value:

; 2415 : 
; 2416 : 				case 80:
; 2417 : 				case 81:
; 2418 : 				case 83:
; 2419 : 				case 85:
; 2420 : 				case 113: //Summoner
; 2421 : 
; 2422 : 					switch ( this->m_Option3 )

  00f62	8b 4d fc	 mov	 ecx, DWORD PTR _this$[ebp]
  00f65	0f b6 81 96 00
	00 00		 movzx	 eax, BYTE PTR [ecx+150]
  00f6c	48		 dec	 eax
  00f6d	83 f8 03	 cmp	 eax, 3
  00f70	77 64		 ja	 SHORT $LN38@Value
  00f72	ff 24 85 00 00
	00 00		 jmp	 DWORD PTR $LN689@Value[eax*4]
$LN30@Value:

; 2423 : 					{
; 2424 : 						case 1:
; 2425 : 							Gold += (__int64)(Gold * 6.0 / 10.0);

  00f79	df 6d d8	 fild	 QWORD PTR _Gold$[ebp]
  00f7c	d8 cd		 fmul	 ST(0), ST(5)
  00f7e	d8 f6		 fdiv	 ST(0), ST(6)

; 2426 : 							break;

  00f80	eb 45		 jmp	 SHORT $LN668@Value
$LN28@Value:

; 2427 : 
; 2428 : 						case 2:
; 2429 : 							Gold += (__int64)(Gold * 14.0 / 10.0);
; 2430 : 							break;
; 2431 : 
; 2432 : 						case 3:
; 2433 : 							Gold += (__int64)(Gold * 28.0 / 10.0);

  00f82	df 6d d8	 fild	 QWORD PTR _Gold$[ebp]
  00f85	d8 cb		 fmul	 ST(0), ST(3)
  00f87	d8 f6		 fdiv	 ST(0), ST(6)

; 2434 : 							break;

  00f89	eb 3c		 jmp	 SHORT $LN668@Value
$LN27@Value:

; 2435 : 
; 2436 : 						case 4:
; 2437 : 							Gold += (__int64)(Gold * 56.0 / 10.0);

  00f8b	df 6d d8	 fild	 QWORD PTR _Gold$[ebp]
  00f8e	d8 ca		 fmul	 ST(0), ST(2)
  00f90	d8 f6		 fdiv	 ST(0), ST(6)

; 2438 : 							break;
; 2439 : 					}
; 2440 : 					break;

  00f92	eb 33		 jmp	 SHORT $LN668@Value
$LN26@Value:

; 2441 : 
; 2442 : 				case 82:
; 2443 : 
; 2444 : 					switch ( this->m_Option3 )

  00f94	8b 55 fc	 mov	 edx, DWORD PTR _this$[ebp]
  00f97	0f b6 82 96 00
	00 00		 movzx	 eax, BYTE PTR [edx+150]
  00f9e	48		 dec	 eax
  00f9f	83 f8 03	 cmp	 eax, 3
  00fa2	77 32		 ja	 SHORT $LN38@Value
  00fa4	ff 24 85 00 00
	00 00		 jmp	 DWORD PTR $LN690@Value[eax*4]
$LN22@Value:

; 2445 : 					{
; 2446 : 					case 1:
; 2447 : 							Gold += (__int64)(Gold * 6.0 / 10.0);
; 2448 : 							break;
; 2449 : 
; 2450 : 						case 2:
; 2451 : 							Gold += (__int64)(Gold * 14.0 / 10.0);

  00fab	df 6d d8	 fild	 QWORD PTR _Gold$[ebp]
  00fae	d8 cc		 fmul	 ST(0), ST(4)
  00fb0	d8 f6		 fdiv	 ST(0), ST(6)

; 2452 : 							break;

  00fb2	eb 13		 jmp	 SHORT $LN668@Value
$LN18@Value:

; 2453 : 
; 2454 : 						case 3:
; 2455 : 							Gold += (__int64)(Gold * 28.0 / 10.0);
; 2456 : 							break;
; 2457 : 
; 2458 : 						case 4:
; 2459 : 							Gold += (__int64)(Gold * 56.0 / 10.0);
; 2460 : 							break;
; 2461 : 					}
; 2462 : 					break;
; 2463 : 
; 2464 : 				case 84:
; 2465 : 					Gold += (__int64)(Gold * 25.0 / 100.0);
; 2466 : 					break;
; 2467 : 
; 2468 : 				case 86:
; 2469 : 				case 87:
; 2470 : 				case 88:
; 2471 : 				case 89:
; 2472 : 				case 90:
; 2473 : 				case 91:
; 2474 : 				case 92:
; 2475 : 				case 93:
; 2476 : 				case 94:
; 2477 : 				case 95:
; 2478 : 				case 96:
; 2479 : 				case 97:
; 2480 : 				case 98:
; 2481 : 				case 99:
; 2482 : 					Gold += Gold;

  00fb4	0f a4 f7 01	 shld	 edi, esi, 1
  00fb8	03 f6		 add	 esi, esi

; 2483 : 					break;

  00fba	eb 14		 jmp	 SHORT $LN669@Value
$LN17@Value:

; 2484 : 
; 2485 : 				case 100:
; 2486 : 				case 101:
; 2487 : 				case 102:
; 2488 : 				case 103:
; 2489 : 				case 104:
; 2490 : 					//Season 2.5 add-on third wing option
; 2491 : 				case 108:
; 2492 : 				case 109:
; 2493 : 				case 110:
; 2494 : 				case 111:
; 2495 : 					Gold += (__int64)(Gold * 25.0 / 100.0);

  00fbc	df 6d d8	 fild	 QWORD PTR _Gold$[ebp]
  00fbf	d8 c9		 fmul	 ST(0), ST(1)
  00fc1	dc 35 00 00 00
	00		 fdiv	 QWORD PTR __real@4059000000000000
$LN668@Value:
  00fc7	e8 00 00 00 00	 call	 __ftol2
  00fcc	03 f0		 add	 esi, eax
  00fce	13 fa		 adc	 edi, edx
$LN669@Value:
  00fd0	89 7d dc	 mov	 DWORD PTR _Gold$[ebp+4], edi
  00fd3	89 75 d8	 mov	 DWORD PTR _Gold$[ebp], esi
$LN38@Value:

; 2398 : 			}
; 2399 : 		}
; 2400 : 
; 2401 : 		for ( int g=0;g<this->m_SpecialNum;g++)

  00fd6	83 c3 02	 add	 ebx, 2
  00fd9	ff 4d e8	 dec	 DWORD PTR tv937[ebp]
  00fdc	0f 85 58 ff ff
	ff		 jne	 $LN39@Value
  00fe2	dd dd		 fstp	 ST(5)
  00fe4	dd db		 fstp	 ST(3)
  00fe6	dd d9		 fstp	 ST(1)
  00fe8	dd d8		 fstp	 ST(0)
  00fea	dd d8		 fstp	 ST(0)
  00fec	e9 45 01 00 00	 jmp	 $LN610@Value
$LN588@Value:

; 2346 : 	{
; 2347 : 		Gold = (int)this->m_Durability * 300;

  00ff1	8b 45 fc	 mov	 eax, DWORD PTR _this$[ebp]
  00ff4	dd d8		 fstp	 ST(0)
  00ff6	d9 40 24	 fld	 DWORD PTR [eax+36]
$LN673@Value:
  00ff9	e8 00 00 00 00	 call	 __ftol2_sse
  00ffe	69 c0 2c 01 00
	00		 imul	 eax, 300		; 0000012cH
  01004	99		 cdq
  01005	8b f0		 mov	 esi, eax
  01007	8b fa		 mov	 edi, edx
  01009	89 75 d8	 mov	 DWORD PTR _Gold$[ebp], esi
  0100c	89 7d dc	 mov	 DWORD PTR _Gold$[ebp+4], edi

; 2348 : 	}
; 2349 : 	else

  0100f	e9 24 01 00 00	 jmp	 $LN148@Value
$LN555@Value:

; 2291 : 	{
; 2292 : 		Gold = 9000;

  01014	be 28 23 00 00	 mov	 esi, 9000		; 00002328H
  01019	e9 10 01 00 00	 jmp	 $LN670@Value
$LN531@Value:

; 2280 : 	{
; 2281 : 		Gold = 3000000;

  0101e	be c0 c6 2d 00	 mov	 esi, 3000000		; 002dc6c0H

; 2282 : 	}
; 2283 : 	else if ( this->m_Type == ITEMGET(14,23) || //Quest Items since Second Evolution

  01023	e9 06 01 00 00	 jmp	 $LN670@Value
$LN525@Value:

; 2251 : 	{
; 2252 : 		switch ( this->m_Level )

  01028	8b 45 f8	 mov	 eax, DWORD PTR tv1473[ebp]
  0102b	dd d8		 fstp	 ST(0)
  0102d	48		 dec	 eax
  0102e	83 f8 05	 cmp	 eax, 5
  01031	77 3d		 ja	 SHORT $LN92@Value
  01033	ff 24 85 00 00
	00 00		 jmp	 DWORD PTR $LN691@Value[eax*4]
$LN98@Value:

; 2253 : 		{
; 2254 : 			case 1:
; 2255 : 				Gold = 500000;

  0103a	be 20 a1 07 00	 mov	 esi, 500000		; 0007a120H
  0103f	33 ff		 xor	 edi, edi
  01041	89 75 d8	 mov	 DWORD PTR _Gold$[ebp], esi
  01044	89 7d dc	 mov	 DWORD PTR _Gold$[ebp+4], edi
  01047	e9 ec 00 00 00	 jmp	 $LN148@Value
$LN97@Value:

; 2256 : 				break;
; 2257 : 				//season 4 add-on
; 2258 : 			case 2:
; 2259 : 				Gold = 600000;

  0104c	be c0 27 09 00	 mov	 esi, 600000		; 000927c0H
  01051	33 ff		 xor	 edi, edi
  01053	89 75 d8	 mov	 DWORD PTR _Gold$[ebp], esi
  01056	89 7d dc	 mov	 DWORD PTR _Gold$[ebp+4], edi
  01059	e9 da 00 00 00	 jmp	 $LN148@Value
$LN93@Value:

; 2260 : 				break;
; 2261 : 			case 3:
; 2262 : 				Gold = 800000;
; 2263 : 				break;
; 2264 : 			case 4:
; 2265 : 				Gold = 1000000;
; 2266 : 				break;
; 2267 : 			case 5:
; 2268 : 				Gold = 1200000;
; 2269 : 				break;
; 2270 : 			case 6:
; 2271 : 				Gold = 1400000;

  0105e	be c0 5c 15 00	 mov	 esi, 1400000		; 00155cc0H
  01063	33 ff		 xor	 edi, edi
  01065	89 75 d8	 mov	 DWORD PTR _Gold$[ebp], esi
  01068	89 7d dc	 mov	 DWORD PTR _Gold$[ebp+4], edi
  0106b	e9 c8 00 00 00	 jmp	 $LN148@Value
$LN92@Value:

; 2272 : 				break;
; 2273 : 			default:
; 2274 : 				Gold = 9000;

  01070	be 28 23 00 00	 mov	 esi, 9000		; 00002328H
  01075	33 ff		 xor	 edi, edi
  01077	89 75 d8	 mov	 DWORD PTR _Gold$[ebp], esi
  0107a	89 7d dc	 mov	 DWORD PTR _Gold$[ebp+4], edi

; 2275 : 				break;
; 2276 : 		}
; 2277 : 	}
; 2278 : 	else if ( this->m_Type == ITEMGET(13,52) || //Condor Flame and Condor Feather

  0107d	e9 b6 00 00 00	 jmp	 $LN148@Value
$LN501@Value:

; 2225 : 	{
; 2226 : 		Gold = (__int64)(((50.0f) * this->m_Durability) * 3.0f);

  01082	8b 4d fc	 mov	 ecx, DWORD PTR _this$[ebp]
  01085	dd d8		 fstp	 ST(0)
  01087	d9 41 24	 fld	 DWORD PTR [ecx+36]
  0108a	dc 0d 00 00 00
	00		 fmul	 QWORD PTR __real@4049000000000000
$LN677@Value:
  01090	dc 0d 00 00 00
	00		 fmul	 QWORD PTR __real@4008000000000000
  01096	e8 00 00 00 00	 call	 __ftol2
  0109b	8b f0		 mov	 esi, eax
  0109d	8b fa		 mov	 edi, edx
  0109f	89 75 d8	 mov	 DWORD PTR _Gold$[ebp], esi
  010a2	89 7d dc	 mov	 DWORD PTR _Gold$[ebp+4], edi
  010a5	e9 8e 00 00 00	 jmp	 $LN148@Value
$LN462@Value:

; 2143 : 	{
; 2144 : 		switch ( this->m_Level )

  010aa	8b 45 f8	 mov	 eax, DWORD PTR tv1473[ebp]
  010ad	dd d8		 fstp	 ST(0)
  010af	48		 dec	 eax
  010b0	83 f8 07	 cmp	 eax, 7
  010b3	0f 87 1a f6 ff
	ff		 ja	 $LN199@Value
  010b9	ff 24 85 00 00
	00 00		 jmp	 DWORD PTR $LN692@Value[eax*4]
$LN147@Value:

; 2145 : 		{
; 2146 : 			case 1:
; 2147 : 				Gold = 10000;

  010c0	be 10 27 00 00	 mov	 esi, 10000		; 00002710H
  010c5	33 ff		 xor	 edi, edi
  010c7	89 75 d8	 mov	 DWORD PTR _Gold$[ebp], esi
  010ca	89 7d dc	 mov	 DWORD PTR _Gold$[ebp+4], edi

; 2148 : 				break;

  010cd	eb 69		 jmp	 SHORT $LN148@Value
$LN146@Value:

; 2149 : 			case 2:
; 2150 : 				Gold = 50000;

  010cf	be 50 c3 00 00	 mov	 esi, 50000		; 0000c350H
  010d4	33 ff		 xor	 edi, edi
  010d6	89 75 d8	 mov	 DWORD PTR _Gold$[ebp], esi
  010d9	89 7d dc	 mov	 DWORD PTR _Gold$[ebp+4], edi

; 2151 : 				break;

  010dc	eb 5a		 jmp	 SHORT $LN148@Value
$LN145@Value:

; 2152 : 			case 3:
; 2153 : 				Gold = 100000;

  010de	be a0 86 01 00	 mov	 esi, 100000		; 000186a0H
  010e3	33 ff		 xor	 edi, edi
  010e5	89 75 d8	 mov	 DWORD PTR _Gold$[ebp], esi
  010e8	89 7d dc	 mov	 DWORD PTR _Gold$[ebp+4], edi

; 2154 : 				break;

  010eb	eb 4b		 jmp	 SHORT $LN148@Value
$LN144@Value:

; 2155 : 			case 4:
; 2156 : 				Gold = 300000;

  010ed	be e0 93 04 00	 mov	 esi, 300000		; 000493e0H
  010f2	33 ff		 xor	 edi, edi
  010f4	89 75 d8	 mov	 DWORD PTR _Gold$[ebp], esi
  010f7	89 7d dc	 mov	 DWORD PTR _Gold$[ebp+4], edi

; 2157 : 				break;

  010fa	eb 3c		 jmp	 SHORT $LN148@Value
$LN143@Value:

; 2158 : 			case 5:
; 2159 : 				Gold = 500000;

  010fc	be 20 a1 07 00	 mov	 esi, 500000		; 0007a120H
  01101	33 ff		 xor	 edi, edi
  01103	89 75 d8	 mov	 DWORD PTR _Gold$[ebp], esi
  01106	89 7d dc	 mov	 DWORD PTR _Gold$[ebp+4], edi

; 2160 : 				break;

  01109	eb 2d		 jmp	 SHORT $LN148@Value
$LN142@Value:

; 2161 : 			case 6:
; 2162 : 				Gold = 800000;

  0110b	be 00 35 0c 00	 mov	 esi, 800000		; 000c3500H
  01110	33 ff		 xor	 edi, edi
  01112	89 75 d8	 mov	 DWORD PTR _Gold$[ebp], esi
  01115	89 7d dc	 mov	 DWORD PTR _Gold$[ebp+4], edi

; 2163 : 				break;

  01118	eb 1e		 jmp	 SHORT $LN148@Value
$LN141@Value:

; 2164 : 			case 7:
; 2165 : 				Gold = 1000000;

  0111a	be 40 42 0f 00	 mov	 esi, 1000000		; 000f4240H
  0111f	33 ff		 xor	 edi, edi
  01121	89 75 d8	 mov	 DWORD PTR _Gold$[ebp], esi
  01124	89 7d dc	 mov	 DWORD PTR _Gold$[ebp+4], edi

; 2166 : 				break;

  01127	eb 0f		 jmp	 SHORT $LN148@Value
$LN682@Value:

; 2338 : 	{
; 2339 : 		Gold = 200000;

  01129	be 40 0d 03 00	 mov	 esi, 200000		; 00030d40H
$LN670@Value:

; 1857 : 	{
; 1858 : 		Gold = 6000000;

  0112e	33 ff		 xor	 edi, edi
$LN679@Value:
  01130	89 75 d8	 mov	 DWORD PTR _Gold$[ebp], esi
  01133	89 7d dc	 mov	 DWORD PTR _Gold$[ebp+4], edi
$LN610@Value:

; 2167 : 			case 8:
; 2168 : 				Gold = 1200000;
; 2169 : 				break;
; 2170 : 			default:
; 2171 : 				Gold = 15000;

  01136	dd d8		 fstp	 ST(0)
$LN148@Value:

; 2496 : 					break;
; 2497 : 
; 2498 : 			}
; 2499 : 		}
; 2500 : 	}
; 2501 : 
; 2502 : 	if ( g_kItemSystemFor380.Is380OptionItem(this) == TRUE )

  01138	8b 5d fc	 mov	 ebx, DWORD PTR _this$[ebp]
  0113b	53		 push	 ebx
  0113c	b9 00 00 00 00	 mov	 ecx, OFFSET ?g_kItemSystemFor380@@3VCItemSystemFor380@@A ; g_kItemSystemFor380
  01141	e8 00 00 00 00	 call	 ?Is380OptionItem@CItemSystemFor380@@QAEHPBVCItem@@@Z ; CItemSystemFor380::Is380OptionItem
  01146	83 f8 01	 cmp	 eax, 1
  01149	75 1e		 jne	 SHORT $LN16@Value

; 2503 : 	{
; 2504 : 		Gold += (__int64)(Gold * 16.0 / 100.0);

  0114b	df 6d d8	 fild	 QWORD PTR _Gold$[ebp]
  0114e	dc 0d 00 00 00
	00		 fmul	 QWORD PTR __real@4030000000000000
  01154	dc 35 00 00 00
	00		 fdiv	 QWORD PTR __real@4059000000000000
  0115a	e8 00 00 00 00	 call	 __ftol2
  0115f	03 f0		 add	 esi, eax
  01161	13 fa		 adc	 edi, edx
  01163	89 75 d8	 mov	 DWORD PTR _Gold$[ebp], esi
  01166	89 7d dc	 mov	 DWORD PTR _Gold$[ebp+4], edi
$LN16@Value:

; 2505 : 	}
; 2506 : 
; 2507 : 	if ( g_SocketOption.IsSocketOption(this) == 1 ) //season 4 add-on

  01169	53		 push	 ebx
  0116a	b9 00 00 00 00	 mov	 ecx, OFFSET ?g_SocketOption@@3VCSocketOption@@A ; g_SocketOption
  0116f	e8 00 00 00 00	 call	 ?IsSocketOption@CSocketOption@@QAEEPAVCItem@@@Z ; CSocketOption::IsSocketOption
  01174	3c 01		 cmp	 al, 1
  01176	0f 85 8a 00 00
	00		 jne	 $LN342@Value

; 2508 : 	{
; 2509 : 		int loc15 = 0;

  0117c	33 c0		 xor	 eax, eax
  0117e	8d 93 cc 00 00
	00		 lea	 edx, DWORD PTR [ebx+204]
  01184	89 45 f8	 mov	 DWORD PTR _loc15$213303[ebp], eax

; 2510 : 		int loc16 = 0;
; 2511 : 		DWORD loc17 = 0; //17

  01187	89 45 f0	 mov	 DWORD PTR _loc17$213305[ebp], eax
  0118a	89 55 f4	 mov	 DWORD PTR tv2575[ebp], edx
  0118d	c7 45 e8 05 00
	00 00		 mov	 DWORD PTR tv456[ebp], 5
  01194	8d 48 01	 lea	 ecx, DWORD PTR [eax+1]
$LL14@Value:

; 2514 : 		{
; 2515 : 			if(this->m_SocketOption[loc18] != 0xFF)

  01197	8b 45 f4	 mov	 eax, DWORD PTR tv2575[ebp]
  0119a	0f b6 00	 movzx	 eax, BYTE PTR [eax]
  0119d	3c ff		 cmp	 al, 255			; 000000ffH
  0119f	74 1a		 je	 SHORT $LN13@Value

; 2516 : 			{
; 2517 : 				if(this->m_SocketOption[loc18] != 0xFE)

  011a1	3c fe		 cmp	 al, 254			; 000000feH
  011a3	74 13		 je	 SHORT $LN10@Value

; 2518 : 				{
; 2519 : 					loc17 += g_SocketOption.GetValue(this->m_SocketOption[loc18]);

  011a5	50		 push	 eax
  011a6	b9 00 00 00 00	 mov	 ecx, OFFSET ?g_SocketOption@@3VCSocketOption@@A ; g_SocketOption
  011ab	e8 00 00 00 00	 call	 ?GetValue@CSocketOption@@QAEHE@Z ; CSocketOption::GetValue
  011b0	01 45 f0	 add	 DWORD PTR _loc17$213305[ebp], eax
  011b3	b9 01 00 00 00	 mov	 ecx, 1
$LN10@Value:

; 2520 : 				}
; 2521 : 				loc15+=1;

  011b8	01 4d f8	 add	 DWORD PTR _loc15$213303[ebp], ecx
$LN13@Value:

; 2512 : 
; 2513 : 		for(int loc18 = 0; loc18 < 5; loc18++)

  011bb	01 4d f4	 add	 DWORD PTR tv2575[ebp], ecx
  011be	29 4d e8	 sub	 DWORD PTR tv456[ebp], ecx
  011c1	75 d4		 jne	 SHORT $LL14@Value

; 2522 : 			}
; 2523 : 		}
; 2524 : 
; 2525 : 		Gold += (DWORD)( (((float)(Gold) * (float)(loc15*8))) / 10.0f);

  011c3	8b 4d f8	 mov	 ecx, DWORD PTR _loc15$213303[ebp]

; 2526 : 		Gold += (DWORD)loc17;

  011c6	d9 7d fe	 fnstcw	 WORD PTR tv1519[ebp]
  011c9	8d 14 cd 00 00
	00 00		 lea	 edx, DWORD PTR [ecx*8]
  011d0	89 55 e4	 mov	 DWORD PTR tv1524[ebp], edx
  011d3	db 45 e4	 fild	 DWORD PTR tv1524[ebp]
  011d6	0f b7 45 fe	 movzx	 eax, WORD PTR tv1519[ebp]
  011da	df 6d d8	 fild	 QWORD PTR _Gold$[ebp]
  011dd	0d 00 0c 00 00	 or	 eax, 3072		; 00000c00H
  011e2	89 45 e4	 mov	 DWORD PTR tv1516[ebp], eax
  011e5	33 c9		 xor	 ecx, ecx
  011e7	de c9		 fmulp	 ST(1), ST(0)
  011e9	33 d2		 xor	 edx, edx
  011eb	dc 35 00 00 00
	00		 fdiv	 QWORD PTR __real@4024000000000000
  011f1	d9 6d e4	 fldcw	 WORD PTR tv1516[ebp]
  011f4	df 7d d8	 fistp	 QWORD PTR tv1514[ebp]
  011f7	8b 45 d8	 mov	 eax, DWORD PTR tv1514[ebp]
  011fa	03 45 f0	 add	 eax, DWORD PTR _loc17$213305[ebp]
  011fd	d9 6d fe	 fldcw	 WORD PTR tv1519[ebp]
  01200	13 ca		 adc	 ecx, edx
  01202	03 f0		 add	 esi, eax
  01204	13 f9		 adc	 edi, ecx
$LN342@Value:

; 2527 : 	}
; 2528 : 
; 2529 : 	if ( Gold > 3000000000 )

  01206	85 ff		 test	 edi, edi
  01208	7c 16		 jl	 SHORT $LN9@Value
  0120a	7f 08		 jg	 SHORT $LN340@Value
  0120c	81 fe 00 5e d0
	b2		 cmp	 esi, -1294967296	; b2d05e00H
  01212	76 0c		 jbe	 SHORT $LN9@Value
$LN340@Value:

; 2530 : 	{
; 2531 : 		Gold = 3000000000;

  01214	be 00 5e d0 b2	 mov	 esi, -1294967296	; b2d05e00H
  01219	c7 45 dc 00 00
	00 00		 mov	 DWORD PTR _Gold$[ebp+4], 0
$LN9@Value:

; 2532 : 	}
; 2533 : 
; 2534 : 	this->m_BuyMoney = (DWORD)Gold;
; 2535 : 	this->m_SellMoney = (DWORD)Gold;
; 2536 : 	
; 2537 : 	this->m_SellMoney = this->m_SellMoney/3;

  01220	b8 ab aa aa aa	 mov	 eax, -1431655765	; aaaaaaabH
  01225	f7 e6		 mul	 esi
  01227	d1 ea		 shr	 edx, 1
  01229	89 73 70	 mov	 DWORD PTR [ebx+112], esi
  0122c	89 53 6c	 mov	 DWORD PTR [ebx+108], edx

; 2538 : 
; 2539 : 	if ( (this->m_Type < ITEMGET(14,0) || this->m_Type >  ITEMGET(14,8)) &&
; 2540 : 		  this->m_Type != ITEMGET(13,20) &&
; 2541 : 		  this->m_Type != ITEMGET(14,28) &&
; 2542 : 		  this->m_Type != ITEMGET(14,29) &&
; 2543 : 		  this->m_Type != ITEMGET(14,21) &&
; 2544 : 		  this->m_Type != ITEMGET(13,15) &&
; 2545 : 		  this->m_Type != ITEMGET(13,16) &&
; 2546 : 		  this->m_Type != ITEMGET(13,17) &&
; 2547 : 		  this->m_Type != ITEMGET(13,18) &&
; 2548 : 		  this->m_Type != ITEMGET(13,11) &&
; 2549 : 		  this->m_Type != ITEMGET(13,7)  &&
; 2550 : 		  this->m_Type != ITEMGET(13,32) &&
; 2551 : 		  this->m_Type != ITEMGET(13,33) &&
; 2552 : 		  this->m_Type != ITEMGET(13,34) &&
; 2553 : 		  this->m_Type != ITEMGET(13,35) &&
; 2554 : 		  this->m_Type != ITEMGET(13,36) &&
; 2555 : 		  this->m_Type != ITEMGET(13,37) &&
; 2556 : 		  this->m_Type != ITEMGET(14,45) &&
; 2557 : 		  this->m_Type != ITEMGET(14,46) &&
; 2558 : 		  this->m_Type != ITEMGET(14,47) &&
; 2559 : 		  this->m_Type != ITEMGET(14,48) &&
; 2560 : 		  this->m_Type != ITEMGET(14,49) &&
; 2561 : 		  this->m_Type != ITEMGET(14,50) &&
; 2562 : 		  this->m_Type != ITEMGET(14,51) &&  //Season 2.5 Star of Christmas
; 2563 : 		  this->m_Type != ITEMGET(14,100) && //Season 4.5 Lucky Coin
; 2564 : 		  this->m_Type == ITEMGET(14,85) && //S4
; 2565 : 		  this->m_Type == ITEMGET(14,86) && //S4
; 2566 : 		  this->m_Type == ITEMGET(14,87) && //S4
; 2567 : 		  this->m_Type == ITEMGET(14,90) ) //S4
; 2568 : 	{
; 2569 : 		float lc15 = 1.0f-(this->m_Durability / this->m_BaseDurability);
; 2570 : 		int lc16 = (int)(this->m_SellMoney*0.6*lc15);
; 2571 : 		this->m_SellMoney -= lc16;
; 2572 : 	}
; 2573 : 
; 2574 : 	if ( this->m_SellMoney >= 1000 )

  0122f	81 fa e8 03 00
	00		 cmp	 edx, 1000		; 000003e8H
  01235	72 12		 jb	 SHORT $LN6@Value

; 2575 : 	{
; 2576 : 		this->m_SellMoney = this->m_SellMoney/100*100;

  01237	b8 1f 85 eb 51	 mov	 eax, 1374389535		; 51eb851fH
  0123c	f7 e2		 mul	 edx
  0123e	c1 ea 05	 shr	 edx, 5
  01241	6b d2 64	 imul	 edx, 100		; 00000064H
  01244	89 53 6c	 mov	 DWORD PTR [ebx+108], edx
  01247	eb 17		 jmp	 SHORT $LN4@Value
$LN6@Value:

; 2577 : 	}
; 2578 : 	else if ( this->m_SellMoney >= 100 )

  01249	83 fa 64	 cmp	 edx, 100		; 00000064H
  0124c	72 12		 jb	 SHORT $LN4@Value

; 2579 : 	{
; 2580 : 		this->m_SellMoney = this->m_SellMoney/10*10;

  0124e	b8 cd cc cc cc	 mov	 eax, -858993459		; cccccccdH
  01253	f7 e2		 mul	 edx
  01255	c1 ea 03	 shr	 edx, 3
  01258	8d 04 92	 lea	 eax, DWORD PTR [edx+edx*4]
  0125b	03 c0		 add	 eax, eax
  0125d	89 43 6c	 mov	 DWORD PTR [ebx+108], eax
$LN4@Value:

; 2581 : 	}
; 2582 : 
; 2583 : 	if ( this->m_BuyMoney >= 1000 )

  01260	81 fe e8 03 00
	00		 cmp	 esi, 1000		; 000003e8H
  01266	72 17		 jb	 SHORT $LN3@Value

; 2584 : 	{
; 2585 : 		this->m_BuyMoney = this->m_BuyMoney/100*100;

  01268	b8 1f 85 eb 51	 mov	 eax, 1374389535		; 51eb851fH
  0126d	f7 e6		 mul	 esi
  0126f	c1 ea 05	 shr	 edx, 5
  01272	6b d2 64	 imul	 edx, 100		; 00000064H
  01275	5f		 pop	 edi
  01276	5e		 pop	 esi
  01277	89 53 70	 mov	 DWORD PTR [ebx+112], edx
  0127a	5b		 pop	 ebx

; 2590 : 	}
; 2591 : }

  0127b	8b e5		 mov	 esp, ebp
  0127d	5d		 pop	 ebp
  0127e	c3		 ret	 0
$LN3@Value:

; 2586 : 	}
; 2587 : 	else if ( this->m_BuyMoney >= 100 )

  0127f	83 fe 64	 cmp	 esi, 100		; 00000064H
  01282	72 12		 jb	 SHORT $LN346@Value

; 2588 : 	{
; 2589 : 		this->m_BuyMoney = this->m_BuyMoney/10*10;

  01284	b8 cd cc cc cc	 mov	 eax, -858993459		; cccccccdH
  01289	f7 e6		 mul	 esi
  0128b	c1 ea 03	 shr	 edx, 3
  0128e	8d 0c 92	 lea	 ecx, DWORD PTR [edx+edx*4]
  01291	03 c9		 add	 ecx, ecx
  01293	89 4b 70	 mov	 DWORD PTR [ebx+112], ecx
$LN346@Value:
  01296	5f		 pop	 edi
  01297	5e		 pop	 esi
$LN1@Value:
  01298	5b		 pop	 ebx

; 2590 : 	}
; 2591 : }

  01299	8b e5		 mov	 esp, ebp
  0129b	5d		 pop	 ebp
  0129c	c3		 ret	 0
  0129d	8d 49 00	 npad	 3
$LN683@Value:
  012a0	00 00 00 00	 DD	 $LN147@Value
  012a4	00 00 00 00	 DD	 $LN210@Value
  012a8	00 00 00 00	 DD	 $LN209@Value
  012ac	00 00 00 00	 DD	 $LN208@Value
  012b0	00 00 00 00	 DD	 $LN98@Value
  012b4	00 00 00 00	 DD	 $LN206@Value
  012b8	00 00 00 00	 DD	 $LN205@Value
$LN684@Value:
  012bc	00 00 00 00	 DD	 $LN199@Value
  012c0	00 00 00 00	 DD	 $LN198@Value
  012c4	00 00 00 00	 DD	 $LN161@Value
  012c8	00 00 00 00	 DD	 $LN196@Value
  012cc	00 00 00 00	 DD	 $LN195@Value
  012d0	00 00 00 00	 DD	 $LN194@Value
  012d4	00 00 00 00	 DD	 $LN193@Value
$LN685@Value:
  012d8	00 00 00 00	 DD	 $LN187@Value
  012dc	00 00 00 00	 DD	 $LN186@Value
  012e0	00 00 00 00	 DD	 $LN185@Value
  012e4	00 00 00 00	 DD	 $LN184@Value
  012e8	00 00 00 00	 DD	 $LN183@Value
  012ec	00 00 00 00	 DD	 $LN208@Value
  012f0	00 00 00 00	 DD	 $LN184@Value
$LN686@Value:
  012f4	00 00 00 00	 DD	 $LN161@Value
  012f8	00 00 00 00	 DD	 $LN160@Value
  012fc	00 00 00 00	 DD	 $LN159@Value
  01300	00 00 00 00	 DD	 $LN158@Value
  01304	00 00 00 00	 DD	 $LN157@Value
  01308	00 00 00 00	 DD	 $LN156@Value
  0130c	00 00 00 00	 DD	 $LN155@Value
  01310	00 00 00 00	 DD	 $LN154@Value
$LN687@Value:
  01314	00 00 00 00	 DD	 $LN60@Value
  01318	00 00 00 00	 DD	 $LN59@Value
  0131c	00 00 00 00	 DD	 $LN58@Value
  01320	00 00 00 00	 DD	 $LN57@Value
  01324	00 00 00 00	 DD	 $LN56@Value
  01328	00 00 00 00	 DD	 $LN55@Value
  0132c	00 00 00 00	 DD	 $LN54@Value
  01330	00 00 00 00	 DD	 $LN53@Value
  01334	00 00 00 00	 DD	 $LN52@Value
$LN688@Value:
  01338	00 00 00 00	 DD	 $LN34@Value
  0133c	00 00 00 00	 DD	 $LN33@Value
  01340	00 00 00 00	 DD	 $LN26@Value
  01344	00 00 00 00	 DD	 $LN17@Value
  01348	00 00 00 00	 DD	 $LN18@Value
  0134c	00 00 00 00	 DD	 $LN38@Value
$LN339@Value:
  01350	00		 DB	 0
  01351	00		 DB	 0
  01352	00		 DB	 0
  01353	00		 DB	 0
  01354	00		 DB	 0
  01355	00		 DB	 0
  01356	00		 DB	 0
  01357	05		 DB	 5
  01358	05		 DB	 5
  01359	05		 DB	 5
  0135a	05		 DB	 5
  0135b	05		 DB	 5
  0135c	05		 DB	 5
  0135d	05		 DB	 5
  0135e	05		 DB	 5
  0135f	05		 DB	 5
  01360	05		 DB	 5
  01361	05		 DB	 5
  01362	05		 DB	 5
  01363	05		 DB	 5
  01364	05		 DB	 5
  01365	05		 DB	 5
  01366	05		 DB	 5
  01367	05		 DB	 5
  01368	05		 DB	 5
  01369	05		 DB	 5
  0136a	05		 DB	 5
  0136b	05		 DB	 5
  0136c	05		 DB	 5
  0136d	05		 DB	 5
  0136e	05		 DB	 5
  0136f	05		 DB	 5
  01370	05		 DB	 5
  01371	05		 DB	 5
  01372	05		 DB	 5
  01373	05		 DB	 5
  01374	05		 DB	 5
  01375	05		 DB	 5
  01376	00		 DB	 0
  01377	05		 DB	 5
  01378	05		 DB	 5
  01379	05		 DB	 5
  0137a	05		 DB	 5
  0137b	05		 DB	 5
  0137c	05		 DB	 5
  0137d	05		 DB	 5
  0137e	05		 DB	 5
  0137f	05		 DB	 5
  01380	05		 DB	 5
  01381	05		 DB	 5
  01382	05		 DB	 5
  01383	05		 DB	 5
  01384	05		 DB	 5
  01385	05		 DB	 5
  01386	05		 DB	 5
  01387	05		 DB	 5
  01388	05		 DB	 5
  01389	05		 DB	 5
  0138a	05		 DB	 5
  0138b	05		 DB	 5
  0138c	05		 DB	 5
  0138d	05		 DB	 5
  0138e	01		 DB	 1
  0138f	01		 DB	 1
  01390	02		 DB	 2
  01391	01		 DB	 1
  01392	03		 DB	 3
  01393	01		 DB	 1
  01394	04		 DB	 4
  01395	04		 DB	 4
  01396	04		 DB	 4
  01397	04		 DB	 4
  01398	04		 DB	 4
  01399	04		 DB	 4
  0139a	04		 DB	 4
  0139b	04		 DB	 4
  0139c	04		 DB	 4
  0139d	04		 DB	 4
  0139e	04		 DB	 4
  0139f	04		 DB	 4
  013a0	04		 DB	 4
  013a1	04		 DB	 4
  013a2	03		 DB	 3
  013a3	03		 DB	 3
  013a4	03		 DB	 3
  013a5	03		 DB	 3
  013a6	03		 DB	 3
  013a7	05		 DB	 5
  013a8	05		 DB	 5
  013a9	05		 DB	 5
  013aa	03		 DB	 3
  013ab	03		 DB	 3
  013ac	03		 DB	 3
  013ad	03		 DB	 3
  013ae	05		 DB	 5
  013af	01		 DB	 1
$LN689@Value:
  013b0	00 00 00 00	 DD	 $LN30@Value
  013b4	00 00 00 00	 DD	 $LN22@Value
  013b8	00 00 00 00	 DD	 $LN28@Value
  013bc	00 00 00 00	 DD	 $LN27@Value
$LN690@Value:
  013c0	00 00 00 00	 DD	 $LN30@Value
  013c4	00 00 00 00	 DD	 $LN22@Value
  013c8	00 00 00 00	 DD	 $LN28@Value
  013cc	00 00 00 00	 DD	 $LN27@Value
$LN691@Value:
  013d0	00 00 00 00	 DD	 $LN98@Value
  013d4	00 00 00 00	 DD	 $LN97@Value
  013d8	00 00 00 00	 DD	 $LN206@Value
  013dc	00 00 00 00	 DD	 $LN205@Value
  013e0	00 00 00 00	 DD	 $LN194@Value
  013e4	00 00 00 00	 DD	 $LN93@Value
$LN692@Value:
  013e8	00 00 00 00	 DD	 $LN147@Value
  013ec	00 00 00 00	 DD	 $LN146@Value
  013f0	00 00 00 00	 DD	 $LN145@Value
  013f4	00 00 00 00	 DD	 $LN144@Value
  013f8	00 00 00 00	 DD	 $LN143@Value
  013fc	00 00 00 00	 DD	 $LN142@Value
  01400	00 00 00 00	 DD	 $LN141@Value
  01404	00 00 00 00	 DD	 $LN140@Value
?Value@CItem@@QAEXXZ ENDP				; CItem::Value
_TEXT	ENDS
PUBLIC	__real@3e4ccccd
PUBLIC	__real@3e99999a
PUBLIC	__real@3f000000
PUBLIC	__real@41200000
PUBLIC	__real@3fc99999a0000000
PUBLIC	__real@3fd3333340000000
PUBLIC	__real@3fe0000000000000
PUBLIC	??_C@_0BO@NENAGJKH@error?9L1?5?3?5ItemIndex?5error?5?$CFd?$AA@ ; `string'
PUBLIC	?Convert@CItem@@QAEXHEEEEEEPAEEEE@Z		; CItem::Convert
EXTRN	?ApplySocketEffectforWeapons@CSocketOption@@QAEXPAVCItem@@@Z:PROC ; CSocketOption::ApplySocketEffectforWeapons
EXTRN	?GetItemEffectValue@CJewelOfHarmonySystem@@QAEHPAVCItem@@H@Z:PROC ; CJewelOfHarmonySystem::GetItemEffectValue
EXTRN	?_GetItemType@CJewelOfHarmonySystem@@QAEHPAVCItem@@@Z:PROC ; CJewelOfHarmonySystem::_GetItemType
EXTRN	?GetItemStrengthenOption@CJewelOfHarmonySystem@@QAEEPAVCItem@@@Z:PROC ; CJewelOfHarmonySystem::GetItemStrengthenOption
EXTRN	?IsActive@CJewelOfHarmonySystem@@QAEHPAVCItem@@@Z:PROC ; CJewelOfHarmonySystem::IsActive
EXTRN	?g_kJewelOfHarmonySystem@@3VCJewelOfHarmonySystem@@A:BYTE ; g_kJewelOfHarmonySystem
EXTRN	?ZtExcellentSocket@@3HA:DWORD			; ZtExcellentSocket
EXTRN	?ZtAncientSocket@@3HA:DWORD			; ZtAncientSocket
EXTRN	?ZtExcellentAncient@@3HA:DWORD			; ZtExcellentAncient
EXTRN	?IsSetItem@CSetItemOption@@QAEHH@Z:PROC		; CSetItemOption::IsSetItem
EXTRN	?gSetItemOption@@3VCSetItemOption@@A:BYTE	; gSetItemOption
EXTRN	?LogAddC@@3P6AXEPADZZA:DWORD			; LogAddC
;	COMDAT __real@3e4ccccd
CONST	SEGMENT
__real@3e4ccccd DD 03e4ccccdr			; 0.2
CONST	ENDS
;	COMDAT __real@3e99999a
CONST	SEGMENT
__real@3e99999a DD 03e99999ar			; 0.3
CONST	ENDS
;	COMDAT __real@3f000000
CONST	SEGMENT
__real@3f000000 DD 03f000000r			; 0.5
CONST	ENDS
;	COMDAT __real@41200000
CONST	SEGMENT
__real@41200000 DD 041200000r			; 10
CONST	ENDS
;	COMDAT __real@3fc99999a0000000
CONST	SEGMENT
__real@3fc99999a0000000 DQ 03fc99999a0000000r	; 0.2
CONST	ENDS
;	COMDAT __real@3fd3333340000000
CONST	SEGMENT
__real@3fd3333340000000 DQ 03fd3333340000000r	; 0.3
CONST	ENDS
;	COMDAT __real@3fe0000000000000
CONST	SEGMENT
__real@3fe0000000000000 DQ 03fe0000000000000r	; 0.5
CONST	ENDS
;	COMDAT ??_C@_0BO@NENAGJKH@error?9L1?5?3?5ItemIndex?5error?5?$CFd?$AA@
CONST	SEGMENT
??_C@_0BO@NENAGJKH@error?9L1?5?3?5ItemIndex?5error?5?$CFd?$AA@ DB 'error-'
	DB	'L1 : ItemIndex error %d', 00H		; `string'
; Function compile flags: /Ogtp
CONST	ENDS
;	COMDAT ?Convert@CItem@@QAEXHEEEEEEPAEEEE@Z
_TEXT	SEGMENT
_SOptionStatValue$ = -8					; size = 4
tv4267 = -4						; size = 4
__type$ = 8						; size = 4
_type$ = 8						; size = 4
_Option1$ = 12						; size = 1
_Option2$ = 16						; size = 1
_Option3$ = 20						; size = 1
tv3955 = 24						; size = 4
tv3946 = 24						; size = 4
tv3937 = 24						; size = 4
tv3928 = 24						; size = 4
_Attribute2$ = 24					; size = 1
tv3954 = 26						; size = 2
tv3945 = 26						; size = 2
tv3936 = 26						; size = 2
tv3927 = 26						; size = 2
tv4555 = 27						; size = 1
tv4404 = 28						; size = 4
tv4400 = 28						; size = 4
tv4396 = 28						; size = 4
tv4257 = 28						; size = 4
tv3951 = 28						; size = 4
tv3949 = 28						; size = 4
tv3942 = 28						; size = 4
tv3940 = 28						; size = 4
tv3933 = 28						; size = 4
tv3931 = 28						; size = 4
tv3924 = 28						; size = 4
tv3922 = 28						; size = 4
_ItemLevel$ = 28					; size = 4
_SetOption$ = 28					; size = 1
tv4457 = 32						; size = 4
_ItemEffectEx$ = 32					; size = 1
_SocketOption$ = 36					; size = 4
_SocketIndex$ = 40					; size = 1
_PeriodItemOption$ = 44					; size = 1
_iChaosItem$ = 48					; size = 4
_DbVersion$ = 48					; size = 1
?Convert@CItem@@QAEXHEEEEEEPAEEEE@Z PROC		; CItem::Convert, COMDAT
; _this$ = ecx

; 118  : {

  00000	55		 push	 ebp
  00001	8b ec		 mov	 ebp, esp
  00003	83 ec 08	 sub	 esp, 8
  00006	53		 push	 ebx

; 119  : 	int _type; //2
; 120  : 	int ItemLevel; //3
; 121  : 	LPITEM_ATTRIBUTE p; //4
; 122  : 	int SOption; //5
; 123  : 	int SOptionStatValue; //6
; 124  : 	
; 125  : 	_type = type;

  00007	8b 5d 08	 mov	 ebx, DWORD PTR _type$[ebp]
  0000a	56		 push	 esi
  0000b	8b f1		 mov	 esi, ecx

; 126  : 
; 127  : 	if ( (DbVersion ) == 0)

  0000d	8a 4d 30	 mov	 cl, BYTE PTR _DbVersion$[ebp]
  00010	57		 push	 edi
  00011	8b fb		 mov	 edi, ebx
  00013	89 7d 08	 mov	 DWORD PTR __type$[ebp], edi
  00016	84 c9		 test	 cl, cl
  00018	75 21		 jne	 SHORT $LN392@Convert

; 128  : 	{
; 129  : 		_type=(type/MAX_TYPE_ITEMS*MAX_SUBTYPE_ITEMS)+(type % MAX_TYPE_ITEMS);

  0001a	8b c3		 mov	 eax, ebx
  0001c	99		 cdq
  0001d	83 e2 0f	 and	 edx, 15			; 0000000fH
  00020	8d 3c 02	 lea	 edi, DWORD PTR [edx+eax]
  00023	c1 ff 04	 sar	 edi, 4
  00026	8b c3		 mov	 eax, ebx
  00028	c1 e7 09	 shl	 edi, 9
  0002b	25 0f 00 00 80	 and	 eax, -2147483633	; 8000000fH
  00030	79 05		 jns	 SHORT $LN582@Convert
  00032	48		 dec	 eax
  00033	83 c8 f0	 or	 eax, -16		; fffffff0H
  00036	40		 inc	 eax
$LN582@Convert:
  00037	03 f8		 add	 edi, eax
  00039	eb 25		 jmp	 SHORT $LN584@Convert
$LN392@Convert:

; 130  : 
; 131  : 	}
; 132  : 	else if ( DbVersion <= 2 )

  0003b	80 f9 02	 cmp	 cl, 2
  0003e	77 23		 ja	 SHORT $LN390@Convert

; 133  : 	{
; 134  : 		_type = (type/32*MAX_SUBTYPE_ITEMS) + (type % 32 );

  00040	8b c3		 mov	 eax, ebx
  00042	99		 cdq
  00043	83 e2 1f	 and	 edx, 31			; 0000001fH
  00046	8d 3c 02	 lea	 edi, DWORD PTR [edx+eax]
  00049	c1 ff 05	 sar	 edi, 5
  0004c	8b d3		 mov	 edx, ebx
  0004e	c1 e7 09	 shl	 edi, 9
  00051	81 e2 1f 00 00
	80		 and	 edx, -2147483617	; 8000001fH
  00057	79 05		 jns	 SHORT $LN583@Convert
  00059	4a		 dec	 edx
  0005a	83 ca e0	 or	 edx, -32		; ffffffe0H
  0005d	42		 inc	 edx
$LN583@Convert:
  0005e	03 fa		 add	 edi, edx
$LN584@Convert:
  00060	89 7d 08	 mov	 DWORD PTR __type$[ebp], edi
$LN390@Convert:

; 135  : 	}
; 136  : 	
; 137  : 	if ( _type >MAX_ITEMS-1)

  00063	81 ff ff 1f 00
	00		 cmp	 edi, 8191		; 00001fffH
  00069	7e 14		 jle	 SHORT $LN389@Convert

; 138  : 	{
; 139  : 		LogAddC(2, "error-L1 : ItemIndex error %d", _type);

  0006b	57		 push	 edi
  0006c	68 00 00 00 00	 push	 OFFSET ??_C@_0BO@NENAGJKH@error?9L1?5?3?5ItemIndex?5error?5?$CFd?$AA@
  00071	6a 02		 push	 2
  00073	ff 15 00 00 00
	00		 call	 DWORD PTR ?LogAddC@@3P6AXEPADZZA ; LogAddC
  00079	8a 4d 30	 mov	 cl, BYTE PTR _DbVersion$[ebp]
  0007c	83 c4 0c	 add	 esp, 12			; 0000000cH
$LN389@Convert:

; 140  : 	}
; 141  : 	
; 142  : 	p=&ItemAttribute[_type];

  0007f	8b c7		 mov	 eax, edi
  00081	6b c0 70	 imul	 eax, 112		; 00000070H

; 143  : 	this->m_serial=ItemAttribute[_type].Serial ;

  00084	8a 90 25 00 00
	00		 mov	 dl, BYTE PTR ?ItemAttribute@@3PAUITEM_ATTRIBUTE@@A[eax+37]
  0008a	89 45 fc	 mov	 DWORD PTR tv4267[ebp], eax
  0008d	88 56 04	 mov	 BYTE PTR [esi+4], dl

; 144  : 	this->m_Type=type;

  00090	66 89 5e 06	 mov	 WORD PTR [esi+6], bx

; 145  : 	
; 146  : 	if ( (DbVersion ) <= 2)

  00094	80 f9 02	 cmp	 cl, 2
  00097	77 04		 ja	 SHORT $LN388@Convert

; 147  : 	{
; 148  : 		this->m_Type=_type;

  00099	66 89 7e 06	 mov	 WORD PTR [esi+6], di
$LN388@Convert:

; 149  : 	}
; 150  : 
; 151  : 	this->m_NewOption =Attribute2;

  0009d	8a 4d 18	 mov	 cl, BYTE PTR _Attribute2$[ebp]
  000a0	88 8e 97 00 00
	00		 mov	 BYTE PTR [esi+151], cl

; 152  : 	
; 153  : 	if (p->OptionFlag  == 0)

  000a6	80 b8 26 00 00
	00 00		 cmp	 BYTE PTR ?ItemAttribute@@3PAUITEM_ATTRIBUTE@@A[eax+38], 0
  000ad	75 07		 jne	 SHORT $LN387@Convert

; 154  : 	{
; 155  : 		this->m_NewOption=0;

  000af	c6 86 97 00 00
	00 00		 mov	 BYTE PTR [esi+151], 0
$LN387@Convert:

; 156  : 	}
; 157  : 	if ( (_type >= MuItem::miWINGS_SPIRIT && _type <= MuItem::miWINGS_DARKNESS)
; 158  : 			|| _type == MuItem::miCAPE_LORD || _type == MuItem::miWINGS_CURSE
; 159  : 			|| _type == MuItem::miWINGS_DESPAIR || _type == MuItem::miWINGS_DIMENSION
; 160  : 			|| _type == MuItem::miCAPE_FIGTHER || _type == MuItem::miCAPE_OVERRULE
; 161  : 			|| (_type >= MuItem::miWINGS_STORM && _type <= MuItem::miCAPE_EMPEROR)
; 162  : #ifdef NEWWINGS_2_5
; 163  : 			|| IS_NEWWINGS_2_5(_type) 
; 164  : #endif
; 165  : #ifdef NEWWINGS_4
; 166  : 			|| IS_NEWWINGS_4(_type) 
; 167  : #endif
; 168  : #ifdef NEWWINGS_5
; 169  : 			|| IS_NEWWINGS_5(_type) 
; 170  : #endif
; 171  : #ifdef NEWWINGS_6
; 172  : 			|| IS_NEWWINGS_6(_type) 
; 173  : #endif
; 174  : 			)

  000b6	81 ff 03 18 00
	00		 cmp	 edi, 6147		; 00001803H
  000bc	7c 0c		 jl	 SHORT $LN384@Convert
  000be	81 ff 06 18 00
	00		 cmp	 edi, 6150		; 00001806H
  000c4	0f 8e a8 00 00
	00		 jle	 $LN385@Convert
$LN384@Convert:
  000ca	81 ff 1e 1a 00
	00		 cmp	 edi, 6686		; 00001a1eH
  000d0	0f 84 9c 00 00
	00		 je	 $LN385@Convert
  000d6	81 ff 29 18 00
	00		 cmp	 edi, 6185		; 00001829H
  000dc	0f 84 90 00 00
	00		 je	 $LN385@Convert
  000e2	81 ff 2a 18 00
	00		 cmp	 edi, 6186		; 0000182aH
  000e8	0f 84 84 00 00
	00		 je	 $LN385@Convert
  000ee	81 ff 2b 18 00
	00		 cmp	 edi, 6187		; 0000182bH
  000f4	74 7c		 je	 SHORT $LN385@Convert
  000f6	81 ff 31 18 00
	00		 cmp	 edi, 6193		; 00001831H
  000fc	74 74		 je	 SHORT $LN385@Convert
  000fe	81 ff 32 18 00
	00		 cmp	 edi, 6194		; 00001832H
  00104	74 6c		 je	 SHORT $LN385@Convert
  00106	81 ff 24 18 00
	00		 cmp	 edi, 6180		; 00001824H
  0010c	7c 08		 jl	 SHORT $LN383@Convert
  0010e	81 ff 28 18 00
	00		 cmp	 edi, 6184		; 00001828H
  00114	7e 5c		 jle	 SHORT $LN385@Convert
$LN383@Convert:
  00116	81 ff ba 18 00
	00		 cmp	 edi, 6330		; 000018baH
  0011c	7c 0f		 jl	 SHORT $LN498@Convert
  0011e	33 c0		 xor	 eax, eax
  00120	81 ff bc 18 00
	00		 cmp	 edi, 6332		; 000018bcH
  00126	0f 9e c0	 setle	 al
  00129	85 c0		 test	 eax, eax
  0012b	75 45		 jne	 SHORT $LN385@Convert
$LN498@Convert:
  0012d	81 ff b4 18 00
	00		 cmp	 edi, 6324		; 000018b4H
  00133	7c 0f		 jl	 SHORT $LN542@Convert
  00135	33 c0		 xor	 eax, eax
  00137	81 ff b9 18 00
	00		 cmp	 edi, 6329		; 000018b9H
  0013d	0f 9e c0	 setle	 al
  00140	85 c0		 test	 eax, eax
  00142	75 2e		 jne	 SHORT $LN385@Convert
$LN542@Convert:
  00144	81 ff bd 18 00
	00		 cmp	 edi, 6333		; 000018bdH
  0014a	7c 0f		 jl	 SHORT $LN546@Convert
  0014c	33 c0		 xor	 eax, eax
  0014e	81 ff c2 18 00
	00		 cmp	 edi, 6338		; 000018c2H
  00154	0f 9e c0	 setle	 al
  00157	85 c0		 test	 eax, eax
  00159	75 17		 jne	 SHORT $LN385@Convert
$LN546@Convert:
  0015b	81 ff c3 18 00
	00		 cmp	 edi, 6339		; 000018c3H
  00161	7c 13		 jl	 SHORT $LN386@Convert
  00163	33 c0		 xor	 eax, eax
  00165	81 ff dc 18 00
	00		 cmp	 edi, 6364		; 000018dcH
  0016b	0f 9e c0	 setle	 al
  0016e	85 c0		 test	 eax, eax
  00170	74 04		 je	 SHORT $LN386@Convert
$LN385@Convert:

; 175  : 	{
; 176  : 		Attribute2=0;

  00172	c6 45 18 00	 mov	 BYTE PTR _Attribute2$[ebp], 0
$LN386@Convert:

; 177  : 	}
; 178  : 
; 179  : 	if ( _type == ITEMGET(13,37) )

  00176	81 ff 25 1a 00
	00		 cmp	 edi, 6693		; 00001a25H
  0017c	75 04		 jne	 SHORT $LN382@Convert

; 180  : 	{
; 181  : 		Attribute2 = 0;

  0017e	c6 45 18 00	 mov	 BYTE PTR _Attribute2$[ebp], 0
$LN382@Convert:

; 182  : 	}
; 183  : 
; 184  : 	SetOption = SetOption & 15;

  00182	8a 45 1c	 mov	 al, BYTE PTR _SetOption$[ebp]
  00185	24 0f		 and	 al, 15			; 0000000fH

; 185  : 		
; 186  : 	SOption=SetOption & 3;

  00187	0f b6 d8	 movzx	 ebx, al
  0018a	8b fb		 mov	 edi, ebx
  0018c	83 e7 03	 and	 edi, 3
  0018f	88 45 1c	 mov	 BYTE PTR _SetOption$[ebp], al

; 187  : 	SOptionStatValue=0;

  00192	c7 45 f8 00 00
	00 00		 mov	 DWORD PTR _SOptionStatValue$[ebp], 0

; 188  : 
; 189  : 	if (SOption != 1 && SOption != 2)

  00199	83 ff 01	 cmp	 edi, 1
  0019c	74 07		 je	 SHORT $LN381@Convert
  0019e	83 ff 02	 cmp	 edi, 2
  001a1	74 02		 je	 SHORT $LN381@Convert

; 190  : 	{
; 191  : 		SOption=0;

  001a3	33 ff		 xor	 edi, edi
$LN381@Convert:

; 192  : 	}
; 193  : 
; 194  : 	if ( (( (SetOption>>2) & 3) != 1) && ( ((SetOption>>2) & 3) != 2) )

  001a5	c0 e8 02	 shr	 al, 2
  001a8	24 03		 and	 al, 3
  001aa	3c 01		 cmp	 al, 1
  001ac	74 06		 je	 SHORT $LN380@Convert
  001ae	3c 02		 cmp	 al, 2
  001b0	74 02		 je	 SHORT $LN380@Convert

; 195  : 	{
; 196  : 		SOption=0;

  001b2	33 ff		 xor	 edi, edi
$LN380@Convert:

; 197  : 	}
; 198  : 
; 199  : 	if ( gSetItemOption.IsSetItem(_type) != 0 && SetOption != 255 && SOption != 0)

  001b4	8b 55 08	 mov	 edx, DWORD PTR __type$[ebp]
  001b7	52		 push	 edx
  001b8	b9 00 00 00 00	 mov	 ecx, OFFSET ?gSetItemOption@@3VCSetItemOption@@A ; gSetItemOption
  001bd	e8 00 00 00 00	 call	 ?IsSetItem@CSetItemOption@@QAEHH@Z ; CSetItemOption::IsSetItem
  001c2	85 c0		 test	 eax, eax
  001c4	74 34		 je	 SHORT $LN379@Convert
  001c6	8a 45 1c	 mov	 al, BYTE PTR _SetOption$[ebp]
  001c9	3c ff		 cmp	 al, 255			; 000000ffH
  001cb	74 2d		 je	 SHORT $LN379@Convert
  001cd	85 ff		 test	 edi, edi
  001cf	74 29		 je	 SHORT $LN379@Convert

; 200  : 	{
; 201  : 		this->m_SetOption = SetOption;

  001d1	88 86 ae 00 00
	00		 mov	 BYTE PTR [esi+174], al

; 202  : 		if ( this->m_SetOption != 0 )

  001d7	84 c0		 test	 al, al
  001d9	74 26		 je	 SHORT $LN376@Convert

; 203  : 		{
; 204  : 			//int ZtExcellentAncient = GetPrivateProfileInt("Items","ExcellentAncient",1,"..\\Data\\ZtData\\CommonServer.ini");
; 205  : 			if(!ZtExcellentAncient)

  001db	83 3d 00 00 00
	00 00		 cmp	 DWORD PTR ?ZtExcellentAncient@@3HA, 0 ; ZtExcellentAncient
  001e2	75 07		 jne	 SHORT $LN377@Convert

; 206  : 				this->m_NewOption = 0;

  001e4	c6 86 97 00 00
	00 00		 mov	 BYTE PTR [esi+151], 0
$LN377@Convert:

; 207  : 			Attribute2 = 0;
; 208  : 			SOptionStatValue = (SetOption>>2)&3;

  001eb	c1 eb 02	 shr	 ebx, 2
  001ee	83 e3 03	 and	 ebx, 3
  001f1	c6 45 18 00	 mov	 BYTE PTR _Attribute2$[ebp], 0
  001f5	89 5d f8	 mov	 DWORD PTR _SOptionStatValue$[ebp], ebx

; 209  : 		}
; 210  : 	}
; 211  : 	else

  001f8	eb 07		 jmp	 SHORT $LN376@Convert
$LN379@Convert:

; 212  : 	{
; 213  : 		this->m_SetOption = 0;

  001fa	c6 86 ae 00 00
	00 00		 mov	 BYTE PTR [esi+174], 0
$LN376@Convert:

; 214  : 	}
; 215  : 	
; 216  : 	this->m_ItemOptionEx = ItemEffectEx;

  00201	8a 45 20	 mov	 al, BYTE PTR _ItemEffectEx$[ebp]

; 217  : 
; 218  : 	//Socket Season 4 OPTION #START!
; 219  : 	if(g_SocketOption.IsActive(this) == 1)

  00204	56		 push	 esi
  00205	b9 00 00 00 00	 mov	 ecx, OFFSET ?g_SocketOption@@3VCSocketOption@@A ; g_SocketOption
  0020a	88 86 ca 00 00
	00		 mov	 BYTE PTR [esi+202], al
  00210	e8 00 00 00 00	 call	 ?IsActive@CSocketOption@@QAEEPAVCItem@@@Z ; CSocketOption::IsActive
  00215	3c 01		 cmp	 al, 1
  00217	0f 85 86 00 00
	00		 jne	 $LN375@Convert

; 220  : 	{
; 221  : 		if(SocketOption != 0)

  0021d	8b 45 24	 mov	 eax, DWORD PTR _SocketOption$[ebp]
  00220	85 c0		 test	 eax, eax
  00222	74 3a		 je	 SHORT $LN449@Convert

; 222  : 		{
; 223  : 			this->m_SocketOptionIndex = SocketIndex;

  00224	8a 4d 28	 mov	 cl, BYTE PTR _SocketIndex$[ebp]
  00227	88 8e cb 00 00
	00		 mov	 BYTE PTR [esi+203], cl

; 224  : 
; 225  : 			for(int i = 0; i < 5; i++) //7
; 226  : 			{
; 227  : 				this->m_SocketOption[i] = SocketOption[i];

  0022d	0f b6 10	 movzx	 edx, BYTE PTR [eax]
  00230	88 96 cc 00 00
	00		 mov	 BYTE PTR [esi+204], dl
  00236	0f b6 48 01	 movzx	 ecx, BYTE PTR [eax+1]
  0023a	88 8e cd 00 00
	00		 mov	 BYTE PTR [esi+205], cl
  00240	0f b6 50 02	 movzx	 edx, BYTE PTR [eax+2]
  00244	88 96 ce 00 00
	00		 mov	 BYTE PTR [esi+206], dl
  0024a	0f b6 48 03	 movzx	 ecx, BYTE PTR [eax+3]
  0024e	88 8e cf 00 00
	00		 mov	 BYTE PTR [esi+207], cl
  00254	0f b6 50 04	 movzx	 edx, BYTE PTR [eax+4]
  00258	88 96 d0 00 00
	00		 mov	 BYTE PTR [esi+208], dl
$LN449@Convert:

; 228  : 			}
; 229  : 		}
; 230  : 
; 231  : 		if(g_SocketOption.IsSocketOption(this) == 1)

  0025e	56		 push	 esi
  0025f	b9 00 00 00 00	 mov	 ecx, OFFSET ?g_SocketOption@@3VCSocketOption@@A ; g_SocketOption
  00264	e8 00 00 00 00	 call	 ?IsSocketOption@CSocketOption@@QAEEPAVCItem@@@Z ; CSocketOption::IsSocketOption
  00269	3c 01		 cmp	 al, 1
  0026b	75 2d		 jne	 SHORT $LN370@Convert

; 232  : 		{	//Zero SET
; 233  : 			//this->m_ItemOptionEx = 0;
; 234  : 			//int ZtAncientSocket = GetPrivateProfileInt("Items","AncientSocket",1,"..\\Data\\ZtData\\CommonServer.ini");
; 235  : 			if(!ZtAncientSocket)

  0026d	83 3d 00 00 00
	00 00		 cmp	 DWORD PTR ?ZtAncientSocket@@3HA, 0 ; ZtAncientSocket
  00274	75 07		 jne	 SHORT $LN369@Convert

; 236  : 				this->m_SetOption = 0;

  00276	c6 86 ae 00 00
	00 00		 mov	 BYTE PTR [esi+174], 0
$LN369@Convert:

; 237  : 			
; 238  : 			//int ZtExcellentSocket = GetPrivateProfileInt("Items","ExcellentSocket",1,"..\\Data\\ZtData\\CommonServer.ini");
; 239  : 			if(!ZtExcellentSocket)

  0027d	83 3d 00 00 00
	00 00		 cmp	 DWORD PTR ?ZtExcellentSocket@@3HA, 0 ; ZtExcellentSocket
  00284	75 0b		 jne	 SHORT $LN478@Convert

; 240  : 			{
; 241  : 				Attribute2 = 0;

  00286	c6 45 18 00	 mov	 BYTE PTR _Attribute2$[ebp], 0

; 242  : 				this->m_NewOption = 0;

  0028a	c6 86 97 00 00
	00 00		 mov	 BYTE PTR [esi+151], 0
$LN478@Convert:

; 243  : 			}
; 244  : 				
; 245  : 			this->m_JewelOfHarmonyOption = 0;

  00291	c6 86 c4 00 00
	00 00		 mov	 BYTE PTR [esi+196], 0

; 246  : 		}
; 247  : 		else

  00298	eb 1f		 jmp	 SHORT $LN365@Convert
$LN370@Convert:

; 248  : 		{
; 249  : 			//Zero SET
; 250  : 			this->m_SocketOptionIndex = 0;

  0029a	c6 86 cb 00 00
	00 00		 mov	 BYTE PTR [esi+203], 0

; 251  : 		}
; 252  : 	}
; 253  : 	else

  002a1	eb 16		 jmp	 SHORT $LN365@Convert
$LN375@Convert:

; 254  : 	{
; 255  : 		//Zero SET
; 256  : 		this->m_SocketOptionIndex = 0;
; 257  : 
; 258  : 		for(int i = 0; i < 5; i++) //8
; 259  : 		{
; 260  : 			this->m_SocketOption[i] = 0xFF;

  002a3	83 c8 ff	 or	 eax, -1
  002a6	c6 86 cb 00 00
	00 00		 mov	 BYTE PTR [esi+203], 0
  002ad	89 86 cc 00 00
	00		 mov	 DWORD PTR [esi+204], eax
  002b3	88 86 d0 00 00
	00		 mov	 BYTE PTR [esi+208], al
$LN365@Convert:

; 261  : 		}
; 262  : 	}
; 263  : #ifdef PERIOD
; 264  : 	this->m_PeriodItemOption = PeriodItemOption;

  002b9	8a 45 2c	 mov	 al, BYTE PTR _PeriodItemOption$[ebp]

; 265  : #endif
; 266  : 	memset( this->m_SkillResistance , 0, sizeof(this->m_SkillResistance) );
; 267  : 	
; 268  : 	if ( _type == ITEMGET(0,19) || _type == ITEMGET(4,18) || _type == ITEMGET(5,10) || _type == ITEMGET(2,13))

  002bc	8b 5d 08	 mov	 ebx, DWORD PTR __type$[ebp]
  002bf	88 86 d2 00 00
	00		 mov	 BYTE PTR [esi+210], al
  002c5	33 c0		 xor	 eax, eax
  002c7	89 86 b1 00 00
	00		 mov	 DWORD PTR [esi+177], eax
  002cd	66 89 86 b5 00
	00 00		 mov	 WORD PTR [esi+181], ax
  002d4	88 86 b7 00 00
	00		 mov	 BYTE PTR [esi+183], al
  002da	83 fb 13	 cmp	 ebx, 19			; 00000013H
  002dd	74 18		 je	 SHORT $LN361@Convert
  002df	81 fb 12 08 00
	00		 cmp	 ebx, 2066		; 00000812H
  002e5	74 10		 je	 SHORT $LN361@Convert
  002e7	81 fb 0a 0a 00
	00		 cmp	 ebx, 2570		; 00000a0aH
  002ed	74 08		 je	 SHORT $LN361@Convert
  002ef	81 fb 0d 04 00
	00		 cmp	 ebx, 1037		; 0000040dH
  002f5	75 03		 jne	 SHORT $LN362@Convert
$LN361@Convert:

; 269  : 	{
; 270  : 		Attribute2=0;

  002f7	88 45 18	 mov	 BYTE PTR _Attribute2$[ebp], al
$LN362@Convert:

; 271  : 	}
; 272  : 
; 273  : 	int iChaosItem = 0;

  002fa	89 45 30	 mov	 DWORD PTR _iChaosItem$[ebp], eax

; 274  : 
; 275  : 	if ( this->m_Type == ITEMGET(2,6) )

  002fd	0f b7 46 06	 movzx	 eax, WORD PTR [esi+6]
  00301	b9 06 04 00 00	 mov	 ecx, 1030		; 00000406H
  00306	66 3b c1	 cmp	 ax, cx
  00309	75 09		 jne	 SHORT $LN360@Convert

; 276  : 	{
; 277  : 		iChaosItem = 15;

  0030b	c7 45 30 0f 00
	00 00		 mov	 DWORD PTR _iChaosItem$[ebp], 15 ; 0000000fH
  00312	eb 24		 jmp	 SHORT $LN479@Convert
$LN360@Convert:

; 278  : 	}
; 279  : 	else if ( this->m_Type == ITEMGET(5,7) )

  00314	ba 07 0a 00 00	 mov	 edx, 2567		; 00000a07H
  00319	66 3b c2	 cmp	 ax, dx
  0031c	75 09		 jne	 SHORT $LN358@Convert

; 280  : 	{
; 281  : 		iChaosItem = 25;

  0031e	c7 45 30 19 00
	00 00		 mov	 DWORD PTR _iChaosItem$[ebp], 25 ; 00000019H
  00325	eb 11		 jmp	 SHORT $LN479@Convert
$LN358@Convert:

; 282  : 	}
; 283  : 	else if ( this->m_Type == ITEMGET(4,6) )

  00327	b9 06 08 00 00	 mov	 ecx, 2054		; 00000806H
  0032c	66 3b c1	 cmp	 ax, cx
  0032f	75 07		 jne	 SHORT $LN479@Convert

; 284  : 	{
; 285  : 		iChaosItem = 30;

  00331	c7 45 30 1e 00
	00 00		 mov	 DWORD PTR _iChaosItem$[ebp], 30 ; 0000001eH
$LN479@Convert:

; 286  : 	}
; 287  : 
; 288  : 	if ( ItemGetDurability(this->m_Type, 0, 0, 0) != 0 )

  00338	6a 00		 push	 0
  0033a	0f bf f8	 movsx	 edi, ax
  0033d	6a 00		 push	 0
  0033f	6a 00		 push	 0
  00341	57		 push	 edi
  00342	e8 00 00 00 00	 call	 ?ItemGetDurability@@YAHHHHH@Z ; ItemGetDurability
  00347	83 c4 10	 add	 esp, 16			; 00000010H
  0034a	d9 ee		 fldz
  0034c	85 c0		 test	 eax, eax
  0034e	74 29		 je	 SHORT $LN355@Convert

; 289  : 	{
; 290  : 		this->m_BaseDurability = (float)ItemGetDurability(this->m_Type, this->m_Level, Attribute2 & 0x7F, this->m_SetOption );

  00350	0f b6 96 ae 00
	00 00		 movzx	 edx, BYTE PTR [esi+174]
  00357	0f b6 45 18	 movzx	 eax, BYTE PTR _Attribute2$[ebp]
  0035b	0f bf 4e 08	 movsx	 ecx, WORD PTR [esi+8]
  0035f	52		 push	 edx
  00360	83 e0 7f	 and	 eax, 127		; 0000007fH
  00363	50		 push	 eax
  00364	51		 push	 ecx
  00365	57		 push	 edi
  00366	e8 00 00 00 00	 call	 ?ItemGetDurability@@YAHHHHH@Z ; ItemGetDurability
  0036b	89 45 1c	 mov	 DWORD PTR tv4257[ebp], eax
  0036e	83 c4 10	 add	 esp, 16			; 00000010H
  00371	db 45 1c	 fild	 DWORD PTR tv4257[ebp]
  00374	d9 5e 2c	 fstp	 DWORD PTR [esi+44]

; 291  : 	}
; 292  : 	else

  00377	eb 03		 jmp	 SHORT $LN354@Convert
$LN355@Convert:

; 293  : 	{
; 294  : 		this->m_BaseDurability = 0;

  00379	d9 56 2c	 fst	 DWORD PTR [esi+44]
$LN354@Convert:

; 295  : 	}
; 296  : 
; 297  : 	this->m_DurabilityState[0] = this->m_BaseDurability * 0.5f;

  0037c	d9 46 2c	 fld	 DWORD PTR [esi+44]

; 298  : 	this->m_DurabilityState[1] = this->m_BaseDurability * 0.3f;
; 299  : 	this->m_DurabilityState[2] = this->m_BaseDurability * 0.2f;
; 300  : 	this->m_Value = p->Value;

  0037f	8b 7d fc	 mov	 edi, DWORD PTR tv4267[ebp]
  00382	dc 0d 00 00 00
	00		 fmul	 QWORD PTR __real@3fe0000000000000
  00388	d9 5d 1c	 fstp	 DWORD PTR tv4396[ebp]
  0038b	d9 45 1c	 fld	 DWORD PTR tv4396[ebp]
  0038e	d9 96 98 00 00
	00		 fst	 DWORD PTR [esi+152]
  00394	d9 46 2c	 fld	 DWORD PTR [esi+44]
  00397	dc 0d 00 00 00
	00		 fmul	 QWORD PTR __real@3fd3333340000000
  0039d	d9 5d 1c	 fstp	 DWORD PTR tv4400[ebp]
  003a0	d9 45 1c	 fld	 DWORD PTR tv4400[ebp]
  003a3	d9 96 9c 00 00
	00		 fst	 DWORD PTR [esi+156]
  003a9	d9 46 2c	 fld	 DWORD PTR [esi+44]
  003ac	dc 0d 00 00 00
	00		 fmul	 QWORD PTR __real@3fc99999a0000000
  003b2	d9 5d 1c	 fstp	 DWORD PTR tv4404[ebp]
  003b5	d9 45 1c	 fld	 DWORD PTR tv4404[ebp]
  003b8	d9 96 a0 00 00
	00		 fst	 DWORD PTR [esi+160]
  003be	0f b7 97 3c 00
	00 00		 movzx	 edx, WORD PTR ?ItemAttribute@@3PAUITEM_ATTRIBUTE@@A[edi+60]
  003c5	89 56 68	 mov	 DWORD PTR [esi+104], edx

; 301  : 	this->m_AttackSpeed = p->AttackSpeed;

  003c8	8a 87 28 00 00
	00		 mov	 al, BYTE PTR ?ItemAttribute@@3PAUITEM_ATTRIBUTE@@A[edi+40]
  003ce	88 46 0d	 mov	 BYTE PTR [esi+13], al

; 302  : 	this->m_TwoHand = p->TwoHand;

  003d1	0f b6 8f 21 00
	00 00		 movzx	 ecx, BYTE PTR ?ItemAttribute@@3PAUITEM_ATTRIBUTE@@A[edi+33]
  003d8	88 4e 0c	 mov	 BYTE PTR [esi+12], cl

; 303  : 	this->m_DamageMin = p->DamageMin;

  003db	0f b6 97 2a 00
	00 00		 movzx	 edx, BYTE PTR ?ItemAttribute@@3PAUITEM_ATTRIBUTE@@A[edi+42]
  003e2	66 89 56 10	 mov	 WORD PTR [esi+16], dx

; 304  : 	this->m_DamageMax = p->DamageMax;

  003e6	0f b6 87 2b 00
	00 00		 movzx	 eax, BYTE PTR ?ItemAttribute@@3PAUITEM_ATTRIBUTE@@A[edi+43]
  003ed	66 89 46 12	 mov	 WORD PTR [esi+18], ax

; 305  : 	this->m_SuccessfulBlocking = p->SuccessfulBlocking;

  003f1	0f b6 8f 2c 00
	00 00		 movzx	 ecx, BYTE PTR ?ItemAttribute@@3PAUITEM_ATTRIBUTE@@A[edi+44]
  003f8	88 4e 14	 mov	 BYTE PTR [esi+20], cl

; 306  : 	this->m_Defense = p->Defense;

  003fb	0f b6 97 2d 00
	00 00		 movzx	 edx, BYTE PTR ?ItemAttribute@@3PAUITEM_ATTRIBUTE@@A[edi+45]
  00402	66 89 56 16	 mov	 WORD PTR [esi+22], dx

; 307  : 	this->m_MagicDefense = p->MagicDefense;

  00406	0f b6 87 2e 00
	00 00		 movzx	 eax, BYTE PTR ?ItemAttribute@@3PAUITEM_ATTRIBUTE@@A[edi+46]
  0040d	66 89 46 18	 mov	 WORD PTR [esi+24], ax

; 308  : 	this->m_WalkSpeed = p->WalkSpeed;

  00411	0f b6 8f 29 00
	00 00		 movzx	 ecx, BYTE PTR ?ItemAttribute@@3PAUITEM_ATTRIBUTE@@A[edi+41]

; 309  : 
; 310  : 	if((_type >> 9) == 5 && p->ItemSlot == 1) //Season3 add-on

  00418	8b c3		 mov	 eax, ebx
  0041a	c1 f8 09	 sar	 eax, 9
  0041d	88 4e 0e	 mov	 BYTE PTR [esi+14], cl
  00420	89 45 20	 mov	 DWORD PTR tv4457[ebp], eax
  00423	83 f8 05	 cmp	 eax, 5
  00426	75 1c		 jne	 SHORT $LN480@Convert
  00428	83 bf 64 00 00
	00 01		 cmp	 DWORD PTR ?ItemAttribute@@3PAUITEM_ATTRIBUTE@@A[edi+100], 1
  0042f	75 13		 jne	 SHORT $LN480@Convert

; 311  : 	{
; 312  : 		this->m_Magic = 0;

  00431	33 d2		 xor	 edx, edx
  00433	66 89 56 20	 mov	 WORD PTR [esi+32], dx

; 313  : 		this->m_BookSpell = p->MagicPW;

  00437	66 8b 87 54 00
	00 00		 mov	 ax, WORD PTR ?ItemAttribute@@3PAUITEM_ATTRIBUTE@@A[edi+84]
  0043e	66 89 46 22	 mov	 WORD PTR [esi+34], ax

; 314  : 	}
; 315  : 	else

  00442	eb 11		 jmp	 SHORT $LN352@Convert
$LN480@Convert:

; 316  : 	{
; 317  : 		this->m_Magic = p->MagicPW;

  00444	66 8b 8f 54 00
	00 00		 mov	 cx, WORD PTR ?ItemAttribute@@3PAUITEM_ATTRIBUTE@@A[edi+84]

; 318  : 		this->m_BookSpell = 0;

  0044b	33 d2		 xor	 edx, edx
  0044d	66 89 4e 20	 mov	 WORD PTR [esi+32], cx
  00451	66 89 56 22	 mov	 WORD PTR [esi+34], dx
$LN352@Convert:

; 319  : 	}
; 320  : 	
; 321  : 	this->m_serial = p->Serial;
; 322  : 	this->m_QuestItem = (bool)p->QuestItem;
; 323  : 	this->m_RequireLeaderShip = 0;
; 324  : 
; 325  : 	/////////
; 326  : 	if ( this->m_BaseDurability > 10.0f && 
; 327  : 		_type != ITEMGET(13,20) &&
; 328  : 		_type != ITEMGET(13,38) &&
; 329  : 		this->m_Durability > this->m_BaseDurability) //season 4.5 add-on

  00455	d9 05 00 00 00
	00		 fld	 DWORD PTR __real@41200000
  0045b	8a 87 25 00 00
	00		 mov	 al, BYTE PTR ?ItemAttribute@@3PAUITEM_ATTRIBUTE@@A[edi+37]
  00461	d8 5e 2c	 fcomp	 DWORD PTR [esi+44]
  00464	88 46 04	 mov	 BYTE PTR [esi+4], al
  00467	8a 8f 60 00 00
	00		 mov	 cl, BYTE PTR ?ItemAttribute@@3PAUITEM_ATTRIBUTE@@A[edi+96]
  0046d	33 d2		 xor	 edx, edx
  0046f	88 8e ad 00 00
	00		 mov	 BYTE PTR [esi+173], cl
  00475	df e0		 fnstsw	 ax
  00477	66 89 56 54	 mov	 WORD PTR [esi+84], dx
  0047b	f6 c4 05	 test	 ah, 5
  0047e	7a 25		 jp	 SHORT $LN351@Convert
  00480	81 fb 14 1a 00
	00		 cmp	 ebx, 6676		; 00001a14H
  00486	74 1d		 je	 SHORT $LN351@Convert
  00488	81 fb 26 1a 00
	00		 cmp	 ebx, 6694		; 00001a26H
  0048e	74 15		 je	 SHORT $LN351@Convert
  00490	d9 46 24	 fld	 DWORD PTR [esi+36]
  00493	d9 46 2c	 fld	 DWORD PTR [esi+44]
  00496	de d9		 fcompp
  00498	df e0		 fnstsw	 ax
  0049a	f6 c4 05	 test	 ah, 5
  0049d	7a 06		 jp	 SHORT $LN351@Convert

; 330  : 	{
; 331  : 		this->m_Durability = this->m_BaseDurability;

  0049f	d9 46 2c	 fld	 DWORD PTR [esi+44]
  004a2	d9 5e 24	 fstp	 DWORD PTR [esi+36]
$LN351@Convert:

; 332  : 	}
; 333  : 	////////
; 334  : 
; 335  : 	if ( this->m_Durability == 0 )

  004a5	d9 46 24	 fld	 DWORD PTR [esi+36]
  004a8	d9 c4		 fld	 ST(4)
  004aa	da e9		 fucompp
  004ac	df e0		 fnstsw	 ax
  004ae	f6 c4 44	 test	 ah, 68			; 00000044H
  004b1	7a 0c		 jp	 SHORT $LN350@Convert
  004b3	dd d8		 fstp	 ST(0)
  004b5	dd d8		 fstp	 ST(0)
  004b7	dd d8		 fstp	 ST(0)
  004b9	dd d8		 fstp	 ST(0)

; 336  : 	{
; 337  : 		this->m_CurrentDurabilityState = 1;

  004bb	d9 e8		 fld1
  004bd	eb 46		 jmp	 SHORT $LN344@Convert
$LN350@Convert:

; 338  : 	}
; 339  : 	else if ( this->m_Durability < this->m_DurabilityState[2] )

  004bf	d9 46 24	 fld	 DWORD PTR [esi+36]
  004c2	de d9		 fcompp
  004c4	df e0		 fnstsw	 ax
  004c6	f6 c4 05	 test	 ah, 5
  004c9	7a 0e		 jp	 SHORT $LN348@Convert
  004cb	dd d8		 fstp	 ST(0)
  004cd	dd d8		 fstp	 ST(0)
  004cf	dd d8		 fstp	 ST(0)

; 340  : 	{
; 341  : 		this->m_CurrentDurabilityState = (float)0.5;

  004d1	d9 05 00 00 00
	00		 fld	 DWORD PTR __real@3f000000
  004d7	eb 2c		 jmp	 SHORT $LN344@Convert
$LN348@Convert:

; 342  : 	}
; 343  : 	else if ( this->m_Durability < this->m_DurabilityState[1] )

  004d9	d9 46 24	 fld	 DWORD PTR [esi+36]
  004dc	de d9		 fcompp
  004de	df e0		 fnstsw	 ax
  004e0	f6 c4 05	 test	 ah, 5
  004e3	7a 0c		 jp	 SHORT $LN346@Convert
  004e5	dd d8		 fstp	 ST(0)
  004e7	dd d8		 fstp	 ST(0)

; 344  : 	{
; 345  : 		this->m_CurrentDurabilityState = (float)0.3;

  004e9	d9 05 00 00 00
	00		 fld	 DWORD PTR __real@3e99999a
  004ef	eb 14		 jmp	 SHORT $LN344@Convert
$LN346@Convert:

; 346  : 	}
; 347  : 	else if ( this->m_Durability < this->m_DurabilityState[0] )

  004f1	d9 46 24	 fld	 DWORD PTR [esi+36]
  004f4	de d9		 fcompp
  004f6	df e0		 fnstsw	 ax
  004f8	f6 c4 05	 test	 ah, 5
  004fb	7a 08		 jp	 SHORT $LN344@Convert
  004fd	dd d8		 fstp	 ST(0)

; 348  : 	{
; 349  : 		this->m_CurrentDurabilityState = (float)0.2;

  004ff	d9 05 00 00 00
	00		 fld	 DWORD PTR __real@3e4ccccd
$LN344@Convert:

; 350  : 	}
; 351  : 	else
; 352  : 	{
; 353  : 		this->m_CurrentDurabilityState = 0.0;

  00505	d9 9e a8 00 00
	00		 fstp	 DWORD PTR [esi+168]

; 354  : 	}
; 355  : 
; 356  : 	memcpy(this->m_RequireClass, p->RequireClass , sizeof(this->m_RequireClass));

  0050b	8b 87 3e 00 00
	00		 mov	 eax, DWORD PTR ?ItemAttribute@@3PAUITEM_ATTRIBUTE@@A[edi+62]
  00511	89 46 58	 mov	 DWORD PTR [esi+88], eax
  00514	66 8b 8f 42 00
	00 00		 mov	 cx, WORD PTR ?ItemAttribute@@3PAUITEM_ATTRIBUTE@@A[edi+66]
  0051b	66 89 4e 5c	 mov	 WORD PTR [esi+92], cx
  0051f	8a 97 44 00 00
	00		 mov	 dl, BYTE PTR ?ItemAttribute@@3PAUITEM_ATTRIBUTE@@A[edi+68]
  00525	88 56 5e	 mov	 BYTE PTR [esi+94], dl

; 357  : 
; 358  : 	for (int i = 0; i<MAX_ITEM_SPECIAL_ATTRIBUTE ; i++ ) //9
; 359  : 	{
; 360  : 		this->m_Resistance[i] = p->Resistance[i] * this->m_Level;

  00528	0f b6 87 45 00
	00 00		 movzx	 eax, BYTE PTR ?ItemAttribute@@3PAUITEM_ATTRIBUTE@@A[edi+69]
  0052f	f6 6e 08	 imul	 BYTE PTR [esi+8]
  00532	88 46 5f	 mov	 BYTE PTR [esi+95], al
  00535	0f b6 87 46 00
	00 00		 movzx	 eax, BYTE PTR ?ItemAttribute@@3PAUITEM_ATTRIBUTE@@A[edi+70]
  0053c	f6 6e 08	 imul	 BYTE PTR [esi+8]
  0053f	88 46 60	 mov	 BYTE PTR [esi+96], al
  00542	0f b6 87 47 00
	00 00		 movzx	 eax, BYTE PTR ?ItemAttribute@@3PAUITEM_ATTRIBUTE@@A[edi+71]
  00549	f6 6e 08	 imul	 BYTE PTR [esi+8]
  0054c	88 46 61	 mov	 BYTE PTR [esi+97], al
  0054f	0f b6 87 48 00
	00 00		 movzx	 eax, BYTE PTR ?ItemAttribute@@3PAUITEM_ATTRIBUTE@@A[edi+72]
  00556	f6 6e 08	 imul	 BYTE PTR [esi+8]
  00559	88 46 62	 mov	 BYTE PTR [esi+98], al
  0055c	0f b6 87 49 00
	00 00		 movzx	 eax, BYTE PTR ?ItemAttribute@@3PAUITEM_ATTRIBUTE@@A[edi+73]
  00563	f6 6e 08	 imul	 BYTE PTR [esi+8]
  00566	88 46 63	 mov	 BYTE PTR [esi+99], al
  00569	0f b6 87 4a 00
	00 00		 movzx	 eax, BYTE PTR ?ItemAttribute@@3PAUITEM_ATTRIBUTE@@A[edi+74]
  00570	f6 6e 08	 imul	 BYTE PTR [esi+8]
  00573	88 46 64	 mov	 BYTE PTR [esi+100], al
  00576	0f b6 87 4b 00
	00 00		 movzx	 eax, BYTE PTR ?ItemAttribute@@3PAUITEM_ATTRIBUTE@@A[edi+75]
  0057d	f6 6e 08	 imul	 BYTE PTR [esi+8]
  00580	88 46 65	 mov	 BYTE PTR [esi+101], al

; 361  : 	}
; 362  : 
; 363  : 	ItemLevel = p->Level;

  00583	0f b6 9f 22 00
	00 00		 movzx	 ebx, BYTE PTR ?ItemAttribute@@3PAUITEM_ATTRIBUTE@@A[edi+34]

; 364  : 
; 365  : 	if ( ( Attribute2 & 0x3F) > 0 )

  0058a	8a 45 18	 mov	 al, BYTE PTR _Attribute2$[ebp]
  0058d	24 3f		 and	 al, 63			; 0000003fH
  0058f	89 5d 1c	 mov	 DWORD PTR _ItemLevel$[ebp], ebx
  00592	88 45 1b	 mov	 BYTE PTR tv4555[ebp], al

; 366  : 	{
; 367  : 		ItemLevel = p->Level + 25;
; 368  : 	}
; 369  : 	else

  00595	77 09		 ja	 SHORT $LN585@Convert

; 370  : 	{
; 371  : 		if (this->m_SetOption != 0 )

  00597	80 be ae 00 00
	00 00		 cmp	 BYTE PTR [esi+174], 0
  0059e	74 06		 je	 SHORT $LN337@Convert
$LN585@Convert:

; 372  : 		{
; 373  : 			ItemLevel = p->Level + 25;

  005a0	83 c3 19	 add	 ebx, 25			; 00000019H
  005a3	89 5d 1c	 mov	 DWORD PTR _ItemLevel$[ebp], ebx
$LN337@Convert:

; 374  : 		}
; 375  : 	}
; 376  : 
; 377  : 	if ( p->RequireStrength != 0 )

  005a6	0f b7 97 34 00
	00 00		 movzx	 edx, WORD PTR ?ItemAttribute@@3PAUITEM_ATTRIBUTE@@A[edi+52]
  005ad	66 85 d2	 test	 dx, dx
  005b0	74 28		 je	 SHORT $LN336@Convert

; 378  : 	{
; 379  : 		this->m_RequireStrength = ((p->RequireStrength * (ItemLevel + this->m_Level * 3 ) ) * 3) / 100 + 20;

  005b2	0f bf 4e 08	 movsx	 ecx, WORD PTR [esi+8]
  005b6	8d 04 4b	 lea	 eax, DWORD PTR [ebx+ecx*2]
  005b9	03 c1		 add	 eax, ecx
  005bb	0f af c2	 imul	 eax, edx
  005be	8d 0c 40	 lea	 ecx, DWORD PTR [eax+eax*2]
  005c1	b8 1f 85 eb 51	 mov	 eax, 1374389535		; 51eb851fH
  005c6	f7 e9		 imul	 ecx
  005c8	c1 fa 05	 sar	 edx, 5
  005cb	8b c2		 mov	 eax, edx
  005cd	c1 e8 1f	 shr	 eax, 31			; 0000001fH
  005d0	8d 4c 02 14	 lea	 ecx, DWORD PTR [edx+eax+20]
  005d4	66 89 4e 4a	 mov	 WORD PTR [esi+74], cx

; 380  : 	}
; 381  : 	else

  005d8	eb 06		 jmp	 SHORT $LN335@Convert
$LN336@Convert:

; 382  : 	{
; 383  : 		this->m_RequireStrength = 0;

  005da	33 d2		 xor	 edx, edx
  005dc	66 89 56 4a	 mov	 WORD PTR [esi+74], dx
$LN335@Convert:

; 384  : 	}
; 385  : 
; 386  : 
; 387  : 	if ( p->RequireDexterity != 0 )

  005e0	0f b7 97 36 00
	00 00		 movzx	 edx, WORD PTR ?ItemAttribute@@3PAUITEM_ATTRIBUTE@@A[edi+54]
  005e7	66 85 d2	 test	 dx, dx
  005ea	74 28		 je	 SHORT $LN334@Convert

; 388  : 	{
; 389  : 		this->m_RequireDexterity = ((p->RequireDexterity * (ItemLevel + this->m_Level * 3 ) ) * 3) / 100 + 20;

  005ec	0f bf 4e 08	 movsx	 ecx, WORD PTR [esi+8]
  005f0	8d 04 4b	 lea	 eax, DWORD PTR [ebx+ecx*2]
  005f3	03 c1		 add	 eax, ecx
  005f5	0f af c2	 imul	 eax, edx
  005f8	8d 0c 40	 lea	 ecx, DWORD PTR [eax+eax*2]
  005fb	b8 1f 85 eb 51	 mov	 eax, 1374389535		; 51eb851fH
  00600	f7 e9		 imul	 ecx
  00602	c1 fa 05	 sar	 edx, 5
  00605	8b c2		 mov	 eax, edx
  00607	c1 e8 1f	 shr	 eax, 31			; 0000001fH
  0060a	8d 4c 02 14	 lea	 ecx, DWORD PTR [edx+eax+20]
  0060e	66 89 4e 4c	 mov	 WORD PTR [esi+76], cx

; 390  : 	}
; 391  : 	else

  00612	eb 06		 jmp	 SHORT $LN333@Convert
$LN334@Convert:

; 392  : 	{
; 393  : 		this->m_RequireDexterity  = 0;

  00614	33 d2		 xor	 edx, edx
  00616	66 89 56 4c	 mov	 WORD PTR [esi+76], dx
$LN333@Convert:

; 394  : 	}
; 395  : 
; 396  : 	if ( p->RequireEnergy != 0 )

  0061a	0f b7 97 38 00
	00 00		 movzx	 edx, WORD PTR ?ItemAttribute@@3PAUITEM_ATTRIBUTE@@A[edi+56]
  00621	66 85 d2	 test	 dx, dx
  00624	74 29		 je	 SHORT $LN332@Convert

; 397  : 	{
; 398  : 		this->m_RequireEnergy = ((p->RequireEnergy * (ItemLevel + this->m_Level * 3 ) ) * 4) / 100 + 20;

  00626	0f bf 46 08	 movsx	 eax, WORD PTR [esi+8]
  0062a	8d 0c 43	 lea	 ecx, DWORD PTR [ebx+eax*2]
  0062d	03 c8		 add	 ecx, eax
  0062f	0f af ca	 imul	 ecx, edx
  00632	03 c9		 add	 ecx, ecx
  00634	03 c9		 add	 ecx, ecx
  00636	b8 1f 85 eb 51	 mov	 eax, 1374389535		; 51eb851fH
  0063b	f7 e9		 imul	 ecx
  0063d	c1 fa 05	 sar	 edx, 5
  00640	8b ca		 mov	 ecx, edx
  00642	c1 e9 1f	 shr	 ecx, 31			; 0000001fH
  00645	8d 54 0a 14	 lea	 edx, DWORD PTR [edx+ecx+20]
  00649	66 89 56 4e	 mov	 WORD PTR [esi+78], dx

; 399  : 	}
; 400  : 	else

  0064d	eb 06		 jmp	 SHORT $LN331@Convert
$LN332@Convert:

; 401  : 	{
; 402  : 		this->m_RequireEnergy = 0;

  0064f	33 c0		 xor	 eax, eax
  00651	66 89 46 4e	 mov	 WORD PTR [esi+78], ax
$LN331@Convert:

; 403  : 	}
; 404  : 
; 405  : 	if(p->RequireEnergy != 0)

  00655	0f b7 8f 38 00
	00 00		 movzx	 ecx, WORD PTR ?ItemAttribute@@3PAUITEM_ATTRIBUTE@@A[edi+56]
  0065c	66 85 c9	 test	 cx, cx
  0065f	74 34		 je	 SHORT $LN330@Convert

; 406  : 	{
; 407  : 		if((_type >> 9) == 5 && p->ItemSlot == 1) //Season3 add-on

  00661	83 7d 20 05	 cmp	 DWORD PTR tv4457[ebp], 5
  00665	75 34		 jne	 SHORT $LN328@Convert
  00667	83 bf 64 00 00
	00 01		 cmp	 DWORD PTR ?ItemAttribute@@3PAUITEM_ATTRIBUTE@@A[edi+100], 1
  0066e	75 2b		 jne	 SHORT $LN328@Convert

; 408  : 		{
; 409  : 			this->m_RequireEnergy = ((p->RequireEnergy * (ItemLevel + this->m_Level) ) * 3) / 100 + 20;

  00670	0f bf 46 08	 movsx	 eax, WORD PTR [esi+8]
  00674	03 c3		 add	 eax, ebx
  00676	0f af c1	 imul	 eax, ecx
  00679	8d 0c 40	 lea	 ecx, DWORD PTR [eax+eax*2]
  0067c	b8 1f 85 eb 51	 mov	 eax, 1374389535		; 51eb851fH
  00681	f7 e9		 imul	 ecx
  00683	c1 fa 05	 sar	 edx, 5
  00686	8b c2		 mov	 eax, edx
  00688	c1 e8 1f	 shr	 eax, 31			; 0000001fH
  0068b	8d 4c 02 14	 lea	 ecx, DWORD PTR [edx+eax+20]
  0068f	66 89 4e 4e	 mov	 WORD PTR [esi+78], cx

; 410  : 		}
; 411  : 	}
; 412  : 	else

  00693	eb 06		 jmp	 SHORT $LN328@Convert
$LN330@Convert:

; 413  : 	{
; 414  : 		this->m_RequireEnergy = 0;

  00695	33 d2		 xor	 edx, edx
  00697	66 89 56 4e	 mov	 WORD PTR [esi+78], dx
$LN328@Convert:

; 415  : 	}
; 416  : 
; 417  : 	if ( _type >= ITEMGET(0,0) && _type < ITEMGET(12,0) )

  0069b	81 7d 08 ff 17
	00 00		 cmp	 DWORD PTR __type$[ebp], 6143 ; 000017ffH
  006a2	77 78		 ja	 SHORT $LN323@Convert

; 418  : 	{
; 419  : 		if ( p->RequireVitality != 0 )

  006a4	0f b7 97 4c 00
	00 00		 movzx	 edx, WORD PTR ?ItemAttribute@@3PAUITEM_ATTRIBUTE@@A[edi+76]
  006ab	66 85 d2	 test	 dx, dx
  006ae	74 28		 je	 SHORT $LN326@Convert

; 420  : 		{
; 421  : 			this->m_RequireVitality = ((p->RequireVitality * (ItemLevel + this->m_Level * 3 ) ) * 3) / 100 + 20;

  006b0	0f bf 4e 08	 movsx	 ecx, WORD PTR [esi+8]
  006b4	8d 04 4b	 lea	 eax, DWORD PTR [ebx+ecx*2]
  006b7	03 c1		 add	 eax, ecx
  006b9	0f af c2	 imul	 eax, edx
  006bc	8d 0c 40	 lea	 ecx, DWORD PTR [eax+eax*2]
  006bf	b8 1f 85 eb 51	 mov	 eax, 1374389535		; 51eb851fH
  006c4	f7 e9		 imul	 ecx
  006c6	c1 fa 05	 sar	 edx, 5
  006c9	8b c2		 mov	 eax, edx
  006cb	c1 e8 1f	 shr	 eax, 31			; 0000001fH
  006ce	8d 4c 02 14	 lea	 ecx, DWORD PTR [edx+eax+20]
  006d2	66 89 4e 52	 mov	 WORD PTR [esi+82], cx

; 422  : 		}
; 423  : 		else

  006d6	eb 06		 jmp	 SHORT $LN325@Convert
$LN326@Convert:

; 424  : 		{
; 425  : 			this->m_RequireVitality = 0;

  006d8	33 d2		 xor	 edx, edx
  006da	66 89 56 52	 mov	 WORD PTR [esi+82], dx
$LN325@Convert:

; 426  : 		}
; 427  : 
; 428  : 		if ( p->RequireLeadership != 0 )

  006de	83 bf 6c 00 00
	00 00		 cmp	 DWORD PTR ?ItemAttribute@@3PAUITEM_ATTRIBUTE@@A[edi+108], 0
  006e5	74 2f		 je	 SHORT $LN324@Convert

; 429  : 		{
; 430  : 			this->m_RequireLeaderShip = ((p->RequireVitality * (ItemLevel + this->m_Level * 3 ) ) * 3) / 100 + 20;

  006e7	0f bf 4e 08	 movsx	 ecx, WORD PTR [esi+8]
  006eb	8d 04 4b	 lea	 eax, DWORD PTR [ebx+ecx*2]
  006ee	03 c1		 add	 eax, ecx
  006f0	0f b7 8f 4c 00
	00 00		 movzx	 ecx, WORD PTR ?ItemAttribute@@3PAUITEM_ATTRIBUTE@@A[edi+76]
  006f7	0f af c1	 imul	 eax, ecx
  006fa	8d 0c 40	 lea	 ecx, DWORD PTR [eax+eax*2]
  006fd	b8 1f 85 eb 51	 mov	 eax, 1374389535		; 51eb851fH
  00702	f7 e9		 imul	 ecx
  00704	c1 fa 05	 sar	 edx, 5
  00707	8b c2		 mov	 eax, edx
  00709	c1 e8 1f	 shr	 eax, 31			; 0000001fH
  0070c	8d 4c 02 14	 lea	 ecx, DWORD PTR [edx+eax+20]
  00710	66 89 4e 54	 mov	 WORD PTR [esi+84], cx

; 431  : 		}
; 432  : 		else

  00714	eb 06		 jmp	 SHORT $LN323@Convert
$LN324@Convert:

; 433  : 		{
; 434  : 			this->m_RequireLeaderShip = 0;

  00716	33 d2		 xor	 edx, edx
  00718	66 89 56 54	 mov	 WORD PTR [esi+84], dx
$LN323@Convert:

; 435  : 		}
; 436  : 	}
; 437  : 
; 438  : 	if ( _type == ITEMGET(13,5) )

  0071c	81 7d 08 05 1a
	00 00		 cmp	 DWORD PTR __type$[ebp], 6661 ; 00001a05H
  00723	75 32		 jne	 SHORT $LN322@Convert

; 439  : 	{
; 440  : 		this->m_RequireLeaderShip = this->m_PetItem_Level * 15 + 185;

  00725	66 8b 86 bc 00
	00 00		 mov	 ax, WORD PTR [esi+188]
  0072c	66 8b c8	 mov	 cx, ax
  0072f	66 c1 e1 04	 shl	 cx, 4
  00733	66 2b c8	 sub	 cx, ax

; 441  : 		p->RequireLeadership = this->m_PetItem_Level * 15 + 185; //season4 add-on

  00736	8b 86 bc 00 00
	00		 mov	 eax, DWORD PTR [esi+188]
  0073c	ba b9 00 00 00	 mov	 edx, 185		; 000000b9H
  00741	66 03 ca	 add	 cx, dx
  00744	66 89 4e 54	 mov	 WORD PTR [esi+84], cx
  00748	8b c8		 mov	 ecx, eax
  0074a	c1 e1 04	 shl	 ecx, 4
  0074d	2b c8		 sub	 ecx, eax
  0074f	03 ca		 add	 ecx, edx
  00751	89 8f 6c 00 00
	00		 mov	 DWORD PTR ?ItemAttribute@@3PAUITEM_ATTRIBUTE@@A[edi+108], ecx
$LN322@Convert:

; 442  : 	}
; 443  : 
; 444  : 	if ( g_kJewelOfHarmonySystem.IsActive(this) == TRUE )

  00757	56		 push	 esi
  00758	b9 00 00 00 00	 mov	 ecx, OFFSET ?g_kJewelOfHarmonySystem@@3VCJewelOfHarmonySystem@@A ; g_kJewelOfHarmonySystem
  0075d	e8 00 00 00 00	 call	 ?IsActive@CJewelOfHarmonySystem@@QAEHPAVCItem@@@Z ; CJewelOfHarmonySystem::IsActive
  00762	83 f8 01	 cmp	 eax, 1
  00765	75 68		 jne	 SHORT $LN321@Convert

; 445  : 	{
; 446  : 		BYTE btOption = g_kJewelOfHarmonySystem.GetItemStrengthenOption(this);

  00767	56		 push	 esi
  00768	b9 00 00 00 00	 mov	 ecx, OFFSET ?g_kJewelOfHarmonySystem@@3VCJewelOfHarmonySystem@@A ; g_kJewelOfHarmonySystem
  0076d	e8 00 00 00 00	 call	 ?GetItemStrengthenOption@CJewelOfHarmonySystem@@QAEEPAVCItem@@@Z ; CJewelOfHarmonySystem::GetItemStrengthenOption

; 447  : 		int iItemType = g_kJewelOfHarmonySystem._GetItemType(this);

  00772	56		 push	 esi
  00773	b9 00 00 00 00	 mov	 ecx, OFFSET ?g_kJewelOfHarmonySystem@@3VCJewelOfHarmonySystem@@A ; g_kJewelOfHarmonySystem
  00778	8a d8		 mov	 bl, al
  0077a	e8 00 00 00 00	 call	 ?_GetItemType@CJewelOfHarmonySystem@@QAEHPAVCItem@@@Z ; CJewelOfHarmonySystem::_GetItemType

; 448  : 
; 449  : 		if(iItemType == 1)

  0077f	83 f8 01	 cmp	 eax, 1
  00782	75 36		 jne	 SHORT $LN320@Convert

; 450  : 		{
; 451  : 			if ( btOption == AT_JEWELOFHARMONY_WEAPON_DECREASE_REQUIRE_STR )

  00784	80 fb 03	 cmp	 bl, 3
  00787	75 16		 jne	 SHORT $LN319@Convert

; 452  : 			{
; 453  : 				this->m_HJOpStrength = g_kJewelOfHarmonySystem.GetItemEffectValue(this,	AT_JEWELOFHARMONY_WEAPON_DECREASE_REQUIRE_STR);

  00789	6a 03		 push	 3
$LN586@Convert:
  0078b	56		 push	 esi
  0078c	b9 00 00 00 00	 mov	 ecx, OFFSET ?g_kJewelOfHarmonySystem@@3VCJewelOfHarmonySystem@@A ; g_kJewelOfHarmonySystem
  00791	e8 00 00 00 00	 call	 ?GetItemEffectValue@CJewelOfHarmonySystem@@QAEHPAVCItem@@H@Z ; CJewelOfHarmonySystem::GetItemEffectValue
  00796	66 89 86 c6 00
	00 00		 mov	 WORD PTR [esi+198], ax
  0079d	eb 38		 jmp	 SHORT $LN481@Convert
$LN319@Convert:

; 454  : 			}
; 455  : 			else if ( btOption == AT_JEWELOFHARMONY_WEAPON_DECREASE_REQUIRE_DEX )

  0079f	80 fb 04	 cmp	 bl, 4
  007a2	75 33		 jne	 SHORT $LN481@Convert

; 456  : 			{
; 457  : 				this->m_HJOpDexterity = g_kJewelOfHarmonySystem.GetItemEffectValue(this, AT_JEWELOFHARMONY_WEAPON_DECREASE_REQUIRE_DEX);

  007a4	6a 04		 push	 4
$LN587@Convert:
  007a6	56		 push	 esi
  007a7	b9 00 00 00 00	 mov	 ecx, OFFSET ?g_kJewelOfHarmonySystem@@3VCJewelOfHarmonySystem@@A ; g_kJewelOfHarmonySystem
  007ac	e8 00 00 00 00	 call	 ?GetItemEffectValue@CJewelOfHarmonySystem@@QAEHPAVCItem@@H@Z ; CJewelOfHarmonySystem::GetItemEffectValue
  007b1	66 89 86 c8 00
	00 00		 mov	 WORD PTR [esi+200], ax

; 458  : 			}
; 459  : 		}

  007b8	eb 1d		 jmp	 SHORT $LN481@Convert
$LN320@Convert:

; 460  : 		else if(iItemType == 2)

  007ba	83 f8 02	 cmp	 eax, 2
  007bd	75 18		 jne	 SHORT $LN481@Convert

; 461  : 		{
; 462  : 			if ( btOption == AT_JEWELOFHARMONY_WEAPON_IMPROVE_MAXATTACKDAMAGE )

  007bf	3a d8		 cmp	 bl, al
  007c1	75 03		 jne	 SHORT $LN314@Convert

; 463  : 			{
; 464  : 				this->m_HJOpStrength = g_kJewelOfHarmonySystem.GetItemEffectValue(this,	AT_JEWELOFHARMONY_WEAPON_IMPROVE_MAXATTACKDAMAGE);

  007c3	50		 push	 eax
  007c4	eb c5		 jmp	 SHORT $LN586@Convert
$LN314@Convert:

; 465  : 			}
; 466  : 			else if ( btOption == AT_JEWELOFHARMONY_WEAPON_DECREASE_REQUIRE_STR )

  007c6	80 fb 03	 cmp	 bl, 3
  007c9	75 0c		 jne	 SHORT $LN481@Convert

; 467  : 			{
; 468  : 				this->m_HJOpDexterity = g_kJewelOfHarmonySystem.GetItemEffectValue(this, AT_JEWELOFHARMONY_WEAPON_DECREASE_REQUIRE_STR);

  007cb	6a 03		 push	 3

; 469  : 			}
; 470  : 		}		
; 471  : 	}
; 472  : 	else //WZ Fix for Season3.0

  007cd	eb d7		 jmp	 SHORT $LN587@Convert
$LN321@Convert:

; 473  : 	{
; 474  : 		this->m_HJOpStrength = 0;

  007cf	33 d2		 xor	 edx, edx
  007d1	89 96 c6 00 00
	00		 mov	 DWORD PTR [esi+198], edx
$LN481@Convert:

; 475  : 		this->m_HJOpDexterity = 0;
; 476  : 	}
; 477  : 
; 478  : 	g_SocketOption.ApplySocketEffectforWeapons(this); //season 4 add-on

  007d7	56		 push	 esi
  007d8	b9 00 00 00 00	 mov	 ecx, OFFSET ?g_SocketOption@@3VCSocketOption@@A ; g_SocketOption
  007dd	e8 00 00 00 00	 call	 ?ApplySocketEffectforWeapons@CSocketOption@@QAEXPAVCItem@@@Z ; CSocketOption::ApplySocketEffectforWeapons

; 479  : 
; 480  : 	if ( p->RequireLevel != 0 )

  007e2	0f b7 87 3a 00
	00 00		 movzx	 eax, WORD PTR ?ItemAttribute@@3PAUITEM_ATTRIBUTE@@A[edi+58]
  007e9	66 85 c0	 test	 ax, ax
  007ec	0f 84 33 01 00
	00		 je	 $LN310@Convert

; 481  : 	{
; 482  : 		if ( _type == ITEMGET(13,4) )	// DarkHorse

  007f2	8b 55 08	 mov	 edx, DWORD PTR __type$[ebp]
  007f5	81 fa 04 1a 00
	00		 cmp	 edx, 6660		; 00001a04H
  007fb	75 17		 jne	 SHORT $LN309@Convert

; 483  : 		{
; 484  : 			this->m_RequireLevel = this->m_PetItem_Level * 2 + 218;

  007fd	66 8b 8e bc 00
	00 00		 mov	 cx, WORD PTR [esi+188]
  00804	66 83 c1 6d	 add	 cx, 109			; 0000006dH
  00808	66 03 c9	 add	 cx, cx

; 524  : 		{
; 525  : 			this->m_RequireLevel = p->RequireLevel + (this->m_Level * 5);

  0080b	66 89 4e 50	 mov	 WORD PTR [esi+80], cx
  0080f	e9 1a 01 00 00	 jmp	 $LN284@Convert
$LN309@Convert:

; 485  : 		}
; 486  : 		else if ( _type >= ITEMGET(12,36) && _type <= ITEMGET(12,40) )

  00814	8d 8a dc e7 ff
	ff		 lea	 ecx, DWORD PTR [edx-6180]
  0081a	83 f9 04	 cmp	 ecx, 4
  0081d	77 09		 ja	 SHORT $LN307@Convert

; 487  : 		{
; 488  : 			this->m_RequireLevel = p->RequireLevel;

  0081f	66 89 46 50	 mov	 WORD PTR [esi+80], ax
  00823	e9 06 01 00 00	 jmp	 $LN284@Convert
$LN307@Convert:

; 489  : 		}
; 490  : 		else if ( _type >= ITEMGET(12,180) && _type <= ITEMGET(12,188) )	//Custom Wings4

  00828	8d 8a 4c e7 ff
	ff		 lea	 ecx, DWORD PTR [edx-6324]
  0082e	83 f9 08	 cmp	 ecx, 8
  00831	77 09		 ja	 SHORT $LN305@Convert

; 491  : 		{
; 492  : 			this->m_RequireLevel = p->RequireLevel;

  00833	66 89 46 50	 mov	 WORD PTR [esi+80], ax
  00837	e9 f2 00 00 00	 jmp	 $LN284@Convert
$LN305@Convert:

; 493  : 		}
; 494  : #ifdef NEWWINGS_2_5
; 495  : 		else if( IS_NEWWINGS_2_5(_type) )

  0083c	81 fa ba 18 00
	00		 cmp	 edx, 6330		; 000018baH
  00842	7c 18		 jl	 SHORT $LN483@Convert
  00844	33 c9		 xor	 ecx, ecx
  00846	81 fa bc 18 00
	00		 cmp	 edx, 6332		; 000018bcH
  0084c	0f 9e c1	 setle	 cl
  0084f	85 c9		 test	 ecx, ecx
  00851	74 09		 je	 SHORT $LN483@Convert

; 496  : 		{
; 497  : 			this->m_RequireLevel = p->RequireLevel;

  00853	66 89 46 50	 mov	 WORD PTR [esi+80], ax
  00857	e9 d2 00 00 00	 jmp	 $LN284@Convert
$LN483@Convert:

; 498  : 		}
; 499  : #endif
; 500  : #ifdef NEWWINGS_4
; 501  : 		else if( IS_NEWWINGS_4(_type) )

  0085c	81 fa b4 18 00
	00		 cmp	 edx, 6324		; 000018b4H
  00862	7c 18		 jl	 SHORT $LN484@Convert
  00864	33 c9		 xor	 ecx, ecx
  00866	81 fa b9 18 00
	00		 cmp	 edx, 6329		; 000018b9H
  0086c	0f 9e c1	 setle	 cl
  0086f	85 c9		 test	 ecx, ecx
  00871	74 09		 je	 SHORT $LN484@Convert

; 502  : 		{
; 503  : 			this->m_RequireLevel = p->RequireLevel;

  00873	66 89 46 50	 mov	 WORD PTR [esi+80], ax
  00877	e9 b2 00 00 00	 jmp	 $LN284@Convert
$LN484@Convert:

; 504  : 		}
; 505  : #endif
; 506  : #ifdef NEWWINGS_5
; 507  : 		else if( IS_NEWWINGS_5(_type) )

  0087c	81 fa bd 18 00
	00		 cmp	 edx, 6333		; 000018bdH
  00882	7c 18		 jl	 SHORT $LN485@Convert
  00884	33 c9		 xor	 ecx, ecx
  00886	81 fa c2 18 00
	00		 cmp	 edx, 6338		; 000018c2H
  0088c	0f 9e c1	 setle	 cl
  0088f	85 c9		 test	 ecx, ecx
  00891	74 09		 je	 SHORT $LN485@Convert

; 508  : 		{
; 509  : 			this->m_RequireLevel = p->RequireLevel;

  00893	66 89 46 50	 mov	 WORD PTR [esi+80], ax
  00897	e9 92 00 00 00	 jmp	 $LN284@Convert
$LN485@Convert:

; 510  : 		}
; 511  : #endif
; 512  : #ifdef NEWWINGS_6
; 513  : 		else if( IS_NEWWINGS_6(_type) )

  0089c	81 fa c3 18 00
	00		 cmp	 edx, 6339		; 000018c3H
  008a2	7c 15		 jl	 SHORT $LN486@Convert
  008a4	33 c9		 xor	 ecx, ecx
  008a6	81 fa dc 18 00
	00		 cmp	 edx, 6364		; 000018dcH
  008ac	0f 9e c1	 setle	 cl
  008af	85 c9		 test	 ecx, ecx
  008b1	74 06		 je	 SHORT $LN486@Convert

; 514  : 		{
; 515  : 
; 516  : 			this->m_RequireLevel = p->RequireLevel;

  008b3	66 89 46 50	 mov	 WORD PTR [esi+80], ax
  008b7	eb 75		 jmp	 SHORT $LN284@Convert
$LN486@Convert:

; 517  : 		}
; 518  : #endif
; 519  : 		else if ( _type >= ITEMGET(12,3) && _type <= ITEMGET(12,6) )

  008b9	8d 8a fd e7 ff
	ff		 lea	 ecx, DWORD PTR [edx-6147]
  008bf	83 f9 03	 cmp	 ecx, 3

; 520  : 		{
; 521  : 			this->m_RequireLevel = p->RequireLevel + (this->m_Level * 5);

  008c2	76 08		 jbe	 SHORT $LN588@Convert

; 522  : 		}
; 523  : 		else if ( _type == ITEMGET(12,42) ) //Season3

  008c4	81 fa 2a 18 00
	00		 cmp	 edx, 6186		; 0000182aH
  008ca	75 19		 jne	 SHORT $LN293@Convert
$LN588@Convert:

; 524  : 		{
; 525  : 			this->m_RequireLevel = p->RequireLevel + (this->m_Level * 5);

  008cc	66 8b 4e 08	 mov	 cx, WORD PTR [esi+8]
  008d0	66 8b d9	 mov	 bx, cx
  008d3	66 03 db	 add	 bx, bx
  008d6	66 03 db	 add	 bx, bx
  008d9	66 03 cb	 add	 cx, bx
  008dc	66 03 c8	 add	 cx, ax
  008df	66 89 4e 50	 mov	 WORD PTR [esi+80], cx
  008e3	eb 49		 jmp	 SHORT $LN284@Convert
$LN293@Convert:

; 526  : 		}
; 527  : 		else if ( _type == ITEMGET(12,43) ) //Season3

  008e5	81 fa 2b 18 00
	00		 cmp	 edx, 6187		; 0000182bH
  008eb	75 06		 jne	 SHORT $LN291@Convert

; 528  : 		{
; 529  : 			this->m_RequireLevel = p->RequireLevel;

  008ed	66 89 46 50	 mov	 WORD PTR [esi+80], ax
  008f1	eb 3b		 jmp	 SHORT $LN284@Convert
$LN291@Convert:

; 530  : 		}
; 531  : 		else if ( _type >= ITEMGET(12,7) && _type <= ITEMGET(12,24) )

  008f3	8d 8a f9 e7 ff
	ff		 lea	 ecx, DWORD PTR [edx-6151]
  008f9	83 f9 11	 cmp	 ecx, 17			; 00000011H
  008fc	77 06		 ja	 SHORT $LN289@Convert

; 532  : 		{
; 533  : 			this->m_RequireLevel = p->RequireLevel;

  008fe	66 89 46 50	 mov	 WORD PTR [esi+80], ax
  00902	eb 2a		 jmp	 SHORT $LN284@Convert
$LN289@Convert:

; 534  : 		}
; 535  : 		else if ( _type >= ITEMGET(0,0) && _type < ITEMGET(12,0) )

  00904	81 fa ff 17 00
	00		 cmp	 edx, 6143		; 000017ffH
  0090a	77 06		 ja	 SHORT $LN287@Convert

; 536  : 		{
; 537  : 			if ( p->RequireLevel )
; 538  : 				this->m_RequireLevel = p->RequireLevel;

  0090c	66 89 46 50	 mov	 WORD PTR [esi+80], ax

; 539  : 		}
; 540  : 		else

  00910	eb 1c		 jmp	 SHORT $LN284@Convert
$LN287@Convert:

; 541  : 		{
; 542  : 			this->m_RequireLevel = p->RequireLevel + this->m_Level * 4;

  00912	66 8b 4e 08	 mov	 cx, WORD PTR [esi+8]
  00916	66 03 c9	 add	 cx, cx
  00919	66 03 c9	 add	 cx, cx
  0091c	66 03 c8	 add	 cx, ax
  0091f	66 89 4e 50	 mov	 WORD PTR [esi+80], cx

; 543  : 		}
; 544  : 	}
; 545  : 	else

  00923	eb 09		 jmp	 SHORT $LN284@Convert
$LN310@Convert:

; 546  : 	{
; 547  : 		this->m_RequireLevel = 0;

  00925	33 d2		 xor	 edx, edx
  00927	66 89 56 50	 mov	 WORD PTR [esi+80], dx
  0092b	8b 55 08	 mov	 edx, DWORD PTR __type$[ebp]
$LN284@Convert:

; 548  : 	}
; 549  : 
; 550  : 	if ( this->m_Type == ITEMGET(13,10) )

  0092e	0f b7 46 06	 movzx	 eax, WORD PTR [esi+6]

; 551  : 	{
; 552  : 		if ( ItemLevel <= 2 )

  00932	8b 5d 1c	 mov	 ebx, DWORD PTR _ItemLevel$[ebp]
  00935	b9 0a 1a 00 00	 mov	 ecx, 6666		; 00001a0aH
  0093a	66 3b c1	 cmp	 ax, cx
  0093d	75 19		 jne	 SHORT $LN281@Convert
  0093f	83 fb 02	 cmp	 ebx, 2
  00942	7f 0b		 jg	 SHORT $LN282@Convert

; 553  : 		{
; 554  : 			this->m_RequireLevel = 20;

  00944	b8 14 00 00 00	 mov	 eax, 20			; 00000014H
  00949	66 89 46 50	 mov	 WORD PTR [esi+80], ax

; 555  : 		}
; 556  : 		else

  0094d	eb 09		 jmp	 SHORT $LN281@Convert
$LN282@Convert:

; 557  : 		{
; 558  : 			this->m_RequireLevel = 50;

  0094f	b9 32 00 00 00	 mov	 ecx, 50			; 00000032H
  00954	66 89 4e 50	 mov	 WORD PTR [esi+80], cx
$LN281@Convert:

; 559  : 		}
; 560  : 	}
; 561  : 
; 562  : 	if ( (Attribute2 & 0x3F) > 0 )

  00958	80 7d 1b 00	 cmp	 BYTE PTR tv4555[ebp], 0
  0095c	76 1c		 jbe	 SHORT $LN278@Convert

; 563  : 	{
; 564  : 		if ( this->m_RequireLevel > 0 )

  0095e	0f b7 46 50	 movzx	 eax, WORD PTR [esi+80]
  00962	66 85 c0	 test	 ax, ax
  00965	74 13		 je	 SHORT $LN278@Convert

; 565  : 		{
; 566  : 			if ( _type < ITEMGET(0,0) || _type >= ITEMGET(12,0) )

  00967	85 d2		 test	 edx, edx
  00969	78 08		 js	 SHORT $LN277@Convert
  0096b	81 fa 00 18 00
	00		 cmp	 edx, 6144		; 00001800H
  00971	7c 07		 jl	 SHORT $LN278@Convert
$LN277@Convert:

; 567  : 				this->m_RequireLevel += 20;

  00973	83 c0 14	 add	 eax, 20			; 00000014H
  00976	66 89 46 50	 mov	 WORD PTR [esi+80], ax
$LN278@Convert:

; 568  : 		}
; 569  : 	}
; 570  : 
; 571  : 	if ( this->m_SetOption != 0 )

  0097a	8a 86 ae 00 00
	00		 mov	 al, BYTE PTR [esi+174]
  00980	84 c0		 test	 al, al
  00982	74 0d		 je	 SHORT $LN276@Convert

; 572  : 	{
; 573  : 		ItemLevel = p->Level + 30;

  00984	0f b6 9f 22 00
	00 00		 movzx	 ebx, BYTE PTR ?ItemAttribute@@3PAUITEM_ATTRIBUTE@@A[edi+34]
  0098b	83 c3 1e	 add	 ebx, 30			; 0000001eH
  0098e	89 5d 1c	 mov	 DWORD PTR _ItemLevel$[ebp], ebx
$LN276@Convert:

; 574  : 	}
; 575  : 	
; 576  : 	this->m_Leadership = 0;
; 577  : 
; 578  : 	if ( this->m_DamageMax > 0 )

  00991	0f b7 4e 12	 movzx	 ecx, WORD PTR [esi+18]
  00995	33 d2		 xor	 edx, edx
  00997	66 89 56 56	 mov	 WORD PTR [esi+86], dx
  0099b	66 85 c9	 test	 cx, cx
  0099e	0f 84 97 00 00
	00		 je	 $LN501@Convert

; 579  : 	{
; 580  : 		if ( this->m_SetOption != 0 && ItemLevel != 0 )

  009a4	84 c0		 test	 al, al
  009a6	74 34		 je	 SHORT $LN274@Convert
  009a8	85 db		 test	 ebx, ebx
  009aa	74 30		 je	 SHORT $LN274@Convert

; 581  : 		{
; 582  : 			this->m_DamageMax += (this->m_DamageMin * 25) / p->Level + 5;
; 583  : 			this->m_DamageMax += ItemLevel / 40 + 5;

  009ac	0f b7 46 10	 movzx	 eax, WORD PTR [esi+16]
  009b0	0f b6 9f 22 00
	00 00		 movzx	 ebx, BYTE PTR ?ItemAttribute@@3PAUITEM_ATTRIBUTE@@A[edi+34]
  009b7	6b c0 19	 imul	 eax, 25			; 00000019H
  009ba	99		 cdq
  009bb	f7 fb		 idiv	 ebx
  009bd	8d 1c 01	 lea	 ebx, DWORD PTR [ecx+eax]
  009c0	b8 67 66 66 66	 mov	 eax, 1717986919		; 66666667H
  009c5	f7 6d 1c	 imul	 DWORD PTR _ItemLevel$[ebp]
  009c8	c1 fa 04	 sar	 edx, 4
  009cb	8b c2		 mov	 eax, edx
  009cd	c1 e8 1f	 shr	 eax, 31			; 0000001fH
  009d0	03 c2		 add	 eax, edx
  009d2	8d 4c 18 0a	 lea	 ecx, DWORD PTR [eax+ebx+10]
  009d6	66 89 4e 12	 mov	 WORD PTR [esi+18], cx

; 584  : 		}
; 585  : 		else

  009da	eb 33		 jmp	 SHORT $LN500@Convert
$LN274@Convert:

; 586  : 		{
; 587  : 			if ( (Attribute2 & 0x3F)  > 0 )

  009dc	38 55 1b	 cmp	 BYTE PTR tv4555[ebp], dl
  009df	76 2e		 jbe	 SHORT $LN500@Convert

; 588  : 			{
; 589  : 				if ( iChaosItem != 0 )

  009e1	8b 45 30	 mov	 eax, DWORD PTR _iChaosItem$[ebp]
  009e4	85 c0		 test	 eax, eax
  009e6	74 08		 je	 SHORT $LN271@Convert

; 590  : 				{
; 591  : 					this->m_DamageMax += iChaosItem;

  009e8	03 c8		 add	 ecx, eax
  009ea	66 89 4e 12	 mov	 WORD PTR [esi+18], cx
  009ee	eb 1f		 jmp	 SHORT $LN500@Convert
$LN271@Convert:

; 592  : 				}
; 593  : 				else if ( p->Level != 0 )

  009f0	8a 97 22 00 00
	00		 mov	 dl, BYTE PTR ?ItemAttribute@@3PAUITEM_ATTRIBUTE@@A[edi+34]
  009f6	84 d2		 test	 dl, dl
  009f8	74 15		 je	 SHORT $LN500@Convert

; 594  : 				{
; 595  : 					this->m_DamageMax += (this->m_DamageMin * 25) / p->Level + 5;

  009fa	0f b7 46 10	 movzx	 eax, WORD PTR [esi+16]
  009fe	6b c0 19	 imul	 eax, 25			; 00000019H
  00a01	0f b6 da	 movzx	 ebx, dl
  00a04	99		 cdq
  00a05	f7 fb		 idiv	 ebx
  00a07	8d 54 08 05	 lea	 edx, DWORD PTR [eax+ecx+5]
  00a0b	66 89 56 12	 mov	 WORD PTR [esi+18], dx
$LN500@Convert:

; 596  : 				}
; 597  : 			}
; 598  : 		}
; 599  : 
; 600  : 		this->m_DamageMax += this->m_Level * 3;

  00a0f	0f b7 46 08	 movzx	 eax, WORD PTR [esi+8]
  00a13	8d 0c 40	 lea	 ecx, DWORD PTR [eax+eax*2]
  00a16	66 01 4e 12	 add	 WORD PTR [esi+18], cx
  00a1a	66 8b 5e 12	 mov	 bx, WORD PTR [esi+18]

; 601  : 
; 602  : 		if ( this->m_Level >= 10 )

  00a1e	66 83 f8 0a	 cmp	 ax, 10			; 0000000aH
  00a22	7c 17		 jl	 SHORT $LN501@Convert

; 603  : 		{
; 604  : 			this->m_DamageMax += (this->m_Level - 9) * (this->m_Level - 8) / 2;

  00a24	0f bf c8	 movsx	 ecx, ax
  00a27	8d 41 f7	 lea	 eax, DWORD PTR [ecx-9]
  00a2a	83 c1 f8	 add	 ecx, -8			; fffffff8H
  00a2d	0f af c1	 imul	 eax, ecx
  00a30	99		 cdq
  00a31	2b c2		 sub	 eax, edx
  00a33	d1 f8		 sar	 eax, 1
  00a35	03 c3		 add	 eax, ebx
  00a37	66 89 46 12	 mov	 WORD PTR [esi+18], ax
$LN501@Convert:

; 605  : 		}
; 606  : 	}
; 607  : 
; 608  : 	if ( this->m_DamageMin > 0 )	

  00a3b	0f b7 4e 10	 movzx	 ecx, WORD PTR [esi+16]
  00a3f	66 85 c9	 test	 cx, cx
  00a42	0f 84 9b 00 00
	00		 je	 $LN524@Convert

; 609  : 	{
; 610  : 		if ( this->m_SetOption != 0 && ItemLevel != 0 )

  00a48	80 be ae 00 00
	00 00		 cmp	 BYTE PTR [esi+174], 0
  00a4f	74 34		 je	 SHORT $LN526@Convert
  00a51	83 7d 1c 00	 cmp	 DWORD PTR _ItemLevel$[ebp], 0
  00a55	74 2e		 je	 SHORT $LN526@Convert

; 611  : 		{
; 612  : 			this->m_DamageMin += (this->m_DamageMin * 25) / p->Level + 5;
; 613  : 			this->m_DamageMin += ItemLevel / 40 + 5;

  00a57	0f b6 9f 22 00
	00 00		 movzx	 ebx, BYTE PTR ?ItemAttribute@@3PAUITEM_ATTRIBUTE@@A[edi+34]
  00a5e	8b c1		 mov	 eax, ecx
  00a60	6b c0 19	 imul	 eax, 25			; 00000019H
  00a63	99		 cdq
  00a64	f7 fb		 idiv	 ebx
  00a66	8d 1c 01	 lea	 ebx, DWORD PTR [ecx+eax]
  00a69	b8 67 66 66 66	 mov	 eax, 1717986919		; 66666667H
  00a6e	f7 6d 1c	 imul	 DWORD PTR _ItemLevel$[ebp]
  00a71	c1 fa 04	 sar	 edx, 4
  00a74	8b c2		 mov	 eax, edx
  00a76	c1 e8 1f	 shr	 eax, 31			; 0000001fH
  00a79	03 c2		 add	 eax, edx
  00a7b	8d 4c 18 0a	 lea	 ecx, DWORD PTR [eax+ebx+10]
  00a7f	66 89 4e 10	 mov	 WORD PTR [esi+16], cx

; 614  : 		}
; 615  : 		else

  00a83	eb 32		 jmp	 SHORT $LN261@Convert
$LN526@Convert:

; 616  : 		{
; 617  : 			if ( (Attribute2 & 0x3F)  > 0 )

  00a85	80 7d 1b 00	 cmp	 BYTE PTR tv4555[ebp], 0
  00a89	76 2c		 jbe	 SHORT $LN261@Convert

; 618  : 			{
; 619  : 				if ( iChaosItem != 0 )

  00a8b	8b 45 30	 mov	 eax, DWORD PTR _iChaosItem$[ebp]
  00a8e	85 c0		 test	 eax, eax
  00a90	74 08		 je	 SHORT $LN263@Convert

; 620  : 				{
; 621  : 					this->m_DamageMin += iChaosItem;

  00a92	03 c8		 add	 ecx, eax
  00a94	66 89 4e 10	 mov	 WORD PTR [esi+16], cx
  00a98	eb 1d		 jmp	 SHORT $LN261@Convert
$LN263@Convert:

; 622  : 				}
; 623  : 				else if ( p->Level != 0 )

  00a9a	8a 97 22 00 00
	00		 mov	 dl, BYTE PTR ?ItemAttribute@@3PAUITEM_ATTRIBUTE@@A[edi+34]
  00aa0	84 d2		 test	 dl, dl
  00aa2	74 13		 je	 SHORT $LN261@Convert

; 624  : 				{
; 625  : 					this->m_DamageMin += (this->m_DamageMin * 25) / p->Level + 5;

  00aa4	8b c1		 mov	 eax, ecx
  00aa6	6b c0 19	 imul	 eax, 25			; 00000019H
  00aa9	0f b6 da	 movzx	 ebx, dl
  00aac	99		 cdq
  00aad	f7 fb		 idiv	 ebx
  00aaf	8d 54 08 05	 lea	 edx, DWORD PTR [eax+ecx+5]
  00ab3	66 89 56 10	 mov	 WORD PTR [esi+16], dx
$LN261@Convert:

; 626  : 				}
; 627  : 			}
; 628  : 		}
; 629  : 
; 630  : 		this->m_DamageMin += this->m_Level * 3;

  00ab7	0f b7 46 08	 movzx	 eax, WORD PTR [esi+8]
  00abb	8d 0c 40	 lea	 ecx, DWORD PTR [eax+eax*2]
  00abe	66 01 4e 10	 add	 WORD PTR [esi+16], cx
  00ac2	66 8b 5e 10	 mov	 bx, WORD PTR [esi+16]

; 631  : 
; 632  : 		if ( this->m_Level >= 10 )

  00ac6	66 83 f8 0a	 cmp	 ax, 10			; 0000000aH
  00aca	7c 17		 jl	 SHORT $LN524@Convert

; 633  : 		{
; 634  : 			this->m_DamageMin += (this->m_Level - 9) * (this->m_Level - 8) / 2;

  00acc	0f bf c8	 movsx	 ecx, ax
  00acf	8d 41 f7	 lea	 eax, DWORD PTR [ecx-9]
  00ad2	83 c1 f8	 add	 ecx, -8			; fffffff8H
  00ad5	0f af c1	 imul	 eax, ecx
  00ad8	99		 cdq
  00ad9	2b c2		 sub	 eax, edx
  00adb	d1 f8		 sar	 eax, 1
  00add	03 c3		 add	 eax, ebx
  00adf	66 89 46 10	 mov	 WORD PTR [esi+16], ax
$LN524@Convert:

; 635  : 		}
; 636  : 	}
; 637  : 
; 638  : 	if ( this->m_Magic > 0 )	

  00ae3	0f b7 4e 20	 movzx	 ecx, WORD PTR [esi+32]
  00ae7	66 85 c9	 test	 cx, cx
  00aea	0f 84 9e 00 00
	00		 je	 $LN523@Convert

; 639  : 	{
; 640  : 		if ( this->m_SetOption != 0 && ItemLevel != 0 )

  00af0	80 be ae 00 00
	00 00		 cmp	 BYTE PTR [esi+174], 0
  00af7	74 37		 je	 SHORT $LN522@Convert
  00af9	83 7d 1c 00	 cmp	 DWORD PTR _ItemLevel$[ebp], 0
  00afd	74 31		 je	 SHORT $LN522@Convert

; 641  : 		{
; 642  : 			this->m_Magic += (this->m_Magic * 25) / p->Level + 5;
; 643  : 			this->m_Magic += ItemLevel / 60 + 2;

  00aff	0f b6 9f 22 00
	00 00		 movzx	 ebx, BYTE PTR ?ItemAttribute@@3PAUITEM_ATTRIBUTE@@A[edi+34]
  00b06	8b c1		 mov	 eax, ecx
  00b08	6b c0 19	 imul	 eax, 25			; 00000019H
  00b0b	99		 cdq
  00b0c	f7 fb		 idiv	 ebx
  00b0e	8d 1c 01	 lea	 ebx, DWORD PTR [ecx+eax]
  00b11	b8 89 88 88 88	 mov	 eax, -2004318071	; 88888889H
  00b16	f7 6d 1c	 imul	 DWORD PTR _ItemLevel$[ebp]
  00b19	03 55 1c	 add	 edx, DWORD PTR _ItemLevel$[ebp]
  00b1c	c1 fa 05	 sar	 edx, 5
  00b1f	8b c2		 mov	 eax, edx
  00b21	c1 e8 1f	 shr	 eax, 31			; 0000001fH
  00b24	03 c2		 add	 eax, edx
  00b26	8d 4c 18 07	 lea	 ecx, DWORD PTR [eax+ebx+7]
  00b2a	66 89 4e 20	 mov	 WORD PTR [esi+32], cx

; 644  : 		}
; 645  : 		else

  00b2e	eb 32		 jmp	 SHORT $LN253@Convert
$LN522@Convert:

; 646  : 		{
; 647  : 			if ( (Attribute2 & 0x3F)  > 0 )

  00b30	80 7d 1b 00	 cmp	 BYTE PTR tv4555[ebp], 0
  00b34	76 2c		 jbe	 SHORT $LN253@Convert

; 648  : 			{
; 649  : 				if ( iChaosItem != 0 )

  00b36	8b 45 30	 mov	 eax, DWORD PTR _iChaosItem$[ebp]
  00b39	85 c0		 test	 eax, eax
  00b3b	74 08		 je	 SHORT $LN255@Convert

; 650  : 				{
; 651  : 					this->m_Magic += iChaosItem;

  00b3d	03 c8		 add	 ecx, eax
  00b3f	66 89 4e 20	 mov	 WORD PTR [esi+32], cx
  00b43	eb 1d		 jmp	 SHORT $LN253@Convert
$LN255@Convert:

; 652  : 				}
; 653  : 				else if ( p->Level != 0 )

  00b45	8a 97 22 00 00
	00		 mov	 dl, BYTE PTR ?ItemAttribute@@3PAUITEM_ATTRIBUTE@@A[edi+34]
  00b4b	84 d2		 test	 dl, dl
  00b4d	74 13		 je	 SHORT $LN253@Convert

; 654  : 				{
; 655  : 					this->m_Magic += (this->m_Magic * 25) / p->Level + 5;

  00b4f	8b c1		 mov	 eax, ecx
  00b51	6b c0 19	 imul	 eax, 25			; 00000019H
  00b54	0f b6 da	 movzx	 ebx, dl
  00b57	99		 cdq
  00b58	f7 fb		 idiv	 ebx
  00b5a	8d 54 08 05	 lea	 edx, DWORD PTR [eax+ecx+5]
  00b5e	66 89 56 20	 mov	 WORD PTR [esi+32], dx
$LN253@Convert:

; 656  : 				}
; 657  : 			}
; 658  : 		}
; 659  : 
; 660  : 		this->m_Magic += this->m_Level * 3;

  00b62	0f b7 46 08	 movzx	 eax, WORD PTR [esi+8]
  00b66	8d 0c 40	 lea	 ecx, DWORD PTR [eax+eax*2]
  00b69	66 01 4e 20	 add	 WORD PTR [esi+32], cx
  00b6d	66 8b 5e 20	 mov	 bx, WORD PTR [esi+32]

; 661  : 
; 662  : 		if ( this->m_Level >= 10 )

  00b71	66 83 f8 0a	 cmp	 ax, 10			; 0000000aH
  00b75	7c 17		 jl	 SHORT $LN523@Convert

; 663  : 		{
; 664  : 			this->m_Magic += (this->m_Level - 9) * (this->m_Level - 8) / 2;

  00b77	0f bf c8	 movsx	 ecx, ax
  00b7a	8d 41 f7	 lea	 eax, DWORD PTR [ecx-9]
  00b7d	83 c1 f8	 add	 ecx, -8			; fffffff8H
  00b80	0f af c1	 imul	 eax, ecx
  00b83	99		 cdq
  00b84	2b c2		 sub	 eax, edx
  00b86	d1 f8		 sar	 eax, 1
  00b88	03 c3		 add	 eax, ebx
  00b8a	66 89 46 20	 mov	 WORD PTR [esi+32], ax
$LN523@Convert:

; 665  : 		}
; 666  : 	}
; 667  : 
; 668  : 	if( this->m_BookSpell > 0) //Season3 Summoner

  00b8e	0f b7 4e 22	 movzx	 ecx, WORD PTR [esi+34]
  00b92	66 85 c9	 test	 cx, cx
  00b95	0f 84 9e 00 00
	00		 je	 $LN521@Convert

; 669  : 	{
; 670  : 		if ( this->m_SetOption != 0 && ItemLevel != 0 )

  00b9b	80 be ae 00 00
	00 00		 cmp	 BYTE PTR [esi+174], 0
  00ba2	74 37		 je	 SHORT $LN250@Convert
  00ba4	83 7d 1c 00	 cmp	 DWORD PTR _ItemLevel$[ebp], 0
  00ba8	74 31		 je	 SHORT $LN250@Convert

; 671  : 		{
; 672  : 			this->m_BookSpell += (this->m_BookSpell * 25) / p->Level + 5;
; 673  : 			this->m_BookSpell += ItemLevel / 60 + 2;

  00baa	0f b6 9f 22 00
	00 00		 movzx	 ebx, BYTE PTR ?ItemAttribute@@3PAUITEM_ATTRIBUTE@@A[edi+34]
  00bb1	8b c1		 mov	 eax, ecx
  00bb3	6b c0 19	 imul	 eax, 25			; 00000019H
  00bb6	99		 cdq
  00bb7	f7 fb		 idiv	 ebx
  00bb9	8d 1c 01	 lea	 ebx, DWORD PTR [ecx+eax]
  00bbc	b8 89 88 88 88	 mov	 eax, -2004318071	; 88888889H
  00bc1	f7 6d 1c	 imul	 DWORD PTR _ItemLevel$[ebp]
  00bc4	03 55 1c	 add	 edx, DWORD PTR _ItemLevel$[ebp]
  00bc7	c1 fa 05	 sar	 edx, 5
  00bca	8b c2		 mov	 eax, edx
  00bcc	c1 e8 1f	 shr	 eax, 31			; 0000001fH
  00bcf	03 c2		 add	 eax, edx
  00bd1	8d 4c 18 07	 lea	 ecx, DWORD PTR [eax+ebx+7]
  00bd5	66 89 4e 22	 mov	 WORD PTR [esi+34], cx

; 674  : 		}
; 675  : 		else

  00bd9	eb 32		 jmp	 SHORT $LN245@Convert
$LN250@Convert:

; 676  : 		{
; 677  : 			if ( (Attribute2 & 0x3F)  > 0 )

  00bdb	80 7d 1b 00	 cmp	 BYTE PTR tv4555[ebp], 0
  00bdf	76 2c		 jbe	 SHORT $LN245@Convert

; 678  : 			{
; 679  : 				if ( iChaosItem != 0 ) //season4 changed

  00be1	8b 45 30	 mov	 eax, DWORD PTR _iChaosItem$[ebp]
  00be4	85 c0		 test	 eax, eax
  00be6	74 08		 je	 SHORT $LN247@Convert

; 680  : 				{
; 681  : 					this->m_BookSpell += iChaosItem; //season4 changed

  00be8	03 c8		 add	 ecx, eax
  00bea	66 89 4e 22	 mov	 WORD PTR [esi+34], cx
  00bee	eb 1d		 jmp	 SHORT $LN245@Convert
$LN247@Convert:

; 682  : 				}
; 683  : 				else if ( p->Level != 0 )

  00bf0	8a 97 22 00 00
	00		 mov	 dl, BYTE PTR ?ItemAttribute@@3PAUITEM_ATTRIBUTE@@A[edi+34]
  00bf6	84 d2		 test	 dl, dl
  00bf8	74 13		 je	 SHORT $LN245@Convert

; 684  : 				{
; 685  : 					this->m_BookSpell += (this->m_BookSpell * 25) / p->Level + 5;

  00bfa	8b c1		 mov	 eax, ecx
  00bfc	6b c0 19	 imul	 eax, 25			; 00000019H
  00bff	0f b6 da	 movzx	 ebx, dl
  00c02	99		 cdq
  00c03	f7 fb		 idiv	 ebx
  00c05	8d 54 08 05	 lea	 edx, DWORD PTR [eax+ecx+5]
  00c09	66 89 56 22	 mov	 WORD PTR [esi+34], dx
$LN245@Convert:

; 686  : 				}
; 687  : 			}
; 688  : 		}
; 689  : 
; 690  : 		this->m_BookSpell += this->m_Level * 3;

  00c0d	0f b7 46 08	 movzx	 eax, WORD PTR [esi+8]
  00c11	8d 0c 40	 lea	 ecx, DWORD PTR [eax+eax*2]
  00c14	66 01 4e 22	 add	 WORD PTR [esi+34], cx
  00c18	66 8b 5e 22	 mov	 bx, WORD PTR [esi+34]

; 691  : 
; 692  : 		if ( this->m_Level >= 10 )

  00c1c	66 83 f8 0a	 cmp	 ax, 10			; 0000000aH
  00c20	7c 17		 jl	 SHORT $LN521@Convert

; 693  : 		{
; 694  : 			this->m_BookSpell += (this->m_Level - 9) * (this->m_Level - 8) / 2;

  00c22	0f bf c8	 movsx	 ecx, ax
  00c25	8d 41 f7	 lea	 eax, DWORD PTR [ecx-9]
  00c28	83 c1 f8	 add	 ecx, -8			; fffffff8H
  00c2b	0f af c1	 imul	 eax, ecx
  00c2e	99		 cdq
  00c2f	2b c2		 sub	 eax, edx
  00c31	d1 f8		 sar	 eax, 1
  00c33	03 c3		 add	 eax, ebx
  00c35	66 89 46 22	 mov	 WORD PTR [esi+34], ax
$LN521@Convert:

; 695  : 		}
; 696  : 	}
; 697  : 
; 698  : 	if ( p->SuccessfulBlocking > 0 )	

  00c39	80 bf 2c 00 00
	00 00		 cmp	 BYTE PTR ?ItemAttribute@@3PAUITEM_ATTRIBUTE@@A[edi+44], 0
  00c40	0f 86 9a 00 00
	00		 jbe	 $LN502@Convert

; 699  : 	{
; 700  : 		if ( this->m_SetOption != 0 && ItemLevel != 0 )

  00c46	80 be ae 00 00
	00 00		 cmp	 BYTE PTR [esi+174], 0
  00c4d	74 3c		 je	 SHORT $LN242@Convert
  00c4f	83 7d 1c 00	 cmp	 DWORD PTR _ItemLevel$[ebp], 0
  00c53	74 36		 je	 SHORT $LN242@Convert

; 701  : 		{
; 702  : 			this->m_SuccessfulBlocking += (this->m_SuccessfulBlocking * 25) / p->Level + 5;

  00c55	8a 4e 14	 mov	 cl, BYTE PTR [esi+20]

; 703  : 			this->m_SuccessfulBlocking += ItemLevel / 40 + 5;

  00c58	0f b6 bf 22 00
	00 00		 movzx	 edi, BYTE PTR ?ItemAttribute@@3PAUITEM_ATTRIBUTE@@A[edi+34]
  00c5f	0f b6 c1	 movzx	 eax, cl
  00c62	6b c0 19	 imul	 eax, 25			; 00000019H
  00c65	99		 cdq
  00c66	f7 ff		 idiv	 edi

; 704  : 		}
; 705  : 		else

  00c68	8b 7d fc	 mov	 edi, DWORD PTR tv4267[ebp]
  00c6b	8b d8		 mov	 ebx, eax
  00c6d	b8 67 66 66 66	 mov	 eax, 1717986919		; 66666667H
  00c72	f7 6d 1c	 imul	 DWORD PTR _ItemLevel$[ebp]
  00c75	c1 fa 04	 sar	 edx, 4
  00c78	8b c2		 mov	 eax, edx
  00c7a	c1 e8 1f	 shr	 eax, 31			; 0000001fH
  00c7d	03 c2		 add	 eax, edx
  00c7f	02 d8		 add	 bl, al
  00c81	02 d9		 add	 bl, cl
  00c83	80 c3 0a	 add	 bl, 10			; 0000000aH
  00c86	88 5e 14	 mov	 BYTE PTR [esi+20], bl
  00c89	eb 26		 jmp	 SHORT $LN239@Convert
$LN242@Convert:

; 706  : 		{
; 707  : 			if ( (Attribute2 & 0x3F)  > 0 )

  00c8b	80 7d 1b 00	 cmp	 BYTE PTR tv4555[ebp], 0
  00c8f	76 20		 jbe	 SHORT $LN239@Convert

; 708  : 			{
; 709  : 				if ( p->Level != 0 )

  00c91	8a 97 22 00 00
	00		 mov	 dl, BYTE PTR ?ItemAttribute@@3PAUITEM_ATTRIBUTE@@A[edi+34]
  00c97	84 d2		 test	 dl, dl
  00c99	74 16		 je	 SHORT $LN239@Convert

; 710  : 				{
; 711  : 					this->m_SuccessfulBlocking += (this->m_SuccessfulBlocking * 25) / p->Level + 5;

  00c9b	8a 4e 14	 mov	 cl, BYTE PTR [esi+20]
  00c9e	0f b6 c1	 movzx	 eax, cl
  00ca1	6b c0 19	 imul	 eax, 25			; 00000019H
  00ca4	0f b6 da	 movzx	 ebx, dl
  00ca7	99		 cdq
  00ca8	f7 fb		 idiv	 ebx
  00caa	02 c1		 add	 al, cl
  00cac	04 05		 add	 al, 5
  00cae	88 46 14	 mov	 BYTE PTR [esi+20], al
$LN239@Convert:

; 712  : 				}
; 713  : 			}
; 714  : 		}
; 715  : 
; 716  : 		this->m_SuccessfulBlocking += this->m_Level * 3;

  00cb1	8a 46 08	 mov	 al, BYTE PTR [esi+8]
  00cb4	8a c8		 mov	 cl, al
  00cb6	02 c9		 add	 cl, cl
  00cb8	02 c1		 add	 al, cl
  00cba	00 46 14	 add	 BYTE PTR [esi+20], al

; 717  : 
; 718  : 		if ( this->m_Level >= 10 )

  00cbd	0f b7 46 08	 movzx	 eax, WORD PTR [esi+8]
  00cc1	8a 5e 14	 mov	 bl, BYTE PTR [esi+20]
  00cc4	66 83 f8 0a	 cmp	 ax, 10			; 0000000aH
  00cc8	7c 16		 jl	 SHORT $LN502@Convert

; 719  : 		{
; 720  : 			this->m_SuccessfulBlocking += (this->m_Level - 9) * (this->m_Level - 8) / 2;

  00cca	0f bf c8	 movsx	 ecx, ax
  00ccd	8d 41 f7	 lea	 eax, DWORD PTR [ecx-9]
  00cd0	83 c1 f8	 add	 ecx, -8			; fffffff8H
  00cd3	0f af c1	 imul	 eax, ecx
  00cd6	99		 cdq
  00cd7	2b c2		 sub	 eax, edx
  00cd9	d1 f8		 sar	 eax, 1
  00cdb	02 c3		 add	 al, bl
  00cdd	88 46 14	 mov	 BYTE PTR [esi+20], al
$LN502@Convert:

; 721  : 		}
; 722  : 	}
; 723  : 
; 724  : 	if ( p->Defense > 0 )	

  00ce0	80 bf 2d 00 00
	00 00		 cmp	 BYTE PTR ?ItemAttribute@@3PAUITEM_ATTRIBUTE@@A[edi+45], 0
  00ce7	0f 86 7a 01 00
	00		 jbe	 $LN490@Convert

; 725  : 	{
; 726  : 		if ( this->m_Type >= ITEMGET(6,0) && this->m_Type < ITEMGET(7,0) )

  00ced	0f b7 46 06	 movzx	 eax, WORD PTR [esi+6]
  00cf1	ba 00 0c 00 00	 mov	 edx, 3072		; 00000c00H
  00cf6	66 3b c2	 cmp	 ax, dx
  00cf9	7c 48		 jl	 SHORT $LN236@Convert
  00cfb	b9 00 0e 00 00	 mov	 ecx, 3584		; 00000e00H
  00d00	66 3b c1	 cmp	 ax, cx
  00d03	7d 3e		 jge	 SHORT $LN236@Convert

; 727  : 		{
; 728  : 			this->m_Defense += this->m_Level;

  00d05	66 8b 56 08	 mov	 dx, WORD PTR [esi+8]
  00d09	66 01 56 16	 add	 WORD PTR [esi+22], dx

; 729  : 
; 730  : 			if ( this->m_SetOption != 0 && ItemLevel != 0 )

  00d0d	80 be ae 00 00
	00 00		 cmp	 BYTE PTR [esi+174], 0
  00d14	66 8b 4e 16	 mov	 cx, WORD PTR [esi+22]
  00d18	0f 84 49 01 00
	00		 je	 $LN490@Convert
  00d1e	83 7d 1c 00	 cmp	 DWORD PTR _ItemLevel$[ebp], 0
  00d22	0f 84 3f 01 00
	00		 je	 $LN490@Convert

; 731  : 			{
; 732  : 				this->m_Defense += (this->m_Defense * 20) / ItemLevel + 2;

  00d28	0f b7 c1	 movzx	 eax, cx
  00d2b	8d 04 80	 lea	 eax, DWORD PTR [eax+eax*4]
  00d2e	03 c0		 add	 eax, eax
  00d30	03 c0		 add	 eax, eax
  00d32	99		 cdq
  00d33	f7 7d 1c	 idiv	 DWORD PTR _ItemLevel$[ebp]
  00d36	8d 44 08 02	 lea	 eax, DWORD PTR [eax+ecx+2]
  00d3a	66 89 46 16	 mov	 WORD PTR [esi+22], ax

; 733  : 			}
; 734  : 		}
; 735  : 		else 

  00d3e	e9 24 01 00 00	 jmp	 $LN490@Convert
$LN236@Convert:

; 736  : 		{
; 737  : 			if ( this->m_SetOption != 0 && ItemLevel != 0 )

  00d43	80 be ae 00 00
	00 00		 cmp	 BYTE PTR [esi+174], 0
  00d4a	74 5f		 je	 SHORT $LN503@Convert
  00d4c	83 7d 1c 00	 cmp	 DWORD PTR _ItemLevel$[ebp], 0
  00d50	74 59		 je	 SHORT $LN503@Convert

; 738  : 			{
; 739  : 				this->m_Defense += (this->m_Defense * 12) / p->Level + (p->Level / 5 ) + 4;

  00d52	0f b7 4e 16	 movzx	 ecx, WORD PTR [esi+22]
  00d56	8b 55 fc	 mov	 edx, DWORD PTR tv4267[ebp]
  00d59	0f b6 ba 22 00
	00 00		 movzx	 edi, BYTE PTR ?ItemAttribute@@3PAUITEM_ATTRIBUTE@@A[edx+34]
  00d60	8b c1		 mov	 eax, ecx
  00d62	8d 04 40	 lea	 eax, DWORD PTR [eax+eax*2]
  00d65	03 c0		 add	 eax, eax
  00d67	03 c0		 add	 eax, eax
  00d69	99		 cdq
  00d6a	f7 ff		 idiv	 edi
  00d6c	8d 1c 01	 lea	 ebx, DWORD PTR [ecx+eax]
  00d6f	b8 67 66 66 66	 mov	 eax, 1717986919		; 66666667H
  00d74	f7 ef		 imul	 edi

; 740  : 				this->m_Defense += (this->m_Defense * 3) / ItemLevel  + ( ItemLevel / 30 ) + 2;

  00d76	8b 7d 1c	 mov	 edi, DWORD PTR _ItemLevel$[ebp]
  00d79	d1 fa		 sar	 edx, 1
  00d7b	8b c2		 mov	 eax, edx
  00d7d	c1 e8 1f	 shr	 eax, 31			; 0000001fH
  00d80	03 c2		 add	 eax, edx
  00d82	8d 4c 18 04	 lea	 ecx, DWORD PTR [eax+ebx+4]
  00d86	0f b7 c1	 movzx	 eax, cx
  00d89	8d 04 40	 lea	 eax, DWORD PTR [eax+eax*2]
  00d8c	99		 cdq
  00d8d	f7 ff		 idiv	 edi
  00d8f	8d 1c 01	 lea	 ebx, DWORD PTR [ecx+eax]
  00d92	b8 89 88 88 88	 mov	 eax, -2004318071	; 88888889H
  00d97	f7 ef		 imul	 edi
  00d99	03 d7		 add	 edx, edi
  00d9b	c1 fa 04	 sar	 edx, 4
  00d9e	8b c2		 mov	 eax, edx
  00da0	c1 e8 1f	 shr	 eax, 31			; 0000001fH
  00da3	03 c2		 add	 eax, edx
  00da5	8d 4c 18 02	 lea	 ecx, DWORD PTR [eax+ebx+2]
  00da9	eb 3a		 jmp	 SHORT $LN590@Convert
$LN503@Convert:

; 741  : 			}
; 742  : 			else if ( (Attribute2 & 0x3F) > 0 )

  00dab	80 7d 1b 00	 cmp	 BYTE PTR tv4555[ebp], 0
  00daf	76 38		 jbe	 SHORT $LN230@Convert

; 743  : 			{
; 744  : 				if ( p->Level != 0 )

  00db1	8a 87 22 00 00
	00		 mov	 al, BYTE PTR ?ItemAttribute@@3PAUITEM_ATTRIBUTE@@A[edi+34]
  00db7	84 c0		 test	 al, al
  00db9	74 2e		 je	 SHORT $LN230@Convert

; 745  : 				{
; 746  : 					this->m_Defense += (this->m_Defense * 12) / p->Level + (p->Level / 5 ) + 4;

  00dbb	0f b7 4e 16	 movzx	 ecx, WORD PTR [esi+22]
  00dbf	0f b6 f8	 movzx	 edi, al
  00dc2	8b c1		 mov	 eax, ecx
  00dc4	8d 04 40	 lea	 eax, DWORD PTR [eax+eax*2]
  00dc7	03 c0		 add	 eax, eax
  00dc9	03 c0		 add	 eax, eax
  00dcb	99		 cdq
  00dcc	f7 ff		 idiv	 edi
  00dce	8d 1c 01	 lea	 ebx, DWORD PTR [ecx+eax]
  00dd1	b8 67 66 66 66	 mov	 eax, 1717986919		; 66666667H
  00dd6	f7 ef		 imul	 edi
  00dd8	d1 fa		 sar	 edx, 1
  00dda	8b c2		 mov	 eax, edx
  00ddc	c1 e8 1f	 shr	 eax, 31			; 0000001fH
  00ddf	03 c2		 add	 eax, edx
  00de1	8d 4c 18 04	 lea	 ecx, DWORD PTR [eax+ebx+4]
$LN590@Convert:
  00de5	66 89 4e 16	 mov	 WORD PTR [esi+22], cx
$LN230@Convert:

; 747  : 				}
; 748  : 			}
; 749  : 			
; 750  : 			if ( ( _type >= ITEMGET(12,36) && _type <= ITEMGET(12,40)) )

  00de9	8b 55 08	 mov	 edx, DWORD PTR __type$[ebp]
  00dec	8d 82 dc e7 ff
	ff		 lea	 eax, DWORD PTR [edx-6180]
  00df2	83 f8 04	 cmp	 eax, 4
  00df5	77 21		 ja	 SHORT $LN504@Convert

; 751  : 			{
; 752  : 				this->m_Defense += this->m_Level * 4;

  00df7	0f b7 46 08	 movzx	 eax, WORD PTR [esi+8]
  00dfb	8d 0c 85 00 00
	00 00		 lea	 ecx, DWORD PTR [eax*4]
  00e02	66 01 4e 16	 add	 WORD PTR [esi+22], cx
  00e06	0f b7 4e 16	 movzx	 ecx, WORD PTR [esi+22]

; 753  : 
; 754  : 				if ( this->m_Level >= 10 )

  00e0a	66 83 f8 0a	 cmp	 ax, 10			; 0000000aH
  00e0e	7c 08		 jl	 SHORT $LN504@Convert

; 755  : 				{
; 756  : 					this->m_Defense += (this->m_Level - 9);

  00e10	8d 44 01 f7	 lea	 eax, DWORD PTR [ecx+eax-9]
  00e14	66 89 46 16	 mov	 WORD PTR [esi+22], ax
$LN504@Convert:

; 757  : 				}
; 758  : 			}
; 759  : 			if ( _type == MuItem::miCAPE_FIGTHER )

  00e18	81 fa 31 18 00
	00		 cmp	 edx, 6193		; 00001831H
  00e1e	75 67		 jne	 SHORT $LN227@Convert

; 760  : 			{
; 761  : 				this->m_Defense = 2 * this->m_Level + 10;

  00e20	0f b7 4e 08	 movzx	 ecx, WORD PTR [esi+8]
  00e24	8d 7c 09 0a	 lea	 edi, DWORD PTR [ecx+ecx+10]
  00e28	66 89 7e 16	 mov	 WORD PTR [esi+22], di

; 762  : 				if ( this->m_Level >= 10 )

  00e2c	66 83 f9 0a	 cmp	 cx, 10			; 0000000aH
  00e30	7c 17		 jl	 SHORT $LN510@Convert

; 763  : 				{
; 764  : 					this->m_Defense += (this->m_Level - 8) * (this->m_Level - 9) / 2;

  00e32	0f bf d1	 movsx	 edx, cx
  00e35	8d 42 f7	 lea	 eax, DWORD PTR [edx-9]
  00e38	83 c2 f8	 add	 edx, -8			; fffffff8H
  00e3b	0f af c2	 imul	 eax, edx
  00e3e	99		 cdq
  00e3f	2b c2		 sub	 eax, edx
  00e41	d1 f8		 sar	 eax, 1
  00e43	03 c7		 add	 eax, edi
  00e45	66 89 46 16	 mov	 WORD PTR [esi+22], ax
$LN510@Convert:

; 765  : 				}
; 766  : 			}

  00e49	8b 55 08	 mov	 edx, DWORD PTR __type$[ebp]
$LN209@Convert:

; 818  : 			}
; 819  : 
; 820  : 			if ( this->m_Level >= 10 )

  00e4c	66 83 f9 0a	 cmp	 cx, 10			; 0000000aH
  00e50	7c 18		 jl	 SHORT $LN208@Convert

; 821  : 			{
; 822  : 				this->m_Defense += (this->m_Level - 9) * (this->m_Level - 8) / 2;

  00e52	0f bf c9	 movsx	 ecx, cx
  00e55	8d 41 f7	 lea	 eax, DWORD PTR [ecx-9]
  00e58	83 c1 f8	 add	 ecx, -8			; fffffff8H
  00e5b	0f af c1	 imul	 eax, ecx
  00e5e	99		 cdq
  00e5f	2b c2		 sub	 eax, edx
  00e61	d1 f8		 sar	 eax, 1
  00e63	66 01 46 16	 add	 WORD PTR [esi+22], ax
$LN490@Convert:

; 733  : 			}
; 734  : 		}
; 735  : 		else 

  00e67	8b 55 08	 mov	 edx, DWORD PTR __type$[ebp]
$LN208@Convert:

; 823  : 			}
; 824  : 		}
; 825  : 	}
; 826  : 
; 827  : 	if ( _type == ITEMGET(13,30) )

  00e6a	81 fa 1e 1a 00
	00		 cmp	 edx, 6686		; 00001a1eH
  00e70	0f 85 d7 00 00
	00		 jne	 $LN206@Convert

; 828  : 	{
; 829  : 		this->m_Defense = this->m_Level*2 + 15;

  00e76	0f b7 46 08	 movzx	 eax, WORD PTR [esi+8]
  00e7a	8d 7c 00 0f	 lea	 edi, DWORD PTR [eax+eax+15]
  00e7e	66 89 7e 16	 mov	 WORD PTR [esi+22], di

; 830  : 
; 831  : 		if ( this->m_Level >= 10 )
; 832  : 		{
; 833  : 			this->m_Defense += (this->m_Level - 9) * (this->m_Level - 8) / 2;
; 834  : 		}
; 835  : 	}
; 836  : 
; 837  : 	//Summoner Wings
; 838  : 	if ( _type == ITEMGET(12,41) )

  00e82	e9 13 01 00 00	 jmp	 $LN592@Convert
$LN227@Convert:

; 767  : #ifdef NEWWINGS_4
; 768  : 			else if ( IS_NEWWINGS_4(_type) )	//Custom Wings4

  00e87	81 fa b4 18 00
	00		 cmp	 edx, 6324		; 000018b4H
  00e8d	7c 0f		 jl	 SHORT $LN505@Convert
  00e8f	33 c0		 xor	 eax, eax
  00e91	81 fa b9 18 00
	00		 cmp	 edx, 6329		; 000018b9H
  00e97	0f 9e c0	 setle	 al
  00e9a	85 c0		 test	 eax, eax

; 769  : 			{
; 770  : 				this->m_Defense += this->m_Level * 4;
; 771  : 
; 772  : 				if ( this->m_Level >= 10 )
; 773  : 				{
; 774  : 					this->m_Defense += (this->m_Level - 9);
; 775  : 				}
; 776  : 			}

  00e9c	75 45		 jne	 SHORT $LN591@Convert
$LN505@Convert:

; 777  : #endif
; 778  : #ifdef NEWWINGS_2_5
; 779  : 			else if ( IS_NEWWINGS_2_5(_type) )	//Custom Wings4

  00e9e	81 fa ba 18 00
	00		 cmp	 edx, 6330		; 000018baH
  00ea4	7c 0f		 jl	 SHORT $LN506@Convert
  00ea6	33 c0		 xor	 eax, eax
  00ea8	81 fa bc 18 00
	00		 cmp	 edx, 6332		; 000018bcH
  00eae	0f 9e c0	 setle	 al
  00eb1	85 c0		 test	 eax, eax

; 780  : 			{
; 781  : 				this->m_Defense += this->m_Level * 4;
; 782  : 
; 783  : 				if ( this->m_Level >= 10 )
; 784  : 				{
; 785  : 					this->m_Defense += (this->m_Level - 9);
; 786  : 				}
; 787  : 			}

  00eb3	75 2e		 jne	 SHORT $LN591@Convert
$LN506@Convert:

; 788  : #endif
; 789  : #ifdef NEWWINGS_5
; 790  : 			else if ( IS_NEWWINGS_5(_type) )

  00eb5	81 fa bd 18 00
	00		 cmp	 edx, 6333		; 000018bdH
  00ebb	7c 0f		 jl	 SHORT $LN507@Convert
  00ebd	33 c0		 xor	 eax, eax
  00ebf	81 fa c2 18 00
	00		 cmp	 edx, 6338		; 000018c2H
  00ec5	0f 9e c0	 setle	 al
  00ec8	85 c0		 test	 eax, eax

; 791  : 			{
; 792  : 				this->m_Defense += this->m_Level * 4;
; 793  : 
; 794  : 				if ( this->m_Level >= 10 )
; 795  : 				{
; 796  : 					this->m_Defense += (this->m_Level - 9);
; 797  : 				}
; 798  : 			}

  00eca	75 17		 jne	 SHORT $LN591@Convert
$LN507@Convert:

; 799  : #endif
; 800  : #ifdef NEWWINGS_6
; 801  : 			else if ( IS_NEWWINGS_6(_type) )

  00ecc	81 fa c3 18 00
	00		 cmp	 edx, 6339		; 000018c3H
  00ed2	7c 39		 jl	 SHORT $LN508@Convert
  00ed4	33 c0		 xor	 eax, eax
  00ed6	81 fa dc 18 00
	00		 cmp	 edx, 6364		; 000018dcH
  00edc	0f 9e c0	 setle	 al
  00edf	85 c0		 test	 eax, eax
  00ee1	74 2a		 je	 SHORT $LN508@Convert
$LN591@Convert:

; 802  : 			{
; 803  : 				this->m_Defense += this->m_Level * 4;

  00ee3	0f b7 4e 08	 movzx	 ecx, WORD PTR [esi+8]
  00ee7	8d 04 8d 00 00
	00 00		 lea	 eax, DWORD PTR [ecx*4]
  00eee	66 01 46 16	 add	 WORD PTR [esi+22], ax
  00ef2	0f b7 46 16	 movzx	 eax, WORD PTR [esi+22]

; 804  : 
; 805  : 				if ( this->m_Level >= 10 )

  00ef6	66 83 f9 0a	 cmp	 cx, 10			; 0000000aH
  00efa	0f 8c 49 ff ff
	ff		 jl	 $LN510@Convert

; 806  : 				{
; 807  : 					this->m_Defense += (this->m_Level - 9);

  00f00	8d 44 08 f7	 lea	 eax, DWORD PTR [eax+ecx-9]
  00f04	66 89 46 16	 mov	 WORD PTR [esi+22], ax

; 808  : 				}
; 809  : 			}

  00f08	e9 3f ff ff ff	 jmp	 $LN209@Convert
$LN508@Convert:

; 810  : #endif
; 811  : 			else if ( ( _type >= ITEMGET(12,3) && _type <= ITEMGET(12,6)) || _type == ITEMGET(13,30) || _type == ITEMGET(13,4) )

  00f0d	81 fa 03 18 00
	00		 cmp	 edx, 6147		; 00001803H
  00f13	7c 08		 jl	 SHORT $LN487@Convert
  00f15	81 fa 06 18 00
	00		 cmp	 edx, 6150		; 00001806H
  00f1b	7e 20		 jle	 SHORT $LN488@Convert
$LN487@Convert:
  00f1d	81 fa 1e 1a 00
	00		 cmp	 edx, 6686		; 00001a1eH
  00f23	74 18		 je	 SHORT $LN488@Convert
  00f25	81 fa 04 1a 00
	00		 cmp	 edx, 6660		; 00001a04H
  00f2b	74 10		 je	 SHORT $LN488@Convert

; 814  : 			}
; 815  : 			else
; 816  : 			{
; 817  : 				this->m_Defense += this->m_Level * 3;

  00f2d	0f b7 4e 08	 movzx	 ecx, WORD PTR [esi+8]
  00f31	8d 04 49	 lea	 eax, DWORD PTR [ecx+ecx*2]
  00f34	66 01 46 16	 add	 WORD PTR [esi+22], ax
  00f38	e9 0f ff ff ff	 jmp	 $LN209@Convert
$LN488@Convert:

; 812  : 			{
; 813  : 				this->m_Defense += this->m_Level * 2;

  00f3d	0f b7 4e 08	 movzx	 ecx, WORD PTR [esi+8]
  00f41	8d 04 09	 lea	 eax, DWORD PTR [ecx+ecx]
  00f44	66 01 46 16	 add	 WORD PTR [esi+22], ax
  00f48	e9 ff fe ff ff	 jmp	 $LN209@Convert
$LN206@Convert:

; 830  : 
; 831  : 		if ( this->m_Level >= 10 )
; 832  : 		{
; 833  : 			this->m_Defense += (this->m_Level - 9) * (this->m_Level - 8) / 2;
; 834  : 		}
; 835  : 	}
; 836  : 
; 837  : 	//Summoner Wings
; 838  : 	if ( _type == ITEMGET(12,41) )

  00f4d	81 fa 29 18 00
	00		 cmp	 edx, 6185		; 00001829H
  00f53	75 2e		 jne	 SHORT $LN205@Convert

; 839  : 	{
; 840  : 		this->m_Defense += this->m_Level*3;

  00f55	0f b7 46 08	 movzx	 eax, WORD PTR [esi+8]
  00f59	8d 0c 40	 lea	 ecx, DWORD PTR [eax+eax*2]
  00f5c	66 01 4e 16	 add	 WORD PTR [esi+22], cx
  00f60	66 8b 7e 16	 mov	 di, WORD PTR [esi+22]

; 841  : 
; 842  : 		if ( this->m_Level >= 10 )

  00f64	66 83 f8 0a	 cmp	 ax, 10			; 0000000aH
  00f68	7c 78		 jl	 SHORT $LN491@Convert

; 843  : 		{
; 844  : 			this->m_Defense += (this->m_Level - 9) * (this->m_Level - 8) / 2;

  00f6a	0f bf c8	 movsx	 ecx, ax
  00f6d	8d 41 f7	 lea	 eax, DWORD PTR [ecx-9]
  00f70	83 c1 f8	 add	 ecx, -8			; fffffff8H
  00f73	0f af c1	 imul	 eax, ecx
  00f76	99		 cdq
  00f77	2b c2		 sub	 eax, edx
  00f79	d1 f8		 sar	 eax, 1
  00f7b	03 c7		 add	 eax, edi
  00f7d	66 89 46 16	 mov	 WORD PTR [esi+22], ax

; 845  : 		}
; 846  : 	}

  00f81	eb 5f		 jmp	 SHORT $LN491@Convert
$LN205@Convert:

; 847  : 	else if ( _type == ITEMGET(12,42) )

  00f83	81 fa 2a 18 00
	00		 cmp	 edx, 6186		; 0000182aH
  00f89	75 2e		 jne	 SHORT $LN202@Convert

; 848  : 	{
; 849  : 		this->m_Defense += this->m_Level*2;

  00f8b	0f b7 46 08	 movzx	 eax, WORD PTR [esi+8]
  00f8f	8d 14 00	 lea	 edx, DWORD PTR [eax+eax]
  00f92	66 01 56 16	 add	 WORD PTR [esi+22], dx
  00f96	66 8b 7e 16	 mov	 di, WORD PTR [esi+22]
$LN592@Convert:

; 850  : 
; 851  : 		if ( this->m_Level >= 10 )

  00f9a	66 83 f8 0a	 cmp	 ax, 10			; 0000000aH
  00f9e	7c 42		 jl	 SHORT $LN491@Convert

; 852  : 		{
; 853  : 			this->m_Defense += (this->m_Level - 9) * (this->m_Level - 8) / 2;

  00fa0	0f bf c8	 movsx	 ecx, ax
  00fa3	8d 41 f7	 lea	 eax, DWORD PTR [ecx-9]
  00fa6	83 c1 f8	 add	 ecx, -8			; fffffff8H
  00fa9	0f af c1	 imul	 eax, ecx
  00fac	99		 cdq
  00fad	2b c2		 sub	 eax, edx
  00faf	d1 f8		 sar	 eax, 1
  00fb1	03 c7		 add	 eax, edi
  00fb3	66 89 46 16	 mov	 WORD PTR [esi+22], ax

; 854  : 		}
; 855  : 	}

  00fb7	eb 29		 jmp	 SHORT $LN491@Convert
$LN202@Convert:

; 856  : 	else if ( _type == ITEMGET(12,43) )

  00fb9	81 fa 2b 18 00
	00		 cmp	 edx, 6187		; 0000182bH
  00fbf	75 21		 jne	 SHORT $LN491@Convert

; 857  : 	{
; 858  : 		this->m_Defense += this->m_Level*4;

  00fc1	0f b7 46 08	 movzx	 eax, WORD PTR [esi+8]
  00fc5	8d 0c 85 00 00
	00 00		 lea	 ecx, DWORD PTR [eax*4]
  00fcc	66 01 4e 16	 add	 WORD PTR [esi+22], cx
  00fd0	0f b7 4e 16	 movzx	 ecx, WORD PTR [esi+22]

; 859  : 
; 860  : 		if ( this->m_Level >= 10 )

  00fd4	66 83 f8 0a	 cmp	 ax, 10			; 0000000aH
  00fd8	7c 08		 jl	 SHORT $LN491@Convert

; 861  : 		{
; 862  : 			this->m_Defense += (this->m_Level - 9);

  00fda	8d 54 01 f7	 lea	 edx, DWORD PTR [ecx+eax-9]
  00fde	66 89 56 16	 mov	 WORD PTR [esi+22], dx
$LN491@Convert:

; 863  : 		}
; 864  : 	}
; 865  : 	//
; 866  : 
; 867  : 	if ( p->MagicDefense > 0 )

  00fe2	8b 5d fc	 mov	 ebx, DWORD PTR tv4267[ebp]
  00fe5	80 bb 2e 00 00
	00 00		 cmp	 BYTE PTR ?ItemAttribute@@3PAUITEM_ATTRIBUTE@@A[ebx+46], 0
  00fec	76 2c		 jbe	 SHORT $LN196@Convert

; 868  : 	{
; 869  : 		this->m_MagicDefense += this->m_Level * 3;

  00fee	0f b7 46 08	 movzx	 eax, WORD PTR [esi+8]
  00ff2	8d 0c 40	 lea	 ecx, DWORD PTR [eax+eax*2]
  00ff5	66 01 4e 18	 add	 WORD PTR [esi+24], cx
  00ff9	66 8b 7e 18	 mov	 di, WORD PTR [esi+24]

; 870  : 
; 871  : 		if ( this->m_Level >= 10 )

  00ffd	66 83 f8 0a	 cmp	 ax, 10			; 0000000aH
  01001	7c 17		 jl	 SHORT $LN196@Convert

; 872  : 		{
; 873  : 			this->m_MagicDefense += (this->m_Level - 9) * (this->m_Level - 8) / 2;

  01003	0f bf c8	 movsx	 ecx, ax
  01006	8d 41 f7	 lea	 eax, DWORD PTR [ecx-9]
  01009	83 c1 f8	 add	 ecx, -8			; fffffff8H
  0100c	0f af c1	 imul	 eax, ecx
  0100f	99		 cdq
  01010	2b c2		 sub	 eax, edx
  01012	d1 f8		 sar	 eax, 1
  01014	03 c7		 add	 eax, edi
  01016	66 89 46 18	 mov	 WORD PTR [esi+24], ax
$LN196@Convert:

; 874  : 		}
; 875  : 	}
; 876  : 
; 877  : 	this->m_Level &= 15;

  0101a	66 83 66 08 0f	 and	 WORD PTR [esi+8], 15	; 0000000fH

; 878  : 
; 879  : 	memset(this->m_Special, 0, sizeof(this->m_Special));

  0101f	33 c0		 xor	 eax, eax
  01021	89 46 32	 mov	 DWORD PTR [esi+50], eax
  01024	89 46 36	 mov	 DWORD PTR [esi+54], eax
  01027	89 46 3a	 mov	 DWORD PTR [esi+58], eax
  0102a	89 46 3e	 mov	 DWORD PTR [esi+62], eax

; 880  : 	memset(this->m_SpecialValue, 0, sizeof(this->m_SpecialValue));

  0102d	89 46 42	 mov	 DWORD PTR [esi+66], eax
  01030	89 46 46	 mov	 DWORD PTR [esi+70], eax

; 881  : 	this->m_SpecialNum = 0;

  01033	88 46 30	 mov	 BYTE PTR [esi+48], al

; 882  : 	this->m_Option1 = 0;

  01036	66 89 86 94 00
	00 00		 mov	 WORD PTR [esi+148], ax

; 883  : 	this->m_Option2 = 0;
; 884  : 	this->m_Option3 = 0;

  0103d	88 86 96 00 00
	00		 mov	 BYTE PTR [esi+150], al

; 885  : 	this->m_SkillChange = FALSE;

  01043	88 86 ac 00 00
	00		 mov	 BYTE PTR [esi+172], al

; 886  : 
; 887  : 	if ( Option1	!= 0 )

  01049	38 45 0c	 cmp	 BYTE PTR _Option1$[ebp], al
  0104c	74 29		 je	 SHORT $LN192@Convert

; 888  : 	{
; 889  : 		if ( p->SkillType != 0 )

  0104e	8b 83 68 00 00
	00		 mov	 eax, DWORD PTR ?ItemAttribute@@3PAUITEM_ATTRIBUTE@@A[ebx+104]
  01054	85 c0		 test	 eax, eax
  01056	74 1f		 je	 SHORT $LN192@Convert

; 890  : 		{
; 891  : 			if ( p->SkillType == 66 )

  01058	83 f8 42	 cmp	 eax, 66			; 00000042H
  0105b	75 0f		 jne	 SHORT $LN193@Convert

; 892  : 			{
; 893  : 				this->m_SkillChange = TRUE;
; 894  : 				this->m_Special[this->m_SpecialNum] = 0;

  0105d	33 d2		 xor	 edx, edx
  0105f	c6 86 ac 00 00
	00 01		 mov	 BYTE PTR [esi+172], 1
  01066	66 89 56 32	 mov	 WORD PTR [esi+50], dx

; 895  : 				this->m_Option1 = 1;
; 896  : 			}
; 897  : 			else

  0106a	eb 04		 jmp	 SHORT $LN593@Convert
$LN193@Convert:

; 898  : 			{
; 899  : 				this->m_Special[this->m_SpecialNum] = p->SkillType;

  0106c	66 89 46 32	 mov	 WORD PTR [esi+50], ax
$LN593@Convert:

; 900  : 				this->m_Option1 = 1;

  01070	c6 86 94 00 00
	00 01		 mov	 BYTE PTR [esi+148], 1
$LN192@Convert:

; 901  : 			}
; 902  : 		}
; 903  : 	}
; 904  : 
; 905  : 	if ( this->m_Type == ITEMGET(13,3) )	// Dinorant

  01077	b9 03 1a 00 00	 mov	 ecx, 6659		; 00001a03H
  0107c	66 39 4e 06	 cmp	 WORD PTR [esi+6], cx
  01080	75 15		 jne	 SHORT $LN191@Convert

; 906  : 	{
; 907  : 		this->m_Option1 = TRUE;
; 908  : 		this->m_Special[this->m_SpecialNum] = 49;

  01082	0f b6 56 30	 movzx	 edx, BYTE PTR [esi+48]
  01086	b8 31 00 00 00	 mov	 eax, 49			; 00000031H
  0108b	c6 86 94 00 00
	00 01		 mov	 BYTE PTR [esi+148], 1
  01092	66 89 44 56 32	 mov	 WORD PTR [esi+edx*2+50], ax
$LN191@Convert:

; 909  : 	}
; 910  : 
; 911  : 	if ( this->m_Type == ITEMGET(13,4) )	//Dark Horse

  01097	b9 04 1a 00 00	 mov	 ecx, 6660		; 00001a04H
  0109c	66 39 4e 06	 cmp	 WORD PTR [esi+6], cx
  010a0	75 15		 jne	 SHORT $LN190@Convert

; 912  : 	{
; 913  : 		this->m_Option1 = TRUE;
; 914  : 		this->m_Special[this->m_SpecialNum] = 62;

  010a2	0f b6 56 30	 movzx	 edx, BYTE PTR [esi+48]
  010a6	b8 3e 00 00 00	 mov	 eax, 62			; 0000003eH
  010ab	c6 86 94 00 00
	00 01		 mov	 BYTE PTR [esi+148], 1
  010b2	66 89 44 56 32	 mov	 WORD PTR [esi+edx*2+50], ax
$LN190@Convert:

; 915  : 	}
; 916  : 
; 917  : 	if ( this->m_Type == ITEMGET(13,37) )

  010b7	b9 25 1a 00 00	 mov	 ecx, 6693		; 00001a25H
  010bc	66 39 4e 06	 cmp	 WORD PTR [esi+6], cx
  010c0	75 15		 jne	 SHORT $LN189@Convert

; 918  : 	{
; 919  : 		this->m_Option1 = TRUE;
; 920  : 		this->m_Special[this->m_SpecialNum] = 76;

  010c2	0f b6 56 30	 movzx	 edx, BYTE PTR [esi+48]
  010c6	b8 4c 00 00 00	 mov	 eax, 76			; 0000004cH
  010cb	c6 86 94 00 00
	00 01		 mov	 BYTE PTR [esi+148], 1
  010d2	66 89 44 56 32	 mov	 WORD PTR [esi+edx*2+50], ax
$LN189@Convert:

; 921  : 	}
; 922  : 
; 923  : 	this->m_SpecialNum++;

  010d7	fe 46 30	 inc	 BYTE PTR [esi+48]

; 924  : 
; 925  : 	if ( Option2 != 0 )

  010da	80 7d 10 00	 cmp	 BYTE PTR _Option2$[ebp], 0
  010de	8a 46 30	 mov	 al, BYTE PTR [esi+48]

; 926  : 	{
; 927  : 		if ( _type >= ITEMGET(0,0) && _type < ITEMGET(12,0) )

  010e1	8b 55 08	 mov	 edx, DWORD PTR __type$[ebp]
  010e4	0f 84 59 01 00
	00		 je	 $LN179@Convert
  010ea	85 d2		 test	 edx, edx
  010ec	78 1c		 js	 SHORT $LN516@Convert
  010ee	81 fa 00 18 00
	00		 cmp	 edx, 6144		; 00001800H
  010f4	7d 1c		 jge	 SHORT $LN466@Convert

; 928  : 		{
; 929  : 			this->m_Special[this->m_SpecialNum] = 84;

  010f6	0f b6 c8	 movzx	 ecx, al
  010f9	b8 54 00 00 00	 mov	 eax, 84			; 00000054H
  010fe	66 89 44 4e 32	 mov	 WORD PTR [esi+ecx*2+50], ax

; 930  : 			this->m_Option2 = 1;

  01103	c6 86 95 00 00
	00 01		 mov	 BYTE PTR [esi+149], 1
$LN516@Convert:

; 931  : 		}
; 932  : 
; 933  : 		if ( _type >= ITEMGET(12,0) && _type <= ITEMGET(12,6) )	// Wings

  0110a	81 fa 00 18 00
	00		 cmp	 edx, 6144		; 00001800H
  01110	7c 1d		 jl	 SHORT $LN186@Convert
$LN466@Convert:
  01112	81 fa 06 18 00
	00		 cmp	 edx, 6150		; 00001806H
  01118	7f 15		 jg	 SHORT $LN186@Convert

; 934  : 		{
; 935  : 			this->m_Special[this->m_SpecialNum] = 84;

  0111a	0f b6 4e 30	 movzx	 ecx, BYTE PTR [esi+48]
  0111e	b8 54 00 00 00	 mov	 eax, 84			; 00000054H
  01123	66 89 44 4e 32	 mov	 WORD PTR [esi+ecx*2+50], ax

; 936  : 			this->m_Option2 = 1;

  01128	c6 86 95 00 00
	00 01		 mov	 BYTE PTR [esi+149], 1
$LN186@Convert:

; 937  : 		}
; 938  : 
; 939  : 		if ( _type == ITEMGET(13,30) )	// Cape of Lord

  0112f	81 fa 1e 1a 00
	00		 cmp	 edx, 6686		; 00001a1eH
  01135	75 17		 jne	 SHORT $LN185@Convert

; 940  : 		{
; 941  : 			this->m_Special[this->m_SpecialNum] = 84;

  01137	0f b6 4e 30	 movzx	 ecx, BYTE PTR [esi+48]
  0113b	b8 54 00 00 00	 mov	 eax, 84			; 00000054H
  01140	66 89 44 4e 32	 mov	 WORD PTR [esi+ecx*2+50], ax

; 942  : 			this->m_Option2 = 1;

  01145	c6 86 95 00 00
	00 01		 mov	 BYTE PTR [esi+149], 1

; 943  : 		}
; 944  : #ifdef NEWWINGS_6
; 945  : 		if ( IS_NEWWINGS_6(_type) )	//Custom Wings4

  0114c	eb 08		 jmp	 SHORT $LN419@Convert
$LN185@Convert:
  0114e	81 fa c3 18 00
	00		 cmp	 edx, 6339		; 000018c3H
  01154	7c 24		 jl	 SHORT $LN184@Convert
$LN419@Convert:
  01156	33 c0		 xor	 eax, eax
  01158	81 fa dc 18 00
	00		 cmp	 edx, 6364		; 000018dcH
  0115e	0f 9e c0	 setle	 al
  01161	85 c0		 test	 eax, eax
  01163	74 15		 je	 SHORT $LN184@Convert

; 946  : 		{
; 947  : 			this->m_Special[this->m_SpecialNum] = 84;

  01165	0f b6 4e 30	 movzx	 ecx, BYTE PTR [esi+48]
  01169	b8 54 00 00 00	 mov	 eax, 84			; 00000054H
  0116e	66 89 44 4e 32	 mov	 WORD PTR [esi+ecx*2+50], ax

; 948  : 			this->m_Option2 = 1;

  01173	c6 86 95 00 00
	00 01		 mov	 BYTE PTR [esi+149], 1
$LN184@Convert:

; 949  : 		}
; 950  : #endif
; 951  : #ifdef NEWWINGS_5
; 952  : 		if ( IS_NEWWINGS_5(_type) )	//Custom Wings4

  0117a	81 fa bd 18 00
	00		 cmp	 edx, 6333		; 000018bdH
  01180	7c 24		 jl	 SHORT $LN183@Convert
  01182	33 c0		 xor	 eax, eax
  01184	81 fa c2 18 00
	00		 cmp	 edx, 6338		; 000018c2H
  0118a	0f 9e c0	 setle	 al
  0118d	85 c0		 test	 eax, eax
  0118f	74 15		 je	 SHORT $LN183@Convert

; 953  : 		{
; 954  : 			this->m_Special[this->m_SpecialNum] = 84;

  01191	0f b6 4e 30	 movzx	 ecx, BYTE PTR [esi+48]
  01195	b8 54 00 00 00	 mov	 eax, 84			; 00000054H
  0119a	66 89 44 4e 32	 mov	 WORD PTR [esi+ecx*2+50], ax

; 955  : 			this->m_Option2 = 1;

  0119f	c6 86 95 00 00
	00 01		 mov	 BYTE PTR [esi+149], 1
$LN183@Convert:

; 956  : 		}
; 957  : #endif
; 958  : #ifdef NEWWINGS_2_5
; 959  : 		if ( IS_NEWWINGS_2_5(_type) )	//Custom Wings4

  011a6	81 fa ba 18 00
	00		 cmp	 edx, 6330		; 000018baH
  011ac	7c 24		 jl	 SHORT $LN182@Convert
  011ae	33 c0		 xor	 eax, eax
  011b0	81 fa bc 18 00
	00		 cmp	 edx, 6332		; 000018bcH
  011b6	0f 9e c0	 setle	 al
  011b9	85 c0		 test	 eax, eax
  011bb	74 15		 je	 SHORT $LN182@Convert

; 960  : 		{
; 961  : 			this->m_Special[this->m_SpecialNum] = 84;

  011bd	0f b6 4e 30	 movzx	 ecx, BYTE PTR [esi+48]
  011c1	b8 54 00 00 00	 mov	 eax, 84			; 00000054H
  011c6	66 89 44 4e 32	 mov	 WORD PTR [esi+ecx*2+50], ax

; 962  : 			this->m_Option2 = 1;

  011cb	c6 86 95 00 00
	00 01		 mov	 BYTE PTR [esi+149], 1
$LN182@Convert:

; 963  : 		}
; 964  : #endif
; 965  : #ifdef NEWWINGS_4
; 966  : 		if ( IS_NEWWINGS_4(_type) )	//Custom Wings4

  011d2	81 fa b4 18 00
	00		 cmp	 edx, 6324		; 000018b4H
  011d8	7c 24		 jl	 SHORT $LN181@Convert
  011da	33 c0		 xor	 eax, eax
  011dc	81 fa b9 18 00
	00		 cmp	 edx, 6329		; 000018b9H
  011e2	0f 9e c0	 setle	 al
  011e5	85 c0		 test	 eax, eax
  011e7	74 15		 je	 SHORT $LN181@Convert

; 967  : 		{
; 968  : 			this->m_Special[this->m_SpecialNum] = 84;

  011e9	0f b6 4e 30	 movzx	 ecx, BYTE PTR [esi+48]
  011ed	b8 54 00 00 00	 mov	 eax, 84			; 00000054H
  011f2	66 89 44 4e 32	 mov	 WORD PTR [esi+ecx*2+50], ax

; 969  : 			this->m_Option2 = 1;

  011f7	c6 86 95 00 00
	00 01		 mov	 BYTE PTR [esi+149], 1
$LN181@Convert:

; 970  : 		}
; 971  : #endif
; 972  : 
; 973  : 		if ( _type >= ITEMGET(12,36) && _type <= ITEMGET(12,43) )	//Season 3.5 Summoner Wings

  011fe	8d 8a dc e7 ff
	ff		 lea	 ecx, DWORD PTR [edx-6180]
  01204	83 f9 07	 cmp	 ecx, 7
  01207	77 15		 ja	 SHORT $LN180@Convert

; 974  : 		{
; 975  : 			this->m_Special[this->m_SpecialNum] = 84;

  01209	0f b6 46 30	 movzx	 eax, BYTE PTR [esi+48]
  0120d	b9 54 00 00 00	 mov	 ecx, 84			; 00000054H
  01212	66 89 4c 46 32	 mov	 WORD PTR [esi+eax*2+50], cx

; 976  : 			this->m_Option2 = 1;

  01217	c6 86 95 00 00
	00 01		 mov	 BYTE PTR [esi+149], 1
$LN180@Convert:

; 977  : 		}
; 978  : 
; 979  : 		if(_type == ITEMGET(12,49) || _type == ITEMGET(12,50))

  0121e	81 fa 31 18 00
	00		 cmp	 edx, 6193		; 00001831H
  01224	74 08		 je	 SHORT $LN492@Convert
  01226	81 fa 32 18 00
	00		 cmp	 edx, 6194		; 00001832H
  0122c	75 15		 jne	 SHORT $LN179@Convert
$LN492@Convert:

; 980  : 		{
; 981  : 			this->m_Special[this->m_SpecialNum] = 84;

  0122e	0f b6 46 30	 movzx	 eax, BYTE PTR [esi+48]
  01232	b9 54 00 00 00	 mov	 ecx, 84			; 00000054H
  01237	66 89 4c 46 32	 mov	 WORD PTR [esi+eax*2+50], cx

; 982  : 			this->m_Option2 = 1;

  0123c	c6 86 95 00 00
	00 01		 mov	 BYTE PTR [esi+149], 1
$LN179@Convert:

; 983  : 		}
; 984  : 	}
; 985  : 
; 986  : 	this->m_SpecialNum++;

  01243	fe 46 30	 inc	 BYTE PTR [esi+48]

; 987  : 
; 988  : 	if ( Option3 != 0 )

  01246	8a 45 14	 mov	 al, BYTE PTR _Option3$[ebp]
  01249	8a 4e 30	 mov	 cl, BYTE PTR [esi+48]
  0124c	b3 20		 mov	 bl, 32			; 00000020H
  0124e	84 c0		 test	 al, al
  01250	0f 84 6f 06 00
	00		 je	 $LN496@Convert

; 989  : 	{
; 990  : 		if ( _type >= ITEMGET(0,0) && _type < ITEMGET(5,0) )

  01256	85 d2		 test	 edx, edx
  01258	78 1b		 js	 SHORT $LN176@Convert
  0125a	81 fa 00 0a 00
	00		 cmp	 edx, 2560		; 00000a00H
  01260	7d 1b		 jge	 SHORT $LN465@Convert

; 991  : 		{
; 992  : 			this->m_Special[this->m_SpecialNum] = 80;

  01262	0f b6 c9	 movzx	 ecx, cl
  01265	bf 50 00 00 00	 mov	 edi, 80			; 00000050H
  0126a	66 89 7c 4e 32	 mov	 WORD PTR [esi+ecx*2+50], di

; 993  : 			this->m_Option3 = Option3;

  0126f	88 86 96 00 00
	00		 mov	 BYTE PTR [esi+150], al
$LN176@Convert:

; 994  : #if(FIX_REQSTR_ITEM==FALSE)
; 995  : 			this->m_RequireStrength +=  Option3 * 4;
; 996  : #endif
; 997  : 		}
; 998  : 
; 999  : 		if ( _type >= ITEMGET(5,0) && _type < ITEMGET(6,0) )

  01275	81 fa 00 0a 00
	00		 cmp	 edx, 2560		; 00000a00H
  0127b	7c 2d		 jl	 SHORT $LN175@Convert
$LN465@Convert:
  0127d	81 fa 00 0c 00
	00		 cmp	 edx, 3072		; 00000c00H
  01283	7d 2d		 jge	 SHORT $LN464@Convert

; 1000 : 		{
; 1001 : 			if(p->ItemSlot == 1)

  01285	8b 4d fc	 mov	 ecx, DWORD PTR tv4267[ebp]
  01288	83 b9 64 00 00
	00 01		 cmp	 DWORD PTR ?ItemAttribute@@3PAUITEM_ATTRIBUTE@@A[ecx+100], 1

; 1002 : 			{
; 1003 : 				this->m_Special[this->m_SpecialNum] = 113;

  0128f	0f b6 4e 30	 movzx	 ecx, BYTE PTR [esi+48]
  01293	bf 71 00 00 00	 mov	 edi, 113		; 00000071H
  01298	74 05		 je	 SHORT $LN594@Convert

; 1004 : 			}
; 1005 : 			else
; 1006 : 			{
; 1007 : 				this->m_Special[this->m_SpecialNum] = 81;

  0129a	bf 51 00 00 00	 mov	 edi, 81			; 00000051H
$LN594@Convert:
  0129f	66 89 7c 4e 32	 mov	 WORD PTR [esi+ecx*2+50], di

; 1008 : 			}
; 1009 : 			
; 1010 : 			this->m_Option3 = Option3;

  012a4	88 86 96 00 00
	00		 mov	 BYTE PTR [esi+150], al
$LN175@Convert:

; 1011 : #if(FIX_REQSTR_ITEM==FALSE)
; 1012 : 			this->m_RequireStrength +=  Option3 * 4;
; 1013 : #endif
; 1014 : 		}
; 1015 : 		
; 1016 : 		if ( _type >= ITEMGET(6,0) && _type < ITEMGET(7,0) )

  012aa	81 fa 00 0c 00
	00		 cmp	 edx, 3072		; 00000c00H
  012b0	7c 1c		 jl	 SHORT $LN172@Convert
$LN464@Convert:
  012b2	81 fa 00 0e 00
	00		 cmp	 edx, 3584		; 00000e00H
  012b8	7d 1c		 jge	 SHORT $LN463@Convert

; 1017 : 		{
; 1018 : 			this->m_Special[this->m_SpecialNum] = 82;

  012ba	0f b6 4e 30	 movzx	 ecx, BYTE PTR [esi+48]
  012be	bf 52 00 00 00	 mov	 edi, 82			; 00000052H
  012c3	66 89 7c 4e 32	 mov	 WORD PTR [esi+ecx*2+50], di

; 1019 : 			this->m_Option3 = Option3;

  012c8	88 86 96 00 00
	00		 mov	 BYTE PTR [esi+150], al
$LN172@Convert:

; 1020 : #if(FIX_REQSTR_ITEM==FALSE)
; 1021 : 			this->m_RequireStrength +=  Option3 * 4;
; 1022 : #endif
; 1023 : 		}
; 1024 : 
; 1025 : 		if ( _type >= ITEMGET(7,0) && _type < ITEMGET(12,0) )

  012ce	81 fa 00 0e 00
	00		 cmp	 edx, 3584		; 00000e00H
  012d4	7c 1c		 jl	 SHORT $LN171@Convert
$LN463@Convert:
  012d6	81 fa 00 18 00
	00		 cmp	 edx, 6144		; 00001800H
  012dc	7d 14		 jge	 SHORT $LN171@Convert

; 1026 : 		{
; 1027 : 			this->m_Special[this->m_SpecialNum] = 83;

  012de	0f b6 4e 30	 movzx	 ecx, BYTE PTR [esi+48]
  012e2	bf 53 00 00 00	 mov	 edi, 83			; 00000053H
  012e7	66 89 7c 4e 32	 mov	 WORD PTR [esi+ecx*2+50], di

; 1028 : 			this->m_Option3 = Option3;

  012ec	88 86 96 00 00
	00		 mov	 BYTE PTR [esi+150], al
$LN171@Convert:

; 1029 : #if(FIX_REQSTR_ITEM==FALSE)
; 1030 : 			this->m_RequireStrength +=  Option3 * 4;
; 1031 : #endif
; 1032 : 		}
; 1033 : 
; 1034 : 		if ( (_type >= ITEMGET(13,8) && _type < ITEMGET(13,14)) || (_type >= ITEMGET(13,20) && _type <= ITEMGET(13,28)) )

  012f2	81 fa 08 1a 00
	00		 cmp	 edx, 6664		; 00001a08H
  012f8	7c 08		 jl	 SHORT $LN168@Convert
  012fa	81 fa 0e 1a 00
	00		 cmp	 edx, 6670		; 00001a0eH
  01300	7c 0b		 jl	 SHORT $LN169@Convert
$LN168@Convert:
  01302	8d 8a ec e5 ff
	ff		 lea	 ecx, DWORD PTR [edx-6676]
  01308	83 f9 08	 cmp	 ecx, 8
  0130b	77 4e		 ja	 SHORT $LN164@Convert
$LN169@Convert:

; 1035 : 		{
; 1036 : 			if ( _type == ITEMGET(13,24) ) // Ring of MAgic
; 1037 : 			{
; 1038 : 				this->m_Special[this->m_SpecialNum] = 172;

  0130d	0f b6 4e 30	 movzx	 ecx, BYTE PTR [esi+48]
  01311	81 fa 18 1a 00
	00		 cmp	 edx, 6680		; 00001a18H
  01317	75 15		 jne	 SHORT $LN167@Convert
  01319	bf ac 00 00 00	 mov	 edi, 172		; 000000acH
  0131e	66 89 7c 4e 32	 mov	 WORD PTR [esi+ecx*2+50], di

; 1039 : 				this->m_Option3 = Option3;

  01323	88 86 96 00 00
	00		 mov	 BYTE PTR [esi+150], al
  01329	e9 9d 02 00 00	 jmp	 $LN494@Convert
$LN167@Convert:

; 1040 : 			}
; 1041 : 			else if ( _type == ITEMGET(13,28) ) // Pendant of abilit

  0132e	81 fa 1c 1a 00
	00		 cmp	 edx, 6684		; 00001a1cH
  01334	75 15		 jne	 SHORT $LN165@Convert

; 1042 : 			{
; 1043 : 				this->m_Special[this->m_SpecialNum] = 173;

  01336	bf ad 00 00 00	 mov	 edi, 173		; 000000adH
  0133b	66 89 7c 4e 32	 mov	 WORD PTR [esi+ecx*2+50], di

; 1044 : 				this->m_Option3 = Option3;

  01340	88 86 96 00 00
	00		 mov	 BYTE PTR [esi+150], al

; 1045 : 			}
; 1046 : 			else  

  01346	e9 80 02 00 00	 jmp	 $LN494@Convert
$LN165@Convert:

; 1047 : 			{
; 1048 : 				this->m_Special[this->m_SpecialNum] = 85;

  0134b	bf 55 00 00 00	 mov	 edi, 85			; 00000055H
  01350	66 89 7c 4e 32	 mov	 WORD PTR [esi+ecx*2+50], di

; 1049 : 				this->m_Option3 = Option3;

  01355	88 86 96 00 00
	00		 mov	 BYTE PTR [esi+150], al
$LN164@Convert:

; 1050 : 			}
; 1051 : 		}
; 1052 : 		
; 1053 : 		if ( _type == ITEMGET(13,30) ) // Cape of lord 

  0135b	81 fa 1e 1a 00
	00		 cmp	 edx, 6686		; 00001a1eH
  01361	75 28		 jne	 SHORT $LN163@Convert

; 1054 : 		{
; 1055 : 			this->m_Special[this->m_SpecialNum] = 80;

  01363	0f b6 4e 30	 movzx	 ecx, BYTE PTR [esi+48]
  01367	bf 50 00 00 00	 mov	 edi, 80			; 00000050H
  0136c	66 89 7c 4e 32	 mov	 WORD PTR [esi+ecx*2+50], di

; 1176 : 		{
; 1177 : 			this->m_Option3 = Option3;
; 1178 : #if(FIX_REQSTR_ITEM==FALSE)
; 1179 : 			this->m_RequireStrength +=  Option3 * 4;
; 1180 : #endif
; 1181 : 			this->m_Special[this->m_SpecialNum] = 0x50;

  01371	0f b6 4e 30	 movzx	 ecx, BYTE PTR [esi+48]
  01375	88 86 96 00 00
	00		 mov	 BYTE PTR [esi+150], al
  0137b	88 86 96 00 00
	00		 mov	 BYTE PTR [esi+150], al
  01381	66 89 7c 4e 32	 mov	 WORD PTR [esi+ecx*2+50], di

; 1182 : 		}
; 1183 : 
; 1184 : 		//Season 2.5 add-on (Third Wings)
; 1185 : 		if ( _type == ITEMGET(12,36) ) // Wing of Storm

  01386	e9 40 02 00 00	 jmp	 $LN494@Convert
$LN163@Convert:

; 1056 : 			this->m_Option3 = Option3;
; 1057 : #if(FIX_REQSTR_ITEM==FALSE)
; 1058 : 			this->m_RequireStrength +=  Option3 * 4;
; 1059 : #endif
; 1060 : 		}
; 1061 : 
; 1062 : 		if ( _type == ITEMGET(12,0) )	// Wing elf

  0138b	81 fa 00 18 00
	00		 cmp	 edx, 6144		; 00001800H
  01391	75 19		 jne	 SHORT $LN162@Convert

; 1063 : 		{
; 1064 : 			this->m_Special[this->m_SpecialNum] = 85;

  01393	0f b6 4e 30	 movzx	 ecx, BYTE PTR [esi+48]
  01397	bf 55 00 00 00	 mov	 edi, 85			; 00000055H
  0139c	66 89 7c 4e 32	 mov	 WORD PTR [esi+ecx*2+50], di

; 1065 : 			this->m_Option3 = Option3;

  013a1	88 86 96 00 00
	00		 mov	 BYTE PTR [esi+150], al
  013a7	e9 19 05 00 00	 jmp	 $LN496@Convert
$LN162@Convert:

; 1066 : 		}
; 1067 : 		else if ( _type == ITEMGET(12,1) ) // winf Heaven

  013ac	81 fa 01 18 00
	00		 cmp	 edx, 6145		; 00001801H
  013b2	75 19		 jne	 SHORT $LN160@Convert

; 1068 : 		{
; 1069 : 			this->m_Special[this->m_SpecialNum] = 81;

  013b4	0f b6 4e 30	 movzx	 ecx, BYTE PTR [esi+48]
  013b8	bf 51 00 00 00	 mov	 edi, 81			; 00000051H
  013bd	66 89 7c 4e 32	 mov	 WORD PTR [esi+ecx*2+50], di

; 1070 : 			this->m_Option3 = Option3;

  013c2	88 86 96 00 00
	00		 mov	 BYTE PTR [esi+150], al
  013c8	e9 f8 04 00 00	 jmp	 $LN496@Convert
$LN160@Convert:

; 1071 : #if(FIX_REQSTR_ITEM==FALSE)
; 1072 : 			this->m_RequireStrength +=  Option3 * 4;
; 1073 : #endif
; 1074 : 		}
; 1075 : 		else if ( _type == ITEMGET(12,2) ) // wing devil

  013cd	81 fa 02 18 00
	00		 cmp	 edx, 6146		; 00001802H
  013d3	75 19		 jne	 SHORT $LN158@Convert

; 1076 : 		{
; 1077 : 			this->m_Special[this->m_SpecialNum] = 80;

  013d5	0f b6 4e 30	 movzx	 ecx, BYTE PTR [esi+48]
  013d9	bf 50 00 00 00	 mov	 edi, 80			; 00000050H
  013de	66 89 7c 4e 32	 mov	 WORD PTR [esi+ecx*2+50], di

; 1078 : 			this->m_Option3 = Option3;

  013e3	88 86 96 00 00
	00		 mov	 BYTE PTR [esi+150], al
  013e9	e9 d7 04 00 00	 jmp	 $LN496@Convert
$LN158@Convert:

; 1079 : #if(FIX_REQSTR_ITEM==FALSE)
; 1080 : 			this->m_RequireStrength +=  Option3 * 4;
; 1081 : #endif
; 1082 : 		}
; 1083 : 		else if ( _type == ITEMGET(12,3) ) // wing spitits

  013ee	81 fa 03 18 00
	00		 cmp	 edx, 6147		; 00001803H
  013f4	75 31		 jne	 SHORT $LN156@Convert

; 1084 : 		{
; 1085 : 			this->m_Special[this->m_SpecialNum] = 80;

  013f6	0f b6 4e 30	 movzx	 ecx, BYTE PTR [esi+48]
  013fa	bf 50 00 00 00	 mov	 edi, 80			; 00000050H
  013ff	66 89 7c 4e 32	 mov	 WORD PTR [esi+ecx*2+50], di

; 1086 : 			this->m_Option3 = Option3;

  01404	88 86 96 00 00
	00		 mov	 BYTE PTR [esi+150], al

; 1087 : #if(FIX_REQSTR_ITEM==FALSE)
; 1088 : 			this->m_RequireStrength +=  Option3 * 4;
; 1089 : #endif
; 1090 : 
; 1091 : 			if ( (this->m_NewOption&0x20) != 0 )
; 1092 : 			{
; 1093 : 				this->m_Special[this->m_SpecialNum] = 85;

  0140a	0f b6 46 30	 movzx	 eax, BYTE PTR [esi+48]
  0140e	84 9e 97 00 00
	00		 test	 BYTE PTR [esi+151], bl
  01414	74 0a		 je	 SHORT $LN155@Convert
$LN151@Convert:
  01416	b9 55 00 00 00	 mov	 ecx, 85			; 00000055H

; 1094 : 			}
; 1095 : 			else

  0141b	e9 a0 04 00 00	 jmp	 $LN595@Convert
$LN155@Convert:

; 1096 : 			{
; 1097 : 				this->m_Special[this->m_SpecialNum] = 80;

  01420	8b cf		 mov	 ecx, edi

; 1098 : 			}

  01422	e9 99 04 00 00	 jmp	 $LN595@Convert
$LN156@Convert:

; 1099 : 
; 1100 : 		}
; 1101 : 		else if ( _type == ITEMGET(12,4) ) // wing soul

  01427	81 fa 04 18 00
	00		 cmp	 edx, 6148		; 00001804H
  0142d	75 1c		 jne	 SHORT $LN152@Convert

; 1102 : 		{
; 1103 : 			this->m_Option3 = Option3;

  0142f	88 86 96 00 00
	00		 mov	 BYTE PTR [esi+150], al

; 1104 : #if(FIX_REQSTR_ITEM==FALSE)
; 1105 : 			this->m_RequireStrength +=  Option3 * 4;
; 1106 : #endif
; 1107 : 
; 1108 : 			if ( (this->m_NewOption&0x20) != 0 )
; 1109 : 			{
; 1110 : 				this->m_Special[this->m_SpecialNum] = 81;

  01435	0f b6 46 30	 movzx	 eax, BYTE PTR [esi+48]
  01439	84 9e 97 00 00
	00		 test	 BYTE PTR [esi+151], bl
  0143f	74 d5		 je	 SHORT $LN151@Convert
$LN143@Convert:
  01441	b9 51 00 00 00	 mov	 ecx, 81			; 00000051H

; 1111 : 			}
; 1112 : 			else

  01446	e9 75 04 00 00	 jmp	 $LN595@Convert
$LN152@Convert:

; 1113 : 			{
; 1114 : 				this->m_Special[this->m_SpecialNum] = 85;
; 1115 : 			}
; 1116 : 
; 1117 : 		}
; 1118 : 		else if ( _type == ITEMGET(12,5) ) // wing dragon

  0144b	81 fa 05 18 00
	00		 cmp	 edx, 6149		; 00001805H
  01451	75 1c		 jne	 SHORT $LN148@Convert

; 1119 : 		{
; 1120 : 			this->m_Option3 = Option3;

  01453	88 86 96 00 00
	00		 mov	 BYTE PTR [esi+150], al

; 1121 : #if(FIX_REQSTR_ITEM==FALSE)
; 1122 : 			this->m_RequireStrength +=  Option3 * 4;
; 1123 : #endif
; 1124 : 
; 1125 : 			if ( (this->m_NewOption&0x20) != 0 )
; 1126 : 			{
; 1127 : 				this->m_Special[this->m_SpecialNum] = 80;

  01459	0f b6 46 30	 movzx	 eax, BYTE PTR [esi+48]
  0145d	84 9e 97 00 00
	00		 test	 BYTE PTR [esi+151], bl
  01463	74 b1		 je	 SHORT $LN151@Convert
  01465	b9 50 00 00 00	 mov	 ecx, 80			; 00000050H

; 1128 : 			}
; 1129 : 			else

  0146a	e9 51 04 00 00	 jmp	 $LN595@Convert
$LN148@Convert:

; 1130 : 			{
; 1131 : 				this->m_Special[this->m_SpecialNum] = 85;
; 1132 : 			}
; 1133 : 
; 1134 : 		}			
; 1135 : 		else if ( _type == ITEMGET(12,6) ) // wing darkness

  0146f	81 fa 06 18 00
	00		 cmp	 edx, 6150		; 00001806H
  01475	75 1c		 jne	 SHORT $LN144@Convert

; 1136 : 		{
; 1137 : 			this->m_Option3 = Option3;

  01477	88 86 96 00 00
	00		 mov	 BYTE PTR [esi+150], al

; 1138 : #if(FIX_REQSTR_ITEM==FALSE)
; 1139 : 			this->m_RequireStrength +=  Option3 * 4;
; 1140 : #endif
; 1141 : 
; 1142 : 			if ( (this->m_NewOption&0x20) != 0 )
; 1143 : 			{
; 1144 : 				this->m_Special[this->m_SpecialNum] = 80;

  0147d	0f b6 46 30	 movzx	 eax, BYTE PTR [esi+48]
  01481	84 9e 97 00 00
	00		 test	 BYTE PTR [esi+151], bl
  01487	74 b8		 je	 SHORT $LN143@Convert
  01489	b9 50 00 00 00	 mov	 ecx, 80			; 00000050H

; 1145 : 			}
; 1146 : 			else

  0148e	e9 2d 04 00 00	 jmp	 $LN595@Convert
$LN144@Convert:

; 1147 : 			{
; 1148 : 				this->m_Special[this->m_SpecialNum] = 81;
; 1149 : 			}
; 1150 : 
; 1151 : 		}
; 1152 : 		else if ( _type == ITEMGET(13,3) ) // dinorant

  01493	81 fa 03 1a 00
	00		 cmp	 edx, 6659		; 00001a03H
  01499	75 59		 jne	 SHORT $LN136@Convert

; 1153 : 		{
; 1154 : 			this->m_Option3 = Option3;

  0149b	88 86 96 00 00
	00		 mov	 BYTE PTR [esi+150], al

; 1155 : 	
; 1156 : 			if ( (this->m_Option3&0x02) != 0 )

  014a1	a8 02		 test	 al, 2
  014a3	74 11		 je	 SHORT $LN139@Convert

; 1157 : 			{
; 1158 : 				this->m_Special[this->m_SpecialNum] = 0x67;

  014a5	0f b6 4e 30	 movzx	 ecx, BYTE PTR [esi+48]
  014a9	bf 67 00 00 00	 mov	 edi, 103		; 00000067H
  014ae	66 89 7c 4e 32	 mov	 WORD PTR [esi+ecx*2+50], di

; 1159 : 				this->m_SpecialNum++;

  014b3	fe 46 30	 inc	 BYTE PTR [esi+48]
$LN139@Convert:

; 1160 : 			}
; 1161 : 		
; 1162 : 			if ( (this->m_Option3&0x04) != 0 )

  014b6	f6 86 96 00 00
	00 04		 test	 BYTE PTR [esi+150], 4
  014bd	74 15		 je	 SHORT $LN138@Convert

; 1163 : 			{
; 1164 : 				this->m_Special[this->m_SpecialNum] = 0x61;

  014bf	0f b6 4e 30	 movzx	 ecx, BYTE PTR [esi+48]
  014c3	bf 61 00 00 00	 mov	 edi, 97			; 00000061H
  014c8	66 89 7c 4e 32	 mov	 WORD PTR [esi+ecx*2+50], di

; 1165 : 				this->m_SpecialNum++;

  014cd	fe 46 30	 inc	 BYTE PTR [esi+48]

; 1166 : 				this->m_AttackSpeed+=5;

  014d0	80 46 0d 05	 add	 BYTE PTR [esi+13], 5
$LN138@Convert:

; 1167 : 			}
; 1168 : 		
; 1169 : 			if ( (this->m_Option3&0x01) != 0 )

  014d4	f6 86 96 00 00
	00 01		 test	 BYTE PTR [esi+150], 1
  014db	0f 84 ea 00 00
	00		 je	 $LN494@Convert

; 1170 : 			{
; 1171 : 				this->m_Special[this->m_SpecialNum] = 0x68;

  014e1	0f b6 4e 30	 movzx	 ecx, BYTE PTR [esi+48]
  014e5	bf 68 00 00 00	 mov	 edi, 104		; 00000068H
  014ea	66 89 7c 4e 32	 mov	 WORD PTR [esi+ecx*2+50], di

; 1172 : 			}
; 1173 : 		}
; 1174 : 
; 1175 : 		if ( _type == ITEMGET(13,30) ) // Cape ofLord

  014ef	e9 d7 00 00 00	 jmp	 $LN494@Convert
$LN136@Convert:

; 1182 : 		}
; 1183 : 
; 1184 : 		//Season 2.5 add-on (Third Wings)
; 1185 : 		if ( _type == ITEMGET(12,36) ) // Wing of Storm

  014f4	81 fa 24 18 00
	00		 cmp	 edx, 6180		; 00001824H
  014fa	75 3a		 jne	 SHORT $LN132@Convert

; 1186 : 		{
; 1187 : 			this->m_Option3 = Option3;

  014fc	88 86 96 00 00
	00		 mov	 BYTE PTR [esi+150], al

; 1188 : 			this->m_Special[this->m_SpecialNum] = 0x55;

  01502	0f b6 46 30	 movzx	 eax, BYTE PTR [esi+48]
  01506	b9 55 00 00 00	 mov	 ecx, 85			; 00000055H
  0150b	66 89 4c 46 32	 mov	 WORD PTR [esi+eax*2+50], cx

; 1189 : 
; 1190 : 			if( (this->m_NewOption & 0x10) != FALSE )

  01510	8a 86 97 00 00
	00		 mov	 al, BYTE PTR [esi+151]
  01516	a8 10		 test	 al, 16			; 00000010H
  01518	74 0a		 je	 SHORT $LN134@Convert

; 1191 : 			{
; 1192 : 				this->m_Special[this->m_SpecialNum] = 0x50;

  0151a	b9 50 00 00 00	 mov	 ecx, 80			; 00000050H
  0151f	e9 98 03 00 00	 jmp	 $LN596@Convert
$LN134@Convert:

; 1193 : 			}
; 1194 : 			else if( (this->m_NewOption & 0x20) != FALSE )

  01524	84 c3		 test	 al, bl
  01526	0f 84 99 03 00
	00		 je	 $LN496@Convert

; 1195 : 			{
; 1196 : 				this->m_Special[this->m_SpecialNum] = 0x53;

  0152c	b9 53 00 00 00	 mov	 ecx, 83			; 00000053H

; 1197 : 			}
; 1198 : 		}
; 1199 : 
; 1200 : 		if ( _type == MuItem::miCAPE_FIGTHER )

  01531	e9 86 03 00 00	 jmp	 $LN596@Convert
$LN132@Convert:
  01536	81 fa 31 18 00
	00		 cmp	 edx, 6193		; 00001831H
  0153c	75 30		 jne	 SHORT $LN129@Convert

; 1201 : 		{
; 1202 : 			this->m_Option3 = Option3;
; 1203 : #if(FIX_REQSTR_ITEM==FALSE)
; 1204 : 			this->m_RequireStrength +=  Option3 * 4;
; 1205 : #endif
; 1206 : 			if ( this->m_NewOption & 0x20 )
; 1207 : 				this->m_Special[this->m_SpecialNum] = 80;

  0153e	0f b6 4e 30	 movzx	 ecx, BYTE PTR [esi+48]
  01542	88 86 96 00 00
	00		 mov	 BYTE PTR [esi+150], al
  01548	84 9e 97 00 00
	00		 test	 BYTE PTR [esi+151], bl
  0154e	74 0f		 je	 SHORT $LN130@Convert
  01550	bf 50 00 00 00	 mov	 edi, 80			; 00000050H
  01555	66 89 7c 4e 32	 mov	 WORD PTR [esi+ecx*2+50], di

; 1208 : 			else

  0155a	e9 02 03 00 00	 jmp	 $LN476@Convert
$LN130@Convert:

; 1209 : 				this->m_Special[this->m_SpecialNum] = 85;

  0155f	bf 55 00 00 00	 mov	 edi, 85			; 00000055H
  01564	66 89 7c 4e 32	 mov	 WORD PTR [esi+ecx*2+50], di

; 1210 : 		}
; 1211 : 
; 1212 : 
; 1213 : 		if ( _type == MuItem::miCAPE_OVERRULE )

  01569	e9 f3 02 00 00	 jmp	 $LN476@Convert
$LN129@Convert:
  0156e	81 fa 32 18 00
	00		 cmp	 edx, 6194		; 00001832H
  01574	75 4d		 jne	 SHORT $LN125@Convert

; 1214 : 		{
; 1215 : 			this->m_Option3 = Option3;
; 1216 : 			this->m_Special[this->m_SpecialNum] = 85;

  01576	0f b6 4e 30	 movzx	 ecx, BYTE PTR [esi+48]
  0157a	bf 55 00 00 00	 mov	 edi, 85			; 00000055H
  0157f	88 86 96 00 00
	00		 mov	 BYTE PTR [esi+150], al
  01585	66 89 7c 4e 32	 mov	 WORD PTR [esi+ecx*2+50], di

; 1217 : 
; 1218 : 			if ( this->m_NewOption & 0x10 )

  0158a	8a 8e 97 00 00
	00		 mov	 cl, BYTE PTR [esi+151]
  01590	f6 c1 10	 test	 cl, 16			; 00000010H
  01593	74 13		 je	 SHORT $LN127@Convert

; 1219 : 			{
; 1220 : 				this->m_Special[this->m_SpecialNum] = 80;

  01595	0f b6 4e 30	 movzx	 ecx, BYTE PTR [esi+48]
  01599	bf 50 00 00 00	 mov	 edi, 80			; 00000050H
  0159e	66 89 7c 4e 32	 mov	 WORD PTR [esi+ecx*2+50], di
  015a3	e9 e6 02 00 00	 jmp	 $LN495@Convert
$LN127@Convert:

; 1221 : 			}
; 1222 : 			else if ( this->m_NewOption & 0x20 )

  015a8	84 cb		 test	 cl, bl
  015aa	0f 84 de 02 00
	00		 je	 $LN495@Convert

; 1223 : 			{
; 1224 : 					this->m_Special[this->m_SpecialNum] = 83;

  015b0	0f b6 4e 30	 movzx	 ecx, BYTE PTR [esi+48]
  015b4	bf 53 00 00 00	 mov	 edi, 83			; 00000053H
  015b9	66 89 7c 4e 32	 mov	 WORD PTR [esi+ecx*2+50], di

; 1225 : 			}
; 1226 : 		}
; 1227 : 
; 1228 : #ifdef NEWWINGS_4
; 1229 : 		if ( IS_NEWWINGS_4(_type) )

  015be	e9 cb 02 00 00	 jmp	 $LN495@Convert
$LN125@Convert:
  015c3	81 fa b4 18 00
	00		 cmp	 edx, 6324		; 000018b4H
  015c9	7c 47		 jl	 SHORT $LN531@Convert
$LN494@Convert:
  015cb	33 c9		 xor	 ecx, ecx
  015cd	81 fa b9 18 00
	00		 cmp	 edx, 6329		; 000018b9H
  015d3	0f 9e c1	 setle	 cl
  015d6	85 c9		 test	 ecx, ecx
  015d8	74 38		 je	 SHORT $LN531@Convert

; 1230 : 		{
; 1231 : 			this->m_Option3 = Option3;
; 1232 : 			this->m_Special[this->m_SpecialNum] = 0x55;

  015da	0f b6 4e 30	 movzx	 ecx, BYTE PTR [esi+48]
  015de	bf 55 00 00 00	 mov	 edi, 85			; 00000055H
  015e3	88 86 96 00 00
	00		 mov	 BYTE PTR [esi+150], al
  015e9	66 89 7c 4e 32	 mov	 WORD PTR [esi+ecx*2+50], di

; 1233 : 
; 1234 : 			if( (this->m_NewOption & 0x10) != FALSE )

  015ee	8a 8e 97 00 00
	00		 mov	 cl, BYTE PTR [esi+151]
  015f4	f6 c1 10	 test	 cl, 16			; 00000010H
  015f7	74 07		 je	 SHORT $LN123@Convert

; 1235 : 			{
; 1236 : 				this->m_Special[this->m_SpecialNum] = 0x50;

  015f9	bf 50 00 00 00	 mov	 edi, 80			; 00000050H
  015fe	eb 09		 jmp	 SHORT $LN597@Convert
$LN123@Convert:

; 1237 : 			}
; 1238 : 			else if( (this->m_NewOption & 0x20) != FALSE )

  01600	84 cb		 test	 cl, bl
  01602	74 0e		 je	 SHORT $LN531@Convert

; 1239 : 			{
; 1240 : 				this->m_Special[this->m_SpecialNum] = 0x53;

  01604	bf 53 00 00 00	 mov	 edi, 83			; 00000053H
$LN597@Convert:
  01609	0f b6 4e 30	 movzx	 ecx, BYTE PTR [esi+48]
  0160d	66 89 7c 4e 32	 mov	 WORD PTR [esi+ecx*2+50], di
$LN531@Convert:

; 1241 : 			}
; 1242 : 		}
; 1243 : #endif
; 1244 : 
; 1245 : #ifdef NEWWINGS_2_5
; 1246 : 		if ( IS_NEWWINGS_2_5(_type) )

  01612	81 fa ba 18 00
	00		 cmp	 edx, 6330		; 000018baH
  01618	7c 47		 jl	 SHORT $LN533@Convert
  0161a	33 c9		 xor	 ecx, ecx
  0161c	81 fa bc 18 00
	00		 cmp	 edx, 6332		; 000018bcH
  01622	0f 9e c1	 setle	 cl
  01625	85 c9		 test	 ecx, ecx
  01627	74 38		 je	 SHORT $LN533@Convert

; 1247 : 		{
; 1248 : 			this->m_Option3 = Option3;
; 1249 : 			this->m_Special[this->m_SpecialNum] = 0x55;

  01629	0f b6 4e 30	 movzx	 ecx, BYTE PTR [esi+48]
  0162d	bf 55 00 00 00	 mov	 edi, 85			; 00000055H
  01632	88 86 96 00 00
	00		 mov	 BYTE PTR [esi+150], al
  01638	66 89 7c 4e 32	 mov	 WORD PTR [esi+ecx*2+50], di

; 1250 : 
; 1251 : 			if( (this->m_NewOption & 0x10) != FALSE )

  0163d	8a 8e 97 00 00
	00		 mov	 cl, BYTE PTR [esi+151]
  01643	f6 c1 10	 test	 cl, 16			; 00000010H
  01646	74 07		 je	 SHORT $LN119@Convert

; 1252 : 			{
; 1253 : 				this->m_Special[this->m_SpecialNum] = 0x50;

  01648	bf 50 00 00 00	 mov	 edi, 80			; 00000050H
  0164d	eb 09		 jmp	 SHORT $LN598@Convert
$LN119@Convert:

; 1254 : 			}
; 1255 : 			else if( (this->m_NewOption & 0x20) != FALSE )

  0164f	84 cb		 test	 cl, bl
  01651	74 0e		 je	 SHORT $LN533@Convert

; 1256 : 			{
; 1257 : 				this->m_Special[this->m_SpecialNum] = 0x53;

  01653	bf 53 00 00 00	 mov	 edi, 83			; 00000053H
$LN598@Convert:
  01658	0f b6 4e 30	 movzx	 ecx, BYTE PTR [esi+48]
  0165c	66 89 7c 4e 32	 mov	 WORD PTR [esi+ecx*2+50], di
$LN533@Convert:

; 1258 : 			}
; 1259 : 		}
; 1260 : #endif
; 1261 : 
; 1262 : #ifdef NEWWINGS_5
; 1263 : 		if ( IS_NEWWINGS_5(_type) )

  01661	81 fa bd 18 00
	00		 cmp	 edx, 6333		; 000018bdH
  01667	7c 47		 jl	 SHORT $LN535@Convert
  01669	33 c9		 xor	 ecx, ecx
  0166b	81 fa c2 18 00
	00		 cmp	 edx, 6338		; 000018c2H
  01671	0f 9e c1	 setle	 cl
  01674	85 c9		 test	 ecx, ecx
  01676	74 38		 je	 SHORT $LN535@Convert

; 1264 : 		{
; 1265 : 			this->m_Option3 = Option3;
; 1266 : 			this->m_Special[this->m_SpecialNum] = 0x55;

  01678	0f b6 4e 30	 movzx	 ecx, BYTE PTR [esi+48]
  0167c	bf 55 00 00 00	 mov	 edi, 85			; 00000055H
  01681	88 86 96 00 00
	00		 mov	 BYTE PTR [esi+150], al
  01687	66 89 7c 4e 32	 mov	 WORD PTR [esi+ecx*2+50], di

; 1267 : 
; 1268 : 			if( (this->m_NewOption & 0x10) != FALSE )

  0168c	8a 8e 97 00 00
	00		 mov	 cl, BYTE PTR [esi+151]
  01692	f6 c1 10	 test	 cl, 16			; 00000010H
  01695	74 07		 je	 SHORT $LN115@Convert

; 1269 : 			{
; 1270 : 				this->m_Special[this->m_SpecialNum] = 0x50;

  01697	bf 50 00 00 00	 mov	 edi, 80			; 00000050H
  0169c	eb 09		 jmp	 SHORT $LN599@Convert
$LN115@Convert:

; 1271 : 			}
; 1272 : 			else if( (this->m_NewOption & 0x20) != FALSE )

  0169e	84 cb		 test	 cl, bl
  016a0	74 0e		 je	 SHORT $LN535@Convert

; 1273 : 			{
; 1274 : 				this->m_Special[this->m_SpecialNum] = 0x53;

  016a2	bf 53 00 00 00	 mov	 edi, 83			; 00000053H
$LN599@Convert:
  016a7	0f b6 4e 30	 movzx	 ecx, BYTE PTR [esi+48]
  016ab	66 89 7c 4e 32	 mov	 WORD PTR [esi+ecx*2+50], di
$LN535@Convert:

; 1275 : 			}
; 1276 : 		}
; 1277 : #endif
; 1278 : #ifdef NEWWINGS_6
; 1279 : 		if ( IS_NEWWINGS_6(_type) )

  016b0	81 fa c3 18 00
	00		 cmp	 edx, 6339		; 000018c3H
  016b6	7c 47		 jl	 SHORT $LN537@Convert
  016b8	33 c9		 xor	 ecx, ecx
  016ba	81 fa dc 18 00
	00		 cmp	 edx, 6364		; 000018dcH
  016c0	0f 9e c1	 setle	 cl
  016c3	85 c9		 test	 ecx, ecx
  016c5	74 38		 je	 SHORT $LN537@Convert

; 1280 : 		{
; 1281 : 			this->m_Option3 = Option3;
; 1282 : 			this->m_Special[this->m_SpecialNum] = 0x55;

  016c7	0f b6 4e 30	 movzx	 ecx, BYTE PTR [esi+48]
  016cb	bf 55 00 00 00	 mov	 edi, 85			; 00000055H
  016d0	88 86 96 00 00
	00		 mov	 BYTE PTR [esi+150], al
  016d6	66 89 7c 4e 32	 mov	 WORD PTR [esi+ecx*2+50], di

; 1283 : 
; 1284 : 			if( (this->m_NewOption & 0x10) != FALSE )

  016db	8a 8e 97 00 00
	00		 mov	 cl, BYTE PTR [esi+151]
  016e1	f6 c1 10	 test	 cl, 16			; 00000010H
  016e4	74 07		 je	 SHORT $LN111@Convert

; 1285 : 			{
; 1286 : 				this->m_Special[this->m_SpecialNum] = 0x50;

  016e6	bf 50 00 00 00	 mov	 edi, 80			; 00000050H
  016eb	eb 09		 jmp	 SHORT $LN600@Convert
$LN111@Convert:

; 1287 : 			}
; 1288 : 			else if( (this->m_NewOption & 0x20) != FALSE )

  016ed	84 cb		 test	 cl, bl
  016ef	74 0e		 je	 SHORT $LN537@Convert

; 1289 : 			{
; 1290 : 				this->m_Special[this->m_SpecialNum] = 0x53;

  016f1	bf 53 00 00 00	 mov	 edi, 83			; 00000053H
$LN600@Convert:
  016f6	0f b6 4e 30	 movzx	 ecx, BYTE PTR [esi+48]
  016fa	66 89 7c 4e 32	 mov	 WORD PTR [esi+ecx*2+50], di
$LN537@Convert:

; 1291 : 			}
; 1292 : 		}
; 1293 : #endif
; 1294 : 
; 1295 : 		if ( _type == ITEMGET(12,37) ) // Wing of Eternal

  016ff	81 fa 25 18 00
	00		 cmp	 edx, 6181		; 00001825H
  01705	75 2c		 jne	 SHORT $LN105@Convert

; 1296 : 		{
; 1297 : 			this->m_Option3 = Option3;

  01707	88 86 96 00 00
	00		 mov	 BYTE PTR [esi+150], al

; 1298 : 			this->m_Special[this->m_SpecialNum] = 0x55;

  0170d	0f b6 46 30	 movzx	 eax, BYTE PTR [esi+48]
  01711	b9 55 00 00 00	 mov	 ecx, 85			; 00000055H
  01716	66 89 4c 46 32	 mov	 WORD PTR [esi+eax*2+50], cx

; 1299 : 
; 1300 : 			if( (this->m_NewOption & 0x10) != FALSE )

  0171b	8a 86 97 00 00
	00		 mov	 al, BYTE PTR [esi+151]
  01721	a8 10		 test	 al, 16			; 00000010H
  01723	0f 84 fb fd ff
	ff		 je	 $LN134@Convert

; 1301 : 			{
; 1302 : 				this->m_Special[this->m_SpecialNum] = 0x51;

  01729	b9 51 00 00 00	 mov	 ecx, 81			; 00000051H
  0172e	e9 89 01 00 00	 jmp	 $LN596@Convert
$LN105@Convert:

; 1303 : 			}
; 1304 : 			else if( (this->m_NewOption & 0x20) != FALSE )
; 1305 : 			{
; 1306 : 				this->m_Special[this->m_SpecialNum] = 0x53;
; 1307 : 			}
; 1308 : 		}
; 1309 : 
; 1310 : 		if ( _type == ITEMGET(12,38) ) // Wing of Illusion

  01733	81 fa 26 18 00
	00		 cmp	 edx, 6182		; 00001826H
  01739	75 2c		 jne	 SHORT $LN101@Convert

; 1311 : 		{
; 1312 : 			this->m_Option3 = Option3;

  0173b	88 86 96 00 00
	00		 mov	 BYTE PTR [esi+150], al

; 1313 : 			this->m_Special[this->m_SpecialNum] = 0x55;

  01741	0f b6 46 30	 movzx	 eax, BYTE PTR [esi+48]
  01745	b9 55 00 00 00	 mov	 ecx, 85			; 00000055H
  0174a	66 89 4c 46 32	 mov	 WORD PTR [esi+eax*2+50], cx

; 1314 : 
; 1315 : 			if( (this->m_NewOption & 0x10) != FALSE )

  0174f	8a 86 97 00 00
	00		 mov	 al, BYTE PTR [esi+151]
  01755	a8 10		 test	 al, 16			; 00000010H
  01757	0f 84 c7 fd ff
	ff		 je	 $LN134@Convert

; 1316 : 			{
; 1317 : 				this->m_Special[this->m_SpecialNum] = 0x50;

  0175d	b9 50 00 00 00	 mov	 ecx, 80			; 00000050H
  01762	e9 55 01 00 00	 jmp	 $LN596@Convert
$LN101@Convert:

; 1318 : 			}
; 1319 : 			else if( (this->m_NewOption & 0x20) != FALSE )
; 1320 : 			{
; 1321 : 				this->m_Special[this->m_SpecialNum] = 0x53;
; 1322 : 			}
; 1323 : 		}
; 1324 : 
; 1325 : 		if ( _type == ITEMGET(12,39) ) // Wing of Ruin

  01767	81 fa 27 18 00
	00		 cmp	 edx, 6183		; 00001827H
  0176d	75 3a		 jne	 SHORT $LN97@Convert

; 1326 : 		{
; 1327 : 			this->m_Option3 = Option3;

  0176f	88 86 96 00 00
	00		 mov	 BYTE PTR [esi+150], al

; 1328 : 			this->m_Special[this->m_SpecialNum] = 0x55;

  01775	0f b6 46 30	 movzx	 eax, BYTE PTR [esi+48]
  01779	b9 55 00 00 00	 mov	 ecx, 85			; 00000055H
  0177e	66 89 4c 46 32	 mov	 WORD PTR [esi+eax*2+50], cx

; 1329 : 
; 1330 : 			if( (this->m_NewOption & 0x10) != FALSE )

  01783	8a 86 97 00 00
	00		 mov	 al, BYTE PTR [esi+151]
  01789	a8 10		 test	 al, 16			; 00000010H
  0178b	74 0a		 je	 SHORT $LN99@Convert

; 1331 : 			{
; 1332 : 				this->m_Special[this->m_SpecialNum] = 0x50;

  0178d	b9 50 00 00 00	 mov	 ecx, 80			; 00000050H
  01792	e9 25 01 00 00	 jmp	 $LN596@Convert
$LN99@Convert:

; 1333 : 			}
; 1334 : 			else if( (this->m_NewOption & 0x20) != FALSE )

  01797	84 c3		 test	 al, bl
  01799	0f 84 26 01 00
	00		 je	 $LN496@Convert

; 1335 : 			{
; 1336 : 				this->m_Special[this->m_SpecialNum] = 0x51;

  0179f	b9 51 00 00 00	 mov	 ecx, 81			; 00000051H

; 1337 : 			}
; 1338 : 		}
; 1339 : 
; 1340 : 		if ( _type == ITEMGET(12,40) ) // Cape of Emperor

  017a4	e9 13 01 00 00	 jmp	 $LN596@Convert
$LN97@Convert:
  017a9	81 fa 28 18 00
	00		 cmp	 edx, 6184		; 00001828H
  017af	75 2c		 jne	 SHORT $LN96@Convert

; 1341 : 		{
; 1342 : 			this->m_Option3 = Option3;

  017b1	88 86 96 00 00
	00		 mov	 BYTE PTR [esi+150], al

; 1343 : 			this->m_Special[this->m_SpecialNum] = 0x55;

  017b7	0f b6 46 30	 movzx	 eax, BYTE PTR [esi+48]
  017bb	b9 55 00 00 00	 mov	 ecx, 85			; 00000055H
  017c0	66 89 4c 46 32	 mov	 WORD PTR [esi+eax*2+50], cx

; 1344 : 
; 1345 : 			if( (this->m_NewOption & 0x10) != FALSE )

  017c5	8a 86 97 00 00
	00		 mov	 al, BYTE PTR [esi+151]
  017cb	a8 10		 test	 al, 16			; 00000010H
  017cd	0f 84 51 fd ff
	ff		 je	 $LN134@Convert

; 1346 : 			{
; 1347 : 				this->m_Special[this->m_SpecialNum] = 0x50;

  017d3	b9 50 00 00 00	 mov	 ecx, 80			; 00000050H
  017d8	e9 df 00 00 00	 jmp	 $LN596@Convert
$LN96@Convert:

; 1348 : 			}
; 1349 : 			else if( (this->m_NewOption & 0x20) != FALSE )
; 1350 : 			{
; 1351 : 				this->m_Special[this->m_SpecialNum] = 0x53;
; 1352 : 			}
; 1353 : 		}
; 1354 : 		else if ( _type == ITEMGET(12,41) ) // Wing of Curse

  017dd	81 fa 29 18 00
	00		 cmp	 edx, 6185		; 00001829H
  017e3	75 19		 jne	 SHORT $LN91@Convert

; 1355 : 		{
; 1356 : 			this->m_Special[this->m_SpecialNum] = 81;

  017e5	0f b6 4e 30	 movzx	 ecx, BYTE PTR [esi+48]
  017e9	bf 51 00 00 00	 mov	 edi, 81			; 00000051H
  017ee	66 89 7c 4e 32	 mov	 WORD PTR [esi+ecx*2+50], di

; 1357 : 			this->m_Option3 = Option3;

  017f3	88 86 96 00 00
	00		 mov	 BYTE PTR [esi+150], al
  017f9	e9 c7 00 00 00	 jmp	 $LN496@Convert
$LN91@Convert:

; 1358 : #if(FIX_REQSTR_ITEM==FALSE)
; 1359 : 			this->m_RequireStrength +=  Option3 * 4;
; 1360 : #endif
; 1361 : 		}
; 1362 : 		else if ( _type == ITEMGET(12,42) ) // Wing of Despair

  017fe	81 fa 2a 18 00
	00		 cmp	 edx, 6186		; 0000182aH
  01804	75 26		 jne	 SHORT $LN89@Convert

; 1363 : 		{
; 1364 : 			this->m_Option3 = Option3;

  01806	88 86 96 00 00
	00		 mov	 BYTE PTR [esi+150], al

; 1365 : #if(FIX_REQSTR_ITEM==FALSE)
; 1366 : 			this->m_RequireStrength +=  Option3 * 4;
; 1367 : #endif
; 1368 : 
; 1369 : 			if ( (this->m_NewOption&0x20) != 0 )
; 1370 : 			{
; 1371 : 				this->m_Special[this->m_SpecialNum] = 81;

  0180c	0f b6 46 30	 movzx	 eax, BYTE PTR [esi+48]
  01810	84 9e 97 00 00
	00		 test	 BYTE PTR [esi+151], bl
  01816	74 0a		 je	 SHORT $LN88@Convert
  01818	b9 51 00 00 00	 mov	 ecx, 81			; 00000051H

; 1372 : 			}
; 1373 : 			else

  0181d	e9 9e 00 00 00	 jmp	 $LN595@Convert
$LN88@Convert:

; 1374 : 			{
; 1375 : 				this->m_Special[this->m_SpecialNum] = 113;

  01822	b9 71 00 00 00	 mov	 ecx, 113		; 00000071H

; 1376 : 			}

  01827	e9 94 00 00 00	 jmp	 $LN595@Convert
$LN89@Convert:

; 1377 : 		}
; 1378 : 		else if ( _type == ITEMGET(12,43) ) // Wing of Dimension

  0182c	81 fa 2b 18 00
	00		 cmp	 edx, 6187		; 0000182bH
  01832	75 25		 jne	 SHORT $LN85@Convert

; 1379 : 		{
; 1380 : 			this->m_Option3 = Option3;

  01834	88 86 96 00 00
	00		 mov	 BYTE PTR [esi+150], al

; 1381 : 			this->m_Special[this->m_SpecialNum] = 0x55;

  0183a	0f b6 46 30	 movzx	 eax, BYTE PTR [esi+48]
  0183e	b9 55 00 00 00	 mov	 ecx, 85			; 00000055H
  01843	66 89 4c 46 32	 mov	 WORD PTR [esi+eax*2+50], cx

; 1382 : 
; 1383 : 			if( (this->m_NewOption & 0x10) != FALSE )

  01848	8a 86 97 00 00
	00		 mov	 al, BYTE PTR [esi+151]
  0184e	a8 10		 test	 al, 16			; 00000010H
  01850	74 61		 je	 SHORT $LN74@Convert

; 1384 : 			{
; 1385 : 				this->m_Special[this->m_SpecialNum] = 81;

  01852	b9 51 00 00 00	 mov	 ecx, 81			; 00000051H
  01857	eb 63		 jmp	 SHORT $LN596@Convert
$LN85@Convert:

; 1386 : 			}
; 1387 : 			else if( (this->m_NewOption & 0x20) != FALSE )
; 1388 : 			{
; 1389 : 				this->m_Special[this->m_SpecialNum] = 113;
; 1390 : 			}
; 1391 : 		}
; 1392 : 		else if ( _type == ITEMGET(12,49) ) // Wing of Dimension

  01859	81 fa 31 18 00
	00		 cmp	 edx, 6193		; 00001831H
  0185f	75 25		 jne	 SHORT $LN80@Convert
$LN476@Convert:

; 1393 : 		{
; 1394 : 			this->m_Option3 = Option3;

  01861	88 86 96 00 00
	00		 mov	 BYTE PTR [esi+150], al

; 1395 : 			this->m_Special[this->m_SpecialNum] = 0x55;

  01867	0f b6 46 30	 movzx	 eax, BYTE PTR [esi+48]
  0186b	b9 55 00 00 00	 mov	 ecx, 85			; 00000055H
  01870	66 89 4c 46 32	 mov	 WORD PTR [esi+eax*2+50], cx

; 1396 : 
; 1397 : 			if( (this->m_NewOption & 0x10) != FALSE )

  01875	8a 86 97 00 00
	00		 mov	 al, BYTE PTR [esi+151]
  0187b	a8 10		 test	 al, 16			; 00000010H
  0187d	74 34		 je	 SHORT $LN74@Convert

; 1398 : 			{
; 1399 : 				this->m_Special[this->m_SpecialNum] = 81;

  0187f	b9 51 00 00 00	 mov	 ecx, 81			; 00000051H
  01884	eb 36		 jmp	 SHORT $LN596@Convert
$LN80@Convert:

; 1400 : 			}
; 1401 : 			else if( (this->m_NewOption & 0x20) != FALSE )
; 1402 : 			{
; 1403 : 				this->m_Special[this->m_SpecialNum] = 113;
; 1404 : 			}
; 1405 : 		}
; 1406 : 		else if ( _type == ITEMGET(12,50) ) // Wing of Dimension

  01886	81 fa 32 18 00
	00		 cmp	 edx, 6194		; 00001832H
  0188c	75 37		 jne	 SHORT $LN496@Convert
$LN495@Convert:

; 1407 : 		{
; 1408 : 			this->m_Option3 = Option3;

  0188e	88 86 96 00 00
	00		 mov	 BYTE PTR [esi+150], al

; 1409 : 			this->m_Special[this->m_SpecialNum] = 0x55;

  01894	0f b6 46 30	 movzx	 eax, BYTE PTR [esi+48]
  01898	b9 55 00 00 00	 mov	 ecx, 85			; 00000055H
  0189d	66 89 4c 46 32	 mov	 WORD PTR [esi+eax*2+50], cx

; 1410 : 
; 1411 : 			if( (this->m_NewOption & 0x10) != FALSE )

  018a2	8a 86 97 00 00
	00		 mov	 al, BYTE PTR [esi+151]
  018a8	a8 10		 test	 al, 16			; 00000010H
  018aa	74 07		 je	 SHORT $LN74@Convert

; 1412 : 			{
; 1413 : 				this->m_Special[this->m_SpecialNum] = 81;

  018ac	b9 51 00 00 00	 mov	 ecx, 81			; 00000051H
  018b1	eb 09		 jmp	 SHORT $LN596@Convert
$LN74@Convert:

; 1414 : 			}
; 1415 : 			else if( (this->m_NewOption & 0x20) != FALSE )

  018b3	84 c3		 test	 al, bl
  018b5	74 0e		 je	 SHORT $LN496@Convert

; 1416 : 			{
; 1417 : 				this->m_Special[this->m_SpecialNum] = 113;

  018b7	b9 71 00 00 00	 mov	 ecx, 113		; 00000071H
$LN596@Convert:
  018bc	0f b6 46 30	 movzx	 eax, BYTE PTR [esi+48]
$LN595@Convert:
  018c0	66 89 4c 46 32	 mov	 WORD PTR [esi+eax*2+50], cx
$LN496@Convert:

; 1418 : 			}
; 1419 : 		}
; 1420 : 	}
; 1421 : 
; 1422 : 	this->m_SpecialNum++;

  018c5	fe 46 30	 inc	 BYTE PTR [esi+48]
  018c8	8a 46 30	 mov	 al, BYTE PTR [esi+48]

; 1423 : 
; 1424 : 	if ( (_type >=ITEMGET(6,0) && _type <ITEMGET(12,0) ) || ( _type >=ITEMGET(13,8) && _type <= ITEMGET(13,9)) || (_type>=ITEMGET(13,21) && _type <= ITEMGET(13,24) ) )

  018cb	81 fa 00 0c 00
	00		 cmp	 edx, 3072		; 00000c00H
  018d1	7c 08		 jl	 SHORT $LN69@Convert
  018d3	81 fa 00 18 00
	00		 cmp	 edx, 6144		; 00001800H
  018d9	7c 1f		 jl	 SHORT $LN517@Convert
$LN69@Convert:
  018db	81 fa 08 1a 00
	00		 cmp	 edx, 6664		; 00001a08H
  018e1	7c 08		 jl	 SHORT $LN68@Convert
  018e3	81 fa 09 1a 00
	00		 cmp	 edx, 6665		; 00001a09H
  018e9	7e 0f		 jle	 SHORT $LN517@Convert
$LN68@Convert:
  018eb	8d 8a eb e5 ff
	ff		 lea	 ecx, DWORD PTR [edx-6677]
  018f1	83 f9 03	 cmp	 ecx, 3
  018f4	0f 87 a7 00 00
	00		 ja	 $LN543@Convert
$LN517@Convert:

; 1425 : 	{
; 1426 : 		if ( ((this->m_NewOption>>5)&1) != 0 )

  018fa	84 9e 97 00 00
	00		 test	 BYTE PTR [esi+151], bl
  01900	74 13		 je	 SHORT $LN67@Convert

; 1427 : 		{
; 1428 : 			this->m_Special[this->m_SpecialNum] = 0x56;

  01902	0f b6 c0	 movzx	 eax, al
  01905	b9 56 00 00 00	 mov	 ecx, 86			; 00000056H
  0190a	66 89 4c 46 32	 mov	 WORD PTR [esi+eax*2+50], cx

; 1429 : 			this->m_SpecialNum++;

  0190f	fe 46 30	 inc	 BYTE PTR [esi+48]
  01912	8a 46 30	 mov	 al, BYTE PTR [esi+48]
$LN67@Convert:

; 1430 : 		}
; 1431 : 
; 1432 : 		if ( ((this->m_NewOption>>4)&1) != 0 )

  01915	f6 86 97 00 00
	00 10		 test	 BYTE PTR [esi+151], 16	; 00000010H
  0191c	74 13		 je	 SHORT $LN66@Convert

; 1433 : 		{
; 1434 : 			this->m_Special[this->m_SpecialNum] = 0x57;

  0191e	0f b6 c0	 movzx	 eax, al
  01921	b9 57 00 00 00	 mov	 ecx, 87			; 00000057H
  01926	66 89 4c 46 32	 mov	 WORD PTR [esi+eax*2+50], cx

; 1435 : 			this->m_SpecialNum++;

  0192b	fe 46 30	 inc	 BYTE PTR [esi+48]
  0192e	8a 46 30	 mov	 al, BYTE PTR [esi+48]
$LN66@Convert:

; 1436 : 		}
; 1437 : 
; 1438 : 		if ( ((this->m_NewOption>>3)&1) != 0 )

  01931	f6 86 97 00 00
	00 08		 test	 BYTE PTR [esi+151], 8
  01938	74 13		 je	 SHORT $LN65@Convert

; 1439 : 		{
; 1440 : 			this->m_Special[this->m_SpecialNum] = 0x58;

  0193a	0f b6 c0	 movzx	 eax, al
  0193d	b9 58 00 00 00	 mov	 ecx, 88			; 00000058H
  01942	66 89 4c 46 32	 mov	 WORD PTR [esi+eax*2+50], cx

; 1441 : 			this->m_SpecialNum++;

  01947	fe 46 30	 inc	 BYTE PTR [esi+48]
  0194a	8a 46 30	 mov	 al, BYTE PTR [esi+48]
$LN65@Convert:

; 1442 : 		}
; 1443 : 
; 1444 : 		if ( ((this->m_NewOption>>2)&1) != 0 )

  0194d	f6 86 97 00 00
	00 04		 test	 BYTE PTR [esi+151], 4
  01954	74 13		 je	 SHORT $LN64@Convert

; 1445 : 		{
; 1446 : 			this->m_Special[this->m_SpecialNum] = 0x59;

  01956	0f b6 c0	 movzx	 eax, al
  01959	b9 59 00 00 00	 mov	 ecx, 89			; 00000059H
  0195e	66 89 4c 46 32	 mov	 WORD PTR [esi+eax*2+50], cx

; 1447 : 			this->m_SpecialNum++;

  01963	fe 46 30	 inc	 BYTE PTR [esi+48]
  01966	8a 46 30	 mov	 al, BYTE PTR [esi+48]
$LN64@Convert:

; 1448 : 		}
; 1449 : 
; 1450 : 		if ( ((this->m_NewOption>>1)&1) != 0 )

  01969	f6 86 97 00 00
	00 02		 test	 BYTE PTR [esi+151], 2
  01970	74 13		 je	 SHORT $LN63@Convert

; 1451 : 		{
; 1452 : 			this->m_Special[this->m_SpecialNum] = 0x5A;

  01972	0f b6 c0	 movzx	 eax, al
  01975	b9 5a 00 00 00	 mov	 ecx, 90			; 0000005aH
  0197a	66 89 4c 46 32	 mov	 WORD PTR [esi+eax*2+50], cx

; 1453 : 			this->m_SpecialNum++;

  0197f	fe 46 30	 inc	 BYTE PTR [esi+48]
  01982	8a 46 30	 mov	 al, BYTE PTR [esi+48]
$LN63@Convert:

; 1454 : 		}
; 1455 : 
; 1456 : 		if ( ((this->m_NewOption)&1) != 0 )

  01985	f6 86 97 00 00
	00 01		 test	 BYTE PTR [esi+151], 1
  0198c	74 13		 je	 SHORT $LN543@Convert

; 1457 : 		{
; 1458 : 			this->m_Special[this->m_SpecialNum] = 0x5B;

  0198e	0f b6 c0	 movzx	 eax, al
  01991	b9 5b 00 00 00	 mov	 ecx, 91			; 0000005bH
  01996	66 89 4c 46 32	 mov	 WORD PTR [esi+eax*2+50], cx

; 1459 : 			this->m_SpecialNum++;

  0199b	fe 46 30	 inc	 BYTE PTR [esi+48]
  0199e	8a 46 30	 mov	 al, BYTE PTR [esi+48]
$LN543@Convert:

; 1460 : 		}
; 1461 : 	}
; 1462 : 
; 1463 : 	if ( (_type >=ITEMGET(0,0) && _type <ITEMGET(6,0) ) || ( _type >=ITEMGET(13,12) && _type <= ITEMGET(13,13)) || (_type>=ITEMGET(13,25) && _type <= ITEMGET(13,28) ) )

  019a1	85 d2		 test	 edx, edx
  019a3	78 08		 js	 SHORT $LN59@Convert
  019a5	81 fa 00 0c 00
	00		 cmp	 edx, 3072		; 00000c00H
  019ab	7c 1f		 jl	 SHORT $LN60@Convert
$LN59@Convert:
  019ad	81 fa 0c 1a 00
	00		 cmp	 edx, 6668		; 00001a0cH
  019b3	7c 08		 jl	 SHORT $LN58@Convert
  019b5	81 fa 0d 1a 00
	00		 cmp	 edx, 6669		; 00001a0dH
  019bb	7e 0f		 jle	 SHORT $LN60@Convert
$LN58@Convert:
  019bd	8d 8a e7 e5 ff
	ff		 lea	 ecx, DWORD PTR [edx-6681]
  019c3	83 f9 03	 cmp	 ecx, 3
  019c6	0f 87 ff 00 00
	00		 ja	 $LN46@Convert
$LN60@Convert:

; 1464 : 	{
; 1465 : 		if ( ((this->m_NewOption>>5)&1) != 0 )

  019cc	84 9e 97 00 00
	00		 test	 BYTE PTR [esi+151], bl
  019d2	74 13		 je	 SHORT $LN57@Convert

; 1466 : 		{
; 1467 : 			this->m_Special[this->m_SpecialNum] = 0x5C;

  019d4	0f b6 c0	 movzx	 eax, al
  019d7	b9 5c 00 00 00	 mov	 ecx, 92			; 0000005cH
  019dc	66 89 4c 46 32	 mov	 WORD PTR [esi+eax*2+50], cx

; 1468 : 			this->m_SpecialNum++;

  019e1	fe 46 30	 inc	 BYTE PTR [esi+48]
  019e4	8a 46 30	 mov	 al, BYTE PTR [esi+48]
$LN57@Convert:

; 1469 : 		}
; 1470 : 
; 1471 : 		if ( (_type >=ITEMGET(5,0) && _type <ITEMGET(6,0) ) || (_type ==ITEMGET(13,12) ) || (_type == ITEMGET(13,25)) || (_type == ITEMGET(13,27) ) )

  019e7	81 fa 00 0a 00
	00		 cmp	 edx, 2560		; 00000a00H
  019ed	7c 08		 jl	 SHORT $LN54@Convert
  019ef	81 fa 00 0c 00
	00		 cmp	 edx, 3072		; 00000c00H
  019f5	7c 44		 jl	 SHORT $LN55@Convert
$LN54@Convert:
  019f7	81 fa 0c 1a 00
	00		 cmp	 edx, 6668		; 00001a0cH
  019fd	74 3c		 je	 SHORT $LN55@Convert
  019ff	81 fa 19 1a 00
	00		 cmp	 edx, 6681		; 00001a19H
  01a05	74 34		 je	 SHORT $LN55@Convert
  01a07	81 fa 1b 1a 00
	00		 cmp	 edx, 6683		; 00001a1bH
  01a0d	74 2c		 je	 SHORT $LN55@Convert

; 1482 : 			}
; 1483 : 		}
; 1484 : 		else
; 1485 : 		{
; 1486 : 			if ( ((this->m_NewOption>>4)&1) != 0 )

  01a0f	f6 86 97 00 00
	00 10		 test	 BYTE PTR [esi+151], 16	; 00000010H
  01a16	74 13		 je	 SHORT $LN50@Convert

; 1487 : 			{
; 1488 : 				this->m_Special[this->m_SpecialNum] = 0x5D;

  01a18	0f b6 c0	 movzx	 eax, al
  01a1b	b9 5d 00 00 00	 mov	 ecx, 93			; 0000005dH
  01a20	66 89 4c 46 32	 mov	 WORD PTR [esi+eax*2+50], cx

; 1489 : 				this->m_SpecialNum++;

  01a25	fe 46 30	 inc	 BYTE PTR [esi+48]
  01a28	8a 46 30	 mov	 al, BYTE PTR [esi+48]
$LN50@Convert:

; 1490 : 			}
; 1491 : 			if ( ((this->m_NewOption>>3)&1) != 0 )

  01a2b	f6 86 97 00 00
	00 08		 test	 BYTE PTR [esi+151], 8
  01a32	74 3f		 je	 SHORT $LN52@Convert

; 1492 : 			{
; 1493 : 				this->m_Special[this->m_SpecialNum] = 0x5E;

  01a34	b9 5e 00 00 00	 mov	 ecx, 94			; 0000005eH

; 1494 : 				this->m_SpecialNum++;

  01a39	eb 2a		 jmp	 SHORT $LN602@Convert
$LN55@Convert:

; 1472 : 		{
; 1473 : 			if ( ((this->m_NewOption>>4)&1) != 0 )

  01a3b	f6 86 97 00 00
	00 10		 test	 BYTE PTR [esi+151], 16	; 00000010H
  01a42	74 13		 je	 SHORT $LN53@Convert

; 1474 : 			{
; 1475 : 				this->m_Special[this->m_SpecialNum] = 0x5F;

  01a44	0f b6 c0	 movzx	 eax, al
  01a47	b9 5f 00 00 00	 mov	 ecx, 95			; 0000005fH
  01a4c	66 89 4c 46 32	 mov	 WORD PTR [esi+eax*2+50], cx

; 1476 : 				this->m_SpecialNum++;

  01a51	fe 46 30	 inc	 BYTE PTR [esi+48]
  01a54	8a 46 30	 mov	 al, BYTE PTR [esi+48]
$LN53@Convert:

; 1477 : 			}
; 1478 : 			if ( ((this->m_NewOption>>3)&1) != 0 )

  01a57	f6 86 97 00 00
	00 08		 test	 BYTE PTR [esi+151], 8
  01a5e	74 13		 je	 SHORT $LN52@Convert

; 1479 : 			{
; 1480 : 				this->m_Special[this->m_SpecialNum] = 0x60;

  01a60	b9 60 00 00 00	 mov	 ecx, 96			; 00000060H
$LN602@Convert:
  01a65	0f b6 c0	 movzx	 eax, al
  01a68	66 89 4c 46 32	 mov	 WORD PTR [esi+eax*2+50], cx

; 1481 : 				this->m_SpecialNum++;

  01a6d	fe 46 30	 inc	 BYTE PTR [esi+48]
  01a70	8a 46 30	 mov	 al, BYTE PTR [esi+48]
$LN52@Convert:

; 1495 : 			}
; 1496 : 		}
; 1497 : 
; 1498 : 		if ( ((this->m_NewOption>>2)&1) != 0 )

  01a73	f6 86 97 00 00
	00 04		 test	 BYTE PTR [esi+151], 4
  01a7a	74 17		 je	 SHORT $LN48@Convert

; 1499 : 		{
; 1500 : 			this->m_Special[this->m_SpecialNum] = 0x61;

  01a7c	0f b6 c0	 movzx	 eax, al
  01a7f	b9 61 00 00 00	 mov	 ecx, 97			; 00000061H
  01a84	66 89 4c 46 32	 mov	 WORD PTR [esi+eax*2+50], cx

; 1501 : 			this->m_SpecialNum++;

  01a89	fe 46 30	 inc	 BYTE PTR [esi+48]
  01a8c	8a 46 30	 mov	 al, BYTE PTR [esi+48]

; 1502 : 			this->m_AttackSpeed += 7;

  01a8f	80 46 0d 07	 add	 BYTE PTR [esi+13], 7
$LN48@Convert:

; 1503 : 		}
; 1504 : 
; 1505 : 		if ( ((this->m_NewOption>>1)&1) != 0 )

  01a93	f6 86 97 00 00
	00 02		 test	 BYTE PTR [esi+151], 2
  01a9a	74 13		 je	 SHORT $LN47@Convert

; 1506 : 		{
; 1507 : 			this->m_Special[this->m_SpecialNum] = 0x62;

  01a9c	0f b6 c0	 movzx	 eax, al
  01a9f	b9 62 00 00 00	 mov	 ecx, 98			; 00000062H
  01aa4	66 89 4c 46 32	 mov	 WORD PTR [esi+eax*2+50], cx

; 1508 : 			this->m_SpecialNum++;

  01aa9	fe 46 30	 inc	 BYTE PTR [esi+48]
  01aac	8a 46 30	 mov	 al, BYTE PTR [esi+48]
$LN47@Convert:

; 1509 : 		}
; 1510 : 
; 1511 : 		if ( ((this->m_NewOption)&1) != 0 )

  01aaf	f6 86 97 00 00
	00 01		 test	 BYTE PTR [esi+151], 1
  01ab6	74 13		 je	 SHORT $LN46@Convert

; 1512 : 		{
; 1513 : 			this->m_Special[this->m_SpecialNum] = 0x63;

  01ab8	0f b6 c0	 movzx	 eax, al
  01abb	b9 63 00 00 00	 mov	 ecx, 99			; 00000063H
  01ac0	66 89 4c 46 32	 mov	 WORD PTR [esi+eax*2+50], cx

; 1514 : 			this->m_SpecialNum++;

  01ac5	fe 46 30	 inc	 BYTE PTR [esi+48]
  01ac8	8a 46 30	 mov	 al, BYTE PTR [esi+48]
$LN46@Convert:

; 1515 : 		}
; 1516 : 	}
; 1517 : 
; 1518 : 	if ( ((_type >= ITEMGET(12,3)) && (_type <= ITEMGET(12,6))) || (_type ==ITEMGET(12,42)) || (_type ==ITEMGET(13,30)) )

  01acb	81 fa 03 18 00
	00		 cmp	 edx, 6147		; 00001803H
  01ad1	7c 08		 jl	 SHORT $LN43@Convert
  01ad3	81 fa 06 18 00
	00		 cmp	 edx, 6150		; 00001806H
  01ad9	7e 10		 jle	 SHORT $LN44@Convert
$LN43@Convert:
  01adb	81 fa 2a 18 00
	00		 cmp	 edx, 6186		; 0000182aH
  01ae1	74 08		 je	 SHORT $LN44@Convert
  01ae3	81 fa 1e 1a 00
	00		 cmp	 edx, 6686		; 00001a1eH
  01ae9	75 70		 jne	 SHORT $LN39@Convert
$LN44@Convert:

; 1519 : 	{
; 1520 : 		if ( ((this->m_NewOption)&1) != 0 )

  01aeb	f6 86 97 00 00
	00 01		 test	 BYTE PTR [esi+151], 1
  01af2	74 13		 je	 SHORT $LN42@Convert

; 1521 : 		{
; 1522 : 			this->m_Special[this->m_SpecialNum] = 0x64;

  01af4	0f b6 c0	 movzx	 eax, al
  01af7	b9 64 00 00 00	 mov	 ecx, 100		; 00000064H
  01afc	66 89 4c 46 32	 mov	 WORD PTR [esi+eax*2+50], cx

; 1523 : 			this->m_SpecialNum++;

  01b01	fe 46 30	 inc	 BYTE PTR [esi+48]
  01b04	8a 46 30	 mov	 al, BYTE PTR [esi+48]
$LN42@Convert:

; 1524 : 		}
; 1525 : 
; 1526 : 		if ( ((this->m_NewOption)&2) != 0 )

  01b07	f6 86 97 00 00
	00 02		 test	 BYTE PTR [esi+151], 2
  01b0e	74 13		 je	 SHORT $LN41@Convert

; 1527 : 		{
; 1528 : 			this->m_Special[this->m_SpecialNum] = 0x65;

  01b10	0f b6 c0	 movzx	 eax, al
  01b13	b9 65 00 00 00	 mov	 ecx, 101		; 00000065H
  01b18	66 89 4c 46 32	 mov	 WORD PTR [esi+eax*2+50], cx

; 1529 : 			this->m_SpecialNum++;

  01b1d	fe 46 30	 inc	 BYTE PTR [esi+48]
  01b20	8a 46 30	 mov	 al, BYTE PTR [esi+48]
$LN41@Convert:

; 1530 : 		}
; 1531 : 
; 1532 : 		if ( ((this->m_NewOption)&4) != 0 )

  01b23	f6 86 97 00 00
	00 04		 test	 BYTE PTR [esi+151], 4
  01b2a	74 13		 je	 SHORT $LN40@Convert

; 1533 : 		{
; 1534 : 			this->m_Special[this->m_SpecialNum] = 0x66;

  01b2c	0f b6 c0	 movzx	 eax, al
  01b2f	b9 66 00 00 00	 mov	 ecx, 102		; 00000066H
  01b34	66 89 4c 46 32	 mov	 WORD PTR [esi+eax*2+50], cx

; 1535 : 			this->m_SpecialNum++;

  01b39	fe 46 30	 inc	 BYTE PTR [esi+48]
  01b3c	8a 46 30	 mov	 al, BYTE PTR [esi+48]
$LN40@Convert:

; 1536 : 		}
; 1537 : 
; 1538 : 		if ( ((this->m_NewOption)&8) != 0 )

  01b3f	f6 86 97 00 00
	00 08		 test	 BYTE PTR [esi+151], 8
  01b46	74 13		 je	 SHORT $LN39@Convert

; 1539 : 		{
; 1540 : 			this->m_Special[this->m_SpecialNum] = 0x69;

  01b48	0f b6 c0	 movzx	 eax, al
  01b4b	b9 69 00 00 00	 mov	 ecx, 105		; 00000069H
  01b50	66 89 4c 46 32	 mov	 WORD PTR [esi+eax*2+50], cx

; 1541 : 			this->m_SpecialNum++;

  01b55	fe 46 30	 inc	 BYTE PTR [esi+48]
  01b58	8a 46 30	 mov	 al, BYTE PTR [esi+48]
$LN39@Convert:

; 1542 : 		}
; 1543 : 	}
; 1544 : 
; 1545 : 	if ( _type == ITEMGET(13,37) )

  01b5b	81 fa 25 1a 00
	00		 cmp	 edx, 6693		; 00001a25H
  01b61	75 61		 jne	 SHORT $LN33@Convert

; 1546 : 	{
; 1547 : 		if ( (this->m_NewOption &1) )

  01b63	8a 8e 97 00 00
	00		 mov	 cl, BYTE PTR [esi+151]
  01b69	f6 c1 01	 test	 cl, 1
  01b6c	74 18		 je	 SHORT $LN37@Convert

; 1548 : 		{
; 1549 : 			this->m_Special[this->m_SpecialNum] = 0x6A;

  01b6e	0f b6 c0	 movzx	 eax, al
  01b71	b9 6a 00 00 00	 mov	 ecx, 106		; 0000006aH
  01b76	66 89 4c 46 32	 mov	 WORD PTR [esi+eax*2+50], cx

; 1550 : 			this->m_SpecialNum++;

  01b7b	fe 46 30	 inc	 BYTE PTR [esi+48]
  01b7e	8a 46 30	 mov	 al, BYTE PTR [esi+48]
  01b81	e9 ce 00 00 00	 jmp	 $LN520@Convert
$LN37@Convert:

; 1551 : 		}
; 1552 : 		else if ( (this->m_NewOption &2) )

  01b86	f6 c1 02	 test	 cl, 2
  01b89	74 18		 je	 SHORT $LN35@Convert

; 1553 : 		{
; 1554 : 			this->m_Special[this->m_SpecialNum] = 0x6B;

  01b8b	0f b6 c0	 movzx	 eax, al
  01b8e	b9 6b 00 00 00	 mov	 ecx, 107		; 0000006bH
  01b93	66 89 4c 46 32	 mov	 WORD PTR [esi+eax*2+50], cx

; 1555 : 			this->m_SpecialNum++;

  01b98	fe 46 30	 inc	 BYTE PTR [esi+48]
  01b9b	8a 46 30	 mov	 al, BYTE PTR [esi+48]
  01b9e	e9 b1 00 00 00	 jmp	 $LN520@Convert
$LN35@Convert:

; 1556 : 		}
; 1557 : 		else if ( (this->m_NewOption &4) ) //Season 2.5 Golden Fenrir

  01ba3	f6 c1 04	 test	 cl, 4
  01ba6	0f 84 a8 00 00
	00		 je	 $LN520@Convert

; 1558 : 		{
; 1559 : 			this->m_Special[this->m_SpecialNum] = 0x70;

  01bac	0f b6 c0	 movzx	 eax, al
  01baf	b9 70 00 00 00	 mov	 ecx, 112		; 00000070H
  01bb4	66 89 4c 46 32	 mov	 WORD PTR [esi+eax*2+50], cx

; 1560 : 			this->m_SpecialNum++;

  01bb9	fe 46 30	 inc	 BYTE PTR [esi+48]
  01bbc	8a 46 30	 mov	 al, BYTE PTR [esi+48]

; 1561 : 		}
; 1562 : 	}
; 1563 : 
; 1564 : 	//Season 2.5 Third Wings
; 1565 : 	if ( _type >= ITEMGET(12,36) && _type <= ITEMGET(12,40) || _type == ITEMGET(12,43))

  01bbf	e9 90 00 00 00	 jmp	 $LN520@Convert
$LN33@Convert:
  01bc4	81 fa 24 18 00
	00		 cmp	 edx, 6180		; 00001824H
  01bca	7c 08		 jl	 SHORT $LN30@Convert
  01bcc	81 fa 28 18 00
	00		 cmp	 edx, 6184		; 00001828H
  01bd2	7e 08		 jle	 SHORT $LN31@Convert
$LN30@Convert:
  01bd4	81 fa 2b 18 00
	00		 cmp	 edx, 6187		; 0000182bH
  01bda	75 70		 jne	 SHORT $LN519@Convert
$LN31@Convert:

; 1566 : 	{
; 1567 : 		if ( (this->m_NewOption &1) )

  01bdc	f6 86 97 00 00
	00 01		 test	 BYTE PTR [esi+151], 1
  01be3	74 13		 je	 SHORT $LN29@Convert

; 1568 : 		{
; 1569 : 			this->m_Special[this->m_SpecialNum] = 0x6C;

  01be5	0f b6 c0	 movzx	 eax, al
  01be8	b9 6c 00 00 00	 mov	 ecx, 108		; 0000006cH
  01bed	66 89 4c 46 32	 mov	 WORD PTR [esi+eax*2+50], cx

; 1570 : 			this->m_SpecialNum++;

  01bf2	fe 46 30	 inc	 BYTE PTR [esi+48]
  01bf5	8a 46 30	 mov	 al, BYTE PTR [esi+48]
$LN29@Convert:

; 1571 : 		}
; 1572 : 		if ( (this->m_NewOption &2) )

  01bf8	f6 86 97 00 00
	00 02		 test	 BYTE PTR [esi+151], 2
  01bff	74 13		 je	 SHORT $LN518@Convert

; 1573 : 		{
; 1574 : 			this->m_Special[this->m_SpecialNum] = 0x6D;

  01c01	0f b6 c0	 movzx	 eax, al
  01c04	b9 6d 00 00 00	 mov	 ecx, 109		; 0000006dH
  01c09	66 89 4c 46 32	 mov	 WORD PTR [esi+eax*2+50], cx

; 1575 : 			this->m_SpecialNum++;

  01c0e	fe 46 30	 inc	 BYTE PTR [esi+48]
  01c11	8a 46 30	 mov	 al, BYTE PTR [esi+48]
$LN518@Convert:

; 1576 : 		}
; 1577 : 		if ( (this->m_NewOption &4) )

  01c14	f6 86 97 00 00
	00 04		 test	 BYTE PTR [esi+151], 4
  01c1b	74 13		 je	 SHORT $LN27@Convert

; 1578 : 		{
; 1579 : 			this->m_Special[this->m_SpecialNum] = 0x6E;

  01c1d	0f b6 c0	 movzx	 eax, al
  01c20	b9 6e 00 00 00	 mov	 ecx, 110		; 0000006eH
  01c25	66 89 4c 46 32	 mov	 WORD PTR [esi+eax*2+50], cx

; 1580 : 			this->m_SpecialNum++;

  01c2a	fe 46 30	 inc	 BYTE PTR [esi+48]
  01c2d	8a 46 30	 mov	 al, BYTE PTR [esi+48]
$LN27@Convert:

; 1581 : 		}
; 1582 : 		if ( (this->m_NewOption &8) )

  01c30	f6 86 97 00 00
	00 08		 test	 BYTE PTR [esi+151], 8
  01c37	74 13		 je	 SHORT $LN519@Convert

; 1583 : 		{
; 1584 : 			this->m_Special[this->m_SpecialNum] = 0x6F;

  01c39	0f b6 c0	 movzx	 eax, al
  01c3c	b9 6f 00 00 00	 mov	 ecx, 111		; 0000006fH
  01c41	66 89 4c 46 32	 mov	 WORD PTR [esi+eax*2+50], cx

; 1585 : 			this->m_SpecialNum++;

  01c46	fe 46 30	 inc	 BYTE PTR [esi+48]
  01c49	8a 46 30	 mov	 al, BYTE PTR [esi+48]
$LN519@Convert:

; 1586 : 		}
; 1587 : 	}
; 1588 : 
; 1589 : 	//Custom Wings4
; 1590 : #ifdef NEWWINGS_2_5
; 1591 : 	if ( IS_NEWWINGS_2_5(_type) )

  01c4c	81 fa ba 18 00
	00		 cmp	 edx, 6330		; 000018baH
  01c52	7c 7f		 jl	 SHORT $LN545@Convert
$LN520@Convert:
  01c54	33 c9		 xor	 ecx, ecx
  01c56	81 fa bc 18 00
	00		 cmp	 edx, 6332		; 000018bcH
  01c5c	0f 9e c1	 setle	 cl
  01c5f	85 c9		 test	 ecx, ecx
  01c61	74 70		 je	 SHORT $LN545@Convert

; 1592 : 	{
; 1593 : 		if ( (this->m_NewOption &1) )

  01c63	f6 86 97 00 00
	00 01		 test	 BYTE PTR [esi+151], 1
  01c6a	74 13		 je	 SHORT $LN24@Convert

; 1594 : 		{
; 1595 : 			this->m_Special[this->m_SpecialNum] = 0x6C;

  01c6c	0f b6 c0	 movzx	 eax, al
  01c6f	b9 6c 00 00 00	 mov	 ecx, 108		; 0000006cH
  01c74	66 89 4c 46 32	 mov	 WORD PTR [esi+eax*2+50], cx

; 1596 : 			this->m_SpecialNum++;

  01c79	fe 46 30	 inc	 BYTE PTR [esi+48]
  01c7c	8a 46 30	 mov	 al, BYTE PTR [esi+48]
$LN24@Convert:

; 1597 : 		}
; 1598 : 		if ( (this->m_NewOption &2) )

  01c7f	f6 86 97 00 00
	00 02		 test	 BYTE PTR [esi+151], 2
  01c86	74 13		 je	 SHORT $LN544@Convert

; 1599 : 		{
; 1600 : 			this->m_Special[this->m_SpecialNum] = 0x6D;

  01c88	0f b6 c0	 movzx	 eax, al
  01c8b	b9 6d 00 00 00	 mov	 ecx, 109		; 0000006dH
  01c90	66 89 4c 46 32	 mov	 WORD PTR [esi+eax*2+50], cx

; 1601 : 			this->m_SpecialNum++;

  01c95	fe 46 30	 inc	 BYTE PTR [esi+48]
  01c98	8a 46 30	 mov	 al, BYTE PTR [esi+48]
$LN544@Convert:

; 1602 : 		}
; 1603 : 		if ( (this->m_NewOption &4) )

  01c9b	f6 86 97 00 00
	00 04		 test	 BYTE PTR [esi+151], 4
  01ca2	74 13		 je	 SHORT $LN22@Convert

; 1604 : 		{
; 1605 : 			this->m_Special[this->m_SpecialNum] = 0x6E;

  01ca4	0f b6 c0	 movzx	 eax, al
  01ca7	b9 6e 00 00 00	 mov	 ecx, 110		; 0000006eH
  01cac	66 89 4c 46 32	 mov	 WORD PTR [esi+eax*2+50], cx

; 1606 : 			this->m_SpecialNum++;

  01cb1	fe 46 30	 inc	 BYTE PTR [esi+48]
  01cb4	8a 46 30	 mov	 al, BYTE PTR [esi+48]
$LN22@Convert:

; 1607 : 		}
; 1608 : 		if ( (this->m_NewOption &8) )

  01cb7	f6 86 97 00 00
	00 08		 test	 BYTE PTR [esi+151], 8
  01cbe	74 13		 je	 SHORT $LN545@Convert

; 1609 : 		{
; 1610 : 			this->m_Special[this->m_SpecialNum] = 0x6F;

  01cc0	0f b6 c0	 movzx	 eax, al
  01cc3	b9 6f 00 00 00	 mov	 ecx, 111		; 0000006fH
  01cc8	66 89 4c 46 32	 mov	 WORD PTR [esi+eax*2+50], cx

; 1611 : 			this->m_SpecialNum++;

  01ccd	fe 46 30	 inc	 BYTE PTR [esi+48]
  01cd0	8a 46 30	 mov	 al, BYTE PTR [esi+48]
$LN545@Convert:

; 1612 : 		}
; 1613 : 	}
; 1614 : #endif
; 1615 : 
; 1616 : #ifdef NEWWINGS_4
; 1617 : 	if ( IS_NEWWINGS_4(_type) )

  01cd3	81 fa b4 18 00
	00		 cmp	 edx, 6324		; 000018b4H
  01cd9	7c 7f		 jl	 SHORT $LN548@Convert
  01cdb	33 c9		 xor	 ecx, ecx
  01cdd	81 fa b9 18 00
	00		 cmp	 edx, 6329		; 000018b9H
  01ce3	0f 9e c1	 setle	 cl
  01ce6	85 c9		 test	 ecx, ecx
  01ce8	74 70		 je	 SHORT $LN548@Convert

; 1618 : 	{
; 1619 : 		if ( (this->m_NewOption &1) )

  01cea	f6 86 97 00 00
	00 01		 test	 BYTE PTR [esi+151], 1
  01cf1	74 13		 je	 SHORT $LN19@Convert

; 1620 : 		{
; 1621 : 			this->m_Special[this->m_SpecialNum] = 0x6C;

  01cf3	0f b6 c0	 movzx	 eax, al
  01cf6	b9 6c 00 00 00	 mov	 ecx, 108		; 0000006cH
  01cfb	66 89 4c 46 32	 mov	 WORD PTR [esi+eax*2+50], cx

; 1622 : 			this->m_SpecialNum++;

  01d00	fe 46 30	 inc	 BYTE PTR [esi+48]
  01d03	8a 46 30	 mov	 al, BYTE PTR [esi+48]
$LN19@Convert:

; 1623 : 		}
; 1624 : 		if ( (this->m_NewOption &2) )

  01d06	f6 86 97 00 00
	00 02		 test	 BYTE PTR [esi+151], 2
  01d0d	74 13		 je	 SHORT $LN547@Convert

; 1625 : 		{
; 1626 : 			this->m_Special[this->m_SpecialNum] = 0x6D;

  01d0f	0f b6 c0	 movzx	 eax, al
  01d12	b9 6d 00 00 00	 mov	 ecx, 109		; 0000006dH
  01d17	66 89 4c 46 32	 mov	 WORD PTR [esi+eax*2+50], cx

; 1627 : 			this->m_SpecialNum++;

  01d1c	fe 46 30	 inc	 BYTE PTR [esi+48]
  01d1f	8a 46 30	 mov	 al, BYTE PTR [esi+48]
$LN547@Convert:

; 1628 : 		}
; 1629 : 		if ( (this->m_NewOption &4) )

  01d22	f6 86 97 00 00
	00 04		 test	 BYTE PTR [esi+151], 4
  01d29	74 13		 je	 SHORT $LN17@Convert

; 1630 : 		{
; 1631 : 			this->m_Special[this->m_SpecialNum] = 0x6E;

  01d2b	0f b6 c0	 movzx	 eax, al
  01d2e	b9 6e 00 00 00	 mov	 ecx, 110		; 0000006eH
  01d33	66 89 4c 46 32	 mov	 WORD PTR [esi+eax*2+50], cx

; 1632 : 			this->m_SpecialNum++;

  01d38	fe 46 30	 inc	 BYTE PTR [esi+48]
  01d3b	8a 46 30	 mov	 al, BYTE PTR [esi+48]
$LN17@Convert:

; 1633 : 		}
; 1634 : 		if ( (this->m_NewOption &8) )

  01d3e	f6 86 97 00 00
	00 08		 test	 BYTE PTR [esi+151], 8
  01d45	74 13		 je	 SHORT $LN548@Convert

; 1635 : 		{
; 1636 : 			this->m_Special[this->m_SpecialNum] = 0x6F;

  01d47	0f b6 c0	 movzx	 eax, al
  01d4a	b9 6f 00 00 00	 mov	 ecx, 111		; 0000006fH
  01d4f	66 89 4c 46 32	 mov	 WORD PTR [esi+eax*2+50], cx

; 1637 : 			this->m_SpecialNum++;

  01d54	fe 46 30	 inc	 BYTE PTR [esi+48]
  01d57	8a 46 30	 mov	 al, BYTE PTR [esi+48]
$LN548@Convert:

; 1638 : 		}
; 1639 : 	}
; 1640 : #endif
; 1641 : 
; 1642 : #ifdef NEWWINGS_5
; 1643 : 	if ( IS_NEWWINGS_5(_type) )

  01d5a	81 fa bd 18 00
	00		 cmp	 edx, 6333		; 000018bdH
  01d60	7c 7f		 jl	 SHORT $LN550@Convert
  01d62	33 c9		 xor	 ecx, ecx
  01d64	81 fa c2 18 00
	00		 cmp	 edx, 6338		; 000018c2H
  01d6a	0f 9e c1	 setle	 cl
  01d6d	85 c9		 test	 ecx, ecx
  01d6f	74 70		 je	 SHORT $LN550@Convert

; 1644 : 	{
; 1645 : 		if ( (this->m_NewOption &1) )

  01d71	f6 86 97 00 00
	00 01		 test	 BYTE PTR [esi+151], 1
  01d78	74 13		 je	 SHORT $LN14@Convert

; 1646 : 		{
; 1647 : 			this->m_Special[this->m_SpecialNum] = 0x6C;

  01d7a	0f b6 c0	 movzx	 eax, al
  01d7d	b9 6c 00 00 00	 mov	 ecx, 108		; 0000006cH
  01d82	66 89 4c 46 32	 mov	 WORD PTR [esi+eax*2+50], cx

; 1648 : 			this->m_SpecialNum++;

  01d87	fe 46 30	 inc	 BYTE PTR [esi+48]
  01d8a	8a 46 30	 mov	 al, BYTE PTR [esi+48]
$LN14@Convert:

; 1649 : 		}
; 1650 : 		if ( (this->m_NewOption &2) )

  01d8d	f6 86 97 00 00
	00 02		 test	 BYTE PTR [esi+151], 2
  01d94	74 13		 je	 SHORT $LN549@Convert

; 1651 : 		{
; 1652 : 			this->m_Special[this->m_SpecialNum] = 0x6D;

  01d96	0f b6 c0	 movzx	 eax, al
  01d99	b9 6d 00 00 00	 mov	 ecx, 109		; 0000006dH
  01d9e	66 89 4c 46 32	 mov	 WORD PTR [esi+eax*2+50], cx

; 1653 : 			this->m_SpecialNum++;

  01da3	fe 46 30	 inc	 BYTE PTR [esi+48]
  01da6	8a 46 30	 mov	 al, BYTE PTR [esi+48]
$LN549@Convert:

; 1654 : 		}
; 1655 : 		if ( (this->m_NewOption &4) )

  01da9	f6 86 97 00 00
	00 04		 test	 BYTE PTR [esi+151], 4
  01db0	74 13		 je	 SHORT $LN12@Convert

; 1656 : 		{
; 1657 : 			this->m_Special[this->m_SpecialNum] = 0x6E;

  01db2	0f b6 c0	 movzx	 eax, al
  01db5	b9 6e 00 00 00	 mov	 ecx, 110		; 0000006eH
  01dba	66 89 4c 46 32	 mov	 WORD PTR [esi+eax*2+50], cx

; 1658 : 			this->m_SpecialNum++;

  01dbf	fe 46 30	 inc	 BYTE PTR [esi+48]
  01dc2	8a 46 30	 mov	 al, BYTE PTR [esi+48]
$LN12@Convert:

; 1659 : 		}
; 1660 : 		if ( (this->m_NewOption &8) )

  01dc5	f6 86 97 00 00
	00 08		 test	 BYTE PTR [esi+151], 8
  01dcc	74 13		 je	 SHORT $LN550@Convert

; 1661 : 		{
; 1662 : 			this->m_Special[this->m_SpecialNum] = 0x6F;

  01dce	0f b6 c0	 movzx	 eax, al
  01dd1	b9 6f 00 00 00	 mov	 ecx, 111		; 0000006fH
  01dd6	66 89 4c 46 32	 mov	 WORD PTR [esi+eax*2+50], cx

; 1663 : 			this->m_SpecialNum++;

  01ddb	fe 46 30	 inc	 BYTE PTR [esi+48]
  01dde	8a 46 30	 mov	 al, BYTE PTR [esi+48]
$LN550@Convert:

; 1664 : 		}
; 1665 : 	}
; 1666 : #endif
; 1667 : 
; 1668 : #ifdef NEWWINGS_6
; 1669 : 	if ( IS_NEWWINGS_6(_type) )

  01de1	81 fa c3 18 00
	00		 cmp	 edx, 6339		; 000018c3H
  01de7	7c 7f		 jl	 SHORT $LN6@Convert
  01de9	33 c9		 xor	 ecx, ecx
  01deb	81 fa dc 18 00
	00		 cmp	 edx, 6364		; 000018dcH
  01df1	0f 9e c1	 setle	 cl
  01df4	85 c9		 test	 ecx, ecx
  01df6	74 70		 je	 SHORT $LN6@Convert

; 1670 : 	{
; 1671 : 		if ( (this->m_NewOption &1) )

  01df8	f6 86 97 00 00
	00 01		 test	 BYTE PTR [esi+151], 1
  01dff	74 13		 je	 SHORT $LN9@Convert

; 1672 : 		{
; 1673 : 			this->m_Special[this->m_SpecialNum] = 0x6C;

  01e01	0f b6 d0	 movzx	 edx, al
  01e04	b8 6c 00 00 00	 mov	 eax, 108		; 0000006cH
  01e09	66 89 44 56 32	 mov	 WORD PTR [esi+edx*2+50], ax

; 1674 : 			this->m_SpecialNum++;

  01e0e	fe 46 30	 inc	 BYTE PTR [esi+48]
  01e11	8a 46 30	 mov	 al, BYTE PTR [esi+48]
$LN9@Convert:

; 1675 : 		}
; 1676 : 		if ( (this->m_NewOption &2) )

  01e14	f6 86 97 00 00
	00 02		 test	 BYTE PTR [esi+151], 2
  01e1b	74 13		 je	 SHORT $LN8@Convert

; 1677 : 		{
; 1678 : 			this->m_Special[this->m_SpecialNum] = 0x6D;

  01e1d	0f b6 c8	 movzx	 ecx, al
  01e20	ba 6d 00 00 00	 mov	 edx, 109		; 0000006dH
  01e25	66 89 54 4e 32	 mov	 WORD PTR [esi+ecx*2+50], dx

; 1679 : 			this->m_SpecialNum++;

  01e2a	fe 46 30	 inc	 BYTE PTR [esi+48]
  01e2d	8a 46 30	 mov	 al, BYTE PTR [esi+48]
$LN8@Convert:

; 1680 : 		}
; 1681 : 		if ( (this->m_NewOption &4) )

  01e30	f6 86 97 00 00
	00 04		 test	 BYTE PTR [esi+151], 4
  01e37	74 13		 je	 SHORT $LN7@Convert

; 1682 : 		{
; 1683 : 			this->m_Special[this->m_SpecialNum] = 0x6E;

  01e39	0f b6 c0	 movzx	 eax, al
  01e3c	b9 6e 00 00 00	 mov	 ecx, 110		; 0000006eH
  01e41	66 89 4c 46 32	 mov	 WORD PTR [esi+eax*2+50], cx

; 1684 : 			this->m_SpecialNum++;

  01e46	fe 46 30	 inc	 BYTE PTR [esi+48]
  01e49	8a 46 30	 mov	 al, BYTE PTR [esi+48]
$LN7@Convert:

; 1685 : 		}
; 1686 : 		if ( (this->m_NewOption &8) )

  01e4c	f6 86 97 00 00
	00 08		 test	 BYTE PTR [esi+151], 8
  01e53	74 13		 je	 SHORT $LN6@Convert

; 1687 : 		{
; 1688 : 			this->m_Special[this->m_SpecialNum] = 0x6F;

  01e55	0f b6 d0	 movzx	 edx, al
  01e58	b8 6f 00 00 00	 mov	 eax, 111		; 0000006fH
  01e5d	66 89 44 56 32	 mov	 WORD PTR [esi+edx*2+50], ax

; 1689 : 			this->m_SpecialNum++;

  01e62	fe 46 30	 inc	 BYTE PTR [esi+48]
  01e65	8a 46 30	 mov	 al, BYTE PTR [esi+48]
$LN6@Convert:

; 1690 : 		}
; 1691 : 	}
; 1692 : #endif
; 1693 : 	if ( SOptionStatValue != 0 )

  01e68	8b 4d f8	 mov	 ecx, DWORD PTR _SOptionStatValue$[ebp]
  01e6b	85 c9		 test	 ecx, ecx
  01e6d	74 31		 je	 SHORT $LN541@Convert

; 1694 : 	{
; 1695 : 		if (p->SetAttr != 0 )

  01e6f	8b 55 fc	 mov	 edx, DWORD PTR tv4267[ebp]
  01e72	8a 92 61 00 00
	00		 mov	 dl, BYTE PTR ?ItemAttribute@@3PAUITEM_ATTRIBUTE@@A[edx+97]
  01e78	84 d2		 test	 dl, dl
  01e7a	74 24		 je	 SHORT $LN541@Convert

; 1696 : 		{
; 1697 : 			this->m_Special[this->m_SpecialNum] = p->SetAttr + 0xC3;

  01e7c	0f b6 d2	 movzx	 edx, dl
  01e7f	bf c3 00 00 00	 mov	 edi, 195		; 000000c3H
  01e84	66 03 d7	 add	 dx, di
  01e87	0f b6 c0	 movzx	 eax, al
  01e8a	66 89 54 46 32	 mov	 WORD PTR [esi+eax*2+50], dx

; 1698 : 			this->m_SetAddStat = SOptionStatValue * 5;

  01e8f	8a d1		 mov	 dl, cl
  01e91	02 d2		 add	 dl, dl
  01e93	02 d2		 add	 dl, dl
  01e95	02 ca		 add	 cl, dl

; 1699 : 			this->m_SpecialNum++;

  01e97	fe 46 30	 inc	 BYTE PTR [esi+48]
  01e9a	88 8e af 00 00
	00		 mov	 BYTE PTR [esi+175], cl
$LN541@Convert:

; 1700 : 		}
; 1701 : 	}
; 1702 : 
; 1703 : 	this->m_Part = p->ItemSlot;

  01ea0	8b 45 fc	 mov	 eax, DWORD PTR tv4267[ebp]
  01ea3	8a 88 64 00 00
	00		 mov	 cl, BYTE PTR ?ItemAttribute@@3PAUITEM_ATTRIBUTE@@A[eax+100]
  01ea9	88 4e 0a	 mov	 BYTE PTR [esi+10], cl

; 1704 : 	this->Value();

  01eac	8b ce		 mov	 ecx, esi
  01eae	e8 00 00 00 00	 call	 ?Value@CItem@@QAEXXZ	; CItem::Value

; 1705 : 
; 1706 : 	if ( this->m_Type != ITEMGET(4,7) && this->m_Type != ITEMGET(4,15) ) // arrow and bolts

  01eb3	0f b7 46 06	 movzx	 eax, WORD PTR [esi+6]
  01eb7	ba 07 08 00 00	 mov	 edx, 2055		; 00000807H
  01ebc	66 3b c2	 cmp	 ax, dx
  01ebf	0f 84 f8 00 00
	00		 je	 $LN2@Convert
  01ec5	b9 0f 08 00 00	 mov	 ecx, 2063		; 0000080fH
  01eca	66 3b c1	 cmp	 ax, cx
  01ecd	0f 84 ea 00 00
	00		 je	 $LN2@Convert

; 1707 : 	{
; 1708 : 		this->m_DamageMinOrigin = this->m_DamageMin;

  01ed3	66 8b 56 10	 mov	 dx, WORD PTR [esi+16]

; 1709 : 		this->m_DefenseOrigin = this->m_Defense;

  01ed7	0f b7 46 16	 movzx	 eax, WORD PTR [esi+22]
  01edb	66 89 46 1e	 mov	 WORD PTR [esi+30], ax

; 1710 : 		this->m_DamageMin -= (int)(this->m_DamageMin * this->m_CurrentDurabilityState);

  01edf	0f b7 ca	 movzx	 ecx, dx
  01ee2	89 4d 18	 mov	 DWORD PTR tv3955[ebp], ecx
  01ee5	66 89 56 1c	 mov	 WORD PTR [esi+28], dx
  01ee9	db 45 18	 fild	 DWORD PTR tv3955[ebp]
  01eec	d9 7d 1a	 fnstcw	 WORD PTR tv3954[ebp]
  01eef	0f b7 45 1a	 movzx	 eax, WORD PTR tv3954[ebp]
  01ef3	d8 8e a8 00 00
	00		 fmul	 DWORD PTR [esi+168]
  01ef9	0d 00 0c 00 00	 or	 eax, 3072		; 00000c00H
  01efe	89 45 1c	 mov	 DWORD PTR tv3951[ebp], eax
  01f01	d9 6d 1c	 fldcw	 WORD PTR tv3951[ebp]
  01f04	db 5d 1c	 fistp	 DWORD PTR tv3949[ebp]
  01f07	0f b7 45 1c	 movzx	 eax, WORD PTR tv3949[ebp]
  01f0b	66 2b c8	 sub	 cx, ax
  01f0e	66 89 4e 10	 mov	 WORD PTR [esi+16], cx
  01f12	d9 6d 1a	 fldcw	 WORD PTR tv3954[ebp]

; 1711 : 		this->m_DamageMax -= (int)(this->m_DamageMax * this->m_CurrentDurabilityState);

  01f15	0f b7 4e 12	 movzx	 ecx, WORD PTR [esi+18]
  01f19	89 4d 18	 mov	 DWORD PTR tv3946[ebp], ecx
  01f1c	db 45 18	 fild	 DWORD PTR tv3946[ebp]
  01f1f	d9 7d 1a	 fnstcw	 WORD PTR tv3945[ebp]
  01f22	d8 8e a8 00 00
	00		 fmul	 DWORD PTR [esi+168]
  01f28	0f b7 45 1a	 movzx	 eax, WORD PTR tv3945[ebp]
  01f2c	0d 00 0c 00 00	 or	 eax, 3072		; 00000c00H
  01f31	89 45 1c	 mov	 DWORD PTR tv3942[ebp], eax
  01f34	d9 6d 1c	 fldcw	 WORD PTR tv3942[ebp]
  01f37	db 5d 1c	 fistp	 DWORD PTR tv3940[ebp]
  01f3a	0f b7 45 1c	 movzx	 eax, WORD PTR tv3940[ebp]
  01f3e	66 2b c8	 sub	 cx, ax
  01f41	66 89 4e 12	 mov	 WORD PTR [esi+18], cx
  01f45	d9 6d 1a	 fldcw	 WORD PTR tv3945[ebp]

; 1712 : 		this->m_Defense -= (int)(this->m_Defense * this->m_CurrentDurabilityState);

  01f48	0f b7 4e 16	 movzx	 ecx, WORD PTR [esi+22]
  01f4c	89 4d 18	 mov	 DWORD PTR tv3937[ebp], ecx
  01f4f	db 45 18	 fild	 DWORD PTR tv3937[ebp]
  01f52	d9 7d 1a	 fnstcw	 WORD PTR tv3936[ebp]
  01f55	d8 8e a8 00 00
	00		 fmul	 DWORD PTR [esi+168]
  01f5b	0f b7 45 1a	 movzx	 eax, WORD PTR tv3936[ebp]
  01f5f	0d 00 0c 00 00	 or	 eax, 3072		; 00000c00H
  01f64	89 45 1c	 mov	 DWORD PTR tv3933[ebp], eax
  01f67	d9 6d 1c	 fldcw	 WORD PTR tv3933[ebp]
  01f6a	db 5d 1c	 fistp	 DWORD PTR tv3931[ebp]
  01f6d	0f b7 45 1c	 movzx	 eax, WORD PTR tv3931[ebp]
  01f71	66 2b c8	 sub	 cx, ax
  01f74	66 89 4e 16	 mov	 WORD PTR [esi+22], cx
  01f78	d9 6d 1a	 fldcw	 WORD PTR tv3936[ebp]

; 1713 : 		this->m_SuccessfulBlocking -= (int)(this->m_SuccessfulBlocking * this->m_CurrentDurabilityState);

  01f7b	8a 4e 14	 mov	 cl, BYTE PTR [esi+20]
  01f7e	0f b6 d1	 movzx	 edx, cl
  01f81	89 55 18	 mov	 DWORD PTR tv3928[ebp], edx
  01f84	db 45 18	 fild	 DWORD PTR tv3928[ebp]
  01f87	d9 7d 1a	 fnstcw	 WORD PTR tv3927[ebp]
  01f8a	d8 8e a8 00 00
	00		 fmul	 DWORD PTR [esi+168]
  01f90	0f b7 45 1a	 movzx	 eax, WORD PTR tv3927[ebp]
  01f94	0d 00 0c 00 00	 or	 eax, 3072		; 00000c00H
  01f99	89 45 1c	 mov	 DWORD PTR tv3924[ebp], eax
  01f9c	d9 6d 1c	 fldcw	 WORD PTR tv3924[ebp]
  01f9f	db 5d 1c	 fistp	 DWORD PTR tv3922[ebp]
  01fa2	8a 45 1c	 mov	 al, BYTE PTR tv3922[ebp]
  01fa5	2a c8		 sub	 cl, al
  01fa7	88 4e 14	 mov	 BYTE PTR [esi+20], cl
  01faa	d9 6d 1a	 fldcw	 WORD PTR tv3927[ebp]

; 1714 : 
; 1715 : 		if ( this->m_Durability < 1.0f )

  01fad	d9 e8		 fld1
  01faf	d8 5e 24	 fcomp	 DWORD PTR [esi+36]
  01fb2	df e0		 fnstsw	 ax
  01fb4	f6 c4 41	 test	 ah, 65			; 00000041H
  01fb7	75 04		 jne	 SHORT $LN2@Convert

; 1716 : 		{
; 1717 : 			this->m_AttackSpeed = 0;

  01fb9	c6 46 0d 00	 mov	 BYTE PTR [esi+13], 0
$LN2@Convert:

; 1718 : 		}
; 1719 : 	}
; 1720 : 	
; 1721 : 	if ( this->m_Durability == 0.0f )

  01fbd	d9 46 24	 fld	 DWORD PTR [esi+36]
  01fc0	d9 ee		 fldz
  01fc2	da e9		 fucompp
  01fc4	df e0		 fnstsw	 ax
  01fc6	f6 c4 44	 test	 ah, 68			; 00000044H
  01fc9	7a 0c		 jp	 SHORT $LN1@Convert

; 1722 : 	{
; 1723 : 		memset(this->m_Resistance , 0, sizeof(this->m_Resistance));

  01fcb	33 c0		 xor	 eax, eax
  01fcd	89 46 5f	 mov	 DWORD PTR [esi+95], eax
  01fd0	66 89 46 63	 mov	 WORD PTR [esi+99], ax
  01fd4	88 46 65	 mov	 BYTE PTR [esi+101], al
$LN1@Convert:
  01fd7	5f		 pop	 edi
  01fd8	5e		 pop	 esi
  01fd9	5b		 pop	 ebx

; 1724 : 	}
; 1725 : }

  01fda	8b e5		 mov	 esp, ebp
  01fdc	5d		 pop	 ebp
  01fdd	c2 2c 00	 ret	 44			; 0000002cH
?Convert@CItem@@QAEXHEEEEEEPAEEEE@Z ENDP		; CItem::Convert
_TEXT	ENDS
PUBLIC	?SetPetItemInfo@CItem@@QAEXHH@Z			; CItem::SetPetItemInfo
; Function compile flags: /Ogtp
;	COMDAT ?SetPetItemInfo@CItem@@QAEXHH@Z
_TEXT	SEGMENT
_petlevel$ = 8						; size = 4
_petexp$ = 12						; size = 4
?SetPetItemInfo@CItem@@QAEXHH@Z PROC			; CItem::SetPetItemInfo, COMDAT
; _this$ = ecx

; 3055 : {

  00000	55		 push	 ebp
  00001	8b ec		 mov	 ebp, esp
  00003	56		 push	 esi
  00004	8b f1		 mov	 esi, ecx

; 3056 : 	if ( this->m_Type == ITEMGET(13,4) )

  00006	0f b7 46 06	 movzx	 eax, WORD PTR [esi+6]
  0000a	b9 04 1a 00 00	 mov	 ecx, 6660		; 00001a04H
  0000f	66 3b c1	 cmp	 ax, cx
  00012	75 6e		 jne	 SHORT $LN7@SetPetItem

; 3057 : 	{
; 3058 : 		this->m_PetItem_Level = petlevel;

  00014	8b 45 08	 mov	 eax, DWORD PTR _petlevel$[ebp]

; 3059 : 		this->m_PetItem_Exp = petexp;

  00017	8b 4d 0c	 mov	 ecx, DWORD PTR _petexp$[ebp]
  0001a	89 86 bc 00 00
	00		 mov	 DWORD PTR [esi+188], eax
  00020	89 8e c0 00 00
	00		 mov	 DWORD PTR [esi+192], ecx

; 3060 : 
; 3061 : 		if ( this->m_PetItem_Exp < gPetItemExp.m_DarkHorseExpTable[this->m_PetItem_Level] || this->m_PetItem_Exp >= gPetItemExp.m_DarkHorseExpTable[1+this->m_PetItem_Level] )

  00026	8b 14 85 d0 00
	00 00		 mov	 edx, DWORD PTR ?gPetItemExp@@3VCPetItemExp@@A[eax*4+208]
  0002d	3b ca		 cmp	 ecx, edx
  0002f	7c 09		 jl	 SHORT $LN5@SetPetItem
  00031	3b 0c 85 d4 00
	00 00		 cmp	 ecx, DWORD PTR ?gPetItemExp@@3VCPetItemExp@@A[eax*4+212]
  00038	7c 06		 jl	 SHORT $LN6@SetPetItem
$LN5@SetPetItem:

; 3062 : 		{
; 3063 : 			this->m_PetItem_Exp = gPetItemExp.m_DarkHorseExpTable[this->m_PetItem_Level];

  0003a	89 96 c0 00 00
	00		 mov	 DWORD PTR [esi+192], edx
$LN6@SetPetItem:

; 3064 : 		}
; 3065 : 
; 3066 : 		this->Convert(this->m_Type, this->m_Option1, this->m_Option2,
; 3067 : 			this->m_Option3, this->m_NewOption, this->m_SetOption, this->m_ItemOptionEx, NULL, 0xFF, 0, CURRENT_DB_VERSION);

  00040	0f b6 96 ca 00
	00 00		 movzx	 edx, BYTE PTR [esi+202]
  00047	0f b6 86 ae 00
	00 00		 movzx	 eax, BYTE PTR [esi+174]
  0004e	0f b6 8e 97 00
	00 00		 movzx	 ecx, BYTE PTR [esi+151]
  00055	6a 03		 push	 3
  00057	6a 00		 push	 0
  00059	68 ff 00 00 00	 push	 255			; 000000ffH
  0005e	6a 00		 push	 0
  00060	52		 push	 edx
  00061	0f b6 96 96 00
	00 00		 movzx	 edx, BYTE PTR [esi+150]
  00068	50		 push	 eax
  00069	0f b6 86 95 00
	00 00		 movzx	 eax, BYTE PTR [esi+149]
  00070	51		 push	 ecx
  00071	0f b6 8e 94 00
	00 00		 movzx	 ecx, BYTE PTR [esi+148]
  00078	52		 push	 edx
  00079	50		 push	 eax
  0007a	51		 push	 ecx
  0007b	68 04 1a 00 00	 push	 6660			; 00001a04H

; 3068 : 		this->PetValue();
; 3069 : 		this->m_IsLoadPetItemInfo = 1;

  00080	eb 7a		 jmp	 SHORT $LN10@SetPetItem
$LN7@SetPetItem:

; 3070 : 	}
; 3071 : 	else if ( this->m_Type == ITEMGET(13,5) )

  00082	ba 05 1a 00 00	 mov	 edx, 6661		; 00001a05H
  00087	66 3b c2	 cmp	 ax, dx
  0008a	0f 85 84 00 00
	00		 jne	 $LN3@SetPetItem

; 3072 : 	{
; 3073 : 		this->m_PetItem_Level = petlevel;

  00090	8b 45 08	 mov	 eax, DWORD PTR _petlevel$[ebp]

; 3074 : 		this->m_PetItem_Exp = petexp;

  00093	8b 4d 0c	 mov	 ecx, DWORD PTR _petexp$[ebp]
  00096	89 86 bc 00 00
	00		 mov	 DWORD PTR [esi+188], eax
  0009c	89 8e c0 00 00
	00		 mov	 DWORD PTR [esi+192], ecx

; 3075 : 
; 3076 : 		if ( this->m_PetItem_Exp < gPetItemExp.m_DarkSpiritExpTable[this->m_PetItem_Level] || this->m_PetItem_Exp >= gPetItemExp.m_DarkSpiritExpTable[1+this->m_PetItem_Level] )

  000a2	8b 14 85 00 00
	00 00		 mov	 edx, DWORD PTR ?gPetItemExp@@3VCPetItemExp@@A[eax*4]
  000a9	3b ca		 cmp	 ecx, edx
  000ab	7c 09		 jl	 SHORT $LN1@SetPetItem
  000ad	3b 0c 85 04 00
	00 00		 cmp	 ecx, DWORD PTR ?gPetItemExp@@3VCPetItemExp@@A[eax*4+4]
  000b4	7c 06		 jl	 SHORT $LN2@SetPetItem
$LN1@SetPetItem:

; 3077 : 		{
; 3078 : 			this->m_PetItem_Exp = gPetItemExp.m_DarkSpiritExpTable[this->m_PetItem_Level];

  000b6	89 96 c0 00 00
	00		 mov	 DWORD PTR [esi+192], edx
$LN2@SetPetItem:

; 3079 : 		}
; 3080 : 
; 3081 : 		this->Convert(this->m_Type, this->m_Option1, this->m_Option2,
; 3082 : 			this->m_Option3, this->m_NewOption, this->m_SetOption, this->m_ItemOptionEx, NULL, 0xFF, 0, CURRENT_DB_VERSION);

  000bc	0f b6 86 ca 00
	00 00		 movzx	 eax, BYTE PTR [esi+202]
  000c3	0f b6 8e ae 00
	00 00		 movzx	 ecx, BYTE PTR [esi+174]
  000ca	0f b6 96 97 00
	00 00		 movzx	 edx, BYTE PTR [esi+151]
  000d1	6a 03		 push	 3
  000d3	6a 00		 push	 0
  000d5	68 ff 00 00 00	 push	 255			; 000000ffH
  000da	6a 00		 push	 0
  000dc	50		 push	 eax
  000dd	0f b6 86 96 00
	00 00		 movzx	 eax, BYTE PTR [esi+150]
  000e4	51		 push	 ecx
  000e5	0f b6 8e 95 00
	00 00		 movzx	 ecx, BYTE PTR [esi+149]
  000ec	52		 push	 edx
  000ed	0f b6 96 94 00
	00 00		 movzx	 edx, BYTE PTR [esi+148]
  000f4	50		 push	 eax
  000f5	51		 push	 ecx
  000f6	52		 push	 edx
  000f7	68 05 1a 00 00	 push	 6661			; 00001a05H
$LN10@SetPetItem:
  000fc	8b ce		 mov	 ecx, esi
  000fe	e8 00 00 00 00	 call	 ?Convert@CItem@@QAEXHEEEEEEPAEEEE@Z ; CItem::Convert

; 3083 : 
; 3084 : 		this->PetValue();

  00103	8b ce		 mov	 ecx, esi
  00105	e8 00 00 00 00	 call	 ?PetValue@CItem@@QAEXXZ	; CItem::PetValue

; 3085 : 		this->m_IsLoadPetItemInfo = 1;

  0010a	c7 86 b8 00 00
	00 01 00 00 00	 mov	 DWORD PTR [esi+184], 1
$LN3@SetPetItem:
  00114	5e		 pop	 esi

; 3086 : 	}
; 3087 : }

  00115	5d		 pop	 ebp
  00116	c2 08 00	 ret	 8
?SetPetItemInfo@CItem@@QAEXHH@Z ENDP			; CItem::SetPetItemInfo
_TEXT	ENDS
PUBLIC	?AddPetItemExp@CItem@@QAEHH@Z			; CItem::AddPetItemExp
; Function compile flags: /Ogtp
;	COMDAT ?AddPetItemExp@CItem@@QAEHH@Z
_TEXT	SEGMENT
_petexp$ = 8						; size = 4
?AddPetItemExp@CItem@@QAEHH@Z PROC			; CItem::AddPetItemExp, COMDAT
; _this$ = ecx

; 3090 : {

  00000	55		 push	 ebp
  00001	8b ec		 mov	 ebp, esp

; 3091 : 	if ( this->m_Durability <= 0.0f )

  00003	d9 ee		 fldz
  00005	56		 push	 esi
  00006	8b f1		 mov	 esi, ecx
  00008	d8 5e 24	 fcomp	 DWORD PTR [esi+36]
  0000b	df e0		 fnstsw	 ax
  0000d	f6 c4 01	 test	 ah, 1

; 3092 : 	{
; 3093 : 		return FALSE;

  00010	74 76		 je	 SHORT $LN1@AddPetItem

; 3094 : 	}
; 3095 : 
; 3096 : 	if ( this->m_IsLoadPetItemInfo == 0 )

  00012	83 be b8 00 00
	00 00		 cmp	 DWORD PTR [esi+184], 0

; 3097 : 	{
; 3098 : 		return FALSE;

  00019	74 6d		 je	 SHORT $LN1@AddPetItem

; 3099 : 	}
; 3100 : 
; 3101 : 	if ( this->m_PetItem_Level < 1 )

  0001b	8b 86 bc 00 00
	00		 mov	 eax, DWORD PTR [esi+188]
  00021	83 f8 01	 cmp	 eax, 1
  00024	7d 69		 jge	 SHORT $LN12@AddPetItem

; 3102 : 	{
; 3103 : 		this->m_PetItem_Level = 1;
; 3104 : 		this->m_PetItem_Exp = 0;
; 3105 : 		this->Convert(this->m_Type, this->m_Option1, this->m_Option2,
; 3106 : 			this->m_Option3, this->m_NewOption, this->m_SetOption, this->m_ItemOptionEx, NULL, 0xFF, 0, CURRENT_DB_VERSION);

  00026	0f b6 86 ca 00
	00 00		 movzx	 eax, BYTE PTR [esi+202]
  0002d	0f b6 8e ae 00
	00 00		 movzx	 ecx, BYTE PTR [esi+174]
  00034	0f b6 96 97 00
	00 00		 movzx	 edx, BYTE PTR [esi+151]
  0003b	6a 03		 push	 3
  0003d	6a 00		 push	 0
  0003f	68 ff 00 00 00	 push	 255			; 000000ffH
  00044	6a 00		 push	 0
  00046	50		 push	 eax
  00047	0f b6 86 96 00
	00 00		 movzx	 eax, BYTE PTR [esi+150]
  0004e	51		 push	 ecx
  0004f	0f b6 8e 95 00
	00 00		 movzx	 ecx, BYTE PTR [esi+149]
  00056	52		 push	 edx
  00057	0f b6 96 94 00
	00 00		 movzx	 edx, BYTE PTR [esi+148]
  0005e	50		 push	 eax
  0005f	0f bf 46 06	 movsx	 eax, WORD PTR [esi+6]
  00063	51		 push	 ecx
  00064	52		 push	 edx
  00065	50		 push	 eax
  00066	8b ce		 mov	 ecx, esi
  00068	c7 86 bc 00 00
	00 01 00 00 00	 mov	 DWORD PTR [esi+188], 1
  00072	c7 86 c0 00 00
	00 00 00 00 00	 mov	 DWORD PTR [esi+192], 0
  0007c	e8 00 00 00 00	 call	 ?Convert@CItem@@QAEXHEEEEEEPAEEEE@Z ; CItem::Convert

; 3107 : 		this->PetValue();

  00081	8b ce		 mov	 ecx, esi
  00083	e8 00 00 00 00	 call	 ?PetValue@CItem@@QAEXXZ	; CItem::PetValue
$LN1@AddPetItem:

; 3164 : 		}
; 3165 : 	}
; 3166 : 
; 3167 : 	return FALSE;

  00088	33 c0		 xor	 eax, eax
  0008a	5e		 pop	 esi

; 3168 : }

  0008b	5d		 pop	 ebp
  0008c	c2 04 00	 ret	 4
$LN12@AddPetItem:

; 3108 : 
; 3109 : 		return FALSE;
; 3110 : 	}
; 3111 : 
; 3112 : 	if ( this->m_Type == ITEMGET(13,4) )

  0008f	0f b7 4e 06	 movzx	 ecx, WORD PTR [esi+6]
  00093	ba 04 1a 00 00	 mov	 edx, 6660		; 00001a04H
  00098	66 3b ca	 cmp	 cx, dx
  0009b	0f 85 8d 00 00
	00		 jne	 $LN11@AddPetItem

; 3113 : 	{
; 3114 : 		if ( this->m_PetItem_Level >= MAX_PET_LEVEL )

  000a1	83 f8 32	 cmp	 eax, 50			; 00000032H

; 3115 : 		{
; 3116 : 			return FALSE;

  000a4	7d e2		 jge	 SHORT $LN1@AddPetItem

; 3117 : 		}
; 3118 : 
; 3119 : 		BOOL ret = FALSE;
; 3120 : 		int maxexp = gPetItemExp.m_DarkHorseExpTable[1+this->m_PetItem_Level];

  000a6	8b 0c 85 d4 00
	00 00		 mov	 ecx, DWORD PTR ?gPetItemExp@@3VCPetItemExp@@A[eax*4+212]

; 3121 : 		this->m_PetItem_Exp += petexp;

  000ad	8b 55 08	 mov	 edx, DWORD PTR _petexp$[ebp]
  000b0	01 96 c0 00 00
	00		 add	 DWORD PTR [esi+192], edx

; 3122 : 
; 3123 : 		while ( this->m_PetItem_Exp >= maxexp )

  000b6	39 8e c0 00 00
	00		 cmp	 DWORD PTR [esi+192], ecx
  000bc	7c ca		 jl	 SHORT $LN1@AddPetItem
  000be	8b ff		 npad	 2
$LL9@AddPetItem:

; 3124 : 		{
; 3125 : 			this->m_PetItem_Level++;

  000c0	40		 inc	 eax
  000c1	89 86 bc 00 00
	00		 mov	 DWORD PTR [esi+188], eax
  000c7	8b 8e c0 00 00
	00		 mov	 ecx, DWORD PTR [esi+192]
  000cd	3b 0c 85 d4 00
	00 00		 cmp	 ecx, DWORD PTR ?gPetItemExp@@3VCPetItemExp@@A[eax*4+212]
  000d4	7d ea		 jge	 SHORT $LL9@AddPetItem

; 3126 : 			maxexp = gPetItemExp.m_DarkHorseExpTable[1+this->m_PetItem_Level];
; 3127 : 			ret = TRUE;
; 3128 : 		}
; 3129 : 
; 3130 : 		if ( ret != FALSE )
; 3131 : 		{
; 3132 : 		this->Convert(this->m_Type, this->m_Option1, this->m_Option2,
; 3133 : 			this->m_Option3, this->m_NewOption, this->m_SetOption, this->m_ItemOptionEx, NULL, 0xFF, 0, CURRENT_DB_VERSION);

  000d6	0f b6 96 ca 00
	00 00		 movzx	 edx, BYTE PTR [esi+202]
  000dd	0f b6 86 ae 00
	00 00		 movzx	 eax, BYTE PTR [esi+174]
  000e4	0f b6 8e 97 00
	00 00		 movzx	 ecx, BYTE PTR [esi+151]
  000eb	6a 03		 push	 3
  000ed	6a 00		 push	 0
  000ef	68 ff 00 00 00	 push	 255			; 000000ffH
  000f4	6a 00		 push	 0
  000f6	52		 push	 edx
  000f7	0f b6 96 96 00
	00 00		 movzx	 edx, BYTE PTR [esi+150]
  000fe	50		 push	 eax
  000ff	0f b6 86 95 00
	00 00		 movzx	 eax, BYTE PTR [esi+149]
  00106	51		 push	 ecx
  00107	0f b6 8e 94 00
	00 00		 movzx	 ecx, BYTE PTR [esi+148]
  0010e	52		 push	 edx
  0010f	50		 push	 eax
  00110	51		 push	 ecx
  00111	68 04 1a 00 00	 push	 6660			; 00001a04H
$LN23@AddPetItem:
  00116	8b ce		 mov	 ecx, esi
  00118	e8 00 00 00 00	 call	 ?Convert@CItem@@QAEXHEEEEEEPAEEEE@Z ; CItem::Convert

; 3134 : 		this->PetValue();

  0011d	8b ce		 mov	 ecx, esi
  0011f	e8 00 00 00 00	 call	 ?PetValue@CItem@@QAEXXZ	; CItem::PetValue

; 3135 : 
; 3136 : 		return TRUE;

  00124	b8 01 00 00 00	 mov	 eax, 1
  00129	5e		 pop	 esi

; 3168 : }

  0012a	5d		 pop	 ebp
  0012b	c2 04 00	 ret	 4
$LN11@AddPetItem:

; 3137 : 		}
; 3138 : 	}
; 3139 : 	else if ( this->m_Type == ITEMGET(13,5) )

  0012e	ba 05 1a 00 00	 mov	 edx, 6661		; 00001a05H
  00133	66 3b ca	 cmp	 cx, dx
  00136	0f 85 4c ff ff
	ff		 jne	 $LN1@AddPetItem

; 3140 : 	{
; 3141 : 		if ( this->m_PetItem_Level >= MAX_PET_LEVEL )

  0013c	83 f8 32	 cmp	 eax, 50			; 00000032H

; 3142 : 		{
; 3143 : 			return FALSE;

  0013f	0f 8d 43 ff ff
	ff		 jge	 $LN1@AddPetItem

; 3144 : 		}
; 3145 : 
; 3146 : 		BOOL ret = FALSE;
; 3147 : 		int maxexp = gPetItemExp.m_DarkSpiritExpTable[1+this->m_PetItem_Level];

  00145	8b 0c 85 04 00
	00 00		 mov	 ecx, DWORD PTR ?gPetItemExp@@3VCPetItemExp@@A[eax*4+4]

; 3148 : 		this->m_PetItem_Exp += petexp;

  0014c	8b 55 08	 mov	 edx, DWORD PTR _petexp$[ebp]
  0014f	01 96 c0 00 00
	00		 add	 DWORD PTR [esi+192], edx

; 3149 : 
; 3150 : 		while ( this->m_PetItem_Exp >= maxexp )

  00155	39 8e c0 00 00
	00		 cmp	 DWORD PTR [esi+192], ecx
  0015b	0f 8c 27 ff ff
	ff		 jl	 $LN1@AddPetItem
$LL3@AddPetItem:

; 3151 : 		{
; 3152 : 			this->m_PetItem_Level++;

  00161	40		 inc	 eax
  00162	89 86 bc 00 00
	00		 mov	 DWORD PTR [esi+188], eax
  00168	8b 8e c0 00 00
	00		 mov	 ecx, DWORD PTR [esi+192]
  0016e	3b 0c 85 04 00
	00 00		 cmp	 ecx, DWORD PTR ?gPetItemExp@@3VCPetItemExp@@A[eax*4+4]
  00175	7d ea		 jge	 SHORT $LL3@AddPetItem

; 3153 : 			maxexp = gPetItemExp.m_DarkSpiritExpTable[1+this->m_PetItem_Level];
; 3154 : 			ret = TRUE;
; 3155 : 		}
; 3156 : 
; 3157 : 		if ( ret != FALSE )
; 3158 : 		{
; 3159 : 		this->Convert(this->m_Type, this->m_Option1, this->m_Option2,
; 3160 : 			this->m_Option3, this->m_NewOption, this->m_SetOption, this->m_ItemOptionEx, NULL, 0xFF, 0, CURRENT_DB_VERSION);

  00177	0f b6 96 ca 00
	00 00		 movzx	 edx, BYTE PTR [esi+202]
  0017e	0f b6 86 ae 00
	00 00		 movzx	 eax, BYTE PTR [esi+174]
  00185	0f b6 8e 97 00
	00 00		 movzx	 ecx, BYTE PTR [esi+151]
  0018c	6a 03		 push	 3
  0018e	6a 00		 push	 0
  00190	68 ff 00 00 00	 push	 255			; 000000ffH
  00195	6a 00		 push	 0
  00197	52		 push	 edx
  00198	0f b6 96 96 00
	00 00		 movzx	 edx, BYTE PTR [esi+150]
  0019f	50		 push	 eax
  001a0	0f b6 86 95 00
	00 00		 movzx	 eax, BYTE PTR [esi+149]
  001a7	51		 push	 ecx
  001a8	0f b6 8e 94 00
	00 00		 movzx	 ecx, BYTE PTR [esi+148]
  001af	52		 push	 edx
  001b0	50		 push	 eax
  001b1	51		 push	 ecx
  001b2	68 05 1a 00 00	 push	 6661			; 00001a05H

; 3161 : 		this->PetValue();
; 3162 : 
; 3163 : 		return TRUE;

  001b7	e9 5a ff ff ff	 jmp	 $LN23@AddPetItem
?AddPetItemExp@CItem@@QAEHH@Z ENDP			; CItem::AddPetItemExp
_TEXT	ENDS
PUBLIC	?DecPetItemExp@CItem@@QAEHH@Z			; CItem::DecPetItemExp
; Function compile flags: /Ogtp
;	COMDAT ?DecPetItemExp@CItem@@QAEHH@Z
_TEXT	SEGMENT
_percent$ = 8						; size = 4
?DecPetItemExp@CItem@@QAEHH@Z PROC			; CItem::DecPetItemExp, COMDAT
; _this$ = ecx

; 3171 : {

  00000	55		 push	 ebp
  00001	8b ec		 mov	 ebp, esp
  00003	56		 push	 esi
  00004	8b f1		 mov	 esi, ecx

; 3172 : 	if ( this->m_IsLoadPetItemInfo == 0 )

  00006	83 be b8 00 00
	00 00		 cmp	 DWORD PTR [esi+184], 0
  0000d	75 07		 jne	 SHORT $LN11@DecPetItem

; 3173 : 	{
; 3174 : 		return FALSE;

  0000f	33 c0		 xor	 eax, eax
  00011	5e		 pop	 esi

; 3238 : }

  00012	5d		 pop	 ebp
  00013	c2 04 00	 ret	 4
$LN11@DecPetItem:
  00016	57		 push	 edi

; 3175 : 	}
; 3176 : 
; 3177 : 	if ( this->m_PetItem_Level < 1 )

  00017	8b be bc 00 00
	00		 mov	 edi, DWORD PTR [esi+188]
  0001d	83 ff 01	 cmp	 edi, 1
  00020	7d 6a		 jge	 SHORT $LN10@DecPetItem

; 3178 : 	{
; 3179 : 		this->m_PetItem_Level = 1;
; 3180 : 		this->m_PetItem_Exp = 0;
; 3181 : 		this->Convert(this->m_Type, this->m_Option1, this->m_Option2,
; 3182 : 			this->m_Option3, this->m_NewOption, this->m_SetOption, this->m_ItemOptionEx, NULL, 0xFF, 0, CURRENT_DB_VERSION);

  00022	0f b6 86 ca 00
	00 00		 movzx	 eax, BYTE PTR [esi+202]
  00029	0f b6 8e ae 00
	00 00		 movzx	 ecx, BYTE PTR [esi+174]
  00030	0f b6 96 97 00
	00 00		 movzx	 edx, BYTE PTR [esi+151]
  00037	6a 03		 push	 3
  00039	6a 00		 push	 0
  0003b	68 ff 00 00 00	 push	 255			; 000000ffH
  00040	6a 00		 push	 0
  00042	50		 push	 eax
  00043	0f b6 86 96 00
	00 00		 movzx	 eax, BYTE PTR [esi+150]
  0004a	51		 push	 ecx
  0004b	0f b6 8e 95 00
	00 00		 movzx	 ecx, BYTE PTR [esi+149]
  00052	52		 push	 edx
  00053	0f b6 96 94 00
	00 00		 movzx	 edx, BYTE PTR [esi+148]
  0005a	50		 push	 eax
  0005b	0f bf 46 06	 movsx	 eax, WORD PTR [esi+6]
  0005f	51		 push	 ecx
  00060	52		 push	 edx
  00061	c7 86 bc 00 00
	00 01 00 00 00	 mov	 DWORD PTR [esi+188], 1
  0006b	c7 86 c0 00 00
	00 00 00 00 00	 mov	 DWORD PTR [esi+192], 0
  00075	50		 push	 eax
$LN15@DecPetItem:

; 3195 : 		{
; 3196 : 			this->m_PetItem_Level = 1;
; 3197 : 			this->m_PetItem_Exp = 0;
; 3198 : 			this->Convert(this->m_Type, this->m_Option1, this->m_Option2,
; 3199 : 				this->m_Option3, this->m_NewOption, this->m_SetOption, this->m_ItemOptionEx, NULL, 0xFF, 0, CURRENT_DB_VERSION);

  00076	8b ce		 mov	 ecx, esi
  00078	e8 00 00 00 00	 call	 ?Convert@CItem@@QAEXHEEEEEEPAEEEE@Z ; CItem::Convert

; 3200 : 			this->PetValue();

  0007d	8b ce		 mov	 ecx, esi
  0007f	e8 00 00 00 00	 call	 ?PetValue@CItem@@QAEXXZ	; CItem::PetValue
$LN1@DecPetItem:

; 3234 : 		}
; 3235 : 	}
; 3236 : 
; 3237 : 	return FALSE;

  00084	5f		 pop	 edi
  00085	33 c0		 xor	 eax, eax
  00087	5e		 pop	 esi

; 3238 : }

  00088	5d		 pop	 ebp
  00089	c2 04 00	 ret	 4
$LN10@DecPetItem:

; 3183 : 		this->PetValue();
; 3184 : 
; 3185 : 		return FALSE;
; 3186 : 	}
; 3187 : 
; 3188 : 	if ( this->m_Type == ITEMGET(13,4) )

  0008c	0f b7 46 06	 movzx	 eax, WORD PTR [esi+6]
  00090	b9 04 1a 00 00	 mov	 ecx, 6660		; 00001a04H
  00095	66 3b c1	 cmp	 ax, cx
  00098	0f 85 dc 00 00
	00		 jne	 $LN9@DecPetItem

; 3189 : 	{
; 3190 : 		int exp = gPetItemExp.m_DarkHorseExpTable[1+this->m_PetItem_Level] - gPetItemExp.m_DarkHorseExpTable[this->m_PetItem_Level];

  0009e	8b 0c bd d4 00
	00 00		 mov	 ecx, DWORD PTR ?gPetItemExp@@3VCPetItemExp@@A[edi*4+212]
  000a5	2b 0c bd d0 00
	00 00		 sub	 ecx, DWORD PTR ?gPetItemExp@@3VCPetItemExp@@A[edi*4+208]

; 3191 : 		exp = exp * percent/100;

  000ac	b8 e1 7a 14 ae	 mov	 eax, -1374389535	; ae147ae1H
  000b1	0f af 4d 08	 imul	 ecx, DWORD PTR _percent$[ebp]
  000b5	f7 e9		 imul	 ecx
  000b7	c1 fa 05	 sar	 edx, 5
  000ba	8b c2		 mov	 eax, edx
  000bc	c1 e8 1f	 shr	 eax, 31			; 0000001fH
  000bf	03 c2		 add	 eax, edx

; 3192 : 		this->m_PetItem_Exp -= exp;

  000c1	01 86 c0 00 00
	00		 add	 DWORD PTR [esi+192], eax
  000c7	8b 86 c0 00 00
	00		 mov	 eax, DWORD PTR [esi+192]

; 3193 : 
; 3194 : 		if ( this->m_PetItem_Exp < 0 )

  000cd	79 59		 jns	 SHORT $LN8@DecPetItem

; 3195 : 		{
; 3196 : 			this->m_PetItem_Level = 1;
; 3197 : 			this->m_PetItem_Exp = 0;
; 3198 : 			this->Convert(this->m_Type, this->m_Option1, this->m_Option2,
; 3199 : 				this->m_Option3, this->m_NewOption, this->m_SetOption, this->m_ItemOptionEx, NULL, 0xFF, 0, CURRENT_DB_VERSION);

  000cf	0f b6 8e ca 00
	00 00		 movzx	 ecx, BYTE PTR [esi+202]
  000d6	0f b6 96 ae 00
	00 00		 movzx	 edx, BYTE PTR [esi+174]
  000dd	0f b6 86 97 00
	00 00		 movzx	 eax, BYTE PTR [esi+151]
  000e4	6a 03		 push	 3
  000e6	6a 00		 push	 0
  000e8	68 ff 00 00 00	 push	 255			; 000000ffH
  000ed	6a 00		 push	 0
  000ef	51		 push	 ecx
  000f0	0f b6 8e 96 00
	00 00		 movzx	 ecx, BYTE PTR [esi+150]
  000f7	52		 push	 edx
  000f8	0f b6 96 95 00
	00 00		 movzx	 edx, BYTE PTR [esi+149]
  000ff	50		 push	 eax
  00100	0f b6 86 94 00
	00 00		 movzx	 eax, BYTE PTR [esi+148]
  00107	51		 push	 ecx
  00108	52		 push	 edx
  00109	50		 push	 eax
  0010a	c7 86 bc 00 00
	00 01 00 00 00	 mov	 DWORD PTR [esi+188], 1
  00114	c7 86 c0 00 00
	00 00 00 00 00	 mov	 DWORD PTR [esi+192], 0
  0011e	68 04 1a 00 00	 push	 6660			; 00001a04H

; 3200 : 			this->PetValue();

  00123	e9 4e ff ff ff	 jmp	 $LN15@DecPetItem
$LN8@DecPetItem:

; 3201 : 		}
; 3202 : 		else if ( this->m_PetItem_Exp < gPetItemExp.m_DarkHorseExpTable[this->m_PetItem_Level] )

  00128	3b 04 bd d0 00
	00 00		 cmp	 eax, DWORD PTR ?gPetItemExp@@3VCPetItemExp@@A[edi*4+208]
  0012f	0f 8d 4f ff ff
	ff		 jge	 $LN1@DecPetItem

; 3203 : 		{
; 3204 : 			this->m_PetItem_Level--;
; 3205 : 			this->Convert(this->m_Type, this->m_Option1, this->m_Option2,
; 3206 : 				this->m_Option3, this->m_NewOption, this->m_SetOption, this->m_ItemOptionEx, NULL, 0xFF, 0, CURRENT_DB_VERSION);

  00135	0f b6 8e ca 00
	00 00		 movzx	 ecx, BYTE PTR [esi+202]
  0013c	0f b6 96 ae 00
	00 00		 movzx	 edx, BYTE PTR [esi+174]
  00143	0f b6 86 97 00
	00 00		 movzx	 eax, BYTE PTR [esi+151]
  0014a	6a 03		 push	 3
  0014c	6a 00		 push	 0
  0014e	68 ff 00 00 00	 push	 255			; 000000ffH
  00153	6a 00		 push	 0
  00155	51		 push	 ecx
  00156	0f b6 8e 96 00
	00 00		 movzx	 ecx, BYTE PTR [esi+150]
  0015d	52		 push	 edx
  0015e	0f b6 96 95 00
	00 00		 movzx	 edx, BYTE PTR [esi+149]
  00165	50		 push	 eax
  00166	0f b6 86 94 00
	00 00		 movzx	 eax, BYTE PTR [esi+148]
  0016d	51		 push	 ecx
  0016e	52		 push	 edx
  0016f	50		 push	 eax
  00170	68 04 1a 00 00	 push	 6660			; 00001a04H

; 3207 : 			this->PetValue();
; 3208 : 			
; 3209 : 			return TRUE;

  00175	e9 e5 00 00 00	 jmp	 $LN17@DecPetItem
$LN9@DecPetItem:

; 3210 : 		}
; 3211 : 	}
; 3212 : 	else if ( this->m_Type == ITEMGET(13,5) )

  0017a	b9 05 1a 00 00	 mov	 ecx, 6661		; 00001a05H
  0017f	66 3b c1	 cmp	 ax, cx
  00182	0f 85 fc fe ff
	ff		 jne	 $LN1@DecPetItem

; 3213 : 	{
; 3214 : 		int exp = gPetItemExp.m_DarkSpiritExpTable[1+this->m_PetItem_Level] - gPetItemExp.m_DarkSpiritExpTable[this->m_PetItem_Level];

  00188	8b 0c bd 04 00
	00 00		 mov	 ecx, DWORD PTR ?gPetItemExp@@3VCPetItemExp@@A[edi*4+4]
  0018f	2b 0c bd 00 00
	00 00		 sub	 ecx, DWORD PTR ?gPetItemExp@@3VCPetItemExp@@A[edi*4]

; 3215 : 		exp = exp * percent/100;

  00196	b8 e1 7a 14 ae	 mov	 eax, -1374389535	; ae147ae1H
  0019b	0f af 4d 08	 imul	 ecx, DWORD PTR _percent$[ebp]
  0019f	f7 e9		 imul	 ecx
  001a1	c1 fa 05	 sar	 edx, 5
  001a4	8b c2		 mov	 eax, edx
  001a6	c1 e8 1f	 shr	 eax, 31			; 0000001fH
  001a9	03 c2		 add	 eax, edx

; 3216 : 		this->m_PetItem_Exp -= exp;

  001ab	01 86 c0 00 00
	00		 add	 DWORD PTR [esi+192], eax
  001b1	8b 86 c0 00 00
	00		 mov	 eax, DWORD PTR [esi+192]

; 3217 : 
; 3218 : 		if ( this->m_PetItem_Exp < 0 )

  001b7	79 59		 jns	 SHORT $LN3@DecPetItem

; 3219 : 		{
; 3220 : 			this->m_PetItem_Level = 1;
; 3221 : 			this->m_PetItem_Exp = 0;
; 3222 : 			this->Convert(this->m_Type, this->m_Option1, this->m_Option2,
; 3223 : 				this->m_Option3, this->m_NewOption, this->m_SetOption, this->m_ItemOptionEx, NULL, 0xFF, 0, CURRENT_DB_VERSION);

  001b9	0f b6 8e ca 00
	00 00		 movzx	 ecx, BYTE PTR [esi+202]
  001c0	0f b6 96 ae 00
	00 00		 movzx	 edx, BYTE PTR [esi+174]
  001c7	0f b6 86 97 00
	00 00		 movzx	 eax, BYTE PTR [esi+151]
  001ce	6a 03		 push	 3
  001d0	6a 00		 push	 0
  001d2	68 ff 00 00 00	 push	 255			; 000000ffH
  001d7	6a 00		 push	 0
  001d9	51		 push	 ecx
  001da	0f b6 8e 96 00
	00 00		 movzx	 ecx, BYTE PTR [esi+150]
  001e1	52		 push	 edx
  001e2	0f b6 96 95 00
	00 00		 movzx	 edx, BYTE PTR [esi+149]
  001e9	50		 push	 eax
  001ea	0f b6 86 94 00
	00 00		 movzx	 eax, BYTE PTR [esi+148]
  001f1	51		 push	 ecx
  001f2	52		 push	 edx
  001f3	50		 push	 eax
  001f4	c7 86 bc 00 00
	00 01 00 00 00	 mov	 DWORD PTR [esi+188], 1
  001fe	c7 86 c0 00 00
	00 00 00 00 00	 mov	 DWORD PTR [esi+192], 0
  00208	68 05 1a 00 00	 push	 6661			; 00001a05H

; 3224 : 			this->PetValue();

  0020d	e9 64 fe ff ff	 jmp	 $LN15@DecPetItem
$LN3@DecPetItem:

; 3225 : 		}
; 3226 : 		else if ( this->m_PetItem_Exp < gPetItemExp.m_DarkSpiritExpTable[this->m_PetItem_Level] )

  00212	3b 04 bd 00 00
	00 00		 cmp	 eax, DWORD PTR ?gPetItemExp@@3VCPetItemExp@@A[edi*4]
  00219	0f 8d 65 fe ff
	ff		 jge	 $LN1@DecPetItem

; 3227 : 		{
; 3228 : 			this->m_PetItem_Level--;
; 3229 : 			this->Convert(this->m_Type, this->m_Option1, this->m_Option2,
; 3230 : 				this->m_Option3, this->m_NewOption, this->m_SetOption, this->m_ItemOptionEx, NULL, 0xFF, 0, CURRENT_DB_VERSION);

  0021f	0f b6 8e ca 00
	00 00		 movzx	 ecx, BYTE PTR [esi+202]
  00226	0f b6 96 ae 00
	00 00		 movzx	 edx, BYTE PTR [esi+174]
  0022d	0f b6 86 97 00
	00 00		 movzx	 eax, BYTE PTR [esi+151]
  00234	6a 03		 push	 3
  00236	6a 00		 push	 0
  00238	68 ff 00 00 00	 push	 255			; 000000ffH
  0023d	6a 00		 push	 0
  0023f	51		 push	 ecx
  00240	0f b6 8e 96 00
	00 00		 movzx	 ecx, BYTE PTR [esi+150]
  00247	52		 push	 edx
  00248	0f b6 96 95 00
	00 00		 movzx	 edx, BYTE PTR [esi+149]
  0024f	50		 push	 eax
  00250	0f b6 86 94 00
	00 00		 movzx	 eax, BYTE PTR [esi+148]
  00257	51		 push	 ecx
  00258	52		 push	 edx
  00259	50		 push	 eax
  0025a	68 05 1a 00 00	 push	 6661			; 00001a05H
$LN17@DecPetItem:
  0025f	4f		 dec	 edi
  00260	8b ce		 mov	 ecx, esi
  00262	89 be bc 00 00
	00		 mov	 DWORD PTR [esi+188], edi
  00268	e8 00 00 00 00	 call	 ?Convert@CItem@@QAEXHEEEEEEPAEEEE@Z ; CItem::Convert

; 3231 : 			this->PetValue();

  0026d	8b ce		 mov	 ecx, esi
  0026f	e8 00 00 00 00	 call	 ?PetValue@CItem@@QAEXXZ	; CItem::PetValue
  00274	5f		 pop	 edi

; 3232 : 			
; 3233 : 			return TRUE;

  00275	b8 01 00 00 00	 mov	 eax, 1
  0027a	5e		 pop	 esi

; 3238 : }

  0027b	5d		 pop	 ebp
  0027c	c2 04 00	 ret	 4
?DecPetItemExp@CItem@@QAEHH@Z ENDP			; CItem::DecPetItemExp
_TEXT	ENDS
PUBLIC	?PetItemLevelDown@CItem@@QAEHH@Z		; CItem::PetItemLevelDown
; Function compile flags: /Ogtp
;	COMDAT ?PetItemLevelDown@CItem@@QAEHH@Z
_TEXT	SEGMENT
_exp$ = 8						; size = 4
?PetItemLevelDown@CItem@@QAEHH@Z PROC			; CItem::PetItemLevelDown, COMDAT
; _this$ = ecx

; 3241 : {

  00000	55		 push	 ebp
  00001	8b ec		 mov	 ebp, esp
  00003	56		 push	 esi
  00004	8b f1		 mov	 esi, ecx

; 3242 : 	if ( this->m_IsLoadPetItemInfo == FALSE )

  00006	83 be b8 00 00
	00 00		 cmp	 DWORD PTR [esi+184], 0
  0000d	75 07		 jne	 SHORT $LN11@PetItemLev
$LN20@PetItemLev:

; 3243 : 	{
; 3244 : 		return FALSE;

  0000f	33 c0		 xor	 eax, eax
  00011	5e		 pop	 esi

; 3297 : }

  00012	5d		 pop	 ebp
  00013	c2 04 00	 ret	 4
$LN11@PetItemLev:

; 3245 : 	}
; 3246 : 
; 3247 : 	if ( this->m_PetItem_Level < 2 )

  00016	8b 86 bc 00 00
	00		 mov	 eax, DWORD PTR [esi+188]
  0001c	83 f8 02	 cmp	 eax, 2

; 3248 : 	{
; 3249 : 		return FALSE;

  0001f	7c ee		 jl	 SHORT $LN20@PetItemLev

; 3250 : 	}
; 3251 : 
; 3252 : 	this->m_PetItem_Exp -= exp;

  00021	8b 4d 08	 mov	 ecx, DWORD PTR _exp$[ebp]

; 3253 : 	this->m_PetItem_Level--;
; 3254 : 
; 3255 : 	if ( this->m_Type == ITEMGET(13,4) )

  00024	0f b7 56 06	 movzx	 edx, WORD PTR [esi+6]
  00028	29 8e c0 00 00
	00		 sub	 DWORD PTR [esi+192], ecx
  0002e	8b 8e c0 00 00
	00		 mov	 ecx, DWORD PTR [esi+192]
  00034	57		 push	 edi
  00035	48		 dec	 eax
  00036	bf 04 1a 00 00	 mov	 edi, 6660		; 00001a04H
  0003b	89 86 bc 00 00
	00		 mov	 DWORD PTR [esi+188], eax
  00041	66 3b d7	 cmp	 dx, di
  00044	75 21		 jne	 SHORT $LN9@PetItemLev

; 3256 : 	{
; 3257 : 		int petlevel = this->m_PetItem_Level;
; 3258 : 		int petexp = gPetItemExp.m_DarkHorseExpTable[petlevel];
; 3259 : 
; 3260 : 		while ( this->m_PetItem_Exp <= petexp )

  00046	3b 0c 85 d0 00
	00 00		 cmp	 ecx, DWORD PTR ?gPetItemExp@@3VCPetItemExp@@A[eax*4+208]
  0004d	7f 46		 jg	 SHORT $LN17@PetItemLev
  0004f	90		 npad	 1
$LL8@PetItemLev:

; 3261 : 		{
; 3262 : 			if ( petlevel <= 1 )

  00050	83 f8 01	 cmp	 eax, 1
  00053	7e 40		 jle	 SHORT $LN17@PetItemLev

; 3263 : 			{
; 3264 : 				break;
; 3265 : 			}
; 3266 : 
; 3267 : 			petlevel--;

  00055	8b 8e c0 00 00
	00		 mov	 ecx, DWORD PTR [esi+192]
  0005b	48		 dec	 eax
  0005c	3b 0c 85 d0 00
	00 00		 cmp	 ecx, DWORD PTR ?gPetItemExp@@3VCPetItemExp@@A[eax*4+208]
  00063	7e eb		 jle	 SHORT $LL8@PetItemLev

; 3268 : 			petexp = gPetItemExp.m_DarkHorseExpTable[petlevel];
; 3269 : 		}
; 3270 : 
; 3271 : 		this->m_PetItem_Level = petlevel;

  00065	eb 2e		 jmp	 SHORT $LN17@PetItemLev
$LN9@PetItemLev:

; 3272 : 	}
; 3273 : 	else if ( this->m_Type == ITEMGET(13,5) )

  00067	bf 05 1a 00 00	 mov	 edi, 6661		; 00001a05H
  0006c	66 3b d7	 cmp	 dx, di
  0006f	75 2a		 jne	 SHORT $LN4@PetItemLev

; 3274 : 	{
; 3275 : 		int petlevel = this->m_PetItem_Level;
; 3276 : 		int petexp = gPetItemExp.m_DarkSpiritExpTable[petlevel];
; 3277 : 
; 3278 : 		while ( this->m_PetItem_Exp <= petexp )

  00071	3b 0c 85 00 00
	00 00		 cmp	 ecx, DWORD PTR ?gPetItemExp@@3VCPetItemExp@@A[eax*4]
  00078	7f 1b		 jg	 SHORT $LN17@PetItemLev
  0007a	8d 9b 00 00 00
	00		 npad	 6
$LL3@PetItemLev:

; 3279 : 		{
; 3280 : 			if ( petlevel <= 1 )

  00080	83 f8 01	 cmp	 eax, 1
  00083	7e 10		 jle	 SHORT $LN17@PetItemLev

; 3281 : 			{
; 3282 : 				break;
; 3283 : 			}
; 3284 : 
; 3285 : 			petlevel--;

  00085	8b 8e c0 00 00
	00		 mov	 ecx, DWORD PTR [esi+192]
  0008b	48		 dec	 eax
  0008c	3b 0c 85 00 00
	00 00		 cmp	 ecx, DWORD PTR ?gPetItemExp@@3VCPetItemExp@@A[eax*4]
  00093	7e eb		 jle	 SHORT $LL3@PetItemLev
$LN17@PetItemLev:

; 3286 : 			petexp = gPetItemExp.m_DarkSpiritExpTable[petlevel];
; 3287 : 		}
; 3288 : 
; 3289 : 		this->m_PetItem_Level = petlevel;

  00095	89 86 bc 00 00
	00		 mov	 DWORD PTR [esi+188], eax
$LN4@PetItemLev:

; 3290 : 	}
; 3291 : 
; 3292 : 	this->Convert(this->m_Type, this->m_Option1, this->m_Option2,
; 3293 : 		this->m_Option3, this->m_NewOption, this->m_SetOption, this->m_ItemOptionEx, NULL, 0xFF, 0, CURRENT_DB_VERSION);

  0009b	0f b6 86 ca 00
	00 00		 movzx	 eax, BYTE PTR [esi+202]
  000a2	0f b6 8e ae 00
	00 00		 movzx	 ecx, BYTE PTR [esi+174]
  000a9	6a 03		 push	 3
  000ab	6a 00		 push	 0
  000ad	68 ff 00 00 00	 push	 255			; 000000ffH
  000b2	6a 00		 push	 0
  000b4	50		 push	 eax
  000b5	0f b6 86 97 00
	00 00		 movzx	 eax, BYTE PTR [esi+151]
  000bc	51		 push	 ecx
  000bd	0f b6 8e 96 00
	00 00		 movzx	 ecx, BYTE PTR [esi+150]
  000c4	50		 push	 eax
  000c5	0f b6 86 95 00
	00 00		 movzx	 eax, BYTE PTR [esi+149]
  000cc	51		 push	 ecx
  000cd	0f b6 8e 94 00
	00 00		 movzx	 ecx, BYTE PTR [esi+148]
  000d4	50		 push	 eax
  000d5	0f bf d2	 movsx	 edx, dx
  000d8	51		 push	 ecx
  000d9	52		 push	 edx
  000da	8b ce		 mov	 ecx, esi
  000dc	e8 00 00 00 00	 call	 ?Convert@CItem@@QAEXHEEEEEEPAEEEE@Z ; CItem::Convert

; 3294 : 	this->PetValue();

  000e1	8b ce		 mov	 ecx, esi
  000e3	e8 00 00 00 00	 call	 ?PetValue@CItem@@QAEXXZ	; CItem::PetValue
  000e8	5f		 pop	 edi

; 3295 : 
; 3296 : 	return TRUE;

  000e9	b8 01 00 00 00	 mov	 eax, 1
  000ee	5e		 pop	 esi

; 3297 : }

  000ef	5d		 pop	 ebp
  000f0	c2 04 00	 ret	 4
?PetItemLevelDown@CItem@@QAEHH@Z ENDP			; CItem::PetItemLevelDown
_TEXT	ENDS
PUBLIC	?CheckDurabilityState@CItem@@QAEHXZ		; CItem::CheckDurabilityState
; Function compile flags: /Ogtp
;	COMDAT ?CheckDurabilityState@CItem@@QAEHXZ
_TEXT	SEGMENT
?CheckDurabilityState@CItem@@QAEHXZ PROC		; CItem::CheckDurabilityState, COMDAT
; _this$ = ecx

; 4258 : 	if ( this->m_Durability == 0.0f )

  00000	d9 41 24	 fld	 DWORD PTR [ecx+36]
  00003	d9 ee		 fldz
  00005	d9 c0		 fld	 ST(0)
  00007	dd ea		 fucomp	 ST(2)
  00009	df e0		 fnstsw	 ax
  0000b	dd d9		 fstp	 ST(1)
  0000d	f6 c4 44	 test	 ah, 68			; 00000044H
  00010	7a 6c		 jp	 SHORT $LN13@CheckDurab
  00012	dd d8		 fstp	 ST(0)

; 4259 : 	{
; 4260 : 		if ( this->m_CurrentDurabilityState != 1.0f )

  00014	d9 81 a8 00 00
	00		 fld	 DWORD PTR [ecx+168]
  0001a	d9 e8		 fld1
$LN40@CheckDurab:
  0001c	d9 c0		 fld	 ST(0)
  0001e	dd ea		 fucomp	 ST(2)
  00020	df e0		 fnstsw	 ax
  00022	dd d9		 fstp	 ST(1)
$LN42@CheckDurab:
  00024	f6 c4 44	 test	 ah, 68			; 00000044H
  00027	0f 8b 89 01 00
	00		 jnp	 $LN38@CheckDurab

; 4261 : 		{
; 4262 : 			this->m_CurrentDurabilityState = 1.0f;
; 4263 : 			this->Convert(this->m_Type, this->m_Option1, this->m_Option2, this->m_Option3, this->m_NewOption,
; 4264 : 				this->m_SetOption, this->m_ItemOptionEx, NULL, 0xFF, 0, CURRENT_DB_VERSION);

  0002d	0f b6 81 ca 00
	00 00		 movzx	 eax, BYTE PTR [ecx+202]
  00034	d9 99 a8 00 00
	00		 fstp	 DWORD PTR [ecx+168]
  0003a	0f b6 91 ae 00
	00 00		 movzx	 edx, BYTE PTR [ecx+174]
  00041	6a 03		 push	 3
  00043	6a 00		 push	 0
  00045	68 ff 00 00 00	 push	 255			; 000000ffH
  0004a	6a 00		 push	 0
  0004c	50		 push	 eax
  0004d	0f b6 81 97 00
	00 00		 movzx	 eax, BYTE PTR [ecx+151]
  00054	52		 push	 edx
  00055	0f b6 91 96 00
	00 00		 movzx	 edx, BYTE PTR [ecx+150]
  0005c	50		 push	 eax
  0005d	0f b6 81 95 00
	00 00		 movzx	 eax, BYTE PTR [ecx+149]
  00064	52		 push	 edx
  00065	0f b6 91 94 00
	00 00		 movzx	 edx, BYTE PTR [ecx+148]
  0006c	50		 push	 eax
  0006d	0f bf 41 06	 movsx	 eax, WORD PTR [ecx+6]
  00071	52		 push	 edx
  00072	50		 push	 eax
  00073	e8 00 00 00 00	 call	 ?Convert@CItem@@QAEXHEEEEEEPAEEEE@Z ; CItem::Convert

; 4265 : 			return true;

  00078	b8 01 00 00 00	 mov	 eax, 1

; 4307 : }

  0007d	c3		 ret	 0
$LN13@CheckDurab:

; 4266 : 		}
; 4267 : 	}
; 4268 : 	else if ( this->m_Durability < this->m_DurabilityState[2] )

  0007e	d9 41 24	 fld	 DWORD PTR [ecx+36]
  00081	d9 81 a0 00 00
	00		 fld	 DWORD PTR [ecx+160]
  00087	de d9		 fcompp
  00089	df e0		 fnstsw	 ax
  0008b	f6 c4 41	 test	 ah, 65			; 00000041H
  0008e	75 70		 jne	 SHORT $LN10@CheckDurab
  00090	dd d8		 fstp	 ST(0)

; 4269 : 	{
; 4270 : 		if ( this->m_CurrentDurabilityState != 0.5f )

  00092	d9 81 a8 00 00
	00		 fld	 DWORD PTR [ecx+168]
  00098	d9 05 00 00 00
	00		 fld	 DWORD PTR __real@3f000000
  0009e	d9 c0		 fld	 ST(0)
  000a0	dd ea		 fucomp	 ST(2)
  000a2	df e0		 fnstsw	 ax
  000a4	dd d9		 fstp	 ST(1)
  000a6	f6 c4 44	 test	 ah, 68			; 00000044H
  000a9	0f 8b 07 01 00
	00		 jnp	 $LN38@CheckDurab

; 4271 : 		{
; 4272 : 			this->m_CurrentDurabilityState = 0.5f;
; 4273 : 			this->Convert(this->m_Type, this->m_Option1, this->m_Option2, this->m_Option3, this->m_NewOption,
; 4274 : 				this->m_SetOption,this->m_ItemOptionEx, NULL, 0xFF, 0, CURRENT_DB_VERSION);

  000af	0f b6 91 ca 00
	00 00		 movzx	 edx, BYTE PTR [ecx+202]
  000b6	d9 99 a8 00 00
	00		 fstp	 DWORD PTR [ecx+168]
  000bc	0f b6 81 ae 00
	00 00		 movzx	 eax, BYTE PTR [ecx+174]
  000c3	6a 03		 push	 3
  000c5	6a 00		 push	 0
  000c7	68 ff 00 00 00	 push	 255			; 000000ffH
  000cc	6a 00		 push	 0
  000ce	52		 push	 edx
  000cf	0f b6 91 97 00
	00 00		 movzx	 edx, BYTE PTR [ecx+151]
  000d6	50		 push	 eax
  000d7	0f b6 81 96 00
	00 00		 movzx	 eax, BYTE PTR [ecx+150]
  000de	52		 push	 edx
  000df	0f b6 91 95 00
	00 00		 movzx	 edx, BYTE PTR [ecx+149]
  000e6	50		 push	 eax
  000e7	0f b6 81 94 00
	00 00		 movzx	 eax, BYTE PTR [ecx+148]
  000ee	52		 push	 edx
  000ef	0f bf 51 06	 movsx	 edx, WORD PTR [ecx+6]
  000f3	50		 push	 eax
  000f4	52		 push	 edx
  000f5	e8 00 00 00 00	 call	 ?Convert@CItem@@QAEXHEEEEEEPAEEEE@Z ; CItem::Convert

; 4275 : 			return true;

  000fa	b8 01 00 00 00	 mov	 eax, 1

; 4307 : }

  000ff	c3		 ret	 0
$LN10@CheckDurab:

; 4276 : 		}
; 4277 : 	}
; 4278 : 	else if ( this->m_Durability < this->m_DurabilityState[1] )

  00100	d9 41 24	 fld	 DWORD PTR [ecx+36]
  00103	d9 81 9c 00 00
	00		 fld	 DWORD PTR [ecx+156]
  00109	de d9		 fcompp
  0010b	df e0		 fnstsw	 ax
  0010d	f6 c4 41	 test	 ah, 65			; 00000041H
  00110	75 13		 jne	 SHORT $LN7@CheckDurab
  00112	dd d8		 fstp	 ST(0)

; 4279 : 	{
; 4280 : 		if ( this->m_CurrentDurabilityState != 0.3f )

  00114	d9 81 a8 00 00
	00		 fld	 DWORD PTR [ecx+168]
  0011a	d9 05 00 00 00
	00		 fld	 DWORD PTR __real@3e99999a

; 4281 : 		{
; 4282 : 			this->m_CurrentDurabilityState = 0.3f;
; 4283 : 			this->Convert(this->m_Type, this->m_Option1, this->m_Option2, this->m_Option3, this->m_NewOption,
; 4284 : 				this->m_SetOption,this->m_ItemOptionEx, NULL, 0xFF, 0, CURRENT_DB_VERSION);
; 4285 : 			return true;

  00120	e9 f7 fe ff ff	 jmp	 $LN40@CheckDurab
$LN7@CheckDurab:

; 4286 : 		}
; 4287 : 	}
; 4288 : 	else if ( this->m_Durability < this->m_DurabilityState[0] )

  00125	d9 41 24	 fld	 DWORD PTR [ecx+36]
  00128	d9 81 98 00 00
	00		 fld	 DWORD PTR [ecx+152]
  0012e	de d9		 fcompp
  00130	df e0		 fnstsw	 ax
  00132	f6 c4 41	 test	 ah, 65			; 00000041H
  00135	75 6e		 jne	 SHORT $LN4@CheckDurab
  00137	dd d8		 fstp	 ST(0)

; 4289 : 	{
; 4290 : 		if ( this->m_CurrentDurabilityState != 0.2f )

  00139	d9 81 a8 00 00
	00		 fld	 DWORD PTR [ecx+168]
  0013f	dd 05 00 00 00
	00		 fld	 QWORD PTR __real@3fc99999a0000000
  00145	da e9		 fucompp
  00147	df e0		 fnstsw	 ax
  00149	f6 c4 44	 test	 ah, 68			; 00000044H
  0014c	7b 6a		 jnp	 SHORT $LN1@CheckDurab

; 4291 : 		{
; 4292 : 			this->m_CurrentDurabilityState = 0.2f;
; 4293 : 			this->Convert(this->m_Type, this->m_Option1, this->m_Option2, this->m_Option3, this->m_NewOption,
; 4294 : 				this->m_SetOption,this->m_ItemOptionEx, NULL, 0xFF, 0, CURRENT_DB_VERSION);

  0014e	0f b6 91 ca 00
	00 00		 movzx	 edx, BYTE PTR [ecx+202]
  00155	d9 05 00 00 00
	00		 fld	 DWORD PTR __real@3e4ccccd
  0015b	0f b6 81 ae 00
	00 00		 movzx	 eax, BYTE PTR [ecx+174]
  00162	d9 99 a8 00 00
	00		 fstp	 DWORD PTR [ecx+168]
  00168	6a 03		 push	 3
  0016a	6a 00		 push	 0
  0016c	68 ff 00 00 00	 push	 255			; 000000ffH
  00171	6a 00		 push	 0
  00173	52		 push	 edx
  00174	0f b6 91 97 00
	00 00		 movzx	 edx, BYTE PTR [ecx+151]
  0017b	50		 push	 eax
  0017c	0f b6 81 96 00
	00 00		 movzx	 eax, BYTE PTR [ecx+150]
  00183	52		 push	 edx
  00184	0f b6 91 95 00
	00 00		 movzx	 edx, BYTE PTR [ecx+149]
  0018b	50		 push	 eax
  0018c	0f b6 81 94 00
	00 00		 movzx	 eax, BYTE PTR [ecx+148]
  00193	52		 push	 edx
  00194	0f bf 51 06	 movsx	 edx, WORD PTR [ecx+6]
  00198	50		 push	 eax
  00199	52		 push	 edx
  0019a	e8 00 00 00 00	 call	 ?Convert@CItem@@QAEXHEEEEEEPAEEEE@Z ; CItem::Convert
  0019f	b8 01 00 00 00	 mov	 eax, 1

; 4307 : }

  001a4	c3		 ret	 0
$LN4@CheckDurab:

; 4295 : 			return true;
; 4296 : 		}
; 4297 : 	}
; 4298 : 	else if ( this->m_CurrentDurabilityState != 0.0f )

  001a5	d9 81 a8 00 00
	00		 fld	 DWORD PTR [ecx+168]
  001ab	d9 c1		 fld	 ST(1)
  001ad	da e9		 fucompp
  001af	df e0		 fnstsw	 ax

; 4299 : 	{
; 4300 : 		this->m_CurrentDurabilityState = 0;
; 4301 : 		this->Convert(this->m_Type, this->m_Option1, this->m_Option2, this->m_Option3, this->m_NewOption,
; 4302 : 			this->m_SetOption,this->m_ItemOptionEx, NULL, 0xFF, 0, CURRENT_DB_VERSION);
; 4303 : 		return true;

  001b1	e9 6e fe ff ff	 jmp	 $LN42@CheckDurab
$LN38@CheckDurab:

; 4279 : 	{
; 4280 : 		if ( this->m_CurrentDurabilityState != 0.3f )

  001b6	dd d8		 fstp	 ST(0)
$LN1@CheckDurab:

; 4304 : 	}
; 4305 : 
; 4306 : 	return false;

  001b8	33 c0		 xor	 eax, eax

; 4307 : }

  001ba	c3		 ret	 0
?CheckDurabilityState@CItem@@QAEHXZ ENDP		; CItem::CheckDurabilityState
_TEXT	ENDS
PUBLIC	??_C@_0EG@OACKBCBJ@?$FLLuckyItem?$FN?5Durability?5Down?5?$FL?$CFs?$FN@ ; `string'
PUBLIC	??_C@_09MNHAFDGA@defL?$DP0L?$DP?9?$AA@		; `string'
PUBLIC	?LuckyItemArmorDurabilityDown@CItem@@QAEHHH@Z	; CItem::LuckyItemArmorDurabilityDown
EXTRN	?GDReqLuckyItemDelete@LuckyItemManager@@QAEXFJH@Z:PROC ; LuckyItemManager::GDReqLuckyItemDelete
EXTRN	?gObj@@3PAUOBJECTSTRUCT@@A:DWORD		; gObj
EXTRN	?GetLuckyItemDurabilityTime@LuckyItemManager@@QAEHXZ:PROC ; LuckyItemManager::GetLuckyItemDurabilityTime
EXTRN	?g_LuckyItemManager@@3ULuckyItemManager@@A:BYTE	; g_LuckyItemManager
EXTRN	?LogAddTD@@3P6AXPADZZA:DWORD			; LogAddTD
;	COMDAT ??_C@_0EG@OACKBCBJ@?$FLLuckyItem?$FN?5Durability?5Down?5?$FL?$CFs?$FN@
CONST	SEGMENT
??_C@_0EG@OACKBCBJ@?$FLLuckyItem?$FN?5Durability?5Down?5?$FL?$CFs?$FN@ DB '['
	DB	'LuckyItem] Durability Down [%s][%s] [%d][%s] Serial:[%u] Dur:'
	DB	'[%d/%d]', 00H				; `string'
CONST	ENDS
;	COMDAT ??_C@_09MNHAFDGA@defL?$DP0L?$DP?9?$AA@
CONST	SEGMENT
??_C@_09MNHAFDGA@defL?$DP0L?$DP?9?$AA@ DB 'defL?0L?-', 00H ; `string'
; Function compile flags: /Ogtp
CONST	ENDS
;	COMDAT ?LuckyItemArmorDurabilityDown@CItem@@QAEHHH@Z
_TEXT	SEGMENT
tv212 = 8						; size = 4
_damagemin$ = 8						; size = 4
_aIndex$ = 12						; size = 4
?LuckyItemArmorDurabilityDown@CItem@@QAEHHH@Z PROC	; CItem::LuckyItemArmorDurabilityDown, COMDAT
; _this$ = ecx

; 4407 : {

  00000	55		 push	 ebp
  00001	8b ec		 mov	 ebp, esp

; 4408 : 	if( this->m_Durability <= 0.0f )

  00003	d9 ee		 fldz
  00005	56		 push	 esi
  00006	8b f1		 mov	 esi, ecx
  00008	d8 5e 24	 fcomp	 DWORD PTR [esi+36]
  0000b	df e0		 fnstsw	 ax
  0000d	f6 c4 01	 test	 ah, 1

; 4409 : 	{
; 4410 : 		return 0;

  00010	74 1c		 je	 SHORT $LN14@LuckyItemA

; 4411 : 	}
; 4412 : 
; 4413 : 	if( this->m_Type == -1 )

  00012	66 83 7e 06 ff	 cmp	 WORD PTR [esi+6], -1

; 4414 : 	{
; 4415 : 		return 0;

  00017	74 15		 je	 SHORT $LN14@LuckyItemA

; 4416 : 	}
; 4417 : 
; 4418 : 	if( this->m_DefenseOrigin == 0 )

  00019	66 83 7e 1e 00	 cmp	 WORD PTR [esi+30], 0
  0001e	75 15		 jne	 SHORT $LN5@LuckyItemA

; 4419 : 	{
; 4420 :         LogAddTD("defL?0L?-");

  00020	68 00 00 00 00	 push	 OFFSET ??_C@_09MNHAFDGA@defL?$DP0L?$DP?9?$AA@
  00025	ff 15 00 00 00
	00		 call	 DWORD PTR ?LogAddTD@@3P6AXPADZZA ; LogAddTD
  0002b	83 c4 04	 add	 esp, 4
$LN14@LuckyItemA:

; 4421 : 		return 0;

  0002e	33 c0		 xor	 eax, eax
  00030	5e		 pop	 esi

; 4455 : 	}
; 4456 : 
; 4457 : }

  00031	5d		 pop	 ebp
  00032	c2 08 00	 ret	 8
$LN5@LuckyItemA:

; 4422 : 	}
; 4423 : 	
; 4424 : 	this->m_DurabilitySmall += damagemin;

  00035	66 8b 45 08	 mov	 ax, WORD PTR _damagemin$[ebp]
  00039	66 01 46 28	 add	 WORD PTR [esi+40], ax

; 4425 : 
; 4426 : #ifdef DEBUG_CODE
; 4427 : 	LogAddC(5,"this->m_DurabilitySmall: %d | g_LuckyItemManager.GetLuckyItemDurabilityTime(): %d",this->m_DurabilitySmall,g_LuckyItemManager.GetLuckyItemDurabilityTime());
; 4428 : #endif
; 4429 : 
; 4430 : 	if( this->m_DurabilitySmall < g_LuckyItemManager.GetLuckyItemDurabilityTime() )

  0003d	b9 00 00 00 00	 mov	 ecx, OFFSET ?g_LuckyItemManager@@3ULuckyItemManager@@A ; g_LuckyItemManager
  00042	e8 00 00 00 00	 call	 ?GetLuckyItemDurabilityTime@LuckyItemManager@@QAEHXZ ; LuckyItemManager::GetLuckyItemDurabilityTime
  00047	0f b7 4e 28	 movzx	 ecx, WORD PTR [esi+40]
  0004b	3b c8		 cmp	 ecx, eax

; 4431 : 	{
; 4432 : 		return 0;

  0004d	7c df		 jl	 SHORT $LN14@LuckyItemA

; 4433 : 	}
; 4434 : 
; 4435 : 	this->m_DurabilitySmall = 0;
; 4436 : 	this->m_Durability		-= 1.0;

  0004f	d9 46 24	 fld	 DWORD PTR [esi+36]
  00052	33 d2		 xor	 edx, edx
  00054	dc 25 00 00 00
	00		 fsub	 QWORD PTR __real@3ff0000000000000
  0005a	66 89 56 28	 mov	 WORD PTR [esi+40], dx
  0005e	d9 5d 08	 fstp	 DWORD PTR tv212[ebp]
  00061	d9 45 08	 fld	 DWORD PTR tv212[ebp]
  00064	d9 56 24	 fst	 DWORD PTR [esi+36]

; 4437 : 
; 4438 : 	if( this->m_Durability < 0.0 )

  00067	d9 ee		 fldz
  00069	d8 d1		 fcom	 ST(1)
  0006b	df e0		 fnstsw	 ax
  0006d	dd d9		 fstp	 ST(1)
  0006f	f6 c4 41	 test	 ah, 65			; 00000041H
  00072	75 05		 jne	 SHORT $LN12@LuckyItemA

; 4439 : 	{
; 4440 : 		this->m_Durability = 0;

  00074	d9 5e 24	 fstp	 DWORD PTR [esi+36]
  00077	eb 02		 jmp	 SHORT $LN3@LuckyItemA
$LN12@LuckyItemA:
  00079	dd d8		 fstp	 ST(0)
$LN3@LuckyItemA:

; 4441 : 	}
; 4442 : 
; 4443 : 	LogAddTD("[LuckyItem] Durability Down [%s][%s] [%d][%s] Serial:[%u] Dur:[%d/%d]",
; 4444 : 		gObj[aIndex].AccountID, gObj[aIndex].Name, this->m_Type,
; 4445 : 		this->GetName(), this->m_Number, (int)this->m_Durability, (int)this->m_BaseDurability);

  0007b	d9 46 2c	 fld	 DWORD PTR [esi+44]
  0007e	53		 push	 ebx
  0007f	8b 5d 0c	 mov	 ebx, DWORD PTR _aIndex$[ebp]
  00082	57		 push	 edi
  00083	8b fb		 mov	 edi, ebx
  00085	69 ff 50 2b 00
	00		 imul	 edi, 11088		; 00002b50H
  0008b	03 3d 00 00 00
	00		 add	 edi, DWORD PTR ?gObj@@3PAUOBJECTSTRUCT@@A ; gObj
  00091	e8 00 00 00 00	 call	 __ftol2_sse
  00096	50		 push	 eax
  00097	d9 46 24	 fld	 DWORD PTR [esi+36]
  0009a	e8 00 00 00 00	 call	 __ftol2_sse
  0009f	8b 16		 mov	 edx, DWORD PTR [esi]
  000a1	50		 push	 eax
  000a2	52		 push	 edx
  000a3	8b ce		 mov	 ecx, esi
  000a5	e8 00 00 00 00	 call	 ?GetName@CItem@@QAEPADXZ ; CItem::GetName
  000aa	50		 push	 eax
  000ab	0f bf 46 06	 movsx	 eax, WORD PTR [esi+6]
  000af	50		 push	 eax
  000b0	8d 4f 77	 lea	 ecx, DWORD PTR [edi+119]
  000b3	51		 push	 ecx
  000b4	83 c7 6c	 add	 edi, 108		; 0000006cH
  000b7	57		 push	 edi
  000b8	68 00 00 00 00	 push	 OFFSET ??_C@_0EG@OACKBCBJ@?$FLLuckyItem?$FN?5Durability?5Down?5?$FL?$CFs?$FN@
  000bd	ff 15 00 00 00
	00		 call	 DWORD PTR ?LogAddTD@@3P6AXPADZZA ; LogAddTD
  000c3	83 c4 20	 add	 esp, 32			; 00000020H

; 4446 : 
; 4447 : 	if( CheckDurabilityState() )

  000c6	8b ce		 mov	 ecx, esi
  000c8	e8 00 00 00 00	 call	 ?CheckDurabilityState@CItem@@QAEHXZ ; CItem::CheckDurabilityState
  000cd	85 c0		 test	 eax, eax
  000cf	74 1f		 je	 SHORT $LN2@LuckyItemA

; 4448 : 	{
; 4449 : 		g_LuckyItemManager.GDReqLuckyItemDelete(this->m_Type, this->m_Number, aIndex);

  000d1	8b 16		 mov	 edx, DWORD PTR [esi]
  000d3	0f b7 46 06	 movzx	 eax, WORD PTR [esi+6]
  000d7	53		 push	 ebx
  000d8	52		 push	 edx
  000d9	50		 push	 eax
  000da	b9 00 00 00 00	 mov	 ecx, OFFSET ?g_LuckyItemManager@@3ULuckyItemManager@@A ; g_LuckyItemManager
  000df	e8 00 00 00 00	 call	 ?GDReqLuckyItemDelete@LuckyItemManager@@QAEXFJH@Z ; LuckyItemManager::GDReqLuckyItemDelete
  000e4	5f		 pop	 edi
  000e5	5b		 pop	 ebx

; 4450 : 		return 2;

  000e6	b8 02 00 00 00	 mov	 eax, 2
  000eb	5e		 pop	 esi

; 4455 : 	}
; 4456 : 
; 4457 : }

  000ec	5d		 pop	 ebp
  000ed	c2 08 00	 ret	 8
$LN2@LuckyItemA:
  000f0	5f		 pop	 edi
  000f1	5b		 pop	 ebx

; 4451 : 	}
; 4452 : 	else
; 4453 : 	{
; 4454 : 		return 1;

  000f2	b8 01 00 00 00	 mov	 eax, 1
  000f7	5e		 pop	 esi

; 4455 : 	}
; 4456 : 
; 4457 : }

  000f8	5d		 pop	 ebp
  000f9	c2 08 00	 ret	 8
?LuckyItemArmorDurabilityDown@CItem@@QAEHHH@Z ENDP	; CItem::LuckyItemArmorDurabilityDown
_TEXT	ENDS
PUBLIC	?SimpleDurabilityDown@CItem@@QAEHH@Z		; CItem::SimpleDurabilityDown
; Function compile flags: /Ogtp
;	COMDAT ?SimpleDurabilityDown@CItem@@QAEHH@Z
_TEXT	SEGMENT
tv133 = -4						; size = 4
_iDecValue$ = 8						; size = 4
?SimpleDurabilityDown@CItem@@QAEHH@Z PROC		; CItem::SimpleDurabilityDown, COMDAT
; _this$ = ecx

; 3796 : {

  00000	55		 push	 ebp
  00001	8b ec		 mov	 ebp, esp
  00003	51		 push	 ecx

; 3797 : 	this->m_Durability -= 1.0f ;

  00004	d9 41 24	 fld	 DWORD PTR [ecx+36]
  00007	56		 push	 esi
  00008	dc 25 00 00 00
	00		 fsub	 QWORD PTR __real@3ff0000000000000
  0000e	8d 71 24	 lea	 esi, DWORD PTR [ecx+36]
  00011	d9 5d fc	 fstp	 DWORD PTR tv133[ebp]
  00014	d9 45 fc	 fld	 DWORD PTR tv133[ebp]
  00017	d9 16		 fst	 DWORD PTR [esi]

; 3798 : 
; 3799 : 	if ( this->m_Durability < 0 )

  00019	d9 ee		 fldz
  0001b	d8 d1		 fcom	 ST(1)
  0001d	df e0		 fnstsw	 ax
  0001f	dd d9		 fstp	 ST(1)
  00021	f6 c4 41	 test	 ah, 65			; 00000041H
  00024	75 0b		 jne	 SHORT $LN6@SimpleDura

; 3800 : 	{
; 3801 : 		this->m_Durability = 0.0f;

  00026	d9 1e		 fstp	 DWORD PTR [esi]

; 3802 : 		return 0;

  00028	33 c0		 xor	 eax, eax
  0002a	5e		 pop	 esi

; 3811 : }

  0002b	8b e5		 mov	 esp, ebp
  0002d	5d		 pop	 ebp
  0002e	c2 04 00	 ret	 4
$LN6@SimpleDura:

; 3798 : 
; 3799 : 	if ( this->m_Durability < 0 )

  00031	dd d8		 fstp	 ST(0)

; 3803 : 	}
; 3804 : 
; 3805 : 	if ( this->CheckDurabilityState() != 0 )

  00033	e8 00 00 00 00	 call	 ?CheckDurabilityState@CItem@@QAEHXZ ; CItem::CheckDurabilityState
  00038	85 c0		 test	 eax, eax
  0003a	74 0c		 je	 SHORT $LN1@SimpleDura

; 3806 : 	{
; 3807 : 		return 2;

  0003c	b8 02 00 00 00	 mov	 eax, 2
  00041	5e		 pop	 esi

; 3811 : }

  00042	8b e5		 mov	 esp, ebp
  00044	5d		 pop	 ebp
  00045	c2 04 00	 ret	 4
$LN1@SimpleDura:

; 3808 : 	}
; 3809 : 
; 3810 : 	return (int)this->m_Durability;

  00048	d9 06		 fld	 DWORD PTR [esi]
  0004a	e8 00 00 00 00	 call	 __ftol2_sse
  0004f	5e		 pop	 esi

; 3811 : }

  00050	8b e5		 mov	 esp, ebp
  00052	5d		 pop	 ebp
  00053	c2 04 00	 ret	 4
?SimpleDurabilityDown@CItem@@QAEHH@Z ENDP		; CItem::SimpleDurabilityDown
_TEXT	ENDS
PUBLIC	__real@4081a00000000000
PUBLIC	?DurabilityDown@CItem@@QAEHHH@Z			; CItem::DurabilityDown
EXTRN	?CheckUser@CZtLicense@@QAE_NH@Z:PROC		; CZtLicense::CheckUser
EXTRN	?g_ZtLicense@@3VCZtLicense@@A:BYTE		; g_ZtLicense
EXTRN	?ZtConfig@@3VcZtConfigs@@A:BYTE			; ZtConfig
;	COMDAT __real@4081a00000000000
CONST	SEGMENT
__real@4081a00000000000 DQ 04081a00000000000r	; 564
; Function compile flags: /Ogtp
CONST	ENDS
;	COMDAT ?DurabilityDown@CItem@@QAEHHH@Z
_TEXT	SEGMENT
tv227 = 8						; size = 4
_dur$ = 8						; size = 4
_iDecValue$ = 12					; size = 4
?DurabilityDown@CItem@@QAEHHH@Z PROC			; CItem::DurabilityDown, COMDAT
; _this$ = ecx

; 3814 : {

  00000	55		 push	 ebp
  00001	8b ec		 mov	 ebp, esp

; 3815 : 	if ( this->m_Durability <= 0 )

  00003	d9 ee		 fldz
  00005	53		 push	 ebx
  00006	56		 push	 esi
  00007	8b f1		 mov	 esi, ecx
  00009	d8 56 24	 fcom	 DWORD PTR [esi+36]
  0000c	df e0		 fnstsw	 ax
  0000e	f6 c4 01	 test	 ah, 1
  00011	75 0a		 jne	 SHORT $LN9@Durability@2
$LN21@Durability@2:
  00013	5e		 pop	 esi
  00014	dd d8		 fstp	 ST(0)

; 3816 : 	{
; 3817 : 		return 0;

  00016	33 c0		 xor	 eax, eax
  00018	5b		 pop	 ebx

; 3865 : }

  00019	5d		 pop	 ebp
  0001a	c2 08 00	 ret	 8
$LN9@Durability@2:

; 3818 : 	}
; 3819 : #if(WAITENI_CUSTOM)
; 3820 : 	if(!ZtConfig.CommonServer.DurabilityEnable)

  0001d	83 3d 3c 01 00
	00 00		 cmp	 DWORD PTR ?ZtConfig@@3VcZtConfigs@@A+316, 0

; 3821 : 	{
; 3822 : 		return 0;

  00024	74 ed		 je	 SHORT $LN21@Durability@2

; 3823 : 	}
; 3824 : #endif
; 3825 : 	this->m_DurabilitySmall += dur;
; 3826 : 
; 3827 : 	int DurabilitySmall = 564;
; 3828 : 
; 3829 : 	if(gObj[iDecValue].m_MPSkillOpt.MpsDownDur2 > 0)

  00026	8b 4d 0c	 mov	 ecx, DWORD PTR _iDecValue$[ebp]
  00029	66 8b 45 08	 mov	 ax, WORD PTR _dur$[ebp]
  0002d	69 c9 50 2b 00
	00		 imul	 ecx, 11088		; 00002b50H
  00033	66 01 46 28	 add	 WORD PTR [esi+40], ax
  00037	8b 15 00 00 00
	00		 mov	 edx, DWORD PTR ?gObj@@3PAUOBJECTSTRUCT@@A ; gObj
  0003d	8d 8c 11 4c 26
	00 00		 lea	 ecx, DWORD PTR [ecx+edx+9804]
  00044	57		 push	 edi
  00045	bf 34 02 00 00	 mov	 edi, 564		; 00000234H
  0004a	d8 19		 fcomp	 DWORD PTR [ecx]
  0004c	df e0		 fnstsw	 ax
  0004e	f6 c4 05	 test	 ah, 5
  00051	7a 1b		 jp	 SHORT $LN7@Durability@2

; 3830 : 	{
; 3831 : 		DurabilitySmall += DurabilitySmall * gObj[iDecValue].m_MPSkillOpt.MpsDownDur2 / 100;

  00053	d9 01		 fld	 DWORD PTR [ecx]
  00055	dd 05 00 00 00
	00		 fld	 QWORD PTR __real@4081a00000000000
  0005b	dc c9		 fmul	 ST(1), ST(0)
  0005d	d9 c9		 fxch	 ST(1)
  0005f	dc 35 00 00 00
	00		 fdiv	 QWORD PTR __real@4059000000000000
  00065	de c1		 faddp	 ST(1), ST(0)
  00067	e8 00 00 00 00	 call	 __ftol2_sse
  0006c	8b f8		 mov	 edi, eax
$LN7@Durability@2:

; 3832 : 	}
; 3833 : 
; 3834 : 	if(g_ZtLicense.CheckUser(eZtUB::Artem) || g_ZtLicense.CheckUser(eZtUB::Artem2) || 
; 3835 : 		g_ZtLicense.CheckUser(eZtUB::Gredy) || g_ZtLicense.CheckUser(eZtUB::Gredy2) || g_ZtLicense.CheckUser(eZtUB::GredyLocal))

  0006e	6a 30		 push	 48			; 00000030H
  00070	b9 00 00 00 00	 mov	 ecx, OFFSET ?g_ZtLicense@@3VCZtLicense@@A ; g_ZtLicense
  00075	e8 00 00 00 00	 call	 ?CheckUser@CZtLicense@@QAE_NH@Z ; CZtLicense::CheckUser
  0007a	84 c0		 test	 al, al
  0007c	75 40		 jne	 SHORT $LN5@Durability@2
  0007e	6a 31		 push	 49			; 00000031H
  00080	b9 00 00 00 00	 mov	 ecx, OFFSET ?g_ZtLicense@@3VCZtLicense@@A ; g_ZtLicense
  00085	e8 00 00 00 00	 call	 ?CheckUser@CZtLicense@@QAE_NH@Z ; CZtLicense::CheckUser
  0008a	84 c0		 test	 al, al
  0008c	75 30		 jne	 SHORT $LN5@Durability@2
  0008e	6a 20		 push	 32			; 00000020H
  00090	b9 00 00 00 00	 mov	 ecx, OFFSET ?g_ZtLicense@@3VCZtLicense@@A ; g_ZtLicense
  00095	e8 00 00 00 00	 call	 ?CheckUser@CZtLicense@@QAE_NH@Z ; CZtLicense::CheckUser
  0009a	84 c0		 test	 al, al
  0009c	75 20		 jne	 SHORT $LN5@Durability@2
  0009e	6a 22		 push	 34			; 00000022H
  000a0	b9 00 00 00 00	 mov	 ecx, OFFSET ?g_ZtLicense@@3VCZtLicense@@A ; g_ZtLicense
  000a5	e8 00 00 00 00	 call	 ?CheckUser@CZtLicense@@QAE_NH@Z ; CZtLicense::CheckUser
  000aa	84 c0		 test	 al, al
  000ac	75 10		 jne	 SHORT $LN5@Durability@2
  000ae	6a 21		 push	 33			; 00000021H
  000b0	b9 00 00 00 00	 mov	 ecx, OFFSET ?g_ZtLicense@@3VCZtLicense@@A ; g_ZtLicense
  000b5	e8 00 00 00 00	 call	 ?CheckUser@CZtLicense@@QAE_NH@Z ; CZtLicense::CheckUser
  000ba	84 c0		 test	 al, al
  000bc	74 03		 je	 SHORT $LN6@Durability@2
$LN5@Durability@2:

; 3836 : 	{
; 3837 : 		DurabilitySmall *= 3;

  000be	8d 3c 7f	 lea	 edi, DWORD PTR [edi+edi*2]
$LN6@Durability@2:

; 3838 : 	}
; 3839 : 
; 3840 : #if(WAITENI_CUSTOM)
; 3841 : 	if(ZtConfig.CommonServer.DurabilityEnable)

  000c1	83 3d 3c 01 00
	00 00		 cmp	 DWORD PTR ?ZtConfig@@3VcZtConfigs@@A+316, 0
  000c8	74 07		 je	 SHORT $LN4@Durability@2

; 3842 : 	{
; 3843 : 		DurabilitySmall *= ZtConfig.CommonServer.DurabilityMaxCount;

  000ca	0f af 3d 40 01
	00 00		 imul	 edi, DWORD PTR ?ZtConfig@@3VcZtConfigs@@A+320
$LN4@Durability@2:

; 3844 : 	}
; 3845 : #endif
; 3846 : 
; 3847 : 	if ( this->m_DurabilitySmall > DurabilitySmall )

  000d1	0f b7 4e 28	 movzx	 ecx, WORD PTR [esi+40]
  000d5	3b cf		 cmp	 ecx, edi
  000d7	5f		 pop	 edi
  000d8	7e 52		 jle	 SHORT $LN3@Durability@2

; 3848 : 	{
; 3849 : 		this->m_DurabilitySmall = 0;
; 3850 : 		this->m_Durability -= 1.0f;

  000da	d9 46 24	 fld	 DWORD PTR [esi+36]
  000dd	33 d2		 xor	 edx, edx
  000df	dc 25 00 00 00
	00		 fsub	 QWORD PTR __real@3ff0000000000000
  000e5	66 89 56 28	 mov	 WORD PTR [esi+40], dx
  000e9	d9 5d 08	 fstp	 DWORD PTR tv227[ebp]
  000ec	d9 45 08	 fld	 DWORD PTR tv227[ebp]
  000ef	d9 56 24	 fst	 DWORD PTR [esi+36]

; 3851 : 
; 3852 : 		if ( this ->m_Durability < 0.0f )

  000f2	d9 ee		 fldz
  000f4	d8 d1		 fcom	 ST(1)
  000f6	df e0		 fnstsw	 ax
  000f8	dd d9		 fstp	 ST(1)
  000fa	f6 c4 41	 test	 ah, 65			; 00000041H
  000fd	75 17		 jne	 SHORT $LN19@Durability@2

; 3853 : 		{
; 3854 : 			this->m_Durability = 0;
; 3855 : 		}
; 3856 : 
; 3857 : 		if ( this->CheckDurabilityState() != FALSE )

  000ff	8b ce		 mov	 ecx, esi
  00101	d9 5e 24	 fstp	 DWORD PTR [esi+36]
  00104	e8 00 00 00 00	 call	 ?CheckDurabilityState@CItem@@QAEHXZ ; CItem::CheckDurabilityState
  00109	f7 d8		 neg	 eax
  0010b	1b c0		 sbb	 eax, eax
  0010d	f7 d8		 neg	 eax
  0010f	5e		 pop	 esi
  00110	40		 inc	 eax
  00111	5b		 pop	 ebx

; 3865 : }

  00112	5d		 pop	 ebp
  00113	c2 08 00	 ret	 8
$LN19@Durability@2:

; 3853 : 		{
; 3854 : 			this->m_Durability = 0;
; 3855 : 		}
; 3856 : 
; 3857 : 		if ( this->CheckDurabilityState() != FALSE )

  00116	8b ce		 mov	 ecx, esi
  00118	dd d8		 fstp	 ST(0)
  0011a	e8 00 00 00 00	 call	 ?CheckDurabilityState@CItem@@QAEHXZ ; CItem::CheckDurabilityState
  0011f	f7 d8		 neg	 eax
  00121	1b c0		 sbb	 eax, eax
  00123	f7 d8		 neg	 eax
  00125	5e		 pop	 esi
  00126	40		 inc	 eax
  00127	5b		 pop	 ebx

; 3865 : }

  00128	5d		 pop	 ebp
  00129	c2 08 00	 ret	 8
$LN3@Durability@2:

; 3858 : 		{
; 3859 : 			return 2;
; 3860 : 		}
; 3861 : 		return 1;
; 3862 : 	}
; 3863 : 	
; 3864 : 	return (int)this->m_Durability;

  0012c	d9 46 24	 fld	 DWORD PTR [esi+36]
  0012f	e8 00 00 00 00	 call	 __ftol2_sse
  00134	5e		 pop	 esi
  00135	5b		 pop	 ebx

; 3865 : }

  00136	5d		 pop	 ebp
  00137	c2 08 00	 ret	 8
?DurabilityDown@CItem@@QAEHHH@Z ENDP			; CItem::DurabilityDown
_TEXT	ENDS
PUBLIC	__real@408f400000000000
PUBLIC	?DurabilityDown2@CItem@@QAEHHH@Z		; CItem::DurabilityDown2
;	COMDAT __real@408f400000000000
CONST	SEGMENT
__real@408f400000000000 DQ 0408f400000000000r	; 1000
; Function compile flags: /Ogtp
CONST	ENDS
;	COMDAT ?DurabilityDown2@CItem@@QAEHHH@Z
_TEXT	SEGMENT
tv227 = 8						; size = 4
_dur$ = 8						; size = 4
_iDecValue$ = 12					; size = 4
?DurabilityDown2@CItem@@QAEHHH@Z PROC			; CItem::DurabilityDown2, COMDAT
; _this$ = ecx

; 3868 : {

  00000	55		 push	 ebp
  00001	8b ec		 mov	 ebp, esp

; 3869 : 	if ( this->m_Durability <= 0 )

  00003	d9 ee		 fldz
  00005	56		 push	 esi
  00006	8b f1		 mov	 esi, ecx
  00008	d8 56 24	 fcom	 DWORD PTR [esi+36]
  0000b	df e0		 fnstsw	 ax
  0000d	f6 c4 01	 test	 ah, 1
  00010	75 09		 jne	 SHORT $LN9@Durability@3
$LN21@Durability@3:
  00012	dd d8		 fstp	 ST(0)
$LN3@Durability@3:

; 3910 : 		{
; 3911 : 			return 2;
; 3912 : 		}
; 3913 : 		return 1;
; 3914 : 	}
; 3915 : 	
; 3916 : 	return 0;

  00014	33 c0		 xor	 eax, eax
  00016	5e		 pop	 esi

; 3917 : }

  00017	5d		 pop	 ebp
  00018	c2 08 00	 ret	 8
$LN9@Durability@3:

; 3870 : 	{
; 3871 : 		return 0;
; 3872 : 	}
; 3873 : #if(WAITENI_CUSTOM)
; 3874 : 	if(!ZtConfig.CommonServer.DurabilityEnable)

  0001b	83 3d 3c 01 00
	00 00		 cmp	 DWORD PTR ?ZtConfig@@3VcZtConfigs@@A+316, 0

; 3875 : 	{
; 3876 : 		return 0;

  00022	74 ee		 je	 SHORT $LN21@Durability@3

; 3877 : 	}
; 3878 : #endif
; 3879 : 	this->m_DurabilitySmall += dur;
; 3880 : 
; 3881 : 	int DurabilitySmall = 1000;
; 3882 : 
; 3883 : 	if(gObj[iDecValue].m_MPSkillOpt.MpsDownDur1 > 0) //season3 add-on

  00024	8b 4d 0c	 mov	 ecx, DWORD PTR _iDecValue$[ebp]
  00027	66 8b 45 08	 mov	 ax, WORD PTR _dur$[ebp]
  0002b	69 c9 50 2b 00
	00		 imul	 ecx, 11088		; 00002b50H
  00031	66 01 46 28	 add	 WORD PTR [esi+40], ax
  00035	8b 15 00 00 00
	00		 mov	 edx, DWORD PTR ?gObj@@3PAUOBJECTSTRUCT@@A ; gObj
  0003b	8d 8c 11 44 26
	00 00		 lea	 ecx, DWORD PTR [ecx+edx+9796]
  00042	57		 push	 edi
  00043	bf e8 03 00 00	 mov	 edi, 1000		; 000003e8H
  00048	d8 19		 fcomp	 DWORD PTR [ecx]
  0004a	df e0		 fnstsw	 ax
  0004c	f6 c4 05	 test	 ah, 5
  0004f	7a 1b		 jp	 SHORT $LN7@Durability@3

; 3884 : 	{
; 3885 : 		DurabilitySmall += DurabilitySmall * gObj[iDecValue].m_MPSkillOpt.MpsDownDur1 / 100;

  00051	d9 01		 fld	 DWORD PTR [ecx]
  00053	dd 05 00 00 00
	00		 fld	 QWORD PTR __real@408f400000000000
  00059	dc c9		 fmul	 ST(1), ST(0)
  0005b	d9 c9		 fxch	 ST(1)
  0005d	dc 35 00 00 00
	00		 fdiv	 QWORD PTR __real@4059000000000000
  00063	de c1		 faddp	 ST(1), ST(0)
  00065	e8 00 00 00 00	 call	 __ftol2_sse
  0006a	8b f8		 mov	 edi, eax
$LN7@Durability@3:

; 3886 : 	}
; 3887 : 
; 3888 : 	if(g_ZtLicense.CheckUser(eZtUB::Artem) || g_ZtLicense.CheckUser(eZtUB::Artem2) || 
; 3889 : 		g_ZtLicense.CheckUser(eZtUB::Gredy) || g_ZtLicense.CheckUser(eZtUB::Gredy2) || g_ZtLicense.CheckUser(eZtUB::GredyLocal))

  0006c	6a 30		 push	 48			; 00000030H
  0006e	b9 00 00 00 00	 mov	 ecx, OFFSET ?g_ZtLicense@@3VCZtLicense@@A ; g_ZtLicense
  00073	e8 00 00 00 00	 call	 ?CheckUser@CZtLicense@@QAE_NH@Z ; CZtLicense::CheckUser
  00078	84 c0		 test	 al, al
  0007a	75 40		 jne	 SHORT $LN5@Durability@3
  0007c	6a 31		 push	 49			; 00000031H
  0007e	b9 00 00 00 00	 mov	 ecx, OFFSET ?g_ZtLicense@@3VCZtLicense@@A ; g_ZtLicense
  00083	e8 00 00 00 00	 call	 ?CheckUser@CZtLicense@@QAE_NH@Z ; CZtLicense::CheckUser
  00088	84 c0		 test	 al, al
  0008a	75 30		 jne	 SHORT $LN5@Durability@3
  0008c	6a 20		 push	 32			; 00000020H
  0008e	b9 00 00 00 00	 mov	 ecx, OFFSET ?g_ZtLicense@@3VCZtLicense@@A ; g_ZtLicense
  00093	e8 00 00 00 00	 call	 ?CheckUser@CZtLicense@@QAE_NH@Z ; CZtLicense::CheckUser
  00098	84 c0		 test	 al, al
  0009a	75 20		 jne	 SHORT $LN5@Durability@3
  0009c	6a 22		 push	 34			; 00000022H
  0009e	b9 00 00 00 00	 mov	 ecx, OFFSET ?g_ZtLicense@@3VCZtLicense@@A ; g_ZtLicense
  000a3	e8 00 00 00 00	 call	 ?CheckUser@CZtLicense@@QAE_NH@Z ; CZtLicense::CheckUser
  000a8	84 c0		 test	 al, al
  000aa	75 10		 jne	 SHORT $LN5@Durability@3
  000ac	6a 21		 push	 33			; 00000021H
  000ae	b9 00 00 00 00	 mov	 ecx, OFFSET ?g_ZtLicense@@3VCZtLicense@@A ; g_ZtLicense
  000b3	e8 00 00 00 00	 call	 ?CheckUser@CZtLicense@@QAE_NH@Z ; CZtLicense::CheckUser
  000b8	84 c0		 test	 al, al
  000ba	74 03		 je	 SHORT $LN6@Durability@3
$LN5@Durability@3:

; 3890 : 	{
; 3891 : 		DurabilitySmall *= 3;

  000bc	8d 3c 7f	 lea	 edi, DWORD PTR [edi+edi*2]
$LN6@Durability@3:

; 3892 : 	}
; 3893 : #if(WAITENI_CUSTOM)
; 3894 : 	if(ZtConfig.CommonServer.DurabilityEnable)

  000bf	83 3d 3c 01 00
	00 00		 cmp	 DWORD PTR ?ZtConfig@@3VcZtConfigs@@A+316, 0
  000c6	74 07		 je	 SHORT $LN4@Durability@3

; 3895 : 	{
; 3896 : 		DurabilitySmall *= ZtConfig.CommonServer.DurabilityMaxCount;

  000c8	0f af 3d 40 01
	00 00		 imul	 edi, DWORD PTR ?ZtConfig@@3VcZtConfigs@@A+320
$LN4@Durability@3:

; 3897 : 	}
; 3898 : #endif	
; 3899 : 	if ( this->m_DurabilitySmall > DurabilitySmall )

  000cf	0f b7 4e 28	 movzx	 ecx, WORD PTR [esi+40]
  000d3	3b cf		 cmp	 ecx, edi
  000d5	5f		 pop	 edi
  000d6	0f 8e 38 ff ff
	ff		 jle	 $LN3@Durability@3

; 3900 : 	{
; 3901 : 		this->m_DurabilitySmall = 0;
; 3902 : 		this->m_Durability -= 1.0f;

  000dc	d9 46 24	 fld	 DWORD PTR [esi+36]
  000df	33 d2		 xor	 edx, edx
  000e1	dc 25 00 00 00
	00		 fsub	 QWORD PTR __real@3ff0000000000000
  000e7	66 89 56 28	 mov	 WORD PTR [esi+40], dx
  000eb	d9 5d 08	 fstp	 DWORD PTR tv227[ebp]
  000ee	d9 45 08	 fld	 DWORD PTR tv227[ebp]
  000f1	d9 56 24	 fst	 DWORD PTR [esi+36]

; 3903 : 
; 3904 : 		if ( this->m_Durability < 0.0f )

  000f4	d9 ee		 fldz
  000f6	d8 d1		 fcom	 ST(1)
  000f8	df e0		 fnstsw	 ax
  000fa	dd d9		 fstp	 ST(1)
  000fc	f6 c4 41	 test	 ah, 65			; 00000041H
  000ff	75 16		 jne	 SHORT $LN19@Durability@3

; 3905 : 		{
; 3906 : 			this->m_Durability = 0;
; 3907 : 		}
; 3908 : 
; 3909 : 		if ( this->CheckDurabilityState() != FALSE )

  00101	8b ce		 mov	 ecx, esi
  00103	d9 5e 24	 fstp	 DWORD PTR [esi+36]
  00106	e8 00 00 00 00	 call	 ?CheckDurabilityState@CItem@@QAEHXZ ; CItem::CheckDurabilityState
  0010b	f7 d8		 neg	 eax
  0010d	1b c0		 sbb	 eax, eax
  0010f	f7 d8		 neg	 eax
  00111	40		 inc	 eax
  00112	5e		 pop	 esi

; 3917 : }

  00113	5d		 pop	 ebp
  00114	c2 08 00	 ret	 8
$LN19@Durability@3:

; 3905 : 		{
; 3906 : 			this->m_Durability = 0;
; 3907 : 		}
; 3908 : 
; 3909 : 		if ( this->CheckDurabilityState() != FALSE )

  00117	8b ce		 mov	 ecx, esi
  00119	dd d8		 fstp	 ST(0)
  0011b	e8 00 00 00 00	 call	 ?CheckDurabilityState@CItem@@QAEHXZ ; CItem::CheckDurabilityState
  00120	f7 d8		 neg	 eax
  00122	1b c0		 sbb	 eax, eax
  00124	f7 d8		 neg	 eax
  00126	40		 inc	 eax
  00127	5e		 pop	 esi

; 3917 : }

  00128	5d		 pop	 ebp
  00129	c2 08 00	 ret	 8
?DurabilityDown2@CItem@@QAEHHH@Z ENDP			; CItem::DurabilityDown2
_TEXT	ENDS
PUBLIC	??_C@_0BC@PKKGKBLO@damagemin?$MA?L?50?$MA?L?$LE?Y?$AA@ ; `string'
PUBLIC	?NormalWeaponDurabilityDown@CItem@@QAEHHH@Z	; CItem::NormalWeaponDurabilityDown
;	COMDAT ??_C@_0BC@PKKGKBLO@damagemin?$MA?L?50?$MA?L?$LE?Y?$AA@
CONST	SEGMENT
??_C@_0BC@PKKGKBLO@damagemin?$MA?L?50?$MA?L?$LE?Y?$AA@ DB 'damagemin', 0c0H
	DB	0ccH, ' 0', 0c0H, 0ccH, 0b4H, 0d9H, 00H	; `string'
; Function compile flags: /Ogtp
CONST	ENDS
;	COMDAT ?NormalWeaponDurabilityDown@CItem@@QAEHHH@Z
_TEXT	SEGMENT
_plusdamage$ = -4					; size = 4
tv277 = 8						; size = 4
_defense$ = 8						; size = 4
_aIndex$ = 12						; size = 4
?NormalWeaponDurabilityDown@CItem@@QAEHHH@Z PROC	; CItem::NormalWeaponDurabilityDown, COMDAT
; _this$ = ecx

; 3920 : {

  00000	55		 push	 ebp
  00001	8b ec		 mov	 ebp, esp
  00003	51		 push	 ecx

; 3921 : 	if ( this->m_Durability <= 0 )

  00004	d9 ee		 fldz
  00006	56		 push	 esi
  00007	8b f1		 mov	 esi, ecx
  00009	d8 5e 24	 fcomp	 DWORD PTR [esi+36]
  0000c	df e0		 fnstsw	 ax
  0000e	f6 c4 01	 test	 ah, 1
  00011	75 09		 jne	 SHORT $LN11@NormalWeap
$LN18@NormalWeap:

; 3922 : 	{
; 3923 : 		return 0;

  00013	33 c0		 xor	 eax, eax
  00015	5e		 pop	 esi

; 3992 : }

  00016	8b e5		 mov	 esp, ebp
  00018	5d		 pop	 ebp
  00019	c2 08 00	 ret	 8
$LN11@NormalWeap:

; 3924 : 	}
; 3925 : #if(WAITENI_CUSTOM)
; 3926 : 	if(!ZtConfig.CommonServer.DurabilityEnable)

  0001c	83 3d 3c 01 00
	00 00		 cmp	 DWORD PTR ?ZtConfig@@3VcZtConfigs@@A+316, 0

; 3927 : 	{
; 3928 : 		return 0;

  00023	74 ee		 je	 SHORT $LN18@NormalWeap

; 3929 : 	}
; 3930 : #endif
; 3931 : 	int damagemin = this->m_DamageMinOrigin; //2

  00025	57		 push	 edi
  00026	0f b7 7e 1c	 movzx	 edi, WORD PTR [esi+28]

; 3932 : 	int plusdamage = 0; //3
; 3933 : 	this->PlusSpecial(&plusdamage, 80);

  0002a	6a 50		 push	 80			; 00000050H
  0002c	8d 45 fc	 lea	 eax, DWORD PTR _plusdamage$[ebp]
  0002f	50		 push	 eax
  00030	c7 45 fc 00 00
	00 00		 mov	 DWORD PTR _plusdamage$[ebp], 0
  00037	e8 00 00 00 00	 call	 ?PlusSpecial@CItem@@QAEXPAHH@Z ; CItem::PlusSpecial

; 3934 : 
; 3935 : 	if ( damagemin == 0 )

  0003c	85 ff		 test	 edi, edi
  0003e	75 18		 jne	 SHORT $LN9@NormalWeap

; 3936 : 	{
; 3937 : 		LogAdd("damagemin이 0이다");

  00040	68 00 00 00 00	 push	 OFFSET ??_C@_0BC@PKKGKBLO@damagemin?$MA?L?50?$MA?L?$LE?Y?$AA@
  00045	ff 15 00 00 00
	00		 call	 DWORD PTR ?LogAdd@@3P6AXPADZZA ; LogAdd
  0004b	83 c4 04	 add	 esp, 4
$LN3@NormalWeap:

; 3984 : 		{
; 3985 : 			return 2;
; 3986 : 		}
; 3987 : 		
; 3988 : 		return 1;
; 3989 : 		
; 3990 : 	}
; 3991 : 	return 0;

  0004e	5f		 pop	 edi
  0004f	33 c0		 xor	 eax, eax
  00051	5e		 pop	 esi

; 3992 : }

  00052	8b e5		 mov	 esp, ebp
  00054	5d		 pop	 ebp
  00055	c2 08 00	 ret	 8
$LN9@NormalWeap:

; 3938 : 		return 0;
; 3939 : 	}
; 3940 : 
; 3941 : 	int div = damagemin + damagemin/2 + plusdamage; //4

  00058	8b c7		 mov	 eax, edi
  0005a	99		 cdq
  0005b	2b c2		 sub	 eax, edx
  0005d	8b c8		 mov	 ecx, eax
  0005f	d1 f9		 sar	 ecx, 1
  00061	03 4d fc	 add	 ecx, DWORD PTR _plusdamage$[ebp]
  00064	03 cf		 add	 ecx, edi

; 3942 : 
; 3943 : 	if ( div == 0 )
; 3944 : 	{
; 3945 : 		return 0;

  00066	74 e6		 je	 SHORT $LN3@NormalWeap

; 3946 : 	}
; 3947 : 
; 3948 : 	int DecreaseDur = (defense*2)/div; //5

  00068	8b 45 08	 mov	 eax, DWORD PTR _defense$[ebp]

; 3949 : 
; 3950 : 	DecreaseDur -= DecreaseDur*(int)this->m_SocketBonus/100; //season4 add-on
; 3951 : 
; 3952 : 	this->m_DurabilitySmall += DecreaseDur;
; 3953 : 
; 3954 : 	int DurabilitySmall = 564;
; 3955 : 
; 3956 : 
; 3957 : 	if(gObj[aIndex].m_MPSkillOpt.MpsDownDur1 > 0) //season3 add-on

  0006b	d9 ee		 fldz
  0006d	03 c0		 add	 eax, eax
  0006f	99		 cdq
  00070	f7 f9		 idiv	 ecx
  00072	0f b6 96 d1 00
	00 00		 movzx	 edx, BYTE PTR [esi+209]
  00079	bf 34 02 00 00	 mov	 edi, 564		; 00000234H
  0007e	8b c8		 mov	 ecx, eax
  00080	0f af d1	 imul	 edx, ecx
  00083	b8 1f 85 eb 51	 mov	 eax, 1374389535		; 51eb851fH
  00088	f7 ea		 imul	 edx
  0008a	c1 fa 05	 sar	 edx, 5
  0008d	8b c2		 mov	 eax, edx
  0008f	c1 e8 1f	 shr	 eax, 31			; 0000001fH
  00092	03 c2		 add	 eax, edx
  00094	2b c8		 sub	 ecx, eax
  00096	66 01 4e 28	 add	 WORD PTR [esi+40], cx
  0009a	8b 4d 0c	 mov	 ecx, DWORD PTR _aIndex$[ebp]
  0009d	8b 15 00 00 00
	00		 mov	 edx, DWORD PTR ?gObj@@3PAUOBJECTSTRUCT@@A ; gObj
  000a3	69 c9 50 2b 00
	00		 imul	 ecx, 11088		; 00002b50H
  000a9	d8 9c 11 44 26
	00 00		 fcomp	 DWORD PTR [ecx+edx+9796]
  000b0	df e0		 fnstsw	 ax
  000b2	8d 8c 11 44 26
	00 00		 lea	 ecx, DWORD PTR [ecx+edx+9796]
  000b9	f6 c4 05	 test	 ah, 5
  000bc	7a 1b		 jp	 SHORT $LN7@NormalWeap

; 3958 : 	{
; 3959 : 		DurabilitySmall += DurabilitySmall * gObj[aIndex].m_MPSkillOpt.MpsDownDur1 / 100;

  000be	d9 01		 fld	 DWORD PTR [ecx]
  000c0	dd 05 00 00 00
	00		 fld	 QWORD PTR __real@4081a00000000000
  000c6	dc c9		 fmul	 ST(1), ST(0)
  000c8	d9 c9		 fxch	 ST(1)
  000ca	dc 35 00 00 00
	00		 fdiv	 QWORD PTR __real@4059000000000000
  000d0	de c1		 faddp	 ST(1), ST(0)
  000d2	e8 00 00 00 00	 call	 __ftol2_sse
  000d7	8b f8		 mov	 edi, eax
$LN7@NormalWeap:

; 3960 : 	}
; 3961 : 
; 3962 : 	if(g_ZtLicense.CheckUser(eZtUB::Artem) || g_ZtLicense.CheckUser(eZtUB::Artem2) || 
; 3963 : 		g_ZtLicense.CheckUser(eZtUB::Gredy) || g_ZtLicense.CheckUser(eZtUB::Gredy2) || g_ZtLicense.CheckUser(eZtUB::GredyLocal))

  000d9	6a 30		 push	 48			; 00000030H
  000db	b9 00 00 00 00	 mov	 ecx, OFFSET ?g_ZtLicense@@3VCZtLicense@@A ; g_ZtLicense
  000e0	e8 00 00 00 00	 call	 ?CheckUser@CZtLicense@@QAE_NH@Z ; CZtLicense::CheckUser
  000e5	84 c0		 test	 al, al
  000e7	75 40		 jne	 SHORT $LN5@NormalWeap
  000e9	6a 31		 push	 49			; 00000031H
  000eb	b9 00 00 00 00	 mov	 ecx, OFFSET ?g_ZtLicense@@3VCZtLicense@@A ; g_ZtLicense
  000f0	e8 00 00 00 00	 call	 ?CheckUser@CZtLicense@@QAE_NH@Z ; CZtLicense::CheckUser
  000f5	84 c0		 test	 al, al
  000f7	75 30		 jne	 SHORT $LN5@NormalWeap
  000f9	6a 20		 push	 32			; 00000020H
  000fb	b9 00 00 00 00	 mov	 ecx, OFFSET ?g_ZtLicense@@3VCZtLicense@@A ; g_ZtLicense
  00100	e8 00 00 00 00	 call	 ?CheckUser@CZtLicense@@QAE_NH@Z ; CZtLicense::CheckUser
  00105	84 c0		 test	 al, al
  00107	75 20		 jne	 SHORT $LN5@NormalWeap
  00109	6a 22		 push	 34			; 00000022H
  0010b	b9 00 00 00 00	 mov	 ecx, OFFSET ?g_ZtLicense@@3VCZtLicense@@A ; g_ZtLicense
  00110	e8 00 00 00 00	 call	 ?CheckUser@CZtLicense@@QAE_NH@Z ; CZtLicense::CheckUser
  00115	84 c0		 test	 al, al
  00117	75 10		 jne	 SHORT $LN5@NormalWeap
  00119	6a 21		 push	 33			; 00000021H
  0011b	b9 00 00 00 00	 mov	 ecx, OFFSET ?g_ZtLicense@@3VCZtLicense@@A ; g_ZtLicense
  00120	e8 00 00 00 00	 call	 ?CheckUser@CZtLicense@@QAE_NH@Z ; CZtLicense::CheckUser
  00125	84 c0		 test	 al, al
  00127	74 03		 je	 SHORT $LN6@NormalWeap
$LN5@NormalWeap:

; 3964 : 	{
; 3965 : 		DurabilitySmall *= 3;

  00129	8d 3c 7f	 lea	 edi, DWORD PTR [edi+edi*2]
$LN6@NormalWeap:

; 3966 : 	}
; 3967 : #if(WAITENI_CUSTOM)
; 3968 : 	if(ZtConfig.CommonServer.DurabilityEnable)

  0012c	83 3d 3c 01 00
	00 00		 cmp	 DWORD PTR ?ZtConfig@@3VcZtConfigs@@A+316, 0
  00133	74 07		 je	 SHORT $LN4@NormalWeap

; 3969 : 	{
; 3970 : 		DurabilitySmall *= ZtConfig.CommonServer.DurabilityMaxCount;

  00135	0f af 3d 40 01
	00 00		 imul	 edi, DWORD PTR ?ZtConfig@@3VcZtConfigs@@A+320
$LN4@NormalWeap:

; 3971 : 	}
; 3972 : #endif
; 3973 : 	if ( this->m_DurabilitySmall > DurabilitySmall )

  0013c	0f b7 4e 28	 movzx	 ecx, WORD PTR [esi+40]
  00140	3b cf		 cmp	 ecx, edi
  00142	0f 8e 06 ff ff
	ff		 jle	 $LN3@NormalWeap

; 3974 : 	{
; 3975 : 		this->m_DurabilitySmall = 0;
; 3976 : 		this->m_Durability -= 1.0f;

  00148	d9 46 24	 fld	 DWORD PTR [esi+36]
  0014b	33 d2		 xor	 edx, edx
  0014d	dc 25 00 00 00
	00		 fsub	 QWORD PTR __real@3ff0000000000000
  00153	66 89 56 28	 mov	 WORD PTR [esi+40], dx
  00157	d9 5d 08	 fstp	 DWORD PTR tv277[ebp]
  0015a	d9 45 08	 fld	 DWORD PTR tv277[ebp]
  0015d	d9 56 24	 fst	 DWORD PTR [esi+36]

; 3977 : 
; 3978 : 		if ( this->m_Durability < 0.0f )

  00160	d9 ee		 fldz
  00162	d8 d1		 fcom	 ST(1)
  00164	df e0		 fnstsw	 ax
  00166	dd d9		 fstp	 ST(1)
  00168	f6 c4 41	 test	 ah, 65			; 00000041H
  0016b	75 19		 jne	 SHORT $LN16@NormalWeap

; 3979 : 		{
; 3980 : 			this->m_Durability = 0;
; 3981 : 		}
; 3982 : 
; 3983 : 		if ( this->CheckDurabilityState() != 0 )

  0016d	8b ce		 mov	 ecx, esi
  0016f	d9 5e 24	 fstp	 DWORD PTR [esi+36]
  00172	e8 00 00 00 00	 call	 ?CheckDurabilityState@CItem@@QAEHXZ ; CItem::CheckDurabilityState
  00177	f7 d8		 neg	 eax
  00179	1b c0		 sbb	 eax, eax
  0017b	f7 d8		 neg	 eax
  0017d	5f		 pop	 edi
  0017e	40		 inc	 eax
  0017f	5e		 pop	 esi

; 3992 : }

  00180	8b e5		 mov	 esp, ebp
  00182	5d		 pop	 ebp
  00183	c2 08 00	 ret	 8
$LN16@NormalWeap:

; 3979 : 		{
; 3980 : 			this->m_Durability = 0;
; 3981 : 		}
; 3982 : 
; 3983 : 		if ( this->CheckDurabilityState() != 0 )

  00186	8b ce		 mov	 ecx, esi
  00188	dd d8		 fstp	 ST(0)
  0018a	e8 00 00 00 00	 call	 ?CheckDurabilityState@CItem@@QAEHXZ ; CItem::CheckDurabilityState
  0018f	f7 d8		 neg	 eax
  00191	1b c0		 sbb	 eax, eax
  00193	f7 d8		 neg	 eax
  00195	5f		 pop	 edi
  00196	40		 inc	 eax
  00197	5e		 pop	 esi

; 3992 : }

  00198	8b e5		 mov	 esp, ebp
  0019a	5d		 pop	 ebp
  0019b	c2 08 00	 ret	 8
?NormalWeaponDurabilityDown@CItem@@QAEHHH@Z ENDP	; CItem::NormalWeaponDurabilityDown
_TEXT	ENDS
PUBLIC	__real@4088600000000000
PUBLIC	?BowWeaponDurabilityDown@CItem@@QAEHHH@Z	; CItem::BowWeaponDurabilityDown
;	COMDAT __real@4088600000000000
CONST	SEGMENT
__real@4088600000000000 DQ 04088600000000000r	; 780
; Function compile flags: /Ogtp
CONST	ENDS
;	COMDAT ?BowWeaponDurabilityDown@CItem@@QAEHHH@Z
_TEXT	SEGMENT
_plusdamage$ = -4					; size = 4
tv276 = 8						; size = 4
_defense$ = 8						; size = 4
_aIndex$ = 12						; size = 4
?BowWeaponDurabilityDown@CItem@@QAEHHH@Z PROC		; CItem::BowWeaponDurabilityDown, COMDAT
; _this$ = ecx

; 3995 : {

  00000	55		 push	 ebp
  00001	8b ec		 mov	 ebp, esp
  00003	51		 push	 ecx

; 3996 : 	if ( this->m_Durability <= 0 )

  00004	d9 ee		 fldz
  00006	56		 push	 esi
  00007	8b f1		 mov	 esi, ecx
  00009	d8 5e 24	 fcomp	 DWORD PTR [esi+36]
  0000c	df e0		 fnstsw	 ax
  0000e	f6 c4 01	 test	 ah, 1
  00011	75 09		 jne	 SHORT $LN10@BowWeaponD
$LN17@BowWeaponD:

; 3997 : 	{
; 3998 : 		return 0;

  00013	33 c0		 xor	 eax, eax
  00015	5e		 pop	 esi

; 4060 : }

  00016	8b e5		 mov	 esp, ebp
  00018	5d		 pop	 ebp
  00019	c2 08 00	 ret	 8
$LN10@BowWeaponD:

; 3999 : 	}
; 4000 : #if(WAITENI_CUSTOM)
; 4001 : 	if(!ZtConfig.CommonServer.DurabilityEnable)

  0001c	83 3d 3c 01 00
	00 00		 cmp	 DWORD PTR ?ZtConfig@@3VcZtConfigs@@A+316, 0

; 4002 : 	{
; 4003 : 		return 0;

  00023	74 ee		 je	 SHORT $LN17@BowWeaponD

; 4004 : 	}
; 4005 : #endif
; 4006 : 	int damagemin = this->m_DamageMinOrigin;

  00025	57		 push	 edi
  00026	0f b7 7e 1c	 movzx	 edi, WORD PTR [esi+28]

; 4007 : 	int plusdamage = 0;
; 4008 : 	this->PlusSpecial(&plusdamage, 80);

  0002a	6a 50		 push	 80			; 00000050H
  0002c	8d 45 fc	 lea	 eax, DWORD PTR _plusdamage$[ebp]
  0002f	50		 push	 eax
  00030	c7 45 fc 00 00
	00 00		 mov	 DWORD PTR _plusdamage$[ebp], 0
  00037	e8 00 00 00 00	 call	 ?PlusSpecial@CItem@@QAEXPAHH@Z ; CItem::PlusSpecial

; 4009 : 	
; 4010 : 	int div = damagemin + damagemin/2 + plusdamage;

  0003c	8b c7		 mov	 eax, edi
  0003e	99		 cdq
  0003f	2b c2		 sub	 eax, edx
  00041	8b c8		 mov	 ecx, eax
  00043	d1 f9		 sar	 ecx, 1
  00045	03 4d fc	 add	 ecx, DWORD PTR _plusdamage$[ebp]
  00048	03 cf		 add	 ecx, edi

; 4011 : 
; 4012 : 	if ( div == 0 )
; 4013 : 	{
; 4014 : 		return 0;

  0004a	0f 84 32 01 00
	00		 je	 $LN3@BowWeaponD

; 4015 : 	}
; 4016 : 
; 4017 : 	int DecreaseDur = (defense*2)/div;

  00050	8b 45 08	 mov	 eax, DWORD PTR _defense$[ebp]

; 4018 : 
; 4019 : 	DecreaseDur -= DecreaseDur*(int)this->m_SocketBonus/100; //season4 add-on
; 4020 : 
; 4021 : 	this->m_DurabilitySmall += DecreaseDur;
; 4022 : 
; 4023 : 	int DurabilitySmall = 780;
; 4024 : 
; 4025 : 	if(gObj[aIndex].m_MPSkillOpt.MpsDownDur1 > 0) //season3 add-on

  00053	d9 ee		 fldz
  00055	03 c0		 add	 eax, eax
  00057	99		 cdq
  00058	f7 f9		 idiv	 ecx
  0005a	0f b6 96 d1 00
	00 00		 movzx	 edx, BYTE PTR [esi+209]
  00061	bf 0c 03 00 00	 mov	 edi, 780		; 0000030cH
  00066	8b c8		 mov	 ecx, eax
  00068	0f af d1	 imul	 edx, ecx
  0006b	b8 1f 85 eb 51	 mov	 eax, 1374389535		; 51eb851fH
  00070	f7 ea		 imul	 edx
  00072	c1 fa 05	 sar	 edx, 5
  00075	8b c2		 mov	 eax, edx
  00077	c1 e8 1f	 shr	 eax, 31			; 0000001fH
  0007a	03 c2		 add	 eax, edx
  0007c	2b c8		 sub	 ecx, eax
  0007e	66 01 4e 28	 add	 WORD PTR [esi+40], cx
  00082	8b 4d 0c	 mov	 ecx, DWORD PTR _aIndex$[ebp]
  00085	8b 15 00 00 00
	00		 mov	 edx, DWORD PTR ?gObj@@3PAUOBJECTSTRUCT@@A ; gObj
  0008b	69 c9 50 2b 00
	00		 imul	 ecx, 11088		; 00002b50H
  00091	d8 9c 11 44 26
	00 00		 fcomp	 DWORD PTR [ecx+edx+9796]
  00098	df e0		 fnstsw	 ax
  0009a	8d 8c 11 44 26
	00 00		 lea	 ecx, DWORD PTR [ecx+edx+9796]
  000a1	f6 c4 05	 test	 ah, 5
  000a4	7a 1b		 jp	 SHORT $LN7@BowWeaponD

; 4026 : 	{
; 4027 : 		DurabilitySmall += DurabilitySmall * gObj[aIndex].m_MPSkillOpt.MpsDownDur1 / 100;

  000a6	d9 01		 fld	 DWORD PTR [ecx]
  000a8	dd 05 00 00 00
	00		 fld	 QWORD PTR __real@4088600000000000
  000ae	dc c9		 fmul	 ST(1), ST(0)
  000b0	d9 c9		 fxch	 ST(1)
  000b2	dc 35 00 00 00
	00		 fdiv	 QWORD PTR __real@4059000000000000
  000b8	de c1		 faddp	 ST(1), ST(0)
  000ba	e8 00 00 00 00	 call	 __ftol2_sse
  000bf	8b f8		 mov	 edi, eax
$LN7@BowWeaponD:

; 4028 : 	}
; 4029 : 
; 4030 : 	if(g_ZtLicense.CheckUser(eZtUB::Artem) || g_ZtLicense.CheckUser(eZtUB::Artem2) || 
; 4031 : 		g_ZtLicense.CheckUser(eZtUB::Gredy) || g_ZtLicense.CheckUser(eZtUB::Gredy2) || g_ZtLicense.CheckUser(eZtUB::GredyLocal))

  000c1	6a 30		 push	 48			; 00000030H
  000c3	b9 00 00 00 00	 mov	 ecx, OFFSET ?g_ZtLicense@@3VCZtLicense@@A ; g_ZtLicense
  000c8	e8 00 00 00 00	 call	 ?CheckUser@CZtLicense@@QAE_NH@Z ; CZtLicense::CheckUser
  000cd	84 c0		 test	 al, al
  000cf	75 40		 jne	 SHORT $LN5@BowWeaponD
  000d1	6a 31		 push	 49			; 00000031H
  000d3	b9 00 00 00 00	 mov	 ecx, OFFSET ?g_ZtLicense@@3VCZtLicense@@A ; g_ZtLicense
  000d8	e8 00 00 00 00	 call	 ?CheckUser@CZtLicense@@QAE_NH@Z ; CZtLicense::CheckUser
  000dd	84 c0		 test	 al, al
  000df	75 30		 jne	 SHORT $LN5@BowWeaponD
  000e1	6a 20		 push	 32			; 00000020H
  000e3	b9 00 00 00 00	 mov	 ecx, OFFSET ?g_ZtLicense@@3VCZtLicense@@A ; g_ZtLicense
  000e8	e8 00 00 00 00	 call	 ?CheckUser@CZtLicense@@QAE_NH@Z ; CZtLicense::CheckUser
  000ed	84 c0		 test	 al, al
  000ef	75 20		 jne	 SHORT $LN5@BowWeaponD
  000f1	6a 22		 push	 34			; 00000022H
  000f3	b9 00 00 00 00	 mov	 ecx, OFFSET ?g_ZtLicense@@3VCZtLicense@@A ; g_ZtLicense
  000f8	e8 00 00 00 00	 call	 ?CheckUser@CZtLicense@@QAE_NH@Z ; CZtLicense::CheckUser
  000fd	84 c0		 test	 al, al
  000ff	75 10		 jne	 SHORT $LN5@BowWeaponD
  00101	6a 21		 push	 33			; 00000021H
  00103	b9 00 00 00 00	 mov	 ecx, OFFSET ?g_ZtLicense@@3VCZtLicense@@A ; g_ZtLicense
  00108	e8 00 00 00 00	 call	 ?CheckUser@CZtLicense@@QAE_NH@Z ; CZtLicense::CheckUser
  0010d	84 c0		 test	 al, al
  0010f	74 03		 je	 SHORT $LN6@BowWeaponD
$LN5@BowWeaponD:

; 4032 : 	{
; 4033 : 		DurabilitySmall *= 3;

  00111	8d 3c 7f	 lea	 edi, DWORD PTR [edi+edi*2]
$LN6@BowWeaponD:

; 4034 : 	}
; 4035 : #if(WAITENI_CUSTOM)
; 4036 : 	if(ZtConfig.CommonServer.DurabilityEnable)

  00114	83 3d 3c 01 00
	00 00		 cmp	 DWORD PTR ?ZtConfig@@3VcZtConfigs@@A+316, 0
  0011b	74 07		 je	 SHORT $LN4@BowWeaponD

; 4037 : 	{
; 4038 : 		DurabilitySmall *= ZtConfig.CommonServer.DurabilityMaxCount;

  0011d	0f af 3d 40 01
	00 00		 imul	 edi, DWORD PTR ?ZtConfig@@3VcZtConfigs@@A+320
$LN4@BowWeaponD:

; 4039 : 	}
; 4040 : #endif
; 4041 : 	if ( this->m_DurabilitySmall > DurabilitySmall )

  00124	0f b7 4e 28	 movzx	 ecx, WORD PTR [esi+40]
  00128	3b cf		 cmp	 ecx, edi
  0012a	7e 56		 jle	 SHORT $LN3@BowWeaponD

; 4042 : 	{
; 4043 : 		this->m_DurabilitySmall = 0;
; 4044 : 		this->m_Durability -= 1.0f;

  0012c	d9 46 24	 fld	 DWORD PTR [esi+36]
  0012f	33 d2		 xor	 edx, edx
  00131	dc 25 00 00 00
	00		 fsub	 QWORD PTR __real@3ff0000000000000
  00137	66 89 56 28	 mov	 WORD PTR [esi+40], dx
  0013b	d9 5d 08	 fstp	 DWORD PTR tv276[ebp]
  0013e	d9 45 08	 fld	 DWORD PTR tv276[ebp]
  00141	d9 56 24	 fst	 DWORD PTR [esi+36]

; 4045 : 
; 4046 : 		if ( this->m_Durability < 0.0f )

  00144	d9 ee		 fldz
  00146	d8 d1		 fcom	 ST(1)
  00148	df e0		 fnstsw	 ax
  0014a	dd d9		 fstp	 ST(1)
  0014c	f6 c4 41	 test	 ah, 65			; 00000041H
  0014f	75 19		 jne	 SHORT $LN15@BowWeaponD

; 4047 : 		{
; 4048 : 			this->m_Durability = 0;
; 4049 : 		}
; 4050 : 		
; 4051 : 		if ( this->CheckDurabilityState() != 0 )

  00151	8b ce		 mov	 ecx, esi
  00153	d9 5e 24	 fstp	 DWORD PTR [esi+36]
  00156	e8 00 00 00 00	 call	 ?CheckDurabilityState@CItem@@QAEHXZ ; CItem::CheckDurabilityState
  0015b	f7 d8		 neg	 eax
  0015d	1b c0		 sbb	 eax, eax
  0015f	f7 d8		 neg	 eax
  00161	5f		 pop	 edi
  00162	40		 inc	 eax
  00163	5e		 pop	 esi

; 4060 : }

  00164	8b e5		 mov	 esp, ebp
  00166	5d		 pop	 ebp
  00167	c2 08 00	 ret	 8
$LN15@BowWeaponD:

; 4047 : 		{
; 4048 : 			this->m_Durability = 0;
; 4049 : 		}
; 4050 : 		
; 4051 : 		if ( this->CheckDurabilityState() != 0 )

  0016a	8b ce		 mov	 ecx, esi
  0016c	dd d8		 fstp	 ST(0)
  0016e	e8 00 00 00 00	 call	 ?CheckDurabilityState@CItem@@QAEHXZ ; CItem::CheckDurabilityState
  00173	f7 d8		 neg	 eax
  00175	1b c0		 sbb	 eax, eax
  00177	f7 d8		 neg	 eax
  00179	5f		 pop	 edi
  0017a	40		 inc	 eax
  0017b	5e		 pop	 esi

; 4060 : }

  0017c	8b e5		 mov	 esp, ebp
  0017e	5d		 pop	 ebp
  0017f	c2 08 00	 ret	 8
$LN3@BowWeaponD:
  00182	5f		 pop	 edi

; 4052 : 		{
; 4053 : 			return 2;
; 4054 : 		}
; 4055 : 		
; 4056 : 		return 1;
; 4057 : 		
; 4058 : 	}
; 4059 : 	return 0;

  00183	33 c0		 xor	 eax, eax
  00185	5e		 pop	 esi

; 4060 : }

  00186	8b e5		 mov	 esp, ebp
  00188	5d		 pop	 ebp
  00189	c2 08 00	 ret	 8
?BowWeaponDurabilityDown@CItem@@QAEHHH@Z ENDP		; CItem::BowWeaponDurabilityDown
_TEXT	ENDS
PUBLIC	__real@4090680000000000
PUBLIC	?StaffWeaponDurabilityDown@CItem@@QAEHHH@Z	; CItem::StaffWeaponDurabilityDown
;	COMDAT __real@4090680000000000
CONST	SEGMENT
__real@4090680000000000 DQ 04090680000000000r	; 1050
; Function compile flags: /Ogtp
CONST	ENDS
;	COMDAT ?StaffWeaponDurabilityDown@CItem@@QAEHHH@Z
_TEXT	SEGMENT
_plusmagic$ = -4					; size = 4
tv282 = 8						; size = 4
_defence$ = 8						; size = 4
_aIndex$ = 12						; size = 4
?StaffWeaponDurabilityDown@CItem@@QAEHHH@Z PROC		; CItem::StaffWeaponDurabilityDown, COMDAT
; _this$ = ecx

; 4063 : {

  00000	55		 push	 ebp
  00001	8b ec		 mov	 ebp, esp
  00003	51		 push	 ecx

; 4064 : 	if ( this->m_Durability <= 0 )

  00004	d9 ee		 fldz
  00006	56		 push	 esi
  00007	8b f1		 mov	 esi, ecx
  00009	d8 5e 24	 fcomp	 DWORD PTR [esi+36]
  0000c	df e0		 fnstsw	 ax
  0000e	f6 c4 01	 test	 ah, 1
  00011	75 09		 jne	 SHORT $LN10@StaffWeapo
$LN17@StaffWeapo:

; 4065 : 	{
; 4066 : 		return 0;

  00013	33 c0		 xor	 eax, eax
  00015	5e		 pop	 esi

; 4126 : }

  00016	8b e5		 mov	 esp, ebp
  00018	5d		 pop	 ebp
  00019	c2 08 00	 ret	 8
$LN10@StaffWeapo:

; 4067 : 	}
; 4068 : #if(WAITENI_CUSTOM)
; 4069 : 	if(!ZtConfig.CommonServer.DurabilityEnable)

  0001c	83 3d 3c 01 00
	00 00		 cmp	 DWORD PTR ?ZtConfig@@3VcZtConfigs@@A+316, 0

; 4070 : 	{
; 4071 : 		return 0;

  00023	74 ee		 je	 SHORT $LN17@StaffWeapo

; 4072 : 	}
; 4073 : #endif
; 4074 : 	int magic = this->m_Magic/2 + this->m_Level*2;

  00025	0f b7 46 20	 movzx	 eax, WORD PTR [esi+32]
  00029	0f bf 4e 08	 movsx	 ecx, WORD PTR [esi+8]
  0002d	57		 push	 edi
  0002e	d1 e8		 shr	 eax, 1

; 4075 : 	int plusmagic = 0;
; 4076 : 	this->PlusSpecial(&plusmagic, 81);

  00030	6a 51		 push	 81			; 00000051H
  00032	8d 55 fc	 lea	 edx, DWORD PTR _plusmagic$[ebp]
  00035	8d 3c 48	 lea	 edi, DWORD PTR [eax+ecx*2]
  00038	52		 push	 edx
  00039	8b ce		 mov	 ecx, esi
  0003b	c7 45 fc 00 00
	00 00		 mov	 DWORD PTR _plusmagic$[ebp], 0
  00042	e8 00 00 00 00	 call	 ?PlusSpecial@CItem@@QAEXPAHH@Z ; CItem::PlusSpecial

; 4077 : 	int div = magic + magic/3 + plusmagic;

  00047	b8 56 55 55 55	 mov	 eax, 1431655766		; 55555556H
  0004c	f7 ef		 imul	 edi
  0004e	8b ca		 mov	 ecx, edx
  00050	c1 e9 1f	 shr	 ecx, 31			; 0000001fH
  00053	03 ca		 add	 ecx, edx
  00055	03 4d fc	 add	 ecx, DWORD PTR _plusmagic$[ebp]
  00058	03 cf		 add	 ecx, edi

; 4078 : 
; 4079 : 	if ( div == 0 )
; 4080 : 	{
; 4081 : 		return 0;

  0005a	0f 84 30 01 00
	00		 je	 $LN3@StaffWeapo

; 4082 : 	}
; 4083 : 
; 4084 : 	int DecreaseDur = defence/div;

  00060	8b 45 08	 mov	 eax, DWORD PTR _defence$[ebp]

; 4085 : 
; 4086 : 	DecreaseDur -= DecreaseDur*(int)this->m_SocketBonus/100; //season4 add-on
; 4087 : 
; 4088 : 	this->m_DurabilitySmall += DecreaseDur;
; 4089 : 
; 4090 : 	int DurabilitySmall = 1050;
; 4091 : 
; 4092 : 	if(gObj[aIndex].m_MPSkillOpt.MpsDownDur1 > 0) //season3 add-on

  00063	d9 ee		 fldz
  00065	99		 cdq
  00066	f7 f9		 idiv	 ecx
  00068	0f b6 96 d1 00
	00 00		 movzx	 edx, BYTE PTR [esi+209]
  0006f	bf 1a 04 00 00	 mov	 edi, 1050		; 0000041aH
  00074	8b c8		 mov	 ecx, eax
  00076	0f af d1	 imul	 edx, ecx
  00079	b8 1f 85 eb 51	 mov	 eax, 1374389535		; 51eb851fH
  0007e	f7 ea		 imul	 edx
  00080	c1 fa 05	 sar	 edx, 5
  00083	8b c2		 mov	 eax, edx
  00085	c1 e8 1f	 shr	 eax, 31			; 0000001fH
  00088	03 c2		 add	 eax, edx
  0008a	2b c8		 sub	 ecx, eax
  0008c	66 01 4e 28	 add	 WORD PTR [esi+40], cx
  00090	8b 4d 0c	 mov	 ecx, DWORD PTR _aIndex$[ebp]
  00093	8b 15 00 00 00
	00		 mov	 edx, DWORD PTR ?gObj@@3PAUOBJECTSTRUCT@@A ; gObj
  00099	69 c9 50 2b 00
	00		 imul	 ecx, 11088		; 00002b50H
  0009f	d8 9c 11 44 26
	00 00		 fcomp	 DWORD PTR [ecx+edx+9796]
  000a6	df e0		 fnstsw	 ax
  000a8	8d 8c 11 44 26
	00 00		 lea	 ecx, DWORD PTR [ecx+edx+9796]
  000af	f6 c4 05	 test	 ah, 5
  000b2	7a 1b		 jp	 SHORT $LN7@StaffWeapo

; 4093 : 	{
; 4094 : 		DurabilitySmall += DurabilitySmall * gObj[aIndex].m_MPSkillOpt.MpsDownDur1 / 100;

  000b4	d9 01		 fld	 DWORD PTR [ecx]
  000b6	dd 05 00 00 00
	00		 fld	 QWORD PTR __real@4090680000000000
  000bc	dc c9		 fmul	 ST(1), ST(0)
  000be	d9 c9		 fxch	 ST(1)
  000c0	dc 35 00 00 00
	00		 fdiv	 QWORD PTR __real@4059000000000000
  000c6	de c1		 faddp	 ST(1), ST(0)
  000c8	e8 00 00 00 00	 call	 __ftol2_sse
  000cd	8b f8		 mov	 edi, eax
$LN7@StaffWeapo:

; 4095 : 	}
; 4096 : 
; 4097 : 	if(g_ZtLicense.CheckUser(eZtUB::Artem) || g_ZtLicense.CheckUser(eZtUB::Artem2) || 
; 4098 : 		g_ZtLicense.CheckUser(eZtUB::Gredy) || g_ZtLicense.CheckUser(eZtUB::Gredy2) || g_ZtLicense.CheckUser(eZtUB::GredyLocal))

  000cf	6a 30		 push	 48			; 00000030H
  000d1	b9 00 00 00 00	 mov	 ecx, OFFSET ?g_ZtLicense@@3VCZtLicense@@A ; g_ZtLicense
  000d6	e8 00 00 00 00	 call	 ?CheckUser@CZtLicense@@QAE_NH@Z ; CZtLicense::CheckUser
  000db	84 c0		 test	 al, al
  000dd	75 40		 jne	 SHORT $LN5@StaffWeapo
  000df	6a 31		 push	 49			; 00000031H
  000e1	b9 00 00 00 00	 mov	 ecx, OFFSET ?g_ZtLicense@@3VCZtLicense@@A ; g_ZtLicense
  000e6	e8 00 00 00 00	 call	 ?CheckUser@CZtLicense@@QAE_NH@Z ; CZtLicense::CheckUser
  000eb	84 c0		 test	 al, al
  000ed	75 30		 jne	 SHORT $LN5@StaffWeapo
  000ef	6a 20		 push	 32			; 00000020H
  000f1	b9 00 00 00 00	 mov	 ecx, OFFSET ?g_ZtLicense@@3VCZtLicense@@A ; g_ZtLicense
  000f6	e8 00 00 00 00	 call	 ?CheckUser@CZtLicense@@QAE_NH@Z ; CZtLicense::CheckUser
  000fb	84 c0		 test	 al, al
  000fd	75 20		 jne	 SHORT $LN5@StaffWeapo
  000ff	6a 22		 push	 34			; 00000022H
  00101	b9 00 00 00 00	 mov	 ecx, OFFSET ?g_ZtLicense@@3VCZtLicense@@A ; g_ZtLicense
  00106	e8 00 00 00 00	 call	 ?CheckUser@CZtLicense@@QAE_NH@Z ; CZtLicense::CheckUser
  0010b	84 c0		 test	 al, al
  0010d	75 10		 jne	 SHORT $LN5@StaffWeapo
  0010f	6a 21		 push	 33			; 00000021H
  00111	b9 00 00 00 00	 mov	 ecx, OFFSET ?g_ZtLicense@@3VCZtLicense@@A ; g_ZtLicense
  00116	e8 00 00 00 00	 call	 ?CheckUser@CZtLicense@@QAE_NH@Z ; CZtLicense::CheckUser
  0011b	84 c0		 test	 al, al
  0011d	74 03		 je	 SHORT $LN6@StaffWeapo
$LN5@StaffWeapo:

; 4099 : 	{
; 4100 : 		DurabilitySmall *= 3;

  0011f	8d 3c 7f	 lea	 edi, DWORD PTR [edi+edi*2]
$LN6@StaffWeapo:

; 4101 : 	}
; 4102 : #if(WAITENI_CUSTOM)
; 4103 : 	if(ZtConfig.CommonServer.DurabilityEnable)

  00122	83 3d 3c 01 00
	00 00		 cmp	 DWORD PTR ?ZtConfig@@3VcZtConfigs@@A+316, 0
  00129	74 07		 je	 SHORT $LN4@StaffWeapo

; 4104 : 	{
; 4105 : 		DurabilitySmall *= ZtConfig.CommonServer.DurabilityMaxCount;

  0012b	0f af 3d 40 01
	00 00		 imul	 edi, DWORD PTR ?ZtConfig@@3VcZtConfigs@@A+320
$LN4@StaffWeapo:

; 4106 : 	}
; 4107 : #endif
; 4108 : 	if ( this->m_DurabilitySmall > DurabilitySmall )

  00132	0f b7 4e 28	 movzx	 ecx, WORD PTR [esi+40]
  00136	3b cf		 cmp	 ecx, edi
  00138	7e 56		 jle	 SHORT $LN3@StaffWeapo

; 4109 : 	{
; 4110 : 		this->m_DurabilitySmall = 0;
; 4111 : 		this->m_Durability -= 1.0f;

  0013a	d9 46 24	 fld	 DWORD PTR [esi+36]
  0013d	33 d2		 xor	 edx, edx
  0013f	dc 25 00 00 00
	00		 fsub	 QWORD PTR __real@3ff0000000000000
  00145	66 89 56 28	 mov	 WORD PTR [esi+40], dx
  00149	d9 5d 08	 fstp	 DWORD PTR tv282[ebp]
  0014c	d9 45 08	 fld	 DWORD PTR tv282[ebp]
  0014f	d9 56 24	 fst	 DWORD PTR [esi+36]

; 4112 : 
; 4113 : 		if ( this->m_Durability < 0.0f )

  00152	d9 ee		 fldz
  00154	d8 d1		 fcom	 ST(1)
  00156	df e0		 fnstsw	 ax
  00158	dd d9		 fstp	 ST(1)
  0015a	f6 c4 41	 test	 ah, 65			; 00000041H
  0015d	75 19		 jne	 SHORT $LN15@StaffWeapo

; 4114 : 		{
; 4115 : 			this->m_Durability = 0;
; 4116 : 		}
; 4117 : 		
; 4118 : 		if ( this->CheckDurabilityState() != 0 )

  0015f	8b ce		 mov	 ecx, esi
  00161	d9 5e 24	 fstp	 DWORD PTR [esi+36]
  00164	e8 00 00 00 00	 call	 ?CheckDurabilityState@CItem@@QAEHXZ ; CItem::CheckDurabilityState
  00169	f7 d8		 neg	 eax
  0016b	1b c0		 sbb	 eax, eax
  0016d	f7 d8		 neg	 eax
  0016f	5f		 pop	 edi
  00170	40		 inc	 eax
  00171	5e		 pop	 esi

; 4126 : }

  00172	8b e5		 mov	 esp, ebp
  00174	5d		 pop	 ebp
  00175	c2 08 00	 ret	 8
$LN15@StaffWeapo:

; 4114 : 		{
; 4115 : 			this->m_Durability = 0;
; 4116 : 		}
; 4117 : 		
; 4118 : 		if ( this->CheckDurabilityState() != 0 )

  00178	8b ce		 mov	 ecx, esi
  0017a	dd d8		 fstp	 ST(0)
  0017c	e8 00 00 00 00	 call	 ?CheckDurabilityState@CItem@@QAEHXZ ; CItem::CheckDurabilityState
  00181	f7 d8		 neg	 eax
  00183	1b c0		 sbb	 eax, eax
  00185	f7 d8		 neg	 eax
  00187	5f		 pop	 edi
  00188	40		 inc	 eax
  00189	5e		 pop	 esi

; 4126 : }

  0018a	8b e5		 mov	 esp, ebp
  0018c	5d		 pop	 ebp
  0018d	c2 08 00	 ret	 8
$LN3@StaffWeapo:
  00190	5f		 pop	 edi

; 4119 : 		{
; 4120 : 			return 2;
; 4121 : 		}
; 4122 : 		return 1;
; 4123 : 		
; 4124 : 	}
; 4125 : 	return 0;

  00191	33 c0		 xor	 eax, eax
  00193	5e		 pop	 esi

; 4126 : }

  00194	8b e5		 mov	 esp, ebp
  00196	5d		 pop	 ebp
  00197	c2 08 00	 ret	 8
?StaffWeaponDurabilityDown@CItem@@QAEHHH@Z ENDP		; CItem::StaffWeaponDurabilityDown
_TEXT	ENDS
PUBLIC	__real@4051400000000000
PUBLIC	??_C@_0M@ELCONOFE@def?$MA?L?50?$MA?L?$LE?Y?$AA@	; `string'
PUBLIC	?ArmorDurabilityDown@CItem@@QAEHHH@Z		; CItem::ArmorDurabilityDown
EXTRN	?IsLuckyItemEquipment@LuckyItemManager@@QAEHH@Z:PROC ; LuckyItemManager::IsLuckyItemEquipment
;	COMDAT __real@4051400000000000
CONST	SEGMENT
__real@4051400000000000 DQ 04051400000000000r	; 69
CONST	ENDS
;	COMDAT ??_C@_0M@ELCONOFE@def?$MA?L?50?$MA?L?$LE?Y?$AA@
CONST	SEGMENT
??_C@_0M@ELCONOFE@def?$MA?L?50?$MA?L?$LE?Y?$AA@ DB 'def', 0c0H, 0ccH, ' 0'
	DB	0c0H, 0ccH, 0b4H, 0d9H, 00H			; `string'
; Function compile flags: /Ogtp
CONST	ENDS
;	COMDAT ?ArmorDurabilityDown@CItem@@QAEHHH@Z
_TEXT	SEGMENT
_plusdef$ = -4						; size = 4
tv381 = 8						; size = 4
_DecreaseDur$ = 8					; size = 4
_damagemin$ = 8						; size = 4
_aIndex$ = 12						; size = 4
?ArmorDurabilityDown@CItem@@QAEHHH@Z PROC		; CItem::ArmorDurabilityDown, COMDAT
; _this$ = ecx

; 4129 : {

  00000	55		 push	 ebp
  00001	8b ec		 mov	 ebp, esp
  00003	51		 push	 ecx

; 4130 : 	if ( this->m_Durability <= 0 )

  00004	d9 ee		 fldz
  00006	53		 push	 ebx
  00007	56		 push	 esi
  00008	8b f1		 mov	 esi, ecx
  0000a	d8 5e 24	 fcomp	 DWORD PTR [esi+36]
  0000d	df e0		 fnstsw	 ax
  0000f	f6 c4 01	 test	 ah, 1
  00012	75 0a		 jne	 SHORT $LN28@ArmorDurab
$LN39@ArmorDurab:
  00014	5e		 pop	 esi

; 4131 : 	{
; 4132 : 		return 0;

  00015	33 c0		 xor	 eax, eax
  00017	5b		 pop	 ebx

; 4254 : }

  00018	8b e5		 mov	 esp, ebp
  0001a	5d		 pop	 ebp
  0001b	c2 08 00	 ret	 8
$LN28@ArmorDurab:

; 4133 : 	}
; 4134 : #ifdef PERIOD
; 4135 : 	if( IsPeriodItem() )

  0001e	e8 00 00 00 00	 call	 ?IsPeriodItem@CItem@@QAE_NXZ ; CItem::IsPeriodItem
  00023	84 c0		 test	 al, al
  00025	74 10		 je	 SHORT $LN27@ArmorDurab
$LN40@ArmorDurab:

; 4136 : 		return m_Durability;

  00027	d9 46 24	 fld	 DWORD PTR [esi+36]
  0002a	e8 00 00 00 00	 call	 __ftol2_sse
  0002f	5e		 pop	 esi
  00030	5b		 pop	 ebx

; 4254 : }

  00031	8b e5		 mov	 esp, ebp
  00033	5d		 pop	 ebp
  00034	c2 08 00	 ret	 8
$LN27@ArmorDurab:

; 4137 : #endif
; 4138 : 	if ( this->m_Type == -1 )

  00037	0f b7 46 06	 movzx	 eax, WORD PTR [esi+6]
  0003b	66 83 f8 ff	 cmp	 ax, -1

; 4139 : 	{
; 4140 : 		return 0;

  0003f	74 d3		 je	 SHORT $LN39@ArmorDurab

; 4141 : 	}
; 4142 : 
; 4143 : #ifdef LUCKYITEM
; 4144 :     if ( g_LuckyItemManager.IsLuckyItemEquipment(this->m_Type) )

  00041	98		 cwde
  00042	50		 push	 eax
  00043	b9 00 00 00 00	 mov	 ecx, OFFSET ?g_LuckyItemManager@@3ULuckyItemManager@@A ; g_LuckyItemManager
  00048	e8 00 00 00 00	 call	 ?IsLuckyItemEquipment@LuckyItemManager@@QAEHH@Z ; LuckyItemManager::IsLuckyItemEquipment
  0004d	85 c0		 test	 eax, eax

; 4145 :     {
; 4146 :         return this->m_Durability;

  0004f	75 d6		 jne	 SHORT $LN40@ArmorDurab

; 4147 :     }
; 4148 : #endif
; 4149 : 
; 4150 : #if(WAITENI_CUSTOM)
; 4151 : 	if(!ZtConfig.CommonServer.DurabilityEnable)

  00051	39 05 3c 01 00
	00		 cmp	 DWORD PTR ?ZtConfig@@3VcZtConfigs@@A+316, eax

; 4152 : 	{
; 4153 : 		return 0;

  00057	74 bb		 je	 SHORT $LN39@ArmorDurab

; 4154 : 	}
; 4155 : #endif
; 4156 : 
; 4157 : 	int def = this->m_DefenseOrigin;

  00059	57		 push	 edi
  0005a	0f b7 7e 1e	 movzx	 edi, WORD PTR [esi+30]

; 4158 : 	int plusdef = 0;

  0005e	89 45 fc	 mov	 DWORD PTR _plusdef$[ebp], eax

; 4159 : 	int DecreaseDur;
; 4160 : 
; 4161 : 	if ( def == 0 )

  00061	85 ff		 test	 edi, edi
  00063	75 19		 jne	 SHORT $LN23@ArmorDurab

; 4162 : 	{
; 4163 : 		LogAdd("def이 0이다");

  00065	68 00 00 00 00	 push	 OFFSET ??_C@_0M@ELCONOFE@def?$MA?L?50?$MA?L?$LE?Y?$AA@
  0006a	ff 15 00 00 00
	00		 call	 DWORD PTR ?LogAdd@@3P6AXPADZZA ; LogAdd
  00070	83 c4 04	 add	 esp, 4
$LN3@ArmorDurab:

; 4246 : 		{
; 4247 : 			return 2;
; 4248 : 		}
; 4249 : 		
; 4250 : 		return 1;
; 4251 : 		
; 4252 : 	}
; 4253 : 	return 0;

  00073	5f		 pop	 edi
  00074	5e		 pop	 esi
  00075	33 c0		 xor	 eax, eax
  00077	5b		 pop	 ebx

; 4254 : }

  00078	8b e5		 mov	 esp, ebp
  0007a	5d		 pop	 ebp
  0007b	c2 08 00	 ret	 8
$LN23@ArmorDurab:

; 4164 : 		return 0;
; 4165 : 	}
; 4166 : 
; 4167 : 	if ( this->m_Type >= ITEMGET(6,0) && this->m_Type < ITEMGET(7,0) )

  0007e	0f b7 46 06	 movzx	 eax, WORD PTR [esi+6]
  00082	b9 00 0c 00 00	 mov	 ecx, 3072		; 00000c00H
  00087	66 3b c1	 cmp	 ax, cx
  0008a	7c 2a		 jl	 SHORT $LN22@ArmorDurab
  0008c	ba 00 0e 00 00	 mov	 edx, 3584		; 00000e00H
  00091	66 3b c2	 cmp	 ax, dx
  00094	7d 20		 jge	 SHORT $LN22@ArmorDurab

; 4168 : 	{
; 4169 : 		this->PlusSpecial(&plusdef, 82);

  00096	6a 52		 push	 82			; 00000052H
  00098	8d 45 fc	 lea	 eax, DWORD PTR _plusdef$[ebp]
  0009b	50		 push	 eax
  0009c	8b ce		 mov	 ecx, esi
  0009e	e8 00 00 00 00	 call	 ?PlusSpecial@CItem@@QAEXPAHH@Z ; CItem::PlusSpecial

; 4170 : 		DecreaseDur = damagemin/(def * 5+ plusdef);

  000a3	8b 4d fc	 mov	 ecx, DWORD PTR _plusdef$[ebp]

; 4200 : 		DecreaseDur = damagemin/(def * 3 + plusdef);

  000a6	8b 45 08	 mov	 eax, DWORD PTR _damagemin$[ebp]
  000a9	8d 0c b9	 lea	 ecx, DWORD PTR [ecx+edi*4]
  000ac	99		 cdq
  000ad	03 cf		 add	 ecx, edi
  000af	f7 f9		 idiv	 ecx
  000b1	e9 c5 00 00 00	 jmp	 $LN8@ArmorDurab
$LN22@ArmorDurab:

; 4171 : 	}
; 4172 : 	else if ( this->m_RequireClass[0] != 0 )	// Dark Wize

  000b6	80 7e 58 00	 cmp	 BYTE PTR [esi+88], 0

; 4173 : 	{
; 4174 : 		this->PlusSpecial(&plusdef, 83);
; 4175 : 		DecreaseDur = damagemin/(def * 3 + plusdef);

  000ba	75 7b		 jne	 SHORT $LN36@ArmorDurab

; 4176 : 	}
; 4177 : 	else if ( this->m_RequireClass[1] != 0 )	// Dark Knight

  000bc	80 7e 59 00	 cmp	 BYTE PTR [esi+89], 0

; 4178 : 	{
; 4179 : 		this->PlusSpecial(&plusdef, 83);
; 4180 : 		DecreaseDur = damagemin/(def * 3 + plusdef);

  000c0	75 75		 jne	 SHORT $LN36@ArmorDurab

; 4181 : 	}
; 4182 : 	else if ( this->m_RequireClass[2] != 0 )	// Elf

  000c2	80 7e 5a 00	 cmp	 BYTE PTR [esi+90], 0
  000c6	74 1e		 je	 SHORT $LN16@ArmorDurab

; 4183 : 	{
; 4184 : 		this->PlusSpecial(&plusdef, 83);

  000c8	6a 53		 push	 83			; 00000053H
  000ca	8d 55 fc	 lea	 edx, DWORD PTR _plusdef$[ebp]
  000cd	52		 push	 edx
  000ce	8b ce		 mov	 ecx, esi
  000d0	e8 00 00 00 00	 call	 ?PlusSpecial@CItem@@QAEXPAHH@Z ; CItem::PlusSpecial

; 4185 : 		DecreaseDur = damagemin/(def * 2 + plusdef);

  000d5	8b 45 fc	 mov	 eax, DWORD PTR _plusdef$[ebp]
  000d8	8d 0c 78	 lea	 ecx, DWORD PTR [eax+edi*2]
  000db	8b 45 08	 mov	 eax, DWORD PTR _damagemin$[ebp]
  000de	99		 cdq
  000df	f7 f9		 idiv	 ecx
  000e1	e9 95 00 00 00	 jmp	 $LN8@ArmorDurab
$LN16@ArmorDurab:

; 4186 : 	}
; 4187 : 	else if ( this->m_RequireClass[3] != 0 )	// MAgic Gladiator ( aka Magunsa )

  000e6	80 7e 5b 00	 cmp	 BYTE PTR [esi+91], 0
  000ea	74 21		 je	 SHORT $LN14@ArmorDurab

; 4188 : 	{
; 4189 : 		this->PlusSpecial(&plusdef, 83);

  000ec	6a 53		 push	 83			; 00000053H
  000ee	8d 55 fc	 lea	 edx, DWORD PTR _plusdef$[ebp]
  000f1	52		 push	 edx
  000f2	8b ce		 mov	 ecx, esi
  000f4	e8 00 00 00 00	 call	 ?PlusSpecial@CItem@@QAEXPAHH@Z ; CItem::PlusSpecial

; 4190 : 		DecreaseDur = damagemin/(def * 7 + plusdef);

  000f9	8b 45 08	 mov	 eax, DWORD PTR _damagemin$[ebp]
  000fc	8d 0c fd 00 00
	00 00		 lea	 ecx, DWORD PTR [edi*8]
  00103	2b cf		 sub	 ecx, edi
  00105	03 4d fc	 add	 ecx, DWORD PTR _plusdef$[ebp]
  00108	99		 cdq
  00109	f7 f9		 idiv	 ecx
  0010b	eb 6e		 jmp	 SHORT $LN8@ArmorDurab
$LN14@ArmorDurab:

; 4191 : 	}
; 4192 : 	else if ( this->m_RequireClass[4] != 0 )	// Dark Lord

  0010d	80 7e 5c 00	 cmp	 BYTE PTR [esi+92], 0
  00111	74 1e		 je	 SHORT $LN12@ArmorDurab

; 4193 : 	{
; 4194 : 		this->PlusSpecial(&plusdef, 83);

  00113	6a 53		 push	 83			; 00000053H
  00115	8d 55 fc	 lea	 edx, DWORD PTR _plusdef$[ebp]
  00118	52		 push	 edx
  00119	8b ce		 mov	 ecx, esi
  0011b	e8 00 00 00 00	 call	 ?PlusSpecial@CItem@@QAEXPAHH@Z ; CItem::PlusSpecial

; 4195 : 		DecreaseDur = damagemin/(def * 6 + plusdef);

  00120	8b 4d fc	 mov	 ecx, DWORD PTR _plusdef$[ebp]
  00123	8d 04 7f	 lea	 eax, DWORD PTR [edi+edi*2]
  00126	8d 0c 41	 lea	 ecx, DWORD PTR [ecx+eax*2]
  00129	8b 45 08	 mov	 eax, DWORD PTR _damagemin$[ebp]
  0012c	99		 cdq
  0012d	f7 f9		 idiv	 ecx
  0012f	eb 4a		 jmp	 SHORT $LN8@ArmorDurab
$LN12@ArmorDurab:

; 4196 : 	}
; 4197 : 	else if ( this->m_RequireClass[5] != 0 )	// Summoner

  00131	80 7e 5d 00	 cmp	 BYTE PTR [esi+93], 0
  00135	74 1d		 je	 SHORT $LN10@ArmorDurab
$LN36@ArmorDurab:

; 4198 : 	{
; 4199 : 		this->PlusSpecial(&plusdef, 83);

  00137	6a 53		 push	 83			; 00000053H
  00139	8d 55 fc	 lea	 edx, DWORD PTR _plusdef$[ebp]
  0013c	52		 push	 edx
  0013d	8b ce		 mov	 ecx, esi
  0013f	e8 00 00 00 00	 call	 ?PlusSpecial@CItem@@QAEXPAHH@Z ; CItem::PlusSpecial

; 4200 : 		DecreaseDur = damagemin/(def * 3 + plusdef);

  00144	8b 45 fc	 mov	 eax, DWORD PTR _plusdef$[ebp]
  00147	8d 0c 78	 lea	 ecx, DWORD PTR [eax+edi*2]
  0014a	8b 45 08	 mov	 eax, DWORD PTR _damagemin$[ebp]
  0014d	99		 cdq
  0014e	03 cf		 add	 ecx, edi
  00150	f7 f9		 idiv	 ecx
  00152	eb 27		 jmp	 SHORT $LN8@ArmorDurab
$LN10@ArmorDurab:

; 4201 : 	}
; 4202 : #ifdef MART_FIX
; 4203 : 	else if ( this->m_RequireClass[6] != 0 )	// Rage Fight

  00154	80 7e 5e 00	 cmp	 BYTE PTR [esi+94], 0
  00158	74 1e		 je	 SHORT $LN31@ArmorDurab

; 4204 : 	{
; 4205 : 		this->PlusSpecial(&plusdef, 83);

  0015a	6a 53		 push	 83			; 00000053H
  0015c	8d 55 fc	 lea	 edx, DWORD PTR _plusdef$[ebp]
  0015f	52		 push	 edx
  00160	8b ce		 mov	 ecx, esi
  00162	e8 00 00 00 00	 call	 ?PlusSpecial@CItem@@QAEXPAHH@Z ; CItem::PlusSpecial

; 4206 : 		DecreaseDur = damagemin/(def * 6 + plusdef);

  00167	8b 4d fc	 mov	 ecx, DWORD PTR _plusdef$[ebp]
  0016a	8d 04 7f	 lea	 eax, DWORD PTR [edi+edi*2]
  0016d	8d 0c 41	 lea	 ecx, DWORD PTR [ecx+eax*2]
  00170	8b 45 08	 mov	 eax, DWORD PTR _damagemin$[ebp]
  00173	99		 cdq
  00174	f7 f9		 idiv	 ecx
  00176	eb 03		 jmp	 SHORT $LN8@ArmorDurab
$LN31@ArmorDurab:
  00178	8b 45 08	 mov	 eax, DWORD PTR _DecreaseDur$[ebp]
$LN8@ArmorDurab:

; 4207 : 	}
; 4208 : #endif // MART_FIX
; 4209 : 
; 4210 : 
; 4211 : 	this->m_DurabilitySmall += DecreaseDur;
; 4212 : 
; 4213 : 	int DurabilitySmall = 69;
; 4214 : 
; 4215 : 	if(gObj[aIndex].m_MPSkillOpt.MpsDownDur1 > 0) //season3 add-on

  0017b	8b 55 0c	 mov	 edx, DWORD PTR _aIndex$[ebp]
  0017e	d9 ee		 fldz
  00180	66 01 46 28	 add	 WORD PTR [esi+40], ax
  00184	69 d2 50 2b 00
	00		 imul	 edx, 11088		; 00002b50H
  0018a	a1 00 00 00 00	 mov	 eax, DWORD PTR ?gObj@@3PAUOBJECTSTRUCT@@A ; gObj
  0018f	8d 8c 02 44 26
	00 00		 lea	 ecx, DWORD PTR [edx+eax+9796]
  00196	bf 45 00 00 00	 mov	 edi, 69			; 00000045H
  0019b	d8 19		 fcomp	 DWORD PTR [ecx]
  0019d	df e0		 fnstsw	 ax
  0019f	f6 c4 05	 test	 ah, 5
  001a2	7a 1b		 jp	 SHORT $LN7@ArmorDurab

; 4216 : 	{
; 4217 : 		DurabilitySmall += DurabilitySmall * gObj[aIndex].m_MPSkillOpt.MpsDownDur1 / 100;

  001a4	d9 01		 fld	 DWORD PTR [ecx]
  001a6	dd 05 00 00 00
	00		 fld	 QWORD PTR __real@4051400000000000
  001ac	dc c9		 fmul	 ST(1), ST(0)
  001ae	d9 c9		 fxch	 ST(1)
  001b0	dc 35 00 00 00
	00		 fdiv	 QWORD PTR __real@4059000000000000
  001b6	de c1		 faddp	 ST(1), ST(0)
  001b8	e8 00 00 00 00	 call	 __ftol2_sse
  001bd	8b f8		 mov	 edi, eax
$LN7@ArmorDurab:

; 4218 : 	}
; 4219 : 
; 4220 : 	if(g_ZtLicense.CheckUser(eZtUB::Artem) || g_ZtLicense.CheckUser(eZtUB::Artem2) || 
; 4221 : 		g_ZtLicense.CheckUser(eZtUB::Gredy) || g_ZtLicense.CheckUser(eZtUB::Gredy2) || g_ZtLicense.CheckUser(eZtUB::GredyLocal))

  001bf	6a 30		 push	 48			; 00000030H
  001c1	b9 00 00 00 00	 mov	 ecx, OFFSET ?g_ZtLicense@@3VCZtLicense@@A ; g_ZtLicense
  001c6	e8 00 00 00 00	 call	 ?CheckUser@CZtLicense@@QAE_NH@Z ; CZtLicense::CheckUser
  001cb	84 c0		 test	 al, al
  001cd	75 40		 jne	 SHORT $LN5@ArmorDurab
  001cf	6a 31		 push	 49			; 00000031H
  001d1	b9 00 00 00 00	 mov	 ecx, OFFSET ?g_ZtLicense@@3VCZtLicense@@A ; g_ZtLicense
  001d6	e8 00 00 00 00	 call	 ?CheckUser@CZtLicense@@QAE_NH@Z ; CZtLicense::CheckUser
  001db	84 c0		 test	 al, al
  001dd	75 30		 jne	 SHORT $LN5@ArmorDurab
  001df	6a 20		 push	 32			; 00000020H
  001e1	b9 00 00 00 00	 mov	 ecx, OFFSET ?g_ZtLicense@@3VCZtLicense@@A ; g_ZtLicense
  001e6	e8 00 00 00 00	 call	 ?CheckUser@CZtLicense@@QAE_NH@Z ; CZtLicense::CheckUser
  001eb	84 c0		 test	 al, al
  001ed	75 20		 jne	 SHORT $LN5@ArmorDurab
  001ef	6a 22		 push	 34			; 00000022H
  001f1	b9 00 00 00 00	 mov	 ecx, OFFSET ?g_ZtLicense@@3VCZtLicense@@A ; g_ZtLicense
  001f6	e8 00 00 00 00	 call	 ?CheckUser@CZtLicense@@QAE_NH@Z ; CZtLicense::CheckUser
  001fb	84 c0		 test	 al, al
  001fd	75 10		 jne	 SHORT $LN5@ArmorDurab
  001ff	6a 21		 push	 33			; 00000021H
  00201	b9 00 00 00 00	 mov	 ecx, OFFSET ?g_ZtLicense@@3VCZtLicense@@A ; g_ZtLicense
  00206	e8 00 00 00 00	 call	 ?CheckUser@CZtLicense@@QAE_NH@Z ; CZtLicense::CheckUser
  0020b	84 c0		 test	 al, al
  0020d	74 03		 je	 SHORT $LN6@ArmorDurab
$LN5@ArmorDurab:

; 4222 : 	{
; 4223 : 		DurabilitySmall *= 3;

  0020f	8d 3c 7f	 lea	 edi, DWORD PTR [edi+edi*2]
$LN6@ArmorDurab:

; 4224 : 	}
; 4225 : #if(WAITENI_CUSTOM)
; 4226 : 	if(ZtConfig.CommonServer.DurabilityEnable)

  00212	83 3d 3c 01 00
	00 00		 cmp	 DWORD PTR ?ZtConfig@@3VcZtConfigs@@A+316, 0
  00219	74 07		 je	 SHORT $LN4@ArmorDurab

; 4227 : 	{
; 4228 : 		DurabilitySmall *= ZtConfig.CommonServer.DurabilityMaxCount;

  0021b	0f af 3d 40 01
	00 00		 imul	 edi, DWORD PTR ?ZtConfig@@3VcZtConfigs@@A+320
$LN4@ArmorDurab:

; 4229 : 	}
; 4230 : 
; 4231 : 	//LogAddC(2, "%d = %d > %d", this->m_Type, this->m_DurabilitySmall, DurabilitySmall);
; 4232 : 
; 4233 : #endif
; 4234 : 
; 4235 : 	if ( (int)this->m_DurabilitySmall > DurabilitySmall )

  00222	0f b7 56 28	 movzx	 edx, WORD PTR [esi+40]
  00226	3b d7		 cmp	 edx, edi
  00228	0f 8e 45 fe ff
	ff		 jle	 $LN3@ArmorDurab

; 4236 : 	{
; 4237 : 		this->m_DurabilitySmall = 0;
; 4238 : 		this->m_Durability -= 1.0f;

  0022e	d9 46 24	 fld	 DWORD PTR [esi+36]
  00231	33 c0		 xor	 eax, eax
  00233	dc 25 00 00 00
	00		 fsub	 QWORD PTR __real@3ff0000000000000
  00239	66 89 46 28	 mov	 WORD PTR [esi+40], ax
  0023d	d9 5d 08	 fstp	 DWORD PTR tv381[ebp]
  00240	d9 45 08	 fld	 DWORD PTR tv381[ebp]
  00243	d9 56 24	 fst	 DWORD PTR [esi+36]

; 4239 : 
; 4240 : 		if ( this->m_Durability < 0.0f )

  00246	d9 ee		 fldz
  00248	d8 d1		 fcom	 ST(1)
  0024a	df e0		 fnstsw	 ax
  0024c	dd d9		 fstp	 ST(1)
  0024e	f6 c4 41	 test	 ah, 65			; 00000041H
  00251	75 1a		 jne	 SHORT $LN34@ArmorDurab

; 4241 : 		{
; 4242 : 			this->m_Durability = 0;
; 4243 : 		}
; 4244 : 		
; 4245 : 		if ( this->CheckDurabilityState() != 0 )

  00253	8b ce		 mov	 ecx, esi
  00255	d9 5e 24	 fstp	 DWORD PTR [esi+36]
  00258	e8 00 00 00 00	 call	 ?CheckDurabilityState@CItem@@QAEHXZ ; CItem::CheckDurabilityState
  0025d	f7 d8		 neg	 eax
  0025f	1b c0		 sbb	 eax, eax
  00261	5f		 pop	 edi
  00262	f7 d8		 neg	 eax
  00264	5e		 pop	 esi
  00265	40		 inc	 eax
  00266	5b		 pop	 ebx

; 4254 : }

  00267	8b e5		 mov	 esp, ebp
  00269	5d		 pop	 ebp
  0026a	c2 08 00	 ret	 8
$LN34@ArmorDurab:

; 4241 : 		{
; 4242 : 			this->m_Durability = 0;
; 4243 : 		}
; 4244 : 		
; 4245 : 		if ( this->CheckDurabilityState() != 0 )

  0026d	8b ce		 mov	 ecx, esi
  0026f	dd d8		 fstp	 ST(0)
  00271	e8 00 00 00 00	 call	 ?CheckDurabilityState@CItem@@QAEHXZ ; CItem::CheckDurabilityState
  00276	f7 d8		 neg	 eax
  00278	1b c0		 sbb	 eax, eax
  0027a	5f		 pop	 edi
  0027b	f7 d8		 neg	 eax
  0027d	5e		 pop	 esi
  0027e	40		 inc	 eax
  0027f	5b		 pop	 ebx

; 4254 : }

  00280	8b e5		 mov	 esp, ebp
  00282	5d		 pop	 ebp
  00283	c2 08 00	 ret	 8
?ArmorDurabilityDown@CItem@@QAEHHH@Z ENDP		; CItem::ArmorDurabilityDown
; Function compile flags: /Ogtp
_TEXT	ENDS
;	COMDAT ??__EgPetItemExp@@YAXXZ
text$yc	SEGMENT
??__EgPetItemExp@@YAXXZ PROC				; `dynamic initializer for 'gPetItemExp'', COMDAT

; 22   : CPetItemExp gPetItemExp;

  00000	b9 00 00 00 00	 mov	 ecx, OFFSET ?gPetItemExp@@3VCPetItemExp@@A ; gPetItemExp
  00005	e9 00 00 00 00	 jmp	 ??0CPetItemExp@@QAE@XZ	; CPetItemExp::CPetItemExp
??__EgPetItemExp@@YAXXZ ENDP				; `dynamic initializer for 'gPetItemExp''
text$yc	ENDS
PUBLIC	?gPetItemExp@@3VCPetItemExp@@A			; gPetItemExp
_BSS	SEGMENT
?gPetItemExp@@3VCPetItemExp@@A DB 01a0H DUP (?)		; gPetItemExp
_BSS	ENDS
CRT$XCU	SEGMENT
_gPetItemExp$initializer$ DD FLAT:??__EgPetItemExp@@YAXXZ
CRT$XCU	ENDS
END
