; Listing generated by Microsoft (R) Optimizing Compiler Version 16.00.30319.01 

	TITLE	E:\work\tranet_version\GS\common\zzzitem.cpp
	.686P
	.XMM
	include listing.inc
	.model	flat

INCLUDELIB LIBCMT
INCLUDELIB OLDNAMES

PUBLIC	?ItemAttribute@@3PAUITEM_ATTRIBUTE@@A		; ItemAttribute
PUBLIC	?g_MaxItemIndexOfEachItemType@@3PAHA		; g_MaxItemIndexOfEachItemType
_BSS	SEGMENT
?ItemAttribute@@3PAUITEM_ATTRIBUTE@@A DB 0e0000H DUP (?) ; ItemAttribute
?g_MaxItemIndexOfEachItemType@@3PAHA DD 010H DUP (?)	; g_MaxItemIndexOfEachItemType
_BSS	ENDS
_DATA	SEGMENT
_g_iNpcUpDfLevel_CGATE DD 01H
	DD	02H
	DD	02dc6c0H
	DD	02H
	DD	03H
	DD	02dc6c0H
	DD	03H
	DD	04H
	DD	02dc6c0H
_g_iNpcUpDfLevel_CSTATUE DD 01H
	DD	03H
	DD	02dc6c0H
	DD	02H
	DD	05H
	DD	02dc6c0H
	DD	03H
	DD	07H
	DD	02dc6c0H
_g_iNpcUpMaxHP_CGATE DD 02625a0H
	DD	02H
	DD	0f4240H
	DD	03567e0H
	DD	03H
	DD	0f4240H
	DD	04f5880H
	DD	04H
	DD	0f4240H
_g_iNpcUpMaxHP_CSTATUE DD 02191c0H
	DD	03H
	DD	0f4240H
	DD	033e140H
	DD	05H
	DD	0f4240H
	DD	04c4b40H
	DD	07H
	DD	0f4240H
_g_iNpcUpRgLevel_CSTATUE DD 01H
	DD	03H
	DD	04c4b40H
	DD	02H
	DD	05H
	DD	04c4b40H
	DD	03H
	DD	07H
	DD	04c4b40H
_g_iCsUserReSpawnArea DD 023H
	DD	011H
	DD	090H
	DD	030H
	DD	04aH
	DD	090H
	DD	073H
	DD	09aH
	DD	023H
	DD	011H
	DD	090H
	DD	030H
_g_iNpcDefense_CGATE DD 064H
	DD	0b4H
	DD	012cH
	DD	0208H
_g_iNpcDefense_CSTATUE DD 050H
	DD	0b4H
	DD	0154H
	DD	0226H
_g_iCastleWallStepAxisY DD 071H
	DD	0a0H
	DD	0cbH
_DATA	ENDS
PUBLIC	__$ArrayPad$
EXTRN	_isalnum:PROC
EXTRN	_isalpha:PROC
EXTRN	_atof:PROC
EXTRN	_isdigit:PROC
EXTRN	_getc:PROC
EXTRN	_ungetc:PROC
EXTRN	_isspace:PROC
EXTRN	_fgetc:PROC
EXTRN	___security_cookie:DWORD
EXTRN	__fltused:DWORD
EXTRN	@__security_check_cookie@4:PROC
_BSS	SEGMENT
_CurrentToken DD 01H DUP (?)
_TokenNumber DD	01H DUP (?)
_SMDFile DD	01H DUP (?)
_TokenString DB	064H DUP (?)
; Function compile flags: /Ogtp
; File e:\work\tranet_version\gs\include\readscript.h
_BSS	ENDS
;	COMDAT ?GetToken@@YA?AW4SMDToken@@XZ
_TEXT	SEGMENT
_TempString$ = -104					; size = 100
__$ArrayPad$ = -4					; size = 4
?GetToken@@YA?AW4SMDToken@@XZ PROC			; GetToken, COMDAT

; 24   : {

  00000	55		 push	 ebp
  00001	8b ec		 mov	 ebp, esp
  00003	83 ec 68	 sub	 esp, 104		; 00000068H
  00006	a1 00 00 00 00	 mov	 eax, DWORD PTR ___security_cookie
  0000b	33 c5		 xor	 eax, ebp
  0000d	89 45 fc	 mov	 DWORD PTR __$ArrayPad$[ebp], eax

; 25   : 	char ch;
; 26   : 	char* p;
; 27   : 	char TempString[100];
; 28   : 
; 29   : 	TokenString[0]=0;

  00010	c6 05 00 00 00
	00 00		 mov	 BYTE PTR _TokenString, 0
  00017	53		 push	 ebx
  00018	eb 06 8d 9b 00
	00 00 00	 npad	 8
$LL31@GetToken:

; 30   : 
; 31   : 	do
; 32   : 	{
; 33   : 		if ((ch=fgetc(SMDFile)) == -1)

  00020	a1 00 00 00 00	 mov	 eax, DWORD PTR _SMDFile
  00025	50		 push	 eax
  00026	e8 00 00 00 00	 call	 _fgetc
  0002b	8a d8		 mov	 bl, al
  0002d	83 c4 04	 add	 esp, 4
  00030	80 fb ff	 cmp	 bl, -1
  00033	74 64		 je	 SHORT $LN39@GetToken

; 36   : 		}
; 37   : 		else
; 38   : 		{	
; 39   : 			if (ch=='/')		// this is /

  00035	80 fb 2f	 cmp	 bl, 47			; 0000002fH
  00038	75 31		 jne	 SHORT $LN30@GetToken

; 40   : 			{
; 41   : 				if((ch=fgetc(SMDFile)) == '/')

  0003a	8b 0d 00 00 00
	00		 mov	 ecx, DWORD PTR _SMDFile
  00040	51		 push	 ecx
  00041	e8 00 00 00 00	 call	 _fgetc
  00046	8a d8		 mov	 bl, al
  00048	83 c4 04	 add	 esp, 4
  0004b	80 fb 2f	 cmp	 bl, 47			; 0000002fH
  0004e	75 1b		 jne	 SHORT $LN30@GetToken
$LL24@GetToken:

; 42   : 				{
; 43   : 					while ((ch != '\n') && (ch != -1))	// End of Line (EOL)

  00050	80 fb ff	 cmp	 bl, -1
  00053	74 44		 je	 SHORT $LN39@GetToken

; 44   : 					{
; 45   : 						ch=fgetc(SMDFile);

  00055	8b 15 00 00 00
	00		 mov	 edx, DWORD PTR _SMDFile
  0005b	52		 push	 edx
  0005c	e8 00 00 00 00	 call	 _fgetc
  00061	8a d8		 mov	 bl, al
  00063	83 c4 04	 add	 esp, 4
  00066	80 fb 0a	 cmp	 bl, 10			; 0000000aH
  00069	75 e5		 jne	 SHORT $LL24@GetToken
$LN30@GetToken:

; 46   : 					}
; 47   : 	
; 48   : 					if (ch == -1)
; 49   : 					{
; 50   : 						return END;	// End of FILE
; 51   : 					}
; 52   : 				}
; 53   : 			}
; 54   : 		}
; 55   : 	}
; 56   : 	while (isspace(ch) != 0);

  0006b	0f be c3	 movsx	 eax, bl
  0006e	50		 push	 eax
  0006f	e8 00 00 00 00	 call	 _isspace
  00074	83 c4 04	 add	 esp, 4
  00077	85 c0		 test	 eax, eax
  00079	75 a5		 jne	 SHORT $LL31@GetToken

; 57   : 
; 58   : 	
; 59   : 	switch(ch)

  0007b	0f be c3	 movsx	 eax, bl
  0007e	8d 48 de	 lea	 ecx, DWORD PTR [eax-34]
  00081	56		 push	 esi
  00082	83 f9 5b	 cmp	 ecx, 91			; 0000005bH
  00085	0f 87 2b 01 00
	00		 ja	 $LN6@GetToken
  0008b	0f b6 89 00 00
	00 00		 movzx	 ecx, BYTE PTR $LN46@GetToken[ecx]
  00092	ff 24 8d 00 00
	00 00		 jmp	 DWORD PTR $LN50@GetToken[ecx*4]
$LN39@GetToken:

; 34   : 		{
; 35   : 			return END;	// End of FILE (EOF)

  00099	b8 02 00 00 00	 mov	 eax, 2
  0009e	5b		 pop	 ebx

; 147  : 		}
; 148  : 		break;
; 149  : 
; 150  : 	}
; 151  : 
; 152  : 	return NAME;
; 153  : }

  0009f	8b 4d fc	 mov	 ecx, DWORD PTR __$ArrayPad$[ebp]
  000a2	33 cd		 xor	 ecx, ebp
  000a4	e8 00 00 00 00	 call	 @__security_check_cookie@4
  000a9	8b e5		 mov	 esp, ebp
  000ab	5d		 pop	 ebp
  000ac	c3		 ret	 0
$LN19@GetToken:

; 60   : 	{
; 61   : 
; 62   : 	case 0x23:	// #
; 63   : 		return CurrentToken=COMMAND;

  000ad	b8 23 00 00 00	 mov	 eax, 35			; 00000023H
  000b2	e9 99 01 00 00	 jmp	 $LN48@GetToken
$LN18@GetToken:

; 64   : 		break;
; 65   : 	
; 66   : 	case 0x3B:	// ;
; 67   : 		return CurrentToken=SEMICOLON;

  000b7	b8 3b 00 00 00	 mov	 eax, 59			; 0000003bH
  000bc	e9 8f 01 00 00	 jmp	 $LN48@GetToken
$LN17@GetToken:

; 68   : 		break;
; 69   : 	
; 70   : 	case 0x2C:	// ,
; 71   : 
; 72   : 		return CurrentToken=COMMA;

  000c1	b8 2c 00 00 00	 mov	 eax, 44			; 0000002cH
  000c6	e9 85 01 00 00	 jmp	 $LN48@GetToken
$LN16@GetToken:

; 73   : 		break;
; 74   : 	
; 75   : 	case 0x7B:	// {
; 76   : 		return CurrentToken = LP;

  000cb	b8 7b 00 00 00	 mov	 eax, 123		; 0000007bH
  000d0	e9 7b 01 00 00	 jmp	 $LN48@GetToken
$LN15@GetToken:

; 77   : 		break;
; 78   : 
; 79   : 	case 0x7D:	// }
; 80   : 		return CurrentToken = RP;

  000d5	b8 7d 00 00 00	 mov	 eax, 125		; 0000007dH
  000da	e9 71 01 00 00	 jmp	 $LN48@GetToken
$LN14@GetToken:

; 81   : 		break;
; 82   : 	// Nice Index Table :)	by Deathway
; 83   : 	// Numbers Case
; 84   : 	case 0x2D:	//-
; 85   : 	case 0x2E:	//.
; 86   : 	case '0':	//0
; 87   : 	case '1':	//1
; 88   : 	case '2':	//2
; 89   : 	case '3':	//3
; 90   : 	case '4':	//4		
; 91   : 	case '5':	//5
; 92   : 	case '6':	//6
; 93   : 	case '7':	//7
; 94   : 	case '8':	//8
; 95   : 	case '9':	//9
; 96   : 		ungetc(ch, SMDFile);

  000df	8b 15 00 00 00
	00		 mov	 edx, DWORD PTR _SMDFile
  000e5	52		 push	 edx
  000e6	50		 push	 eax
  000e7	e8 00 00 00 00	 call	 _ungetc

; 97   : 		p = TempString;
; 98   : 		
; 99   : 		while (((ch=getc(SMDFile)) != -1) && ((ch == 0x2E) || (isdigit(ch) != 0) || (ch == 0x2D)))  // 2e '.'  2D '-'

  000ec	a1 00 00 00 00	 mov	 eax, DWORD PTR _SMDFile
  000f1	50		 push	 eax
  000f2	8d 75 98	 lea	 esi, DWORD PTR _TempString$[ebp]
  000f5	e8 00 00 00 00	 call	 _getc
  000fa	8a d8		 mov	 bl, al
  000fc	83 c4 0c	 add	 esp, 12			; 0000000cH
  000ff	80 fb ff	 cmp	 bl, -1
  00102	74 33		 je	 SHORT $LN12@GetToken
$LL13@GetToken:
  00104	80 fb 2e	 cmp	 bl, 46			; 0000002eH
  00107	74 15		 je	 SHORT $LN11@GetToken
  00109	0f be cb	 movsx	 ecx, bl
  0010c	51		 push	 ecx
  0010d	e8 00 00 00 00	 call	 _isdigit
  00112	83 c4 04	 add	 esp, 4
  00115	85 c0		 test	 eax, eax
  00117	75 05		 jne	 SHORT $LN11@GetToken
  00119	80 fb 2d	 cmp	 bl, 45			; 0000002dH
  0011c	75 19		 jne	 SHORT $LN12@GetToken
$LN11@GetToken:
  0011e	8b 15 00 00 00
	00		 mov	 edx, DWORD PTR _SMDFile

; 100  : 		{
; 101  : 			*p = ch;	// Construct a String

  00124	88 1e		 mov	 BYTE PTR [esi], bl
  00126	52		 push	 edx

; 102  : 			p++;

  00127	46		 inc	 esi
  00128	e8 00 00 00 00	 call	 _getc
  0012d	8a d8		 mov	 bl, al
  0012f	83 c4 04	 add	 esp, 4
  00132	80 fb ff	 cmp	 bl, -1
  00135	75 cd		 jne	 SHORT $LL13@GetToken
$LN12@GetToken:

; 103  : 		}		
; 104  : 		*p = 0;
; 105  : 		TokenNumber = atof( TempString);	// Select the first Byte as Main ID

  00137	8d 45 98	 lea	 eax, DWORD PTR _TempString$[ebp]
  0013a	50		 push	 eax
  0013b	c6 06 00	 mov	 BYTE PTR [esi], 0
  0013e	e8 00 00 00 00	 call	 _atof
  00143	d9 1d 00 00 00
	00		 fstp	 DWORD PTR _TokenNumber
  00149	83 c4 04	 add	 esp, 4
  0014c	5e		 pop	 esi

; 106  : 		return CurrentToken  = NUMBER ;

  0014d	c7 05 00 00 00
	00 01 00 00 00	 mov	 DWORD PTR _CurrentToken, 1
  00157	b8 01 00 00 00	 mov	 eax, 1
  0015c	5b		 pop	 ebx

; 147  : 		}
; 148  : 		break;
; 149  : 
; 150  : 	}
; 151  : 
; 152  : 	return NAME;
; 153  : }

  0015d	8b 4d fc	 mov	 ecx, DWORD PTR __$ArrayPad$[ebp]
  00160	33 cd		 xor	 ecx, ebp
  00162	e8 00 00 00 00	 call	 @__security_check_cookie@4
  00167	8b e5		 mov	 esp, ebp
  00169	5d		 pop	 ebp
  0016a	c3		 ret	 0
$LN10@GetToken:

; 107  : 		break;
; 108  : 
; 109  : 	case '\"':	// "	String Case
; 110  : 		p=&TokenString[0];
; 111  : 		
; 112  : 		while (((ch=getc(SMDFile)) != -1 ) && (ch != 0x22))	// nice

  0016b	8b 0d 00 00 00
	00		 mov	 ecx, DWORD PTR _SMDFile
  00171	51		 push	 ecx
  00172	be 00 00 00 00	 mov	 esi, OFFSET _TokenString
  00177	e8 00 00 00 00	 call	 _getc
  0017c	83 c4 04	 add	 esp, 4
  0017f	3c ff		 cmp	 al, -1
  00181	74 1e		 je	 SHORT $LN8@GetToken
$LL9@GetToken:
  00183	3c 22		 cmp	 al, 34			; 00000022H
  00185	0f 84 a1 00 00
	00		 je	 $LN7@GetToken
  0018b	8b 15 00 00 00
	00		 mov	 edx, DWORD PTR _SMDFile

; 113  : 		{
; 114  : 			*p = ch;

  00191	88 06		 mov	 BYTE PTR [esi], al
  00193	52		 push	 edx

; 115  : 			p++;

  00194	46		 inc	 esi
  00195	e8 00 00 00 00	 call	 _getc
  0019a	83 c4 04	 add	 esp, 4
  0019d	3c ff		 cmp	 al, -1
  0019f	75 e2		 jne	 SHORT $LL9@GetToken
$LN8@GetToken:

; 116  : 		}
; 117  : 		if (ch != 0x22 )

  001a1	3c 22		 cmp	 al, 34			; 00000022H
  001a3	0f 84 83 00 00
	00		 je	 $LN7@GetToken

; 118  : 		{
; 119  : 			ungetc(ch, SMDFile);

  001a9	8b 0d 00 00 00
	00		 mov	 ecx, DWORD PTR _SMDFile
  001af	0f be d0	 movsx	 edx, al
  001b2	51		 push	 ecx
  001b3	52		 push	 edx

; 120  : 		}
; 121  : 		*p = 0;
; 122  : 		return CurrentToken = NAME;

  001b4	eb 6e		 jmp	 SHORT $LN49@GetToken
$LN6@GetToken:

; 123  : 		break;
; 124  : 
; 125  : 	default:	// Others
; 126  : 		if (isalpha(ch))

  001b6	50		 push	 eax
  001b7	e8 00 00 00 00	 call	 _isalpha
  001bc	83 c4 04	 add	 esp, 4
  001bf	85 c0		 test	 eax, eax
  001c1	0f 84 84 00 00
	00		 je	 $LN5@GetToken

; 127  : 		{
; 128  : 			p=&TokenString[0];
; 129  : 			*p=ch;
; 130  : 			p++;
; 131  : 
; 132  : 			while ( ((ch=getc(SMDFile)) != -1) && ( (ch == 0x2E) || (ch == 0x5F) || (isalnum(ch) != 0) ) )

  001c7	a1 00 00 00 00	 mov	 eax, DWORD PTR _SMDFile
  001cc	50		 push	 eax
  001cd	88 1d 00 00 00
	00		 mov	 BYTE PTR _TokenString, bl
  001d3	be 01 00 00 00	 mov	 esi, OFFSET _TokenString+1
  001d8	e8 00 00 00 00	 call	 _getc
  001dd	8a d8		 mov	 bl, al
  001df	83 c4 04	 add	 esp, 4
  001e2	80 fb ff	 cmp	 bl, -1
  001e5	74 33		 je	 SHORT $LN3@GetToken
$LL4@GetToken:
  001e7	80 fb 2e	 cmp	 bl, 46			; 0000002eH
  001ea	74 15		 je	 SHORT $LN2@GetToken
  001ec	80 fb 5f	 cmp	 bl, 95			; 0000005fH
  001ef	74 10		 je	 SHORT $LN2@GetToken
  001f1	0f be cb	 movsx	 ecx, bl
  001f4	51		 push	 ecx
  001f5	e8 00 00 00 00	 call	 _isalnum
  001fa	83 c4 04	 add	 esp, 4
  001fd	85 c0		 test	 eax, eax
  001ff	74 19		 je	 SHORT $LN3@GetToken
$LN2@GetToken:
  00201	8b 15 00 00 00
	00		 mov	 edx, DWORD PTR _SMDFile

; 133  : 			{
; 134  : 				*p=ch;

  00207	88 1e		 mov	 BYTE PTR [esi], bl
  00209	52		 push	 edx

; 135  : 				p++;

  0020a	46		 inc	 esi
  0020b	e8 00 00 00 00	 call	 _getc
  00210	8a d8		 mov	 bl, al
  00212	83 c4 04	 add	 esp, 4
  00215	80 fb ff	 cmp	 bl, -1
  00218	75 cd		 jne	 SHORT $LL4@GetToken
$LN3@GetToken:

; 136  : 				
; 137  : 			}
; 138  : 
; 139  : 			ungetc(ch, SMDFile);

  0021a	a1 00 00 00 00	 mov	 eax, DWORD PTR _SMDFile
  0021f	0f be cb	 movsx	 ecx, bl
  00222	50		 push	 eax
  00223	51		 push	 ecx
$LN49@GetToken:
  00224	e8 00 00 00 00	 call	 _ungetc
  00229	83 c4 08	 add	 esp, 8
$LN7@GetToken:

; 140  : 			*p=0;

  0022c	c6 06 00	 mov	 BYTE PTR [esi], 0
  0022f	5e		 pop	 esi

; 141  : 			CurrentToken=NAME;

  00230	c7 05 00 00 00
	00 00 00 00 00	 mov	 DWORD PTR _CurrentToken, 0

; 142  : 			return CurrentToken;

  0023a	33 c0		 xor	 eax, eax
  0023c	5b		 pop	 ebx

; 147  : 		}
; 148  : 		break;
; 149  : 
; 150  : 	}
; 151  : 
; 152  : 	return NAME;
; 153  : }

  0023d	8b 4d fc	 mov	 ecx, DWORD PTR __$ArrayPad$[ebp]
  00240	33 cd		 xor	 ecx, ebp
  00242	e8 00 00 00 00	 call	 @__security_check_cookie@4
  00247	8b e5		 mov	 esp, ebp
  00249	5d		 pop	 ebp
  0024a	c3		 ret	 0
$LN5@GetToken:

; 143  : 		}
; 144  : 		else
; 145  : 		{
; 146  : 			return CurrentToken = SMD_ERROR; // '<'

  0024b	b8 3c 00 00 00	 mov	 eax, 60			; 0000003cH
$LN48@GetToken:

; 147  : 		}
; 148  : 		break;
; 149  : 
; 150  : 	}
; 151  : 
; 152  : 	return NAME;
; 153  : }

  00250	8b 4d fc	 mov	 ecx, DWORD PTR __$ArrayPad$[ebp]
  00253	5e		 pop	 esi
  00254	33 cd		 xor	 ecx, ebp
  00256	a3 00 00 00 00	 mov	 DWORD PTR _CurrentToken, eax
  0025b	5b		 pop	 ebx
  0025c	e8 00 00 00 00	 call	 @__security_check_cookie@4
  00261	8b e5		 mov	 esp, ebp
  00263	5d		 pop	 ebp
  00264	c3		 ret	 0
  00265	8d 49 00	 npad	 3
$LN50@GetToken:
  00268	00 00 00 00	 DD	 $LN10@GetToken
  0026c	00 00 00 00	 DD	 $LN19@GetToken
  00270	00 00 00 00	 DD	 $LN17@GetToken
  00274	00 00 00 00	 DD	 $LN14@GetToken
  00278	00 00 00 00	 DD	 $LN18@GetToken
  0027c	00 00 00 00	 DD	 $LN16@GetToken
  00280	00 00 00 00	 DD	 $LN15@GetToken
  00284	00 00 00 00	 DD	 $LN6@GetToken
$LN46@GetToken:
  00288	00		 DB	 0
  00289	01		 DB	 1
  0028a	07		 DB	 7
  0028b	07		 DB	 7
  0028c	07		 DB	 7
  0028d	07		 DB	 7
  0028e	07		 DB	 7
  0028f	07		 DB	 7
  00290	07		 DB	 7
  00291	07		 DB	 7
  00292	02		 DB	 2
  00293	03		 DB	 3
  00294	03		 DB	 3
  00295	07		 DB	 7
  00296	03		 DB	 3
  00297	03		 DB	 3
  00298	03		 DB	 3
  00299	03		 DB	 3
  0029a	03		 DB	 3
  0029b	03		 DB	 3
  0029c	03		 DB	 3
  0029d	03		 DB	 3
  0029e	03		 DB	 3
  0029f	03		 DB	 3
  002a0	07		 DB	 7
  002a1	04		 DB	 4
  002a2	07		 DB	 7
  002a3	07		 DB	 7
  002a4	07		 DB	 7
  002a5	07		 DB	 7
  002a6	07		 DB	 7
  002a7	07		 DB	 7
  002a8	07		 DB	 7
  002a9	07		 DB	 7
  002aa	07		 DB	 7
  002ab	07		 DB	 7
  002ac	07		 DB	 7
  002ad	07		 DB	 7
  002ae	07		 DB	 7
  002af	07		 DB	 7
  002b0	07		 DB	 7
  002b1	07		 DB	 7
  002b2	07		 DB	 7
  002b3	07		 DB	 7
  002b4	07		 DB	 7
  002b5	07		 DB	 7
  002b6	07		 DB	 7
  002b7	07		 DB	 7
  002b8	07		 DB	 7
  002b9	07		 DB	 7
  002ba	07		 DB	 7
  002bb	07		 DB	 7
  002bc	07		 DB	 7
  002bd	07		 DB	 7
  002be	07		 DB	 7
  002bf	07		 DB	 7
  002c0	07		 DB	 7
  002c1	07		 DB	 7
  002c2	07		 DB	 7
  002c3	07		 DB	 7
  002c4	07		 DB	 7
  002c5	07		 DB	 7
  002c6	07		 DB	 7
  002c7	07		 DB	 7
  002c8	07		 DB	 7
  002c9	07		 DB	 7
  002ca	07		 DB	 7
  002cb	07		 DB	 7
  002cc	07		 DB	 7
  002cd	07		 DB	 7
  002ce	07		 DB	 7
  002cf	07		 DB	 7
  002d0	07		 DB	 7
  002d1	07		 DB	 7
  002d2	07		 DB	 7
  002d3	07		 DB	 7
  002d4	07		 DB	 7
  002d5	07		 DB	 7
  002d6	07		 DB	 7
  002d7	07		 DB	 7
  002d8	07		 DB	 7
  002d9	07		 DB	 7
  002da	07		 DB	 7
  002db	07		 DB	 7
  002dc	07		 DB	 7
  002dd	07		 DB	 7
  002de	07		 DB	 7
  002df	07		 DB	 7
  002e0	07		 DB	 7
  002e1	05		 DB	 5
  002e2	07		 DB	 7
  002e3	06		 DB	 6
?GetToken@@YA?AW4SMDToken@@XZ ENDP			; GetToken
_TEXT	ENDS
PUBLIC	??_H@YGXPAXIHP6EPAX0@Z@Z			; `vector constructor iterator'
; Function compile flags: /Ogtp
;	COMDAT ??_H@YGXPAXIHP6EPAX0@Z@Z
_TEXT	SEGMENT
___t$ = 8						; size = 4
___s$ = 12						; size = 4
___n$ = 16						; size = 4
___f$ = 20						; size = 4
??_H@YGXPAXIHP6EPAX0@Z@Z PROC				; `vector constructor iterator', COMDAT
  00000	55		 push	 ebp
  00001	8b ec		 mov	 ebp, esp
  00003	57		 push	 edi
  00004	8b 7d 10	 mov	 edi, DWORD PTR ___n$[ebp]
  00007	4f		 dec	 edi
  00008	78 14		 js	 SHORT $LN1@vector
  0000a	53		 push	 ebx
  0000b	8b 5d 14	 mov	 ebx, DWORD PTR ___f$[ebp]
  0000e	56		 push	 esi
  0000f	8b 75 08	 mov	 esi, DWORD PTR ___t$[ebp]
$LL2@vector:
  00012	8b ce		 mov	 ecx, esi
  00014	ff d3		 call	 ebx
  00016	03 75 0c	 add	 esi, DWORD PTR ___s$[ebp]
  00019	4f		 dec	 edi
  0001a	79 f6		 jns	 SHORT $LL2@vector
  0001c	5e		 pop	 esi
  0001d	5b		 pop	 ebx
$LN1@vector:
  0001e	5f		 pop	 edi
  0001f	5d		 pop	 ebp
  00020	c2 10 00	 ret	 16			; 00000010H
??_H@YGXPAXIHP6EPAX0@Z@Z ENDP				; `vector constructor iterator'
_TEXT	ENDS
PUBLIC	__real@bf800000
PUBLIC	__real@00000000
PUBLIC	?Clear@CItem@@QAEXXZ				; CItem::Clear
;	COMDAT __real@bf800000
; File e:\work\tranet_version\gs\common\zzzitem.cpp
CONST	SEGMENT
__real@bf800000 DD 0bf800000r			; -1
CONST	ENDS
;	COMDAT __real@00000000
CONST	SEGMENT
__real@00000000 DD 000000000r			; 0
; Function compile flags: /Ogtp
CONST	ENDS
;	COMDAT ?Clear@CItem@@QAEXXZ
_TEXT	SEGMENT
?Clear@CItem@@QAEXXZ PROC				; CItem::Clear, COMDAT
; _this$ = ecx

; 32   : 	this->m_Type =-1;
; 33   : 	this->m_Level =0;
; 34   : 	this->m_Part=0;
; 35   : 	this->m_Class=0;
; 36   : 	this->m_TwoHand=0;
; 37   : 	this->m_AttackSpeed=0;
; 38   : 	this->m_DamageMin=0;
; 39   : 	this->m_DamageMax=0;
; 40   : 	this->m_SuccessfulBlocking=0;
; 41   : 	this->m_Defense=0;
; 42   : 	this->m_MagicDefense =0;
; 43   : 	this->m_Durability=0;

  00000	d9 ee		 fldz
  00002	83 ca ff	 or	 edx, -1
  00005	d9 59 24	 fstp	 DWORD PTR [ecx+36]

; 44   : 	this->m_SpecialNum=0;
; 45   : 	this->m_Value=0;
; 46   : 	this->m_Option1 =0;
; 47   : 	this->m_Option2 =0;
; 48   : 	this->m_Option3 =0;
; 49   : 	this->m_NewOption =0;
; 50   : 	this->m_Number =0;
; 51   : 	this->m_DurabilitySmall =0;
; 52   : 	this->m_iPShopValue=-1;

  00008	89 51 74	 mov	 DWORD PTR [ecx+116], edx

; 53   : 
; 54   : #if(CUSTOM_PERSONAL_SHOP==TRUE)
; 55   : 	this->m_iPShopBonus=-1;
; 56   : 	this->m_PShopBlessValue=-1;
; 57   : 	this->m_PShopSoulValue=-1;
; 58   : 	this->m_PShopChaosValue=-1;
; 59   : 	this->m_PShopLifeValue=-1;
; 60   : 	//#if(DEV_PERSONAL_CREDIT)
; 61   : 	this->m_iPShopCredit=-1;
; 62   : 	//#endif
; 63   : #endif
; 64   : 
; 65   : 	this->m_bItemExist=true;
; 66   : 	this->m_CurrentDurabilityState=-1;

  0000b	d9 05 00 00 00
	00		 fld	 DWORD PTR __real@bf800000
  00011	89 51 78	 mov	 DWORD PTR [ecx+120], edx
  00014	d9 99 a8 00 00
	00		 fstp	 DWORD PTR [ecx+168]
  0001a	89 91 84 00 00
	00		 mov	 DWORD PTR [ecx+132], edx
  00020	c6 81 88 00 00
	00 01		 mov	 BYTE PTR [ecx+136], 1
  00027	56		 push	 esi
  00028	33 f6		 xor	 esi, esi
  0002a	66 89 71 10	 mov	 WORD PTR [ecx+16], si
  0002e	66 89 71 12	 mov	 WORD PTR [ecx+18], si
  00032	66 89 71 16	 mov	 WORD PTR [ecx+22], si
  00036	66 89 71 18	 mov	 WORD PTR [ecx+24], si
  0003a	66 89 71 28	 mov	 WORD PTR [ecx+40], si
  0003e	8b c2		 mov	 eax, edx
  00040	66 89 41 06	 mov	 WORD PTR [ecx+6], ax
  00044	33 c0		 xor	 eax, eax
  00046	66 89 41 08	 mov	 WORD PTR [ecx+8], ax
  0004a	89 41 0a	 mov	 DWORD PTR [ecx+10], eax
  0004d	88 41 14	 mov	 BYTE PTR [ecx+20], al
  00050	88 41 30	 mov	 BYTE PTR [ecx+48], al
  00053	89 41 68	 mov	 DWORD PTR [ecx+104], eax
  00056	89 81 94 00 00
	00		 mov	 DWORD PTR [ecx+148], eax
  0005c	89 01		 mov	 DWORD PTR [ecx], eax

; 67   : 	this->m_SetOption=0;

  0005e	66 89 81 ad 00
	00 00		 mov	 WORD PTR [ecx+173], ax
  00065	8b f2		 mov	 esi, edx
  00067	66 89 71 7c	 mov	 WORD PTR [ecx+124], si
  0006b	66 89 71 7e	 mov	 WORD PTR [ecx+126], si
  0006f	66 89 b1 80 00
	00 00		 mov	 WORD PTR [ecx+128], si
  00076	66 89 b1 82 00
	00 00		 mov	 WORD PTR [ecx+130], si

; 68   : 	this->m_QuestItem=false;
; 69   : 
; 70   : 	memset(this->m_Special, 0, sizeof(this->m_Special));

  0007d	89 41 32	 mov	 DWORD PTR [ecx+50], eax
  00080	89 41 36	 mov	 DWORD PTR [ecx+54], eax
  00083	89 41 3a	 mov	 DWORD PTR [ecx+58], eax
  00086	89 41 3e	 mov	 DWORD PTR [ecx+62], eax

; 71   : 	memset(this->m_SpecialValue, 0, sizeof(this->m_SpecialValue));

  00089	89 41 42	 mov	 DWORD PTR [ecx+66], eax
  0008c	89 41 46	 mov	 DWORD PTR [ecx+70], eax

; 72   : 	memset(this->m_Resistance, 0, sizeof(this->m_Resistance));

  0008f	89 41 5f	 mov	 DWORD PTR [ecx+95], eax
  00092	66 89 41 63	 mov	 WORD PTR [ecx+99], ax
  00096	88 41 65	 mov	 BYTE PTR [ecx+101], al

; 73   : 
; 74   : 	this->m_IsLoadPetItemInfo=0;
; 75   : 	this->m_PetItem_Level =1;
; 76   : 	this->m_PetItem_Exp =0;
; 77   : 	this->m_Leadership=0;

  00099	33 f6		 xor	 esi, esi
  0009b	66 89 71 56	 mov	 WORD PTR [ecx+86], si
  0009f	89 81 b8 00 00
	00		 mov	 DWORD PTR [ecx+184], eax
  000a5	c7 81 bc 00 00
	00 01 00 00 00	 mov	 DWORD PTR [ecx+188], 1
  000af	89 81 c0 00 00
	00		 mov	 DWORD PTR [ecx+192], eax

; 78   : 	this->m_JewelOfHarmonyOption = 0;

  000b5	88 81 c4 00 00
	00		 mov	 BYTE PTR [ecx+196], al

; 79   : 	this->m_ItemOptionEx = 0;
; 80   : #ifdef PERIOD
; 81   : 	m_PeriodItemOption = 0;

  000bb	88 81 d2 00 00
	00		 mov	 BYTE PTR [ecx+210], al
  000c1	66 c7 81 ca 00
	00 00 00 ff	 mov	 WORD PTR [ecx+202], 65280 ; 0000ff00H

; 82   : #endif
; 83   : 	//Season 4 add-on
; 84   : 	this->m_SocketOptionIndex = 0xFF;
; 85   : 
; 86   : 	memset(this->m_SocketOption, 0xFF, sizeof(this->m_SocketOption));

  000ca	89 91 cc 00 00
	00		 mov	 DWORD PTR [ecx+204], edx
  000d0	88 91 d0 00 00
	00		 mov	 BYTE PTR [ecx+208], dl

; 87   : 
; 88   : 	this->m_SocketBonus = 0;

  000d6	88 81 d1 00 00
	00		 mov	 BYTE PTR [ecx+209], al
  000dc	5e		 pop	 esi

; 89   : }

  000dd	c3		 ret	 0
?Clear@CItem@@QAEXXZ ENDP				; CItem::Clear
_TEXT	ENDS
PUBLIC	?IsItem@CItem@@QAEHXZ				; CItem::IsItem
; Function compile flags: /Ogtp
;	COMDAT ?IsItem@CItem@@QAEHXZ
_TEXT	SEGMENT
?IsItem@CItem@@QAEHXZ PROC				; CItem::IsItem, COMDAT
; _this$ = ecx

; 93   : 	if (this->m_Type < 0)

  00000	33 c0		 xor	 eax, eax
  00002	66 39 41 06	 cmp	 WORD PTR [ecx+6], ax
  00006	0f 9d c0	 setge	 al

; 94   : 	{
; 95   : 		return 0;
; 96   : 	}
; 97   : 	else
; 98   : 	{
; 99   : 		return 1;
; 100  : 	}
; 101  : }

  00009	c3		 ret	 0
?IsItem@CItem@@QAEHXZ ENDP				; CItem::IsItem
_TEXT	ENDS
PUBLIC	?IsSetItem@CItem@@QAEHXZ			; CItem::IsSetItem
; Function compile flags: /Ogtp
;	COMDAT ?IsSetItem@CItem@@QAEHXZ
_TEXT	SEGMENT
?IsSetItem@CItem@@QAEHXZ PROC				; CItem::IsSetItem, COMDAT
; _this$ = ecx

; 105  : 	if (this->m_Type < 0)

  00000	66 83 79 06 00	 cmp	 WORD PTR [ecx+6], 0
  00005	7d 03		 jge	 SHORT $LN2@IsSetItem

; 106  : 	{
; 107  : 		return 0;

  00007	33 c0		 xor	 eax, eax

; 112  : 	}
; 113  : }	

  00009	c3		 ret	 0
$LN2@IsSetItem:

; 108  : 	}
; 109  : 	else
; 110  : 	{
; 111  : 		return this->m_SetOption & 3;

  0000a	0f b6 81 ae 00
	00 00		 movzx	 eax, BYTE PTR [ecx+174]
  00011	83 e0 03	 and	 eax, 3

; 112  : 	}
; 113  : }	

  00014	c3		 ret	 0
?IsSetItem@CItem@@QAEHXZ ENDP				; CItem::IsSetItem
_TEXT	ENDS
PUBLIC	?GetLevel@CItem@@QAEHXZ				; CItem::GetLevel
; Function compile flags: /Ogtp
;	COMDAT ?GetLevel@CItem@@QAEHXZ
_TEXT	SEGMENT
?GetLevel@CItem@@QAEHXZ PROC				; CItem::GetLevel, COMDAT
; _this$ = ecx

; 1729 : 	return ItemAttribute[this->m_Type].Level;

  00000	0f bf 41 06	 movsx	 eax, WORD PTR [ecx+6]
  00004	6b c0 70	 imul	 eax, 112		; 00000070H
  00007	0f b6 80 22 00
	00 00		 movzx	 eax, BYTE PTR ?ItemAttribute@@3PAUITEM_ATTRIBUTE@@A[eax+34]

; 1730 : }

  0000e	c3		 ret	 0
?GetLevel@CItem@@QAEHXZ ENDP				; CItem::GetLevel
_TEXT	ENDS
PUBLIC	?GetNumber@CItem@@QAEKXZ			; CItem::GetNumber
; Function compile flags: /Ogtp
;	COMDAT ?GetNumber@CItem@@QAEKXZ
_TEXT	SEGMENT
?GetNumber@CItem@@QAEKXZ PROC				; CItem::GetNumber, COMDAT
; _this$ = ecx

; 1734 : 	return this->m_Number;

  00000	8b 01		 mov	 eax, DWORD PTR [ecx]

; 1735 : }

  00002	c3		 ret	 0
?GetNumber@CItem@@QAEKXZ ENDP				; CItem::GetNumber
_TEXT	ENDS
PUBLIC	?OldValue@CItem@@QAEXXZ				; CItem::OldValue
; Function compile flags: /Ogtp
;	COMDAT ?OldValue@CItem@@QAEXXZ
_TEXT	SEGMENT
?OldValue@CItem@@QAEXXZ PROC				; CItem::OldValue, COMDAT
; _this$ = ecx

; 2595 : 	if ( this->m_Type == -1 )

  00000	0f b7 41 06	 movzx	 eax, WORD PTR [ecx+6]
  00004	66 83 f8 ff	 cmp	 ax, -1
  00008	0f 84 a0 00 00
	00		 je	 $LN1@OldValue

; 2596 : 	{
; 2597 : 		return;
; 2598 : 	}
; 2599 : 
; 2600 : 	int Gold = 0;
; 2601 : 
; 2602 : 	if ( this->m_Type == ITEMGET(14,13) ) // Bless

  0000e	ba 0d 1c 00 00	 mov	 edx, 7181		; 00001c0dH
  00013	66 3b c2	 cmp	 ax, dx
  00016	75 07		 jne	 SHORT $LN13@OldValue

; 2603 : 	{
; 2604 : 		Gold = 100000;

  00018	ba a0 86 01 00	 mov	 edx, 100000		; 000186a0H
  0001d	eb 3b		 jmp	 SHORT $LN4@OldValue
$LN13@OldValue:

; 2605 : 	}
; 2606 : 	else if ( this->m_Type == ITEMGET(14,14) ) // Soul

  0001f	ba 0e 1c 00 00	 mov	 edx, 7182		; 00001c0eH
  00024	66 3b c2	 cmp	 ax, dx
  00027	75 07		 jne	 SHORT $LN11@OldValue

; 2607 : 	{
; 2608 : 		Gold = 70000;

  00029	ba 70 11 01 00	 mov	 edx, 70000		; 00011170H
  0002e	eb 2a		 jmp	 SHORT $LN4@OldValue
$LN11@OldValue:

; 2609 : 	}
; 2610 : 	else if ( this->m_Type == ITEMGET(12,15) ) // Chaos

  00030	ba 0f 18 00 00	 mov	 edx, 6159		; 0000180fH
  00035	66 3b c2	 cmp	 ax, dx
  00038	75 07		 jne	 SHORT $LN9@OldValue

; 2611 : 	{
; 2612 : 		Gold = 40000;

  0003a	ba 40 9c 00 00	 mov	 edx, 40000		; 00009c40H
  0003f	eb 19		 jmp	 SHORT $LN4@OldValue
$LN9@OldValue:

; 2613 : 	}
; 2614 : 	else if ( this->m_Type == ITEMGET(14,22) ) // Creation

  00041	ba 16 1c 00 00	 mov	 edx, 7190		; 00001c16H
  00046	66 3b c2	 cmp	 ax, dx

; 2615 : 	{
; 2616 : 		Gold = 450000;

  00049	74 0a		 je	 SHORT $LN17@OldValue

; 2617 : 	}
; 2618 : 	else if ( this->m_Type == ITEMGET(14,16) ) // Life

  0004b	ba 10 1c 00 00	 mov	 edx, 7184		; 00001c10H
  00050	66 3b c2	 cmp	 ax, dx
  00053	75 50		 jne	 SHORT $LN5@OldValue
$LN17@OldValue:

; 2619 : 	{
; 2620 : 		Gold = 450000;

  00055	ba d0 dd 06 00	 mov	 edx, 450000		; 0006ddd0H
$LN4@OldValue:

; 2625 : 		return;
; 2626 : 	}
; 2627 : 
; 2628 : 	this->m_OldBuyMoney = Gold;

  0005a	89 91 90 00 00
	00		 mov	 DWORD PTR [ecx+144], edx

; 2629 : 
; 2630 : 	if ( this->m_OldBuyMoney >= 1000 )

  00060	81 fa e8 03 00
	00		 cmp	 edx, 1000		; 000003e8H
  00066	7c 1b		 jl	 SHORT $LN3@OldValue

; 2631 : 	{
; 2632 : 		this->m_OldBuyMoney = this->m_OldBuyMoney /100*100;

  00068	b8 1f 85 eb 51	 mov	 eax, 1374389535		; 51eb851fH
  0006d	f7 ea		 imul	 edx
  0006f	c1 fa 05	 sar	 edx, 5
  00072	8b c2		 mov	 eax, edx
  00074	c1 e8 1f	 shr	 eax, 31			; 0000001fH
  00077	03 c2		 add	 eax, edx
  00079	6b c0 64	 imul	 eax, 100		; 00000064H
  0007c	89 81 90 00 00
	00		 mov	 DWORD PTR [ecx+144], eax

; 2637 : 	}
; 2638 : }

  00082	c3		 ret	 0
$LN3@OldValue:

; 2633 : 	}
; 2634 : 	else if ( this->m_OldBuyMoney >= 100 )

  00083	83 fa 64	 cmp	 edx, 100		; 00000064H
  00086	7c 26		 jl	 SHORT $LN1@OldValue

; 2635 : 	{
; 2636 : 		this->m_OldBuyMoney = this->m_OldBuyMoney / 10 * 10;

  00088	b8 67 66 66 66	 mov	 eax, 1717986919		; 66666667H
  0008d	f7 ea		 imul	 edx
  0008f	c1 fa 02	 sar	 edx, 2
  00092	8b c2		 mov	 eax, edx
  00094	c1 e8 1f	 shr	 eax, 31			; 0000001fH
  00097	03 c2		 add	 eax, edx
  00099	8d 14 80	 lea	 edx, DWORD PTR [eax+eax*4]
  0009c	03 d2		 add	 edx, edx
  0009e	89 91 90 00 00
	00		 mov	 DWORD PTR [ecx+144], edx

; 2637 : 	}
; 2638 : }

  000a4	c3		 ret	 0
$LN5@OldValue:

; 2621 : 	}
; 2622 : 	else
; 2623 : 	{
; 2624 : 		this->m_OldBuyMoney = this->m_BuyMoney;

  000a5	8b 41 70	 mov	 eax, DWORD PTR [ecx+112]
  000a8	89 81 90 00 00
	00		 mov	 DWORD PTR [ecx+144], eax
$LN1@OldValue:

; 2637 : 	}
; 2638 : }

  000ae	c3		 ret	 0
?OldValue@CItem@@QAEXXZ ENDP				; CItem::OldValue
_TEXT	ENDS
PUBLIC	??0CPetItemExp@@QAE@XZ				; CPetItemExp::CPetItemExp
; Function compile flags: /Ogtp
;	COMDAT ??0CPetItemExp@@QAE@XZ
_TEXT	SEGMENT
??0CPetItemExp@@QAE@XZ PROC				; CPetItemExp::CPetItemExp, COMDAT
; _this$ = ecx

; 2641 : {

  00000	8b c1		 mov	 eax, ecx

; 2642 : 	this->m_DarkSpiritExpTable[0] = 0;

  00002	33 c9		 xor	 ecx, ecx
  00004	89 08		 mov	 DWORD PTR [eax], ecx

; 2643 : 	this->m_DarkSpiritExpTable[1] = 0;

  00006	89 48 04	 mov	 DWORD PTR [eax+4], ecx

; 2644 : 
; 2645 : 	for ( int i = 2 ; i < MAX_PET_LEVEL+2 ; i++ )

  00009	ba 02 00 00 00	 mov	 edx, 2
  0000e	56		 push	 esi
  0000f	90		 npad	 1
$LL6@CPetItemEx:

; 2646 : 	{
; 2647 : 		this->m_DarkSpiritExpTable[i] = (i+10) * i * i * i * 100;

  00010	8d 72 0a	 lea	 esi, DWORD PTR [edx+10]
  00013	0f af f2	 imul	 esi, edx
  00016	0f af f2	 imul	 esi, edx
  00019	0f af f2	 imul	 esi, edx
  0001c	6b f6 64	 imul	 esi, 100		; 00000064H
  0001f	89 34 90	 mov	 DWORD PTR [eax+edx*4], esi
  00022	42		 inc	 edx
  00023	83 fa 34	 cmp	 edx, 52			; 00000034H
  00026	7c e8		 jl	 SHORT $LL6@CPetItemEx

; 2648 : 	}
; 2649 : 
; 2650 : 	this->m_DarkHorseExpTable[0] = 0;

  00028	89 88 d0 00 00
	00		 mov	 DWORD PTR [eax+208], ecx

; 2651 : 	this->m_DarkHorseExpTable[1] = 0;

  0002e	89 88 d4 00 00
	00		 mov	 DWORD PTR [eax+212], ecx

; 2652 : 
; 2653 : 	for (int i = 2 ; i < MAX_PET_LEVEL+2 ; i++ )

  00034	ba 02 00 00 00	 mov	 edx, 2
  00039	8d 88 d8 00 00
	00		 lea	 ecx, DWORD PTR [eax+216]
  0003f	90		 npad	 1
$LL3@CPetItemEx:

; 2654 : 	{
; 2655 : 		this->m_DarkHorseExpTable[i] = (i+10) * i * i * i * 100;

  00040	8d 72 0a	 lea	 esi, DWORD PTR [edx+10]
  00043	0f af f2	 imul	 esi, edx
  00046	0f af f2	 imul	 esi, edx
  00049	0f af f2	 imul	 esi, edx
  0004c	6b f6 64	 imul	 esi, 100		; 00000064H
  0004f	89 31		 mov	 DWORD PTR [ecx], esi
  00051	42		 inc	 edx
  00052	83 c1 04	 add	 ecx, 4
  00055	83 fa 34	 cmp	 edx, 52			; 00000034H
  00058	7c e6		 jl	 SHORT $LL3@CPetItemEx
  0005a	5e		 pop	 esi

; 2656 : 	}
; 2657 : }

  0005b	c3		 ret	 0
??0CPetItemExp@@QAE@XZ ENDP				; CPetItemExp::CPetItemExp
_TEXT	ENDS
PUBLIC	?GetSize@CItem@@QAEHAAH0@Z			; CItem::GetSize
; Function compile flags: /Ogtp
;	COMDAT ?GetSize@CItem@@QAEHAAH0@Z
_TEXT	SEGMENT
_w$ = 8							; size = 4
_h$ = 12						; size = 4
?GetSize@CItem@@QAEHAAH0@Z PROC				; CItem::GetSize, COMDAT
; _this$ = ecx

; 2660 : {

  00000	55		 push	 ebp
  00001	8b ec		 mov	 ebp, esp

; 2661 : 	w=ItemAttribute[this->m_Type].Width  ;

  00003	0f bf 41 06	 movsx	 eax, WORD PTR [ecx+6]
  00007	6b c0 70	 imul	 eax, 112		; 00000070H
  0000a	0f b6 90 23 00
	00 00		 movzx	 edx, BYTE PTR ?ItemAttribute@@3PAUITEM_ATTRIBUTE@@A[eax+35]
  00011	8b 45 08	 mov	 eax, DWORD PTR _w$[ebp]
  00014	89 10		 mov	 DWORD PTR [eax], edx

; 2662 : 	h=ItemAttribute[this->m_Type].Height  ;

  00016	0f bf 49 06	 movsx	 ecx, WORD PTR [ecx+6]
  0001a	8b 45 0c	 mov	 eax, DWORD PTR _h$[ebp]
  0001d	6b c9 70	 imul	 ecx, 112		; 00000070H
  00020	0f b6 91 24 00
	00 00		 movzx	 edx, BYTE PTR ?ItemAttribute@@3PAUITEM_ATTRIBUTE@@A[ecx+36]
  00027	89 10		 mov	 DWORD PTR [eax], edx

; 2663 : 
; 2664 : 	return 1;

  00029	b8 01 00 00 00	 mov	 eax, 1

; 2665 : }

  0002e	5d		 pop	 ebp
  0002f	c2 08 00	 ret	 8
?GetSize@CItem@@QAEHAAH0@Z ENDP				; CItem::GetSize
_TEXT	ENDS
PUBLIC	?BookSpellDmg@CItem@@QAEHXZ			; CItem::BookSpellDmg
; Function compile flags: /Ogtp
;	COMDAT ?BookSpellDmg@CItem@@QAEHXZ
_TEXT	SEGMENT
?BookSpellDmg@CItem@@QAEHXZ PROC			; CItem::BookSpellDmg, COMDAT
; _this$ = ecx

; 2708 : 	int Value;
; 2709 : 	
; 2710 : 	if (this->m_Type < 0)

  00000	66 83 79 06 00	 cmp	 WORD PTR [ecx+6], 0
  00005	7d 03		 jge	 SHORT $LN2@BookSpellD
$LN5@BookSpellD:

; 2711 : 	{
; 2712 : 		return 0;

  00007	33 c0		 xor	 eax, eax

; 2723 : }

  00009	c3		 ret	 0
$LN2@BookSpellD:

; 2713 : 	}
; 2714 : 
; 2715 : 	if(this->m_IsValidItem == false)

  0000a	80 b9 b0 00 00
	00 00		 cmp	 BYTE PTR [ecx+176], 0

; 2716 : 	{
; 2717 : 		return 0;

  00011	74 f4		 je	 SHORT $LN5@BookSpellD

; 2718 : 	}
; 2719 : 	
; 2720 : 	Value = this->m_BookSpell;
; 2721 : 
; 2722 : 	return Value;

  00013	0f b7 41 22	 movzx	 eax, WORD PTR [ecx+34]

; 2723 : }

  00017	c3		 ret	 0
?BookSpellDmg@CItem@@QAEHXZ ENDP			; CItem::BookSpellDmg
_TEXT	ENDS
PUBLIC	??_C@_0BJ@IGGPIOPD@?E?$KM?$LH?$KB?$LN?$LK?5?$LP?$KB?$LH?$KP?5?3?5?$CFd?5?$CI?$CFs?5?$CFd?$CJ?$AA@ ; `string'
PUBLIC	??_C@_0BG@LGADFPBA@?4?4?2common?2zzzitem?4cpp?$AA@ ; `string'
PUBLIC	?IsClass@CItem@@QAEHDHH@Z			; CItem::IsClass
EXTRN	?LogAdd@@3P6AXPADZZA:DWORD			; LogAdd
;	COMDAT ??_C@_0BJ@IGGPIOPD@?E?$KM?$LH?$KB?$LN?$LK?5?$LP?$KB?$LH?$KP?5?3?5?$CFd?5?$CI?$CFs?5?$CFd?$CJ?$AA@
CONST	SEGMENT
??_C@_0BJ@IGGPIOPD@?E?$KM?$LH?$KB?$LN?$LK?5?$LP?$KB?$LH?$KP?5?3?5?$CFd?5?$CI?$CFs?5?$CFd?$CJ?$AA@ DB 0c5H
	DB	0acH, 0b7H, 0a1H, 0bdH, 0baH, ' ', 0bfH, 0a1H, 0b7H, 0afH, ' :'
	DB	' %d (%s %d)', 00H				; `string'
CONST	ENDS
;	COMDAT ??_C@_0BG@LGADFPBA@?4?4?2common?2zzzitem?4cpp?$AA@
CONST	SEGMENT
??_C@_0BG@LGADFPBA@?4?4?2common?2zzzitem?4cpp?$AA@ DB '..\common\zzzitem.'
	DB	'cpp', 00H					; `string'
; Function compile flags: /Ogtp
CONST	ENDS
;	COMDAT ?IsClass@CItem@@QAEHDHH@Z
_TEXT	SEGMENT
_aClass$ = 8						; size = 1
_ChangeUP$ = 12						; size = 4
_ChangeUP3rd$ = 16					; size = 4
?IsClass@CItem@@QAEHDHH@Z PROC				; CItem::IsClass, COMDAT
; _this$ = ecx

; 2726 : {

  00000	55		 push	 ebp
  00001	8b ec		 mov	 ebp, esp

; 2727 : 	if ((aClass < 0) || (aClass >= MAX_TYPE_PLAYER ))

  00003	8a 45 08	 mov	 al, BYTE PTR _aClass$[ebp]
  00006	3c 06		 cmp	 al, 6

; 2731 : 	}
; 2732 : 	
; 2733 : 	int requireclass=this->m_RequireClass[aClass];

  00008	0f be c0	 movsx	 eax, al
  0000b	77 34		 ja	 SHORT $LN7@IsClass
  0000d	0f b6 44 08 58	 movzx	 eax, BYTE PTR [eax+ecx+88]

; 2734 : 	if (requireclass == 0)

  00012	85 c0		 test	 eax, eax

; 2735 : 	{
; 2736 : 		return 0;

  00014	74 44		 je	 SHORT $LN11@IsClass

; 2737 : 	}
; 2738 : 	if (requireclass >= 3)

  00016	83 f8 03	 cmp	 eax, 3
  00019	7c 10		 jl	 SHORT $LN5@IsClass

; 2739 : 	{
; 2740 : 		if (requireclass != (ChangeUP3rd+2))

  0001b	8b 4d 10	 mov	 ecx, DWORD PTR _ChangeUP3rd$[ebp]
  0001e	83 c1 02	 add	 ecx, 2
  00021	3b c1		 cmp	 eax, ecx
  00023	74 13		 je	 SHORT $LN1@IsClass

; 2730 : 		return 0;

  00025	33 c0		 xor	 eax, eax

; 2756 : }

  00027	5d		 pop	 ebp
  00028	c2 0c 00	 ret	 12			; 0000000cH
$LN5@IsClass:

; 2741 : 		{
; 2742 : 			return 0;
; 2743 : 		}
; 2744 : 	}
; 2745 : 	else
; 2746 : 	{
; 2747 : 		if (requireclass > 1)

  0002b	83 f8 01	 cmp	 eax, 1
  0002e	7e 08		 jle	 SHORT $LN1@IsClass

; 2748 : 		{
; 2749 : 			if ( requireclass  != (ChangeUP+1) )

  00030	8b 55 0c	 mov	 edx, DWORD PTR _ChangeUP$[ebp]
  00033	42		 inc	 edx
  00034	3b c2		 cmp	 eax, edx

; 2750 : 			{
; 2751 : 				return 0;

  00036	75 22		 jne	 SHORT $LN11@IsClass
$LN1@IsClass:

; 2752 : 			}
; 2753 : 		}
; 2754 : 	}
; 2755 : 	return 1;

  00038	b8 01 00 00 00	 mov	 eax, 1

; 2756 : }

  0003d	5d		 pop	 ebp
  0003e	c2 0c 00	 ret	 12			; 0000000cH
$LN7@IsClass:

; 2728 : 	{
; 2729 : 		LogAdd("클래스 에러 : %d (%s %d)", aClass, __FILE__, __LINE__);

  00041	68 a9 0a 00 00	 push	 2729			; 00000aa9H
  00046	68 00 00 00 00	 push	 OFFSET ??_C@_0BG@LGADFPBA@?4?4?2common?2zzzitem?4cpp?$AA@
  0004b	50		 push	 eax
  0004c	68 00 00 00 00	 push	 OFFSET ??_C@_0BJ@IGGPIOPD@?E?$KM?$LH?$KB?$LN?$LK?5?$LP?$KB?$LH?$KP?5?3?5?$CFd?5?$CI?$CFs?5?$CFd?$CJ?$AA@
  00051	ff 15 00 00 00
	00		 call	 DWORD PTR ?LogAdd@@3P6AXPADZZA ; LogAdd
  00057	83 c4 10	 add	 esp, 16			; 00000010H
$LN11@IsClass:

; 2730 : 		return 0;

  0005a	33 c0		 xor	 eax, eax

; 2756 : }

  0005c	5d		 pop	 ebp
  0005d	c2 0c 00	 ret	 12			; 0000000cH
?IsClass@CItem@@QAEHDHH@Z ENDP				; CItem::IsClass
_TEXT	ENDS
PUBLIC	?GetName@CItem@@QAEPADXZ			; CItem::GetName
; Function compile flags: /Ogtp
;	COMDAT ?GetName@CItem@@QAEPADXZ
_TEXT	SEGMENT
?GetName@CItem@@QAEPADXZ PROC				; CItem::GetName, COMDAT
; _this$ = ecx

; 2760 : 	return &ItemAttribute[this->m_Type].Name[0];

  00000	0f bf 41 06	 movsx	 eax, WORD PTR [ecx+6]
  00004	6b c0 70	 imul	 eax, 112		; 00000070H
  00007	05 00 00 00 00	 add	 eax, OFFSET ?ItemAttribute@@3PAUITEM_ATTRIBUTE@@A ; ItemAttribute

; 2761 : }

  0000c	c3		 ret	 0
?GetName@CItem@@QAEPADXZ ENDP				; CItem::GetName
_TEXT	ENDS
PUBLIC	__real@4014000000000000
PUBLIC	?PlusSpecialSetRing@CItem@@QAEXPAE@Z		; CItem::PlusSpecialSetRing
;	COMDAT __real@4014000000000000
CONST	SEGMENT
__real@4014000000000000 DQ 04014000000000000r	; 5
; Function compile flags: /Ogtp
CONST	ENDS
;	COMDAT ?PlusSpecialSetRing@CItem@@QAEXPAE@Z
_TEXT	SEGMENT
tv193 = -4						; size = 4
tv191 = -4						; size = 4
_Value$ = 8						; size = 4
tv196 = 10						; size = 2
?PlusSpecialSetRing@CItem@@QAEXPAE@Z PROC		; CItem::PlusSpecialSetRing, COMDAT
; _this$ = ecx

; 2764 : {

  00000	55		 push	 ebp
  00001	8b ec		 mov	 ebp, esp
  00003	51		 push	 ecx

; 2765 : 	if ( this->m_Type < 0 )

  00004	0f b7 51 06	 movzx	 edx, WORD PTR [ecx+6]
  00008	66 85 d2	 test	 dx, dx
  0000b	78 67		 js	 SHORT $LN6@PlusSpecia

; 2766 : 	{
; 2767 : 		return;
; 2768 : 	}
; 2769 : 
; 2770 : 	if ( this->IsSetItem() == FALSE )

  0000d	e8 00 00 00 00	 call	 ?IsSetItem@CItem@@QAEHXZ ; CItem::IsSetItem
  00012	85 c0		 test	 eax, eax
  00014	74 5e		 je	 SHORT $LN6@PlusSpecia

; 2771 : 	{
; 2772 : 		return;
; 2773 : 	}
; 2774 : 
; 2775 : 	if ( this->m_Durability == 0.0f)

  00016	d9 41 24	 fld	 DWORD PTR [ecx+36]
  00019	d9 ee		 fldz
  0001b	da e9		 fucompp
  0001d	df e0		 fnstsw	 ax
  0001f	f6 c4 44	 test	 ah, 68			; 00000044H
  00022	7b 50		 jnp	 SHORT $LN6@PlusSpecia

; 2776 : 	{
; 2777 : 		return;
; 2778 : 	}
; 2779 : 
; 2780 : 	if ( this->m_IsValidItem == false )

  00024	80 b9 b0 00 00
	00 00		 cmp	 BYTE PTR [ecx+176], 0
  0002b	74 47		 je	 SHORT $LN6@PlusSpecia

; 2781 : 	{
; 2782 : 		return;
; 2783 : 	}
; 2784 : 
; 2785 : 	LPITEM_ATTRIBUTE p = &ItemAttribute[this->m_Type];

  0002d	0f bf c2	 movsx	 eax, dx
  00030	6b c0 70	 imul	 eax, 112		; 00000070H
  00033	05 00 00 00 00	 add	 eax, OFFSET ?ItemAttribute@@3PAUITEM_ATTRIBUTE@@A ; ItemAttribute

; 2786 : 
; 2787 : 	if ( p->ResistanceType == -1 )

  00038	0f b6 50 62	 movzx	 edx, BYTE PTR [eax+98]
  0003c	83 fa ff	 cmp	 edx, -1
  0003f	74 33		 je	 SHORT $LN6@PlusSpecia

; 2788 : 	{
; 2789 : 		return;
; 2790 : 	}
; 2791 : 
; 2792 : 	BYTE iValue = 5;
; 2793 : 	Value[p->ResistanceType] += iValue - (BYTE)( iValue * this->m_CurrentDurabilityState);

  00041	d9 81 a8 00 00
	00		 fld	 DWORD PTR [ecx+168]
  00047	56		 push	 esi
  00048	8b 75 08	 mov	 esi, DWORD PTR _Value$[ebp]
  0004b	dc 0d 00 00 00
	00		 fmul	 QWORD PTR __real@4014000000000000
  00051	d9 7d 0a	 fnstcw	 WORD PTR tv196[ebp]
  00054	b1 05		 mov	 cl, 5
  00056	0f b7 45 0a	 movzx	 eax, WORD PTR tv196[ebp]
  0005a	0d 00 0c 00 00	 or	 eax, 3072		; 00000c00H
  0005f	89 45 fc	 mov	 DWORD PTR tv193[ebp], eax
  00062	d9 6d fc	 fldcw	 WORD PTR tv193[ebp]
  00065	db 5d fc	 fistp	 DWORD PTR tv191[ebp]
  00068	8a 45 fc	 mov	 al, BYTE PTR tv191[ebp]
  0006b	2a c8		 sub	 cl, al
  0006d	00 0c 32	 add	 BYTE PTR [edx+esi], cl
  00070	d9 6d 0a	 fldcw	 WORD PTR tv196[ebp]
  00073	5e		 pop	 esi
$LN6@PlusSpecia:

; 2794 : }

  00074	8b e5		 mov	 esp, ebp
  00076	5d		 pop	 ebp
  00077	c2 04 00	 ret	 4
?PlusSpecialSetRing@CItem@@QAEXPAE@Z ENDP		; CItem::PlusSpecialSetRing
_TEXT	ENDS
PUBLIC	?PlusSpecial@CItem@@QAEXPAHH@Z			; CItem::PlusSpecial
EXTRN	__ftol2_sse:PROC
; Function compile flags: /Ogtp
;	COMDAT ?PlusSpecial@CItem@@QAEXPAHH@Z
_TEXT	SEGMENT
_i$213424 = -8						; size = 4
tv321 = -4						; size = 4
_lc3$213434 = 8						; size = 4
_Value$ = 8						; size = 4
_Special$ = 12						; size = 4
?PlusSpecial@CItem@@QAEXPAHH@Z PROC			; CItem::PlusSpecial, COMDAT
; _this$ = ecx

; 2797 : {

  00000	55		 push	 ebp
  00001	8b ec		 mov	 ebp, esp
  00003	83 ec 08	 sub	 esp, 8
  00006	57		 push	 edi
  00007	8b f9		 mov	 edi, ecx

; 2798 : 	if ( this->m_Type < 0 )

  00009	66 83 7f 06 00	 cmp	 WORD PTR [edi+6], 0
  0000e	0f 8c d5 00 00
	00		 jl	 $LN11@PlusSpecia@2

; 2799 : 	{
; 2800 : 		return;
; 2801 : 	}
; 2802 : 
; 2803 : 	if ( this->m_Durability == 0.0f)

  00014	d9 47 24	 fld	 DWORD PTR [edi+36]
  00017	d9 ee		 fldz
  00019	da e9		 fucompp
  0001b	df e0		 fnstsw	 ax
  0001d	f6 c4 44	 test	 ah, 68			; 00000044H
  00020	0f 8b c3 00 00
	00		 jnp	 $LN11@PlusSpecia@2

; 2804 : 	{
; 2805 : 		return;
; 2806 : 	}
; 2807 : 
; 2808 : 	if ( this->m_IsValidItem == false )

  00026	80 bf b0 00 00
	00 00		 cmp	 BYTE PTR [edi+176], 0
  0002d	0f 84 b6 00 00
	00		 je	 $LN11@PlusSpecia@2

; 2809 : 	{
; 2810 : 		return;
; 2811 : 	}
; 2812 : 
; 2813 : 	for (int i =0;i<this->m_SpecialNum;i++)

  00033	80 7f 30 00	 cmp	 BYTE PTR [edi+48], 0
  00037	c7 45 f8 00 00
	00 00		 mov	 DWORD PTR _i$213424[ebp], 0
  0003e	0f 86 a5 00 00
	00		 jbe	 $LN11@PlusSpecia@2
  00044	53		 push	 ebx
  00045	8d 47 32	 lea	 eax, DWORD PTR [edi+50]
  00048	56		 push	 esi
  00049	8b 75 08	 mov	 esi, DWORD PTR _Value$[ebp]
  0004c	89 45 fc	 mov	 DWORD PTR tv321[ebp], eax
  0004f	90		 npad	 1
$LL13@PlusSpecia@2:

; 2814 : 	{
; 2815 : 		if ( this->m_Special[i] == Special )

  00050	8b 4d fc	 mov	 ecx, DWORD PTR tv321[ebp]
  00053	0f b7 11	 movzx	 edx, WORD PTR [ecx]
  00056	8b 45 0c	 mov	 eax, DWORD PTR _Special$[ebp]
  00059	3b d0		 cmp	 edx, eax
  0005b	75 73		 jne	 SHORT $LN12@PlusSpecia@2

; 2816 : 		{
; 2817 : 			switch ( Special )

  0005d	83 c0 b0	 add	 eax, -80		; ffffffb0H
  00060	83 f8 21	 cmp	 eax, 33			; 00000021H
  00063	77 5e		 ja	 SHORT $LN1@PlusSpecia@2
  00065	0f b6 80 00 00
	00 00		 movzx	 eax, BYTE PTR $LN21@PlusSpecia@2[eax]
  0006c	ff 24 85 00 00
	00 00		 jmp	 DWORD PTR $LN24@PlusSpecia@2[eax*4]
$LN7@PlusSpecia@2:

; 2818 : 			{
; 2819 : 				case 82:
; 2820 : 					{
; 2821 : 						int lc3 = this->m_Option3*5;

  00073	0f b6 9f 96 00
	00 00		 movzx	 ebx, BYTE PTR [edi+150]
  0007a	8d 1c 9b	 lea	 ebx, DWORD PTR [ebx+ebx*4]
$LN23@PlusSpecia@2:

; 2822 : 						*Value += lc3 - (int)( lc3 * this->m_CurrentDurabilityState );

  0007d	d9 87 a8 00 00
	00		 fld	 DWORD PTR [edi+168]
  00083	89 5d 08	 mov	 DWORD PTR _lc3$213434[ebp], ebx
  00086	da 4d 08	 fimul	 DWORD PTR _lc3$213434[ebp]
  00089	e8 00 00 00 00	 call	 __ftol2_sse
  0008e	2b d8		 sub	 ebx, eax
  00090	01 1e		 add	 DWORD PTR [esi], ebx

; 2823 : 					}
; 2824 : 					break;

  00092	eb 3c		 jmp	 SHORT $LN12@PlusSpecia@2
$LN6@PlusSpecia@2:

; 2825 : 
; 2826 : 				case 84:
; 2827 : 					* Value += 4;

  00094	83 06 04	 add	 DWORD PTR [esi], 4

; 2828 : 					break;

  00097	eb 37		 jmp	 SHORT $LN12@PlusSpecia@2
$LN5@PlusSpecia@2:

; 2829 : 
; 2830 : 				case 81:
; 2831 : 				case 80:
; 2832 : 				case 83:
; 2833 : 				case 113: //Summoner
; 2834 : 					{
; 2835 : 						int lc4 = this->m_Option3*4;

  00099	0f b6 9f 96 00
	00 00		 movzx	 ebx, BYTE PTR [edi+150]
  000a0	03 db		 add	 ebx, ebx
  000a2	03 db		 add	 ebx, ebx

; 2836 : 						*Value += lc4 - (int)( lc4 * this->m_CurrentDurabilityState );
; 2837 : 					}
; 2838 : 					break;

  000a4	eb d7		 jmp	 SHORT $LN23@PlusSpecia@2
$LN4@PlusSpecia@2:

; 2839 : 
; 2840 : 				case 100:
; 2841 : 				case 101:
; 2842 : 					*Value =  *Value + this->m_Level * 5 + 50;

  000a6	0f bf 47 08	 movsx	 eax, WORD PTR [edi+8]
  000aa	8d 4c 80 32	 lea	 ecx, DWORD PTR [eax+eax*4+50]
  000ae	01 0e		 add	 DWORD PTR [esi], ecx

; 2843 : 					break;

  000b0	eb 1e		 jmp	 SHORT $LN12@PlusSpecia@2
$LN3@PlusSpecia@2:

; 2844 : 
; 2845 : 				case 103:
; 2846 : 					*Value += 50;

  000b2	83 06 32	 add	 DWORD PTR [esi], 50	; 00000032H

; 2847 : 					break;

  000b5	eb 19		 jmp	 SHORT $LN12@PlusSpecia@2
$LN2@PlusSpecia@2:

; 2848 : 
; 2849 : 				case 105:
; 2850 : 					*Value =  *Value + this->m_Level * 5 + 10;

  000b7	0f bf 47 08	 movsx	 eax, WORD PTR [edi+8]
  000bb	8d 54 80 0a	 lea	 edx, DWORD PTR [eax+eax*4+10]
  000bf	01 16		 add	 DWORD PTR [esi], edx

; 2851 : 
; 2852 : 					break;

  000c1	eb 0d		 jmp	 SHORT $LN12@PlusSpecia@2
$LN1@PlusSpecia@2:

; 2853 : 
; 2854 : 				default:
; 2855 : 					*Value = *Value + (this->m_Option3*4);

  000c3	0f b6 87 96 00
	00 00		 movzx	 eax, BYTE PTR [edi+150]
  000ca	03 c0		 add	 eax, eax
  000cc	03 c0		 add	 eax, eax
  000ce	01 06		 add	 DWORD PTR [esi], eax
$LN12@PlusSpecia@2:

; 2809 : 	{
; 2810 : 		return;
; 2811 : 	}
; 2812 : 
; 2813 : 	for (int i =0;i<this->m_SpecialNum;i++)

  000d0	8b 45 f8	 mov	 eax, DWORD PTR _i$213424[ebp]
  000d3	0f b6 4f 30	 movzx	 ecx, BYTE PTR [edi+48]
  000d7	83 45 fc 02	 add	 DWORD PTR tv321[ebp], 2
  000db	40		 inc	 eax
  000dc	89 45 f8	 mov	 DWORD PTR _i$213424[ebp], eax
  000df	3b c1		 cmp	 eax, ecx
  000e1	0f 8c 69 ff ff
	ff		 jl	 $LL13@PlusSpecia@2
  000e7	5e		 pop	 esi
  000e8	5b		 pop	 ebx
$LN11@PlusSpecia@2:
  000e9	5f		 pop	 edi

; 2856 : 					break;
; 2857 : 			}
; 2858 : 		}
; 2859 : 	}
; 2860 : }

  000ea	8b e5		 mov	 esp, ebp
  000ec	5d		 pop	 ebp
  000ed	c2 08 00	 ret	 8
$LN24@PlusSpecia@2:
  000f0	00 00 00 00	 DD	 $LN5@PlusSpecia@2
  000f4	00 00 00 00	 DD	 $LN7@PlusSpecia@2
  000f8	00 00 00 00	 DD	 $LN6@PlusSpecia@2
  000fc	00 00 00 00	 DD	 $LN4@PlusSpecia@2
  00100	00 00 00 00	 DD	 $LN3@PlusSpecia@2
  00104	00 00 00 00	 DD	 $LN2@PlusSpecia@2
  00108	00 00 00 00	 DD	 $LN1@PlusSpecia@2
$LN21@PlusSpecia@2:
  0010c	00		 DB	 0
  0010d	00		 DB	 0
  0010e	01		 DB	 1
  0010f	00		 DB	 0
  00110	02		 DB	 2
  00111	06		 DB	 6
  00112	06		 DB	 6
  00113	06		 DB	 6
  00114	06		 DB	 6
  00115	06		 DB	 6
  00116	06		 DB	 6
  00117	06		 DB	 6
  00118	06		 DB	 6
  00119	06		 DB	 6
  0011a	06		 DB	 6
  0011b	06		 DB	 6
  0011c	06		 DB	 6
  0011d	06		 DB	 6
  0011e	06		 DB	 6
  0011f	06		 DB	 6
  00120	03		 DB	 3
  00121	03		 DB	 3
  00122	06		 DB	 6
  00123	04		 DB	 4
  00124	06		 DB	 6
  00125	05		 DB	 5
  00126	06		 DB	 6
  00127	06		 DB	 6
  00128	06		 DB	 6
  00129	06		 DB	 6
  0012a	06		 DB	 6
  0012b	06		 DB	 6
  0012c	06		 DB	 6
  0012d	00		 DB	 0
?PlusSpecial@CItem@@QAEXPAHH@Z ENDP			; CItem::PlusSpecial
_TEXT	ENDS
PUBLIC	?PlusSpecialPercent@CItem@@QAEXPAHHG@Z		; CItem::PlusSpecialPercent
; Function compile flags: /Ogtp
;	COMDAT ?PlusSpecialPercent@CItem@@QAEXPAHHG@Z
_TEXT	SEGMENT
tv188 = -4						; size = 4
_Value$ = 8						; size = 4
_Special$ = 12						; size = 4
_Percent$ = 16						; size = 2
?PlusSpecialPercent@CItem@@QAEXPAHHG@Z PROC		; CItem::PlusSpecialPercent, COMDAT
; _this$ = ecx

; 2863 : {

  00000	55		 push	 ebp
  00001	8b ec		 mov	 ebp, esp
  00003	51		 push	 ecx

; 2864 : 	if ( this->m_Type < 0 )

  00004	66 83 79 06 00	 cmp	 WORD PTR [ecx+6], 0
  00009	7c 4e		 jl	 SHORT $LN2@PlusSpecia@3

; 2865 : 	{
; 2866 : 		return;
; 2867 : 	}
; 2868 : 
; 2869 : 	for (int i=0;i<this->m_SpecialNum;i++)

  0000b	53		 push	 ebx
  0000c	33 db		 xor	 ebx, ebx
  0000e	38 59 30	 cmp	 BYTE PTR [ecx+48], bl
  00011	76 45		 jbe	 SHORT $LN10@PlusSpecia@3
  00013	56		 push	 esi
  00014	8d 41 32	 lea	 eax, DWORD PTR [ecx+50]
  00017	57		 push	 edi
  00018	8b 7d 08	 mov	 edi, DWORD PTR _Value$[ebp]
  0001b	89 45 fc	 mov	 DWORD PTR tv188[ebp], eax
  0001e	8b ff		 npad	 2
$LL4@PlusSpecia@3:

; 2870 : 	{
; 2871 : 		if ( this->m_Special[i] == Special )

  00020	8b 55 fc	 mov	 edx, DWORD PTR tv188[ebp]
  00023	0f b7 02	 movzx	 eax, WORD PTR [edx]
  00026	3b 45 0c	 cmp	 eax, DWORD PTR _Special$[ebp]
  00029	75 1e		 jne	 SHORT $LN3@PlusSpecia@3

; 2872 : 		{
; 2873 : 			*Value += (*Value * Percent)/ 100;

  0002b	8b 37		 mov	 esi, DWORD PTR [edi]
  0002d	0f b7 55 10	 movzx	 edx, WORD PTR _Percent$[ebp]
  00031	0f af d6	 imul	 edx, esi
  00034	b8 1f 85 eb 51	 mov	 eax, 1374389535		; 51eb851fH
  00039	f7 ea		 imul	 edx
  0003b	c1 fa 05	 sar	 edx, 5
  0003e	8b c2		 mov	 eax, edx
  00040	c1 e8 1f	 shr	 eax, 31			; 0000001fH
  00043	03 c2		 add	 eax, edx
  00045	03 c6		 add	 eax, esi
  00047	89 07		 mov	 DWORD PTR [edi], eax
$LN3@PlusSpecia@3:

; 2865 : 	{
; 2866 : 		return;
; 2867 : 	}
; 2868 : 
; 2869 : 	for (int i=0;i<this->m_SpecialNum;i++)

  00049	0f b6 51 30	 movzx	 edx, BYTE PTR [ecx+48]
  0004d	83 45 fc 02	 add	 DWORD PTR tv188[ebp], 2
  00051	43		 inc	 ebx
  00052	3b da		 cmp	 ebx, edx
  00054	7c ca		 jl	 SHORT $LL4@PlusSpecia@3
  00056	5f		 pop	 edi
  00057	5e		 pop	 esi
$LN10@PlusSpecia@3:
  00058	5b		 pop	 ebx
$LN2@PlusSpecia@3:

; 2874 : 		}
; 2875 : 	}
; 2876 : }

  00059	8b e5		 mov	 esp, ebp
  0005b	5d		 pop	 ebp
  0005c	c2 0c 00	 ret	 12			; 0000000cH
?PlusSpecialPercent@CItem@@QAEXPAHHG@Z ENDP		; CItem::PlusSpecialPercent
_TEXT	ENDS
PUBLIC	?PlusSpecialPercentEx@CItem@@QAEXPAHHH@Z	; CItem::PlusSpecialPercentEx
; Function compile flags: /Ogtp
;	COMDAT ?PlusSpecialPercentEx@CItem@@QAEXPAHHH@Z
_TEXT	SEGMENT
_i$213465 = -8						; size = 4
tv243 = -4						; size = 4
_lc3$213470 = 8						; size = 4
_Value$ = 8						; size = 4
_SourceValue$ = 12					; size = 4
_Special$ = 16						; size = 4
?PlusSpecialPercentEx@CItem@@QAEXPAHHH@Z PROC		; CItem::PlusSpecialPercentEx, COMDAT
; _this$ = ecx

; 2879 : {

  00000	55		 push	 ebp
  00001	8b ec		 mov	 ebp, esp
  00003	83 ec 08	 sub	 esp, 8
  00006	57		 push	 edi
  00007	8b f9		 mov	 edi, ecx

; 2880 : 	if ( this->m_Type < 0 )

  00009	66 83 7f 06 00	 cmp	 WORD PTR [edi+6], 0
  0000e	0f 8c 80 00 00
	00		 jl	 $LN2@PlusSpecia@4

; 2881 : 	{
; 2882 : 		return;
; 2883 : 	}
; 2884 : 
; 2885 : 	if ( this->m_Durability == 0.0f )

  00014	d9 47 24	 fld	 DWORD PTR [edi+36]
  00017	d9 ee		 fldz
  00019	da e9		 fucompp
  0001b	df e0		 fnstsw	 ax
  0001d	f6 c4 44	 test	 ah, 68			; 00000044H
  00020	7b 72		 jnp	 SHORT $LN2@PlusSpecia@4

; 2886 : 	{
; 2887 : 		return;
; 2888 : 	}
; 2889 : 
; 2890 : 	if ( this->m_IsValidItem == false  )

  00022	80 bf b0 00 00
	00 00		 cmp	 BYTE PTR [edi+176], 0
  00029	74 69		 je	 SHORT $LN2@PlusSpecia@4

; 2891 : 	{
; 2892 : 		return;
; 2893 : 	}
; 2894 : 
; 2895 : 	for ( int i =0;i<this->m_SpecialNum;i++)

  0002b	80 7f 30 00	 cmp	 BYTE PTR [edi+48], 0
  0002f	c7 45 f8 00 00
	00 00		 mov	 DWORD PTR _i$213465[ebp], 0
  00036	76 5c		 jbe	 SHORT $LN2@PlusSpecia@4
  00038	53		 push	 ebx
  00039	8b 5d 08	 mov	 ebx, DWORD PTR _Value$[ebp]
  0003c	8d 47 32	 lea	 eax, DWORD PTR [edi+50]
  0003f	56		 push	 esi
  00040	89 45 fc	 mov	 DWORD PTR tv243[ebp], eax
$LL4@PlusSpecia@4:

; 2896 : 	{
; 2897 : 		if ( this->m_Special[i] == Special )

  00043	8b 4d fc	 mov	 ecx, DWORD PTR tv243[ebp]
  00046	0f b7 11	 movzx	 edx, WORD PTR [ecx]
  00049	3b 55 10	 cmp	 edx, DWORD PTR _Special$[ebp]
  0004c	75 31		 jne	 SHORT $LN3@PlusSpecia@4

; 2898 : 		{
; 2899 : 			int lc3 = SourceValue * this->m_Option3/100;

  0004e	0f b6 8f 96 00
	00 00		 movzx	 ecx, BYTE PTR [edi+150]

; 2900 : 			*Value += lc3 - (int)(lc3 * this->m_CurrentDurabilityState );

  00055	d9 87 a8 00 00
	00		 fld	 DWORD PTR [edi+168]
  0005b	0f af 4d 0c	 imul	 ecx, DWORD PTR _SourceValue$[ebp]
  0005f	b8 1f 85 eb 51	 mov	 eax, 1374389535		; 51eb851fH
  00064	f7 e9		 imul	 ecx
  00066	c1 fa 05	 sar	 edx, 5
  00069	8b f2		 mov	 esi, edx
  0006b	c1 ee 1f	 shr	 esi, 31			; 0000001fH
  0006e	03 f2		 add	 esi, edx
  00070	89 75 08	 mov	 DWORD PTR _lc3$213470[ebp], esi
  00073	da 4d 08	 fimul	 DWORD PTR _lc3$213470[ebp]
  00076	e8 00 00 00 00	 call	 __ftol2_sse
  0007b	2b f0		 sub	 esi, eax
  0007d	01 33		 add	 DWORD PTR [ebx], esi
$LN3@PlusSpecia@4:

; 2891 : 	{
; 2892 : 		return;
; 2893 : 	}
; 2894 : 
; 2895 : 	for ( int i =0;i<this->m_SpecialNum;i++)

  0007f	8b 45 f8	 mov	 eax, DWORD PTR _i$213465[ebp]
  00082	0f b6 4f 30	 movzx	 ecx, BYTE PTR [edi+48]
  00086	83 45 fc 02	 add	 DWORD PTR tv243[ebp], 2
  0008a	40		 inc	 eax
  0008b	89 45 f8	 mov	 DWORD PTR _i$213465[ebp], eax
  0008e	3b c1		 cmp	 eax, ecx
  00090	7c b1		 jl	 SHORT $LL4@PlusSpecia@4
  00092	5e		 pop	 esi
  00093	5b		 pop	 ebx
$LN2@PlusSpecia@4:
  00094	5f		 pop	 edi

; 2901 : 		}
; 2902 : 	}
; 2903 : }

  00095	8b e5		 mov	 esp, ebp
  00097	5d		 pop	 ebp
  00098	c2 0c 00	 ret	 12			; 0000000cH
?PlusSpecialPercentEx@CItem@@QAEXPAHHH@Z ENDP		; CItem::PlusSpecialPercentEx
_TEXT	ENDS
PUBLIC	?SetItemPlusSpecialStat@CItem@@QAEXPAFH@Z	; CItem::SetItemPlusSpecialStat
; Function compile flags: /Ogtp
;	COMDAT ?SetItemPlusSpecialStat@CItem@@QAEXPAFH@Z
_TEXT	SEGMENT
_i$213479 = -8						; size = 4
tv255 = -4						; size = 4
_lc3$213489 = 8						; size = 4
_Value$ = 8						; size = 4
_Special$ = 12						; size = 4
?SetItemPlusSpecialStat@CItem@@QAEXPAFH@Z PROC		; CItem::SetItemPlusSpecialStat, COMDAT
; _this$ = ecx

; 2906 : {

  00000	55		 push	 ebp
  00001	8b ec		 mov	 ebp, esp
  00003	83 ec 08	 sub	 esp, 8
  00006	56		 push	 esi
  00007	8b f1		 mov	 esi, ecx

; 2907 : 	if ( this->m_Type < 0 )

  00009	66 83 7e 06 00	 cmp	 WORD PTR [esi+6], 0
  0000e	0f 8c 8b 00 00
	00		 jl	 $LN6@SetItemPlu

; 2908 : 	{
; 2909 : 		return;
; 2910 : 	}
; 2911 : 
; 2912 : 	if ( this->m_Durability == 0.0f )

  00014	d9 46 24	 fld	 DWORD PTR [esi+36]
  00017	d9 ee		 fldz
  00019	da e9		 fucompp
  0001b	df e0		 fnstsw	 ax
  0001d	f6 c4 44	 test	 ah, 68			; 00000044H
  00020	7b 7d		 jnp	 SHORT $LN6@SetItemPlu

; 2913 : 	{
; 2914 : 		return;
; 2915 : 	}
; 2916 : 
; 2917 : 	for ( int i =0;i<this->m_SpecialNum;i++)

  00022	80 7e 30 00	 cmp	 BYTE PTR [esi+48], 0
  00026	c7 45 f8 00 00
	00 00		 mov	 DWORD PTR _i$213479[ebp], 0
  0002d	76 70		 jbe	 SHORT $LN6@SetItemPlu
  0002f	53		 push	 ebx
  00030	8b 5d 08	 mov	 ebx, DWORD PTR _Value$[ebp]
  00033	8d 46 32	 lea	 eax, DWORD PTR [esi+50]
  00036	57		 push	 edi
  00037	89 45 fc	 mov	 DWORD PTR tv255[ebp], eax
  0003a	8d 9b 00 00 00
	00		 npad	 6
$LL8@SetItemPlu:

; 2918 : 	{
; 2919 : 		if ( this->m_Special[i] == Special )

  00040	8b 4d fc	 mov	 ecx, DWORD PTR tv255[ebp]
  00043	0f b7 11	 movzx	 edx, WORD PTR [ecx]
  00046	8b 45 0c	 mov	 eax, DWORD PTR _Special$[ebp]
  00049	3b d0		 cmp	 edx, eax
  0004b	75 3d		 jne	 SHORT $LN7@SetItemPlu

; 2920 : 		{
; 2921 : 			switch ( Special )

  0004d	05 3c ff ff ff	 add	 eax, -196		; ffffff3cH
  00052	83 f8 03	 cmp	 eax, 3
  00055	77 20		 ja	 SHORT $LN1@SetItemPlu

; 2922 : 			{
; 2923 : 				case 0xC4:
; 2924 : 				case 0xC5:
; 2925 : 				case 0xC6:
; 2926 : 				case 0xC7:
; 2927 : 					{
; 2928 : 						int lc3 = this->m_SetAddStat;

  00057	0f b6 be af 00
	00 00		 movzx	 edi, BYTE PTR [esi+175]

; 2929 : 						*Value += lc3 - (int)(lc3 * this->m_CurrentDurabilityState);

  0005e	d9 86 a8 00 00
	00		 fld	 DWORD PTR [esi+168]
  00064	89 7d 08	 mov	 DWORD PTR _lc3$213489[ebp], edi
  00067	da 4d 08	 fimul	 DWORD PTR _lc3$213489[ebp]
  0006a	e8 00 00 00 00	 call	 __ftol2_sse
  0006f	66 2b f8	 sub	 di, ax
  00072	66 01 3b	 add	 WORD PTR [ebx], di

; 2930 : 					}
; 2931 : 					break;

  00075	eb 13		 jmp	 SHORT $LN7@SetItemPlu
$LN1@SetItemPlu:

; 2932 : 
; 2933 : 				default:
; 2934 : 					*Value += this->m_Option3*3;

  00077	0f b6 86 96 00
	00 00		 movzx	 eax, BYTE PTR [esi+150]
  0007e	66 8b c8	 mov	 cx, ax
  00081	66 03 c9	 add	 cx, cx
  00084	66 03 c1	 add	 ax, cx
  00087	66 01 03	 add	 WORD PTR [ebx], ax
$LN7@SetItemPlu:

; 2913 : 	{
; 2914 : 		return;
; 2915 : 	}
; 2916 : 
; 2917 : 	for ( int i =0;i<this->m_SpecialNum;i++)

  0008a	8b 45 f8	 mov	 eax, DWORD PTR _i$213479[ebp]
  0008d	0f b6 56 30	 movzx	 edx, BYTE PTR [esi+48]
  00091	83 45 fc 02	 add	 DWORD PTR tv255[ebp], 2
  00095	40		 inc	 eax
  00096	89 45 f8	 mov	 DWORD PTR _i$213479[ebp], eax
  00099	3b c2		 cmp	 eax, edx
  0009b	7c a3		 jl	 SHORT $LL8@SetItemPlu
  0009d	5f		 pop	 edi
  0009e	5b		 pop	 ebx
$LN6@SetItemPlu:
  0009f	5e		 pop	 esi

; 2935 : 			}
; 2936 : 		}
; 2937 : 	}
; 2938 : }

  000a0	8b e5		 mov	 esp, ebp
  000a2	5d		 pop	 ebp
  000a3	c2 08 00	 ret	 8
?SetItemPlusSpecialStat@CItem@@QAEXPAFH@Z ENDP		; CItem::SetItemPlusSpecialStat
_TEXT	ENDS
PUBLIC	?GetAddStatType@CItem@@QAEHXZ			; CItem::GetAddStatType
; Function compile flags: /Ogtp
;	COMDAT ?GetAddStatType@CItem@@QAEHXZ
_TEXT	SEGMENT
?GetAddStatType@CItem@@QAEHXZ PROC			; CItem::GetAddStatType, COMDAT
; _this$ = ecx

; 2942 : 	LPITEM_ATTRIBUTE p;
; 2943 : 	p = &ItemAttribute[this->m_Type];
; 2944 : 	return p->SetAttr;

  00000	0f bf 41 06	 movsx	 eax, WORD PTR [ecx+6]
  00004	6b c0 70	 imul	 eax, 112		; 00000070H
  00007	0f b6 80 61 00
	00 00		 movzx	 eax, BYTE PTR ?ItemAttribute@@3PAUITEM_ATTRIBUTE@@A[eax+97]

; 2945 : }

  0000e	c3		 ret	 0
?GetAddStatType@CItem@@QAEHXZ ENDP			; CItem::GetAddStatType
_TEXT	ENDS
PUBLIC	?GetWeaponType@CItem@@QAEHXZ			; CItem::GetWeaponType
; Function compile flags: /Ogtp
;	COMDAT ?GetWeaponType@CItem@@QAEHXZ
_TEXT	SEGMENT
?GetWeaponType@CItem@@QAEHXZ PROC			; CItem::GetWeaponType, COMDAT
; _this$ = ecx

; 2949 : 	if ( this->m_Type <= ITEMGET(5,0) )

  00000	0f b7 41 06	 movzx	 eax, WORD PTR [ecx+6]
  00004	b9 00 0a 00 00	 mov	 ecx, 2560		; 00000a00H
  00009	66 3b c1	 cmp	 ax, cx
  0000c	7f 06		 jg	 SHORT $LN2@GetWeaponT

; 2950 : 	{
; 2951 : 		return 1;

  0000e	b8 01 00 00 00	 mov	 eax, 1

; 2955 : 	{
; 2956 : 		return 2;
; 2957 : 	}
; 2958 : 	return 0;
; 2959 : }

  00013	c3		 ret	 0
$LN2@GetWeaponT:

; 2952 : 	}
; 2953 : 
; 2954 : 	if ( this->m_Type <= ITEMGET(6,0) )

  00014	33 c9		 xor	 ecx, ecx
  00016	ba 00 0c 00 00	 mov	 edx, 3072		; 00000c00H
  0001b	66 3b c2	 cmp	 ax, dx
  0001e	0f 9f c1	 setg	 cl
  00021	8d 41 ff	 lea	 eax, DWORD PTR [ecx-1]
  00024	83 e0 02	 and	 eax, 2

; 2955 : 	{
; 2956 : 		return 2;
; 2957 : 	}
; 2958 : 	return 0;
; 2959 : }

  00027	c3		 ret	 0
?GetWeaponType@CItem@@QAEHXZ ENDP			; CItem::GetWeaponType
_TEXT	ENDS
PUBLIC	?GetDetailItemType@CItem@@QAEHXZ		; CItem::GetDetailItemType
; Function compile flags: /Ogtp
;	COMDAT ?GetDetailItemType@CItem@@QAEHXZ
_TEXT	SEGMENT
?GetDetailItemType@CItem@@QAEHXZ PROC			; CItem::GetDetailItemType, COMDAT
; _this$ = ecx

; 2964 : 	signed int i; // [sp+4Ch] [bp-10h]@26
; 2965 : 	int nSum; // [sp+50h] [bp-Ch]@26
; 2966 : 	ITEM_ATTRIBUTE *p; // [sp+54h] [bp-8h]@1
; 2967 : 
; 2968 : 	p = &ItemAttribute[m_Type];

  00000	0f b7 41 06	 movzx	 eax, WORD PTR [ecx+6]
  00004	56		 push	 esi
  00005	0f bf f0	 movsx	 esi, ax
  00008	6b f6 70	 imul	 esi, 112		; 00000070H
  0000b	81 c6 00 00 00
	00		 add	 esi, OFFSET ?ItemAttribute@@3PAUITEM_ATTRIBUTE@@A ; ItemAttribute

; 2969 : 
; 2970 : 	if ( this->m_Type < 0 )

  00011	66 85 c0	 test	 ax, ax

; 2971 : 		return MuItemType::mitNONE;

  00014	0f 88 5e 01 00
	00		 js	 $LN1@GetDetailI

; 2972 : 
; 2973 : 	if( this->m_Type >= MuItem::miGROUP_SWORD_START+32 && this->m_Type <= MuItem::miGROUP_SWORD_START+35 )

  0001a	0f b7 51 06	 movzx	 edx, WORD PTR [ecx+6]
  0001e	66 83 fa 20	 cmp	 dx, 32			; 00000020H
  00022	7c 0d		 jl	 SHORT $LN26@GetDetailI
  00024	66 83 fa 23	 cmp	 dx, 35			; 00000023H
  00028	7f 07		 jg	 SHORT $LN26@GetDetailI

; 2974 : 	{
; 2975 : 		return MuItemType::mitGloves;

  0002a	b8 0c 00 00 00	 mov	 eax, 12			; 0000000cH
  0002f	5e		 pop	 esi

; 3052 : }

  00030	c3		 ret	 0
$LN26@GetDetailI:

; 2976 : 	}
; 2977 : 
; 2978 : 	if ( this->m_Type < MuItem::miGROUP_SWORD_END )

  00031	b8 ff 01 00 00	 mov	 eax, 511		; 000001ffH
  00036	66 3b d0	 cmp	 dx, ax
  00039	7d 0b		 jge	 SHORT $LN23@GetDetailI

; 2979 : 	{
; 2980 : 		if(this->m_TwoHand != 1)

  0003b	33 c0		 xor	 eax, eax
  0003d	80 79 0c 01	 cmp	 BYTE PTR [ecx+12], 1
  00041	5e		 pop	 esi
  00042	0f 95 c0	 setne	 al

; 3052 : }

  00045	c3		 ret	 0
$LN23@GetDetailI:

; 2981 : 			return MuItemType::mitSWORD_ONE_HAND;
; 2982 : 		else
; 2983 : 			return MuItemType::mitSWORD_TWO_HAND;
; 2984 : 	}
; 2985 : 
; 2986 : 	if(m_Type >= MuItem::miGROUP_MACE_SCEPTER_START && m_Type <= MuItem::miGROUP_MACE_SCEPTER_END)

  00046	b8 00 04 00 00	 mov	 eax, 1024		; 00000400H
  0004b	66 3b d0	 cmp	 dx, ax
  0004e	7c 38		 jl	 SHORT $LN18@GetDetailI
  00050	b8 ff 05 00 00	 mov	 eax, 1535		; 000005ffH
  00055	66 3b d0	 cmp	 dx, ax
  00058	7f 2e		 jg	 SHORT $LN18@GetDetailI

; 2987 : 	{
; 2988 : 
; 2989 : 		if ( this->m_Type == MuItem::miSWORD_CRYSTAL )

  0005a	b9 05 04 00 00	 mov	 ecx, 1029		; 00000405H
  0005f	66 3b d1	 cmp	 dx, cx
  00062	75 04		 jne	 SHORT $LN21@GetDetailI

; 2990 : 			return MuItemType::mitSWORD_TWO_HAND;

  00064	33 c0		 xor	 eax, eax
  00066	5e		 pop	 esi

; 3052 : }

  00067	c3		 ret	 0
$LN21@GetDetailI:

; 2991 : 
; 2992 : 		if ( this->m_Type == MuItem::miCHAOS_WEAPON_AXE_DRAGON )

  00068	b8 06 04 00 00	 mov	 eax, 1030		; 00000406H
  0006d	66 3b d0	 cmp	 dx, ax

; 2993 : 			return MuItemType::mitNONE;

  00070	0f 84 02 01 00
	00		 je	 $LN1@GetDetailI

; 2994 : 
; 2995 : 		// force wave skill
; 2996 : 		if ( p->SkillType == 66 )

  00076	8b 46 68	 mov	 eax, DWORD PTR [esi+104]
  00079	83 e8 42	 sub	 eax, 66			; 00000042H
  0007c	f7 d8		 neg	 eax
  0007e	1b c0		 sbb	 eax, eax
  00080	83 e0 f7	 and	 eax, -9			; fffffff7H
  00083	83 c0 0b	 add	 eax, 11			; 0000000bH
  00086	5e		 pop	 esi

; 3052 : }

  00087	c3		 ret	 0
$LN18@GetDetailI:

; 2997 : 			return MuItemType::mitSCEPTER;
; 2998 : 		else
; 2999 : 			return MuItemType::mitMACE;
; 3000 : 
; 3001 : 	}
; 3002 : 
; 3003 : 	if(m_Type >= MuItem::miGROUP_SPEAR_START && m_Type <= MuItem::miGROUP_SPEAR_END)

  00088	b8 00 06 00 00	 mov	 eax, 1536		; 00000600H
  0008d	66 3b d0	 cmp	 dx, ax
  00090	7c 11		 jl	 SHORT $LN17@GetDetailI
  00092	b8 ff 07 00 00	 mov	 eax, 2047		; 000007ffH
  00097	66 3b d0	 cmp	 dx, ax
  0009a	7f 07		 jg	 SHORT $LN17@GetDetailI

; 3004 : 		return MuItemType::mitSPEAR;

  0009c	b8 03 00 00 00	 mov	 eax, 3
  000a1	5e		 pop	 esi

; 3052 : }

  000a2	c3		 ret	 0
$LN17@GetDetailI:

; 3005 : 
; 3006 : 
; 3007 : 	if(m_Type >= MuItem::miGROUP_BOW_CROSSBOW_START && m_Type <= MuItem::miGROUP_BOW_CROSSBOW_END)

  000a3	b8 00 08 00 00	 mov	 eax, 2048		; 00000800H
  000a8	66 3b d0	 cmp	 dx, ax
  000ab	7c 22		 jl	 SHORT $LN13@GetDetailI
  000ad	b8 ff 09 00 00	 mov	 eax, 2559		; 000009ffH
  000b2	66 3b d0	 cmp	 dx, ax
  000b5	7f 18		 jg	 SHORT $LN13@GetDetailI

; 3008 : 	{
; 3009 : 		if ( m_TwoHand != 1 )

  000b7	80 79 0c 01	 cmp	 BYTE PTR [ecx+12], 1

; 3010 : 			return MuItemType::mitNONE;

  000bb	0f 85 b7 00 00
	00		 jne	 $LN1@GetDetailI

; 3011 : 
; 3012 : 		if ( p->ItemSlot == 1)

  000c1	33 c0		 xor	 eax, eax
  000c3	83 7e 64 01	 cmp	 DWORD PTR [esi+100], 1
  000c7	5e		 pop	 esi
  000c8	0f 95 c0	 setne	 al
  000cb	83 c0 07	 add	 eax, 7

; 3052 : }

  000ce	c3		 ret	 0
$LN13@GetDetailI:

; 3013 : 			return MuItemType::mitBOW;
; 3014 : 		else
; 3015 : 			return MuItemType::mitCROSSBOW;
; 3016 : 	}
; 3017 : 
; 3018 : 	if (m_Type >= MuItem::miGROUP_SHIELD_START && m_Type <= MuItem::miGROUP_SHIELD_END)

  000cf	b8 00 0c 00 00	 mov	 eax, 3072		; 00000c00H
  000d4	66 3b d0	 cmp	 dx, ax
  000d7	7c 11		 jl	 SHORT $LN12@GetDetailI
  000d9	b8 ff 0d 00 00	 mov	 eax, 3583		; 00000dffH
  000de	66 3b d0	 cmp	 dx, ax
  000e1	7f 07		 jg	 SHORT $LN12@GetDetailI

; 3019 : 		return MuItemType::mitSHIELD;

  000e3	b8 06 00 00 00	 mov	 eax, 6
  000e8	5e		 pop	 esi

; 3052 : }

  000e9	c3		 ret	 0
$LN12@GetDetailI:

; 3020 : 
; 3021 : 
; 3022 : 	if ( m_Type >= MuItem::miGROUP_STAFF_STICK_START && m_Type <= MuItem::miGROUP_STAFF_STICK_END)

  000ea	b8 00 0a 00 00	 mov	 eax, 2560		; 00000a00H
  000ef	66 3b d0	 cmp	 dx, ax
  000f2	0f 8c 80 00 00
	00		 jl	 $LN1@GetDetailI
  000f8	b8 ff 0b 00 00	 mov	 eax, 3071		; 00000bffH
  000fd	66 3b d0	 cmp	 dx, ax
  00100	7f 76		 jg	 SHORT $LN1@GetDetailI

; 3023 : 	{
; 3024 : 		nSum = 0;

  00102	33 c0		 xor	 eax, eax

; 3025 : 		for ( i = 0; i < MAX_TYPE_PLAYER; ++i )
; 3026 : 		{
; 3027 : 			if ( this->m_RequireClass[i] > 0 )

  00104	38 41 58	 cmp	 BYTE PTR [ecx+88], al
  00107	76 00		 jbe	 SHORT $LN9@GetDetailI
$LN9@GetDetailI:
  00109	80 79 59 00	 cmp	 BYTE PTR [ecx+89], 0
  0010d	76 05		 jbe	 SHORT $LN36@GetDetailI

; 3028 : 				nSum += i;

  0010f	b8 01 00 00 00	 mov	 eax, 1
$LN36@GetDetailI:

; 3025 : 		for ( i = 0; i < MAX_TYPE_PLAYER; ++i )
; 3026 : 		{
; 3027 : 			if ( this->m_RequireClass[i] > 0 )

  00114	80 79 5a 00	 cmp	 BYTE PTR [ecx+90], 0
  00118	76 03		 jbe	 SHORT $LN38@GetDetailI

; 3028 : 				nSum += i;

  0011a	83 c0 02	 add	 eax, 2
$LN38@GetDetailI:

; 3025 : 		for ( i = 0; i < MAX_TYPE_PLAYER; ++i )
; 3026 : 		{
; 3027 : 			if ( this->m_RequireClass[i] > 0 )

  0011d	80 79 5b 00	 cmp	 BYTE PTR [ecx+91], 0
  00121	76 03		 jbe	 SHORT $LN40@GetDetailI

; 3028 : 				nSum += i;

  00123	83 c0 03	 add	 eax, 3
$LN40@GetDetailI:

; 3025 : 		for ( i = 0; i < MAX_TYPE_PLAYER; ++i )
; 3026 : 		{
; 3027 : 			if ( this->m_RequireClass[i] > 0 )

  00126	80 79 5c 00	 cmp	 BYTE PTR [ecx+92], 0
  0012a	76 03		 jbe	 SHORT $LN42@GetDetailI

; 3028 : 				nSum += i;

  0012c	83 c0 04	 add	 eax, 4
$LN42@GetDetailI:

; 3025 : 		for ( i = 0; i < MAX_TYPE_PLAYER; ++i )
; 3026 : 		{
; 3027 : 			if ( this->m_RequireClass[i] > 0 )

  0012f	80 79 5d 00	 cmp	 BYTE PTR [ecx+93], 0
  00133	76 03		 jbe	 SHORT $LN44@GetDetailI

; 3028 : 				nSum += i;

  00135	83 c0 05	 add	 eax, 5
$LN44@GetDetailI:

; 3025 : 		for ( i = 0; i < MAX_TYPE_PLAYER; ++i )
; 3026 : 		{
; 3027 : 			if ( this->m_RequireClass[i] > 0 )

  00138	80 79 5e 00	 cmp	 BYTE PTR [ecx+94], 0
  0013c	76 03		 jbe	 SHORT $LN46@GetDetailI

; 3028 : 				nSum += i;

  0013e	83 c0 06	 add	 eax, 6
$LN46@GetDetailI:

; 3029 : 		}
; 3030 : 
; 3031 : 		if ( nSum == 5 )

  00141	83 f8 05	 cmp	 eax, 5
  00144	75 24		 jne	 SHORT $LN6@GetDetailI

; 3032 : 		{
; 3033 : 			if ( this->m_Type != MuItem::miGROUP_STAFF_STICK_START )

  00146	b9 00 0a 00 00	 mov	 ecx, 2560		; 00000a00H
  0014b	66 3b d1	 cmp	 dx, cx
  0014e	74 28		 je	 SHORT $LN1@GetDetailI

; 3034 : 			{
; 3035 : 				if ( p->ItemSlot == 0 )

  00150	8b 46 64	 mov	 eax, DWORD PTR [esi+100]
  00153	85 c0		 test	 eax, eax
  00155	75 07		 jne	 SHORT $LN4@GetDetailI

; 3036 : 					return MuItemType::mitSTICK;

  00157	b8 09 00 00 00	 mov	 eax, 9
  0015c	5e		 pop	 esi

; 3052 : }

  0015d	c3		 ret	 0
$LN4@GetDetailI:

; 3037 : 
; 3038 : 				if ( p->ItemSlot == 1 )

  0015e	83 f8 01	 cmp	 eax, 1
  00161	75 15		 jne	 SHORT $LN1@GetDetailI

; 3039 : 					return MuItemType::mitBOOK;

  00163	b8 0a 00 00 00	 mov	 eax, 10			; 0000000aH
  00168	5e		 pop	 esi

; 3052 : }

  00169	c3		 ret	 0
$LN6@GetDetailI:

; 3040 : 			}
; 3041 : 
; 3042 : 			return -1;
; 3043 : 		}
; 3044 : 
; 3045 : 		if ( this->m_TwoHand == 1 )

  0016a	33 c0		 xor	 eax, eax
  0016c	80 79 0c 01	 cmp	 BYTE PTR [ecx+12], 1
  00170	5e		 pop	 esi
  00171	0f 94 c0	 sete	 al
  00174	83 c0 04	 add	 eax, 4

; 3052 : }

  00177	c3		 ret	 0
$LN1@GetDetailI:

; 3046 : 			return MuItemType::mitSTAFF_TWO_HAND;
; 3047 : 		else
; 3048 : 			return MuItemType::mitSTAFF_ONE_HAND;
; 3049 : 	}
; 3050 : 
; 3051 : 	return MuItemType::mitNONE;

  00178	83 c8 ff	 or	 eax, -1
  0017b	5e		 pop	 esi

; 3052 : }

  0017c	c3		 ret	 0
?GetDetailItemType@CItem@@QAEHXZ ENDP			; CItem::GetDetailItemType
_TEXT	ENDS
PUBLIC	?PetValue@CItem@@QAEXXZ				; CItem::PetValue
; Function compile flags: /Ogtp
;	COMDAT ?PetValue@CItem@@QAEXXZ
_TEXT	SEGMENT
?PetValue@CItem@@QAEXXZ PROC				; CItem::PetValue, COMDAT
; _this$ = ecx

; 3301 : 	if ( this->m_Type == ITEMGET(13,4) )

  00000	0f b7 41 06	 movzx	 eax, WORD PTR [ecx+6]
  00004	ba 04 1a 00 00	 mov	 edx, 6660		; 00001a04H
  00009	66 3b c2	 cmp	 ax, dx
  0000c	75 0e		 jne	 SHORT $LN9@PetValue

; 3302 : 	{
; 3303 : 		this->m_SellMoney = this->m_PetItem_Level * 2000000;

  0000e	8b 81 bc 00 00
	00		 mov	 eax, DWORD PTR [ecx+188]
  00014	69 c0 80 84 1e
	00		 imul	 eax, 2000000		; 001e8480H
  0001a	eb 16		 jmp	 SHORT $LN12@PetValue
$LN9@PetValue:

; 3304 : 	}
; 3305 : 	else if ( this->m_Type == ITEMGET(13,5) )

  0001c	ba 05 1a 00 00	 mov	 edx, 6661		; 00001a05H
  00021	66 3b c2	 cmp	 ax, dx
  00024	75 0f		 jne	 SHORT $LN7@PetValue

; 3306 : 	{
; 3307 : 		this->m_SellMoney = this->m_PetItem_Level * 1000000;

  00026	8b 81 bc 00 00
	00		 mov	 eax, DWORD PTR [ecx+188]
  0002c	69 c0 40 42 0f
	00		 imul	 eax, 1000000		; 000f4240H
$LN12@PetValue:
  00032	89 41 6c	 mov	 DWORD PTR [ecx+108], eax
$LN7@PetValue:

; 3308 : 	}	
; 3309 : 
; 3310 : 	this->m_BuyMoney = this->m_SellMoney;

  00035	8b 51 6c	 mov	 edx, DWORD PTR [ecx+108]
  00038	89 51 70	 mov	 DWORD PTR [ecx+112], edx

; 3311 : 	this->m_SellMoney /= 3;

  0003b	b8 ab aa aa aa	 mov	 eax, -1431655765	; aaaaaaabH
  00040	f7 e2		 mul	 edx
  00042	d1 ea		 shr	 edx, 1
  00044	89 51 6c	 mov	 DWORD PTR [ecx+108], edx

; 3312 : 
; 3313 : 	if ( this->m_SellMoney >= 1000 )

  00047	81 fa e8 03 00
	00		 cmp	 edx, 1000		; 000003e8H
  0004d	72 0f		 jb	 SHORT $LN6@PetValue

; 3314 : 	{
; 3315 : 		this->m_SellMoney = this->m_SellMoney / 100 * 100;

  0004f	b8 1f 85 eb 51	 mov	 eax, 1374389535		; 51eb851fH
  00054	f7 e2		 mul	 edx
  00056	c1 ea 05	 shr	 edx, 5
  00059	6b d2 64	 imul	 edx, 100		; 00000064H
  0005c	eb 14		 jmp	 SHORT $LN13@PetValue
$LN6@PetValue:

; 3316 : 	}
; 3317 : 	else if ( this->m_SellMoney >= 100 )

  0005e	83 fa 64	 cmp	 edx, 100		; 00000064H
  00061	72 12		 jb	 SHORT $LN4@PetValue

; 3318 : 	{
; 3319 : 		this->m_SellMoney = this->m_SellMoney / 10 * 10;

  00063	b8 cd cc cc cc	 mov	 eax, -858993459		; cccccccdH
  00068	f7 e2		 mul	 edx
  0006a	c1 ea 03	 shr	 edx, 3
  0006d	8d 14 92	 lea	 edx, DWORD PTR [edx+edx*4]
  00070	03 d2		 add	 edx, edx
$LN13@PetValue:
  00072	89 51 6c	 mov	 DWORD PTR [ecx+108], edx
$LN4@PetValue:

; 3320 : 	}
; 3321 : 
; 3322 : 	if ( this->m_BuyMoney >= 1000 )

  00075	8b 51 70	 mov	 edx, DWORD PTR [ecx+112]
  00078	81 fa e8 03 00
	00		 cmp	 edx, 1000		; 000003e8H
  0007e	72 11		 jb	 SHORT $LN3@PetValue

; 3323 : 	{
; 3324 : 		this->m_BuyMoney = this->m_BuyMoney / 100 * 100;

  00080	b8 1f 85 eb 51	 mov	 eax, 1374389535		; 51eb851fH
  00085	f7 e2		 mul	 edx
  00087	c1 ea 05	 shr	 edx, 5
  0008a	6b d2 64	 imul	 edx, 100		; 00000064H
  0008d	89 51 70	 mov	 DWORD PTR [ecx+112], edx

; 3329 : 	}
; 3330 : }

  00090	c3		 ret	 0
$LN3@PetValue:

; 3325 : 	}
; 3326 : 	else if ( this->m_BuyMoney >= 100 )

  00091	83 fa 64	 cmp	 edx, 100		; 00000064H
  00094	72 12		 jb	 SHORT $LN1@PetValue

; 3327 : 	{
; 3328 : 		this->m_BuyMoney = this->m_BuyMoney / 10 * 10;

  00096	b8 cd cc cc cc	 mov	 eax, -858993459		; cccccccdH
  0009b	f7 e2		 mul	 edx
  0009d	c1 ea 03	 shr	 edx, 3
  000a0	8d 04 92	 lea	 eax, DWORD PTR [edx+edx*4]
  000a3	03 c0		 add	 eax, eax
  000a5	89 41 70	 mov	 DWORD PTR [ecx+112], eax
$LN1@PetValue:

; 3329 : 	}
; 3330 : }

  000a8	c3		 ret	 0
?PetValue@CItem@@QAEXXZ ENDP				; CItem::PetValue
_TEXT	ENDS
PUBLIC	?IsExtItem@CItem@@QAEHXZ			; CItem::IsExtItem
; Function compile flags: /Ogtp
;	COMDAT ?IsExtItem@CItem@@QAEHXZ
_TEXT	SEGMENT
?IsExtItem@CItem@@QAEHXZ PROC				; CItem::IsExtItem, COMDAT
; _this$ = ecx

; 3334 : 	if ( this->m_Type == ITEMGET(13,37) )

  00000	b8 25 1a 00 00	 mov	 eax, 6693		; 00001a25H
  00005	66 39 41 06	 cmp	 WORD PTR [ecx+6], ax
  00009	75 03		 jne	 SHORT $LN2@IsExtItem

; 3335 : 	{
; 3336 : 		return FALSE;

  0000b	33 c0		 xor	 eax, eax

; 3340 : 	{
; 3341 : 		return TRUE;
; 3342 : 	}
; 3343 : 
; 3344 : 	return FALSE;
; 3345 : }

  0000d	c3		 ret	 0
$LN2@IsExtItem:

; 3337 : 	}
; 3338 : 
; 3339 : 	if ( (this->m_NewOption & 0x7F)!= 0 )

  0000e	f6 81 97 00 00
	00 7f		 test	 BYTE PTR [ecx+151], 127	; 0000007fH
  00015	b8 00 00 00 00	 mov	 eax, 0
  0001a	0f 95 c0	 setne	 al

; 3340 : 	{
; 3341 : 		return TRUE;
; 3342 : 	}
; 3343 : 
; 3344 : 	return FALSE;
; 3345 : }

  0001d	c3		 ret	 0
?IsExtItem@CItem@@QAEHXZ ENDP				; CItem::IsExtItem
_TEXT	ENDS
PUBLIC	?IsExtLifeAdd@CItem@@QAEHXZ			; CItem::IsExtLifeAdd
EXTRN	?GetRankValueOption@ItemRank@@QAEHHE@Z:PROC	; ItemRank::GetRankValueOption
EXTRN	?IsRankItem@ItemRank@@QAEHGE@Z:PROC		; ItemRank::IsRankItem
EXTRN	?g_ItemRank@@3VItemRank@@A:BYTE			; g_ItemRank
; Function compile flags: /Ogtp
;	COMDAT ?IsExtLifeAdd@CItem@@QAEHXZ
_TEXT	SEGMENT
?IsExtLifeAdd@CItem@@QAEHXZ PROC			; CItem::IsExtLifeAdd, COMDAT
; _this$ = ecx

; 3349 : 	if ( (this->m_NewOption & 0x20) == 32 )

  00000	f6 81 97 00 00
	00 20		 test	 BYTE PTR [ecx+151], 32	; 00000020H
  00007	74 30		 je	 SHORT $LN3@IsExtLifeA

; 3350 : 	{
; 3351 : #if(CUSTOM_ITEM_RANK==TRUE)
; 3352 : 		int iRankID = g_ItemRank.IsRankItem(this->m_Type, this->m_Level);

  00009	0f b6 41 08	 movzx	 eax, BYTE PTR [ecx+8]
  0000d	0f b7 49 06	 movzx	 ecx, WORD PTR [ecx+6]
  00011	50		 push	 eax
  00012	51		 push	 ecx
  00013	b9 00 00 00 00	 mov	 ecx, OFFSET ?g_ItemRank@@3VItemRank@@A ; g_ItemRank
  00018	e8 00 00 00 00	 call	 ?IsRankItem@ItemRank@@QAEHGE@Z ; ItemRank::IsRankItem

; 3353 : 		if(iRankID >= 0)

  0001d	85 c0		 test	 eax, eax
  0001f	78 12		 js	 SHORT $LN1@IsExtLifeA

; 3354 : 		{
; 3355 : 			int iRankValue = g_ItemRank.GetRankValueOption(iRankID, 0);

  00021	6a 00		 push	 0
  00023	50		 push	 eax
  00024	b9 00 00 00 00	 mov	 ecx, OFFSET ?g_ItemRank@@3VItemRank@@A ; g_ItemRank
  00029	e8 00 00 00 00	 call	 ?GetRankValueOption@ItemRank@@QAEHHE@Z ; ItemRank::GetRankValueOption

; 3356 : 			if(iRankValue != -1)

  0002e	83 f8 ff	 cmp	 eax, -1

; 3357 : 			{
; 3358 : 				return iRankValue;

  00031	75 08		 jne	 SHORT $LN4@IsExtLifeA
$LN1@IsExtLifeA:

; 3359 : 			}
; 3360 : 		}
; 3361 : #endif
; 3362 : 		return 4;

  00033	b8 04 00 00 00	 mov	 eax, 4

; 3366 : }

  00038	c3		 ret	 0
$LN3@IsExtLifeA:

; 3363 : 	}
; 3364 : 
; 3365 : 	return 0;

  00039	33 c0		 xor	 eax, eax
$LN4@IsExtLifeA:

; 3366 : }

  0003b	c3		 ret	 0
?IsExtLifeAdd@CItem@@QAEHXZ ENDP			; CItem::IsExtLifeAdd
_TEXT	ENDS
PUBLIC	?IsExtManaAdd@CItem@@QAEHXZ			; CItem::IsExtManaAdd
; Function compile flags: /Ogtp
;	COMDAT ?IsExtManaAdd@CItem@@QAEHXZ
_TEXT	SEGMENT
?IsExtManaAdd@CItem@@QAEHXZ PROC			; CItem::IsExtManaAdd, COMDAT
; _this$ = ecx

; 3370 : 	if ( (this->m_NewOption & 0x10) == 16 )

  00000	f6 81 97 00 00
	00 10		 test	 BYTE PTR [ecx+151], 16	; 00000010H
  00007	74 30		 je	 SHORT $LN3@IsExtManaA

; 3371 : 	{
; 3372 : #if(CUSTOM_ITEM_RANK==TRUE)
; 3373 : 		int iRankID = g_ItemRank.IsRankItem(this->m_Type, this->m_Level);

  00009	0f b6 41 08	 movzx	 eax, BYTE PTR [ecx+8]
  0000d	0f b7 49 06	 movzx	 ecx, WORD PTR [ecx+6]
  00011	50		 push	 eax
  00012	51		 push	 ecx
  00013	b9 00 00 00 00	 mov	 ecx, OFFSET ?g_ItemRank@@3VItemRank@@A ; g_ItemRank
  00018	e8 00 00 00 00	 call	 ?IsRankItem@ItemRank@@QAEHGE@Z ; ItemRank::IsRankItem

; 3374 : 		if(iRankID >= 0)

  0001d	85 c0		 test	 eax, eax
  0001f	78 12		 js	 SHORT $LN1@IsExtManaA

; 3375 : 		{
; 3376 : 			int iRankValue = g_ItemRank.GetRankValueOption(iRankID, 1);

  00021	6a 01		 push	 1
  00023	50		 push	 eax
  00024	b9 00 00 00 00	 mov	 ecx, OFFSET ?g_ItemRank@@3VItemRank@@A ; g_ItemRank
  00029	e8 00 00 00 00	 call	 ?GetRankValueOption@ItemRank@@QAEHHE@Z ; ItemRank::GetRankValueOption

; 3377 : 			if(iRankValue != -1)

  0002e	83 f8 ff	 cmp	 eax, -1

; 3378 : 			{
; 3379 : 				return iRankValue;

  00031	75 08		 jne	 SHORT $LN4@IsExtManaA
$LN1@IsExtManaA:

; 3380 : 			}
; 3381 : 		}
; 3382 : #endif
; 3383 : 		return 4;

  00033	b8 04 00 00 00	 mov	 eax, 4

; 3387 : }

  00038	c3		 ret	 0
$LN3@IsExtManaA:

; 3384 : 	}
; 3385 : 
; 3386 : 	return 0;

  00039	33 c0		 xor	 eax, eax
$LN4@IsExtManaA:

; 3387 : }

  0003b	c3		 ret	 0
?IsExtManaAdd@CItem@@QAEHXZ ENDP			; CItem::IsExtManaAdd
_TEXT	ENDS
PUBLIC	?IsExtDamageMinus@CItem@@QAEHXZ			; CItem::IsExtDamageMinus
; Function compile flags: /Ogtp
;	COMDAT ?IsExtDamageMinus@CItem@@QAEHXZ
_TEXT	SEGMENT
?IsExtDamageMinus@CItem@@QAEHXZ PROC			; CItem::IsExtDamageMinus, COMDAT
; _this$ = ecx

; 3391 : 	if ( (this->m_NewOption & 8) == 8 )

  00000	f6 81 97 00 00
	00 08		 test	 BYTE PTR [ecx+151], 8
  00007	74 30		 je	 SHORT $LN3@IsExtDamag

; 3392 : 	{
; 3393 : #if(CUSTOM_ITEM_RANK==TRUE)
; 3394 : 		int iRankID = g_ItemRank.IsRankItem(this->m_Type, this->m_Level);

  00009	0f b6 41 08	 movzx	 eax, BYTE PTR [ecx+8]
  0000d	0f b7 49 06	 movzx	 ecx, WORD PTR [ecx+6]
  00011	50		 push	 eax
  00012	51		 push	 ecx
  00013	b9 00 00 00 00	 mov	 ecx, OFFSET ?g_ItemRank@@3VItemRank@@A ; g_ItemRank
  00018	e8 00 00 00 00	 call	 ?IsRankItem@ItemRank@@QAEHGE@Z ; ItemRank::IsRankItem

; 3395 : 		if(iRankID >= 0)

  0001d	85 c0		 test	 eax, eax
  0001f	78 12		 js	 SHORT $LN1@IsExtDamag

; 3396 : 		{
; 3397 : 			int iRankValue = g_ItemRank.GetRankValueOption(iRankID, 2);

  00021	6a 02		 push	 2
  00023	50		 push	 eax
  00024	b9 00 00 00 00	 mov	 ecx, OFFSET ?g_ItemRank@@3VItemRank@@A ; g_ItemRank
  00029	e8 00 00 00 00	 call	 ?GetRankValueOption@ItemRank@@QAEHHE@Z ; ItemRank::GetRankValueOption

; 3398 : 			if(iRankValue != -1)

  0002e	83 f8 ff	 cmp	 eax, -1

; 3399 : 			{
; 3400 : 				return iRankValue;

  00031	75 08		 jne	 SHORT $LN4@IsExtDamag
$LN1@IsExtDamag:

; 3401 : 			}
; 3402 : 		}
; 3403 : #endif
; 3404 : 		return 4;

  00033	b8 04 00 00 00	 mov	 eax, 4

; 3408 : }

  00038	c3		 ret	 0
$LN3@IsExtDamag:

; 3405 : 	}
; 3406 : 
; 3407 : 	return 0;

  00039	33 c0		 xor	 eax, eax
$LN4@IsExtDamag:

; 3408 : }

  0003b	c3		 ret	 0
?IsExtDamageMinus@CItem@@QAEHXZ ENDP			; CItem::IsExtDamageMinus
_TEXT	ENDS
PUBLIC	?IsExtDamageReflect@CItem@@QAEHXZ		; CItem::IsExtDamageReflect
; Function compile flags: /Ogtp
;	COMDAT ?IsExtDamageReflect@CItem@@QAEHXZ
_TEXT	SEGMENT
?IsExtDamageReflect@CItem@@QAEHXZ PROC			; CItem::IsExtDamageReflect, COMDAT
; _this$ = ecx

; 3412 : 	if ( (this->m_NewOption & 4) == 4 )

  00000	f6 81 97 00 00
	00 04		 test	 BYTE PTR [ecx+151], 4
  00007	74 30		 je	 SHORT $LN3@IsExtDamag@2

; 3413 : 	{
; 3414 : #if(CUSTOM_ITEM_RANK==TRUE)
; 3415 : 		int iRankID = g_ItemRank.IsRankItem(this->m_Type, this->m_Level);

  00009	0f b6 41 08	 movzx	 eax, BYTE PTR [ecx+8]
  0000d	0f b7 49 06	 movzx	 ecx, WORD PTR [ecx+6]
  00011	50		 push	 eax
  00012	51		 push	 ecx
  00013	b9 00 00 00 00	 mov	 ecx, OFFSET ?g_ItemRank@@3VItemRank@@A ; g_ItemRank
  00018	e8 00 00 00 00	 call	 ?IsRankItem@ItemRank@@QAEHGE@Z ; ItemRank::IsRankItem

; 3416 : 		if(iRankID >= 0)

  0001d	85 c0		 test	 eax, eax
  0001f	78 12		 js	 SHORT $LN1@IsExtDamag@2

; 3417 : 		{
; 3418 : 			int iRankValue = g_ItemRank.GetRankValueOption(iRankID, 3);

  00021	6a 03		 push	 3
  00023	50		 push	 eax
  00024	b9 00 00 00 00	 mov	 ecx, OFFSET ?g_ItemRank@@3VItemRank@@A ; g_ItemRank
  00029	e8 00 00 00 00	 call	 ?GetRankValueOption@ItemRank@@QAEHHE@Z ; ItemRank::GetRankValueOption

; 3419 : 			if(iRankValue != -1)

  0002e	83 f8 ff	 cmp	 eax, -1

; 3420 : 			{
; 3421 : 				return iRankValue;

  00031	75 08		 jne	 SHORT $LN4@IsExtDamag@2
$LN1@IsExtDamag@2:

; 3422 : 			}
; 3423 : 		}
; 3424 : #endif
; 3425 : 		return 5;

  00033	b8 05 00 00 00	 mov	 eax, 5

; 3429 : }

  00038	c3		 ret	 0
$LN3@IsExtDamag@2:

; 3426 : 	}
; 3427 : 
; 3428 : 	return 0;

  00039	33 c0		 xor	 eax, eax
$LN4@IsExtDamag@2:

; 3429 : }

  0003b	c3		 ret	 0
?IsExtDamageReflect@CItem@@QAEHXZ ENDP			; CItem::IsExtDamageReflect
_TEXT	ENDS
PUBLIC	?IsExtDefenseSuccessfull@CItem@@QAEHXZ		; CItem::IsExtDefenseSuccessfull
; Function compile flags: /Ogtp
;	COMDAT ?IsExtDefenseSuccessfull@CItem@@QAEHXZ
_TEXT	SEGMENT
?IsExtDefenseSuccessfull@CItem@@QAEHXZ PROC		; CItem::IsExtDefenseSuccessfull, COMDAT
; _this$ = ecx

; 3434 : 	if ( (this->m_NewOption & 2) == 2 )

  00000	f6 81 97 00 00
	00 02		 test	 BYTE PTR [ecx+151], 2
  00007	74 30		 je	 SHORT $LN3@IsExtDefen

; 3435 : 	{
; 3436 : #if(CUSTOM_ITEM_RANK==TRUE)
; 3437 : 		int iRankID = g_ItemRank.IsRankItem(this->m_Type, this->m_Level);

  00009	0f b6 41 08	 movzx	 eax, BYTE PTR [ecx+8]
  0000d	0f b7 49 06	 movzx	 ecx, WORD PTR [ecx+6]
  00011	50		 push	 eax
  00012	51		 push	 ecx
  00013	b9 00 00 00 00	 mov	 ecx, OFFSET ?g_ItemRank@@3VItemRank@@A ; g_ItemRank
  00018	e8 00 00 00 00	 call	 ?IsRankItem@ItemRank@@QAEHGE@Z ; ItemRank::IsRankItem

; 3438 : 		if(iRankID >= 0)

  0001d	85 c0		 test	 eax, eax
  0001f	78 12		 js	 SHORT $LN1@IsExtDefen

; 3439 : 		{
; 3440 : 			int iRankValue = g_ItemRank.GetRankValueOption(iRankID, 4);

  00021	6a 04		 push	 4
  00023	50		 push	 eax
  00024	b9 00 00 00 00	 mov	 ecx, OFFSET ?g_ItemRank@@3VItemRank@@A ; g_ItemRank
  00029	e8 00 00 00 00	 call	 ?GetRankValueOption@ItemRank@@QAEHHE@Z ; ItemRank::GetRankValueOption

; 3441 : 			if(iRankValue != -1)

  0002e	83 f8 ff	 cmp	 eax, -1

; 3442 : 			{
; 3443 : 				return iRankValue;

  00031	75 08		 jne	 SHORT $LN4@IsExtDefen
$LN1@IsExtDefen:

; 3444 : 			}
; 3445 : 		}
; 3446 : #endif
; 3447 : 		return 10;

  00033	b8 0a 00 00 00	 mov	 eax, 10			; 0000000aH

; 3451 : }

  00038	c3		 ret	 0
$LN3@IsExtDefen:

; 3448 : 	}
; 3449 : 
; 3450 : 	return 0;

  00039	33 c0		 xor	 eax, eax
$LN4@IsExtDefen:

; 3451 : }

  0003b	c3		 ret	 0
?IsExtDefenseSuccessfull@CItem@@QAEHXZ ENDP		; CItem::IsExtDefenseSuccessfull
_TEXT	ENDS
PUBLIC	?IsExtMonsterMoney@CItem@@QAEHXZ		; CItem::IsExtMonsterMoney
; Function compile flags: /Ogtp
;	COMDAT ?IsExtMonsterMoney@CItem@@QAEHXZ
_TEXT	SEGMENT
?IsExtMonsterMoney@CItem@@QAEHXZ PROC			; CItem::IsExtMonsterMoney, COMDAT
; _this$ = ecx

; 3455 : 	if ( (this->m_NewOption & 1) == 1 )

  00000	f6 81 97 00 00
	00 01		 test	 BYTE PTR [ecx+151], 1
  00007	74 30		 je	 SHORT $LN3@IsExtMonst

; 3456 : 	{
; 3457 : #if(CUSTOM_ITEM_RANK==TRUE)
; 3458 : 		int iRankID = g_ItemRank.IsRankItem(this->m_Type, this->m_Level);

  00009	0f b6 41 08	 movzx	 eax, BYTE PTR [ecx+8]
  0000d	0f b7 49 06	 movzx	 ecx, WORD PTR [ecx+6]
  00011	50		 push	 eax
  00012	51		 push	 ecx
  00013	b9 00 00 00 00	 mov	 ecx, OFFSET ?g_ItemRank@@3VItemRank@@A ; g_ItemRank
  00018	e8 00 00 00 00	 call	 ?IsRankItem@ItemRank@@QAEHGE@Z ; ItemRank::IsRankItem

; 3459 : 		if(iRankID >= 0)

  0001d	85 c0		 test	 eax, eax
  0001f	78 12		 js	 SHORT $LN1@IsExtMonst

; 3460 : 		{
; 3461 : 			int iRankValue = g_ItemRank.GetRankValueOption(iRankID, 5);

  00021	6a 05		 push	 5
  00023	50		 push	 eax
  00024	b9 00 00 00 00	 mov	 ecx, OFFSET ?g_ItemRank@@3VItemRank@@A ; g_ItemRank
  00029	e8 00 00 00 00	 call	 ?GetRankValueOption@ItemRank@@QAEHHE@Z ; ItemRank::GetRankValueOption

; 3462 : 			if(iRankValue != -1)

  0002e	83 f8 ff	 cmp	 eax, -1

; 3463 : 			{
; 3464 : 				return iRankValue;

  00031	75 08		 jne	 SHORT $LN4@IsExtMonst
$LN1@IsExtMonst:

; 3465 : 			}
; 3466 : 		}
; 3467 : #endif
; 3468 : 		return 30; //season4 changed

  00033	b8 1e 00 00 00	 mov	 eax, 30			; 0000001eH

; 3472 : }

  00038	c3		 ret	 0
$LN3@IsExtMonst:

; 3469 : 	}
; 3470 : 
; 3471 : 	return 0;

  00039	33 c0		 xor	 eax, eax
$LN4@IsExtMonst:

; 3472 : }

  0003b	c3		 ret	 0
?IsExtMonsterMoney@CItem@@QAEHXZ ENDP			; CItem::IsExtMonsterMoney
_TEXT	ENDS
PUBLIC	?IsExtExcellentDamage@CItem@@QAEHXZ		; CItem::IsExtExcellentDamage
; Function compile flags: /Ogtp
;	COMDAT ?IsExtExcellentDamage@CItem@@QAEHXZ
_TEXT	SEGMENT
?IsExtExcellentDamage@CItem@@QAEHXZ PROC		; CItem::IsExtExcellentDamage, COMDAT
; _this$ = ecx

; 3476 : 	if ( (this->m_Type >= ITEMGET(6,0) ) && (this->m_Type < ITEMGET(7,0) ) )

  00000	0f b7 41 06	 movzx	 eax, WORD PTR [ecx+6]
  00004	ba 00 0c 00 00	 mov	 edx, 3072		; 00000c00H
  00009	66 3b c2	 cmp	 ax, dx
  0000c	7c 0a		 jl	 SHORT $LN4@IsExtExcel
  0000e	ba 00 0e 00 00	 mov	 edx, 3584		; 00000e00H
  00013	66 3b c2	 cmp	 ax, dx

; 3477 : 	{
; 3478 : 		return 0;

  00016	7c 35		 jl	 SHORT $LN3@IsExtExcel
$LN4@IsExtExcel:

; 3479 : 	}
; 3480 : 
; 3481 : 	if ( ( this->m_NewOption & 0x20 ) == 0x20 )

  00018	f6 81 97 00 00
	00 20		 test	 BYTE PTR [ecx+151], 32	; 00000020H
  0001f	74 2c		 je	 SHORT $LN3@IsExtExcel

; 3482 : 	{
; 3483 : #if(CUSTOM_ITEM_RANK==TRUE)
; 3484 : 		int iRankID = g_ItemRank.IsRankItem(this->m_Type, this->m_Level);

  00021	0f b6 49 08	 movzx	 ecx, BYTE PTR [ecx+8]
  00025	51		 push	 ecx
  00026	50		 push	 eax
  00027	b9 00 00 00 00	 mov	 ecx, OFFSET ?g_ItemRank@@3VItemRank@@A ; g_ItemRank
  0002c	e8 00 00 00 00	 call	 ?IsRankItem@ItemRank@@QAEHGE@Z ; ItemRank::IsRankItem

; 3485 : 		if(iRankID >= 0)

  00031	85 c0		 test	 eax, eax
  00033	78 12		 js	 SHORT $LN1@IsExtExcel

; 3486 : 		{
; 3487 : 			int iRankValue = g_ItemRank.GetRankValueOption(iRankID, 0);

  00035	6a 00		 push	 0
  00037	50		 push	 eax
  00038	b9 00 00 00 00	 mov	 ecx, OFFSET ?g_ItemRank@@3VItemRank@@A ; g_ItemRank
  0003d	e8 00 00 00 00	 call	 ?GetRankValueOption@ItemRank@@QAEHHE@Z ; ItemRank::GetRankValueOption

; 3488 : 			if(iRankValue != -1)

  00042	83 f8 ff	 cmp	 eax, -1

; 3489 : 			{
; 3490 : 				return iRankValue;

  00045	75 08		 jne	 SHORT $LN5@IsExtExcel
$LN1@IsExtExcel:

; 3491 : 			}
; 3492 : 		}
; 3493 : #endif
; 3494 : 		return 10;

  00047	b8 0a 00 00 00	 mov	 eax, 10			; 0000000aH

; 3497 : }

  0004c	c3		 ret	 0
$LN3@IsExtExcel:

; 3495 : 	}
; 3496 : 	return 0;

  0004d	33 c0		 xor	 eax, eax
$LN5@IsExtExcel:

; 3497 : }

  0004f	c3		 ret	 0
?IsExtExcellentDamage@CItem@@QAEHXZ ENDP		; CItem::IsExtExcellentDamage
_TEXT	ENDS
PUBLIC	?IsExtAttackRate@CItem@@QAEHXZ			; CItem::IsExtAttackRate
; Function compile flags: /Ogtp
;	COMDAT ?IsExtAttackRate@CItem@@QAEHXZ
_TEXT	SEGMENT
?IsExtAttackRate@CItem@@QAEHXZ PROC			; CItem::IsExtAttackRate, COMDAT
; _this$ = ecx

; 3501 : 	if ( (this->m_NewOption & 0x10) == 16 )

  00000	f6 81 97 00 00
	00 10		 test	 BYTE PTR [ecx+151], 16	; 00000010H
  00007	74 30		 je	 SHORT $LN3@IsExtAttac

; 3502 : 	{
; 3503 : #if(CUSTOM_ITEM_RANK==TRUE)
; 3504 : 		int iRankID = g_ItemRank.IsRankItem(this->m_Type, this->m_Level);

  00009	0f b6 41 08	 movzx	 eax, BYTE PTR [ecx+8]
  0000d	0f b7 49 06	 movzx	 ecx, WORD PTR [ecx+6]
  00011	50		 push	 eax
  00012	51		 push	 ecx
  00013	b9 00 00 00 00	 mov	 ecx, OFFSET ?g_ItemRank@@3VItemRank@@A ; g_ItemRank
  00018	e8 00 00 00 00	 call	 ?IsRankItem@ItemRank@@QAEHGE@Z ; ItemRank::IsRankItem

; 3505 : 		if(iRankID >= 0)

  0001d	85 c0		 test	 eax, eax
  0001f	78 12		 js	 SHORT $LN1@IsExtAttac

; 3506 : 		{
; 3507 : 			int iRankValue = g_ItemRank.GetRankValueOption(iRankID, 1);

  00021	6a 01		 push	 1
  00023	50		 push	 eax
  00024	b9 00 00 00 00	 mov	 ecx, OFFSET ?g_ItemRank@@3VItemRank@@A ; g_ItemRank
  00029	e8 00 00 00 00	 call	 ?GetRankValueOption@ItemRank@@QAEHHE@Z ; ItemRank::GetRankValueOption

; 3508 : 			if(iRankValue != -1)

  0002e	83 f8 ff	 cmp	 eax, -1

; 3509 : 			{
; 3510 : 				return iRankValue;

  00031	75 08		 jne	 SHORT $LN4@IsExtAttac
$LN1@IsExtAttac:

; 3511 : 			}
; 3512 : 		}
; 3513 : #endif
; 3514 : 		//return 1;
; 3515 : 		return 20;

  00033	b8 14 00 00 00	 mov	 eax, 20			; 00000014H

; 3519 : }

  00038	c3		 ret	 0
$LN3@IsExtAttac:

; 3516 : 	}
; 3517 : 
; 3518 : 	return 0;

  00039	33 c0		 xor	 eax, eax
$LN4@IsExtAttac:

; 3519 : }

  0003b	c3		 ret	 0
?IsExtAttackRate@CItem@@QAEHXZ ENDP			; CItem::IsExtAttackRate
_TEXT	ENDS
PUBLIC	?IsExtAttackRate2@CItem@@QAEHXZ			; CItem::IsExtAttackRate2
; Function compile flags: /Ogtp
;	COMDAT ?IsExtAttackRate2@CItem@@QAEHXZ
_TEXT	SEGMENT
?IsExtAttackRate2@CItem@@QAEHXZ PROC			; CItem::IsExtAttackRate2, COMDAT
; _this$ = ecx

; 3523 : 	if ( (this->m_NewOption & 8) == 8 )

  00000	f6 81 97 00 00
	00 08		 test	 BYTE PTR [ecx+151], 8
  00007	74 30		 je	 SHORT $LN3@IsExtAttac@2

; 3524 : 	{
; 3525 : #if(CUSTOM_ITEM_RANK==TRUE)
; 3526 : 		int iRankID = g_ItemRank.IsRankItem(this->m_Type, this->m_Level);

  00009	0f b6 41 08	 movzx	 eax, BYTE PTR [ecx+8]
  0000d	0f b7 49 06	 movzx	 ecx, WORD PTR [ecx+6]
  00011	50		 push	 eax
  00012	51		 push	 ecx
  00013	b9 00 00 00 00	 mov	 ecx, OFFSET ?g_ItemRank@@3VItemRank@@A ; g_ItemRank
  00018	e8 00 00 00 00	 call	 ?IsRankItem@ItemRank@@QAEHGE@Z ; ItemRank::IsRankItem

; 3527 : 		if(iRankID >= 0)

  0001d	85 c0		 test	 eax, eax
  0001f	78 12		 js	 SHORT $LN1@IsExtAttac@2

; 3528 : 		{
; 3529 : 			int iRankValue = g_ItemRank.GetRankValueOption(iRankID, 2);

  00021	6a 02		 push	 2
  00023	50		 push	 eax
  00024	b9 00 00 00 00	 mov	 ecx, OFFSET ?g_ItemRank@@3VItemRank@@A ; g_ItemRank
  00029	e8 00 00 00 00	 call	 ?GetRankValueOption@ItemRank@@QAEHHE@Z ; ItemRank::GetRankValueOption

; 3530 : 			if(iRankValue != -1)

  0002e	83 f8 ff	 cmp	 eax, -1

; 3531 : 			{
; 3532 : 				return iRankValue;

  00031	75 08		 jne	 SHORT $LN4@IsExtAttac@2
$LN1@IsExtAttac@2:

; 3533 : 			}
; 3534 : 		}
; 3535 : #endif
; 3536 : 		return 2;

  00033	b8 02 00 00 00	 mov	 eax, 2

; 3540 : }

  00038	c3		 ret	 0
$LN3@IsExtAttac@2:

; 3537 : 	}
; 3538 : 
; 3539 : 	return 0;

  00039	33 c0		 xor	 eax, eax
$LN4@IsExtAttac@2:

; 3540 : }

  0003b	c3		 ret	 0
?IsExtAttackRate2@CItem@@QAEHXZ ENDP			; CItem::IsExtAttackRate2
_TEXT	ENDS
PUBLIC	?IsExtAttackSpeed@CItem@@QAEHXZ			; CItem::IsExtAttackSpeed
; Function compile flags: /Ogtp
;	COMDAT ?IsExtAttackSpeed@CItem@@QAEHXZ
_TEXT	SEGMENT
?IsExtAttackSpeed@CItem@@QAEHXZ PROC			; CItem::IsExtAttackSpeed, COMDAT
; _this$ = ecx

; 3544 : 	if ( (this->m_NewOption & 4) == 4 )

  00000	f6 81 97 00 00
	00 04		 test	 BYTE PTR [ecx+151], 4
  00007	74 30		 je	 SHORT $LN3@IsExtAttac@3

; 3545 : 	{
; 3546 : #if(CUSTOM_ITEM_RANK==TRUE)
; 3547 : 		int iRankID = g_ItemRank.IsRankItem(this->m_Type, this->m_Level);

  00009	0f b6 41 08	 movzx	 eax, BYTE PTR [ecx+8]
  0000d	0f b7 49 06	 movzx	 ecx, WORD PTR [ecx+6]
  00011	50		 push	 eax
  00012	51		 push	 ecx
  00013	b9 00 00 00 00	 mov	 ecx, OFFSET ?g_ItemRank@@3VItemRank@@A ; g_ItemRank
  00018	e8 00 00 00 00	 call	 ?IsRankItem@ItemRank@@QAEHGE@Z ; ItemRank::IsRankItem

; 3548 : 		if(iRankID >= 0)

  0001d	85 c0		 test	 eax, eax
  0001f	78 12		 js	 SHORT $LN1@IsExtAttac@3

; 3549 : 		{
; 3550 : 			int iRankValue = g_ItemRank.GetRankValueOption(iRankID, 3);

  00021	6a 03		 push	 3
  00023	50		 push	 eax
  00024	b9 00 00 00 00	 mov	 ecx, OFFSET ?g_ItemRank@@3VItemRank@@A ; g_ItemRank
  00029	e8 00 00 00 00	 call	 ?GetRankValueOption@ItemRank@@QAEHHE@Z ; ItemRank::GetRankValueOption

; 3551 : 			if(iRankValue != -1)

  0002e	83 f8 ff	 cmp	 eax, -1

; 3552 : 			{
; 3553 : 				return iRankValue;

  00031	75 08		 jne	 SHORT $LN4@IsExtAttac@3
$LN1@IsExtAttac@3:

; 3554 : 			}
; 3555 : 		}
; 3556 : #endif
; 3557 : 		return 7;

  00033	b8 07 00 00 00	 mov	 eax, 7

; 3561 : }

  00038	c3		 ret	 0
$LN3@IsExtAttac@3:

; 3558 : 	}
; 3559 : 
; 3560 : 	return 0;

  00039	33 c0		 xor	 eax, eax
$LN4@IsExtAttac@3:

; 3561 : }

  0003b	c3		 ret	 0
?IsExtAttackSpeed@CItem@@QAEHXZ ENDP			; CItem::IsExtAttackSpeed
_TEXT	ENDS
PUBLIC	?IsExtMonsterDieLife@CItem@@QAEHXZ		; CItem::IsExtMonsterDieLife
; Function compile flags: /Ogtp
;	COMDAT ?IsExtMonsterDieLife@CItem@@QAEHXZ
_TEXT	SEGMENT
?IsExtMonsterDieLife@CItem@@QAEHXZ PROC			; CItem::IsExtMonsterDieLife, COMDAT
; _this$ = ecx

; 3566 : 	if ( (this->m_NewOption & 2) == 2 )

  00000	f6 81 97 00 00
	00 02		 test	 BYTE PTR [ecx+151], 2
  00007	74 30		 je	 SHORT $LN3@IsExtMonst@2

; 3567 : 	{
; 3568 : #if(CUSTOM_ITEM_RANK==TRUE)
; 3569 : 		int iRankID = g_ItemRank.IsRankItem(this->m_Type, this->m_Level);

  00009	0f b6 41 08	 movzx	 eax, BYTE PTR [ecx+8]
  0000d	0f b7 49 06	 movzx	 ecx, WORD PTR [ecx+6]
  00011	50		 push	 eax
  00012	51		 push	 ecx
  00013	b9 00 00 00 00	 mov	 ecx, OFFSET ?g_ItemRank@@3VItemRank@@A ; g_ItemRank
  00018	e8 00 00 00 00	 call	 ?IsRankItem@ItemRank@@QAEHGE@Z ; ItemRank::IsRankItem

; 3570 : 		if(iRankID >= 0)

  0001d	85 c0		 test	 eax, eax
  0001f	78 12		 js	 SHORT $LN1@IsExtMonst@2

; 3571 : 		{
; 3572 : 			int iRankValue = g_ItemRank.GetRankValueOption(iRankID, 4);

  00021	6a 04		 push	 4
  00023	50		 push	 eax
  00024	b9 00 00 00 00	 mov	 ecx, OFFSET ?g_ItemRank@@3VItemRank@@A ; g_ItemRank
  00029	e8 00 00 00 00	 call	 ?GetRankValueOption@ItemRank@@QAEHHE@Z ; ItemRank::GetRankValueOption

; 3573 : 			if(iRankValue != -1)

  0002e	83 f8 ff	 cmp	 eax, -1

; 3574 : 			{
; 3575 : 				return iRankValue;

  00031	75 08		 jne	 SHORT $LN4@IsExtMonst@2
$LN1@IsExtMonst@2:

; 3576 : 			}
; 3577 : 		}
; 3578 : #endif
; 3579 : 		//return 1;
; 3580 : 		return 8;

  00033	b8 08 00 00 00	 mov	 eax, 8

; 3584 : }

  00038	c3		 ret	 0
$LN3@IsExtMonst@2:

; 3581 : 	}
; 3582 : 
; 3583 : 	return 0;

  00039	33 c0		 xor	 eax, eax
$LN4@IsExtMonst@2:

; 3584 : }

  0003b	c3		 ret	 0
?IsExtMonsterDieLife@CItem@@QAEHXZ ENDP			; CItem::IsExtMonsterDieLife
_TEXT	ENDS
PUBLIC	?IsExtMonsterDieMana@CItem@@QAEHXZ		; CItem::IsExtMonsterDieMana
; Function compile flags: /Ogtp
;	COMDAT ?IsExtMonsterDieMana@CItem@@QAEHXZ
_TEXT	SEGMENT
?IsExtMonsterDieMana@CItem@@QAEHXZ PROC			; CItem::IsExtMonsterDieMana, COMDAT
; _this$ = ecx

; 3589 : 	if ( this->m_Type >= ITEMGET(6,0) && this->m_Type < ITEMGET(7,0) )

  00000	0f b7 41 06	 movzx	 eax, WORD PTR [ecx+6]
  00004	ba 00 0c 00 00	 mov	 edx, 3072		; 00000c00H
  00009	66 3b c2	 cmp	 ax, dx
  0000c	7c 0a		 jl	 SHORT $LN4@IsExtMonst@3
  0000e	ba 00 0e 00 00	 mov	 edx, 3584		; 00000e00H
  00013	66 3b c2	 cmp	 ax, dx

; 3590 : 	{
; 3591 : 		return 0;

  00016	7c 35		 jl	 SHORT $LN3@IsExtMonst@3
$LN4@IsExtMonst@3:

; 3592 : 	}
; 3593 : 
; 3594 : 	if ( (this->m_NewOption & 1) == 1 )

  00018	f6 81 97 00 00
	00 01		 test	 BYTE PTR [ecx+151], 1
  0001f	74 2c		 je	 SHORT $LN3@IsExtMonst@3

; 3595 : 	{
; 3596 : #if(CUSTOM_ITEM_RANK==TRUE)
; 3597 : 		int iRankID = g_ItemRank.IsRankItem(this->m_Type, this->m_Level);

  00021	0f b6 49 08	 movzx	 ecx, BYTE PTR [ecx+8]
  00025	51		 push	 ecx
  00026	50		 push	 eax
  00027	b9 00 00 00 00	 mov	 ecx, OFFSET ?g_ItemRank@@3VItemRank@@A ; g_ItemRank
  0002c	e8 00 00 00 00	 call	 ?IsRankItem@ItemRank@@QAEHGE@Z ; ItemRank::IsRankItem

; 3598 : 		if(iRankID >= 0)

  00031	85 c0		 test	 eax, eax
  00033	78 12		 js	 SHORT $LN1@IsExtMonst@3

; 3599 : 		{
; 3600 : 			int iRankValue = g_ItemRank.GetRankValueOption(iRankID, 5);

  00035	6a 05		 push	 5
  00037	50		 push	 eax
  00038	b9 00 00 00 00	 mov	 ecx, OFFSET ?g_ItemRank@@3VItemRank@@A ; g_ItemRank
  0003d	e8 00 00 00 00	 call	 ?GetRankValueOption@ItemRank@@QAEHHE@Z ; ItemRank::GetRankValueOption

; 3601 : 			if(iRankValue != -1)

  00042	83 f8 ff	 cmp	 eax, -1

; 3602 : 			{
; 3603 : 				return iRankValue;

  00045	75 08		 jne	 SHORT $LN5@IsExtMonst@3
$LN1@IsExtMonst@3:

; 3604 : 			}
; 3605 : 		}
; 3606 : #endif
; 3607 : 		//return 1;
; 3608 : 		return 8;

  00047	b8 08 00 00 00	 mov	 eax, 8

; 3611 : }

  0004c	c3		 ret	 0
$LN3@IsExtMonst@3:

; 3609 : 	}
; 3610 : 	return 0;

  0004d	33 c0		 xor	 eax, eax
$LN5@IsExtMonst@3:

; 3611 : }

  0004f	c3		 ret	 0
?IsExtMonsterDieMana@CItem@@QAEHXZ ENDP			; CItem::IsExtMonsterDieMana
_TEXT	ENDS
PUBLIC	__real@3f800000
PUBLIC	?IsWingOpGetOnePercentDamage@CItem@@QAEHXZ	; CItem::IsWingOpGetOnePercentDamage
;	COMDAT __real@3f800000
CONST	SEGMENT
__real@3f800000 DD 03f800000r			; 1
; Function compile flags: /Ogtp
CONST	ENDS
;	COMDAT ?IsWingOpGetOnePercentDamage@CItem@@QAEHXZ
_TEXT	SEGMENT
?IsWingOpGetOnePercentDamage@CItem@@QAEHXZ PROC		; CItem::IsWingOpGetOnePercentDamage, COMDAT
; _this$ = ecx

; 3615 : 	if ( this->m_Durability  < 1.0f )

  00000	d9 e8		 fld1
  00002	d8 59 24	 fcomp	 DWORD PTR [ecx+36]
  00005	df e0		 fnstsw	 ax
  00007	f6 c4 41	 test	 ah, 65			; 00000041H

; 3616 : 	{
; 3617 : 		return 0;

  0000a	74 3b		 je	 SHORT $LN1@IsWingOpGe

; 3618 : 	}
; 3619 : 
; 3620 : 	if ( this->m_Type >= ITEMGET(12,3) && this->m_Type <= ITEMGET(12,6) || this->m_Type == ITEMGET(13,30) || this->m_Type == ITEMGET(12,42) )

  0000c	0f b7 41 06	 movzx	 eax, WORD PTR [ecx+6]
  00010	ba 03 18 00 00	 mov	 edx, 6147		; 00001803H
  00015	66 3b c2	 cmp	 ax, dx
  00018	7c 0a		 jl	 SHORT $LN2@IsWingOpGe
  0001a	ba 06 18 00 00	 mov	 edx, 6150		; 00001806H
  0001f	66 3b c2	 cmp	 ax, dx
  00022	7e 14		 jle	 SHORT $LN3@IsWingOpGe
$LN2@IsWingOpGe:
  00024	ba 1e 1a 00 00	 mov	 edx, 6686		; 00001a1eH
  00029	66 3b c2	 cmp	 ax, dx
  0002c	74 0a		 je	 SHORT $LN3@IsWingOpGe
  0002e	ba 2a 18 00 00	 mov	 edx, 6186		; 0000182aH
  00033	66 3b c2	 cmp	 ax, dx
  00036	75 0f		 jne	 SHORT $LN1@IsWingOpGe
$LN3@IsWingOpGe:

; 3621 : 	{
; 3622 : 		if ( (this->m_NewOption & 4)!= 0 )

  00038	f6 81 97 00 00
	00 04		 test	 BYTE PTR [ecx+151], 4
  0003f	74 06		 je	 SHORT $LN1@IsWingOpGe

; 3623 : 		{
; 3624 : 			return 3;

  00041	b8 03 00 00 00	 mov	 eax, 3

; 3628 : }

  00046	c3		 ret	 0
$LN1@IsWingOpGe:

; 3625 : 		}
; 3626 : 	}
; 3627 : 	return 0;

  00047	33 c0		 xor	 eax, eax

; 3628 : }

  00049	c3		 ret	 0
?IsWingOpGetOnePercentDamage@CItem@@QAEHXZ ENDP		; CItem::IsWingOpGetOnePercentDamage
_TEXT	ENDS
PUBLIC	?IsWingOpGetManaToMoster@CItem@@QAEHXZ		; CItem::IsWingOpGetManaToMoster
; Function compile flags: /Ogtp
;	COMDAT ?IsWingOpGetManaToMoster@CItem@@QAEHXZ
_TEXT	SEGMENT
?IsWingOpGetManaToMoster@CItem@@QAEHXZ PROC		; CItem::IsWingOpGetManaToMoster, COMDAT
; _this$ = ecx

; 3632 : 	if ( this->m_Durability < 1.0f )

  00000	d9 e8		 fld1
  00002	d8 59 24	 fcomp	 DWORD PTR [ecx+36]
  00005	df e0		 fnstsw	 ax
  00007	f6 c4 41	 test	 ah, 65			; 00000041H

; 3633 : 	{
; 3634 : 		return 0;

  0000a	74 3e		 je	 SHORT $LN1@IsWingOpGe@2

; 3635 : 	}
; 3636 : 
; 3637 : 	if ( this->m_Type >= ITEMGET(12,3) && this->m_Type <= ITEMGET(12,6) || this->m_Type == ITEMGET(13,30) || this->m_Type == ITEMGET(12,42) )

  0000c	0f b7 41 06	 movzx	 eax, WORD PTR [ecx+6]
  00010	ba 03 18 00 00	 mov	 edx, 6147		; 00001803H
  00015	66 3b c2	 cmp	 ax, dx
  00018	7c 0a		 jl	 SHORT $LN2@IsWingOpGe@2
  0001a	ba 06 18 00 00	 mov	 edx, 6150		; 00001806H
  0001f	66 3b c2	 cmp	 ax, dx
  00022	7e 14		 jle	 SHORT $LN3@IsWingOpGe@2
$LN2@IsWingOpGe@2:
  00024	ba 1e 1a 00 00	 mov	 edx, 6686		; 00001a1eH
  00029	66 3b c2	 cmp	 ax, dx
  0002c	74 0a		 je	 SHORT $LN3@IsWingOpGe@2
  0002e	ba 2a 18 00 00	 mov	 edx, 6186		; 0000182aH
  00033	66 3b c2	 cmp	 ax, dx
  00036	75 12		 jne	 SHORT $LN1@IsWingOpGe@2
$LN3@IsWingOpGe@2:

; 3638 : 	{
; 3639 : 		if ( (this->m_NewOption & 16 ) == 1 )

  00038	8a 81 97 00 00
	00		 mov	 al, BYTE PTR [ecx+151]
  0003e	24 10		 and	 al, 16			; 00000010H
  00040	3c 01		 cmp	 al, 1
  00042	75 06		 jne	 SHORT $LN1@IsWingOpGe@2

; 3640 : 		{
; 3641 : 			return 10;

  00044	b8 0a 00 00 00	 mov	 eax, 10			; 0000000aH

; 3645 : }

  00049	c3		 ret	 0
$LN1@IsWingOpGe@2:

; 3642 : 		}
; 3643 : 	}
; 3644 : 	return 0;

  0004a	33 c0		 xor	 eax, eax

; 3645 : }

  0004c	c3		 ret	 0
?IsWingOpGetManaToMoster@CItem@@QAEHXZ ENDP		; CItem::IsWingOpGetManaToMoster
_TEXT	ENDS
PUBLIC	?IsDinorantReduceAttackDamaege@CItem@@QAEHXZ	; CItem::IsDinorantReduceAttackDamaege
; Function compile flags: /Ogtp
;	COMDAT ?IsDinorantReduceAttackDamaege@CItem@@QAEHXZ
_TEXT	SEGMENT
?IsDinorantReduceAttackDamaege@CItem@@QAEHXZ PROC	; CItem::IsDinorantReduceAttackDamaege, COMDAT
; _this$ = ecx

; 3649 : 	if ( this->m_Durability  < 1.0f )

  00000	d9 e8		 fld1
  00002	d8 59 24	 fcomp	 DWORD PTR [ecx+36]
  00005	df e0		 fnstsw	 ax
  00007	f6 c4 41	 test	 ah, 65			; 00000041H
  0000a	75 03		 jne	 SHORT $LN2@IsDinorant

; 3650 : 	{
; 3651 : 		return 0;

  0000c	33 c0		 xor	 eax, eax

; 3655 : 	{
; 3656 : 		return 5;
; 3657 : 	}
; 3658 : 	return 0;
; 3659 : }

  0000e	c3		 ret	 0
$LN2@IsDinorant:

; 3652 : 	}
; 3653 : 
; 3654 : 	if ( (this->m_NewOption & 1 ) == 1 )

  0000f	8a 81 97 00 00
	00		 mov	 al, BYTE PTR [ecx+151]
  00015	24 01		 and	 al, 1
  00017	fe c8		 dec	 al
  00019	0f b6 c0	 movzx	 eax, al
  0001c	f7 d8		 neg	 eax
  0001e	1b c0		 sbb	 eax, eax
  00020	83 e0 fb	 and	 eax, -5			; fffffffbH
  00023	83 c0 05	 add	 eax, 5

; 3655 : 	{
; 3656 : 		return 5;
; 3657 : 	}
; 3658 : 	return 0;
; 3659 : }

  00026	c3		 ret	 0
?IsDinorantReduceAttackDamaege@CItem@@QAEHXZ ENDP	; CItem::IsDinorantReduceAttackDamaege
_TEXT	ENDS
PUBLIC	?IsFenrirIncLastAttackDamage@CItem@@QAEHXZ	; CItem::IsFenrirIncLastAttackDamage
; Function compile flags: /Ogtp
;	COMDAT ?IsFenrirIncLastAttackDamage@CItem@@QAEHXZ
_TEXT	SEGMENT
?IsFenrirIncLastAttackDamage@CItem@@QAEHXZ PROC		; CItem::IsFenrirIncLastAttackDamage, COMDAT
; _this$ = ecx

; 3664 : 	if ( this->m_Durability < 1.0f )

  00000	d9 e8		 fld1
  00002	d8 59 24	 fcomp	 DWORD PTR [ecx+36]
  00005	df e0		 fnstsw	 ax
  00007	f6 c4 41	 test	 ah, 65			; 00000041H
  0000a	75 03		 jne	 SHORT $LN2@IsFenrirIn

; 3665 : 	{
; 3666 : 		return 0;

  0000c	33 c0		 xor	 eax, eax

; 3670 : 	{
; 3671 : 		return 10;
; 3672 : 	}
; 3673 : 
; 3674 : 	return 0;
; 3675 : }

  0000e	c3		 ret	 0
$LN2@IsFenrirIn:

; 3667 : 	}
; 3668 : 
; 3669 : 	if ( (this->m_NewOption&1) == 1 )

  0000f	8a 81 97 00 00
	00		 mov	 al, BYTE PTR [ecx+151]
  00015	24 01		 and	 al, 1
  00017	fe c8		 dec	 al
  00019	0f b6 c0	 movzx	 eax, al
  0001c	f7 d8		 neg	 eax
  0001e	1b c0		 sbb	 eax, eax
  00020	83 e0 f6	 and	 eax, -10		; fffffff6H
  00023	83 c0 0a	 add	 eax, 10			; 0000000aH

; 3670 : 	{
; 3671 : 		return 10;
; 3672 : 	}
; 3673 : 
; 3674 : 	return 0;
; 3675 : }

  00026	c3		 ret	 0
?IsFenrirIncLastAttackDamage@CItem@@QAEHXZ ENDP		; CItem::IsFenrirIncLastAttackDamage
_TEXT	ENDS
PUBLIC	?IsFenrirDecLastAttackDamage@CItem@@QAEHXZ	; CItem::IsFenrirDecLastAttackDamage
; Function compile flags: /Ogtp
;	COMDAT ?IsFenrirDecLastAttackDamage@CItem@@QAEHXZ
_TEXT	SEGMENT
?IsFenrirDecLastAttackDamage@CItem@@QAEHXZ PROC		; CItem::IsFenrirDecLastAttackDamage, COMDAT
; _this$ = ecx

; 3679 : 	if ( this->m_Durability < 1.0f )

  00000	d9 e8		 fld1
  00002	d8 59 24	 fcomp	 DWORD PTR [ecx+36]
  00005	df e0		 fnstsw	 ax
  00007	f6 c4 41	 test	 ah, 65			; 00000041H
  0000a	75 03		 jne	 SHORT $LN2@IsFenrirDe

; 3680 : 	{
; 3681 : 		return 0;

  0000c	33 c0		 xor	 eax, eax

; 3685 : 	{
; 3686 : 		return 10;
; 3687 : 	}
; 3688 : 
; 3689 : 	return 0;
; 3690 : }

  0000e	c3		 ret	 0
$LN2@IsFenrirDe:

; 3682 : 	}
; 3683 : 
; 3684 : 	if ( (this->m_NewOption&2) == 2 )

  0000f	8a 81 97 00 00
	00		 mov	 al, BYTE PTR [ecx+151]
  00015	24 02		 and	 al, 2
  00017	33 c9		 xor	 ecx, ecx
  00019	3c 02		 cmp	 al, 2
  0001b	0f 95 c1	 setne	 cl
  0001e	8d 41 ff	 lea	 eax, DWORD PTR [ecx-1]
  00021	83 e0 0a	 and	 eax, 10			; 0000000aH

; 3685 : 	{
; 3686 : 		return 10;
; 3687 : 	}
; 3688 : 
; 3689 : 	return 0;
; 3690 : }

  00024	c3		 ret	 0
?IsFenrirDecLastAttackDamage@CItem@@QAEHXZ ENDP		; CItem::IsFenrirDecLastAttackDamage
_TEXT	ENDS
PUBLIC	?IsFenrirSpecial@CItem@@QAEHXZ			; CItem::IsFenrirSpecial
; Function compile flags: /Ogtp
;	COMDAT ?IsFenrirSpecial@CItem@@QAEHXZ
_TEXT	SEGMENT
?IsFenrirSpecial@CItem@@QAEHXZ PROC			; CItem::IsFenrirSpecial, COMDAT
; _this$ = ecx

; 3694 : 	if ( this->m_Durability < 1.0f )

  00000	d9 e8		 fld1
  00002	d8 59 24	 fcomp	 DWORD PTR [ecx+36]
  00005	df e0		 fnstsw	 ax
  00007	f6 c4 41	 test	 ah, 65			; 00000041H
  0000a	75 03		 jne	 SHORT $LN2@IsFenrirSp

; 3695 : 	{
; 3696 : 		return 0;

  0000c	33 c0		 xor	 eax, eax

; 3700 : 	{
; 3701 : 		return 1;
; 3702 : 	}
; 3703 : 
; 3704 : 	return 0;
; 3705 : }

  0000e	c3		 ret	 0
$LN2@IsFenrirSp:

; 3697 : 	}
; 3698 : 
; 3699 : 	if ( (this->m_NewOption&4) == 4 )

  0000f	8a 81 97 00 00
	00		 mov	 al, BYTE PTR [ecx+151]
  00015	24 04		 and	 al, 4
  00017	33 c9		 xor	 ecx, ecx
  00019	3c 04		 cmp	 al, 4
  0001b	0f 94 c1	 sete	 cl
  0001e	8b c1		 mov	 eax, ecx

; 3700 : 	{
; 3701 : 		return 1;
; 3702 : 	}
; 3703 : 
; 3704 : 	return 0;
; 3705 : }

  00020	c3		 ret	 0
?IsFenrirSpecial@CItem@@QAEHXZ ENDP			; CItem::IsFenrirSpecial
_TEXT	ENDS
PUBLIC	?IsWhiteTiger@CItem@@QAEHXZ			; CItem::IsWhiteTiger
; Function compile flags: /Ogtp
;	COMDAT ?IsWhiteTiger@CItem@@QAEHXZ
_TEXT	SEGMENT
?IsWhiteTiger@CItem@@QAEHXZ PROC			; CItem::IsWhiteTiger, COMDAT
; _this$ = ecx

; 3710 : 	if (this->m_Durability < 1.0f) {

  00000	d9 e8		 fld1
  00002	d8 59 24	 fcomp	 DWORD PTR [ecx+36]
  00005	df e0		 fnstsw	 ax
  00007	f6 c4 41	 test	 ah, 65			; 00000041H
  0000a	75 03		 jne	 SHORT $LN2@IsWhiteTig

; 3711 : 		return 0;

  0000c	33 c0		 xor	 eax, eax

; 3715 : 		return 20;//LeeHenry.Fenrir_DecDamagePercent;
; 3716 : 	}
; 3717 : 	/*else if ((this->m_NewOption & 4) == 4) {
; 3718 : 		if (LeeHenry.Fenrir_FixGold != 0) {
; 3719 : 			return LeeHenry.Fenrir_DecDamagePercent;
; 3720 : 		}
; 3721 : 	}*/
; 3722 : 
; 3723 : 	return 0;
; 3724 : }

  0000e	c3		 ret	 0
$LN2@IsWhiteTig:

; 3712 : 	}
; 3713 : 
; 3714 : 	if ((this->m_NewOption & 8) == 8) {

  0000f	8a 81 97 00 00
	00		 mov	 al, BYTE PTR [ecx+151]
  00015	24 08		 and	 al, 8
  00017	33 c9		 xor	 ecx, ecx
  00019	3c 08		 cmp	 al, 8
  0001b	0f 95 c1	 setne	 cl
  0001e	8d 41 ff	 lea	 eax, DWORD PTR [ecx-1]
  00021	83 e0 14	 and	 eax, 20			; 00000014H

; 3715 : 		return 20;//LeeHenry.Fenrir_DecDamagePercent;
; 3716 : 	}
; 3717 : 	/*else if ((this->m_NewOption & 4) == 4) {
; 3718 : 		if (LeeHenry.Fenrir_FixGold != 0) {
; 3719 : 			return LeeHenry.Fenrir_DecDamagePercent;
; 3720 : 		}
; 3721 : 	}*/
; 3722 : 
; 3723 : 	return 0;
; 3724 : }

  00024	c3		 ret	 0
?IsWhiteTiger@CItem@@QAEHXZ ENDP			; CItem::IsWhiteTiger
_TEXT	ENDS
PUBLIC	?IsHullWolf@CItem@@QAEHXZ			; CItem::IsHullWolf
; Function compile flags: /Ogtp
;	COMDAT ?IsHullWolf@CItem@@QAEHXZ
_TEXT	SEGMENT
?IsHullWolf@CItem@@QAEHXZ PROC				; CItem::IsHullWolf, COMDAT
; _this$ = ecx

; 3728 : 	if (this->m_Durability < 1.0f) {

  00000	d9 e8		 fld1
  00002	d8 59 24	 fcomp	 DWORD PTR [ecx+36]
  00005	df e0		 fnstsw	 ax
  00007	f6 c4 41	 test	 ah, 65			; 00000041H
  0000a	75 03		 jne	 SHORT $LN2@IsHullWolf

; 3729 : 		return 0;

  0000c	33 c0		 xor	 eax, eax

; 3733 : 		return 20;//LeeHenry.Fenrir_DecDamagePercent;
; 3734 : 	}
; 3735 : 	/*else if ((this->m_NewOption & 4) == 4) {
; 3736 : 		if (LeeHenry.Fenrir_FixGold != 0) {
; 3737 : 			return LeeHenry.Fenrir_DecDamagePercent;
; 3738 : 		}
; 3739 : 	}*/
; 3740 : 
; 3741 : 	return 0;
; 3742 : }

  0000e	c3		 ret	 0
$LN2@IsHullWolf:

; 3730 : 	}
; 3731 : 
; 3732 : 	if ((this->m_NewOption & 16) == 16) {

  0000f	8a 81 97 00 00
	00		 mov	 al, BYTE PTR [ecx+151]
  00015	24 10		 and	 al, 16			; 00000010H
  00017	33 c9		 xor	 ecx, ecx
  00019	3c 10		 cmp	 al, 16			; 00000010H
  0001b	0f 95 c1	 setne	 cl
  0001e	8d 41 ff	 lea	 eax, DWORD PTR [ecx-1]
  00021	83 e0 14	 and	 eax, 20			; 00000014H

; 3733 : 		return 20;//LeeHenry.Fenrir_DecDamagePercent;
; 3734 : 	}
; 3735 : 	/*else if ((this->m_NewOption & 4) == 4) {
; 3736 : 		if (LeeHenry.Fenrir_FixGold != 0) {
; 3737 : 			return LeeHenry.Fenrir_DecDamagePercent;
; 3738 : 		}
; 3739 : 	}*/
; 3740 : 
; 3741 : 	return 0;
; 3742 : }

  00024	c3		 ret	 0
?IsHullWolf@CItem@@QAEHXZ ENDP				; CItem::IsHullWolf
_TEXT	ENDS
PUBLIC	?IsBeast@CItem@@QAEHXZ				; CItem::IsBeast
; Function compile flags: /Ogtp
;	COMDAT ?IsBeast@CItem@@QAEHXZ
_TEXT	SEGMENT
?IsBeast@CItem@@QAEHXZ PROC				; CItem::IsBeast, COMDAT
; _this$ = ecx

; 3746 : 	if (this->m_Durability < 1.0f) {

  00000	d9 e8		 fld1
  00002	d8 59 24	 fcomp	 DWORD PTR [ecx+36]
  00005	df e0		 fnstsw	 ax
  00007	f6 c4 41	 test	 ah, 65			; 00000041H
  0000a	75 03		 jne	 SHORT $LN2@IsBeast

; 3747 : 		return 0;

  0000c	33 c0		 xor	 eax, eax

; 3751 : 		return 20;//LeeHenry.Fenrir_DecDamagePercent;
; 3752 : 	}
; 3753 : 	/*else if ((this->m_NewOption & 4) == 4) {
; 3754 : 		if (LeeHenry.Fenrir_FixGold != 0) {
; 3755 : 			return LeeHenry.Fenrir_DecDamagePercent;
; 3756 : 		}
; 3757 : 	}*/
; 3758 : 
; 3759 : 	return 0;
; 3760 : }

  0000e	c3		 ret	 0
$LN2@IsBeast:

; 3748 : 	}
; 3749 : 
; 3750 : 	if ((this->m_NewOption & 32) == 32) {

  0000f	8a 81 97 00 00
	00		 mov	 al, BYTE PTR [ecx+151]
  00015	24 20		 and	 al, 32			; 00000020H
  00017	33 c9		 xor	 ecx, ecx
  00019	3c 20		 cmp	 al, 32			; 00000020H
  0001b	0f 95 c1	 setne	 cl
  0001e	8d 41 ff	 lea	 eax, DWORD PTR [ecx-1]
  00021	83 e0 14	 and	 eax, 20			; 00000014H

; 3751 : 		return 20;//LeeHenry.Fenrir_DecDamagePercent;
; 3752 : 	}
; 3753 : 	/*else if ((this->m_NewOption & 4) == 4) {
; 3754 : 		if (LeeHenry.Fenrir_FixGold != 0) {
; 3755 : 			return LeeHenry.Fenrir_DecDamagePercent;
; 3756 : 		}
; 3757 : 	}*/
; 3758 : 
; 3759 : 	return 0;
; 3760 : }

  00024	c3		 ret	 0
?IsBeast@CItem@@QAEHXZ ENDP				; CItem::IsBeast
_TEXT	ENDS
PUBLIC	?IsThirdWingOpGetOnePercentDamage@CItem@@QAEHXZ	; CItem::IsThirdWingOpGetOnePercentDamage
; Function compile flags: /Ogtp
;	COMDAT ?IsThirdWingOpGetOnePercentDamage@CItem@@QAEHXZ
_TEXT	SEGMENT
?IsThirdWingOpGetOnePercentDamage@CItem@@QAEHXZ PROC	; CItem::IsThirdWingOpGetOnePercentDamage, COMDAT
; _this$ = ecx

; 3765 : 
; 3766 : 	if ( this->m_Type >= ITEMGET(12,36) && this->m_Type <= ITEMGET(12,40) ||
; 3767 : #ifdef NEWWINGS_2_5
; 3768 : 		IS_NEWWINGS_2_5(this->m_Type) ||
; 3769 : #endif
; 3770 : #ifdef NEWWINGS_4
; 3771 : 		IS_NEWWINGS_4(this->m_Type) ||
; 3772 : #endif
; 3773 : #ifdef NEWWINGS_5
; 3774 : 		IS_NEWWINGS_5(this->m_Type) ||
; 3775 : #endif
; 3776 : #ifdef NEWWINGS_6
; 3777 : 		IS_NEWWINGS_6(this->m_Type) ||
; 3778 : #endif
; 3779 : 		this->m_Type == ITEMGET(12,43))	//Custom Wings4

  00000	0f b7 41 06	 movzx	 eax, WORD PTR [ecx+6]
  00004	ba 24 18 00 00	 mov	 edx, 6180		; 00001824H
  00009	53		 push	 ebx
  0000a	66 3b c2	 cmp	 ax, dx
  0000d	7c 0a		 jl	 SHORT $LN4@IsThirdWin
  0000f	ba 28 18 00 00	 mov	 edx, 6184		; 00001828H
  00014	66 3b c2	 cmp	 ax, dx
  00017	7e 7e		 jle	 SHORT $LN5@IsThirdWin
$LN4@IsThirdWin:
  00019	ba ba 18 00 00	 mov	 edx, 6330		; 000018baH
  0001e	66 3b c2	 cmp	 ax, dx
  00021	7c 13		 jl	 SHORT $LN17@IsThirdWin
  00023	33 db		 xor	 ebx, ebx
  00025	ba bc 18 00 00	 mov	 edx, 6332		; 000018bcH
  0002a	66 3b c2	 cmp	 ax, dx
  0002d	0f 9e c3	 setle	 bl
  00030	8b d3		 mov	 edx, ebx
  00032	85 d2		 test	 edx, edx
  00034	75 61		 jne	 SHORT $LN5@IsThirdWin
$LN17@IsThirdWin:
  00036	ba b4 18 00 00	 mov	 edx, 6324		; 000018b4H
  0003b	66 3b c2	 cmp	 ax, dx
  0003e	7c 13		 jl	 SHORT $LN18@IsThirdWin
  00040	33 db		 xor	 ebx, ebx
  00042	ba b9 18 00 00	 mov	 edx, 6329		; 000018b9H
  00047	66 3b c2	 cmp	 ax, dx
  0004a	0f 9e c3	 setle	 bl
  0004d	8b d3		 mov	 edx, ebx
  0004f	85 d2		 test	 edx, edx
  00051	75 44		 jne	 SHORT $LN5@IsThirdWin
$LN18@IsThirdWin:
  00053	ba bd 18 00 00	 mov	 edx, 6333		; 000018bdH
  00058	66 3b c2	 cmp	 ax, dx
  0005b	7c 13		 jl	 SHORT $LN19@IsThirdWin
  0005d	33 db		 xor	 ebx, ebx
  0005f	ba c2 18 00 00	 mov	 edx, 6338		; 000018c2H
  00064	66 3b c2	 cmp	 ax, dx
  00067	0f 9e c3	 setle	 bl
  0006a	8b d3		 mov	 edx, ebx
  0006c	85 d2		 test	 edx, edx
  0006e	75 27		 jne	 SHORT $LN5@IsThirdWin
$LN19@IsThirdWin:
  00070	ba c3 18 00 00	 mov	 edx, 6339		; 000018c3H
  00075	66 3b c2	 cmp	 ax, dx
  00078	7c 13		 jl	 SHORT $LN20@IsThirdWin
  0007a	33 db		 xor	 ebx, ebx
  0007c	ba dc 18 00 00	 mov	 edx, 6364		; 000018dcH
  00081	66 3b c2	 cmp	 ax, dx
  00084	0f 9e c3	 setle	 bl
  00087	8b d3		 mov	 edx, ebx
  00089	85 d2		 test	 edx, edx
  0008b	75 0a		 jne	 SHORT $LN5@IsThirdWin
$LN20@IsThirdWin:
  0008d	ba 2b 18 00 00	 mov	 edx, 6187		; 0000182bH
  00092	66 3b c2	 cmp	 ax, dx
  00095	75 1c		 jne	 SHORT $LN1@IsThirdWin
$LN5@IsThirdWin:

; 3780 : 	
; 3781 : 	{
; 3782 : 		if ( this->m_Durability < 1.0f )

  00097	d9 e8		 fld1
  00099	d8 59 24	 fcomp	 DWORD PTR [ecx+36]
  0009c	df e0		 fnstsw	 ax
  0009e	f6 c4 41	 test	 ah, 65			; 00000041H

; 3783 : 		{
; 3784 : 			return 0;

  000a1	74 10		 je	 SHORT $LN1@IsThirdWin

; 3785 : 		}
; 3786 : 		else if ( (this->m_NewOption&1) == 1 )

  000a3	f6 81 97 00 00
	00 01		 test	 BYTE PTR [ecx+151], 1
  000aa	74 07		 je	 SHORT $LN1@IsThirdWin

; 3787 : 		{
; 3788 : 			return 5;

  000ac	b8 05 00 00 00	 mov	 eax, 5
  000b1	5b		 pop	 ebx

; 3793 : }

  000b2	c3		 ret	 0
$LN1@IsThirdWin:

; 3789 : 		}
; 3790 : 	}
; 3791 : 
; 3792 : 	return 0;

  000b3	33 c0		 xor	 eax, eax
  000b5	5b		 pop	 ebx

; 3793 : }

  000b6	c3		 ret	 0
?IsThirdWingOpGetOnePercentDamage@CItem@@QAEHXZ ENDP	; CItem::IsThirdWingOpGetOnePercentDamage
_TEXT	ENDS
PUBLIC	?SearchEmptySocketSlot@CItem@@QAEEXZ		; CItem::SearchEmptySocketSlot
; Function compile flags: /Ogtp
;	COMDAT ?SearchEmptySocketSlot@CItem@@QAEEXZ
_TEXT	SEGMENT
?SearchEmptySocketSlot@CItem@@QAEEXZ PROC		; CItem::SearchEmptySocketSlot, COMDAT
; _this$ = ecx

; 4312 : 	for (int i = 0; i < 5; i++)

  00000	33 c0		 xor	 eax, eax
  00002	b2 fe		 mov	 dl, 254			; 000000feH
$LL4@SearchEmpt:

; 4313 : 	{
; 4314 : 		if(this->m_SocketOption[i] == 0xFE)

  00004	38 94 01 cc 00
	00 00		 cmp	 BYTE PTR [ecx+eax+204], dl
  0000b	74 09		 je	 SHORT $LN8@SearchEmpt

; 4312 : 	for (int i = 0; i < 5; i++)

  0000d	40		 inc	 eax
  0000e	83 f8 05	 cmp	 eax, 5
  00011	7c f1		 jl	 SHORT $LL4@SearchEmpt

; 4317 : 		}
; 4318 : 	}
; 4319 : 	return 0;

  00013	32 c0		 xor	 al, al

; 4320 : }

  00015	c3		 ret	 0
$LN8@SearchEmpt:

; 4315 : 		{
; 4316 : 			return 1;

  00016	b0 01		 mov	 al, 1

; 4320 : }

  00018	c3		 ret	 0
?SearchEmptySocketSlot@CItem@@QAEEXZ ENDP		; CItem::SearchEmptySocketSlot
_TEXT	ENDS
PUBLIC	?SetSocketOptionSlot@CItem@@QAEEEEE@Z		; CItem::SetSocketOptionSlot
; Function compile flags: /Ogtp
;	COMDAT ?SetSocketOptionSlot@CItem@@QAEEEEE@Z
_TEXT	SEGMENT
_SocketSlot$ = 8					; size = 1
_arg2$ = 12						; size = 1
_arg3$ = 16						; size = 1
?SetSocketOptionSlot@CItem@@QAEEEEE@Z PROC		; CItem::SetSocketOptionSlot, COMDAT
; _this$ = ecx

; 4324 : {

  00000	55		 push	 ebp
  00001	8b ec		 mov	 ebp, esp

; 4325 : 	BYTE loc2 = 0;
; 4326 : 
; 4327 : 	if( SocketSlot < 0 || SocketSlot >= 5)

  00003	8a 45 08	 mov	 al, BYTE PTR _SocketSlot$[ebp]
  00006	3c 05		 cmp	 al, 5
  00008	73 26		 jae	 SHORT $LN2@SetSocketO

; 4333 : 
; 4334 : 	if( this->m_SocketOption[SocketSlot] != 0xFF &&
; 4335 : 		this->m_SocketOption[SocketSlot] == 0xFE)

  0000a	0f b6 c0	 movzx	 eax, al
  0000d	8d 8c 08 cc 00
	00 00		 lea	 ecx, DWORD PTR [eax+ecx+204]
  00014	8a 01		 mov	 al, BYTE PTR [ecx]
  00016	3c ff		 cmp	 al, 255			; 000000ffH
  00018	74 16		 je	 SHORT $LN2@SetSocketO
  0001a	3c fe		 cmp	 al, 254			; 000000feH
  0001c	75 12		 jne	 SHORT $LN2@SetSocketO

; 4330 : 	}
; 4331 : 
; 4332 : 	loc2 = arg3 * 50 + arg2;

  0001e	8a 45 10	 mov	 al, BYTE PTR _arg3$[ebp]
  00021	b2 32		 mov	 dl, 50			; 00000032H
  00023	f6 ea		 imul	 dl
  00025	02 45 0c	 add	 al, BYTE PTR _arg2$[ebp]

; 4336 : 	{
; 4337 : 		this->m_SocketOption[SocketSlot] = loc2;

  00028	88 01		 mov	 BYTE PTR [ecx], al

; 4338 : 		return 1;

  0002a	b0 01		 mov	 al, 1

; 4339 : 	}
; 4340 : 
; 4341 : 	return 0;
; 4342 : }

  0002c	5d		 pop	 ebp
  0002d	c2 0c 00	 ret	 12			; 0000000cH
$LN2@SetSocketO:

; 4328 : 	{
; 4329 : 		return 0;

  00030	32 c0		 xor	 al, al

; 4339 : 	}
; 4340 : 
; 4341 : 	return 0;
; 4342 : }

  00032	5d		 pop	 ebp
  00033	c2 0c 00	 ret	 12			; 0000000cH
?SetSocketOptionSlot@CItem@@QAEEEEE@Z ENDP		; CItem::SetSocketOptionSlot
_TEXT	ENDS
PUBLIC	?DeleteSocketOptionSlot@CItem@@QAEEE@Z		; CItem::DeleteSocketOptionSlot
; Function compile flags: /Ogtp
;	COMDAT ?DeleteSocketOptionSlot@CItem@@QAEEE@Z
_TEXT	SEGMENT
_SocketSlot$ = 8					; size = 1
?DeleteSocketOptionSlot@CItem@@QAEEE@Z PROC		; CItem::DeleteSocketOptionSlot, COMDAT
; _this$ = ecx

; 4346 : {

  00000	55		 push	 ebp
  00001	8b ec		 mov	 ebp, esp

; 4347 : 	if( SocketSlot <= 0 || SocketSlot >= 5)

  00003	8a 45 08	 mov	 al, BYTE PTR _SocketSlot$[ebp]
  00006	8d 50 ff	 lea	 edx, DWORD PTR [eax-1]
  00009	80 fa 03	 cmp	 dl, 3
  0000c	77 1f		 ja	 SHORT $LN2@DeleteSock

; 4350 : 	}
; 4351 : 
; 4352 : 	if( this->m_SocketOption[SocketSlot] != 0xFF &&
; 4353 : 		this->m_SocketOption[SocketSlot] != 0xFE)

  0000e	0f b6 c0	 movzx	 eax, al
  00011	8d 84 08 cc 00
	00 00		 lea	 eax, DWORD PTR [eax+ecx+204]
  00018	8a 08		 mov	 cl, BYTE PTR [eax]
  0001a	80 f9 ff	 cmp	 cl, 255			; 000000ffH
  0001d	74 0e		 je	 SHORT $LN2@DeleteSock
  0001f	80 f9 fe	 cmp	 cl, 254			; 000000feH
  00022	74 09		 je	 SHORT $LN2@DeleteSock

; 4354 : 	{
; 4355 : 		this->m_SocketOption[SocketSlot] = 0xFE;

  00024	c6 00 fe	 mov	 BYTE PTR [eax], 254	; 000000feH

; 4356 : 		return 1;

  00027	b0 01		 mov	 al, 1

; 4357 : 	}
; 4358 : 
; 4359 : 	return 0;
; 4360 : }

  00029	5d		 pop	 ebp
  0002a	c2 04 00	 ret	 4
$LN2@DeleteSock:

; 4348 : 	{
; 4349 : 		return 0;

  0002d	32 c0		 xor	 al, al

; 4357 : 	}
; 4358 : 
; 4359 : 	return 0;
; 4360 : }

  0002f	5d		 pop	 ebp
  00030	c2 04 00	 ret	 4
?DeleteSocketOptionSlot@CItem@@QAEEE@Z ENDP		; CItem::DeleteSocketOptionSlot
_TEXT	ENDS
PUBLIC	?ClearSocketOption@CItem@@QAEXE@Z		; CItem::ClearSocketOption
EXTRN	?IsActive@CSocketOption@@QAEEPAVCItem@@@Z:PROC	; CSocketOption::IsActive
EXTRN	?g_SocketOption@@3VCSocketOption@@A:BYTE	; g_SocketOption
EXTRN	_memset:PROC
; Function compile flags: /Ogtp
;	COMDAT ?ClearSocketOption@CItem@@QAEXE@Z
_TEXT	SEGMENT
_btSocketSlotCount$ = 8					; size = 1
?ClearSocketOption@CItem@@QAEXE@Z PROC			; CItem::ClearSocketOption, COMDAT
; _this$ = ecx

; 4364 : {

  00000	55		 push	 ebp
  00001	8b ec		 mov	 ebp, esp
  00003	56		 push	 esi
  00004	8b f1		 mov	 esi, ecx

; 4365 : 	if(g_SocketOption.IsActive(this) == FALSE)

  00006	56		 push	 esi
  00007	b9 00 00 00 00	 mov	 ecx, OFFSET ?g_SocketOption@@3VCSocketOption@@A ; g_SocketOption
  0000c	e8 00 00 00 00	 call	 ?IsActive@CSocketOption@@QAEEPAVCItem@@@Z ; CSocketOption::IsActive
  00011	84 c0		 test	 al, al
  00013	74 24		 je	 SHORT $LN5@ClearSocke

; 4366 : 	{
; 4367 : 		return;
; 4368 : 	}
; 4369 : 
; 4370 : 	for(int i = 0;i< btSocketSlotCount;i++)

  00015	0f b6 4d 08	 movzx	 ecx, BYTE PTR _btSocketSlotCount$[ebp]
  00019	85 c9		 test	 ecx, ecx
  0001b	7e 15		 jle	 SHORT $LN3@ClearSocke
  0001d	51		 push	 ecx
  0001e	8d 86 cc 00 00
	00		 lea	 eax, DWORD PTR [esi+204]
  00024	68 fe 00 00 00	 push	 254			; 000000feH
  00029	50		 push	 eax
  0002a	e8 00 00 00 00	 call	 _memset
  0002f	83 c4 0c	 add	 esp, 12			; 0000000cH
$LN3@ClearSocke:

; 4371 : 	{
; 4372 : 		this->m_SocketOption[i] = 0xFE;
; 4373 : 	}
; 4374 : 
; 4375 : 	this->m_SocketOptionIndex = 0xFF;

  00032	c6 86 cb 00 00
	00 ff		 mov	 BYTE PTR [esi+203], 255	; 000000ffH
$LN5@ClearSocke:
  00039	5e		 pop	 esi

; 4376 : }

  0003a	5d		 pop	 ebp
  0003b	c2 04 00	 ret	 4
?ClearSocketOption@CItem@@QAEXE@Z ENDP			; CItem::ClearSocketOption
_TEXT	ENDS
PUBLIC	?IsPeriodItem@CItem@@QAE_NXZ			; CItem::IsPeriodItem
; Function compile flags: /Ogtp
;	COMDAT ?IsPeriodItem@CItem@@QAE_NXZ
_TEXT	SEGMENT
?IsPeriodItem@CItem@@QAE_NXZ PROC			; CItem::IsPeriodItem, COMDAT
; _this$ = ecx

; 4381 : #ifdef DEBUG_CODE
; 4382 : 	LogAddC(2,"m_PeriodItemOption: %d",m_PeriodItemOption);
; 4383 : #endif
; 4384 : 	return ((this->m_PeriodItemOption & 1) == 1);

  00000	8a 81 d2 00 00
	00		 mov	 al, BYTE PTR [ecx+210]
  00006	24 01		 and	 al, 1
  00008	33 c9		 xor	 ecx, ecx
  0000a	3c 01		 cmp	 al, 1
  0000c	0f 94 c0	 sete	 al

; 4385 : }

  0000f	c3		 ret	 0
?IsPeriodItem@CItem@@QAE_NXZ ENDP			; CItem::IsPeriodItem
_TEXT	ENDS
PUBLIC	?IsPeriodItemZtpire@CItem@@QAE_NXZ		; CItem::IsPeriodItemZtpire
; Function compile flags: /Ogtp
;	COMDAT ?IsPeriodItemZtpire@CItem@@QAE_NXZ
_TEXT	SEGMENT
?IsPeriodItemZtpire@CItem@@QAE_NXZ PROC			; CItem::IsPeriodItemZtpire, COMDAT
; _this$ = ecx

; 4390 : 	return ((this->m_PeriodItemOption & 2) == 2);

  00000	8a 81 d2 00 00
	00		 mov	 al, BYTE PTR [ecx+210]
  00006	24 02		 and	 al, 2
  00008	33 c9		 xor	 ecx, ecx
  0000a	3c 02		 cmp	 al, 2
  0000c	0f 94 c0	 sete	 al

; 4391 : }

  0000f	c3		 ret	 0
?IsPeriodItemZtpire@CItem@@QAE_NXZ ENDP			; CItem::IsPeriodItemZtpire
_TEXT	ENDS
PUBLIC	?SetPeriodItem@CItem@@QAEXXZ			; CItem::SetPeriodItem
; Function compile flags: /Ogtp
;	COMDAT ?SetPeriodItem@CItem@@QAEXXZ
_TEXT	SEGMENT
?SetPeriodItem@CItem@@QAEXXZ PROC			; CItem::SetPeriodItem, COMDAT
; _this$ = ecx

; 4396 : 	this->m_PeriodItemOption = 1;

  00000	c6 81 d2 00 00
	00 01		 mov	 BYTE PTR [ecx+210], 1

; 4397 : }

  00007	c3		 ret	 0
?SetPeriodItem@CItem@@QAEXXZ ENDP			; CItem::SetPeriodItem
_TEXT	ENDS
PUBLIC	?SetPeriodItemZtpire@CItem@@QAEXXZ		; CItem::SetPeriodItemZtpire
; Function compile flags: /Ogtp
;	COMDAT ?SetPeriodItemZtpire@CItem@@QAEXXZ
_TEXT	SEGMENT
?SetPeriodItemZtpire@CItem@@QAEXXZ PROC			; CItem::SetPeriodItemZtpire, COMDAT
; _this$ = ecx

; 4402 : 	this->m_PeriodItemOption |= 2;
; 4403 : 	this->m_Durability = 0;

  00000	d9 ee		 fldz
  00002	80 89 d2 00 00
	00 02		 or	 BYTE PTR [ecx+210], 2
  00009	d9 59 24	 fstp	 DWORD PTR [ecx+36]

; 4404 : }

  0000c	c3		 ret	 0
?SetPeriodItemZtpire@CItem@@QAEXXZ ENDP			; CItem::SetPeriodItemZtpire
_TEXT	ENDS
PUBLIC	?GetSlot@CItem@@QAEEXZ				; CItem::GetSlot
; Function compile flags: /Ogtp
;	COMDAT ?GetSlot@CItem@@QAEEXZ
_TEXT	SEGMENT
?GetSlot@CItem@@QAEEXZ PROC				; CItem::GetSlot, COMDAT
; _this$ = ecx

; 4462 : 	return ItemAttribute[this->m_Type].ItemSlot;

  00000	0f bf 41 06	 movsx	 eax, WORD PTR [ecx+6]
  00004	6b c0 70	 imul	 eax, 112		; 00000070H
  00007	8a 80 64 00 00
	00		 mov	 al, BYTE PTR ?ItemAttribute@@3PAUITEM_ATTRIBUTE@@A[eax+100]

; 4463 : }

  0000d	c3		 ret	 0
?GetSlot@CItem@@QAEEXZ ENDP				; CItem::GetSlot
_TEXT	ENDS
PUBLIC	?BufferItemtoConvert3@@YAXPAEAAHAAE2222@Z	; BufferItemtoConvert3
; Function compile flags: /Ogtp
;	COMDAT ?BufferItemtoConvert3@@YAXPAEAAHAAE2222@Z
_TEXT	SEGMENT
_buf$ = 8						; size = 4
_type$ = 12						; size = 4
_level$ = 16						; size = 4
_op1$ = 20						; size = 4
_op2$ = 24						; size = 4
_op3$ = 28						; size = 4
_dur$ = 32						; size = 4
?BufferItemtoConvert3@@YAXPAEAAHAAE2222@Z PROC		; BufferItemtoConvert3, COMDAT

; 4466 : {

  00000	55		 push	 ebp
  00001	8b ec		 mov	 ebp, esp

; 4472 : 	dur = buf[2];

  00003	56		 push	 esi

; 4467 : 	type = buf[0] + ((buf[3]&0x80)*2)+((buf[5]&0xF0)<<5);

  00004	8b 45 08	 mov	 eax, DWORD PTR _buf$[ebp]
  00007	0f b6 48 05	 movzx	 ecx, BYTE PTR [eax+5]
  0000b	0f b6 50 03	 movzx	 edx, BYTE PTR [eax+3]
  0000f	81 e1 f0 00 00
	00		 and	 ecx, 240		; 000000f0H
  00015	c1 e1 04	 shl	 ecx, 4
  00018	81 e2 80 00 00
	00		 and	 edx, 128		; 00000080H
  0001e	03 ca		 add	 ecx, edx
  00020	0f b6 10	 movzx	 edx, BYTE PTR [eax]
  00023	8d 0c 4a	 lea	 ecx, DWORD PTR [edx+ecx*2]
  00026	8b 55 0c	 mov	 edx, DWORD PTR _type$[ebp]
  00029	89 0a		 mov	 DWORD PTR [edx], ecx

; 4468 : 	level = (buf[1]>>3) & 15;

  0002b	0f b6 48 01	 movzx	 ecx, BYTE PTR [eax+1]
  0002f	8b 55 10	 mov	 edx, DWORD PTR _level$[ebp]
  00032	c0 e9 03	 shr	 cl, 3
  00035	80 e1 0f	 and	 cl, 15			; 0000000fH
  00038	88 0a		 mov	 BYTE PTR [edx], cl

; 4469 : 	op1 = (buf[1]>>7) & 1;

  0003a	0f b6 48 01	 movzx	 ecx, BYTE PTR [eax+1]
  0003e	8b 55 14	 mov	 edx, DWORD PTR _op1$[ebp]
  00041	c0 e9 07	 shr	 cl, 7
  00044	88 0a		 mov	 BYTE PTR [edx], cl

; 4470 : 	op2 = (buf[1]>>2) & 1;

  00046	0f b6 48 01	 movzx	 ecx, BYTE PTR [eax+1]
  0004a	8b 55 18	 mov	 edx, DWORD PTR _op2$[ebp]
  0004d	c0 e9 02	 shr	 cl, 2
  00050	80 e1 01	 and	 cl, 1
  00053	88 0a		 mov	 BYTE PTR [edx], cl

; 4471 : 	op3 = (buf[1] & 3 );

  00055	0f b6 50 01	 movzx	 edx, BYTE PTR [eax+1]
  00059	8b 4d 1c	 mov	 ecx, DWORD PTR _op3$[ebp]
  0005c	80 e2 03	 and	 dl, 3
  0005f	88 11		 mov	 BYTE PTR [ecx], dl

; 4472 : 	dur = buf[2];

  00061	0f b6 50 02	 movzx	 edx, BYTE PTR [eax+2]
  00065	8b 75 20	 mov	 esi, DWORD PTR _dur$[ebp]
  00068	88 16		 mov	 BYTE PTR [esi], dl

; 4473 : 
; 4474 : 	//if ( type == ITEMGET(13, 3) ) // Dinorant
; 4475 : 	//{
; 4476 : 		op3 |= (buf[3] & 0x40) >> 4;

  0006a	8a 40 03	 mov	 al, BYTE PTR [eax+3]
  0006d	c0 e8 04	 shr	 al, 4
  00070	24 04		 and	 al, 4
  00072	08 01		 or	 BYTE PTR [ecx], al
  00074	5e		 pop	 esi

; 4477 : 	//}
; 4478 : 	//else
; 4479 : 	//{
; 4480 : 	//	if ( (buf[3] & 0x40) == 0x40 )
; 4481 : 	//	{
; 4482 : 	//		op3 = 4;
; 4483 : 	//	}
; 4484 : 	//}
; 4485 : }

  00075	5d		 pop	 ebp
  00076	c3		 ret	 0
?BufferItemtoConvert3@@YAXPAEAAHAAE2222@Z ENDP		; BufferItemtoConvert3
_TEXT	ENDS
PUBLIC	?ItemByteConvert7@@YAXPAEQAVCItem@@H@Z		; ItemByteConvert7
; Function compile flags: /Ogtp
;	COMDAT ?ItemByteConvert7@@YAXPAEQAVCItem@@H@Z
_TEXT	SEGMENT
tv591 = -4						; size = 4
tv589 = -4						; size = 4
_buf$ = 8						; size = 4
_item$ = 12						; size = 4
_maxitem$ = 16						; size = 4
tv594 = 18						; size = 2
?ItemByteConvert7@@YAXPAEQAVCItem@@H@Z PROC		; ItemByteConvert7, COMDAT

; 4488 : {

  00000	55		 push	 ebp
  00001	8b ec		 mov	 ebp, esp
  00003	51		 push	 ecx
  00004	57		 push	 edi

; 4490 : 	WORD hiWord;
; 4491 : 	WORD loWord;
; 4492 : 
; 4493 : 	for ( int index = 0; index < maxitem ; index++ )

  00005	8b 7d 10	 mov	 edi, DWORD PTR _maxitem$[ebp]
  00008	85 ff		 test	 edi, edi
  0000a	0f 8e a6 00 00
	00		 jle	 $LN1@ItemByteCo

; 4489 : 	int n = 0;

  00010	8b 4d 08	 mov	 ecx, DWORD PTR _buf$[ebp]
  00013	53		 push	 ebx
  00014	56		 push	 esi
  00015	8b 75 0c	 mov	 esi, DWORD PTR _item$[ebp]
  00018	83 c6 08	 add	 esi, 8
  0001b	eb 03 8d 49 00	 npad	 5
$LL8@ItemByteCo:

; 4494 : 	{
; 4495 : 		buf[n] = item[index].m_Type;

  00020	0f b6 46 fe	 movzx	 eax, BYTE PTR [esi-2]

; 4496 : 		n++;
; 4497 : 		buf[n] = 0;
; 4498 : 		buf[n] |= item[index].m_Level * 8;
; 4499 : 		buf[n] |= item[index].m_Option1 * 128;
; 4500 : 		buf[n] |= item[index].m_Option2 * 4;
; 4501 : 		buf[n] |= item[index].m_Option3;
; 4502 : 		n++;
; 4503 : 		buf[n] = (BYTE)item[index].m_Durability;

  00024	d9 7d 12	 fnstcw	 WORD PTR tv594[ebp]
  00027	88 01		 mov	 BYTE PTR [ecx], al
  00029	c6 41 01 00	 mov	 BYTE PTR [ecx+1], 0
  0002d	8a 16		 mov	 dl, BYTE PTR [esi]
  0002f	02 d2		 add	 dl, dl
  00031	02 d2		 add	 dl, dl
  00033	02 d2		 add	 dl, dl
  00035	88 51 01	 mov	 BYTE PTR [ecx+1], dl
  00038	8a 86 8c 00 00
	00		 mov	 al, BYTE PTR [esi+140]
  0003e	c0 e0 07	 shl	 al, 7
  00041	0a c2		 or	 al, dl
  00043	88 41 01	 mov	 BYTE PTR [ecx+1], al
  00046	8a 96 8d 00 00
	00		 mov	 dl, BYTE PTR [esi+141]
  0004c	02 d2		 add	 dl, dl
  0004e	02 d2		 add	 dl, dl
  00050	0a d0		 or	 dl, al
  00052	88 51 01	 mov	 BYTE PTR [ecx+1], dl
  00055	0f b6 86 8e 00
	00 00		 movzx	 eax, BYTE PTR [esi+142]
  0005c	0a c2		 or	 al, dl
  0005e	88 41 01	 mov	 BYTE PTR [ecx+1], al
  00061	0f b7 45 12	 movzx	 eax, WORD PTR tv594[ebp]
  00065	d9 46 1c	 fld	 DWORD PTR [esi+28]
  00068	0d 00 0c 00 00	 or	 eax, 3072		; 00000c00H
  0006d	89 45 fc	 mov	 DWORD PTR tv591[ebp], eax

; 4504 : 		n++;
; 4505 : 		hiWord = item[index].m_Number >> 16;
; 4506 : 		loWord = item[index].m_Number & 0xFFFF;
; 4507 : 		buf[n] = SET_NUMBERH(hiWord);
; 4508 : 		n++;
; 4509 : 		buf[n] = SET_NUMBERL(hiWord);
; 4510 : 		n++;
; 4511 : 		buf[n] = SET_NUMBERH(loWord);
; 4512 : 		n++;
; 4513 : 		buf[n] = SET_NUMBERL(loWord);
; 4514 : 		n++;

  00070	83 c1 07	 add	 ecx, 7
  00073	81 c6 d4 00 00
	00		 add	 esi, 212		; 000000d4H
  00079	d9 6d fc	 fldcw	 WORD PTR tv591[ebp]
  0007c	db 5d fc	 fistp	 DWORD PTR tv589[ebp]
  0007f	0f b6 55 fc	 movzx	 edx, BYTE PTR tv589[ebp]
  00083	88 51 fb	 mov	 BYTE PTR [ecx-5], dl
  00086	0f b7 86 26 ff
	ff ff		 movzx	 eax, WORD PTR [esi-218]
  0008d	d9 6d 12	 fldcw	 WORD PTR tv594[ebp]
  00090	0f b7 96 24 ff
	ff ff		 movzx	 edx, WORD PTR [esi-220]
  00097	8b d8		 mov	 ebx, eax
  00099	c1 eb 08	 shr	 ebx, 8
  0009c	88 59 fc	 mov	 BYTE PTR [ecx-4], bl
  0009f	88 41 fd	 mov	 BYTE PTR [ecx-3], al
  000a2	8b c2		 mov	 eax, edx
  000a4	c1 e8 08	 shr	 eax, 8
  000a7	4f		 dec	 edi
  000a8	88 41 fe	 mov	 BYTE PTR [ecx-2], al
  000ab	88 51 ff	 mov	 BYTE PTR [ecx-1], dl
  000ae	0f 85 6c ff ff
	ff		 jne	 $LL8@ItemByteCo
  000b4	5e		 pop	 esi
  000b5	5b		 pop	 ebx
$LN1@ItemByteCo:
  000b6	5f		 pop	 edi

; 4515 : 	}
; 4516 : }

  000b7	8b e5		 mov	 esp, ebp
  000b9	5d		 pop	 ebp
  000ba	c3		 ret	 0
?ItemByteConvert7@@YAXPAEQAVCItem@@H@Z ENDP		; ItemByteConvert7
_TEXT	ENDS
PUBLIC	?ItemByteConvert10@@YAXPAEQAVCItem@@H@Z		; ItemByteConvert10
; Function compile flags: /Ogtp
;	COMDAT ?ItemByteConvert10@@YAXPAEQAVCItem@@H@Z
_TEXT	SEGMENT
tv918 = -8						; size = 4
tv916 = -8						; size = 4
tv232 = -4						; size = 4
_buf$ = 8						; size = 4
_item$ = 12						; size = 4
_maxitem$ = 16						; size = 4
tv922 = 18						; size = 2
?ItemByteConvert10@@YAXPAEQAVCItem@@H@Z PROC		; ItemByteConvert10, COMDAT

; 4519 : {

  00000	55		 push	 ebp
  00001	8b ec		 mov	 ebp, esp

; 4521 : 	WORD hiWord;
; 4522 : 	WORD loWord;
; 4523 : 	int index;
; 4524 : 
; 4525 : 	for (index = 0; index < maxitem ; index++ )

  00003	8b 45 10	 mov	 eax, DWORD PTR _maxitem$[ebp]
  00006	83 ec 08	 sub	 esp, 8
  00009	33 c9		 xor	 ecx, ecx
  0000b	85 c0		 test	 eax, eax
  0000d	0f 8e 50 01 00
	00		 jle	 $LN7@ItemByteCo@2

; 4520 : 	int n = 0;

  00013	53		 push	 ebx
  00014	56		 push	 esi
  00015	8b 75 08	 mov	 esi, DWORD PTR _buf$[ebp]
  00018	57		 push	 edi
  00019	8b 7d 0c	 mov	 edi, DWORD PTR _item$[ebp]
  0001c	89 45 fc	 mov	 DWORD PTR tv232[ebp], eax
  0001f	83 c7 08	 add	 edi, 8
  00022	b8 ff 00 00 00	 mov	 eax, 255		; 000000ffH
  00027	eb 07 8d a4 24
	00 00 00 00	 npad	 9
$LL9@ItemByteCo@2:

; 4526 : 	{
; 4527 : 		if ( item[index].m_Type == ITEMGET(13,19) )

  00030	0f b7 57 fe	 movzx	 edx, WORD PTR [edi-2]
  00034	bb 13 1a 00 00	 mov	 ebx, 6675		; 00001a13H
  00039	66 3b d3	 cmp	 dx, bx
  0003c	75 35		 jne	 SHORT $LN16@ItemByteCo@2

; 4528 : 		{
; 4529 : 			if ( (item[index].m_Level < 0)? FALSE : ( item[index].m_Level > 2)? FALSE : TRUE  )

  0003e	0f b7 17	 movzx	 edx, WORD PTR [edi]
  00041	66 85 d2	 test	 dx, dx
  00044	78 2d		 js	 SHORT $LN16@ItemByteCo@2
  00046	33 db		 xor	 ebx, ebx
  00048	66 83 fa 02	 cmp	 dx, 2
  0004c	0f 9e c3	 setle	 bl
  0004f	8b d3		 mov	 edx, ebx
  00051	85 d2		 test	 edx, edx
  00053	74 1e		 je	 SHORT $LN16@ItemByteCo@2
$LN18@ItemByteCo@2:

; 4530 : 			{
; 4531 : 				buf[n] = -1;

  00055	c7 04 31 ff ff
	ff ff		 mov	 DWORD PTR [ecx+esi], -1

; 4532 : 				buf[n+1] = -1;
; 4533 : 				buf[n+2] = -1;
; 4534 : 				buf[n+3] = -1;
; 4535 : 				buf[n+4] = -1;

  0005c	c7 44 31 04 ff
	ff ff ff	 mov	 DWORD PTR [ecx+esi+4], -1

; 4536 : 				buf[n+5] = -1;
; 4537 : 				buf[n+6] = -1;
; 4538 : 				buf[n+7] = -1;
; 4539 : 				buf[n+8] = -1;

  00064	66 c7 44 31 08
	ff ff		 mov	 WORD PTR [ecx+esi+8], 65535 ; 0000ffffH

; 4540 : 				buf[n+9] = -1;
; 4541 : 				n += 16;

  0006b	83 c1 10	 add	 ecx, 16			; 00000010H

; 4542 : 				continue;

  0006e	e9 de 00 00 00	 jmp	 $LN8@ItemByteCo@2
$LN16@ItemByteCo@2:

; 4543 : 			}
; 4544 : 		}
; 4545 : 		
; 4546 : 		if ( item[index].m_Type <  0 )

  00073	0f b7 57 fe	 movzx	 edx, WORD PTR [edi-2]
  00077	66 85 d2	 test	 dx, dx

; 4547 : 		{
; 4548 : 			buf[n] = -1;
; 4549 : 			buf[n+1] = -1;
; 4550 : 			buf[n+2] = -1;
; 4551 : 			buf[n+3] = -1;
; 4552 : 			buf[n+4] = -1;
; 4553 : 			buf[n+5] = -1;
; 4554 : 			buf[n+6] = -1;
; 4555 : 			buf[n+7] = -1;
; 4556 : 			buf[n+8] = -1;
; 4557 : 			buf[n+9] = -1;
; 4558 : 			n += 16;
; 4559 : 		}
; 4560 : 		else

  0007a	78 d9		 js	 SHORT $LN18@ItemByteCo@2

; 4561 : 		{
; 4562 : 			buf[n] = (BYTE)item[index].m_Type % 256 ;

  0007c	0f b6 47 fe	 movzx	 eax, BYTE PTR [edi-2]
  00080	25 ff 00 00 80	 and	 eax, -2147483393	; 800000ffH
  00085	79 07		 jns	 SHORT $LN17@ItemByteCo@2
  00087	48		 dec	 eax
  00088	0d 00 ff ff ff	 or	 eax, -256		; ffffff00H
  0008d	40		 inc	 eax
$LN17@ItemByteCo@2:
  0008e	88 04 31	 mov	 BYTE PTR [ecx+esi], al

; 4563 : 			n++;
; 4564 : 			buf[n] = 0;
; 4565 : 			buf[n] |= item[index].m_Level * 8;
; 4566 : 			buf[n] |= item[index].m_Option1 * 128;
; 4567 : 			buf[n] |= item[index].m_Option2 * 4;
; 4568 : 			buf[n] |= item[index].m_Option3 & 3;
; 4569 : 			n++;
; 4570 : 			buf[n] = (BYTE)item[index].m_Durability;

  00091	d9 7d 12	 fnstcw	 WORD PTR tv922[ebp]
  00094	c6 44 31 01 00	 mov	 BYTE PTR [ecx+esi+1], 0
  00099	8a 17		 mov	 dl, BYTE PTR [edi]
  0009b	02 d2		 add	 dl, dl
  0009d	02 d2		 add	 dl, dl
  0009f	02 d2		 add	 dl, dl
  000a1	88 54 31 01	 mov	 BYTE PTR [ecx+esi+1], dl
  000a5	8a 87 8c 00 00
	00		 mov	 al, BYTE PTR [edi+140]
  000ab	c0 e0 07	 shl	 al, 7
  000ae	0a c2		 or	 al, dl
  000b0	88 44 31 01	 mov	 BYTE PTR [ecx+esi+1], al
  000b4	8a 97 8d 00 00
	00		 mov	 dl, BYTE PTR [edi+141]
  000ba	02 d2		 add	 dl, dl
  000bc	02 d2		 add	 dl, dl
  000be	0a d0		 or	 dl, al
  000c0	88 54 31 01	 mov	 BYTE PTR [ecx+esi+1], dl
  000c4	0f b6 87 8e 00
	00 00		 movzx	 eax, BYTE PTR [edi+142]
  000cb	24 03		 and	 al, 3
  000cd	0a c2		 or	 al, dl
  000cf	88 44 31 01	 mov	 BYTE PTR [ecx+esi+1], al
  000d3	0f b7 45 12	 movzx	 eax, WORD PTR tv922[ebp]
  000d7	d9 47 1c	 fld	 DWORD PTR [edi+28]
  000da	0d 00 0c 00 00	 or	 eax, 3072		; 00000c00H
  000df	89 45 f8	 mov	 DWORD PTR tv918[ebp], eax
  000e2	d9 6d f8	 fldcw	 WORD PTR tv918[ebp]
  000e5	db 5d f8	 fistp	 DWORD PTR tv916[ebp]
  000e8	0f b6 55 f8	 movzx	 edx, BYTE PTR tv916[ebp]
  000ec	88 54 31 02	 mov	 BYTE PTR [ecx+esi+2], dl

; 4571 : 			n++;
; 4572 : 			hiWord = item[index].m_Number >> 16;

  000f0	0f b7 47 fa	 movzx	 eax, WORD PTR [edi-6]
  000f4	d9 6d 12	 fldcw	 WORD PTR tv922[ebp]

; 4573 : 			loWord = item[index].m_Number  & 0xFFFF;

  000f7	0f b7 57 f8	 movzx	 edx, WORD PTR [edi-8]

; 4574 : 			buf[n] = SET_NUMBERH(hiWord);

  000fb	8b d8		 mov	 ebx, eax
  000fd	c1 eb 08	 shr	 ebx, 8
  00100	88 5c 31 03	 mov	 BYTE PTR [ecx+esi+3], bl

; 4575 : 			n++;
; 4576 : 			buf[n] = SET_NUMBERL(hiWord);

  00104	88 44 31 04	 mov	 BYTE PTR [ecx+esi+4], al

; 4577 : 			n++;
; 4578 : 			buf[n] = SET_NUMBERH(loWord);

  00108	8b c2		 mov	 eax, edx
  0010a	c1 e8 08	 shr	 eax, 8
  0010d	88 44 31 05	 mov	 BYTE PTR [ecx+esi+5], al

; 4579 : 			n++;
; 4580 : 			buf[n] = SET_NUMBERL(loWord);

  00111	88 54 31 06	 mov	 BYTE PTR [ecx+esi+6], dl

; 4581 : 			n++;
; 4582 : 			buf[n] = 0;
; 4583 : 
; 4584 : 			if ( item[index].m_Type > 255 )

  00115	b8 ff 00 00 00	 mov	 eax, 255		; 000000ffH
  0011a	c6 44 31 07 00	 mov	 BYTE PTR [ecx+esi+7], 0
  0011f	66 39 47 fe	 cmp	 WORD PTR [edi-2], ax
  00123	7e 05		 jle	 SHORT $LN2@ItemByteCo@2

; 4585 : 			{
; 4586 : 				buf[n] = 0x80;	// Second Type of Item

  00125	c6 44 31 07 80	 mov	 BYTE PTR [ecx+esi+7], 128 ; 00000080H
$LN2@ItemByteCo@2:

; 4587 : 			}
; 4588 : 
; 4589 : 			if ( item[index].m_Option3 > 3 )

  0012a	80 bf 8e 00 00
	00 03		 cmp	 BYTE PTR [edi+142], 3
  00131	76 05		 jbe	 SHORT $LN1@ItemByteCo@2

; 4590 : 			{
; 4591 : 				buf[n] |= 0x40;	// Duration ???

  00133	80 4c 31 07 40	 or	 BYTE PTR [ecx+esi+7], 64 ; 00000040H
$LN1@ItemByteCo@2:

; 4592 : 			}
; 4593 : 
; 4594 : 			buf[n] |= item[index].m_NewOption;

  00138	0f b6 97 8f 00
	00 00		 movzx	 edx, BYTE PTR [edi+143]
  0013f	08 54 31 07	 or	 BYTE PTR [ecx+esi+7], dl

; 4595 : 			n++;
; 4596 : 			buf[n] = item[index].m_SetOption;

  00143	0f b6 97 a6 00
	00 00		 movzx	 edx, BYTE PTR [edi+166]
  0014a	88 54 31 08	 mov	 BYTE PTR [ecx+esi+8], dl

; 4597 : 			n++;
; 4598 : 			n++;

  0014e	83 c1 0a	 add	 ecx, 10			; 0000000aH
$LN8@ItemByteCo@2:

; 4521 : 	WORD hiWord;
; 4522 : 	WORD loWord;
; 4523 : 	int index;
; 4524 : 
; 4525 : 	for (index = 0; index < maxitem ; index++ )

  00151	81 c7 d4 00 00
	00		 add	 edi, 212		; 000000d4H
  00157	ff 4d fc	 dec	 DWORD PTR tv232[ebp]
  0015a	0f 85 d0 fe ff
	ff		 jne	 $LL9@ItemByteCo@2
  00160	5f		 pop	 edi
  00161	5e		 pop	 esi
  00162	5b		 pop	 ebx
$LN7@ItemByteCo@2:

; 4599 : 		}
; 4600 : 	}
; 4601 : }

  00163	8b e5		 mov	 esp, ebp
  00165	5d		 pop	 ebp
  00166	c3		 ret	 0
?ItemByteConvert10@@YAXPAEQAVCItem@@H@Z ENDP		; ItemByteConvert10
_TEXT	ENDS
PUBLIC	?ItemByteConvert@@YAXPAEVCItem@@@Z		; ItemByteConvert
EXTRN	?IsSocketOption@CSocketOption@@QAEEPAVCItem@@@Z:PROC ; CSocketOption::IsSocketOption
; Function compile flags: /Ogtp
;	COMDAT ?ItemByteConvert@@YAXPAEVCItem@@@Z
_TEXT	SEGMENT
tv496 = -8						; size = 4
tv494 = -8						; size = 4
tv499 = -2						; size = 2
_buf$ = 8						; size = 4
_item$ = 12						; size = 212
?ItemByteConvert@@YAXPAEVCItem@@@Z PROC			; ItemByteConvert, COMDAT

; 4677 : {

  00000	55		 push	 ebp
  00001	8b ec		 mov	 ebp, esp
  00003	83 ec 08	 sub	 esp, 8

; 4678 : 	int n=0;
; 4679 : 
; 4680 : 	memset(buf, 0, MAX_ITEM_INFO);
; 4681 : 	buf[n] = item.m_Type & 0xFF;
; 4682 : 	n++;	//1
; 4683 : 	buf[n] = 0;
; 4684 : 	buf[n] |= item.m_Level * 8;
; 4685 : 	buf[n] |= item.m_Option1 * 128;

  00006	8a 95 a0 00 00
	00		 mov	 dl, BYTE PTR _item$[ebp+148]

; 4686 : 	buf[n] |= item.m_Option2 * 4;
; 4687 : 	buf[n] |= item.m_Option3 & 3;
; 4688 : 	n++;	//2
; 4689 : 	buf[n] = (BYTE)item.m_Durability;

  0000c	d9 45 30	 fld	 DWORD PTR _item$[ebp+36]
  0000f	33 c0		 xor	 eax, eax
  00011	d9 7d fe	 fnstcw	 WORD PTR tv499[ebp]
  00014	53		 push	 ebx
  00015	8b 4d 10	 mov	 ecx, DWORD PTR _item$[ebp+4]
  00018	56		 push	 esi
  00019	8b 75 08	 mov	 esi, DWORD PTR _buf$[ebp]
  0001c	89 06		 mov	 DWORD PTR [esi], eax
  0001e	89 46 04	 mov	 DWORD PTR [esi+4], eax
  00021	89 46 08	 mov	 DWORD PTR [esi+8], eax
  00024	8a 45 14	 mov	 al, BYTE PTR _item$[ebp+8]
  00027	02 c0		 add	 al, al
  00029	02 c0		 add	 al, al
  0002b	02 c0		 add	 al, al
  0002d	c0 e2 07	 shl	 dl, 7
  00030	0a c2		 or	 al, dl
  00032	8a 95 a2 00 00
	00		 mov	 dl, BYTE PTR _item$[ebp+150]
  00038	8a da		 mov	 bl, dl
  0003a	80 e3 03	 and	 bl, 3
  0003d	0a c3		 or	 al, bl
  0003f	8a 9d a1 00 00
	00		 mov	 bl, BYTE PTR _item$[ebp+149]
  00045	02 db		 add	 bl, bl
  00047	c1 e9 10	 shr	 ecx, 16			; 00000010H
  0004a	02 db		 add	 bl, bl
  0004c	0a c3		 or	 al, bl
  0004e	88 0e		 mov	 BYTE PTR [esi], cl
  00050	88 46 01	 mov	 BYTE PTR [esi+1], al
  00053	0f b7 45 fe	 movzx	 eax, WORD PTR tv499[ebp]
  00057	0d 00 0c 00 00	 or	 eax, 3072		; 00000c00H
  0005c	89 45 f8	 mov	 DWORD PTR tv496[ebp], eax
  0005f	d9 6d f8	 fldcw	 WORD PTR tv496[ebp]
  00062	db 5d f8	 fistp	 DWORD PTR tv494[ebp]
  00065	0f b6 45 f8	 movzx	 eax, BYTE PTR tv494[ebp]
  00069	88 46 02	 mov	 BYTE PTR [esi+2], al

; 4690 : 	n++;	//3
; 4691 : 	buf[n] = 0;
; 4692 : 	buf[n] |= ((item.m_Type & 0x100) >> 1);

  0006c	8b c1		 mov	 eax, ecx
  0006e	d9 6d fe	 fldcw	 WORD PTR tv499[ebp]
  00071	d1 f8		 sar	 eax, 1
  00073	24 80		 and	 al, 128			; 00000080H
  00075	88 46 03	 mov	 BYTE PTR [esi+3], al

; 4693 : 
; 4694 : 	if ( item.m_Option3 > 3 )

  00078	80 fa 03	 cmp	 dl, 3
  0007b	76 05		 jbe	 SHORT $LN2@ItemByteCo@3

; 4695 : 	{
; 4696 : 		buf[n] |= 0x40; // item +16 option

  0007d	0c 40		 or	 al, 64			; 00000040H
  0007f	88 46 03	 mov	 BYTE PTR [esi+3], al
$LN2@ItemByteCo@3:

; 4697 : 	}
; 4698 : 
; 4699 : 	buf[n] |= item.m_NewOption;

  00082	8a 95 a3 00 00
	00		 mov	 dl, BYTE PTR _item$[ebp+151]
  00088	08 56 03	 or	 BYTE PTR [esi+3], dl

; 4700 : 	n++;	//4
; 4701 : 	buf[n] = item.m_SetOption;
; 4702 : 	n++;	//5
; 4703 : 	buf[n] |= (item.m_Type & 0x1E00 ) >> 5;
; 4704 : 
; 4705 : 	BYTE btItemEffectFor380 = 0;
; 4706 : 	btItemEffectFor380 = (item.m_ItemOptionEx & 0x80 ) >> 4;
; 4707 : 	buf[n] |= btItemEffectFor380;
; 4708 : 	
; 4709 : #ifdef PERIOD
; 4710 : 	BYTE btPartialyChargeOption = 0;
; 4711 : 	btPartialyChargeOption = item.m_PeriodItemOption << 1;
; 4712 : 	buf[n] |= btPartialyChargeOption;

  0008b	8a 95 d6 00 00
	00		 mov	 dl, BYTE PTR _item$[ebp+202]
  00091	8a 85 ba 00 00
	00		 mov	 al, BYTE PTR _item$[ebp+174]
  00097	c1 f9 05	 sar	 ecx, 5
  0009a	88 46 04	 mov	 BYTE PTR [esi+4], al
  0009d	8a 85 de 00 00
	00		 mov	 al, BYTE PTR _item$[ebp+210]
  000a3	80 e1 f0	 and	 cl, 240			; 000000f0H
  000a6	c0 ea 04	 shr	 dl, 4
  000a9	80 e2 08	 and	 dl, 8
  000ac	0a ca		 or	 cl, dl
  000ae	02 c0		 add	 al, al
  000b0	0a c8		 or	 cl, al
  000b2	08 4e 05	 or	 BYTE PTR [esi+5], cl

; 4713 : #endif
; 4714 : 	n++; //6
; 4715 : 	buf[n] = item.m_JewelOfHarmonyOption;

  000b5	8a 8d d0 00 00
	00		 mov	 cl, BYTE PTR _item$[ebp+196]

; 4716 : 
; 4717 : 	//Season4 Socket add-on
; 4718 : 	if(g_SocketOption.IsSocketOption(&item) == 1){buf[n] = item.m_SocketOptionIndex;}

  000bb	8d 55 0c	 lea	 edx, DWORD PTR _item$[ebp]
  000be	88 4e 06	 mov	 BYTE PTR [esi+6], cl
  000c1	52		 push	 edx
  000c2	b9 00 00 00 00	 mov	 ecx, OFFSET ?g_SocketOption@@3VCSocketOption@@A ; g_SocketOption
  000c7	e8 00 00 00 00	 call	 ?IsSocketOption@CSocketOption@@QAEEPAVCItem@@@Z ; CSocketOption::IsSocketOption
  000cc	3c 01		 cmp	 al, 1
  000ce	75 09		 jne	 SHORT $LN1@ItemByteCo@3
  000d0	8a 85 d7 00 00
	00		 mov	 al, BYTE PTR _item$[ebp+203]
  000d6	88 46 06	 mov	 BYTE PTR [esi+6], al
$LN1@ItemByteCo@3:

; 4719 : 	n++;	//7
; 4720 : 
; 4721 : 	buf[n] = item.m_SocketOption[0];

  000d9	8a 8d d8 00 00
	00		 mov	 cl, BYTE PTR _item$[ebp+204]

; 4722 : 	n++;
; 4723 : 
; 4724 : 	buf[n] = item.m_SocketOption[1];

  000df	8a 95 d9 00 00
	00		 mov	 dl, BYTE PTR _item$[ebp+205]

; 4725 : 	n++;
; 4726 : 
; 4727 : 	buf[n] = item.m_SocketOption[2];

  000e5	8a 85 da 00 00
	00		 mov	 al, BYTE PTR _item$[ebp+206]
  000eb	88 4e 07	 mov	 BYTE PTR [esi+7], cl

; 4728 : 	n++;
; 4729 : 
; 4730 : 	buf[n] = item.m_SocketOption[3];

  000ee	8a 8d db 00 00
	00		 mov	 cl, BYTE PTR _item$[ebp+207]
  000f4	88 56 08	 mov	 BYTE PTR [esi+8], dl

; 4731 : 	n++;
; 4732 : 
; 4733 : 	buf[n] = item.m_SocketOption[4];

  000f7	8a 95 dc 00 00
	00		 mov	 dl, BYTE PTR _item$[ebp+208]
  000fd	88 46 09	 mov	 BYTE PTR [esi+9], al
  00100	88 4e 0a	 mov	 BYTE PTR [esi+10], cl
  00103	88 56 0b	 mov	 BYTE PTR [esi+11], dl
  00106	5e		 pop	 esi
  00107	5b		 pop	 ebx

; 4734 : }

  00108	8b e5		 mov	 esp, ebp
  0010a	5d		 pop	 ebp
  0010b	c3		 ret	 0
?ItemByteConvert@@YAXPAEVCItem@@@Z ENDP			; ItemByteConvert
_TEXT	ENDS
PUBLIC	?ItemByteConvertEx@@YAXPAEVCItem@@@Z		; ItemByteConvertEx
; Function compile flags: /Ogtp
;	COMDAT ?ItemByteConvertEx@@YAXPAEVCItem@@@Z
_TEXT	SEGMENT
tv496 = -8						; size = 4
tv494 = -8						; size = 4
tv499 = -2						; size = 2
_buf$ = 8						; size = 4
_item$ = 12						; size = 212
?ItemByteConvertEx@@YAXPAEVCItem@@@Z PROC		; ItemByteConvertEx, COMDAT

; 4740 : {

  00000	55		 push	 ebp
  00001	8b ec		 mov	 ebp, esp
  00003	83 ec 08	 sub	 esp, 8

; 4741 : 	int n=0;
; 4742 : 
; 4743 : 	memset(buf, 0, MAX_ITEM_INFO);
; 4744 : 	buf[n] = item.m_Type & 0xFF;
; 4745 : 	n++;	//1
; 4746 : 	buf[n] = 0;
; 4747 : 	buf[n] |= item.m_Level * 8;
; 4748 : 	buf[n] |= item.m_Option1 * 128;

  00006	8a 95 a0 00 00
	00		 mov	 dl, BYTE PTR _item$[ebp+148]

; 4749 : 	buf[n] |= item.m_Option2 * 4;
; 4750 : 	buf[n] |= item.m_Option3 & 3;
; 4751 : 	n++;	//2
; 4752 : 	buf[n] = (BYTE)item.m_Durability;

  0000c	d9 45 30	 fld	 DWORD PTR _item$[ebp+36]
  0000f	33 c0		 xor	 eax, eax
  00011	d9 7d fe	 fnstcw	 WORD PTR tv499[ebp]
  00014	53		 push	 ebx
  00015	8b 4d 10	 mov	 ecx, DWORD PTR _item$[ebp+4]
  00018	56		 push	 esi
  00019	8b 75 08	 mov	 esi, DWORD PTR _buf$[ebp]
  0001c	89 06		 mov	 DWORD PTR [esi], eax
  0001e	89 46 04	 mov	 DWORD PTR [esi+4], eax
  00021	89 46 08	 mov	 DWORD PTR [esi+8], eax
  00024	8a 45 14	 mov	 al, BYTE PTR _item$[ebp+8]
  00027	02 c0		 add	 al, al
  00029	02 c0		 add	 al, al
  0002b	02 c0		 add	 al, al
  0002d	c0 e2 07	 shl	 dl, 7
  00030	0a c2		 or	 al, dl
  00032	8a 95 a2 00 00
	00		 mov	 dl, BYTE PTR _item$[ebp+150]
  00038	8a da		 mov	 bl, dl
  0003a	80 e3 03	 and	 bl, 3
  0003d	0a c3		 or	 al, bl
  0003f	8a 9d a1 00 00
	00		 mov	 bl, BYTE PTR _item$[ebp+149]
  00045	02 db		 add	 bl, bl
  00047	c1 e9 10	 shr	 ecx, 16			; 00000010H
  0004a	02 db		 add	 bl, bl
  0004c	0a c3		 or	 al, bl
  0004e	88 0e		 mov	 BYTE PTR [esi], cl
  00050	88 46 01	 mov	 BYTE PTR [esi+1], al
  00053	0f b7 45 fe	 movzx	 eax, WORD PTR tv499[ebp]
  00057	0d 00 0c 00 00	 or	 eax, 3072		; 00000c00H
  0005c	89 45 f8	 mov	 DWORD PTR tv496[ebp], eax
  0005f	d9 6d f8	 fldcw	 WORD PTR tv496[ebp]
  00062	db 5d f8	 fistp	 DWORD PTR tv494[ebp]
  00065	0f b6 45 f8	 movzx	 eax, BYTE PTR tv494[ebp]
  00069	88 46 02	 mov	 BYTE PTR [esi+2], al

; 4753 : 	n++;	//3
; 4754 : 	buf[n] = 0;
; 4755 : 	buf[n] |= ((item.m_Type & 0x100) >> 1);

  0006c	8b c1		 mov	 eax, ecx
  0006e	d9 6d fe	 fldcw	 WORD PTR tv499[ebp]
  00071	d1 f8		 sar	 eax, 1
  00073	24 80		 and	 al, 128			; 00000080H
  00075	88 46 03	 mov	 BYTE PTR [esi+3], al

; 4756 : 
; 4757 : 	if ( item.m_Option3 > 3 )

  00078	80 fa 03	 cmp	 dl, 3
  0007b	76 05		 jbe	 SHORT $LN2@ItemByteCo@4

; 4758 : 	{
; 4759 : 		buf[n] |= 0x40; // item +16 option

  0007d	0c 40		 or	 al, 64			; 00000040H
  0007f	88 46 03	 mov	 BYTE PTR [esi+3], al
$LN2@ItemByteCo@4:

; 4760 : 	}
; 4761 : 
; 4762 : 	buf[n] |= item.m_NewOption;

  00082	8a 95 a3 00 00
	00		 mov	 dl, BYTE PTR _item$[ebp+151]
  00088	08 56 03	 or	 BYTE PTR [esi+3], dl

; 4763 : 	n++;	//4
; 4764 : 	buf[n] = item.m_SetOption;
; 4765 : 	n++;	//5
; 4766 : 	buf[n] |= (item.m_Type & 0x1E00 ) >> 5;
; 4767 : 
; 4768 : 	BYTE btItemEffectFor380 = 0;
; 4769 : 	btItemEffectFor380 = (item.m_ItemOptionEx & 0x80 ) >> 4;
; 4770 : 	buf[n] |= btItemEffectFor380;
; 4771 : 	
; 4772 : #ifdef PERIOD
; 4773 : 	BYTE btPartialyChargeOption = 0;
; 4774 : 	btPartialyChargeOption = item.m_PeriodItemOption << 1;
; 4775 : 	buf[n] |= btPartialyChargeOption;

  0008b	8a 95 d6 00 00
	00		 mov	 dl, BYTE PTR _item$[ebp+202]
  00091	8a 85 ba 00 00
	00		 mov	 al, BYTE PTR _item$[ebp+174]
  00097	c1 f9 05	 sar	 ecx, 5
  0009a	88 46 04	 mov	 BYTE PTR [esi+4], al
  0009d	8a 85 de 00 00
	00		 mov	 al, BYTE PTR _item$[ebp+210]
  000a3	80 e1 f0	 and	 cl, 240			; 000000f0H
  000a6	c0 ea 04	 shr	 dl, 4
  000a9	80 e2 08	 and	 dl, 8
  000ac	0a ca		 or	 cl, dl
  000ae	02 c0		 add	 al, al
  000b0	0a c8		 or	 cl, al
  000b2	08 4e 05	 or	 BYTE PTR [esi+5], cl

; 4776 : #endif
; 4777 : 	n++; //6
; 4778 : 	buf[n] = item.m_JewelOfHarmonyOption;

  000b5	8a 8d d0 00 00
	00		 mov	 cl, BYTE PTR _item$[ebp+196]

; 4779 : 
; 4780 : 	//Season4 Socket add-on
; 4781 : 	if(g_SocketOption.IsSocketOption(&item) == 1){buf[n] = item.m_SocketOptionIndex;}

  000bb	8d 55 0c	 lea	 edx, DWORD PTR _item$[ebp]
  000be	88 4e 06	 mov	 BYTE PTR [esi+6], cl
  000c1	52		 push	 edx
  000c2	b9 00 00 00 00	 mov	 ecx, OFFSET ?g_SocketOption@@3VCSocketOption@@A ; g_SocketOption
  000c7	e8 00 00 00 00	 call	 ?IsSocketOption@CSocketOption@@QAEEPAVCItem@@@Z ; CSocketOption::IsSocketOption
  000cc	3c 01		 cmp	 al, 1
  000ce	75 09		 jne	 SHORT $LN1@ItemByteCo@4
  000d0	8a 85 d7 00 00
	00		 mov	 al, BYTE PTR _item$[ebp+203]
  000d6	88 46 06	 mov	 BYTE PTR [esi+6], al
$LN1@ItemByteCo@4:

; 4782 : 	n++;	//7
; 4783 : 
; 4784 : 	buf[n] = item.m_SocketOption[0];

  000d9	8a 8d d8 00 00
	00		 mov	 cl, BYTE PTR _item$[ebp+204]

; 4785 : 	n++;
; 4786 : 
; 4787 : 	buf[n] = item.m_SocketOption[1];

  000df	8a 95 d9 00 00
	00		 mov	 dl, BYTE PTR _item$[ebp+205]

; 4788 : 	n++;
; 4789 : 
; 4790 : 	buf[n] = item.m_SocketOption[2];

  000e5	8a 85 da 00 00
	00		 mov	 al, BYTE PTR _item$[ebp+206]
  000eb	88 4e 07	 mov	 BYTE PTR [esi+7], cl

; 4791 : 	n++;
; 4792 : 
; 4793 : 	buf[n] = item.m_SocketOption[3];

  000ee	8a 8d db 00 00
	00		 mov	 cl, BYTE PTR _item$[ebp+207]
  000f4	88 56 08	 mov	 BYTE PTR [esi+8], dl

; 4794 : 	n++;
; 4795 : 
; 4796 : 	buf[n] = item.m_SocketOption[4];

  000f7	8a 95 dc 00 00
	00		 mov	 dl, BYTE PTR _item$[ebp+208]
  000fd	88 46 09	 mov	 BYTE PTR [esi+9], al
  00100	88 4e 0a	 mov	 BYTE PTR [esi+10], cl
  00103	88 56 0b	 mov	 BYTE PTR [esi+11], dl
  00106	5e		 pop	 esi
  00107	5b		 pop	 ebx

; 4797 : }

  00108	8b e5		 mov	 esp, ebp
  0010a	5d		 pop	 ebp
  0010b	c3		 ret	 0
?ItemByteConvertEx@@YAXPAEVCItem@@@Z ENDP		; ItemByteConvertEx
_TEXT	ENDS
PUBLIC	?ItemByteConvert@@YAXPAEHEEEEEEEEEQAEEE@Z	; ItemByteConvert
; Function compile flags: /Ogtp
;	COMDAT ?ItemByteConvert@@YAXPAEHEEEEEEEEEQAEEE@Z
_TEXT	SEGMENT
_buf$ = 8						; size = 4
_type$ = 12						; size = 4
_Option1$ = 16						; size = 1
_Option2$ = 20						; size = 1
_Option3$ = 24						; size = 1
_level$ = 28						; size = 1
_dur$ = 32						; size = 1
_Noption$ = 36						; size = 1
_SetOption$ = 40					; size = 1
_JewelOfHarmonyOption$ = 44				; size = 1
_ItemEffectEx$ = 48					; size = 1
_SocketOption$ = 52					; size = 4
_SocketIndex$ = 56					; size = 1
_PeriodItemOption$ = 60					; size = 1
?ItemByteConvert@@YAXPAEHEEEEEEEEEQAEEE@Z PROC		; ItemByteConvert, COMDAT

; 4800 : {

  00000	55		 push	 ebp
  00001	8b ec		 mov	 ebp, esp

; 4801 : 
; 4802 : 	memset(buf, 0, MAX_ITEM_INFO);
; 4803 : 	int n = 0;
; 4804 : 
; 4805 : 	buf[n] = type & 0xFF;
; 4806 : 	n++;
; 4807 : 	buf[n] = 0;
; 4808 : 	buf[n] |= level * 8;
; 4809 : 	buf[n] |= Option1 * 128;

  00003	8a 55 10	 mov	 dl, BYTE PTR _Option1$[ebp]
  00006	8b 45 08	 mov	 eax, DWORD PTR _buf$[ebp]
  00009	53		 push	 ebx

; 4810 : 	buf[n] |= Option2 * 4;

  0000a	8a 5d 14	 mov	 bl, BYTE PTR _Option2$[ebp]
  0000d	02 db		 add	 bl, bl
  0000f	02 db		 add	 bl, bl
  00011	c0 e2 07	 shl	 dl, 7

; 4811 : 	buf[n] |= Option3 & 3;

  00014	0a d3		 or	 dl, bl
  00016	8a 5d 18	 mov	 bl, BYTE PTR _Option3$[ebp]
  00019	80 e3 03	 and	 bl, 3
  0001c	0a d3		 or	 dl, bl
  0001e	8a 5d 1c	 mov	 bl, BYTE PTR _level$[ebp]
  00021	33 c9		 xor	 ecx, ecx
  00023	89 08		 mov	 DWORD PTR [eax], ecx
  00025	02 db		 add	 bl, bl
  00027	89 48 04	 mov	 DWORD PTR [eax+4], ecx
  0002a	89 48 08	 mov	 DWORD PTR [eax+8], ecx
  0002d	8b 4d 0c	 mov	 ecx, DWORD PTR _type$[ebp]
  00030	02 db		 add	 bl, bl
  00032	02 db		 add	 bl, bl
  00034	0a d3		 or	 dl, bl
  00036	88 08		 mov	 BYTE PTR [eax], cl
  00038	88 50 01	 mov	 BYTE PTR [eax+1], dl

; 4812 : 	n++;
; 4813 : 	buf[n] = dur;

  0003b	8a 55 20	 mov	 dl, BYTE PTR _dur$[ebp]
  0003e	88 50 02	 mov	 BYTE PTR [eax+2], dl

; 4814 : 	n++;
; 4815 : 	buf[n] = 0;
; 4816 : 	buf[n] |= ((type& 0x100) >> 1);

  00041	8b d1		 mov	 edx, ecx
  00043	d1 fa		 sar	 edx, 1
  00045	80 e2 80	 and	 dl, 128			; 00000080H

; 4817 : 
; 4818 : 	if ( Option3 > 3 )

  00048	80 7d 18 03	 cmp	 BYTE PTR _Option3$[ebp], 3
  0004c	88 50 03	 mov	 BYTE PTR [eax+3], dl
  0004f	5b		 pop	 ebx
  00050	76 06		 jbe	 SHORT $LN3@ItemByteCo@5

; 4819 : 	{
; 4820 : 		buf[n] |= 0x40;

  00052	80 ca 40	 or	 dl, 64			; 00000040H
  00055	88 50 03	 mov	 BYTE PTR [eax+3], dl
$LN3@ItemByteCo@5:

; 4821 : 	}
; 4822 : 
; 4823 : 	buf[n] |= Noption;

  00058	8a 55 24	 mov	 dl, BYTE PTR _Noption$[ebp]
  0005b	08 50 03	 or	 BYTE PTR [eax+3], dl

; 4824 : 	n++;
; 4825 : 	buf[n] = SetOption;

  0005e	8a 55 28	 mov	 dl, BYTE PTR _SetOption$[ebp]
  00061	88 50 04	 mov	 BYTE PTR [eax+4], dl

; 4826 : 	n++;
; 4827 : 	buf[n] |= (type & 0x1E00 ) >> 5;
; 4828 : 
; 4829 : 	BYTE btItemEffectFor380 = 0;
; 4830 : 	btItemEffectFor380 = (ItemEffectEx  & 0x80 ) >> 4;
; 4831 : 	buf[n] |= btItemEffectFor380;
; 4832 : #ifdef PERIOD
; 4833 : 	BYTE btPartialyChargeOption = 0;
; 4834 : 	btPartialyChargeOption = PeriodItemOption << 1;
; 4835 : 	buf[n] |= btPartialyChargeOption;

  00064	8a 55 30	 mov	 dl, BYTE PTR _ItemEffectEx$[ebp]
  00067	c1 f9 05	 sar	 ecx, 5
  0006a	c0 ea 04	 shr	 dl, 4
  0006d	80 e1 f0	 and	 cl, 240			; 000000f0H
  00070	80 e2 08	 and	 dl, 8
  00073	0a ca		 or	 cl, dl
  00075	8a 55 3c	 mov	 dl, BYTE PTR _PeriodItemOption$[ebp]
  00078	02 d2		 add	 dl, dl
  0007a	0a ca		 or	 cl, dl
  0007c	08 48 05	 or	 BYTE PTR [eax+5], cl

; 4836 : #endif
; 4837 : 	n++;
; 4838 : 	buf[n] = JewelOfHarmonyOption;

  0007f	8a 4d 2c	 mov	 cl, BYTE PTR _JewelOfHarmonyOption$[ebp]
  00082	88 48 06	 mov	 BYTE PTR [eax+6], cl

; 4839 : 
; 4840 : 	//Season4 add-on (wz bugged -.-)
; 4841 : 	if(SocketOption != NULL)

  00085	8b 4d 34	 mov	 ecx, DWORD PTR _SocketOption$[ebp]
  00088	85 c9		 test	 ecx, ecx
  0008a	74 29		 je	 SHORT $LN2@ItemByteCo@5

; 4842 : 	{
; 4843 : 		buf[n] = SocketIndex;

  0008c	8a 55 38	 mov	 dl, BYTE PTR _SocketIndex$[ebp]
  0008f	88 50 06	 mov	 BYTE PTR [eax+6], dl

; 4844 : 		n++;
; 4845 : 		buf[n] = SocketOption[0];

  00092	0f b6 11	 movzx	 edx, BYTE PTR [ecx]
  00095	88 50 07	 mov	 BYTE PTR [eax+7], dl

; 4846 : 		n++;
; 4847 : 		buf[n] = SocketOption[1];

  00098	0f b6 51 01	 movzx	 edx, BYTE PTR [ecx+1]
  0009c	88 50 08	 mov	 BYTE PTR [eax+8], dl

; 4848 : 		n++;
; 4849 : 		buf[n] = SocketOption[2];

  0009f	0f b6 51 02	 movzx	 edx, BYTE PTR [ecx+2]
  000a3	88 50 09	 mov	 BYTE PTR [eax+9], dl

; 4850 : 		n++;
; 4851 : 		buf[n] = SocketOption[3];

  000a6	0f b6 51 03	 movzx	 edx, BYTE PTR [ecx+3]
  000aa	88 50 0a	 mov	 BYTE PTR [eax+10], dl

; 4852 : 		n++;
; 4853 : 		buf[n] = SocketOption[4];

  000ad	8a 49 04	 mov	 cl, BYTE PTR [ecx+4]

; 4863 : 		n++;
; 4864 : 		buf[n] = 0xFF;
; 4865 : 		n++;
; 4866 : 		buf[n] = 0xFF;

  000b0	88 48 0b	 mov	 BYTE PTR [eax+11], cl

; 4867 : 	}
; 4868 : }

  000b3	5d		 pop	 ebp
  000b4	c3		 ret	 0
$LN2@ItemByteCo@5:

; 4854 : 	}
; 4855 : 	else
; 4856 : 	{
; 4857 : 		n++; //wz fixed here -.-
; 4858 : 		buf[n] = 0xFF;

  000b5	66 c7 40 07 ff
	ff		 mov	 WORD PTR [eax+7], 65535	; 0000ffffH
  000bb	b1 ff		 mov	 cl, 255			; 000000ffH

; 4859 : 		n++;
; 4860 : 		buf[n] = 0xFF;
; 4861 : 		n++;
; 4862 : 		buf[n] = 0xFF;

  000bd	66 c7 40 09 ff
	ff		 mov	 WORD PTR [eax+9], 65535	; 0000ffffH

; 4863 : 		n++;
; 4864 : 		buf[n] = 0xFF;
; 4865 : 		n++;
; 4866 : 		buf[n] = 0xFF;

  000c3	88 48 0b	 mov	 BYTE PTR [eax+11], cl

; 4867 : 	}
; 4868 : }

  000c6	5d		 pop	 ebp
  000c7	c3		 ret	 0
?ItemByteConvert@@YAXPAEHEEEEEEEEEQAEEE@Z ENDP		; ItemByteConvert
_TEXT	ENDS
PUBLIC	?ItemByteConvert16@@YAXPAEQAVCItem@@H@Z		; ItemByteConvert16
; Function compile flags: /Ogtp
;	COMDAT ?ItemByteConvert16@@YAXPAEQAVCItem@@H@Z
_TEXT	SEGMENT
tv1604 = -8						; size = 4
tv1602 = -8						; size = 4
tv301 = -4						; size = 4
_buf$ = 8						; size = 4
_item$ = 12						; size = 4
_maxitem$ = 16						; size = 4
tv1607 = 18						; size = 2
?ItemByteConvert16@@YAXPAEQAVCItem@@H@Z PROC		; ItemByteConvert16, COMDAT

; 4873 : {

  00000	55		 push	 ebp
  00001	8b ec		 mov	 ebp, esp

; 4875 : 	WORD hiWord, loWord;
; 4876 : 
; 4877 : 	for (int index=0; index < maxitem ;index++)

  00003	8b 45 10	 mov	 eax, DWORD PTR _maxitem$[ebp]
  00006	83 ec 08	 sub	 esp, 8
  00009	56		 push	 esi
  0000a	33 f6		 xor	 esi, esi
  0000c	85 c0		 test	 eax, eax
  0000e	0f 8e f0 01 00
	00		 jle	 $LN9@ItemByteCo@6

; 4874 : 	int n=0;

  00014	53		 push	 ebx
  00015	8b 5d 0c	 mov	 ebx, DWORD PTR _item$[ebp]
  00018	57		 push	 edi
  00019	8b 7d 08	 mov	 edi, DWORD PTR _buf$[ebp]
  0001c	83 c3 06	 add	 ebx, 6
  0001f	89 45 fc	 mov	 DWORD PTR tv301[ebp], eax
$LL19@ItemByteCo@6:

; 4878 : 	{
; 4879 : 		if ( item[index].m_Type == ITEMGET(13,19) )

  00022	0f b7 0b	 movzx	 ecx, WORD PTR [ebx]
  00025	b8 13 1a 00 00	 mov	 eax, 6675		; 00001a13H
  0002a	66 3b c8	 cmp	 cx, ax
  0002d	75 3c		 jne	 SHORT $LN18@ItemByteCo@6

; 4880 : 		{
; 4881 : 			if ( CHECK_LIMIT(item[index].m_Level, 3) != FALSE )

  0002f	0f b7 43 02	 movzx	 eax, WORD PTR [ebx+2]
  00033	66 85 c0	 test	 ax, ax
  00036	78 33		 js	 SHORT $LN18@ItemByteCo@6
  00038	33 d2		 xor	 edx, edx
  0003a	66 83 f8 02	 cmp	 ax, 2
  0003e	0f 9e c2	 setle	 dl
  00041	8b c2		 mov	 eax, edx
  00043	85 c0		 test	 eax, eax
  00045	74 24		 je	 SHORT $LN18@ItemByteCo@6
$LN23@ItemByteCo@6:

; 4882 : 			{
; 4883 : 				buf[n+0]=-1;

  00047	c7 04 3e ff ff
	ff ff		 mov	 DWORD PTR [esi+edi], -1

; 4884 : 				buf[n+1]=-1;
; 4885 : 				buf[n+2]=-1;
; 4886 : 				buf[n+3]=-1;
; 4887 : 				buf[n+4]=-1;

  0004e	c7 44 3e 04 ff
	ff ff ff	 mov	 DWORD PTR [esi+edi+4], -1

; 4888 : 				buf[n+5]=-1;
; 4889 : 				buf[n+6]=-1;
; 4890 : 				buf[n+7]=-1;
; 4891 : 				buf[n+8]=-1;

  00056	c7 44 3e 08 ff
	ff ff ff	 mov	 DWORD PTR [esi+edi+8], -1

; 4892 : 				buf[n+9]=-1;
; 4893 : 				buf[n+10]=-1;
; 4894 : 				buf[n+11]=-1;
; 4895 : 				buf[n+12]=-1;

  0005e	c7 44 3e 0c ff
	ff ff ff	 mov	 DWORD PTR [esi+edi+12], -1

; 4896 : 				buf[n+13]=-1;
; 4897 : 				buf[n+14]=-1;
; 4898 : 				buf[n+15]=-1;
; 4899 : 				n+=16;
; 4900 : 
; 4901 : 				continue;

  00066	e9 85 01 00 00	 jmp	 $LN22@ItemByteCo@6
$LN18@ItemByteCo@6:

; 4902 : 			}
; 4903 : 		}
; 4904 : 
; 4905 : 		if ( item[index].m_Type == ITEMGET(14,64) ) //Season 2.5 Illusion Torch add-on

  0006b	b8 40 1c 00 00	 mov	 eax, 7232		; 00001c40H
  00070	66 3b c8	 cmp	 cx, ax

; 4906 : 		{
; 4907 : 			buf[n] = -1;
; 4908 : 			buf[n+1]= -1;
; 4909 : 			buf[n+2]= -1;
; 4910 : 			buf[n+3]= -1;
; 4911 : 			buf[n+4]= -1;
; 4912 : 			buf[n+5]= -1;
; 4913 : 			buf[n+6]= -1;
; 4914 : 			buf[n+7]= -1;
; 4915 : 			buf[n+8]= -1;
; 4916 : 			buf[n+9]= -1;
; 4917 : 			buf[n+10]=-1;
; 4918 : 			buf[n+11]=-1;
; 4919 : 			buf[n+12]=-1;
; 4920 : 			buf[n+13]=-1;
; 4921 : 			buf[n+14]=-1;
; 4922 : 			buf[n+15]=-1;
; 4923 : 			n += 16;
; 4924 : 			continue;

  00073	74 d2		 je	 SHORT $LN23@ItemByteCo@6

; 4925 : 		}
; 4926 : 
; 4927 : 		if ( item[index].m_Type < ITEMGET(0,0) )

  00075	66 85 c9	 test	 cx, cx

; 4928 : 		{
; 4929 : 			buf[n+0]=-1;
; 4930 : 			buf[n+1]=-1;
; 4931 : 			buf[n+2]=-1;
; 4932 : 			buf[n+3]=-1;
; 4933 : 			buf[n+4]=-1;
; 4934 : 			buf[n+5]=-1;
; 4935 : 			buf[n+6]=-1;
; 4936 : 			buf[n+7]=-1;
; 4937 : 			buf[n+8]=-1;
; 4938 : 			buf[n+9]=-1;
; 4939 : 			buf[n+10]=-1;
; 4940 : 			buf[n+11]=-1;
; 4941 : 			buf[n+12]=-1;
; 4942 : 			buf[n+13]=-1;
; 4943 : 			buf[n+14]=-1;
; 4944 : 			buf[n+15]=-1;
; 4945 : 			n+=16;
; 4946 : 		}
; 4947 : 		else

  00078	78 cd		 js	 SHORT $LN23@ItemByteCo@6

; 4948 : 		{
; 4949 : 			memset(buf+n, 0, 16);

  0007a	33 c0		 xor	 eax, eax
  0007c	89 04 3e	 mov	 DWORD PTR [esi+edi], eax
  0007f	89 44 3e 04	 mov	 DWORD PTR [esi+edi+4], eax
  00083	89 44 3e 08	 mov	 DWORD PTR [esi+edi+8], eax
  00087	89 44 3e 0c	 mov	 DWORD PTR [esi+edi+12], eax

; 4950 : 			buf[n] = (BYTE)item[index].m_Type % 256;

  0008b	0f b6 0b	 movzx	 ecx, BYTE PTR [ebx]
  0008e	81 e1 ff 00 00
	80		 and	 ecx, -2147483393	; 800000ffH
  00094	79 08		 jns	 SHORT $LN21@ItemByteCo@6
  00096	49		 dec	 ecx
  00097	81 c9 00 ff ff
	ff		 or	 ecx, -256		; ffffff00H
  0009d	41		 inc	 ecx
$LN21@ItemByteCo@6:
  0009e	88 0c 3e	 mov	 BYTE PTR [esi+edi], cl

; 4951 : 			n++;
; 4952 : 			buf[n]=0;
; 4953 : 			buf[n] |= item[index].m_Level * 8;
; 4954 : 			buf[n] |= item[index].m_Option1 * 128;
; 4955 : 			buf[n] |= item[index].m_Option2 * 4;
; 4956 : 			buf[n] |= item[index].m_Option3 & 3;
; 4957 : 			n++;
; 4958 : 			buf[n] = (BYTE)item[index].m_Durability;

  000a1	d9 7d 12	 fnstcw	 WORD PTR tv1607[ebp]
  000a4	88 44 3e 01	 mov	 BYTE PTR [esi+edi+1], al
  000a8	8a 4b 02	 mov	 cl, BYTE PTR [ebx+2]
  000ab	02 c9		 add	 cl, cl
  000ad	02 c9		 add	 cl, cl
  000af	02 c9		 add	 cl, cl
  000b1	88 4c 3e 01	 mov	 BYTE PTR [esi+edi+1], cl
  000b5	8a 83 8e 00 00
	00		 mov	 al, BYTE PTR [ebx+142]
  000bb	c0 e0 07	 shl	 al, 7
  000be	0a c1		 or	 al, cl
  000c0	88 44 3e 01	 mov	 BYTE PTR [esi+edi+1], al
  000c4	8a 8b 8f 00 00
	00		 mov	 cl, BYTE PTR [ebx+143]
  000ca	02 c9		 add	 cl, cl
  000cc	02 c9		 add	 cl, cl
  000ce	0a c8		 or	 cl, al
  000d0	0f b7 45 12	 movzx	 eax, WORD PTR tv1607[ebp]
  000d4	88 4c 3e 01	 mov	 BYTE PTR [esi+edi+1], cl
  000d8	8a 93 90 00 00
	00		 mov	 dl, BYTE PTR [ebx+144]
  000de	0d 00 0c 00 00	 or	 eax, 3072		; 00000c00H
  000e3	89 45 f8	 mov	 DWORD PTR tv1604[ebp], eax
  000e6	80 e2 03	 and	 dl, 3
  000e9	0a d1		 or	 dl, cl
  000eb	88 54 3e 01	 mov	 BYTE PTR [esi+edi+1], dl
  000ef	d9 43 1e	 fld	 DWORD PTR [ebx+30]
  000f2	d9 6d f8	 fldcw	 WORD PTR tv1604[ebp]
  000f5	db 5d f8	 fistp	 DWORD PTR tv1602[ebp]
  000f8	0f b6 45 f8	 movzx	 eax, BYTE PTR tv1602[ebp]
  000fc	88 44 3e 02	 mov	 BYTE PTR [esi+edi+2], al

; 4959 : 			n++;
; 4960 : 			hiWord = item[index].m_Number >> 16;

  00100	0f b7 43 fc	 movzx	 eax, WORD PTR [ebx-4]
  00104	d9 6d 12	 fldcw	 WORD PTR tv1607[ebp]

; 4961 : 			loWord = item[index].m_Number  & 0xFFFF;

  00107	0f b7 4b fa	 movzx	 ecx, WORD PTR [ebx-6]

; 4962 : 			buf[n] = SET_NUMBERH(hiWord);

  0010b	8b d0		 mov	 edx, eax
  0010d	c1 ea 08	 shr	 edx, 8
  00110	88 54 3e 03	 mov	 BYTE PTR [esi+edi+3], dl

; 4963 : 			n++;
; 4964 : 			buf[n] = SET_NUMBERL(hiWord);

  00114	88 44 3e 04	 mov	 BYTE PTR [esi+edi+4], al

; 4965 : 			n++;
; 4966 : 			buf[n] = SET_NUMBERH(loWord);

  00118	8b c1		 mov	 eax, ecx
  0011a	c1 e8 08	 shr	 eax, 8
  0011d	88 44 3e 05	 mov	 BYTE PTR [esi+edi+5], al

; 4967 : 			n++;
; 4968 : 			buf[n] = SET_NUMBERL(loWord);

  00121	88 4c 3e 06	 mov	 BYTE PTR [esi+edi+6], cl

; 4969 : 			n++;
; 4970 : 			buf[n] = 0;

  00125	c6 44 3e 07 00	 mov	 BYTE PTR [esi+edi+7], 0

; 4971 : 			BYTE btItemType=0;
; 4972 : 			btItemType |= (item[index].m_Type & 0x1E00 ) >> 5;

  0012a	0f b7 03	 movzx	 eax, WORD PTR [ebx]
  0012d	8b c8		 mov	 ecx, eax

; 4973 : 			buf[n] |= ((item[index].m_Type & 0x100) >> 1);

  0012f	d1 f8		 sar	 eax, 1
  00131	c1 f9 05	 sar	 ecx, 5
  00134	24 80		 and	 al, 128			; 00000080H
  00136	80 e1 f0	 and	 cl, 240			; 000000f0H
  00139	88 44 3e 07	 mov	 BYTE PTR [esi+edi+7], al

; 4974 : 
; 4975 : 			if ( item[index].m_Option3 > 3 )

  0013d	80 bb 90 00 00
	00 03		 cmp	 BYTE PTR [ebx+144], 3
  00144	76 06		 jbe	 SHORT $LN3@ItemByteCo@6

; 4976 : 			{
; 4977 : 				buf[n] |= 0x40; // item +16 option

  00146	0c 40		 or	 al, 64			; 00000040H
  00148	88 44 3e 07	 mov	 BYTE PTR [esi+edi+7], al
$LN3@ItemByteCo@6:

; 4978 : 			}
; 4979 : 
; 4980 : 			buf[n] |= item[index].m_NewOption;

  0014c	8a 93 91 00 00
	00		 mov	 dl, BYTE PTR [ebx+145]
  00152	08 54 3e 07	 or	 BYTE PTR [esi+edi+7], dl

; 4981 : 			n++;
; 4982 : 			buf[n] = item[index].m_SetOption;

  00156	0f b6 83 a8 00
	00 00		 movzx	 eax, BYTE PTR [ebx+168]
  0015d	88 44 3e 08	 mov	 BYTE PTR [esi+edi+8], al

; 4983 : 			n++;
; 4984 : 			buf[n] = 0;
; 4985 : 			buf[n] |= btItemType;

  00161	88 4c 3e 09	 mov	 BYTE PTR [esi+edi+9], cl

; 4986 : 			BYTE btItemEffectFor380 = 0;
; 4987 : 			btItemEffectFor380 = (item[index].m_ItemOptionEx & 0x80 ) >> 4;
; 4988 : 			buf[n] |= btItemEffectFor380;

  00165	8a 83 c4 00 00
	00		 mov	 al, BYTE PTR [ebx+196]
  0016b	c0 e8 04	 shr	 al, 4
  0016e	24 08		 and	 al, 8
  00170	0a c1		 or	 al, cl
  00172	88 44 3e 09	 mov	 BYTE PTR [esi+edi+9], al

; 4989 : 
; 4990 : #ifdef PERIOD
; 4991 : 			BYTE btPartialyChargeOption = 0;
; 4992 : 			btPartialyChargeOption = item[index].m_PeriodItemOption << 1;

  00176	8a 8b cc 00 00
	00		 mov	 cl, BYTE PTR [ebx+204]
  0017c	02 c9		 add	 cl, cl

; 4993 : 			buf[n] |= btPartialyChargeOption;

  0017e	0a c8		 or	 cl, al
  00180	88 4c 3e 09	 mov	 BYTE PTR [esi+edi+9], cl

; 4994 : #endif
; 4995 : 
; 4996 : 			n++;
; 4997 : 			
; 4998 : 			if ( item[index].m_JewelOfHarmonyOption == 0xFF )

  00184	80 bb be 00 00
	00 ff		 cmp	 BYTE PTR [ebx+190], 255	; 000000ffH
  0018b	75 07		 jne	 SHORT $LN2@ItemByteCo@6

; 4999 : 				item[index].m_JewelOfHarmonyOption = 0;

  0018d	c6 83 be 00 00
	00 00		 mov	 BYTE PTR [ebx+190], 0
$LN2@ItemByteCo@6:

; 5000 : 
; 5001 : 			buf[n] = item[index].m_JewelOfHarmonyOption;

  00194	8a 93 be 00 00
	00		 mov	 dl, BYTE PTR [ebx+190]

; 5002 : 
; 5003 : 			//Season4 add-on
; 5004 : 			if(g_SocketOption.IsSocketOption(&item[index]) == 1){buf[n] = item[index].m_SocketOptionIndex;}

  0019a	8d 43 fa	 lea	 eax, DWORD PTR [ebx-6]
  0019d	50		 push	 eax
  0019e	b9 00 00 00 00	 mov	 ecx, OFFSET ?g_SocketOption@@3VCSocketOption@@A ; g_SocketOption
  001a3	88 54 3e 0a	 mov	 BYTE PTR [esi+edi+10], dl
  001a7	e8 00 00 00 00	 call	 ?IsSocketOption@CSocketOption@@QAEEPAVCItem@@@Z ; CSocketOption::IsSocketOption
  001ac	3c 01		 cmp	 al, 1
  001ae	75 0a		 jne	 SHORT $LN1@ItemByteCo@6
  001b0	8a 83 c5 00 00
	00		 mov	 al, BYTE PTR [ebx+197]
  001b6	88 44 3e 0a	 mov	 BYTE PTR [esi+edi+10], al
$LN1@ItemByteCo@6:

; 5005 : 			n++;
; 5006 : 			buf[n] = item[index].m_SocketOption[0];

  001ba	0f b6 8b c6 00
	00 00		 movzx	 ecx, BYTE PTR [ebx+198]
  001c1	88 4c 3e 0b	 mov	 BYTE PTR [esi+edi+11], cl

; 5007 : 			n++;
; 5008 : 			buf[n] = item[index].m_SocketOption[1];

  001c5	0f b6 93 c7 00
	00 00		 movzx	 edx, BYTE PTR [ebx+199]
  001cc	88 54 3e 0c	 mov	 BYTE PTR [esi+edi+12], dl

; 5009 : 			n++;
; 5010 : 			buf[n] = item[index].m_SocketOption[2];

  001d0	8a 83 c8 00 00
	00		 mov	 al, BYTE PTR [ebx+200]
  001d6	88 44 3e 0d	 mov	 BYTE PTR [esi+edi+13], al

; 5011 : 			n++;
; 5012 : 			buf[n] = item[index].m_SocketOption[3];

  001da	0f b6 8b c9 00
	00 00		 movzx	 ecx, BYTE PTR [ebx+201]
  001e1	88 4c 3e 0e	 mov	 BYTE PTR [esi+edi+14], cl

; 5013 : 			n++;
; 5014 : 			buf[n] = item[index].m_SocketOption[4];

  001e5	0f b6 93 ca 00
	00 00		 movzx	 edx, BYTE PTR [ebx+202]
  001ec	88 54 3e 0f	 mov	 BYTE PTR [esi+edi+15], dl
$LN22@ItemByteCo@6:

; 5015 : 			n++;

  001f0	83 c6 10	 add	 esi, 16			; 00000010H
  001f3	81 c3 d4 00 00
	00		 add	 ebx, 212		; 000000d4H
  001f9	ff 4d fc	 dec	 DWORD PTR tv301[ebp]
  001fc	0f 85 20 fe ff
	ff		 jne	 $LL19@ItemByteCo@6
  00202	5f		 pop	 edi
  00203	5b		 pop	 ebx
$LN9@ItemByteCo@6:
  00204	5e		 pop	 esi

; 5016 : 		}
; 5017 : 	}
; 5018 : }

  00205	8b e5		 mov	 esp, ebp
  00207	5d		 pop	 ebp
  00208	c3		 ret	 0
?ItemByteConvert16@@YAXPAEQAVCItem@@H@Z ENDP		; ItemByteConvert16
_TEXT	ENDS
PUBLIC	?ItemGetNumberMake@@YAHHH@Z			; ItemGetNumberMake
; Function compile flags: /Ogtp
;	COMDAT ?ItemGetNumberMake@@YAHHH@Z
_TEXT	SEGMENT
_type$ = 8						; size = 4
_index$ = 12						; size = 4
?ItemGetNumberMake@@YAHHH@Z PROC			; ItemGetNumberMake, COMDAT

; 5021 : {

  00000	55		 push	 ebp
  00001	8b ec		 mov	 ebp, esp

; 5022 : 	int make;
; 5023 : 
; 5024 : 	make = type*MAX_SUBTYPE_ITEMS + index;

  00003	8b 45 08	 mov	 eax, DWORD PTR _type$[ebp]
  00006	c1 e0 09	 shl	 eax, 9
  00009	03 45 0c	 add	 eax, DWORD PTR _index$[ebp]

; 5025 : 
; 5026 : 	if (ItemAttribute[make].Width < 1 ||  ItemAttribute[make].Height < 1)

  0000c	b2 01		 mov	 dl, 1
  0000e	8b c8		 mov	 ecx, eax
  00010	6b c9 70	 imul	 ecx, 112		; 00000070H
  00013	38 91 23 00 00
	00		 cmp	 BYTE PTR ?ItemAttribute@@3PAUITEM_ATTRIBUTE@@A[ecx+35], dl
  00019	72 08		 jb	 SHORT $LN1@ItemGetNum
  0001b	38 91 24 00 00
	00		 cmp	 BYTE PTR ?ItemAttribute@@3PAUITEM_ATTRIBUTE@@A[ecx+36], dl

; 5029 : 	}
; 5030 : 	return make;

  00021	73 03		 jae	 SHORT $LN3@ItemGetNum
$LN1@ItemGetNum:

; 5027 : 	{
; 5028 : 		return -1;

  00023	83 c8 ff	 or	 eax, -1
$LN3@ItemGetNum:

; 5031 : }

  00026	5d		 pop	 ebp
  00027	c3		 ret	 0
?ItemGetNumberMake@@YAHHH@Z ENDP			; ItemGetNumberMake
_TEXT	ENDS
PUBLIC	?ItemGetSize@@YAXHAAH0@Z			; ItemGetSize
; Function compile flags: /Ogtp
;	COMDAT ?ItemGetSize@@YAXHAAH0@Z
_TEXT	SEGMENT
_index$ = 8						; size = 4
_width$ = 12						; size = 4
_height$ = 16						; size = 4
?ItemGetSize@@YAXHAAH0@Z PROC				; ItemGetSize, COMDAT

; 5034 : {

  00000	55		 push	 ebp
  00001	8b ec		 mov	 ebp, esp

; 5035 : 	width = ItemAttribute[index].Width;

  00003	8b 45 08	 mov	 eax, DWORD PTR _index$[ebp]
  00006	8b 55 0c	 mov	 edx, DWORD PTR _width$[ebp]
  00009	6b c0 70	 imul	 eax, 112		; 00000070H
  0000c	0f b6 88 23 00
	00 00		 movzx	 ecx, BYTE PTR ?ItemAttribute@@3PAUITEM_ATTRIBUTE@@A[eax+35]
  00013	89 0a		 mov	 DWORD PTR [edx], ecx

; 5036 : 	height = ItemAttribute[index].Height;

  00015	0f b6 80 24 00
	00 00		 movzx	 eax, BYTE PTR ?ItemAttribute@@3PAUITEM_ATTRIBUTE@@A[eax+36]
  0001c	8b 4d 10	 mov	 ecx, DWORD PTR _height$[ebp]
  0001f	89 01		 mov	 DWORD PTR [ecx], eax

; 5037 : }

  00021	5d		 pop	 ebp
  00022	c3		 ret	 0
?ItemGetSize@@YAXHAAH0@Z ENDP				; ItemGetSize
_TEXT	ENDS
PUBLIC	?HasItemDurability@@YAHH@Z			; HasItemDurability
; Function compile flags: /Ogtp
;	COMDAT ?HasItemDurability@@YAHH@Z
_TEXT	SEGMENT
_index$ = 8						; size = 4
?HasItemDurability@@YAHH@Z PROC				; HasItemDurability, COMDAT

; 5040 : {

  00000	55		 push	 ebp
  00001	8b ec		 mov	 ebp, esp

; 5041 : 	if ( ItemAttribute[index].Durability == 0 && ItemAttribute[index].MagicDurability == 0)

  00003	8b 45 08	 mov	 eax, DWORD PTR _index$[ebp]
  00006	6b c0 70	 imul	 eax, 112		; 00000070H
  00009	80 b8 30 00 00
	00 00		 cmp	 BYTE PTR ?ItemAttribute@@3PAUITEM_ATTRIBUTE@@A[eax+48], 0
  00010	75 0d		 jne	 SHORT $LN1@HasItemDur
  00012	80 b8 31 00 00
	00 00		 cmp	 BYTE PTR ?ItemAttribute@@3PAUITEM_ATTRIBUTE@@A[eax+49], 0
  00019	75 04		 jne	 SHORT $LN1@HasItemDur

; 5042 : 	{
; 5043 : 		return FALSE; 

  0001b	33 c0		 xor	 eax, eax

; 5047 : }

  0001d	5d		 pop	 ebp
  0001e	c3		 ret	 0
$LN1@HasItemDur:

; 5044 : 	}
; 5045 : 	
; 5046 : 	return TRUE;

  0001f	b8 01 00 00 00	 mov	 eax, 1

; 5047 : }

  00024	5d		 pop	 ebp
  00025	c3		 ret	 0
?HasItemDurability@@YAHH@Z ENDP				; HasItemDurability
_TEXT	ENDS
PUBLIC	?ItemGetDurability@@YAHHHHH@Z			; ItemGetDurability
; Function compile flags: /Ogtp
;	COMDAT ?ItemGetDurability@@YAHHHHH@Z
_TEXT	SEGMENT
_index$ = 8						; size = 4
_itemLevel$ = 12					; size = 4
_ExcellentItem$ = 16					; size = 4
_SetItem$ = 20						; size = 4
?ItemGetDurability@@YAHHHHH@Z PROC			; ItemGetDurability, COMDAT

; 5050 : {

  00000	55		 push	 ebp
  00001	8b ec		 mov	 ebp, esp

; 5051 : 
; 5052 : 	if ( index == ITEMGET(14,21) && itemLevel == 3 )	// Mark Lord

  00003	8b 4d 08	 mov	 ecx, DWORD PTR _index$[ebp]
  00006	8b 55 0c	 mov	 edx, DWORD PTR _itemLevel$[ebp]
  00009	81 f9 15 1c 00
	00		 cmp	 ecx, 7189		; 00001c15H
  0000f	75 1a		 jne	 SHORT $LN25@ItemGetDur
  00011	83 fa 03	 cmp	 edx, 3
  00014	75 2c		 jne	 SHORT $LN23@ItemGetDur

; 5064 : 	{
; 5065 : 		dur= ItemAttribute[index].Durability + itemLevel;

  00016	8b c1		 mov	 eax, ecx
  00018	6b c0 70	 imul	 eax, 112		; 00000070H
  0001b	0f b6 80 30 00
	00 00		 movzx	 eax, BYTE PTR ?ItemAttribute@@3PAUITEM_ATTRIBUTE@@A[eax+48]
  00022	33 d2		 xor	 edx, edx
  00024	03 c2		 add	 eax, edx
  00026	e9 b7 00 00 00	 jmp	 $LN8@ItemGetDur
$LN25@ItemGetDur:

; 5053 : 		itemLevel=0;
; 5054 : 	
; 5055 : 	if ( index == ITEMGET(14,29) )

  0002b	81 f9 1d 1c 00
	00		 cmp	 ecx, 7197		; 00001c1dH
  00031	75 07		 jne	 SHORT $LN24@ItemGetDur
$LN56@ItemGetDur:

; 5056 : 		return 1;

  00033	b8 01 00 00 00	 mov	 eax, 1

; 5143 : 
; 5144 : 	return dur;
; 5145 : }

  00038	5d		 pop	 ebp
  00039	c3		 ret	 0
$LN24@ItemGetDur:

; 5057 : 
; 5058 : 	if ( index == ITEMGET(14,100) ) //season 4.5 lucky coin add-on

  0003a	81 f9 64 1c 00
	00		 cmp	 ecx, 7268		; 00001c64H

; 5059 : 		return 1;

  00040	74 f1		 je	 SHORT $LN56@ItemGetDur
$LN23@ItemGetDur:

; 5060 : 
; 5061 : 	int dur=0;
; 5062 : 
; 5063 : 	if ( itemLevel < 5)

  00042	83 fa 05	 cmp	 edx, 5
  00045	7d 13		 jge	 SHORT $LN36@ItemGetDur

; 5064 : 	{
; 5065 : 		dur= ItemAttribute[index].Durability + itemLevel;

  00047	8b c1		 mov	 eax, ecx
  00049	6b c0 70	 imul	 eax, 112		; 00000070H
  0004c	0f b6 80 30 00
	00 00		 movzx	 eax, BYTE PTR ?ItemAttribute@@3PAUITEM_ATTRIBUTE@@A[eax+48]
  00053	03 c2		 add	 eax, edx
  00055	e9 88 00 00 00	 jmp	 $LN8@ItemGetDur
$LN36@ItemGetDur:

; 5066 : 	}
; 5067 : 	else if ( itemLevel >= 5 )
; 5068 : 	{
; 5069 : 		if ( itemLevel == 10 )

  0005a	83 fa 0a	 cmp	 edx, 10			; 0000000aH
  0005d	75 11		 jne	 SHORT $LN19@ItemGetDur

; 5070 : 		{
; 5071 : 			dur=ItemAttribute[index].Durability + itemLevel*2-3;

  0005f	8b d1		 mov	 edx, ecx
  00061	6b d2 70	 imul	 edx, 112		; 00000070H
  00064	0f b6 82 30 00
	00 00		 movzx	 eax, BYTE PTR ?ItemAttribute@@3PAUITEM_ATTRIBUTE@@A[edx+48]
  0006b	83 c0 11	 add	 eax, 17			; 00000011H
  0006e	eb 72		 jmp	 SHORT $LN8@ItemGetDur
$LN19@ItemGetDur:

; 5072 : 		}
; 5073 : 		else if (itemLevel == 11 )

  00070	83 fa 0b	 cmp	 edx, 11			; 0000000bH
  00073	75 11		 jne	 SHORT $LN17@ItemGetDur

; 5074 : 		{
; 5075 : 			dur=ItemAttribute[index].Durability + itemLevel*2-1;

  00075	8b c1		 mov	 eax, ecx
  00077	6b c0 70	 imul	 eax, 112		; 00000070H
  0007a	0f b6 80 30 00
	00 00		 movzx	 eax, BYTE PTR ?ItemAttribute@@3PAUITEM_ATTRIBUTE@@A[eax+48]
  00081	83 c0 15	 add	 eax, 21			; 00000015H
  00084	eb 5c		 jmp	 SHORT $LN8@ItemGetDur
$LN17@ItemGetDur:

; 5076 : 		}
; 5077 : 		else if (itemLevel == 12 )

  00086	83 fa 0c	 cmp	 edx, 12			; 0000000cH
  00089	75 11		 jne	 SHORT $LN15@ItemGetDur

; 5078 : 		{
; 5079 : 			dur=ItemAttribute[index].Durability + itemLevel*2+2;

  0008b	8b d1		 mov	 edx, ecx
  0008d	6b d2 70	 imul	 edx, 112		; 00000070H
  00090	0f b6 82 30 00
	00 00		 movzx	 eax, BYTE PTR ?ItemAttribute@@3PAUITEM_ATTRIBUTE@@A[edx+48]
  00097	83 c0 1a	 add	 eax, 26			; 0000001aH
  0009a	eb 46		 jmp	 SHORT $LN8@ItemGetDur
$LN15@ItemGetDur:

; 5080 : 		}
; 5081 : 		else if (itemLevel == 13 )

  0009c	83 fa 0d	 cmp	 edx, 13			; 0000000dH
  0009f	75 11		 jne	 SHORT $LN13@ItemGetDur

; 5082 : 		{
; 5083 : 			dur=ItemAttribute[index].Durability + itemLevel*2+6;

  000a1	8b c1		 mov	 eax, ecx
  000a3	6b c0 70	 imul	 eax, 112		; 00000070H
  000a6	0f b6 80 30 00
	00 00		 movzx	 eax, BYTE PTR ?ItemAttribute@@3PAUITEM_ATTRIBUTE@@A[eax+48]
  000ad	83 c0 20	 add	 eax, 32			; 00000020H
  000b0	eb 30		 jmp	 SHORT $LN8@ItemGetDur
$LN13@ItemGetDur:

; 5084 : 		}
; 5085 : 		else if (itemLevel == 14 )

  000b2	83 fa 0e	 cmp	 edx, 14			; 0000000eH
  000b5	75 11		 jne	 SHORT $LN11@ItemGetDur

; 5086 : 		{
; 5087 : 			dur=ItemAttribute[index].Durability + 39;

  000b7	8b d1		 mov	 edx, ecx
  000b9	6b d2 70	 imul	 edx, 112		; 00000070H
  000bc	0f b6 82 30 00
	00 00		 movzx	 eax, BYTE PTR ?ItemAttribute@@3PAUITEM_ATTRIBUTE@@A[edx+48]
  000c3	83 c0 27	 add	 eax, 39			; 00000027H
  000c6	eb 1a		 jmp	 SHORT $LN8@ItemGetDur
$LN11@ItemGetDur:

; 5088 : 		}
; 5089 : 		else if (itemLevel == 15 )
; 5090 : 		{
; 5091 : 			dur=ItemAttribute[index].Durability + 47;

  000c8	8b c1		 mov	 eax, ecx
  000ca	6b c0 70	 imul	 eax, 112		; 00000070H
  000cd	0f b6 80 30 00
	00 00		 movzx	 eax, BYTE PTR ?ItemAttribute@@3PAUITEM_ATTRIBUTE@@A[eax+48]
  000d4	83 fa 0f	 cmp	 edx, 15			; 0000000fH
  000d7	75 05		 jne	 SHORT $LN9@ItemGetDur
  000d9	83 c0 2f	 add	 eax, 47			; 0000002fH

; 5092 : 		}
; 5093 : 		else

  000dc	eb 04		 jmp	 SHORT $LN8@ItemGetDur
$LN9@ItemGetDur:

; 5094 : 		{
; 5095 : 			dur=ItemAttribute[index].Durability + itemLevel*2-4;

  000de	8d 44 50 fc	 lea	 eax, DWORD PTR [eax+edx*2-4]
$LN8@ItemGetDur:

; 5096 : 		}
; 5097 : 	}
; 5098 : 
; 5099 : 	
; 5100 : 	if( index == ITEMGET(13,51) ) //Season 2.5 Illusion Temple Blood Scroll Ticket

  000e2	81 f9 33 1a 00
	00		 cmp	 ecx, 6707		; 00001a33H
  000e8	75 0a		 jne	 SHORT $LN7@ItemGetDur

; 5101 : 	{
; 5102 : 		dur = 1;

  000ea	b8 01 00 00 00	 mov	 eax, 1

; 5103 : 	}
; 5104 : 	
; 5105 : 	if ( (index < ITEMGET(12,3) || index > ITEMGET(12,6) ) &&
; 5106 : 		  index != ITEMGET(0,19) &&
; 5107 : 		  index != ITEMGET(4,18) &&
; 5108 : 		  index != ITEMGET(5,10) &&
; 5109 : 		  index != ITEMGET(2,13) &&
; 5110 : 		  index != ITEMGET(13,30) &&
; 5111 : 		  index != ITEMGET(12,36) &&
; 5112 : 		  index != ITEMGET(12,37) &&
; 5113 : 		  index != ITEMGET(12,38) &&
; 5114 : 		  index != ITEMGET(12,39) &&
; 5115 : 		  index != ITEMGET(12,40) &&
; 5116 : 		  index != ITEMGET(12,41) &&
; 5117 : 		  index != ITEMGET(12,42) &&
; 5118 : 		  index != ITEMGET(12,43)
; 5119 : #ifdef NEWWINGS_2_5
; 5120 : 		  && !IS_NEWWINGS_2_5(index)
; 5121 : #endif
; 5122 : #ifdef NEWWINGS_4
; 5123 : 		  && !IS_NEWWINGS_4(index)
; 5124 : #endif
; 5125 : #ifdef NEWWINGS_5
; 5126 : 		  && !IS_NEWWINGS_5(index)
; 5127 : #endif
; 5128 : #ifdef NEWWINGS_6
; 5129 : 		  && !IS_NEWWINGS_6(index)
; 5130 : #endif
; 5131 : 		  )

  000ef	e9 ad 00 00 00	 jmp	 $LN28@ItemGetDur
$LN7@ItemGetDur:
  000f4	81 f9 03 18 00
	00		 cmp	 ecx, 6147		; 00001803H
  000fa	7c 0c		 jl	 SHORT $LN5@ItemGetDur
  000fc	81 f9 06 18 00
	00		 cmp	 ecx, 6150		; 00001806H
  00102	0f 8e 03 01 00
	00		 jle	 $LN2@ItemGetDur
$LN5@ItemGetDur:
  00108	83 f9 13	 cmp	 ecx, 19			; 00000013H
  0010b	0f 84 fa 00 00
	00		 je	 $LN2@ItemGetDur
  00111	81 f9 12 08 00
	00		 cmp	 ecx, 2066		; 00000812H
  00117	0f 84 ee 00 00
	00		 je	 $LN2@ItemGetDur
  0011d	81 f9 0a 0a 00
	00		 cmp	 ecx, 2570		; 00000a0aH
  00123	0f 84 e2 00 00
	00		 je	 $LN2@ItemGetDur
  00129	81 f9 0d 04 00
	00		 cmp	 ecx, 1037		; 0000040dH
  0012f	0f 84 d6 00 00
	00		 je	 $LN2@ItemGetDur
  00135	81 f9 1e 1a 00
	00		 cmp	 ecx, 6686		; 00001a1eH
  0013b	0f 84 ca 00 00
	00		 je	 $LN2@ItemGetDur
  00141	81 f9 24 18 00
	00		 cmp	 ecx, 6180		; 00001824H
  00147	0f 84 be 00 00
	00		 je	 $LN2@ItemGetDur
  0014d	81 f9 25 18 00
	00		 cmp	 ecx, 6181		; 00001825H
  00153	0f 84 b2 00 00
	00		 je	 $LN2@ItemGetDur
  00159	81 f9 26 18 00
	00		 cmp	 ecx, 6182		; 00001826H
  0015f	0f 84 a6 00 00
	00		 je	 $LN2@ItemGetDur
  00165	81 f9 27 18 00
	00		 cmp	 ecx, 6183		; 00001827H
  0016b	0f 84 9a 00 00
	00		 je	 $LN2@ItemGetDur
  00171	81 f9 28 18 00
	00		 cmp	 ecx, 6184		; 00001828H
  00177	0f 84 8e 00 00
	00		 je	 $LN2@ItemGetDur
  0017d	81 f9 29 18 00
	00		 cmp	 ecx, 6185		; 00001829H
  00183	0f 84 82 00 00
	00		 je	 $LN2@ItemGetDur
  00189	81 f9 2a 18 00
	00		 cmp	 ecx, 6186		; 0000182aH
  0018f	74 7a		 je	 SHORT $LN2@ItemGetDur
  00191	81 f9 2b 18 00
	00		 cmp	 ecx, 6187		; 0000182bH
  00197	74 72		 je	 SHORT $LN2@ItemGetDur
  00199	81 f9 ba 18 00
	00		 cmp	 ecx, 6330		; 000018baH
  0019f	7c 0f		 jl	 SHORT $LN52@ItemGetDur
$LN28@ItemGetDur:
  001a1	33 d2		 xor	 edx, edx
  001a3	81 f9 bc 18 00
	00		 cmp	 ecx, 6332		; 000018bcH
  001a9	0f 9e c2	 setle	 dl
  001ac	85 d2		 test	 edx, edx
  001ae	75 5b		 jne	 SHORT $LN2@ItemGetDur
$LN52@ItemGetDur:
  001b0	81 f9 b4 18 00
	00		 cmp	 ecx, 6324		; 000018b4H
  001b6	7c 0f		 jl	 SHORT $LN53@ItemGetDur
  001b8	33 d2		 xor	 edx, edx
  001ba	81 f9 b9 18 00
	00		 cmp	 ecx, 6329		; 000018b9H
  001c0	0f 9e c2	 setle	 dl
  001c3	85 d2		 test	 edx, edx
  001c5	75 44		 jne	 SHORT $LN2@ItemGetDur
$LN53@ItemGetDur:
  001c7	81 f9 bd 18 00
	00		 cmp	 ecx, 6333		; 000018bdH
  001cd	7c 0f		 jl	 SHORT $LN54@ItemGetDur
  001cf	33 d2		 xor	 edx, edx
  001d1	81 f9 c2 18 00
	00		 cmp	 ecx, 6338		; 000018c2H
  001d7	0f 9e c2	 setle	 dl
  001da	85 d2		 test	 edx, edx
  001dc	75 2d		 jne	 SHORT $LN2@ItemGetDur
$LN54@ItemGetDur:
  001de	81 f9 c3 18 00
	00		 cmp	 ecx, 6339		; 000018c3H
  001e4	7c 11		 jl	 SHORT $LN55@ItemGetDur
  001e6	33 d2		 xor	 edx, edx
  001e8	81 f9 dc 18 00
	00		 cmp	 ecx, 6364		; 000018dcH
  001ee	0f 9e c2	 setle	 dl
  001f1	8b ca		 mov	 ecx, edx
  001f3	85 c9		 test	 ecx, ecx
  001f5	75 14		 jne	 SHORT $LN2@ItemGetDur
$LN55@ItemGetDur:

; 5132 : 	{
; 5133 : 		if ( SetItem != 0 )

  001f7	83 7d 14 00	 cmp	 DWORD PTR _SetItem$[ebp], 0
  001fb	74 05		 je	 SHORT $LN4@ItemGetDur

; 5134 : 			dur +=20;

  001fd	83 c0 14	 add	 eax, 20			; 00000014H
  00200	eb 09		 jmp	 SHORT $LN2@ItemGetDur
$LN4@ItemGetDur:

; 5135 : 		else if ( ExcellentItem != 0 ) // Prevent duple if items

  00202	83 7d 10 00	 cmp	 DWORD PTR _ExcellentItem$[ebp], 0
  00206	74 03		 je	 SHORT $LN2@ItemGetDur

; 5136 : 			dur +=15;

  00208	83 c0 0f	 add	 eax, 15			; 0000000fH
$LN2@ItemGetDur:

; 5137 : 	}
; 5138 : 
; 5139 : 	//LogAddC(2,"Durability: %d, ExcellentItem: %d",dur, ExcellentItem);
; 5140 : 
; 5141 : 	if ( dur > 255 )

  0020b	3d ff 00 00 00	 cmp	 eax, 255		; 000000ffH
  00210	7e 05		 jle	 SHORT $LN26@ItemGetDur

; 5142 : 		dur = 255;

  00212	b8 ff 00 00 00	 mov	 eax, 255		; 000000ffH
$LN26@ItemGetDur:

; 5143 : 
; 5144 : 	return dur;
; 5145 : }

  00217	5d		 pop	 ebp
  00218	c3		 ret	 0
?ItemGetDurability@@YAHHHHH@Z ENDP			; ItemGetDurability
_TEXT	ENDS
PUBLIC	?ItemGetAttackDurability@@YAHH@Z		; ItemGetAttackDurability
; Function compile flags: /Ogtp
;	COMDAT ?ItemGetAttackDurability@@YAHH@Z
_TEXT	SEGMENT
_index$ = 8						; size = 4
?ItemGetAttackDurability@@YAHH@Z PROC			; ItemGetAttackDurability, COMDAT

; 5148 : {

  00000	55		 push	 ebp
  00001	8b ec		 mov	 ebp, esp

; 5149 : 	return ItemAttribute[index].AttackDur;

  00003	8b 45 08	 mov	 eax, DWORD PTR _index$[ebp]
  00006	6b c0 70	 imul	 eax, 112		; 00000070H
  00009	0f b6 80 32 00
	00 00		 movzx	 eax, BYTE PTR ?ItemAttribute@@3PAUITEM_ATTRIBUTE@@A[eax+50]

; 5150 : }

  00010	5d		 pop	 ebp
  00011	c3		 ret	 0
?ItemGetAttackDurability@@YAHH@Z ENDP			; ItemGetAttackDurability
_TEXT	ENDS
PUBLIC	?ItemGetDefenseDurability@@YAHH@Z		; ItemGetDefenseDurability
; Function compile flags: /Ogtp
;	COMDAT ?ItemGetDefenseDurability@@YAHH@Z
_TEXT	SEGMENT
_index$ = 8						; size = 4
?ItemGetDefenseDurability@@YAHH@Z PROC			; ItemGetDefenseDurability, COMDAT

; 5153 : {

  00000	55		 push	 ebp
  00001	8b ec		 mov	 ebp, esp

; 5154 : 	return ItemAttribute[index].DefenceDur;

  00003	8b 45 08	 mov	 eax, DWORD PTR _index$[ebp]
  00006	6b c0 70	 imul	 eax, 112		; 00000070H
  00009	0f b6 80 33 00
	00 00		 movzx	 eax, BYTE PTR ?ItemAttribute@@3PAUITEM_ATTRIBUTE@@A[eax+51]

; 5155 : }

  00010	5d		 pop	 ebp
  00011	c3		 ret	 0
?ItemGetDefenseDurability@@YAHH@Z ENDP			; ItemGetDefenseDurability
_TEXT	ENDS
PUBLIC	?GetRepairItemRate@@YAMH@Z			; GetRepairItemRate
; Function compile flags: /Ogtp
;	COMDAT ?GetRepairItemRate@@YAMH@Z
_TEXT	SEGMENT
_index$ = 8						; size = 4
?GetRepairItemRate@@YAMH@Z PROC				; GetRepairItemRate, COMDAT

; 5158 : {

  00000	55		 push	 ebp
  00001	8b ec		 mov	 ebp, esp

; 5159 : 	return ItemAttribute[index].RepaireMoneyRate;

  00003	8b 45 08	 mov	 eax, DWORD PTR _index$[ebp]
  00006	6b c0 70	 imul	 eax, 112		; 00000070H
  00009	d9 80 58 00 00
	00		 fld	 DWORD PTR ?ItemAttribute@@3PAUITEM_ATTRIBUTE@@A[eax+88]

; 5160 : }

  0000f	5d		 pop	 ebp
  00010	c3		 ret	 0
?GetRepairItemRate@@YAMH@Z ENDP				; GetRepairItemRate
_TEXT	ENDS
PUBLIC	?GetAllRepairItemRate@@YAMH@Z			; GetAllRepairItemRate
; Function compile flags: /Ogtp
;	COMDAT ?GetAllRepairItemRate@@YAMH@Z
_TEXT	SEGMENT
_index$ = 8						; size = 4
?GetAllRepairItemRate@@YAMH@Z PROC			; GetAllRepairItemRate, COMDAT

; 5163 : {

  00000	55		 push	 ebp
  00001	8b ec		 mov	 ebp, esp

; 5164 : 	return ItemAttribute[index].AllRepaireMoneyRate;

  00003	8b 45 08	 mov	 eax, DWORD PTR _index$[ebp]
  00006	6b c0 70	 imul	 eax, 112		; 00000070H
  00009	d9 80 5c 00 00
	00		 fld	 DWORD PTR ?ItemAttribute@@3PAUITEM_ATTRIBUTE@@A[eax+92]

; 5165 : }

  0000f	5d		 pop	 ebp
  00010	c3		 ret	 0
?GetAllRepairItemRate@@YAMH@Z ENDP			; GetAllRepairItemRate
_TEXT	ENDS
PUBLIC	__real@3ecccccd
PUBLIC	__real@3dcccccd
PUBLIC	?CalRepairRate@@YAXHHPAUITEM_ATTRIBUTE@@@Z	; CalRepairRate
;	COMDAT __real@3ecccccd
CONST	SEGMENT
__real@3ecccccd DD 03ecccccdr			; 0.4
CONST	ENDS
;	COMDAT __real@3dcccccd
CONST	SEGMENT
__real@3dcccccd DD 03dcccccdr			; 0.1
; Function compile flags: /Ogtp
CONST	ENDS
;	COMDAT ?CalRepairRate@@YAXHHPAUITEM_ATTRIBUTE@@@Z
_TEXT	SEGMENT
_itemtype$ = 8						; size = 4
_itemsubtype$ = 12					; size = 4
_p$ = 16						; size = 4
?CalRepairRate@@YAXHHPAUITEM_ATTRIBUTE@@@Z PROC		; CalRepairRate, COMDAT

; 5168 : {

  00000	55		 push	 ebp
  00001	8b ec		 mov	 ebp, esp

; 5169 : 	p->RepaireMoneyRate = (float)0.1;

  00003	8b 45 10	 mov	 eax, DWORD PTR _p$[ebp]
  00006	d9 05 00 00 00
	00		 fld	 DWORD PTR __real@3dcccccd
  0000c	d9 58 58	 fstp	 DWORD PTR [eax+88]

; 5170 : 	p->AllRepaireMoneyRate = (float)0.4;

  0000f	d9 05 00 00 00
	00		 fld	 DWORD PTR __real@3ecccccd
  00015	d9 58 5c	 fstp	 DWORD PTR [eax+92]

; 5171 : }

  00018	5d		 pop	 ebp
  00019	c3		 ret	 0
?CalRepairRate@@YAXHHPAUITEM_ATTRIBUTE@@@Z ENDP		; CalRepairRate
_TEXT	ENDS
PUBLIC	??_C@_0DN@NLHNDLLL@Error?5?3?5Item?5Data?5fail?4?5?$CILoopCou@ ; `string'
PUBLIC	??_C@_03JBJLGPFL@end?$AA@			; `string'
PUBLIC	??_C@_01KDCPPGHE@r?$AA@				; `string'
PUBLIC	?OpenItemScript@@YAHPAD@Z			; OpenItemScript
EXTRN	_fclose:PROC
EXTRN	?MsgBox@@YAXPADZZ:PROC				; MsgBox
EXTRN	_fopen:PROC
;	COMDAT ??_C@_0DN@NLHNDLLL@Error?5?3?5Item?5Data?5fail?4?5?$CILoopCou@
CONST	SEGMENT
??_C@_0DN@NLHNDLLL@Error?5?3?5Item?5Data?5fail?4?5?$CILoopCou@ DB 'Error '
	DB	': Item Data fail. (LoopCount:%d) Item Type:%d Index %d', 00H ; `string'
CONST	ENDS
;	COMDAT ??_C@_03JBJLGPFL@end?$AA@
CONST	SEGMENT
??_C@_03JBJLGPFL@end?$AA@ DB 'end', 00H			; `string'
CONST	ENDS
;	COMDAT ??_C@_01KDCPPGHE@r?$AA@
CONST	SEGMENT
??_C@_01KDCPPGHE@r?$AA@ DB 'r', 00H			; `string'
; Function compile flags: /Ogtp
CONST	ENDS
;	COMDAT ?OpenItemScript@@YAHPAD@Z
_TEXT	SEGMENT
tv974 = -12						; size = 4
tv972 = -12						; size = 4
tv966 = -12						; size = 4
tv964 = -12						; size = 4
tv958 = -12						; size = 4
tv956 = -12						; size = 4
tv950 = -12						; size = 4
tv948 = -12						; size = 4
tv942 = -12						; size = 4
tv940 = -12						; size = 4
tv770 = -12						; size = 4
tv768 = -12						; size = 4
tv762 = -12						; size = 4
tv760 = -12						; size = 4
tv749 = -12						; size = 4
tv747 = -12						; size = 4
tv741 = -12						; size = 4
tv739 = -12						; size = 4
tv732 = -12						; size = 4
tv730 = -12						; size = 4
tv724 = -12						; size = 4
tv722 = -12						; size = 4
tv716 = -12						; size = 4
tv714 = -12						; size = 4
tv708 = -12						; size = 4
tv706 = -12						; size = 4
tv700 = -12						; size = 4
tv698 = -12						; size = 4
tv692 = -12						; size = 4
tv690 = -12						; size = 4
tv679 = -12						; size = 4
tv677 = -12						; size = 4
tv671 = -12						; size = 4
tv669 = -12						; size = 4
tv662 = -12						; size = 4
tv660 = -12						; size = 4
tv653 = -12						; size = 4
tv651 = -12						; size = 4
tv645 = -12						; size = 4
tv642 = -12						; size = 4
tv630 = -12						; size = 4
tv628 = -12						; size = 4
tv622 = -12						; size = 4
tv620 = -12						; size = 4
tv614 = -12						; size = 4
tv612 = -12						; size = 4
tv606 = -12						; size = 4
tv603 = -12						; size = 4
tv596 = -12						; size = 4
tv593 = -12						; size = 4
tv586 = -12						; size = 4
tv584 = -12						; size = 4
tv578 = -12						; size = 4
tv575 = -12						; size = 4
tv569 = -12						; size = 4
tv567 = -12						; size = 4
tv559 = -12						; size = 4
tv557 = -12						; size = 4
tv551 = -12						; size = 4
tv549 = -12						; size = 4
tv510 = -12						; size = 4
tv508 = -12						; size = 4
tv501 = -12						; size = 4
tv499 = -12						; size = 4
tv493 = -12						; size = 4
tv491 = -12						; size = 4
tv485 = -12						; size = 4
tv483 = -12						; size = 4
tv474 = -12						; size = 4
tv455 = -12						; size = 4
tv420 = -12						; size = 4
tv403 = -12						; size = 4
tv400 = -12						; size = 4
tv392 = -12						; size = 4
tv390 = -12						; size = 4
tv380 = -12						; size = 4
tv378 = -12						; size = 4
tv371 = -12						; size = 4
tv369 = -12						; size = 4
tv363 = -12						; size = 4
tv361 = -12						; size = 4
tv354 = -12						; size = 4
tv352 = -12						; size = 4
tv346 = -12						; size = 4
tv344 = -12						; size = 4
tv338 = -12						; size = 4
tv336 = -12						; size = 4
tv329 = -12						; size = 4
tv327 = -12						; size = 4
tv320 = -12						; size = 4
tv318 = -12						; size = 4
tv309 = -12						; size = 4
tv306 = -12						; size = 4
tv298 = -12						; size = 4
tv295 = -12						; size = 4
tv287 = -12						; size = 4
tv285 = -12						; size = 4
tv278 = -12						; size = 4
tv275 = -12						; size = 4
tv269 = -12						; size = 4
tv267 = -12						; size = 4
tv261 = -12						; size = 4
tv259 = -12						; size = 4
tv253 = -12						; size = 4
tv251 = -12						; size = 4
tv244 = -12						; size = 4
tv242 = -12						; size = 4
tv223 = -12						; size = 4
tv220 = -12						; size = 4
tv210 = -12						; size = 4
tv208 = -12						; size = 4
tv202 = -12						; size = 4
tv200 = -12						; size = 4
tv177 = -12						; size = 4
tv171 = -12						; size = 4
tv157 = -12						; size = 4
tv151 = -12						; size = 4
tv91 = -12						; size = 4
_loop_count$ = -8					; size = 4
tv969 = -2						; size = 2
tv961 = -2						; size = 2
tv953 = -2						; size = 2
tv945 = -2						; size = 2
tv773 = -2						; size = 2
tv765 = -2						; size = 2
tv752 = -2						; size = 2
tv744 = -2						; size = 2
tv735 = -2						; size = 2
tv727 = -2						; size = 2
tv719 = -2						; size = 2
tv711 = -2						; size = 2
tv703 = -2						; size = 2
tv695 = -2						; size = 2
tv682 = -2						; size = 2
tv674 = -2						; size = 2
tv665 = -2						; size = 2
tv656 = -2						; size = 2
tv648 = -2						; size = 2
tv633 = -2						; size = 2
tv625 = -2						; size = 2
tv617 = -2						; size = 2
tv609 = -2						; size = 2
tv599 = -2						; size = 2
tv590 = -2						; size = 2
tv581 = -2						; size = 2
tv572 = -2						; size = 2
tv563 = -2						; size = 2
tv554 = -2						; size = 2
tv546 = -2						; size = 2
tv504 = -2						; size = 2
tv496 = -2						; size = 2
tv488 = -2						; size = 2
tv480 = -2						; size = 2
tv407 = -2						; size = 2
tv396 = -2						; size = 2
tv384 = -2						; size = 2
tv374 = -2						; size = 2
tv366 = -2						; size = 2
tv357 = -2						; size = 2
tv349 = -2						; size = 2
tv341 = -2						; size = 2
tv333 = -2						; size = 2
tv324 = -2						; size = 2
tv312 = -2						; size = 2
tv302 = -2						; size = 2
tv291 = -2						; size = 2
tv281 = -2						; size = 2
tv272 = -2						; size = 2
tv264 = -2						; size = 2
tv256 = -2						; size = 2
tv247 = -2						; size = 2
tv227 = -2						; size = 2
tv215 = -2						; size = 2
tv205 = -2						; size = 2
tv186 = -2						; size = 2
tv164 = -2						; size = 2
tv142 = -2						; size = 2
tv136 = -2						; size = 2
_FileName$ = 8						; size = 4
?OpenItemScript@@YAHPAD@Z PROC				; OpenItemScript, COMDAT

; 5174 : {

  00000	55		 push	 ebp
  00001	8b ec		 mov	 ebp, esp

; 5175 : 	int loop_count;
; 5176 : 	int n;
; 5177 : 	int Token;
; 5178 : 
; 5179 : 	SMDFile = fopen(FileName, "r");

  00003	8b 45 08	 mov	 eax, DWORD PTR _FileName$[ebp]
  00006	83 ec 0c	 sub	 esp, 12			; 0000000cH
  00009	68 00 00 00 00	 push	 OFFSET ??_C@_01KDCPPGHE@r?$AA@
  0000e	50		 push	 eax
  0000f	e8 00 00 00 00	 call	 _fopen
  00014	83 c4 08	 add	 esp, 8
  00017	a3 00 00 00 00	 mov	 DWORD PTR _SMDFile, eax

; 5180 : 
; 5181 : 	if ( SMDFile == 0 )

  0001c	85 c0		 test	 eax, eax
  0001e	75 04		 jne	 SHORT $LN38@OpenItemSc

; 5536 : }

  00020	8b e5		 mov	 esp, ebp
  00022	5d		 pop	 ebp
  00023	c3		 ret	 0
$LN38@OpenItemSc:

; 5182 : 	{
; 5183 : 		return FALSE;
; 5184 : 	}
; 5185 : 
; 5186 : 	memset ( ItemAttribute, 0, sizeof(ItemAttribute) );

  00024	68 00 00 0e 00	 push	 917504			; 000e0000H
  00029	6a 00		 push	 0
  0002b	68 00 00 00 00	 push	 OFFSET ?ItemAttribute@@3PAUITEM_ATTRIBUTE@@A
  00030	e8 00 00 00 00	 call	 _memset
  00035	d9 ee		 fldz
  00037	83 c4 0c	 add	 esp, 12			; 0000000cH
  0003a	b8 58 00 00 00	 mov	 eax, OFFSET ?ItemAttribute@@3PAUITEM_ATTRIBUTE@@A+88
$LN37@OpenItemSc:

; 5187 : 	
; 5188 : 	for ( n=0;n<MAX_ITEMS;n++)
; 5189 : 	{
; 5190 : 		ItemAttribute[n].Level = -1;
; 5191 : 		ItemAttribute[n].RepaireMoneyRate  = 0;

  0003f	d9 10		 fst	 DWORD PTR [eax]
  00041	c6 40 ca ff	 mov	 BYTE PTR [eax-54], 255	; 000000ffH

; 5192 : 		ItemAttribute[n].AllRepaireMoneyRate  = 0;

  00045	d9 50 04	 fst	 DWORD PTR [eax+4]
  00048	83 c0 70	 add	 eax, 112		; 00000070H
  0004b	3d 58 00 0e 00	 cmp	 eax, OFFSET ?ItemAttribute@@3PAUITEM_ATTRIBUTE@@A+917592
  00050	7c ed		 jl	 SHORT $LN37@OpenItemSc

; 5193 : 	}
; 5194 : 
; 5195 : 	
; 5196 : 	while ( true )
; 5197 : 	{
; 5198 : 		Token = GetToken();

  00052	dd d8		 fstp	 ST(0)
  00054	e8 00 00 00 00	 call	 ?GetToken@@YA?AW4SMDToken@@XZ ; GetToken

; 5199 : 
; 5200 : 		if ( Token == 2 )

  00059	83 f8 02	 cmp	 eax, 2
  0005c	0f 84 1b 0c 00
	00		 je	 $LN62@OpenItemSc
  00062	53		 push	 ebx
  00063	56		 push	 esi
  00064	57		 push	 edi
$LL34@OpenItemSc:

; 5201 : 		{
; 5202 : 			break;
; 5203 : 		}
; 5204 : 		if ( Token == 1 )

  00065	83 f8 01	 cmp	 eax, 1
  00068	0f 85 fe 0b 00
	00		 jne	 $LN1@OpenItemSc

; 5205 : 		{
; 5206 : 			int ItemType;
; 5207 : 
; 5208 : 			ItemType = (int)TokenNumber;

  0006e	d9 05 00 00 00
	00		 fld	 DWORD PTR _TokenNumber
  00074	e8 00 00 00 00	 call	 __ftol2_sse
  00079	8b f8		 mov	 edi, eax

; 5209 : 			loop_count = 0;

  0007b	c7 45 f8 00 00
	00 00		 mov	 DWORD PTR _loop_count$[ebp], 0
$LL30@OpenItemSc:

; 5210 : 			while ( true )
; 5211 : 			{
; 5212 : 				int ItemSubType;
; 5213 : 				LPITEM_ATTRIBUTE p;
; 5214 : 				
; 5215 : 				Token = GetToken();

  00082	e8 00 00 00 00	 call	 ?GetToken@@YA?AW4SMDToken@@XZ ; GetToken

; 5216 : 				ItemSubType = (int)TokenNumber;

  00087	d9 05 00 00 00
	00		 fld	 DWORD PTR _TokenNumber
  0008d	8b f0		 mov	 esi, eax
  0008f	e8 00 00 00 00	 call	 __ftol2_sse
  00094	8b d8		 mov	 ebx, eax

; 5217 : 
; 5218 : 				if ( ItemType >= 0 && ItemType < MAX_TYPE_ITEMS )

  00096	83 ff 0f	 cmp	 edi, 15			; 0000000fH
  00099	77 10		 ja	 SHORT $LN27@OpenItemSc

; 5219 : 				{
; 5220 : 					if ( g_MaxItemIndexOfEachItemType[ItemType] <= ItemSubType )

  0009b	39 1c bd 00 00
	00 00		 cmp	 DWORD PTR ?g_MaxItemIndexOfEachItemType@@3PAHA[edi*4], ebx
  000a2	7f 07		 jg	 SHORT $LN27@OpenItemSc

; 5221 : 					{
; 5222 : 						g_MaxItemIndexOfEachItemType[ItemType] = ItemSubType;

  000a4	89 1c bd 00 00
	00 00		 mov	 DWORD PTR ?g_MaxItemIndexOfEachItemType@@3PAHA[edi*4], ebx
$LN27@OpenItemSc:

; 5223 : 					}
; 5224 : 				}
; 5225 : 
; 5226 : 				
; 5227 : 				if ( Token == 0 )

  000ab	85 f6		 test	 esi, esi
  000ad	75 3e		 jne	 SHORT $LN25@OpenItemSc

; 5228 : 				{
; 5229 : 					if ( strcmp("end", TokenString ) == 0 )

  000af	b9 00 00 00 00	 mov	 ecx, OFFSET _TokenString
  000b4	b8 00 00 00 00	 mov	 eax, OFFSET ??_C@_03JBJLGPFL@end?$AA@
  000b9	8d a4 24 00 00
	00 00		 npad	 7
$LL55@OpenItemSc:
  000c0	8a 10		 mov	 dl, BYTE PTR [eax]
  000c2	3a 11		 cmp	 dl, BYTE PTR [ecx]
  000c4	75 1a		 jne	 SHORT $LN56@OpenItemSc
  000c6	84 d2		 test	 dl, dl
  000c8	74 12		 je	 SHORT $LN57@OpenItemSc
  000ca	8a 50 01	 mov	 dl, BYTE PTR [eax+1]
  000cd	3a 51 01	 cmp	 dl, BYTE PTR [ecx+1]
  000d0	75 0e		 jne	 SHORT $LN56@OpenItemSc
  000d2	83 c0 02	 add	 eax, 2
  000d5	83 c1 02	 add	 ecx, 2
  000d8	84 d2		 test	 dl, dl
  000da	75 e4		 jne	 SHORT $LL55@OpenItemSc
$LN57@OpenItemSc:
  000dc	33 c0		 xor	 eax, eax
  000de	eb 05		 jmp	 SHORT $LN58@OpenItemSc
$LN56@OpenItemSc:
  000e0	1b c0		 sbb	 eax, eax
  000e2	83 d8 ff	 sbb	 eax, -1
$LN58@OpenItemSc:
  000e5	85 c0		 test	 eax, eax
  000e7	0f 84 76 0b 00
	00		 je	 $LN61@OpenItemSc
$LN25@OpenItemSc:

; 5230 : 					{
; 5231 : 						break;
; 5232 : 					}
; 5233 : 				}
; 5234 : 					
; 5235 : 				p = &ItemAttribute[ItemType*MAX_SUBTYPE_ITEMS + ItemSubType];

  000ed	8b f7		 mov	 esi, edi
  000ef	c1 e6 09	 shl	 esi, 9
  000f2	03 f3		 add	 esi, ebx
  000f4	6b f6 70	 imul	 esi, 112		; 00000070H
  000f7	81 c6 00 00 00
	00		 add	 esi, OFFSET ?ItemAttribute@@3PAUITEM_ATTRIBUTE@@A

; 5236 : 
; 5237 : 				Token = GetToken();

  000fd	e8 00 00 00 00	 call	 ?GetToken@@YA?AW4SMDToken@@XZ ; GetToken

; 5238 : 				p->ItemSlot = (int)TokenNumber;

  00102	d9 05 00 00 00
	00		 fld	 DWORD PTR _TokenNumber
  00108	e8 00 00 00 00	 call	 __ftol2_sse
  0010d	89 46 64	 mov	 DWORD PTR [esi+100], eax

; 5239 : 
; 5240 : 				Token = GetToken();

  00110	e8 00 00 00 00	 call	 ?GetToken@@YA?AW4SMDToken@@XZ ; GetToken

; 5241 : 				p->SkillType = (int)TokenNumber;

  00115	d9 05 00 00 00
	00		 fld	 DWORD PTR _TokenNumber
  0011b	e8 00 00 00 00	 call	 __ftol2_sse
  00120	89 46 68	 mov	 DWORD PTR [esi+104], eax

; 5242 : 
; 5243 : 				Token = GetToken();

  00123	e8 00 00 00 00	 call	 ?GetToken@@YA?AW4SMDToken@@XZ ; GetToken

; 5244 : 				p->Width  = (BYTE)TokenNumber;

  00128	d9 05 00 00 00
	00		 fld	 DWORD PTR _TokenNumber
  0012e	d9 7d fe	 fnstcw	 WORD PTR tv773[ebp]
  00131	0f b7 45 fe	 movzx	 eax, WORD PTR tv773[ebp]
  00135	0d 00 0c 00 00	 or	 eax, 3072		; 00000c00H
  0013a	89 45 f4	 mov	 DWORD PTR tv770[ebp], eax
  0013d	d9 6d f4	 fldcw	 WORD PTR tv770[ebp]
  00140	db 5d f4	 fistp	 DWORD PTR tv768[ebp]
  00143	0f b6 4d f4	 movzx	 ecx, BYTE PTR tv768[ebp]
  00147	88 4e 23	 mov	 BYTE PTR [esi+35], cl
  0014a	d9 6d fe	 fldcw	 WORD PTR tv773[ebp]

; 5245 : 
; 5246 : 				Token = GetToken();

  0014d	e8 00 00 00 00	 call	 ?GetToken@@YA?AW4SMDToken@@XZ ; GetToken

; 5247 : 				p->Height  = (BYTE)TokenNumber;

  00152	d9 05 00 00 00
	00		 fld	 DWORD PTR _TokenNumber
  00158	d9 7d fe	 fnstcw	 WORD PTR tv765[ebp]
  0015b	0f b7 45 fe	 movzx	 eax, WORD PTR tv765[ebp]
  0015f	0d 00 0c 00 00	 or	 eax, 3072		; 00000c00H
  00164	89 45 f4	 mov	 DWORD PTR tv762[ebp], eax
  00167	d9 6d f4	 fldcw	 WORD PTR tv762[ebp]
  0016a	db 5d f4	 fistp	 DWORD PTR tv760[ebp]
  0016d	8a 55 f4	 mov	 dl, BYTE PTR tv760[ebp]
  00170	88 56 24	 mov	 BYTE PTR [esi+36], dl
  00173	d9 6d fe	 fldcw	 WORD PTR tv765[ebp]

; 5248 : 
; 5249 : 				Token = GetToken();

  00176	e8 00 00 00 00	 call	 ?GetToken@@YA?AW4SMDToken@@XZ ; GetToken

; 5250 : 				p->Serial = (char)TokenNumber;

  0017b	d9 05 00 00 00
	00		 fld	 DWORD PTR _TokenNumber
  00181	e8 00 00 00 00	 call	 __ftol2_sse
  00186	88 46 25	 mov	 BYTE PTR [esi+37], al

; 5251 : 
; 5252 : 				Token = GetToken();

  00189	e8 00 00 00 00	 call	 ?GetToken@@YA?AW4SMDToken@@XZ ; GetToken

; 5253 : 				p->OptionFlag = (BYTE)TokenNumber;

  0018e	d9 05 00 00 00
	00		 fld	 DWORD PTR _TokenNumber
  00194	d9 7d fe	 fnstcw	 WORD PTR tv752[ebp]
  00197	0f b7 45 fe	 movzx	 eax, WORD PTR tv752[ebp]
  0019b	0d 00 0c 00 00	 or	 eax, 3072		; 00000c00H
  001a0	89 45 f4	 mov	 DWORD PTR tv749[ebp], eax
  001a3	d9 6d f4	 fldcw	 WORD PTR tv749[ebp]
  001a6	db 5d f4	 fistp	 DWORD PTR tv747[ebp]
  001a9	8a 45 f4	 mov	 al, BYTE PTR tv747[ebp]
  001ac	88 46 26	 mov	 BYTE PTR [esi+38], al
  001af	d9 6d fe	 fldcw	 WORD PTR tv752[ebp]

; 5254 : 
; 5255 : 				Token = GetToken();

  001b2	e8 00 00 00 00	 call	 ?GetToken@@YA?AW4SMDToken@@XZ ; GetToken

; 5256 : 				p->MondownFlag = (BYTE)TokenNumber;

  001b7	d9 05 00 00 00
	00		 fld	 DWORD PTR _TokenNumber
  001bd	d9 7d fe	 fnstcw	 WORD PTR tv744[ebp]
  001c0	0f b7 45 fe	 movzx	 eax, WORD PTR tv744[ebp]
  001c4	0d 00 0c 00 00	 or	 eax, 3072		; 00000c00H
  001c9	89 45 f4	 mov	 DWORD PTR tv741[ebp], eax
  001cc	d9 6d f4	 fldcw	 WORD PTR tv741[ebp]
  001cf	db 5d f4	 fistp	 DWORD PTR tv739[ebp]
  001d2	0f b6 4d f4	 movzx	 ecx, BYTE PTR tv739[ebp]
  001d6	88 4e 27	 mov	 BYTE PTR [esi+39], cl
  001d9	d9 6d fe	 fldcw	 WORD PTR tv744[ebp]

; 5257 : 
; 5258 : 				Token = GetToken();

  001dc	e8 00 00 00 00	 call	 ?GetToken@@YA?AW4SMDToken@@XZ ; GetToken

; 5259 : 				strcpy(&p->Name[0], TokenString );

  001e1	b8 00 00 00 00	 mov	 eax, OFFSET _TokenString
  001e6	8b d6		 mov	 edx, esi
  001e8	2b d0		 sub	 edx, eax
  001ea	8d 9b 00 00 00
	00		 npad	 6
$LL41@OpenItemSc:
  001f0	8a 08		 mov	 cl, BYTE PTR [eax]
  001f2	88 0c 02	 mov	 BYTE PTR [edx+eax], cl
  001f5	40		 inc	 eax
  001f6	84 c9		 test	 cl, cl
  001f8	75 f6		 jne	 SHORT $LL41@OpenItemSc

; 5260 : 
; 5261 : 				if ( ItemType >= 0 && ItemType <= 5 )

  001fa	83 ff 05	 cmp	 edi, 5
  001fd	0f 87 09 02 00
	00		 ja	 $LN59@OpenItemSc

; 5262 : 				{
; 5263 : 					Token = GetToken();

  00203	e8 00 00 00 00	 call	 ?GetToken@@YA?AW4SMDToken@@XZ ; GetToken

; 5264 : 					p->Level = (BYTE)TokenNumber;

  00208	d9 05 00 00 00
	00		 fld	 DWORD PTR _TokenNumber
  0020e	d9 7d fe	 fnstcw	 WORD PTR tv735[ebp]
  00211	0f b7 45 fe	 movzx	 eax, WORD PTR tv735[ebp]
  00215	0d 00 0c 00 00	 or	 eax, 3072		; 00000c00H
  0021a	89 45 f4	 mov	 DWORD PTR tv732[ebp], eax
  0021d	d9 6d f4	 fldcw	 WORD PTR tv732[ebp]
  00220	db 5d f4	 fistp	 DWORD PTR tv730[ebp]
  00223	0f b6 55 f4	 movzx	 edx, BYTE PTR tv730[ebp]
  00227	88 56 22	 mov	 BYTE PTR [esi+34], dl
  0022a	d9 6d fe	 fldcw	 WORD PTR tv735[ebp]

; 5265 : 
; 5266 : 					Token = GetToken();

  0022d	e8 00 00 00 00	 call	 ?GetToken@@YA?AW4SMDToken@@XZ ; GetToken

; 5267 : 					p->DamageMin = (BYTE)TokenNumber;

  00232	d9 05 00 00 00
	00		 fld	 DWORD PTR _TokenNumber
  00238	d9 7d fe	 fnstcw	 WORD PTR tv727[ebp]
  0023b	0f b7 45 fe	 movzx	 eax, WORD PTR tv727[ebp]
  0023f	0d 00 0c 00 00	 or	 eax, 3072		; 00000c00H
  00244	89 45 f4	 mov	 DWORD PTR tv724[ebp], eax
  00247	d9 6d f4	 fldcw	 WORD PTR tv724[ebp]
  0024a	db 5d f4	 fistp	 DWORD PTR tv722[ebp]
  0024d	0f b6 45 f4	 movzx	 eax, BYTE PTR tv722[ebp]
  00251	88 46 2a	 mov	 BYTE PTR [esi+42], al
  00254	d9 6d fe	 fldcw	 WORD PTR tv727[ebp]

; 5268 : 
; 5269 : 					Token = GetToken();

  00257	e8 00 00 00 00	 call	 ?GetToken@@YA?AW4SMDToken@@XZ ; GetToken

; 5270 : 					p->DamageMax = (BYTE)TokenNumber;

  0025c	d9 05 00 00 00
	00		 fld	 DWORD PTR _TokenNumber
  00262	d9 7d fe	 fnstcw	 WORD PTR tv719[ebp]
  00265	0f b7 45 fe	 movzx	 eax, WORD PTR tv719[ebp]
  00269	0d 00 0c 00 00	 or	 eax, 3072		; 00000c00H
  0026e	89 45 f4	 mov	 DWORD PTR tv716[ebp], eax
  00271	d9 6d f4	 fldcw	 WORD PTR tv716[ebp]
  00274	db 5d f4	 fistp	 DWORD PTR tv714[ebp]
  00277	0f b6 4d f4	 movzx	 ecx, BYTE PTR tv714[ebp]
  0027b	88 4e 2b	 mov	 BYTE PTR [esi+43], cl
  0027e	d9 6d fe	 fldcw	 WORD PTR tv719[ebp]

; 5271 : 
; 5272 : 					Token = GetToken();

  00281	e8 00 00 00 00	 call	 ?GetToken@@YA?AW4SMDToken@@XZ ; GetToken

; 5273 : 					p->AttackSpeed = (BYTE)TokenNumber;

  00286	d9 05 00 00 00
	00		 fld	 DWORD PTR _TokenNumber
  0028c	d9 7d fe	 fnstcw	 WORD PTR tv711[ebp]
  0028f	0f b7 45 fe	 movzx	 eax, WORD PTR tv711[ebp]
  00293	0d 00 0c 00 00	 or	 eax, 3072		; 00000c00H
  00298	89 45 f4	 mov	 DWORD PTR tv708[ebp], eax
  0029b	d9 6d f4	 fldcw	 WORD PTR tv708[ebp]
  0029e	db 5d f4	 fistp	 DWORD PTR tv706[ebp]
  002a1	0f b6 55 f4	 movzx	 edx, BYTE PTR tv706[ebp]
  002a5	88 56 28	 mov	 BYTE PTR [esi+40], dl
  002a8	d9 6d fe	 fldcw	 WORD PTR tv711[ebp]

; 5274 : 
; 5275 : 					Token = GetToken();

  002ab	e8 00 00 00 00	 call	 ?GetToken@@YA?AW4SMDToken@@XZ ; GetToken

; 5276 : 					p->Durability = (BYTE)TokenNumber;

  002b0	d9 05 00 00 00
	00		 fld	 DWORD PTR _TokenNumber
  002b6	d9 7d fe	 fnstcw	 WORD PTR tv703[ebp]
  002b9	0f b7 45 fe	 movzx	 eax, WORD PTR tv703[ebp]
  002bd	0d 00 0c 00 00	 or	 eax, 3072		; 00000c00H
  002c2	89 45 f4	 mov	 DWORD PTR tv700[ebp], eax
  002c5	d9 6d f4	 fldcw	 WORD PTR tv700[ebp]
  002c8	db 5d f4	 fistp	 DWORD PTR tv698[ebp]
  002cb	0f b6 45 f4	 movzx	 eax, BYTE PTR tv698[ebp]
  002cf	88 46 30	 mov	 BYTE PTR [esi+48], al
  002d2	d9 6d fe	 fldcw	 WORD PTR tv703[ebp]

; 5277 : 
; 5278 : 					Token = GetToken();

  002d5	e8 00 00 00 00	 call	 ?GetToken@@YA?AW4SMDToken@@XZ ; GetToken

; 5279 : 					p->MagicDurability = (BYTE)TokenNumber;

  002da	d9 05 00 00 00
	00		 fld	 DWORD PTR _TokenNumber
  002e0	d9 7d fe	 fnstcw	 WORD PTR tv695[ebp]
  002e3	0f b7 45 fe	 movzx	 eax, WORD PTR tv695[ebp]
  002e7	0d 00 0c 00 00	 or	 eax, 3072		; 00000c00H
  002ec	89 45 f4	 mov	 DWORD PTR tv692[ebp], eax
  002ef	d9 6d f4	 fldcw	 WORD PTR tv692[ebp]
  002f2	db 5d f4	 fistp	 DWORD PTR tv690[ebp]
  002f5	0f b6 4d f4	 movzx	 ecx, BYTE PTR tv690[ebp]
  002f9	88 4e 31	 mov	 BYTE PTR [esi+49], cl
  002fc	d9 6d fe	 fldcw	 WORD PTR tv695[ebp]

; 5280 : 
; 5281 : 					Token = GetToken();

  002ff	e8 00 00 00 00	 call	 ?GetToken@@YA?AW4SMDToken@@XZ ; GetToken

; 5282 : 					p->MagicPW = (int)TokenNumber;

  00304	d9 05 00 00 00
	00		 fld	 DWORD PTR _TokenNumber
  0030a	e8 00 00 00 00	 call	 __ftol2_sse
  0030f	89 46 54	 mov	 DWORD PTR [esi+84], eax

; 5283 : 
; 5284 : 					Token = GetToken();

  00312	e8 00 00 00 00	 call	 ?GetToken@@YA?AW4SMDToken@@XZ ; GetToken

; 5285 : 					p->RequireLevel = (WORD)TokenNumber;

  00317	d9 05 00 00 00
	00		 fld	 DWORD PTR _TokenNumber
  0031d	d9 7d fe	 fnstcw	 WORD PTR tv682[ebp]
  00320	0f b7 45 fe	 movzx	 eax, WORD PTR tv682[ebp]
  00324	0d 00 0c 00 00	 or	 eax, 3072		; 00000c00H
  00329	89 45 f4	 mov	 DWORD PTR tv679[ebp], eax
  0032c	d9 6d f4	 fldcw	 WORD PTR tv679[ebp]
  0032f	db 5d f4	 fistp	 DWORD PTR tv677[ebp]
  00332	0f b7 55 f4	 movzx	 edx, WORD PTR tv677[ebp]
  00336	66 89 56 3a	 mov	 WORD PTR [esi+58], dx
  0033a	d9 6d fe	 fldcw	 WORD PTR tv682[ebp]

; 5286 : 
; 5287 : 					Token = GetToken();

  0033d	e8 00 00 00 00	 call	 ?GetToken@@YA?AW4SMDToken@@XZ ; GetToken

; 5288 : 					p->RequireStrength = (WORD)TokenNumber;

  00342	d9 05 00 00 00
	00		 fld	 DWORD PTR _TokenNumber
  00348	d9 7d fe	 fnstcw	 WORD PTR tv674[ebp]
  0034b	0f b7 45 fe	 movzx	 eax, WORD PTR tv674[ebp]
  0034f	0d 00 0c 00 00	 or	 eax, 3072		; 00000c00H
  00354	89 45 f4	 mov	 DWORD PTR tv671[ebp], eax
  00357	d9 6d f4	 fldcw	 WORD PTR tv671[ebp]
  0035a	db 5d f4	 fistp	 DWORD PTR tv669[ebp]
  0035d	0f b7 45 f4	 movzx	 eax, WORD PTR tv669[ebp]
  00361	66 89 46 34	 mov	 WORD PTR [esi+52], ax
  00365	d9 6d fe	 fldcw	 WORD PTR tv674[ebp]

; 5289 : 
; 5290 : 					Token = GetToken();

  00368	e8 00 00 00 00	 call	 ?GetToken@@YA?AW4SMDToken@@XZ ; GetToken

; 5291 : 					p->RequireDexterity = (WORD)TokenNumber;

  0036d	d9 05 00 00 00
	00		 fld	 DWORD PTR _TokenNumber
  00373	d9 7d fe	 fnstcw	 WORD PTR tv665[ebp]
  00376	0f b7 45 fe	 movzx	 eax, WORD PTR tv665[ebp]
  0037a	0d 00 0c 00 00	 or	 eax, 3072		; 00000c00H
  0037f	89 45 f4	 mov	 DWORD PTR tv662[ebp], eax
  00382	d9 6d f4	 fldcw	 WORD PTR tv662[ebp]
  00385	db 5d f4	 fistp	 DWORD PTR tv660[ebp]
  00388	66 8b 4d f4	 mov	 cx, WORD PTR tv660[ebp]
  0038c	66 89 4e 36	 mov	 WORD PTR [esi+54], cx
  00390	d9 6d fe	 fldcw	 WORD PTR tv665[ebp]

; 5292 : 
; 5293 : 					Token = GetToken();

  00393	e8 00 00 00 00	 call	 ?GetToken@@YA?AW4SMDToken@@XZ ; GetToken

; 5294 : 					p->RequireEnergy = (WORD)TokenNumber;

  00398	d9 05 00 00 00
	00		 fld	 DWORD PTR _TokenNumber
  0039e	d9 7d fe	 fnstcw	 WORD PTR tv656[ebp]
  003a1	0f b7 45 fe	 movzx	 eax, WORD PTR tv656[ebp]
  003a5	0d 00 0c 00 00	 or	 eax, 3072		; 00000c00H
  003aa	89 45 f4	 mov	 DWORD PTR tv653[ebp], eax
  003ad	d9 6d f4	 fldcw	 WORD PTR tv653[ebp]
  003b0	db 5d f4	 fistp	 DWORD PTR tv651[ebp]
  003b3	0f b7 55 f4	 movzx	 edx, WORD PTR tv651[ebp]
  003b7	66 89 56 38	 mov	 WORD PTR [esi+56], dx
  003bb	d9 6d fe	 fldcw	 WORD PTR tv656[ebp]

; 5295 : 
; 5296 : 					Token = GetToken();

  003be	e8 00 00 00 00	 call	 ?GetToken@@YA?AW4SMDToken@@XZ ; GetToken

; 5297 : 					p->RequireVitality = (WORD)TokenNumber;

  003c3	d9 05 00 00 00
	00		 fld	 DWORD PTR _TokenNumber
  003c9	d9 7d fe	 fnstcw	 WORD PTR tv648[ebp]
  003cc	0f b7 45 fe	 movzx	 eax, WORD PTR tv648[ebp]
  003d0	0d 00 0c 00 00	 or	 eax, 3072		; 00000c00H
  003d5	89 45 f4	 mov	 DWORD PTR tv645[ebp], eax
  003d8	d9 6d f4	 fldcw	 WORD PTR tv645[ebp]
  003db	db 5d f4	 fistp	 DWORD PTR tv642[ebp]
  003de	0f b7 45 f4	 movzx	 eax, WORD PTR tv642[ebp]
  003e2	66 89 46 4c	 mov	 WORD PTR [esi+76], ax
  003e6	d9 6d fe	 fldcw	 WORD PTR tv648[ebp]

; 5298 : 
; 5299 : 					Token = GetToken();

  003e9	e8 00 00 00 00	 call	 ?GetToken@@YA?AW4SMDToken@@XZ ; GetToken

; 5300 : 					p->RequireLeadership = (int)TokenNumber;

  003ee	d9 05 00 00 00
	00		 fld	 DWORD PTR _TokenNumber
  003f4	e8 00 00 00 00	 call	 __ftol2_sse

; 5301 : 
; 5302 : 					if ( p->Width  >= 2)

  003f9	80 7e 23 02	 cmp	 BYTE PTR [esi+35], 2
  003fd	89 46 6c	 mov	 DWORD PTR [esi+108], eax
  00400	72 04		 jb	 SHORT $LN23@OpenItemSc

; 5303 : 					{
; 5304 : 						p->TwoHand = TRUE;

  00402	c6 46 21 01	 mov	 BYTE PTR [esi+33], 1
$LN23@OpenItemSc:

; 5305 : 					}
; 5306 : 
; 5307 : 					(BYTE)p->Durability += (BYTE)p->MagicDurability;

  00406	8a 4e 31	 mov	 cl, BYTE PTR [esi+49]
  00409	00 4e 30	 add	 BYTE PTR [esi+48], cl
$LN59@OpenItemSc:

; 5308 : 				}
; 5309 : 
; 5310 : 				if ( ItemType >= 6 && ItemType <= 11 )

  0040c	8d 57 fa	 lea	 edx, DWORD PTR [edi-6]
  0040f	83 fa 05	 cmp	 edx, 5
  00412	0f 87 a7 02 00
	00		 ja	 $LN22@OpenItemSc

; 5311 : 				{
; 5312 : 					Token = GetToken();

  00418	e8 00 00 00 00	 call	 ?GetToken@@YA?AW4SMDToken@@XZ ; GetToken

; 5313 : 					p->Level = (BYTE)TokenNumber;

  0041d	d9 05 00 00 00
	00		 fld	 DWORD PTR _TokenNumber
  00423	d9 7d fe	 fnstcw	 WORD PTR tv633[ebp]
  00426	0f b7 45 fe	 movzx	 eax, WORD PTR tv633[ebp]
  0042a	0d 00 0c 00 00	 or	 eax, 3072		; 00000c00H
  0042f	89 45 f4	 mov	 DWORD PTR tv630[ebp], eax
  00432	d9 6d f4	 fldcw	 WORD PTR tv630[ebp]
  00435	db 5d f4	 fistp	 DWORD PTR tv628[ebp]
  00438	8a 45 f4	 mov	 al, BYTE PTR tv628[ebp]
  0043b	88 46 22	 mov	 BYTE PTR [esi+34], al
  0043e	d9 6d fe	 fldcw	 WORD PTR tv633[ebp]

; 5314 : 					
; 5315 : 					if ( ItemType == 6 )

  00441	83 ff 06	 cmp	 edi, 6
  00444	75 57		 jne	 SHORT $LN21@OpenItemSc

; 5316 : 					{
; 5317 : 
; 5318 : 						Token = GetToken();

  00446	e8 00 00 00 00	 call	 ?GetToken@@YA?AW4SMDToken@@XZ ; GetToken

; 5319 : 						p->Defense = (BYTE)TokenNumber;

  0044b	d9 05 00 00 00
	00		 fld	 DWORD PTR _TokenNumber
  00451	d9 7d fe	 fnstcw	 WORD PTR tv625[ebp]
  00454	0f b7 45 fe	 movzx	 eax, WORD PTR tv625[ebp]
  00458	0d 00 0c 00 00	 or	 eax, 3072		; 00000c00H
  0045d	89 45 f4	 mov	 DWORD PTR tv622[ebp], eax
  00460	d9 6d f4	 fldcw	 WORD PTR tv622[ebp]
  00463	db 5d f4	 fistp	 DWORD PTR tv620[ebp]
  00466	8a 4d f4	 mov	 cl, BYTE PTR tv620[ebp]
  00469	88 4e 2d	 mov	 BYTE PTR [esi+45], cl
  0046c	d9 6d fe	 fldcw	 WORD PTR tv625[ebp]

; 5320 : 
; 5321 : 						Token = GetToken();

  0046f	e8 00 00 00 00	 call	 ?GetToken@@YA?AW4SMDToken@@XZ ; GetToken

; 5322 : 						p->SuccessfulBlocking  = (BYTE)TokenNumber;

  00474	d9 05 00 00 00
	00		 fld	 DWORD PTR _TokenNumber
  0047a	d9 7d fe	 fnstcw	 WORD PTR tv617[ebp]
  0047d	0f b7 45 fe	 movzx	 eax, WORD PTR tv617[ebp]
  00481	0d 00 0c 00 00	 or	 eax, 3072		; 00000c00H
  00486	89 45 f4	 mov	 DWORD PTR tv614[ebp], eax
  00489	d9 6d f4	 fldcw	 WORD PTR tv614[ebp]
  0048c	db 5d f4	 fistp	 DWORD PTR tv612[ebp]
  0048f	8a 55 f4	 mov	 dl, BYTE PTR tv612[ebp]
  00492	88 56 2c	 mov	 BYTE PTR [esi+44], dl
  00495	d9 6d fe	 fldcw	 WORD PTR tv617[ebp]
  00498	e9 0f 01 00 00	 jmp	 $LN15@OpenItemSc
$LN21@OpenItemSc:

; 5323 : 
; 5324 : 					}
; 5325 : 					else if ( ItemType >= 7 && ItemType <= 9 )

  0049d	8d 47 f9	 lea	 eax, DWORD PTR [edi-7]
  004a0	83 f8 02	 cmp	 eax, 2
  004a3	77 57		 ja	 SHORT $LN19@OpenItemSc

; 5326 : 					{
; 5327 : 
; 5328 : 						Token = GetToken();

  004a5	e8 00 00 00 00	 call	 ?GetToken@@YA?AW4SMDToken@@XZ ; GetToken

; 5329 : 						p->Defense  = (BYTE)TokenNumber;

  004aa	d9 05 00 00 00
	00		 fld	 DWORD PTR _TokenNumber
  004b0	d9 7d fe	 fnstcw	 WORD PTR tv609[ebp]
  004b3	0f b7 45 fe	 movzx	 eax, WORD PTR tv609[ebp]
  004b7	0d 00 0c 00 00	 or	 eax, 3072		; 00000c00H
  004bc	89 45 f4	 mov	 DWORD PTR tv606[ebp], eax
  004bf	d9 6d f4	 fldcw	 WORD PTR tv606[ebp]
  004c2	db 5d f4	 fistp	 DWORD PTR tv603[ebp]
  004c5	8a 4d f4	 mov	 cl, BYTE PTR tv603[ebp]
  004c8	88 4e 2d	 mov	 BYTE PTR [esi+45], cl
  004cb	d9 6d fe	 fldcw	 WORD PTR tv609[ebp]

; 5330 : 
; 5331 : 						Token = GetToken();

  004ce	e8 00 00 00 00	 call	 ?GetToken@@YA?AW4SMDToken@@XZ ; GetToken

; 5332 : 						p->MagicDefense = (BYTE)TokenNumber;

  004d3	d9 05 00 00 00
	00		 fld	 DWORD PTR _TokenNumber
  004d9	d9 7d fe	 fnstcw	 WORD PTR tv599[ebp]
  004dc	0f b7 45 fe	 movzx	 eax, WORD PTR tv599[ebp]
  004e0	0d 00 0c 00 00	 or	 eax, 3072		; 00000c00H
  004e5	89 45 f4	 mov	 DWORD PTR tv596[ebp], eax
  004e8	d9 6d f4	 fldcw	 WORD PTR tv596[ebp]
  004eb	db 5d f4	 fistp	 DWORD PTR tv593[ebp]
  004ee	8a 55 f4	 mov	 dl, BYTE PTR tv593[ebp]
  004f1	88 56 2e	 mov	 BYTE PTR [esi+46], dl
  004f4	d9 6d fe	 fldcw	 WORD PTR tv599[ebp]
  004f7	e9 b0 00 00 00	 jmp	 $LN15@OpenItemSc
$LN19@OpenItemSc:

; 5333 : 					}
; 5334 : 					else if ( ItemType == 10 )

  004fc	83 ff 0a	 cmp	 edi, 10			; 0000000aH
  004ff	75 54		 jne	 SHORT $LN17@OpenItemSc

; 5335 : 					{
; 5336 : 						Token = GetToken();

  00501	e8 00 00 00 00	 call	 ?GetToken@@YA?AW4SMDToken@@XZ ; GetToken

; 5337 : 						p->Defense = (BYTE)TokenNumber;

  00506	d9 05 00 00 00
	00		 fld	 DWORD PTR _TokenNumber
  0050c	d9 7d fe	 fnstcw	 WORD PTR tv590[ebp]
  0050f	0f b7 45 fe	 movzx	 eax, WORD PTR tv590[ebp]
  00513	0d 00 0c 00 00	 or	 eax, 3072		; 00000c00H
  00518	89 45 f4	 mov	 DWORD PTR tv586[ebp], eax
  0051b	d9 6d f4	 fldcw	 WORD PTR tv586[ebp]
  0051e	db 5d f4	 fistp	 DWORD PTR tv584[ebp]
  00521	8a 45 f4	 mov	 al, BYTE PTR tv584[ebp]
  00524	88 46 2d	 mov	 BYTE PTR [esi+45], al
  00527	d9 6d fe	 fldcw	 WORD PTR tv590[ebp]

; 5338 : 
; 5339 : 						Token = GetToken();

  0052a	e8 00 00 00 00	 call	 ?GetToken@@YA?AW4SMDToken@@XZ ; GetToken

; 5340 : 						p->AttackSpeed = (BYTE)TokenNumber;

  0052f	d9 05 00 00 00
	00		 fld	 DWORD PTR _TokenNumber
  00535	d9 7d fe	 fnstcw	 WORD PTR tv581[ebp]
  00538	0f b7 45 fe	 movzx	 eax, WORD PTR tv581[ebp]
  0053c	0d 00 0c 00 00	 or	 eax, 3072		; 00000c00H
  00541	89 45 f4	 mov	 DWORD PTR tv578[ebp], eax
  00544	d9 6d f4	 fldcw	 WORD PTR tv578[ebp]
  00547	db 5d f4	 fistp	 DWORD PTR tv575[ebp]
  0054a	8a 4d f4	 mov	 cl, BYTE PTR tv575[ebp]
  0054d	88 4e 28	 mov	 BYTE PTR [esi+40], cl
  00550	d9 6d fe	 fldcw	 WORD PTR tv581[ebp]
  00553	eb 57		 jmp	 SHORT $LN15@OpenItemSc
$LN17@OpenItemSc:

; 5341 : 					}
; 5342 : 					else if ( ItemType == 11 )

  00555	83 ff 0b	 cmp	 edi, 11			; 0000000bH
  00558	75 52		 jne	 SHORT $LN15@OpenItemSc

; 5343 : 					{
; 5344 : 						Token = GetToken();

  0055a	e8 00 00 00 00	 call	 ?GetToken@@YA?AW4SMDToken@@XZ ; GetToken

; 5345 : 						p->Defense  = (BYTE)TokenNumber;

  0055f	d9 05 00 00 00
	00		 fld	 DWORD PTR _TokenNumber
  00565	d9 7d fe	 fnstcw	 WORD PTR tv572[ebp]
  00568	0f b7 45 fe	 movzx	 eax, WORD PTR tv572[ebp]
  0056c	0d 00 0c 00 00	 or	 eax, 3072		; 00000c00H
  00571	89 45 f4	 mov	 DWORD PTR tv569[ebp], eax
  00574	d9 6d f4	 fldcw	 WORD PTR tv569[ebp]
  00577	db 5d f4	 fistp	 DWORD PTR tv567[ebp]
  0057a	8a 55 f4	 mov	 dl, BYTE PTR tv567[ebp]
  0057d	88 56 2d	 mov	 BYTE PTR [esi+45], dl
  00580	d9 6d fe	 fldcw	 WORD PTR tv572[ebp]

; 5346 : 
; 5347 : 						Token = GetToken();

  00583	e8 00 00 00 00	 call	 ?GetToken@@YA?AW4SMDToken@@XZ ; GetToken

; 5348 : 						p->WalkSpeed = (BYTE)TokenNumber;

  00588	d9 05 00 00 00
	00		 fld	 DWORD PTR _TokenNumber
  0058e	d9 7d fe	 fnstcw	 WORD PTR tv563[ebp]
  00591	0f b7 45 fe	 movzx	 eax, WORD PTR tv563[ebp]
  00595	0d 00 0c 00 00	 or	 eax, 3072		; 00000c00H
  0059a	89 45 f4	 mov	 DWORD PTR tv559[ebp], eax
  0059d	d9 6d f4	 fldcw	 WORD PTR tv559[ebp]
  005a0	db 5d f4	 fistp	 DWORD PTR tv557[ebp]
  005a3	8a 45 f4	 mov	 al, BYTE PTR tv557[ebp]
  005a6	88 46 29	 mov	 BYTE PTR [esi+41], al
  005a9	d9 6d fe	 fldcw	 WORD PTR tv563[ebp]
$LN15@OpenItemSc:

; 5349 : 					}
; 5350 : 					
; 5351 : 					Token = GetToken();

  005ac	e8 00 00 00 00	 call	 ?GetToken@@YA?AW4SMDToken@@XZ ; GetToken

; 5352 : 					p->Durability = (BYTE)TokenNumber;

  005b1	d9 05 00 00 00
	00		 fld	 DWORD PTR _TokenNumber
  005b7	d9 7d fe	 fnstcw	 WORD PTR tv554[ebp]
  005ba	0f b7 45 fe	 movzx	 eax, WORD PTR tv554[ebp]
  005be	0d 00 0c 00 00	 or	 eax, 3072		; 00000c00H
  005c3	89 45 f4	 mov	 DWORD PTR tv551[ebp], eax
  005c6	d9 6d f4	 fldcw	 WORD PTR tv551[ebp]
  005c9	db 5d f4	 fistp	 DWORD PTR tv549[ebp]
  005cc	8a 4d f4	 mov	 cl, BYTE PTR tv549[ebp]
  005cf	88 4e 30	 mov	 BYTE PTR [esi+48], cl
  005d2	d9 6d fe	 fldcw	 WORD PTR tv554[ebp]

; 5353 : 
; 5354 : 					Token = GetToken();

  005d5	e8 00 00 00 00	 call	 ?GetToken@@YA?AW4SMDToken@@XZ ; GetToken

; 5355 : 					p->RequireLevel = (WORD)TokenNumber;

  005da	d9 05 00 00 00
	00		 fld	 DWORD PTR _TokenNumber
  005e0	d9 7d fe	 fnstcw	 WORD PTR tv546[ebp]
  005e3	0f b7 45 fe	 movzx	 eax, WORD PTR tv546[ebp]
  005e7	0d 00 0c 00 00	 or	 eax, 3072		; 00000c00H
  005ec	89 45 f4	 mov	 DWORD PTR tv510[ebp], eax
  005ef	d9 6d f4	 fldcw	 WORD PTR tv510[ebp]
  005f2	db 5d f4	 fistp	 DWORD PTR tv508[ebp]
  005f5	0f b7 55 f4	 movzx	 edx, WORD PTR tv508[ebp]
  005f9	66 89 56 3a	 mov	 WORD PTR [esi+58], dx
  005fd	d9 6d fe	 fldcw	 WORD PTR tv546[ebp]

; 5356 : 
; 5357 : 					Token = GetToken();

  00600	e8 00 00 00 00	 call	 ?GetToken@@YA?AW4SMDToken@@XZ ; GetToken

; 5358 : 					p->RequireStrength = (WORD)TokenNumber;

  00605	d9 05 00 00 00
	00		 fld	 DWORD PTR _TokenNumber
  0060b	d9 7d fe	 fnstcw	 WORD PTR tv504[ebp]
  0060e	0f b7 45 fe	 movzx	 eax, WORD PTR tv504[ebp]
  00612	0d 00 0c 00 00	 or	 eax, 3072		; 00000c00H
  00617	89 45 f4	 mov	 DWORD PTR tv501[ebp], eax
  0061a	d9 6d f4	 fldcw	 WORD PTR tv501[ebp]
  0061d	db 5d f4	 fistp	 DWORD PTR tv499[ebp]
  00620	0f b7 45 f4	 movzx	 eax, WORD PTR tv499[ebp]
  00624	66 89 46 34	 mov	 WORD PTR [esi+52], ax
  00628	d9 6d fe	 fldcw	 WORD PTR tv504[ebp]

; 5359 : 
; 5360 : 					Token = GetToken();

  0062b	e8 00 00 00 00	 call	 ?GetToken@@YA?AW4SMDToken@@XZ ; GetToken

; 5361 : 					p->RequireDexterity = (WORD)TokenNumber;

  00630	d9 05 00 00 00
	00		 fld	 DWORD PTR _TokenNumber
  00636	d9 7d fe	 fnstcw	 WORD PTR tv496[ebp]
  00639	0f b7 45 fe	 movzx	 eax, WORD PTR tv496[ebp]
  0063d	0d 00 0c 00 00	 or	 eax, 3072		; 00000c00H
  00642	89 45 f4	 mov	 DWORD PTR tv493[ebp], eax
  00645	d9 6d f4	 fldcw	 WORD PTR tv493[ebp]
  00648	db 5d f4	 fistp	 DWORD PTR tv491[ebp]
  0064b	66 8b 4d f4	 mov	 cx, WORD PTR tv491[ebp]
  0064f	66 89 4e 36	 mov	 WORD PTR [esi+54], cx
  00653	d9 6d fe	 fldcw	 WORD PTR tv496[ebp]

; 5362 : 
; 5363 : 					Token = GetToken();

  00656	e8 00 00 00 00	 call	 ?GetToken@@YA?AW4SMDToken@@XZ ; GetToken

; 5364 : 					p->RequireEnergy = (WORD)TokenNumber;

  0065b	d9 05 00 00 00
	00		 fld	 DWORD PTR _TokenNumber
  00661	d9 7d fe	 fnstcw	 WORD PTR tv488[ebp]
  00664	0f b7 45 fe	 movzx	 eax, WORD PTR tv488[ebp]
  00668	0d 00 0c 00 00	 or	 eax, 3072		; 00000c00H
  0066d	89 45 f4	 mov	 DWORD PTR tv485[ebp], eax
  00670	d9 6d f4	 fldcw	 WORD PTR tv485[ebp]
  00673	db 5d f4	 fistp	 DWORD PTR tv483[ebp]
  00676	0f b7 55 f4	 movzx	 edx, WORD PTR tv483[ebp]
  0067a	66 89 56 38	 mov	 WORD PTR [esi+56], dx
  0067e	d9 6d fe	 fldcw	 WORD PTR tv488[ebp]

; 5365 : 
; 5366 : 					Token = GetToken();

  00681	e8 00 00 00 00	 call	 ?GetToken@@YA?AW4SMDToken@@XZ ; GetToken

; 5367 : 					p->RequireVitality = (WORD)TokenNumber;

  00686	d9 05 00 00 00
	00		 fld	 DWORD PTR _TokenNumber
  0068c	d9 7d fe	 fnstcw	 WORD PTR tv480[ebp]
  0068f	0f b7 45 fe	 movzx	 eax, WORD PTR tv480[ebp]
  00693	0d 00 0c 00 00	 or	 eax, 3072		; 00000c00H
  00698	89 45 f4	 mov	 DWORD PTR tv455[ebp], eax
  0069b	d9 6d f4	 fldcw	 WORD PTR tv455[ebp]
  0069e	db 5d f4	 fistp	 DWORD PTR tv420[ebp]
  006a1	0f b7 45 f4	 movzx	 eax, WORD PTR tv420[ebp]
  006a5	66 89 46 4c	 mov	 WORD PTR [esi+76], ax
  006a9	d9 6d fe	 fldcw	 WORD PTR tv480[ebp]

; 5368 : 
; 5369 : 					Token = GetToken();

  006ac	e8 00 00 00 00	 call	 ?GetToken@@YA?AW4SMDToken@@XZ ; GetToken

; 5370 : 					p->RequireLeadership = (int)TokenNumber;

  006b1	d9 05 00 00 00
	00		 fld	 DWORD PTR _TokenNumber
  006b7	e8 00 00 00 00	 call	 __ftol2_sse
  006bc	89 46 6c	 mov	 DWORD PTR [esi+108], eax
$LN22@OpenItemSc:

; 5371 : 				}
; 5372 : 
; 5373 : 				if ( ItemType == 13 )

  006bf	83 ff 0d	 cmp	 edi, 13			; 0000000dH
  006c2	0f 85 9d 01 00
	00		 jne	 $LN14@OpenItemSc

; 5374 : 				{
; 5375 : 					Token = GetToken();

  006c8	e8 00 00 00 00	 call	 ?GetToken@@YA?AW4SMDToken@@XZ ; GetToken

; 5376 : 					p->Level = (BYTE)TokenNumber;

  006cd	d9 05 00 00 00
	00		 fld	 DWORD PTR _TokenNumber
  006d3	d9 7d fe	 fnstcw	 WORD PTR tv407[ebp]
  006d6	0f b7 45 fe	 movzx	 eax, WORD PTR tv407[ebp]
  006da	0d 00 0c 00 00	 or	 eax, 3072		; 00000c00H
  006df	89 45 f4	 mov	 DWORD PTR tv403[ebp], eax
  006e2	d9 6d f4	 fldcw	 WORD PTR tv403[ebp]
  006e5	db 5d f4	 fistp	 DWORD PTR tv400[ebp]
  006e8	0f b6 4d f4	 movzx	 ecx, BYTE PTR tv400[ebp]
  006ec	88 4e 22	 mov	 BYTE PTR [esi+34], cl
  006ef	d9 6d fe	 fldcw	 WORD PTR tv407[ebp]

; 5377 : 
; 5378 : 					Token = GetToken();

  006f2	e8 00 00 00 00	 call	 ?GetToken@@YA?AW4SMDToken@@XZ ; GetToken

; 5379 : 					p->Durability = (BYTE)TokenNumber;

  006f7	d9 05 00 00 00
	00		 fld	 DWORD PTR _TokenNumber
  006fd	d9 7d fe	 fnstcw	 WORD PTR tv396[ebp]
  00700	0f b7 45 fe	 movzx	 eax, WORD PTR tv396[ebp]
  00704	0d 00 0c 00 00	 or	 eax, 3072		; 00000c00H
  00709	89 45 f4	 mov	 DWORD PTR tv392[ebp], eax
  0070c	d9 6d f4	 fldcw	 WORD PTR tv392[ebp]
  0070f	db 5d f4	 fistp	 DWORD PTR tv390[ebp]
  00712	0f b6 55 f4	 movzx	 edx, BYTE PTR tv390[ebp]
  00716	88 56 30	 mov	 BYTE PTR [esi+48], dl
  00719	d9 6d fe	 fldcw	 WORD PTR tv396[ebp]

; 5380 : 
; 5381 : 					Token = GetToken();

  0071c	e8 00 00 00 00	 call	 ?GetToken@@YA?AW4SMDToken@@XZ ; GetToken

; 5382 : 					p->Resistance[0] = (BYTE)TokenNumber;

  00721	d9 05 00 00 00
	00		 fld	 DWORD PTR _TokenNumber
  00727	d9 7d fe	 fnstcw	 WORD PTR tv384[ebp]
  0072a	0f b7 45 fe	 movzx	 eax, WORD PTR tv384[ebp]
  0072e	0d 00 0c 00 00	 or	 eax, 3072		; 00000c00H
  00733	89 45 f4	 mov	 DWORD PTR tv380[ebp], eax
  00736	d9 6d f4	 fldcw	 WORD PTR tv380[ebp]
  00739	db 5d f4	 fistp	 DWORD PTR tv378[ebp]
  0073c	0f b6 45 f4	 movzx	 eax, BYTE PTR tv378[ebp]
  00740	88 46 45	 mov	 BYTE PTR [esi+69], al
  00743	d9 6d fe	 fldcw	 WORD PTR tv384[ebp]

; 5383 : 
; 5384 : 					Token = GetToken();

  00746	e8 00 00 00 00	 call	 ?GetToken@@YA?AW4SMDToken@@XZ ; GetToken

; 5385 : 					p->Resistance[1] = (BYTE)TokenNumber;

  0074b	d9 05 00 00 00
	00		 fld	 DWORD PTR _TokenNumber
  00751	d9 7d fe	 fnstcw	 WORD PTR tv374[ebp]
  00754	0f b7 45 fe	 movzx	 eax, WORD PTR tv374[ebp]
  00758	0d 00 0c 00 00	 or	 eax, 3072		; 00000c00H
  0075d	89 45 f4	 mov	 DWORD PTR tv371[ebp], eax
  00760	d9 6d f4	 fldcw	 WORD PTR tv371[ebp]
  00763	db 5d f4	 fistp	 DWORD PTR tv369[ebp]
  00766	0f b6 4d f4	 movzx	 ecx, BYTE PTR tv369[ebp]
  0076a	88 4e 46	 mov	 BYTE PTR [esi+70], cl
  0076d	d9 6d fe	 fldcw	 WORD PTR tv374[ebp]

; 5386 : 
; 5387 : 					Token = GetToken();

  00770	e8 00 00 00 00	 call	 ?GetToken@@YA?AW4SMDToken@@XZ ; GetToken

; 5388 : 					p->Resistance[2] = (BYTE)TokenNumber;

  00775	d9 05 00 00 00
	00		 fld	 DWORD PTR _TokenNumber
  0077b	d9 7d fe	 fnstcw	 WORD PTR tv366[ebp]
  0077e	0f b7 45 fe	 movzx	 eax, WORD PTR tv366[ebp]
  00782	0d 00 0c 00 00	 or	 eax, 3072		; 00000c00H
  00787	89 45 f4	 mov	 DWORD PTR tv363[ebp], eax
  0078a	d9 6d f4	 fldcw	 WORD PTR tv363[ebp]
  0078d	db 5d f4	 fistp	 DWORD PTR tv361[ebp]
  00790	0f b6 55 f4	 movzx	 edx, BYTE PTR tv361[ebp]
  00794	88 56 47	 mov	 BYTE PTR [esi+71], dl
  00797	d9 6d fe	 fldcw	 WORD PTR tv366[ebp]

; 5389 : 
; 5390 : 					Token = GetToken();

  0079a	e8 00 00 00 00	 call	 ?GetToken@@YA?AW4SMDToken@@XZ ; GetToken

; 5391 : 					p->Resistance[3] = (BYTE)TokenNumber;

  0079f	d9 05 00 00 00
	00		 fld	 DWORD PTR _TokenNumber
  007a5	d9 7d fe	 fnstcw	 WORD PTR tv357[ebp]
  007a8	0f b7 45 fe	 movzx	 eax, WORD PTR tv357[ebp]
  007ac	0d 00 0c 00 00	 or	 eax, 3072		; 00000c00H
  007b1	89 45 f4	 mov	 DWORD PTR tv354[ebp], eax
  007b4	d9 6d f4	 fldcw	 WORD PTR tv354[ebp]
  007b7	db 5d f4	 fistp	 DWORD PTR tv352[ebp]
  007ba	0f b6 45 f4	 movzx	 eax, BYTE PTR tv352[ebp]
  007be	88 46 48	 mov	 BYTE PTR [esi+72], al
  007c1	d9 6d fe	 fldcw	 WORD PTR tv357[ebp]

; 5392 : 
; 5393 : 					Token = GetToken();

  007c4	e8 00 00 00 00	 call	 ?GetToken@@YA?AW4SMDToken@@XZ ; GetToken

; 5394 : 					p->Resistance[4] = (BYTE)TokenNumber;

  007c9	d9 05 00 00 00
	00		 fld	 DWORD PTR _TokenNumber
  007cf	d9 7d fe	 fnstcw	 WORD PTR tv349[ebp]
  007d2	0f b7 45 fe	 movzx	 eax, WORD PTR tv349[ebp]
  007d6	0d 00 0c 00 00	 or	 eax, 3072		; 00000c00H
  007db	89 45 f4	 mov	 DWORD PTR tv346[ebp], eax
  007de	d9 6d f4	 fldcw	 WORD PTR tv346[ebp]
  007e1	db 5d f4	 fistp	 DWORD PTR tv344[ebp]
  007e4	0f b6 4d f4	 movzx	 ecx, BYTE PTR tv344[ebp]
  007e8	88 4e 49	 mov	 BYTE PTR [esi+73], cl
  007eb	d9 6d fe	 fldcw	 WORD PTR tv349[ebp]

; 5395 : 
; 5396 : 					Token = GetToken();

  007ee	e8 00 00 00 00	 call	 ?GetToken@@YA?AW4SMDToken@@XZ ; GetToken

; 5397 : 					p->Resistance[5] = (BYTE)TokenNumber;

  007f3	d9 05 00 00 00
	00		 fld	 DWORD PTR _TokenNumber
  007f9	d9 7d fe	 fnstcw	 WORD PTR tv341[ebp]
  007fc	0f b7 45 fe	 movzx	 eax, WORD PTR tv341[ebp]
  00800	0d 00 0c 00 00	 or	 eax, 3072		; 00000c00H
  00805	89 45 f4	 mov	 DWORD PTR tv338[ebp], eax
  00808	d9 6d f4	 fldcw	 WORD PTR tv338[ebp]
  0080b	db 5d f4	 fistp	 DWORD PTR tv336[ebp]
  0080e	0f b6 55 f4	 movzx	 edx, BYTE PTR tv336[ebp]
  00812	88 56 4a	 mov	 BYTE PTR [esi+74], dl
  00815	d9 6d fe	 fldcw	 WORD PTR tv341[ebp]

; 5398 : 
; 5399 : 					Token = GetToken();

  00818	e8 00 00 00 00	 call	 ?GetToken@@YA?AW4SMDToken@@XZ ; GetToken

; 5400 : 					p->Resistance[6] = (BYTE)TokenNumber;
; 5401 : 
; 5402 : 					p->ResistanceType = -1;

  0081d	c6 46 62 ff	 mov	 BYTE PTR [esi+98], 255	; 000000ffH
  00821	d9 05 00 00 00
	00		 fld	 DWORD PTR _TokenNumber
  00827	d9 7d fe	 fnstcw	 WORD PTR tv333[ebp]
  0082a	0f b7 45 fe	 movzx	 eax, WORD PTR tv333[ebp]
  0082e	0d 00 0c 00 00	 or	 eax, 3072		; 00000c00H
  00833	89 45 f4	 mov	 DWORD PTR tv329[ebp], eax
  00836	d9 6d f4	 fldcw	 WORD PTR tv329[ebp]
  00839	db 5d f4	 fistp	 DWORD PTR tv327[ebp]
  0083c	0f b6 45 f4	 movzx	 eax, BYTE PTR tv327[ebp]
  00840	88 46 4b	 mov	 BYTE PTR [esi+75], al

; 5403 : 					
; 5404 : 					int n;
; 5405 : 
; 5406 : 					for (n=0;n<MAX_ITEM_SPECIAL_ATTRIBUTE-1;n++)

  00843	33 c0		 xor	 eax, eax
  00845	d9 6d fe	 fldcw	 WORD PTR tv333[ebp]
$LL13@OpenItemSc:

; 5407 : 					{
; 5408 : 						if ( (p->Resistance[n]) != 0 )

  00848	80 7c 06 45 00	 cmp	 BYTE PTR [esi+eax+69], 0
  0084d	74 03		 je	 SHORT $LN12@OpenItemSc

; 5409 : 						{
; 5410 : 							p->ResistanceType=n;

  0084f	88 46 62	 mov	 BYTE PTR [esi+98], al
$LN12@OpenItemSc:

; 5403 : 					
; 5404 : 					int n;
; 5405 : 
; 5406 : 					for (n=0;n<MAX_ITEM_SPECIAL_ATTRIBUTE-1;n++)

  00852	40		 inc	 eax
  00853	83 f8 06	 cmp	 eax, 6
  00856	7c f0		 jl	 SHORT $LL13@OpenItemSc

; 5411 : 						}
; 5412 : 					}
; 5413 : 
; 5414 : 					p->RequireLevel = p->Level ;

  00858	0f b6 4e 22	 movzx	 ecx, BYTE PTR [esi+34]
  0085c	66 89 4e 3a	 mov	 WORD PTR [esi+58], cx

; 5415 : 					
; 5416 : 				}
; 5417 : 
; 5418 : 				if ( ItemType == 14 )

  00860	e9 6e 02 00 00	 jmp	 $LN5@OpenItemSc
$LN14@OpenItemSc:
  00865	83 ff 0e	 cmp	 edi, 14			; 0000000eH
  00868	75 5d		 jne	 SHORT $LN9@OpenItemSc

; 5419 : 				{
; 5420 : 					Token = GetToken();

  0086a	e8 00 00 00 00	 call	 ?GetToken@@YA?AW4SMDToken@@XZ ; GetToken

; 5421 : 					p->Value = (WORD)TokenNumber;

  0086f	d9 05 00 00 00
	00		 fld	 DWORD PTR _TokenNumber
  00875	d9 7d fe	 fnstcw	 WORD PTR tv324[ebp]
  00878	0f b7 45 fe	 movzx	 eax, WORD PTR tv324[ebp]
  0087c	0d 00 0c 00 00	 or	 eax, 3072		; 00000c00H
  00881	89 45 f4	 mov	 DWORD PTR tv320[ebp], eax
  00884	d9 6d f4	 fldcw	 WORD PTR tv320[ebp]
  00887	db 5d f4	 fistp	 DWORD PTR tv318[ebp]
  0088a	66 8b 55 f4	 mov	 dx, WORD PTR tv318[ebp]
  0088e	66 89 56 3c	 mov	 WORD PTR [esi+60], dx
  00892	d9 6d fe	 fldcw	 WORD PTR tv324[ebp]

; 5422 : 
; 5423 : 					Token = GetToken();

  00895	e8 00 00 00 00	 call	 ?GetToken@@YA?AW4SMDToken@@XZ ; GetToken

; 5424 : 					p->Level = (BYTE)TokenNumber;
; 5425 : 
; 5426 : 					p->Durability = 1;

  0089a	c6 46 30 01	 mov	 BYTE PTR [esi+48], 1
  0089e	d9 05 00 00 00
	00		 fld	 DWORD PTR _TokenNumber
  008a4	d9 7d fe	 fnstcw	 WORD PTR tv312[ebp]
  008a7	0f b7 45 fe	 movzx	 eax, WORD PTR tv312[ebp]
  008ab	0d 00 0c 00 00	 or	 eax, 3072		; 00000c00H
  008b0	89 45 f4	 mov	 DWORD PTR tv309[ebp], eax
  008b3	d9 6d f4	 fldcw	 WORD PTR tv309[ebp]
  008b6	db 5d f4	 fistp	 DWORD PTR tv306[ebp]
  008b9	8a 45 f4	 mov	 al, BYTE PTR tv306[ebp]
  008bc	88 46 22	 mov	 BYTE PTR [esi+34], al
  008bf	d9 6d fe	 fldcw	 WORD PTR tv312[ebp]

; 5427 : 				}
; 5428 : 
; 5429 : 				if ( ItemType == 12 )

  008c2	e9 11 02 00 00	 jmp	 $LN60@OpenItemSc
$LN9@OpenItemSc:
  008c7	83 ff 0c	 cmp	 edi, 12			; 0000000cH
  008ca	0f 85 52 01 00
	00		 jne	 $LN8@OpenItemSc

; 5430 : 				{
; 5431 : 					Token = GetToken();

  008d0	e8 00 00 00 00	 call	 ?GetToken@@YA?AW4SMDToken@@XZ ; GetToken

; 5432 : 					p->Level = (BYTE)TokenNumber;

  008d5	d9 05 00 00 00
	00		 fld	 DWORD PTR _TokenNumber
  008db	d9 7d fe	 fnstcw	 WORD PTR tv302[ebp]
  008de	0f b7 45 fe	 movzx	 eax, WORD PTR tv302[ebp]
  008e2	0d 00 0c 00 00	 or	 eax, 3072		; 00000c00H
  008e7	89 45 f4	 mov	 DWORD PTR tv298[ebp], eax
  008ea	d9 6d f4	 fldcw	 WORD PTR tv298[ebp]
  008ed	db 5d f4	 fistp	 DWORD PTR tv295[ebp]
  008f0	8a 4d f4	 mov	 cl, BYTE PTR tv295[ebp]
  008f3	88 4e 22	 mov	 BYTE PTR [esi+34], cl
  008f6	d9 6d fe	 fldcw	 WORD PTR tv302[ebp]

; 5433 : 
; 5434 : 					Token = GetToken();

  008f9	e8 00 00 00 00	 call	 ?GetToken@@YA?AW4SMDToken@@XZ ; GetToken

; 5435 : 					p->Defense = (BYTE)TokenNumber;

  008fe	d9 05 00 00 00
	00		 fld	 DWORD PTR _TokenNumber
  00904	d9 7d fe	 fnstcw	 WORD PTR tv291[ebp]
  00907	0f b7 45 fe	 movzx	 eax, WORD PTR tv291[ebp]
  0090b	0d 00 0c 00 00	 or	 eax, 3072		; 00000c00H
  00910	89 45 f4	 mov	 DWORD PTR tv287[ebp], eax
  00913	d9 6d f4	 fldcw	 WORD PTR tv287[ebp]
  00916	db 5d f4	 fistp	 DWORD PTR tv285[ebp]
  00919	8a 55 f4	 mov	 dl, BYTE PTR tv285[ebp]
  0091c	88 56 2d	 mov	 BYTE PTR [esi+45], dl
  0091f	d9 6d fe	 fldcw	 WORD PTR tv291[ebp]

; 5436 : 
; 5437 : 					Token = GetToken();

  00922	e8 00 00 00 00	 call	 ?GetToken@@YA?AW4SMDToken@@XZ ; GetToken

; 5438 : 					p->Durability = (BYTE)TokenNumber;

  00927	d9 05 00 00 00
	00		 fld	 DWORD PTR _TokenNumber
  0092d	d9 7d fe	 fnstcw	 WORD PTR tv281[ebp]
  00930	0f b7 45 fe	 movzx	 eax, WORD PTR tv281[ebp]
  00934	0d 00 0c 00 00	 or	 eax, 3072		; 00000c00H
  00939	89 45 f4	 mov	 DWORD PTR tv278[ebp], eax
  0093c	d9 6d f4	 fldcw	 WORD PTR tv278[ebp]
  0093f	db 5d f4	 fistp	 DWORD PTR tv275[ebp]
  00942	8a 45 f4	 mov	 al, BYTE PTR tv275[ebp]
  00945	88 46 30	 mov	 BYTE PTR [esi+48], al
  00948	d9 6d fe	 fldcw	 WORD PTR tv281[ebp]

; 5439 : 
; 5440 : 					Token = GetToken();

  0094b	e8 00 00 00 00	 call	 ?GetToken@@YA?AW4SMDToken@@XZ ; GetToken

; 5441 : 					p->RequireLevel = (WORD)TokenNumber;

  00950	d9 05 00 00 00
	00		 fld	 DWORD PTR _TokenNumber
  00956	d9 7d fe	 fnstcw	 WORD PTR tv272[ebp]
  00959	0f b7 45 fe	 movzx	 eax, WORD PTR tv272[ebp]
  0095d	0d 00 0c 00 00	 or	 eax, 3072		; 00000c00H
  00962	89 45 f4	 mov	 DWORD PTR tv269[ebp], eax
  00965	d9 6d f4	 fldcw	 WORD PTR tv269[ebp]
  00968	db 5d f4	 fistp	 DWORD PTR tv267[ebp]
  0096b	0f b7 4d f4	 movzx	 ecx, WORD PTR tv267[ebp]
  0096f	66 89 4e 3a	 mov	 WORD PTR [esi+58], cx
  00973	d9 6d fe	 fldcw	 WORD PTR tv272[ebp]

; 5442 : 
; 5443 : 					Token = GetToken();

  00976	e8 00 00 00 00	 call	 ?GetToken@@YA?AW4SMDToken@@XZ ; GetToken

; 5444 : 					p->RequireEnergy = (WORD)TokenNumber;

  0097b	d9 05 00 00 00
	00		 fld	 DWORD PTR _TokenNumber
  00981	d9 7d fe	 fnstcw	 WORD PTR tv264[ebp]
  00984	0f b7 45 fe	 movzx	 eax, WORD PTR tv264[ebp]
  00988	0d 00 0c 00 00	 or	 eax, 3072		; 00000c00H
  0098d	89 45 f4	 mov	 DWORD PTR tv261[ebp], eax
  00990	d9 6d f4	 fldcw	 WORD PTR tv261[ebp]
  00993	db 5d f4	 fistp	 DWORD PTR tv259[ebp]
  00996	66 8b 55 f4	 mov	 dx, WORD PTR tv259[ebp]
  0099a	66 89 56 38	 mov	 WORD PTR [esi+56], dx
  0099e	d9 6d fe	 fldcw	 WORD PTR tv264[ebp]

; 5445 : 
; 5446 : 					Token = GetToken();

  009a1	e8 00 00 00 00	 call	 ?GetToken@@YA?AW4SMDToken@@XZ ; GetToken

; 5447 : 					p->RequireStrength = (WORD)TokenNumber;

  009a6	d9 05 00 00 00
	00		 fld	 DWORD PTR _TokenNumber
  009ac	d9 7d fe	 fnstcw	 WORD PTR tv256[ebp]
  009af	0f b7 45 fe	 movzx	 eax, WORD PTR tv256[ebp]
  009b3	0d 00 0c 00 00	 or	 eax, 3072		; 00000c00H
  009b8	89 45 f4	 mov	 DWORD PTR tv253[ebp], eax
  009bb	d9 6d f4	 fldcw	 WORD PTR tv253[ebp]
  009be	db 5d f4	 fistp	 DWORD PTR tv251[ebp]
  009c1	66 8b 45 f4	 mov	 ax, WORD PTR tv251[ebp]
  009c5	66 89 46 34	 mov	 WORD PTR [esi+52], ax
  009c9	d9 6d fe	 fldcw	 WORD PTR tv256[ebp]

; 5448 : 
; 5449 : 					Token = GetToken();

  009cc	e8 00 00 00 00	 call	 ?GetToken@@YA?AW4SMDToken@@XZ ; GetToken

; 5450 : 					p->RequireDexterity = (WORD)TokenNumber;

  009d1	d9 05 00 00 00
	00		 fld	 DWORD PTR _TokenNumber
  009d7	d9 7d fe	 fnstcw	 WORD PTR tv247[ebp]
  009da	0f b7 45 fe	 movzx	 eax, WORD PTR tv247[ebp]
  009de	0d 00 0c 00 00	 or	 eax, 3072		; 00000c00H
  009e3	89 45 f4	 mov	 DWORD PTR tv244[ebp], eax
  009e6	d9 6d f4	 fldcw	 WORD PTR tv244[ebp]
  009e9	db 5d f4	 fistp	 DWORD PTR tv242[ebp]
  009ec	0f b7 4d f4	 movzx	 ecx, WORD PTR tv242[ebp]
  009f0	66 89 4e 36	 mov	 WORD PTR [esi+54], cx
  009f4	d9 6d fe	 fldcw	 WORD PTR tv247[ebp]

; 5451 : 
; 5452 : 					Token = GetToken();

  009f7	e8 00 00 00 00	 call	 ?GetToken@@YA?AW4SMDToken@@XZ ; GetToken

; 5453 : 					p->RequireLeadership = (int)TokenNumber;

  009fc	d9 05 00 00 00
	00		 fld	 DWORD PTR _TokenNumber
  00a02	e8 00 00 00 00	 call	 __ftol2_sse
  00a07	89 46 6c	 mov	 DWORD PTR [esi+108], eax

; 5454 : 
; 5455 : 					Token = GetToken();

  00a0a	e8 00 00 00 00	 call	 ?GetToken@@YA?AW4SMDToken@@XZ ; GetToken

; 5456 : 					p->BuyMoney = (int)TokenNumber;

  00a0f	d9 05 00 00 00
	00		 fld	 DWORD PTR _TokenNumber
  00a15	e8 00 00 00 00	 call	 __ftol2_sse
  00a1a	89 46 50	 mov	 DWORD PTR [esi+80], eax

; 5457 : 
; 5458 : 				}
; 5459 : 				
; 5460 : 				if ( ItemType == 15 )

  00a1d	e9 b6 00 00 00	 jmp	 $LN60@OpenItemSc
$LN8@OpenItemSc:
  00a22	83 ff 0f	 cmp	 edi, 15			; 0000000fH
  00a25	0f 85 a3 00 00
	00		 jne	 $LN7@OpenItemSc

; 5461 : 				{
; 5462 : 
; 5463 : 					Token = GetToken();

  00a2b	e8 00 00 00 00	 call	 ?GetToken@@YA?AW4SMDToken@@XZ ; GetToken

; 5464 : 					p->Level = (BYTE)TokenNumber;

  00a30	d9 05 00 00 00
	00		 fld	 DWORD PTR _TokenNumber
  00a36	d9 7d fe	 fnstcw	 WORD PTR tv227[ebp]
  00a39	0f b7 45 fe	 movzx	 eax, WORD PTR tv227[ebp]
  00a3d	0d 00 0c 00 00	 or	 eax, 3072		; 00000c00H
  00a42	89 45 f4	 mov	 DWORD PTR tv223[ebp], eax
  00a45	d9 6d f4	 fldcw	 WORD PTR tv223[ebp]
  00a48	db 5d f4	 fistp	 DWORD PTR tv220[ebp]
  00a4b	8a 55 f4	 mov	 dl, BYTE PTR tv220[ebp]
  00a4e	88 56 22	 mov	 BYTE PTR [esi+34], dl
  00a51	d9 6d fe	 fldcw	 WORD PTR tv227[ebp]

; 5465 : 
; 5466 : 					Token = GetToken();

  00a54	e8 00 00 00 00	 call	 ?GetToken@@YA?AW4SMDToken@@XZ ; GetToken

; 5467 : 					p->RequireLevel  = (WORD)TokenNumber;

  00a59	d9 05 00 00 00
	00		 fld	 DWORD PTR _TokenNumber
  00a5f	d9 7d fe	 fnstcw	 WORD PTR tv215[ebp]
  00a62	0f b7 45 fe	 movzx	 eax, WORD PTR tv215[ebp]
  00a66	0d 00 0c 00 00	 or	 eax, 3072		; 00000c00H
  00a6b	89 45 f4	 mov	 DWORD PTR tv210[ebp], eax
  00a6e	d9 6d f4	 fldcw	 WORD PTR tv210[ebp]
  00a71	db 5d f4	 fistp	 DWORD PTR tv208[ebp]
  00a74	66 8b 45 f4	 mov	 ax, WORD PTR tv208[ebp]
  00a78	66 89 46 3a	 mov	 WORD PTR [esi+58], ax
  00a7c	d9 6d fe	 fldcw	 WORD PTR tv215[ebp]

; 5468 : 
; 5469 : 					Token = GetToken();

  00a7f	e8 00 00 00 00	 call	 ?GetToken@@YA?AW4SMDToken@@XZ ; GetToken

; 5470 : 					p->RequireEnergy  = (WORD)TokenNumber;

  00a84	d9 05 00 00 00
	00		 fld	 DWORD PTR _TokenNumber
  00a8a	d9 7d fe	 fnstcw	 WORD PTR tv205[ebp]
  00a8d	0f b7 45 fe	 movzx	 eax, WORD PTR tv205[ebp]
  00a91	0d 00 0c 00 00	 or	 eax, 3072		; 00000c00H
  00a96	89 45 f4	 mov	 DWORD PTR tv202[ebp], eax
  00a99	d9 6d f4	 fldcw	 WORD PTR tv202[ebp]
  00a9c	db 5d f4	 fistp	 DWORD PTR tv200[ebp]
  00a9f	66 8b 4d f4	 mov	 cx, WORD PTR tv200[ebp]
  00aa3	66 89 4e 38	 mov	 WORD PTR [esi+56], cx
  00aa7	d9 6d fe	 fldcw	 WORD PTR tv205[ebp]

; 5471 : 
; 5472 : 					Token = GetToken();

  00aaa	e8 00 00 00 00	 call	 ?GetToken@@YA?AW4SMDToken@@XZ ; GetToken

; 5473 : 					p->BuyMoney  = (int)TokenNumber;

  00aaf	d9 05 00 00 00
	00		 fld	 DWORD PTR _TokenNumber
  00ab5	e8 00 00 00 00	 call	 __ftol2_sse
  00aba	89 46 50	 mov	 DWORD PTR [esi+80], eax

; 5474 : 
; 5475 : 					p->DamageMin = p->Level;

  00abd	8a 46 22	 mov	 al, BYTE PTR [esi+34]

; 5476 : 					p->DamageMax = p->Level + p->Level/2; 

  00ac0	8a d0		 mov	 dl, al
  00ac2	d0 ea		 shr	 dl, 1
  00ac4	02 d0		 add	 dl, al
  00ac6	88 46 2a	 mov	 BYTE PTR [esi+42], al
  00ac9	88 56 2b	 mov	 BYTE PTR [esi+43], dl

; 5477 : 				}
; 5478 : 
; 5479 : 				if ( ItemType <= 11 || ItemType == 13)

  00acc	eb 0a		 jmp	 SHORT $LN60@OpenItemSc
$LN7@OpenItemSc:
  00ace	83 ff 0b	 cmp	 edi, 11			; 0000000bH
  00ad1	7f 05		 jg	 SHORT $LN60@OpenItemSc
$LN5@OpenItemSc:

; 5480 : 				{
; 5481 : 					Token = GetToken();

  00ad3	e8 00 00 00 00	 call	 ?GetToken@@YA?AW4SMDToken@@XZ ; GetToken
$LN60@OpenItemSc:

; 5482 : 				}
; 5483 : 
; 5484 : 				p->SetAttr = (BYTE)TokenNumber;

  00ad8	d9 05 00 00 00
	00		 fld	 DWORD PTR _TokenNumber
  00ade	d9 7d fe	 fnstcw	 WORD PTR tv186[ebp]
  00ae1	0f b7 45 fe	 movzx	 eax, WORD PTR tv186[ebp]
  00ae5	0d 00 0c 00 00	 or	 eax, 3072		; 00000c00H
  00aea	89 45 f4	 mov	 DWORD PTR tv177[ebp], eax
  00aed	d9 6d f4	 fldcw	 WORD PTR tv177[ebp]
  00af0	db 5d f4	 fistp	 DWORD PTR tv171[ebp]
  00af3	8a 45 f4	 mov	 al, BYTE PTR tv171[ebp]
  00af6	88 46 61	 mov	 BYTE PTR [esi+97], al
  00af9	d9 6d fe	 fldcw	 WORD PTR tv186[ebp]

; 5485 : 
; 5486 : 				if ( ItemType <= 13 || ItemType == 15 )

  00afc	83 ff 0d	 cmp	 edi, 13			; 0000000dH
  00aff	7e 09		 jle	 SHORT $LN3@OpenItemSc
  00b01	83 ff 0f	 cmp	 edi, 15			; 0000000fH
  00b04	0f 85 26 01 00
	00		 jne	 $LN4@OpenItemSc
$LN3@OpenItemSc:

; 5487 : 				{
; 5488 : 
; 5489 : 					Token = GetToken();

  00b0a	e8 00 00 00 00	 call	 ?GetToken@@YA?AW4SMDToken@@XZ ; GetToken

; 5490 : 					p->RequireClass[0]  = (BYTE)TokenNumber;

  00b0f	d9 05 00 00 00
	00		 fld	 DWORD PTR _TokenNumber
  00b15	d9 7d fe	 fnstcw	 WORD PTR tv164[ebp]
  00b18	0f b7 45 fe	 movzx	 eax, WORD PTR tv164[ebp]
  00b1c	0d 00 0c 00 00	 or	 eax, 3072		; 00000c00H
  00b21	89 45 f4	 mov	 DWORD PTR tv157[ebp], eax
  00b24	d9 6d f4	 fldcw	 WORD PTR tv157[ebp]
  00b27	db 5d f4	 fistp	 DWORD PTR tv151[ebp]
  00b2a	0f b6 4d f4	 movzx	 ecx, BYTE PTR tv151[ebp]
  00b2e	88 4e 3e	 mov	 BYTE PTR [esi+62], cl
  00b31	d9 6d fe	 fldcw	 WORD PTR tv164[ebp]

; 5491 : 
; 5492 : 					Token = GetToken();

  00b34	e8 00 00 00 00	 call	 ?GetToken@@YA?AW4SMDToken@@XZ ; GetToken

; 5493 : 					p->RequireClass[1]  = (BYTE)TokenNumber;

  00b39	d9 05 00 00 00
	00		 fld	 DWORD PTR _TokenNumber
  00b3f	d9 7d fe	 fnstcw	 WORD PTR tv142[ebp]
  00b42	0f b7 45 fe	 movzx	 eax, WORD PTR tv142[ebp]
  00b46	0d 00 0c 00 00	 or	 eax, 3072		; 00000c00H
  00b4b	89 45 f4	 mov	 DWORD PTR tv91[ebp], eax
  00b4e	d9 6d f4	 fldcw	 WORD PTR tv91[ebp]
  00b51	db 5d f4	 fistp	 DWORD PTR tv474[ebp]
  00b54	0f b6 55 f4	 movzx	 edx, BYTE PTR tv474[ebp]
  00b58	88 56 3f	 mov	 BYTE PTR [esi+63], dl
  00b5b	d9 6d fe	 fldcw	 WORD PTR tv142[ebp]

; 5494 : 
; 5495 : 					Token = GetToken();

  00b5e	e8 00 00 00 00	 call	 ?GetToken@@YA?AW4SMDToken@@XZ ; GetToken

; 5496 : 					p->RequireClass[2]  = (BYTE)TokenNumber;

  00b63	d9 05 00 00 00
	00		 fld	 DWORD PTR _TokenNumber
  00b69	d9 7d fe	 fnstcw	 WORD PTR tv136[ebp]
  00b6c	0f b7 45 fe	 movzx	 eax, WORD PTR tv136[ebp]
  00b70	0d 00 0c 00 00	 or	 eax, 3072		; 00000c00H
  00b75	89 45 f4	 mov	 DWORD PTR tv940[ebp], eax
  00b78	d9 6d f4	 fldcw	 WORD PTR tv940[ebp]
  00b7b	db 5d f4	 fistp	 DWORD PTR tv942[ebp]
  00b7e	0f b6 45 f4	 movzx	 eax, BYTE PTR tv942[ebp]
  00b82	88 46 40	 mov	 BYTE PTR [esi+64], al
  00b85	d9 6d fe	 fldcw	 WORD PTR tv136[ebp]

; 5497 : 
; 5498 : 					Token = GetToken();

  00b88	e8 00 00 00 00	 call	 ?GetToken@@YA?AW4SMDToken@@XZ ; GetToken

; 5499 : 					p->RequireClass[3]  = (BYTE)TokenNumber;

  00b8d	d9 05 00 00 00
	00		 fld	 DWORD PTR _TokenNumber
  00b93	d9 7d fe	 fnstcw	 WORD PTR tv945[ebp]
  00b96	0f b7 45 fe	 movzx	 eax, WORD PTR tv945[ebp]
  00b9a	0d 00 0c 00 00	 or	 eax, 3072		; 00000c00H
  00b9f	89 45 f4	 mov	 DWORD PTR tv948[ebp], eax
  00ba2	d9 6d f4	 fldcw	 WORD PTR tv948[ebp]
  00ba5	db 5d f4	 fistp	 DWORD PTR tv950[ebp]
  00ba8	0f b6 4d f4	 movzx	 ecx, BYTE PTR tv950[ebp]
  00bac	88 4e 41	 mov	 BYTE PTR [esi+65], cl
  00baf	d9 6d fe	 fldcw	 WORD PTR tv945[ebp]

; 5500 : 
; 5501 : 					Token = GetToken();

  00bb2	e8 00 00 00 00	 call	 ?GetToken@@YA?AW4SMDToken@@XZ ; GetToken

; 5502 : 					p->RequireClass[4]  = (BYTE)TokenNumber;

  00bb7	d9 05 00 00 00
	00		 fld	 DWORD PTR _TokenNumber
  00bbd	d9 7d fe	 fnstcw	 WORD PTR tv953[ebp]
  00bc0	0f b7 45 fe	 movzx	 eax, WORD PTR tv953[ebp]
  00bc4	0d 00 0c 00 00	 or	 eax, 3072		; 00000c00H
  00bc9	89 45 f4	 mov	 DWORD PTR tv956[ebp], eax
  00bcc	d9 6d f4	 fldcw	 WORD PTR tv956[ebp]
  00bcf	db 5d f4	 fistp	 DWORD PTR tv958[ebp]
  00bd2	0f b6 55 f4	 movzx	 edx, BYTE PTR tv958[ebp]
  00bd6	88 56 42	 mov	 BYTE PTR [esi+66], dl
  00bd9	d9 6d fe	 fldcw	 WORD PTR tv953[ebp]

; 5503 : 
; 5504 : 					Token = GetToken();

  00bdc	e8 00 00 00 00	 call	 ?GetToken@@YA?AW4SMDToken@@XZ ; GetToken

; 5505 : 					p->RequireClass[5]  = (BYTE)TokenNumber;

  00be1	d9 05 00 00 00
	00		 fld	 DWORD PTR _TokenNumber
  00be7	d9 7d fe	 fnstcw	 WORD PTR tv961[ebp]
  00bea	0f b7 45 fe	 movzx	 eax, WORD PTR tv961[ebp]
  00bee	0d 00 0c 00 00	 or	 eax, 3072		; 00000c00H
  00bf3	89 45 f4	 mov	 DWORD PTR tv964[ebp], eax
  00bf6	d9 6d f4	 fldcw	 WORD PTR tv964[ebp]
  00bf9	db 5d f4	 fistp	 DWORD PTR tv966[ebp]
  00bfc	0f b6 45 f4	 movzx	 eax, BYTE PTR tv966[ebp]
  00c00	88 46 43	 mov	 BYTE PTR [esi+67], al
  00c03	d9 6d fe	 fldcw	 WORD PTR tv961[ebp]

; 5506 : 
; 5507 : 					Token = GetToken();

  00c06	e8 00 00 00 00	 call	 ?GetToken@@YA?AW4SMDToken@@XZ ; GetToken

; 5508 : 					p->RequireClass[6]  = TokenNumber;

  00c0b	d9 05 00 00 00
	00		 fld	 DWORD PTR _TokenNumber
  00c11	d9 7d fe	 fnstcw	 WORD PTR tv969[ebp]
  00c14	0f b7 45 fe	 movzx	 eax, WORD PTR tv969[ebp]
  00c18	0d 00 0c 00 00	 or	 eax, 3072		; 00000c00H
  00c1d	89 45 f4	 mov	 DWORD PTR tv972[ebp], eax
  00c20	d9 6d f4	 fldcw	 WORD PTR tv972[ebp]
  00c23	db 5d f4	 fistp	 DWORD PTR tv974[ebp]
  00c26	0f b6 4d f4	 movzx	 ecx, BYTE PTR tv974[ebp]
  00c2a	88 4e 44	 mov	 BYTE PTR [esi+68], cl
  00c2d	d9 6d fe	 fldcw	 WORD PTR tv969[ebp]
$LN4@OpenItemSc:

; 5509 : 				}
; 5510 : 
; 5511 : 				CalRepairRate(ItemType, ItemSubType, p);

  00c30	56		 push	 esi
  00c31	53		 push	 ebx
  00c32	57		 push	 edi
  00c33	e8 00 00 00 00	 call	 ?CalRepairRate@@YAXHHPAUITEM_ATTRIBUTE@@@Z ; CalRepairRate

; 5512 : 
; 5513 : 				p->HaveItemInfo = TRUE;
; 5514 : 
; 5515 : 				loop_count++;

  00c38	8b 45 f8	 mov	 eax, DWORD PTR _loop_count$[ebp]
  00c3b	40		 inc	 eax
  00c3c	83 c4 0c	 add	 esp, 12			; 0000000cH
  00c3f	c6 46 20 01	 mov	 BYTE PTR [esi+32], 1
  00c43	89 45 f8	 mov	 DWORD PTR _loop_count$[ebp], eax

; 5516 : 
; 5517 : 				if ( loop_count > MAX_SUBTYPE_ITEMS )

  00c46	3d 00 02 00 00	 cmp	 eax, 512		; 00000200H

; 5520 : 					break;
; 5521 : 				}
; 5522 : 			}

  00c4b	0f 8e 31 f4 ff
	ff		 jle	 $LL30@OpenItemSc

; 5518 : 				{
; 5519 : 					MsgBox("Error : Item Data fail. (LoopCount:%d) Item Type:%d Index %d", loop_count, ItemType, ItemSubType);

  00c51	53		 push	 ebx
  00c52	57		 push	 edi
  00c53	8b d0		 mov	 edx, eax
  00c55	52		 push	 edx
  00c56	68 00 00 00 00	 push	 OFFSET ??_C@_0DN@NLHNDLLL@Error?5?3?5Item?5Data?5fail?4?5?$CILoopCou@
  00c5b	e8 00 00 00 00	 call	 ?MsgBox@@YAXPADZZ	; MsgBox
  00c60	83 c4 10	 add	 esp, 16			; 00000010H
$LN61@OpenItemSc:

; 5523 : 
; 5524 : 			if ( loop_count > MAX_SUBTYPE_ITEMS )

  00c63	81 7d f8 00 02
	00 00		 cmp	 DWORD PTR _loop_count$[ebp], 512 ; 00000200H
  00c6a	7f 0e		 jg	 SHORT $LN64@OpenItemSc
$LN1@OpenItemSc:

; 5193 : 	}
; 5194 : 
; 5195 : 	
; 5196 : 	while ( true )
; 5197 : 	{
; 5198 : 		Token = GetToken();

  00c6c	e8 00 00 00 00	 call	 ?GetToken@@YA?AW4SMDToken@@XZ ; GetToken

; 5199 : 
; 5200 : 		if ( Token == 2 )

  00c71	83 f8 02	 cmp	 eax, 2
  00c74	0f 85 eb f3 ff
	ff		 jne	 $LL34@OpenItemSc
$LN64@OpenItemSc:
  00c7a	5f		 pop	 edi
  00c7b	5e		 pop	 esi
  00c7c	5b		 pop	 ebx
$LN62@OpenItemSc:

; 5525 : 			{
; 5526 : 				break;
; 5527 : 			}
; 5528 : 			
; 5529 : 		}
; 5530 : 
; 5531 : 
; 5532 : 	}
; 5533 : 	
; 5534 : 	fclose(SMDFile);

  00c7d	a1 00 00 00 00	 mov	 eax, DWORD PTR _SMDFile
  00c82	50		 push	 eax
  00c83	e8 00 00 00 00	 call	 _fclose
  00c88	83 c4 04	 add	 esp, 4

; 5535 : 	return TRUE;

  00c8b	b8 01 00 00 00	 mov	 eax, 1

; 5536 : }

  00c90	8b e5		 mov	 esp, ebp
  00c92	5d		 pop	 ebp
  00c93	c3		 ret	 0
?OpenItemScript@@YAHPAD@Z ENDP				; OpenItemScript
_TEXT	ENDS
PUBLIC	?OpenItemNameScript@@YAHPAD@Z			; OpenItemNameScript
; Function compile flags: /Ogtp
;	COMDAT ?OpenItemNameScript@@YAHPAD@Z
_TEXT	SEGMENT
_FileName$ = 8						; size = 4
?OpenItemNameScript@@YAHPAD@Z PROC			; OpenItemNameScript, COMDAT

; 5539 : {

  00000	55		 push	 ebp
  00001	8b ec		 mov	 ebp, esp

; 5540 : 	
; 5541 : 	int Token;
; 5542 : 
; 5543 : 	SMDFile = fopen(FileName, "r");

  00003	8b 45 08	 mov	 eax, DWORD PTR _FileName$[ebp]
  00006	68 00 00 00 00	 push	 OFFSET ??_C@_01KDCPPGHE@r?$AA@
  0000b	50		 push	 eax
  0000c	e8 00 00 00 00	 call	 _fopen
  00011	83 c4 08	 add	 esp, 8
  00014	a3 00 00 00 00	 mov	 DWORD PTR _SMDFile, eax

; 5544 : 
; 5545 : 	if (SMDFile == 0 )

  00019	85 c0		 test	 eax, eax
  0001b	75 02		 jne	 SHORT $LN14@OpenItemNa

; 5591 : }

  0001d	5d		 pop	 ebp
  0001e	c3		 ret	 0
$LN14@OpenItemNa:

; 5546 : 	{
; 5547 : 		return FALSE;
; 5548 : 	}
; 5549 : 
; 5550 : 	while ( true )
; 5551 : 	{
; 5552 : 		Token = GetToken();

  0001f	e8 00 00 00 00	 call	 ?GetToken@@YA?AW4SMDToken@@XZ ; GetToken

; 5553 : 
; 5554 : 		if ( Token == 2 )

  00024	83 f8 02	 cmp	 eax, 2
  00027	0f 84 a0 00 00
	00		 je	 $LN25@OpenItemNa
  0002d	53		 push	 ebx
  0002e	56		 push	 esi
  0002f	57		 push	 edi
$LL8@OpenItemNa:

; 5555 : 		{
; 5556 : 			break;
; 5557 : 		}
; 5558 : 		if ( Token == 1 )

  00030	83 f8 01	 cmp	 eax, 1
  00033	0f 85 83 00 00
	00		 jne	 $LN24@OpenItemNa

; 5559 : 		{
; 5560 : 			int ItemType;
; 5561 : 
; 5562 : 			ItemType = (int)TokenNumber;

  00039	d9 05 00 00 00
	00		 fld	 DWORD PTR _TokenNumber
  0003f	e8 00 00 00 00	 call	 __ftol2_sse
  00044	8b d8		 mov	 ebx, eax
$LL4@OpenItemNa:

; 5563 : 
; 5564 : 			while ( true )
; 5565 : 			{
; 5566 : 				int ItemSubType;
; 5567 : 				LPITEM_ATTRIBUTE p;
; 5568 : 
; 5569 : 				Token = GetToken();

  00046	e8 00 00 00 00	 call	 ?GetToken@@YA?AW4SMDToken@@XZ ; GetToken

; 5570 : 				ItemSubType = (int)TokenNumber;

  0004b	d9 05 00 00 00
	00		 fld	 DWORD PTR _TokenNumber
  00051	8b f0		 mov	 esi, eax
  00053	e8 00 00 00 00	 call	 __ftol2_sse
  00058	8b f8		 mov	 edi, eax

; 5571 : 
; 5572 : 				if ( Token == 0 )

  0005a	85 f6		 test	 esi, esi
  0005c	75 33		 jne	 SHORT $LN23@OpenItemNa

; 5573 : 				{
; 5574 : 					if ( strcmp("end", TokenString ) == 0 )

  0005e	b9 00 00 00 00	 mov	 ecx, OFFSET _TokenString
  00063	b8 00 00 00 00	 mov	 eax, OFFSET ??_C@_03JBJLGPFL@end?$AA@
$LL19@OpenItemNa:
  00068	8a 10		 mov	 dl, BYTE PTR [eax]
  0006a	3a 11		 cmp	 dl, BYTE PTR [ecx]
  0006c	75 1a		 jne	 SHORT $LN20@OpenItemNa
  0006e	84 d2		 test	 dl, dl
  00070	74 12		 je	 SHORT $LN21@OpenItemNa
  00072	8a 50 01	 mov	 dl, BYTE PTR [eax+1]
  00075	3a 51 01	 cmp	 dl, BYTE PTR [ecx+1]
  00078	75 0e		 jne	 SHORT $LN20@OpenItemNa
  0007a	83 c0 02	 add	 eax, 2
  0007d	83 c1 02	 add	 ecx, 2
  00080	84 d2		 test	 dl, dl
  00082	75 e4		 jne	 SHORT $LL19@OpenItemNa
$LN21@OpenItemNa:
  00084	33 c0		 xor	 eax, eax
  00086	eb 05		 jmp	 SHORT $LN22@OpenItemNa
$LN20@OpenItemNa:
  00088	1b c0		 sbb	 eax, eax
  0008a	83 d8 ff	 sbb	 eax, -1
$LN22@OpenItemNa:
  0008d	85 c0		 test	 eax, eax
  0008f	74 2b		 je	 SHORT $LN24@OpenItemNa
$LN23@OpenItemNa:

; 5575 : 					{
; 5576 : 						break;
; 5577 : 					}
; 5578 : 				}
; 5579 : 					
; 5580 : 				p = &ItemAttribute[ItemType*MAX_SUBTYPE_ITEMS + ItemSubType];
; 5581 : 
; 5582 : 				Token = GetToken();

  00091	e8 00 00 00 00	 call	 ?GetToken@@YA?AW4SMDToken@@XZ ; GetToken

; 5583 : 				strcpy(&p->Name[0], TokenString );

  00096	8b cb		 mov	 ecx, ebx
  00098	c1 e1 09	 shl	 ecx, 9
  0009b	03 cf		 add	 ecx, edi
  0009d	6b c9 70	 imul	 ecx, 112		; 00000070H
  000a0	b8 00 00 00 00	 mov	 eax, OFFSET _TokenString
  000a5	2b c8		 sub	 ecx, eax
  000a7	8d 91 00 00 00
	00		 lea	 edx, DWORD PTR ?ItemAttribute@@3PAUITEM_ATTRIBUTE@@A[ecx]
  000ad	8d 49 00	 npad	 3
$LL12@OpenItemNa:
  000b0	8a 08		 mov	 cl, BYTE PTR [eax]
  000b2	88 0c 02	 mov	 BYTE PTR [edx+eax], cl
  000b5	40		 inc	 eax
  000b6	84 c9		 test	 cl, cl
  000b8	75 f6		 jne	 SHORT $LL12@OpenItemNa

; 5584 : 
; 5585 : 				
; 5586 : 			}

  000ba	eb 8a		 jmp	 SHORT $LL4@OpenItemNa
$LN24@OpenItemNa:

; 5546 : 	{
; 5547 : 		return FALSE;
; 5548 : 	}
; 5549 : 
; 5550 : 	while ( true )
; 5551 : 	{
; 5552 : 		Token = GetToken();

  000bc	e8 00 00 00 00	 call	 ?GetToken@@YA?AW4SMDToken@@XZ ; GetToken

; 5553 : 
; 5554 : 		if ( Token == 2 )

  000c1	83 f8 02	 cmp	 eax, 2
  000c4	0f 85 66 ff ff
	ff		 jne	 $LL8@OpenItemNa
  000ca	5f		 pop	 edi
  000cb	5e		 pop	 esi
  000cc	5b		 pop	 ebx
$LN25@OpenItemNa:

; 5587 : 		}
; 5588 : 	}
; 5589 : 	fclose(SMDFile);

  000cd	8b 15 00 00 00
	00		 mov	 edx, DWORD PTR _SMDFile
  000d3	52		 push	 edx
  000d4	e8 00 00 00 00	 call	 _fclose
  000d9	83 c4 04	 add	 esp, 4

; 5590 : 	return TRUE;

  000dc	b8 01 00 00 00	 mov	 eax, 1

; 5591 : }

  000e1	5d		 pop	 ebp
  000e2	c3		 ret	 0
?OpenItemNameScript@@YAHPAD@Z ENDP			; OpenItemNameScript
_TEXT	ENDS
PUBLIC	__$ArrayPad$
PUBLIC	?OpenItemScript@@YAHPADH@Z			; OpenItemScript
EXTRN	??1CWzMemScript@@UAE@XZ:PROC			; CWzMemScript::~CWzMemScript
EXTRN	?GetString@CWzMemScript@@QAEPADXZ:PROC		; CWzMemScript::GetString
EXTRN	?GetNumber@CWzMemScript@@QAEHXZ:PROC		; CWzMemScript::GetNumber
EXTRN	?GetToken@CWzMemScript@@QAE?AW4SMDToken@@XZ:PROC ; CWzMemScript::GetToken
EXTRN	?SetBuffer@CWzMemScript@@QAEHPADH@Z:PROC	; CWzMemScript::SetBuffer
EXTRN	??0CWzMemScript@@QAE@XZ:PROC			; CWzMemScript::CWzMemScript
EXTRN	___CxxFrameHandler3:PROC
;	COMDAT xdata$x
xdata$x	SEGMENT
__unwindtable$?OpenItemScript@@YAHPADH@Z DD 0ffffffffH
	DD	FLAT:__unwindfunclet$?OpenItemScript@@YAHPADH@Z$0
__ehfuncinfo$?OpenItemScript@@YAHPADH@Z DD 019930522H
	DD	01H
	DD	FLAT:__unwindtable$?OpenItemScript@@YAHPADH@Z
	DD	2 DUP(00H)
	DD	2 DUP(00H)
	DD	00H
	DD	01H
; Function compile flags: /Ogtp
xdata$x	ENDS
;	COMDAT ?OpenItemScript@@YAHPADH@Z
_TEXT	SEGMENT
_loop_count$ = -152					; size = 4
_WzMemScript$ = -148					; size = 132
__$ArrayPad$ = -16					; size = 4
__$EHRec$ = -12						; size = 12
_Buffer$ = 8						; size = 4
_iSize$ = 12						; size = 4
?OpenItemScript@@YAHPADH@Z PROC				; OpenItemScript, COMDAT

; 5594 : {

  00000	55		 push	 ebp
  00001	8b ec		 mov	 ebp, esp
  00003	6a ff		 push	 -1
  00005	68 00 00 00 00	 push	 __ehhandler$?OpenItemScript@@YAHPADH@Z
  0000a	64 a1 00 00 00
	00		 mov	 eax, DWORD PTR fs:0
  00010	50		 push	 eax
  00011	81 ec 8c 00 00
	00		 sub	 esp, 140		; 0000008cH
  00017	a1 00 00 00 00	 mov	 eax, DWORD PTR ___security_cookie
  0001c	33 c5		 xor	 eax, ebp
  0001e	89 45 f0	 mov	 DWORD PTR __$ArrayPad$[ebp], eax
  00021	53		 push	 ebx
  00022	56		 push	 esi
  00023	57		 push	 edi
  00024	50		 push	 eax
  00025	8d 45 f4	 lea	 eax, DWORD PTR __$EHRec$[ebp]
  00028	64 a3 00 00 00
	00		 mov	 DWORD PTR fs:0, eax
  0002e	8b 75 08	 mov	 esi, DWORD PTR _Buffer$[ebp]

; 5595 : 	CWzMemScript WzMemScript;

  00031	8d 8d 6c ff ff
	ff		 lea	 ecx, DWORD PTR _WzMemScript$[ebp]
  00037	e8 00 00 00 00	 call	 ??0CWzMemScript@@QAE@XZ	; CWzMemScript::CWzMemScript

; 5596 : 	int n;
; 5597 : 	int loop_count;
; 5598 : 
; 5599 : 	int Token;
; 5600 : 
; 5601 : 	WzMemScript.SetBuffer(Buffer, iSize);

  0003c	8b 45 0c	 mov	 eax, DWORD PTR _iSize$[ebp]
  0003f	50		 push	 eax
  00040	56		 push	 esi
  00041	8d 8d 6c ff ff
	ff		 lea	 ecx, DWORD PTR _WzMemScript$[ebp]
  00047	c7 45 fc 00 00
	00 00		 mov	 DWORD PTR __$EHRec$[ebp+8], 0
  0004e	e8 00 00 00 00	 call	 ?SetBuffer@CWzMemScript@@QAEHPADH@Z ; CWzMemScript::SetBuffer

; 5602 : 
; 5603 : 	memset ( ItemAttribute, 0, sizeof(ItemAttribute) );

  00053	68 00 00 0e 00	 push	 917504			; 000e0000H
  00058	6a 00		 push	 0
  0005a	68 00 00 00 00	 push	 OFFSET ?ItemAttribute@@3PAUITEM_ATTRIBUTE@@A
  0005f	e8 00 00 00 00	 call	 _memset

; 5604 : 	
; 5605 : 	for ( n=0;n<MAX_ITEMS;n++)

  00064	d9 ee		 fldz
  00066	83 c4 0c	 add	 esp, 12			; 0000000cH
  00069	b8 58 00 00 00	 mov	 eax, OFFSET ?ItemAttribute@@3PAUITEM_ATTRIBUTE@@A+88
$LN36@OpenItemSc@2:

; 5606 : 	{
; 5607 : 		ItemAttribute[n].Level = -1;
; 5608 : 		ItemAttribute[n].RepaireMoneyRate  = 0;

  0006e	d9 10		 fst	 DWORD PTR [eax]
  00070	c6 40 ca ff	 mov	 BYTE PTR [eax-54], 255	; 000000ffH

; 5609 : 		ItemAttribute[n].AllRepaireMoneyRate  = 0;

  00074	d9 50 04	 fst	 DWORD PTR [eax+4]
  00077	83 c0 70	 add	 eax, 112		; 00000070H
  0007a	3d 58 00 0e 00	 cmp	 eax, OFFSET ?ItemAttribute@@3PAUITEM_ATTRIBUTE@@A+917592
  0007f	7c ed		 jl	 SHORT $LN36@OpenItemSc@2

; 5610 : 	}
; 5611 : 
; 5612 : 	while ( true )
; 5613 : 	{
; 5614 : 		Token = WzMemScript.GetToken();

  00081	8d 8d 6c ff ff
	ff		 lea	 ecx, DWORD PTR _WzMemScript$[ebp]
  00087	dd d8		 fstp	 ST(0)
  00089	e8 00 00 00 00	 call	 ?GetToken@CWzMemScript@@QAE?AW4SMDToken@@XZ ; CWzMemScript::GetToken

; 5615 : 
; 5616 : 		if ( Token == 2 )

  0008e	83 f8 02	 cmp	 eax, 2
  00091	0f 84 8c 08 00
	00		 je	 $LN49@OpenItemSc@2
$LN33@OpenItemSc@2:

; 5617 : 		{
; 5618 : 			break;
; 5619 : 		}
; 5620 : 		
; 5621 : 		if ( Token == 1 )

  00097	83 f8 01	 cmp	 eax, 1
  0009a	0f 85 6f 08 00
	00		 jne	 $LN28@OpenItemSc@2

; 5622 : 		{
; 5623 : 			int ItemType;
; 5624 : 
; 5625 : 			ItemType = WzMemScript.GetNumber();

  000a0	8d 8d 6c ff ff
	ff		 lea	 ecx, DWORD PTR _WzMemScript$[ebp]
  000a6	e8 00 00 00 00	 call	 ?GetNumber@CWzMemScript@@QAEHXZ ; CWzMemScript::GetNumber
  000ab	8b f8		 mov	 edi, eax

; 5626 : 			loop_count = 0;

  000ad	c7 85 68 ff ff
	ff 00 00 00 00	 mov	 DWORD PTR _loop_count$[ebp], 0
  000b7	eb 07 8d a4 24
	00 00 00 00	 npad	 9
$LL29@OpenItemSc@2:

; 5627 : 			while ( true )
; 5628 : 			{
; 5629 : 				int ItemSubType;
; 5630 : 				LPITEM_ATTRIBUTE p;
; 5631 : 
; 5632 : 				
; 5633 : 				Token = WzMemScript.GetToken();

  000c0	8d 8d 6c ff ff
